Certificate:
    Data:
        Version: 3 (0x2)
        Serial Number:
            0b:0c:0d:01:02:03:04:05:06:07:08:09:0a
    Signature Algorithm: sha1WithRSAEncryption
        Issuer: CN=OCSP_CATHREE, ST=KA, C=IN/emailAddress=ocspcathree@ocsptesting.com, O=CITRIX
        Validity
            Not Before: Jun 28 01:08:25 2016 GMT
            Not After : Jun 26 01:08:25 2026 GMT
        Subject: ST=KA, C=IN, CN=ocspcathree_001_server/emailAddress=ocspcathree_001@test_ca.com, O=CITRIX
        Subject Public Key Info:
            Public Key Algorithm: rsaEncryption
                Public-Key: (2048 bit)
                Modulus:
                    00:bb:06:a1:88:d1:c2:fa:4e:bf:04:82:b0:a3:ae:
                    a9:f4:cb:8c:12:68:9f:f7:16:d4:08:04:dc:61:eb:
                    76:36:36:52:a1:24:8e:87:04:9c:8f:7c:f2:e5:ca:
                    c4:d1:c4:54:79:6a:49:e5:5d:81:e6:89:aa:00:88:
                    8e:79:c2:95:a7:5b:da:bc:14:97:e1:2a:fb:39:a5:
                    f0:f4:05:3c:cf:90:25:8a:3e:7f:ea:97:3a:f8:6d:
                    0f:9b:b0:f8:00:10:77:74:41:fd:c8:d1:1e:b6:37:
                    95:92:03:c6:7f:35:15:5d:01:2f:7e:0a:3b:7c:df:
                    b1:79:a5:0e:c9:d0:e7:f5:d0:68:90:b4:6e:a9:d4:
                    31:58:dd:c1:33:42:69:31:3e:6f:22:79:f8:bf:79:
                    63:98:03:53:aa:f9:db:4a:c3:08:d9:9d:e7:c8:e2:
                    ba:11:be:0e:81:8e:70:13:0f:8d:c7:c0:6f:b2:ef:
                    0e:40:93:31:09:c1:ca:bf:1c:74:13:25:ec:67:b8:
                    18:75:ab:16:e1:d5:53:76:6a:7a:ca:43:4a:53:95:
                    2c:cb:7d:f9:e9:79:ee:49:7e:ef:f2:ad:77:13:0d:
                    d7:06:59:27:6d:ba:f5:7a:9b:8f:1f:fc:98:a4:57:
                    73:6a:3b:09:96:f6:ad:4d:9a:85:28:60:83:1d:38:
                    a3:af
                Exponent: 65537 (0x10001)
        X509v3 extensions:
            Netscape Cert Type: 
                SSL Server
            X509v3 Subject Key Identifier: 
                7B:27:CB:72:4C:ED:43:42:25:E8:2B:77:65:00:FB:37:82:9F:94:20
            X509v3 Authority Key Identifier: 
                keyid:96:54:A1:BC:07:1C:EF:D7:86:C2:A1:CD:13:A7:F6:9B:22:D8:59:81
                DirName:/CN=OCSP_CATHREE/ST=KA/C=IN/emailAddress=ocspcathree@ocsptesting.com/O=CITRIX
                serial:C1:1F:31:B0:75:6E:FF:4F

            Authority Information Access: 
                OCSP - URI:http://s1.ocsp_cathree.citrite.net/responderpath

    Signature Algorithm: sha1WithRSAEncryption
         7f:f3:be:75:40:06:9c:e2:dd:fd:5d:97:03:d2:f4:3f:6b:f2:
         ef:19:be:e7:b3:f5:fa:01:cf:62:8b:ea:14:e0:45:e7:48:7e:
         24:61:17:3b:9b:87:85:1b:09:28:af:07:85:31:a1:d7:46:4a:
         50:76:ca:50:1a:af:cd:55:de:4f:3a:2a:fe:64:c5:0d:f7:0c:
         a8:af:82:d2:73:fc:4c:e0:25:17:27:69:a6:75:40:d4:0a:1c:
         a0:64:4c:30:d5:12:0b:53:06:c5:ce:7b:3e:15:0b:2c:b0:2d:
         a1:1b:0f:8a:a2:d5:bb:a8:56:4f:b3:eb:0f:b5:c4:f8:72:3c:
         f3:7b:6e:c8:90:84:e1:3d:80:90:8e:2f:9d:1f:dc:23:4d:e2:
         9f:49:53:36:f6:0b:7a:eb:0f:1a:7d:81:0f:f7:5e:e1:7e:62:
         54:dd:2c:54:de:a2:72:fd:65:f8:32:c1:8e:0c:69:8c:e7:e9:
         40:45:60:a0:20:9d:b5:f2:c1:bd:a1:1e:66:fe:23:f4:c6:26:
         81:4e:11:24:d7:c7:29:82:03:11:90:e5:81:f8:6a:fd:04:35:
         f9:19:b5:36:ad:dd:06:d6:17:44:5d:37:c6:ae:81:34:9e:bd:
         c6:65:b4:36:98:f6:f1:5e:9c:94:f1:30:8e:5e:c8:46:dc:b1:
         66:ed:d0:49
-----BEGIN CERTIFICATE-----
MIIEljCCA36gAwIBAgINCwwNAQIDBAUGBwgJCjANBgkqhkiG9w0BAQUFADBuMRUw
EwYDVQQDFAxPQ1NQX0NBVEhSRUUxCzAJBgNVBAgTAktBMQswCQYDVQQGEwJJTjEq
MCgGCSqGSIb3DQEJARYbb2NzcGNhdGhyZWVAb2NzcHRlc3RpbmcuY29tMQ8wDQYD
VQQKEwZDSVRSSVgwHhcNMTYwNjI4MDEwODI1WhcNMjYwNjI2MDEwODI1WjB4MQsw
CQYDVQQIEwJLQTELMAkGA1UEBhMCSU4xHzAdBgNVBAMUFm9jc3BjYXRocmVlXzAw
MV9zZXJ2ZXIxKjAoBgkqhkiG9w0BCQEWG29jc3BjYXRocmVlXzAwMUB0ZXN0X2Nh
LmNvbTEPMA0GA1UEChMGQ0lUUklYMIIBIjANBgkqhkiG9w0BAQEFAAOCAQ8AMIIB
CgKCAQEAuwahiNHC+k6/BIKwo66p9MuMEmif9xbUCATcYet2NjZSoSSOhwScj3zy
5crE0cRUeWpJ5V2B5omqAIiOecKVp1vavBSX4Sr7OaXw9AU8z5Alij5/6pc6+G0P
m7D4ABB3dEH9yNEetjeVkgPGfzUVXQEvfgo7fN+xeaUOydDn9dBokLRuqdQxWN3B
M0JpMT5vInn4v3ljmANTqvnbSsMI2Z3nyOK6Eb4OgY5wEw+Nx8Bvsu8OQJMxCcHK
vxx0EyXsZ7gYdasW4dVTdmp6ykNKU5Usy3356XnuSX7v8q13Ew3XBlknbbr1epuP
H/yYpFdzajsJlvatTZqFKGCDHTijrwIDAQABo4IBJzCCASMwEQYJYIZIAYb4QgEB
BAQDAgZAMB0GA1UdDgQWBBR7J8tyTO1DQiXoK3dlAPs3gp+UIDCBoAYDVR0jBIGY
MIGVgBSWVKG8Bxzv14bCoc0Tp/abIthZgaFypHAwbjEVMBMGA1UEAxQMT0NTUF9D
QVRIUkVFMQswCQYDVQQIEwJLQTELMAkGA1UEBhMCSU4xKjAoBgkqhkiG9w0BCQEW
G29jc3BjYXRocmVlQG9jc3B0ZXN0aW5nLmNvbTEPMA0GA1UEChMGQ0lUUklYggkA
wR8xsHVu/08wTAYIKwYBBQUHAQEEQDA+MDwGCCsGAQUFBzABhjBodHRwOi8vczEu
b2NzcF9jYXRocmVlLmNpdHJpdGUubmV0L3Jlc3BvbmRlcnBhdGgwDQYJKoZIhvcN
AQEFBQADggEBAH/zvnVABpzi3f1dlwPS9D9r8u8Zvuez9foBz2KL6hTgRedIfiRh
Fzubh4UbCSivB4UxoddGSlB2ylAar81V3k86Kv5kxQ33DKivgtJz/EzgJRcnaaZ1
QNQKHKBkTDDVEgtTBsXOez4VCyywLaEbD4qi1buoVk+z6w+1xPhyPPN7bsiQhOE9
gJCOL50f3CNN4p9JUzb2C3rrDxp9gQ/3XuF+YlTdLFTeonL9ZfgywY4MaYzn6UBF
YKAgnbXywb2hHmb+I/TGJoFOESTXxymCAxGQ5YH4av0ENfkZtTat3QbWF0RdN8au
gTSevcZltDaY9vFenJTxMI5eyEbcsWbt0Ek=
-----END CERTIFICATE-----
