Certificate:
    Data:
        Version: 3 (0x2)
        Serial Number: 84347146 (0x507090a)
    Signature Algorithm: sha1WithRSAEncryption
        Issuer: ST=KA, C=IN, CN=LevelOneTestCA/emailAddress=LevelOneTestCA@test_ca.com, O=CITRIX
        Validity
            Not Before: Feb 17 09:31:46 2016 GMT
            Not After : Feb 14 09:31:46 2026 GMT
        Subject: ST=KA, C=IN, CN=LevelTwoTestCA/emailAddress=LevelTwoTestCA@test_ca.com, O=CITRIX
        Subject Public Key Info:
            Public Key Algorithm: rsaEncryption
                Public-Key: (2048 bit)
                Modulus:
                    00:af:4f:ce:f5:a0:d7:88:eb:12:0b:ab:37:b9:66:
                    be:bf:f3:82:d0:f0:40:60:c5:c9:35:6f:c7:1d:f4:
                    a8:58:84:87:aa:c9:fc:20:3f:77:ee:ab:f2:e9:bc:
                    b6:d0:d3:45:62:90:44:3a:9c:a7:10:f0:25:1c:f5:
                    8b:58:f4:f6:12:52:2e:91:90:1e:39:89:15:19:12:
                    46:4b:7b:1f:9b:da:ca:3a:6d:b3:34:4f:9b:89:2c:
                    19:ab:da:56:e7:b3:f4:95:cb:52:19:ce:74:bf:80:
                    b3:91:1a:50:cb:48:b8:65:54:59:82:fe:83:a0:56:
                    08:64:cf:75:1a:8d:3b:a9:f7:fa:0f:15:f2:8c:34:
                    8d:ed:73:38:c2:64:90:7d:fe:fb:af:42:c1:c6:5d:
                    d5:08:f8:b2:76:f1:9a:22:89:bd:38:81:d5:d1:4f:
                    e0:57:2a:eb:58:35:fb:d7:ba:22:1d:59:c4:a2:65:
                    d0:28:2e:19:2a:0e:98:50:50:e7:67:f4:82:3b:19:
                    c3:bd:2f:4e:57:e5:bb:f1:dc:00:a9:0f:49:2e:5d:
                    be:8a:83:1f:99:3c:3f:9c:e8:b2:f5:89:d4:42:1d:
                    04:4d:c2:51:d7:43:8e:d5:3e:4d:c4:8b:73:c3:3b:
                    c8:5d:9f:ea:2a:cf:1c:6a:3e:21:47:62:12:f1:30:
                    fc:1b
                Exponent: 65537 (0x10001)
        X509v3 extensions:
            X509v3 Basic Constraints: 
                CA:TRUE
            Authority Information Access: 
                CA Issuers - URI:http://server.whatever.org/cert-path

            X509v3 Subject Key Identifier: 
                A5:DA:F5:FA:0A:E7:79:0E:74:46:A2:94:CE:9D:8A:5E:99:64:A3:9D
            X509v3 Authority Key Identifier: 
                keyid:87:A5:9B:E4:81:64:D9:46:B8:DF:D8:7A:9C:8F:C1:F0:11:09:91:9E
                DirName:/CN=RootTestCA/ST=KA/C=IN/emailAddress=RootTestCA@testca.com/O=CITRIX
                serial:01:02:03:04:05:06

            X509v3 Certificate Policies: 
                Policy: 1.2.3.4
                Policy: 1.5.6.7.8
                Policy: 1.3.5.8
                  CPS: http://my.host.name/
                  CPS: http://my.your.name/
                  User Notice:
                    Organization: Organisation Name
                    Numbers: 1, 2, 3, 4
                    Explicit Text: Explicit Text Here

            X509v3 Policy Mappings: 
                0.2.5.9:0.1.2.3, 0.3.1.2:0.2.4.6
    Signature Algorithm: sha1WithRSAEncryption
         c5:20:47:36:6a:8b:08:a2:96:83:b7:35:86:73:80:9b:e8:94:
         55:0e:1f:3a:48:80:ef:3e:71:0d:49:23:02:f5:16:c4:71:e0:
         8a:c7:ae:9c:18:f3:da:45:c0:77:ab:8e:77:7b:8a:72:95:d6:
         87:94:8e:d3:6d:f3:a0:e4:12:00:be:80:47:c2:4a:f8:11:50:
         2e:29:b8:05:e0:b3:7a:7b:b1:b1:28:a8:23:0c:1e:df:42:12:
         98:1a:75:fc:5c:1f:91:bc:8d:4e:76:46:9c:3e:74:55:c0:30:
         cc:e4:1e:5f:25:b0:e5:c9:61:78:bc:f1:95:72:64:e6:f8:97:
         e2:0c:11:93:ac:4b:ec:8d:e3:7e:41:b9:63:bb:64:0a:ef:99:
         92:48:10:ef:d3:0b:c1:37:f5:bc:d7:06:d6:b4:b3:3c:00:9d:
         dc:fb:87:c7:b9:51:6e:35:96:cd:98:43:5c:c5:bc:26:75:be:
         19:80:f3:8b:c9:fc:90:ef:8b:21:78:f2:6b:1e:fe:3e:2b:61:
         10:cf:5a:41:09:d6:c6:f5:24:92:8d:c4:6e:6c:58:44:11:59:
         86:bf:8f:36:63:c4:2f:c1:98:bc:f5:69:68:e9:9c:c5:00:af:
         c2:54:c8:b4:e7:56:69:14:e2:0f:40:85:22:9c:c8:9d:1c:79:
         3f:fc:ec:c2
-----BEGIN CERTIFICATE-----
MIIFPzCCBCegAwIBAgIEBQcJCjANBgkqhkiG9w0BAQUFADBvMQswCQYDVQQIEwJL
QTELMAkGA1UEBhMCSU4xFzAVBgNVBAMTDkxldmVsT25lVGVzdENBMSkwJwYJKoZI
hvcNAQkBFhpMZXZlbE9uZVRlc3RDQUB0ZXN0X2NhLmNvbTEPMA0GA1UEChMGQ0lU
UklYMB4XDTE2MDIxNzA5MzE0NloXDTI2MDIxNDA5MzE0NlowbzELMAkGA1UECBMC
S0ExCzAJBgNVBAYTAklOMRcwFQYDVQQDEw5MZXZlbFR3b1Rlc3RDQTEpMCcGCSqG
SIb3DQEJARYaTGV2ZWxUd29UZXN0Q0FAdGVzdF9jYS5jb20xDzANBgNVBAoTBkNJ
VFJJWDCCASIwDQYJKoZIhvcNAQEBBQADggEPADCCAQoCggEBAK9PzvWg14jrEgur
N7lmvr/zgtDwQGDFyTVvxx30qFiEh6rJ/CA/d+6r8um8ttDTRWKQRDqcpxDwJRz1
i1j09hJSLpGQHjmJFRkSRkt7H5vayjptszRPm4ksGavaVuez9JXLUhnOdL+As5Ea
UMtIuGVUWYL+g6BWCGTPdRqNO6n3+g8V8ow0je1zOMJkkH3++69CwcZd1Qj4snbx
miKJvTiB1dFP4Fcq61g1+9e6Ih1ZxKJl0CguGSoOmFBQ52f0gjsZw70vTlflu/Hc
AKkPSS5dvoqDH5k8P5zosvWJ1EIdBE3CUddDjtU+TcSLc8M7yF2f6irPHGo+IUdi
EvEw/BsCAwEAAaOCAeEwggHdMAwGA1UdEwQFMAMBAf8wQAYIKwYBBQUHAQEENDAy
MDAGCCsGAQUFBzAChiRodHRwOi8vc2VydmVyLndoYXRldmVyLm9yZy9jZXJ0LXBh
dGgwHQYDVR0OBBYEFKXa9foK53kOdEailM6dil6ZZKOdMIGVBgNVHSMEgY0wgYqA
FIelm+SBZNlGuN/YepyPwfARCZGeoWqkaDBmMRMwEQYDVQQDEwpSb290VGVzdENB
MQswCQYDVQQIEwJLQTELMAkGA1UEBhMCSU4xJDAiBgkqhkiG9w0BCQEWFVJvb3RU
ZXN0Q0FAdGVzdGNhLmNvbTEPMA0GA1UEChMGQ0lUUklYggYBAgMEBQYwga4GA1Ud
IASBpjCBozAFBgMqAwQwBgYELQYHCDCBkQYDKwUIMIGJMCAGCCsGAQUFBwIBFhRo
dHRwOi8vbXkuaG9zdC5uYW1lLzAgBggrBgEFBQcCARYUaHR0cDovL215LnlvdXIu
bmFtZS8wQwYIKwYBBQUHAgIwNzAhFhFPcmdhbmlzYXRpb24gTmFtZTAMAgEBAgEC
AgEDAgEEGhJFeHBsaWNpdCBUZXh0IEhlcmUwIwYDVR0hBBwwgDAKBgMCBQkGAwEC
AzAKBgMDAQIGAwIEBgAAMA0GCSqGSIb3DQEBBQUAA4IBAQDFIEc2aosIopaDtzWG
c4Cb6JRVDh86SIDvPnENSSMC9RbEceCKx66cGPPaRcB3q453e4pyldaHlI7TbfOg
5BIAvoBHwkr4EVAuKbgF4LN6e7GxKKgjDB7fQhKYGnX8XB+RvI1OdkacPnRVwDDM
5B5fJbDlyWF4vPGVcmTm+JfiDBGTrEvsjeN+Qblju2QK75mSSBDv0wvBN/W81wbW
tLM8AJ3c+4fHuVFuNZbNmENcxbwmdb4ZgPOLyfyQ74shePJrHv4+K2EQz1pBCdbG
9SSSjcRubFhEEVmGv482Y8QvwZi89Wlo6ZzFAK/CVMi051ZpFOIPQIUinMidHHk/
/OzC
-----END CERTIFICATE-----
