Certificate:
    Data:
        Version: 3 (0x2)
        Serial Number: 1108152157446 (0x10203040506)
    Signature Algorithm: sha1WithRSAEncryption
        Issuer: CN=RootTestCA, ST=KA, C=IN/emailAddress=RootTestCA@testca.com, O=CITRIX
        Validity
            Not Before: Feb 17 05:48:06 2016 GMT
            Not After : Feb 14 05:48:06 2026 GMT
        Subject: ST=KA, C=IN, CN=LevelOneTestCA/emailAddress=LevelOneTestCA@test_ca.com, O=CITRIX
        Subject Public Key Info:
            Public Key Algorithm: rsaEncryption
                Public-Key: (2048 bit)
                Modulus:
                    00:db:b7:53:54:a0:cf:75:be:77:59:eb:31:a7:b6:
                    fe:63:30:c9:a7:49:c0:e8:75:81:95:73:72:49:25:
                    dd:f0:fe:09:5f:4d:40:9b:b7:5f:ff:18:dd:5d:b5:
                    71:d8:4c:97:1b:05:83:0d:66:5d:9e:d3:92:8a:62:
                    3c:a0:7b:b1:d6:10:8f:c3:5e:18:4d:90:c0:0d:d5:
                    f8:9c:ba:34:1e:35:ce:ee:19:04:3d:30:10:f2:66:
                    68:33:aa:74:b9:27:61:91:28:73:a8:86:0b:6e:ec:
                    7e:15:7f:ed:e8:d4:4c:e9:42:d3:05:5e:a5:4a:af:
                    78:ad:23:75:c4:57:85:b8:4f:ab:f4:c2:44:10:dd:
                    f0:d7:a7:5c:75:9d:38:b8:fa:7b:9e:de:30:30:1f:
                    da:55:ef:ba:4d:1e:d6:f9:8a:49:f9:d9:03:4f:13:
                    c3:96:3f:4e:1c:5d:73:51:ba:73:da:d8:e6:f7:63:
                    86:48:89:d2:35:3d:9d:bf:f3:cf:a2:ef:a0:6e:6a:
                    99:21:67:b1:f1:a6:15:28:d6:09:86:88:c4:9e:59:
                    d2:b1:fa:1e:91:93:a8:8d:f3:fd:6d:26:6f:d8:1f:
                    fc:a9:69:7c:f1:1c:f5:27:3c:49:60:8b:dc:89:2a:
                    55:8b:5c:fe:44:b3:80:11:47:c0:37:34:0f:f2:50:
                    26:81
                Exponent: 65537 (0x10001)
        X509v3 extensions:
            X509v3 Basic Constraints: 
                CA:TRUE
            Authority Information Access: 
                CA Issuers - URI:http://server.whatever.org/cert-path

            X509v3 Subject Key Identifier: 
                87:A5:9B:E4:81:64:D9:46:B8:DF:D8:7A:9C:8F:C1:F0:11:09:91:9E
            X509v3 Authority Key Identifier: 
                keyid:28:F3:9E:25:54:F7:24:FD:1F:50:30:35:EF:F3:53:9D:43:EC:9E:8F
                DirName:/CN=RootTestCA/ST=KA/C=IN/emailAddress=RootTestCA@testca.com/O=CITRIX
                serial:9C:3A:18:50:07:30:7B:F9

            X509v3 Certificate Policies: 
                Policy: testoid1
                Policy: 1.5.6.7.8
                Policy: 1.3.5.8
                  CPS: http://my.host.name/
                  CPS: http://my.your.name/
                  User Notice:
                    Organization: Organisation Name
                    Numbers: 1, 2, 3, 4
                    Explicit Text: Explicit Text Here

            X509v3 Policy Mappings: 
                0.10.11.12:0.1.2.3, 0.3.5.7:0.2.4.6
    Signature Algorithm: sha1WithRSAEncryption
         9e:f7:81:ac:73:77:88:b0:21:ca:17:60:9c:d4:39:8e:9f:22:
         38:85:ec:45:d5:34:f7:b2:76:a4:87:de:c2:5a:f2:84:13:2b:
         32:b4:e6:65:0b:15:32:ec:a1:2a:76:9e:8f:5b:31:8a:9d:76:
         0c:05:ed:81:e1:16:eb:bb:11:aa:80:de:9e:cf:1c:a9:4a:54:
         d4:7b:8b:dd:58:cf:92:d3:f7:04:ee:ff:4a:45:7e:67:e1:48:
         11:b8:79:19:74:f9:b6:82:26:8e:8d:05:69:e3:16:17:86:14:
         84:31:14:a4:e8:5c:1b:7c:7a:69:44:c1:85:95:69:01:3d:46:
         3b:57:d8:29:05:47:2d:90:01:f4:23:40:66:b0:37:81:7d:b2:
         17:11:0d:c5:65:95:c5:b7:f6:a3:07:da:2b:89:e6:e0:57:94:
         97:10:98:d6:52:21:c0:b3:db:76:dd:d1:5d:f9:73:f8:b1:ac:
         e1:68:7a:dc:79:91:01:8b:9c:ef:21:2d:05:c5:46:70:cd:86:
         f6:65:2d:9f:da:4e:97:85:6b:c9:63:b8:e0:0c:f6:81:10:a5:
         da:04:48:f1:3b:c3:8d:76:e9:9d:a6:20:4e:6b:66:b2:b3:2d:
         87:43:69:9a:15:d5:51:c0:f9:64:be:30:b9:3e:a8:60:0f:04:
         1b:61:fd:59
-----BEGIN CERTIFICATE-----
MIIFOzCCBCOgAwIBAgIGAQIDBAUGMA0GCSqGSIb3DQEBBQUAMGYxEzARBgNVBAMT
ClJvb3RUZXN0Q0ExCzAJBgNVBAgTAktBMQswCQYDVQQGEwJJTjEkMCIGCSqGSIb3
DQEJARYVUm9vdFRlc3RDQUB0ZXN0Y2EuY29tMQ8wDQYDVQQKEwZDSVRSSVgwHhcN
MTYwMjE3MDU0ODA2WhcNMjYwMjE0MDU0ODA2WjBvMQswCQYDVQQIEwJLQTELMAkG
A1UEBhMCSU4xFzAVBgNVBAMTDkxldmVsT25lVGVzdENBMSkwJwYJKoZIhvcNAQkB
FhpMZXZlbE9uZVRlc3RDQUB0ZXN0X2NhLmNvbTEPMA0GA1UEChMGQ0lUUklYMIIB
IjANBgkqhkiG9w0BAQEFAAOCAQ8AMIIBCgKCAQEA27dTVKDPdb53Wesxp7b+YzDJ
p0nA6HWBlXNySSXd8P4JX01Am7df/xjdXbVx2EyXGwWDDWZdntOSimI8oHux1hCP
w14YTZDADdX4nLo0HjXO7hkEPTAQ8mZoM6p0uSdhkShzqIYLbux+FX/t6NRM6ULT
BV6lSq94rSN1xFeFuE+r9MJEEN3w16dcdZ04uPp7nt4wMB/aVe+6TR7W+YpJ+dkD
TxPDlj9OHF1zUbpz2tjm92OGSInSNT2dv/PPou+gbmqZIWex8aYVKNYJhojEnlnS
sfoekZOojfP9bSZv2B/8qWl88Rz1JzxJYIvciSpVi1z+RLOAEUfANzQP8lAmgQID
AQABo4IB5DCCAeAwDAYDVR0TBAUwAwEB/zBABggrBgEFBQcBAQQ0MDIwMAYIKwYB
BQUHMAKGJGh0dHA6Ly9zZXJ2ZXIud2hhdGV2ZXIub3JnL2NlcnQtcGF0aDAdBgNV
HQ4EFgQUh6Wb5IFk2Ua439h6nI/B8BEJkZ4wgZgGA1UdIwSBkDCBjYAUKPOeJVT3
JP0fUDA17/NTnUPsno+haqRoMGYxEzARBgNVBAMTClJvb3RUZXN0Q0ExCzAJBgNV
BAgTAktBMQswCQYDVQQGEwJJTjEkMCIGCSqGSIb3DQEJARYVUm9vdFRlc3RDQUB0
ZXN0Y2EuY29tMQ8wDQYDVQQKEwZDSVRSSViCCQCcOhhQBzB7+TCBrgYDVR0gBIGm
MIGjMAUGAyoDBDAGBgQtBgcIMIGRBgMrBQgwgYkwIAYIKwYBBQUHAgEWFGh0dHA6
Ly9teS5ob3N0Lm5hbWUvMCAGCCsGAQUFBwIBFhRodHRwOi8vbXkueW91ci5uYW1l
LzBDBggrBgEFBQcCAjA3MCEWEU9yZ2FuaXNhdGlvbiBOYW1lMAwCAQECAQICAQMC
AQQaEkV4cGxpY2l0IFRleHQgSGVyZTAjBgNVHSEEHDCAMAoGAwoLDAYDAQIDMAoG
AwMFBwYDAgQGAAAwDQYJKoZIhvcNAQEFBQADggEBAJ73gaxzd4iwIcoXYJzUOY6f
IjiF7EXVNPeydqSH3sJa8oQTKzK05mULFTLsoSp2no9bMYqddgwF7YHhFuu7EaqA
3p7PHKlKVNR7i91Yz5LT9wTu/0pFfmfhSBG4eRl0+baCJo6NBWnjFheGFIQxFKTo
XBt8emlEwYWVaQE9RjtX2CkFRy2QAfQjQGawN4F9shcRDcVllcW39qMH2iuJ5uBX
lJcQmNZSIcCz23bd0V35c/ixrOFoetx5kQGLnO8hLQXFRnDNhvZlLZ/aTpeFa8lj
uOAM9oEQpdoESPE7w4126Z2mIE5rZrKzLYdDaZoV1VHA+WS+MLk+qGAPBBth/Vk=
-----END CERTIFICATE-----
