Certificate:
    Data:
        Version: 3 (0x2)
        Serial Number:
            05:0a:05:0a:05:0a:05:0a:00:00:01
    Signature Algorithm: sha1WithRSAEncryption
        Issuer: ST=KA, C=IN, CN=LevelThreeClientCA/emailAddress=LevelThreeClientCA@test_ca.com, O=CITRIX
        Validity
            Not Before: Feb 17 11:35:23 2016 GMT
            Not After : Feb 14 11:35:23 2026 GMT
        Subject: ST=KA, C=IN, CN=2048_sha1_client/emailAddress=2048_sha1_client@test_ca.com, O=CITRIX
        Subject Public Key Info:
            Public Key Algorithm: rsaEncryption
                Public-Key: (2048 bit)
                Modulus:
                    00:c6:48:f8:db:df:8b:5d:7d:3b:59:d2:42:53:a7:
                    69:ec:9b:ed:7e:fb:94:b5:99:92:eb:37:92:ce:91:
                    37:5f:88:36:ab:d5:83:3e:01:b8:3e:a4:08:fb:cf:
                    db:d5:80:6b:4f:5d:d4:b9:a6:11:5a:dc:87:46:9b:
                    b0:c3:db:d3:3f:a8:06:59:43:e6:3e:6d:03:49:16:
                    b3:8e:e3:95:77:d8:fc:7b:c0:7b:fd:63:10:da:e1:
                    cf:c1:29:08:72:3b:f2:93:8c:e2:01:66:76:23:14:
                    aa:d3:67:41:30:32:e1:67:d9:2a:89:4d:c7:85:e9:
                    e9:45:a1:5e:04:2c:79:f4:d0:62:92:e2:95:8f:2b:
                    d9:e7:ed:d9:c1:9f:d3:c0:71:b0:af:64:80:41:61:
                    17:b7:78:d4:87:0a:36:88:21:0a:5e:2d:4c:d2:92:
                    dc:c0:60:5a:3c:e2:c3:be:7b:37:c7:f3:63:98:b2:
                    f7:51:ad:c6:70:b1:87:ab:88:31:83:8f:5b:ca:ee:
                    dc:06:f8:10:46:14:6a:ae:64:23:ec:8e:fb:47:78:
                    56:61:71:a1:ae:4d:71:a5:df:47:9f:e5:3d:2c:c8:
                    fb:8d:b7:34:41:0e:09:87:c1:dd:d1:5c:ef:55:21:
                    a2:92:6e:c0:5c:92:54:8e:8d:00:a4:ef:84:56:64:
                    03:8f
                Exponent: 65537 (0x10001)
        X509v3 extensions:
            X509v3 Basic Constraints: 
                CA:FALSE
            Netscape Cert Type: 
                SSL Client
            X509v3 Key Usage: 
                Digital Signature, Non Repudiation, Key Encipherment
            X509v3 Subject Key Identifier: 
                2F:A5:75:CA:E9:23:58:58:3B:96:54:98:86:39:57:D4:B3:4E:F6:D2
            X509v3 Authority Key Identifier: 
                keyid:DF:F5:69:E3:7D:93:55:F6:B4:A0:39:A4:93:AC:E4:90:F8:1D:6A:D2
                DirName:/ST=KA/C=IN/CN=LevelTwoClientCA/emailAddress=LevelTwoClientCA@test_ca.com/O=CITRIX
                serial:02:02:02:03:03:03

            X509v3 Certificate Policies: 
                Policy: testoid1
                Policy: 1.5.6.7.8

            X509v3 Policy Mappings: 
                0.10.11.12:0.1.2.3, 0.3.5.7:0.2.4.6
    Signature Algorithm: sha1WithRSAEncryption
         ab:2c:74:44:f6:36:18:40:19:e3:51:a9:33:8c:09:e7:43:07:
         6d:58:33:40:a9:d0:2d:46:79:3f:75:44:12:4c:cc:1c:90:3c:
         30:a0:44:19:1a:26:fd:6a:6b:35:89:99:be:85:98:3d:69:59:
         71:d3:4a:d9:fd:23:d0:1f:b8:d9:9d:70:b0:9d:b8:ce:e3:fa:
         99:da:38:6f:1b:31:86:62:f5:4f:42:55:bd:f5:01:90:32:6c:
         e6:40:2d:36:a6:70:ba:a3:86:97:36:69:1e:b5:3c:00:62:e9:
         e6:ca:5c:29:a0:21:87:08:db:a3:1c:b9:05:60:fe:6d:f3:e5:
         f0:23:8f:ef:fc:4d:d5:2d:d3:18:b9:3a:10:c2:c8:8b:4e:fd:
         f2:18:80:44:4f:30:98:e4:94:b5:86:12:f7:47:26:86:52:14:
         6a:71:2d:45:4d:49:de:70:06:e4:bd:c5:af:21:6a:93:05:bc:
         09:c2:7d:1c:95:a3:c6:88:c0:98:d1:98:7d:f3:52:a8:20:7b:
         42:8c:07:33:f0:9c:e4:dc:2a:53:7f:7b:b9:6a:d2:d2:68:77:
         79:98:d5:b8:24:47:aa:e0:97:8f:d1:39:e7:d9:74:ee:61:f5:
         57:81:1e:b7:4d:10:28:69:2f:43:c1:e8:2d:e5:d2:6d:94:a5:
         ef:f9:78:69
-----BEGIN CERTIFICATE-----
MIIEozCCA4ugAwIBAgILBQoFCgUKBQoAAAEwDQYJKoZIhvcNAQEFBQAwdzELMAkG
A1UECBMCS0ExCzAJBgNVBAYTAklOMRswGQYDVQQDExJMZXZlbFRocmVlQ2xpZW50
Q0ExLTArBgkqhkiG9w0BCQEWHkxldmVsVGhyZWVDbGllbnRDQUB0ZXN0X2NhLmNv
bTEPMA0GA1UEChMGQ0lUUklYMB4XDTE2MDIxNzExMzUyM1oXDTI2MDIxNDExMzUy
M1owczELMAkGA1UECBMCS0ExCzAJBgNVBAYTAklOMRkwFwYDVQQDFBAyMDQ4X3No
YTFfY2xpZW50MSswKQYJKoZIhvcNAQkBFhwyMDQ4X3NoYTFfY2xpZW50QHRlc3Rf
Y2EuY29tMQ8wDQYDVQQKEwZDSVRSSVgwggEiMA0GCSqGSIb3DQEBAQUAA4IBDwAw
ggEKAoIBAQDGSPjb34tdfTtZ0kJTp2nsm+1++5S1mZLrN5LOkTdfiDar1YM+Abg+
pAj7z9vVgGtPXdS5phFa3IdGm7DD29M/qAZZQ+Y+bQNJFrOO45V32Px7wHv9YxDa
4c/BKQhyO/KTjOIBZnYjFKrTZ0EwMuFn2SqJTceF6elFoV4ELHn00GKS4pWPK9nn
7dnBn9PAcbCvZIBBYRe3eNSHCjaIIQpeLUzSktzAYFo84sO+ezfH82OYsvdRrcZw
sYeriDGDj1vK7twG+BBGFGquZCPsjvtHeFZhcaGuTXGl30ef5T0syPuNtzRBDgmH
wd3RXO9VIaKSbsBcklSOjQCk74RWZAOPAgMBAAGjggEyMIIBLjAJBgNVHRMEAjAA
MBEGCWCGSAGG+EIBAQQEAwIHgDALBgNVHQ8EBAMCBeAwHQYDVR0OBBYEFC+ldcrp
I1hYO5ZUmIY5V9SzTvbSMIGiBgNVHSMEgZowgZeAFN/1aeN9k1X2tKA5pJOs5JD4
HWrSoXekdTBzMQswCQYDVQQIEwJLQTELMAkGA1UEBhMCSU4xGTAXBgNVBAMTEExl
dmVsVHdvQ2xpZW50Q0ExKzApBgkqhkiG9w0BCQEWHExldmVsVHdvQ2xpZW50Q0FA
dGVzdF9jYS5jb20xDzANBgNVBAoTBkNJVFJJWIIGAgICAwMDMBgGA1UdIAQRMA8w
BQYDKgMEMAYGBC0GBwgwIwYDVR0hBBwwgDAKBgMKCwwGAwECAzAKBgMDBQcGAwIE
BgAAMA0GCSqGSIb3DQEBBQUAA4IBAQCrLHRE9jYYQBnjUakzjAnnQwdtWDNAqdAt
Rnk/dUQSTMwckDwwoEQZGib9ams1iZm+hZg9aVlx00rZ/SPQH7jZnXCwnbjO4/qZ
2jhvGzGGYvVPQlW99QGQMmzmQC02pnC6o4aXNmketTwAYunmylwpoCGHCNujHLkF
YP5t8+XwI4/v/E3VLdMYuToQwsiLTv3yGIBETzCY5JS1hhL3RyaGUhRqcS1FTUne
cAbkvcWvIWqTBbwJwn0claPGiMCY0Zh981KoIHtCjAcz8Jzk3CpTf3u5atLSaHd5
mNW4JEeq4JeP0Tnn2XTuYfVXgR63TRAoaS9Dwegt5dJtlKXv+Xhp
-----END CERTIFICATE-----
