Certificate:
    Data:
        Version: 3 (0x2)
        Serial Number:
            05:0a:05:0a:05:0a:05:0a:00:00:04
    Signature Algorithm: sha256WithRSAEncryption
        Issuer: ST=KA, C=IN, CN=LevelThreeClientCA/emailAddress=LevelThreeClientCA@test_ca.com, O=CITRIX
        Validity
            Not Before: Feb 17 11:38:23 2016 GMT
            Not After : Feb 14 11:38:23 2026 GMT
        Subject: ST=KA, C=IN, CN=4096_sha2_client/emailAddress=4096_sha2_client@test_ca.com, O=CITRIX
        Subject Public Key Info:
            Public Key Algorithm: rsaEncryption
                Public-Key: (4096 bit)
                Modulus:
                    00:9c:2a:df:78:e6:c3:ed:ad:5a:be:7c:d8:6f:e3:
                    44:c5:fb:eb:4f:78:96:18:74:6d:c9:ba:ff:a9:c1:
                    12:ab:26:87:4e:af:7f:e8:92:19:30:d0:f1:ff:a0:
                    1e:24:8c:1a:2c:f8:7e:fb:cb:93:68:b4:92:4e:4c:
                    35:a2:88:d4:85:24:8d:9b:e3:df:80:de:a4:2f:c1:
                    a1:66:2d:27:6d:61:d2:32:40:33:de:5f:6f:e9:32:
                    25:ec:e0:0f:18:56:95:a0:a0:8f:ca:39:23:b0:0e:
                    48:34:0c:9b:b5:67:cc:b1:cc:e3:a0:c0:ae:ce:7b:
                    0e:e7:aa:72:7f:8d:62:ca:35:47:c6:af:df:c0:a7:
                    f8:bd:01:0d:b5:e5:c9:a9:c7:b1:22:52:d6:91:23:
                    ab:84:c0:49:59:b5:88:4e:8c:1d:06:14:a2:6b:09:
                    61:80:01:90:22:84:fb:09:16:19:48:aa:ea:f6:ff:
                    51:44:af:0c:2e:19:ce:21:0c:76:88:e9:96:30:1c:
                    42:a2:e1:cf:78:d0:a5:ef:ba:41:db:9e:f0:43:53:
                    09:2e:de:bc:da:5c:d4:23:a1:1b:f9:cf:e9:a0:ac:
                    37:b0:c1:a7:d4:c8:b8:d6:ab:21:17:3a:81:c5:4f:
                    1d:f8:61:b4:c4:0f:72:f3:6c:9e:36:2c:d4:b4:f6:
                    d4:79:79:af:d6:58:18:ac:da:da:d2:71:da:b9:bf:
                    8b:7f:5a:a9:f9:89:0c:0e:eb:fb:46:c5:b6:ae:03:
                    d6:9a:80:72:3e:ae:f0:8d:2b:5b:9b:26:fd:09:64:
                    7a:17:b0:0f:b5:04:e8:6a:23:fa:91:f9:11:6b:0a:
                    0b:1e:76:f2:90:a4:a8:23:fb:02:6b:75:30:e9:82:
                    85:f9:86:81:49:19:4f:0a:dc:46:19:3c:c2:15:2a:
                    f7:d3:c2:f1:d9:aa:9c:08:b9:ff:7f:0f:95:8a:d8:
                    3d:19:9b:5d:f2:00:e7:cb:72:71:44:5e:41:86:1c:
                    3c:96:db:d5:4c:22:eb:13:d0:38:74:08:ec:98:46:
                    77:93:b0:9c:4f:10:43:04:33:77:2e:1e:8e:e0:ec:
                    b8:4e:44:f2:6c:e6:b7:42:a1:ac:e9:1e:5d:41:08:
                    ee:5d:28:33:29:1d:3a:83:2b:ef:03:f4:ab:86:f3:
                    17:2d:30:bb:41:0e:68:30:35:5a:4c:db:fc:1d:1a:
                    43:bf:1c:48:a9:97:b8:79:ec:f0:b0:4c:b0:8a:06:
                    88:84:6c:0f:bf:a2:be:56:ad:b9:f2:d8:5d:3b:bf:
                    46:44:8d:16:44:d7:d0:8c:5e:63:c1:8a:94:f2:8f:
                    6b:72:ca:74:5d:a6:90:f7:4f:82:92:a8:e7:8b:05:
                    32:b7:9b
                Exponent: 65537 (0x10001)
        X509v3 extensions:
            X509v3 Basic Constraints: 
                CA:FALSE
            Netscape Cert Type: 
                SSL Client
            X509v3 Key Usage: 
                Digital Signature, Non Repudiation, Key Encipherment
            X509v3 Subject Key Identifier: 
                0E:AF:E8:33:96:17:ED:E0:9D:8E:0F:86:D9:FD:17:26:61:46:01:FB
            X509v3 Authority Key Identifier: 
                keyid:DF:F5:69:E3:7D:93:55:F6:B4:A0:39:A4:93:AC:E4:90:F8:1D:6A:D2
                DirName:/ST=KA/C=IN/CN=LevelTwoClientCA/emailAddress=LevelTwoClientCA@test_ca.com/O=CITRIX
                serial:02:02:02:03:03:03

            X509v3 Certificate Policies: 
                Policy: testoid1
                Policy: 1.5.6.7.8

            X509v3 Policy Mappings: 
                0.10.11.12:0.1.2.3, 0.3.5.7:0.2.4.6
    Signature Algorithm: sha256WithRSAEncryption
         29:d5:25:ae:ce:f2:1c:6e:e6:66:cc:e0:37:ec:c0:a5:27:32:
         56:c9:66:c0:62:97:80:81:1a:9b:a6:94:9f:7b:34:b6:f0:39:
         0d:6b:e0:03:21:29:80:c4:80:c1:23:65:aa:d5:d9:c2:f0:2f:
         0a:20:6f:3f:db:de:20:95:31:61:e6:0a:bd:1b:b0:89:03:4d:
         c7:16:93:00:66:f2:6b:c9:c2:87:22:5c:6c:1f:5e:85:94:62:
         2d:b5:d6:97:e0:70:7a:74:5c:88:ed:f7:68:90:14:2c:8d:03:
         8f:b4:7d:a5:d2:82:69:02:ae:b3:dc:d5:81:9e:a0:69:4a:3f:
         56:45:1f:40:b1:fc:61:04:b1:c3:f8:1e:3f:d6:70:c8:e1:b1:
         1c:fc:11:08:b1:98:4e:b8:02:d2:f7:70:77:47:93:d1:77:e5:
         ea:cb:0e:84:40:6d:00:b8:b1:ae:60:8f:23:6a:f6:49:8a:c3:
         5e:90:4f:90:7e:be:fc:93:a4:f2:64:dd:4a:fd:8c:10:46:3c:
         ac:7e:98:d1:d6:ed:45:af:57:c2:6c:9c:75:82:d8:cd:57:69:
         f9:d8:c9:3f:78:28:1c:eb:f7:04:a0:57:eb:6d:34:e9:98:df:
         38:5c:72:f8:66:a7:d7:7f:e8:d3:f6:3a:c3:80:4a:c5:2a:70:
         f8:6a:19:7e
-----BEGIN CERTIFICATE-----
MIIFozCCBIugAwIBAgILBQoFCgUKBQoAAAQwDQYJKoZIhvcNAQELBQAwdzELMAkG
A1UECBMCS0ExCzAJBgNVBAYTAklOMRswGQYDVQQDExJMZXZlbFRocmVlQ2xpZW50
Q0ExLTArBgkqhkiG9w0BCQEWHkxldmVsVGhyZWVDbGllbnRDQUB0ZXN0X2NhLmNv
bTEPMA0GA1UEChMGQ0lUUklYMB4XDTE2MDIxNzExMzgyM1oXDTI2MDIxNDExMzgy
M1owczELMAkGA1UECBMCS0ExCzAJBgNVBAYTAklOMRkwFwYDVQQDFBA0MDk2X3No
YTJfY2xpZW50MSswKQYJKoZIhvcNAQkBFhw0MDk2X3NoYTJfY2xpZW50QHRlc3Rf
Y2EuY29tMQ8wDQYDVQQKEwZDSVRSSVgwggIiMA0GCSqGSIb3DQEBAQUAA4ICDwAw
ggIKAoICAQCcKt945sPtrVq+fNhv40TF++tPeJYYdG3Juv+pwRKrJodOr3/okhkw
0PH/oB4kjBos+H77y5NotJJOTDWiiNSFJI2b49+A3qQvwaFmLSdtYdIyQDPeX2/p
MiXs4A8YVpWgoI/KOSOwDkg0DJu1Z8yxzOOgwK7Oew7nqnJ/jWLKNUfGr9/Ap/i9
AQ215cmpx7EiUtaRI6uEwElZtYhOjB0GFKJrCWGAAZAihPsJFhlIqur2/1FErwwu
Gc4hDHaI6ZYwHEKi4c940KXvukHbnvBDUwku3rzaXNQjoRv5z+mgrDewwafUyLjW
qyEXOoHFTx34YbTED3LzbJ42LNS09tR5ea/WWBis2trScdq5v4t/Wqn5iQwO6/tG
xbauA9aagHI+rvCNK1ubJv0JZHoXsA+1BOhqI/qR+RFrCgsedvKQpKgj+wJrdTDp
goX5hoFJGU8K3EYZPMIVKvfTwvHZqpwIuf9/D5WK2D0Zm13yAOfLcnFEXkGGHDyW
29VMIusT0Dh0COyYRneTsJxPEEMEM3cuHo7g7LhORPJs5rdCoazpHl1BCO5dKDMp
HTqDK+8D9KuG8xctMLtBDmgwNVpM2/wdGkO/HEipl7h57PCwTLCKBoiEbA+/or5W
rbny2F07v0ZEjRZE19CMXmPBipTyj2tyynRdppD3T4KSqOeLBTK3mwIDAQABo4IB
MjCCAS4wCQYDVR0TBAIwADARBglghkgBhvhCAQEEBAMCB4AwCwYDVR0PBAQDAgXg
MB0GA1UdDgQWBBQOr+gzlhft4J2OD4bZ/RcmYUYB+zCBogYDVR0jBIGaMIGXgBTf
9WnjfZNV9rSgOaSTrOSQ+B1q0qF3pHUwczELMAkGA1UECBMCS0ExCzAJBgNVBAYT
AklOMRkwFwYDVQQDExBMZXZlbFR3b0NsaWVudENBMSswKQYJKoZIhvcNAQkBFhxM
ZXZlbFR3b0NsaWVudENBQHRlc3RfY2EuY29tMQ8wDQYDVQQKEwZDSVRSSViCBgIC
AgMDAzAYBgNVHSAEETAPMAUGAyoDBDAGBgQtBgcIMCMGA1UdIQQcMIAwCgYDCgsM
BgMBAgMwCgYDAwUHBgMCBAYAADANBgkqhkiG9w0BAQsFAAOCAQEAKdUlrs7yHG7m
ZszgN+zApScyVslmwGKXgIEam6aUn3s0tvA5DWvgAyEpgMSAwSNlqtXZwvAvCiBv
P9veIJUxYeYKvRuwiQNNxxaTAGbya8nChyJcbB9ehZRiLbXWl+BwenRciO33aJAU
LI0Dj7R9pdKCaQKus9zVgZ6gaUo/VkUfQLH8YQSxw/geP9ZwyOGxHPwRCLGYTrgC
0vdwd0eT0Xfl6ssOhEBtALixrmCPI2r2SYrDXpBPkH6+/JOk8mTdSv2MEEY8rH6Y
0dbtRa9XwmycdYLYzVdp+djJP3goHOv3BKBX62006ZjfOFxy+Gan13/o0/Y6w4BK
xSpw+GoZfg==
-----END CERTIFICATE-----
