Certificate:
    Data:
        Version: 3 (0x2)
        Serial Number: 690161238265 (0xa0b0d0c0f9)
sha256WithRSAEncryption
        Issuer: ST=KA, C=IN, CN=SNICA2048_server/emailAddress=SNICA@test_ca.com, O=CITRIX
        Validity
            Not Before: Aug 22 02:00:46 2017 GMT
            Not After : Aug 20 02:00:46 2027 GMT
        Subject: ST=KA, C=IN, CN=*.news.abc.com/emailAddress=*.news.abc.com@test_ca.com, O=CITRIX
        Subject Public Key Info:
            Public Key Algorithm: rsaEncryption
                Public-Key: (2048 bit)
                Modulus:
                    00:c4:e0:e2:1b:76:3f:d0:4e:fc:50:57:7e:3f:b5:
                    da:19:ac:1c:4e:ea:39:b2:04:5d:f4:cb:a0:f9:51:
                    9b:91:24:d1:d1:79:dd:99:63:8c:a8:24:e2:e9:28:
                    81:72:51:c4:65:84:4c:54:d3:ed:2a:15:f9:64:03:
                    4b:3e:5e:4d:a2:db:49:34:ec:b3:54:0d:da:00:66:
                    72:55:6b:47:01:df:9a:58:94:b5:df:ee:7a:bc:8f:
                    9a:ff:67:48:c8:c5:52:14:f0:ca:51:d2:0c:76:41:
                    81:28:57:8d:08:1f:3c:29:ec:c9:f9:95:7c:bc:23:
                    17:c1:0e:b7:47:c4:07:67:cf:d7:01:de:0f:df:f5:
                    92:b6:ab:60:78:fb:06:95:fc:48:5b:81:13:eb:37:
                    d8:66:72:15:16:38:6c:2e:8f:17:23:15:ba:f4:2e:
                    f7:cc:73:cb:6d:d5:4c:f1:a9:ad:22:e6:db:3c:06:
                    45:76:80:c2:93:62:60:4f:7b:00:ea:ad:6d:03:7f:
                    51:6d:55:74:32:cc:cc:44:d9:25:b6:32:69:9c:a5:
                    c5:28:58:59:6b:c2:11:9a:88:6f:65:bf:b1:2e:d9:
                    3d:91:d4:f1:cd:dd:6b:3a:a6:f1:91:da:2b:9b:10:
                    ed:db:3e:d4:87:c6:c0:6b:0d:10:96:78:24:59:ec:
                    59:5f
                Exponent: 65537 (0x10001)
        X509v3 extensions:
            Netscape Cert Type: 
                SSL Server
            X509v3 Key Usage: 
                Digital Signature, Non Repudiation, Key Encipherment
            X509v3 Subject Key Identifier: 
                59:A2:EB:79:C6:CA:1B:8A:CA:4D:B2:9D:04:F7:7A:47:3B:3A:3D:52
            X509v3 Authority Key Identifier: 
                keyid:3C:67:A2:64:7B:B9:62:CC:A8:68:8D:2B:1D:CE:39:3A:BB:75:4E:66
                DirName:/ST=KA/C=IN/CN=TwoCA1024_server/emailAddress=TwoCA@test_ca.com/O=CITRIX
                serial:11:22:33:44:56

sha256WithRSAEncryption
         1a:29:1c:43:b5:ef:9d:95:52:ef:ca:32:b9:4a:7d:bc:16:5e:
         5c:96:1f:9d:a5:e8:d6:00:58:0f:f0:6c:2b:d9:3c:f2:df:43:
         6a:9e:9e:32:f6:02:4f:98:fb:bd:8b:de:68:88:60:84:10:bf:
         8e:15:0d:65:39:5a:7a:f8:38:5d:81:c4:a5:cf:ac:64:ae:58:
         1a:fa:62:2f:e1:f3:84:cc:c7:8a:8f:06:ab:72:d1:94:84:50:
         16:a6:20:49:be:d0:17:08:e9:f4:81:d7:f4:5b:1f:42:c0:8e:
         df:74:12:76:70:94:d7:5c:27:8c:ac:26:e3:03:05:50:42:d2:
         01:45:70:0e:22:f4:4b:77:ed:72:c2:13:1e:1c:7f:ed:2d:2c:
         03:8b:67:68:bb:6f:d4:1e:5e:49:f8:e5:33:33:8c:1f:e6:90:
         11:7e:07:0a:a6:92:13:56:d5:84:0f:50:9e:fa:0a:f1:5a:f0:
         e7:9b:0a:63:5f:8e:4f:dd:ce:c8:37:70:8b:b3:57:6f:39:eb:
         02:3f:ec:7c:7d:81:83:6b:9c:0e:92:37:55:cf:1d:84:c3:dc:
         4b:03:b0:b5:a9:0c:ec:6e:a4:05:1b:72:8f:c1:dd:29:df:c5:
         f6:e4:a7:5a:eb:ee:38:1a:8c:eb:5d:f4:61:56:97:ed:e9:0f:
         5b:af:47:d5
-----BEGIN CERTIFICATE-----
MIIEMzCCAxugAwIBAgIGAKCw0MD5MA0GCSqGSIb3DQEBCwUAMGgxCzAJBgNVBAgT
AktBMQswCQYDVQQGEwJJTjEZMBcGA1UEAxQQU05JQ0EyMDQ4X3NlcnZlcjEgMB4G
CSqGSIb3DQEJARYRU05JQ0FAdGVzdF9jYS5jb20xDzANBgNVBAoTBkNJVFJJWDAe
Fw0xNzA4MjIwMjAwNDZaFw0yNzA4MjAwMjAwNDZaMG8xCzAJBgNVBAgTAktBMQsw
CQYDVQQGEwJJTjEXMBUGA1UEAxQOKi5uZXdzLmFiYy5jb20xKTAnBgkqhkiG9w0B
CQEWGioubmV3cy5hYmMuY29tQHRlc3RfY2EuY29tMQ8wDQYDVQQKEwZDSVRSSVgw
ggEiMA0GCSqGSIb3DQEBAQUAA4IBDwAwggEKAoIBAQDE4OIbdj/QTvxQV34/tdoZ
rBxO6jmyBF30y6D5UZuRJNHRed2ZY4yoJOLpKIFyUcRlhExU0+0qFflkA0s+Xk2i
20k07LNUDdoAZnJVa0cB35pYlLXf7nq8j5r/Z0jIxVIU8MpR0gx2QYEoV40IHzwp
7Mn5lXy8IxfBDrdHxAdnz9cB3g/f9ZK2q2B4+waV/EhbgRPrN9hmchUWOGwujxcj
Fbr0LvfMc8tt1Uzxqa0i5ts8BkV2gMKTYmBPewDqrW0Df1FtVXQyzMxE2SW2Mmmc
pcUoWFlrwhGaiG9lv7Eu2T2R1PHN3Ws6pvGR2iubEO3bPtSHxsBrDRCWeCRZ7Flf
AgMBAAGjgdswgdgwEQYJYIZIAYb4QgEBBAQDAgZAMAsGA1UdDwQEAwIF4DAdBgNV
HQ4EFgQUWaLrecbKG4rKTbKdBPd6Rzs6PVIwgZYGA1UdIwSBjjCBi4AUPGeiZHu5
YsyoaI0rHc45Ort1TmahbKRqMGgxCzAJBgNVBAgTAktBMQswCQYDVQQGEwJJTjEZ
MBcGA1UEAxQQVHdvQ0ExMDI0X3NlcnZlcjEgMB4GCSqGSIb3DQEJARYRVHdvQ0FA
dGVzdF9jYS5jb20xDzANBgNVBAoTBkNJVFJJWIIFESIzRFYwDQYJKoZIhvcNAQEL
BQADggEBABopHEO1752VUu/KMrlKfbwWXlyWH52l6NYAWA/wbCvZPPLfQ2qenjL2
Ak+Y+72L3miIYIQQv44VDWU5Wnr4OF2BxKXPrGSuWBr6Yi/h84TMx4qPBqty0ZSE
UBamIEm+0BcI6fSB1/RbH0LAjt90EnZwlNdcJ4ysJuMDBVBC0gFFcA4i9Et37XLC
Ex4cf+0tLAOLZ2i7b9QeXkn45TMzjB/mkBF+BwqmkhNW1YQPUJ76CvFa8OebCmNf
jk/dzsg3cIuzV2856wI/7Hx9gYNrnA6SN1XPHYTD3EsDsLWpDOxupAUbco/B3Snf
xfbkp1rr7jgajOtd9GFWl+3pD1uvR9U=
-----END CERTIFICATE-----
