Certificate:
    Data:
        Version: 3 (0x2)
        Serial Number: 690161238262 (0xa0b0d0c0f6)
sha256WithRSAEncryption
        Issuer: ST=KA, C=IN, CN=SNICA2048_server/emailAddress=SNICA@test_ca.com, O=CITRIX
        Validity
            Not Before: Aug 22 01:55:47 2017 GMT
            Not After : Aug 20 01:55:47 2027 GMT
        Subject: ST=KA, C=IN, CN=news.abc.com/emailAddress=news.abc.com@test_ca.com, O=CITRIX
        Subject Public Key Info:
            Public Key Algorithm: rsaEncryption
                Public-Key: (2048 bit)
                Modulus:
                    00:ed:c3:68:2e:d4:6a:fb:ba:73:40:55:c6:56:4c:
                    3c:80:58:5d:c6:bc:58:9d:7a:b7:3b:39:7b:08:dc:
                    c6:bb:70:4a:16:69:75:67:23:56:65:f0:f5:be:40:
                    ae:d7:fb:f1:a6:9b:4a:4c:a1:15:89:2a:4c:37:c6:
                    74:cd:3b:3b:30:61:d3:68:36:15:90:6b:1b:e6:32:
                    26:5d:a8:40:8d:87:b0:03:66:27:d1:a8:46:84:75:
                    0a:da:75:a6:0a:a2:a5:e6:7d:3e:21:a5:05:88:33:
                    c8:44:21:4b:13:f6:28:0c:24:3c:b2:39:89:73:2d:
                    26:e2:03:12:c7:6a:c9:4f:4c:38:63:63:39:dc:0d:
                    f7:6e:bd:d0:51:e4:c4:36:b8:02:9f:c3:35:02:68:
                    49:7b:f8:81:61:c7:f8:7e:67:bb:e7:75:6d:a7:61:
                    2c:bf:a3:2f:fb:5c:c0:99:55:10:d6:98:cd:7a:0d:
                    28:e0:28:b5:95:9b:bd:1f:76:d4:48:5e:11:31:8c:
                    84:6f:9f:41:a0:b6:b4:5a:55:24:7d:9d:f3:ea:fc:
                    1c:dd:46:e6:23:db:47:19:c5:fc:bf:1e:38:db:96:
                    48:bf:4e:85:c8:95:69:e5:6f:dd:3e:97:d0:39:ec:
                    de:0b:52:b8:3b:49:42:39:d4:c8:c1:94:4d:ff:02:
                    23:95
                Exponent: 65537 (0x10001)
        X509v3 extensions:
            Netscape Cert Type: 
                SSL Server
            X509v3 Key Usage: 
                Digital Signature, Non Repudiation, Key Encipherment
            X509v3 Subject Key Identifier: 
                F1:20:E9:70:49:C1:BC:4B:15:51:EB:62:8A:3F:DD:07:17:87:ED:B3
            X509v3 Authority Key Identifier: 
                keyid:3C:67:A2:64:7B:B9:62:CC:A8:68:8D:2B:1D:CE:39:3A:BB:75:4E:66
                DirName:/ST=KA/C=IN/CN=TwoCA1024_server/emailAddress=TwoCA@test_ca.com/O=CITRIX
                serial:11:22:33:44:56

sha256WithRSAEncryption
         b8:cb:02:e7:ec:ff:57:6b:8f:54:d0:55:6b:b7:12:ed:a5:6a:
         24:64:5e:49:4f:d1:26:7d:1b:71:ca:10:dc:fd:ed:bd:bf:82:
         45:5a:df:80:64:89:7a:3a:90:01:a9:e2:08:bc:62:5b:27:41:
         66:06:b5:ae:7f:44:f4:fa:42:14:ab:f8:53:0b:8a:aa:0f:00:
         f2:70:66:e9:89:ac:7f:58:98:12:7b:5e:0d:82:cb:78:cc:96:
         0f:48:ca:99:28:94:5d:b7:49:e6:bb:9c:c6:d9:ab:d7:5d:91:
         3b:31:74:0c:96:21:60:f7:72:bc:18:4a:8f:6a:19:dd:d5:47:
         3e:1a:84:16:84:ab:22:68:f4:82:89:87:56:45:42:54:d9:eb:
         c4:44:5e:7b:87:f0:a6:5b:2d:a9:8a:45:91:ae:47:f2:f6:50:
         62:1d:4d:0e:9f:19:e8:18:98:c2:75:97:51:42:e2:3f:9f:33:
         b8:39:06:ed:fe:5d:ec:14:c2:d8:bb:24:13:8f:6a:65:47:b4:
         2f:47:ec:b5:ac:b4:0e:6c:a2:bb:54:48:dc:70:1a:82:35:89:
         8d:ec:ea:20:e3:b4:e9:21:f8:a5:9b:e2:16:68:30:9e:ca:58:
         b2:af:da:3e:fd:c6:5f:0b:44:63:16:53:8d:0e:34:86:46:7f:
         29:c7:3d:91
-----BEGIN CERTIFICATE-----
MIIELzCCAxegAwIBAgIGAKCw0MD2MA0GCSqGSIb3DQEBCwUAMGgxCzAJBgNVBAgT
AktBMQswCQYDVQQGEwJJTjEZMBcGA1UEAxQQU05JQ0EyMDQ4X3NlcnZlcjEgMB4G
CSqGSIb3DQEJARYRU05JQ0FAdGVzdF9jYS5jb20xDzANBgNVBAoTBkNJVFJJWDAe
Fw0xNzA4MjIwMTU1NDdaFw0yNzA4MjAwMTU1NDdaMGsxCzAJBgNVBAgTAktBMQsw
CQYDVQQGEwJJTjEVMBMGA1UEAxMMbmV3cy5hYmMuY29tMScwJQYJKoZIhvcNAQkB
FhhuZXdzLmFiYy5jb21AdGVzdF9jYS5jb20xDzANBgNVBAoTBkNJVFJJWDCCASIw
DQYJKoZIhvcNAQEBBQADggEPADCCAQoCggEBAO3DaC7Uavu6c0BVxlZMPIBYXca8
WJ16tzs5ewjcxrtwShZpdWcjVmXw9b5Artf78aabSkyhFYkqTDfGdM07OzBh02g2
FZBrG+YyJl2oQI2HsANmJ9GoRoR1Ctp1pgqipeZ9PiGlBYgzyEQhSxP2KAwkPLI5
iXMtJuIDEsdqyU9MOGNjOdwN92690FHkxDa4Ap/DNQJoSXv4gWHH+H5nu+d1badh
LL+jL/tcwJlVENaYzXoNKOAotZWbvR921EheETGMhG+fQaC2tFpVJH2d8+r8HN1G
5iPbRxnF/L8eONuWSL9OhciVaeVv3T6X0Dns3gtSuDtJQjnUyMGUTf8CI5UCAwEA
AaOB2zCB2DARBglghkgBhvhCAQEEBAMCBkAwCwYDVR0PBAQDAgXgMB0GA1UdDgQW
BBTxIOlwScG8SxVR62KKP90HF4ftszCBlgYDVR0jBIGOMIGLgBQ8Z6Jke7lizKho
jSsdzjk6u3VOZqFspGowaDELMAkGA1UECBMCS0ExCzAJBgNVBAYTAklOMRkwFwYD
VQQDFBBUd29DQTEwMjRfc2VydmVyMSAwHgYJKoZIhvcNAQkBFhFUd29DQUB0ZXN0
X2NhLmNvbTEPMA0GA1UEChMGQ0lUUklYggURIjNEVjANBgkqhkiG9w0BAQsFAAOC
AQEAuMsC5+z/V2uPVNBVa7cS7aVqJGReSU/RJn0bccoQ3P3tvb+CRVrfgGSJejqQ
AaniCLxiWydBZga1rn9E9PpCFKv4UwuKqg8A8nBm6Ymsf1iYEnteDYLLeMyWD0jK
mSiUXbdJ5rucxtmr112ROzF0DJYhYPdyvBhKj2oZ3dVHPhqEFoSrImj0gomHVkVC
VNnrxERee4fwplstqYpFka5H8vZQYh1NDp8Z6BiYwnWXUULiP58zuDkG7f5d7BTC
2LskE49qZUe0L0fstay0Dmyiu1RI3HAagjWJjezqIOO06SH4pZviFmgwnspYsq/a
Pv3GXwtEYxZTjQ40hkZ/Kcc9kQ==
-----END CERTIFICATE-----
