Certificate:
    Data:
        Version: 3 (0x2)
        Serial Number: 690161238259 (0xa0b0d0c0f3)
sha256WithRSAEncryption
        Issuer: ST=KA, C=IN, CN=SNICA2048_server/emailAddress=SNICA@test_ca.com, O=CITRIX
        Validity
            Not Before: Aug 22 01:42:15 2017 GMT
            Not After : Aug 20 01:42:15 2027 GMT
        Subject: ST=KA, C=IN, CN=*.news.abc.com/emailAddress=*.news.abc.com@test_ca.com, O=CITRIX
        Subject Public Key Info:
            Public Key Algorithm: rsaEncryption
                Public-Key: (2048 bit)
                Modulus:
                    00:c2:6e:1b:b3:46:7f:ad:3b:40:3b:6e:d6:ac:20:
                    30:aa:e8:ca:ff:75:af:1b:81:85:04:22:10:d8:d7:
                    4f:c5:b9:0c:1e:8c:27:b2:c3:29:95:58:07:a6:f2:
                    19:c0:dc:75:15:6e:b7:8c:b3:70:fe:ba:5d:b6:55:
                    3f:b4:09:ba:c6:0c:18:3c:ca:9a:79:9d:0e:79:43:
                    a5:41:58:4a:26:80:5b:d8:7d:d9:96:16:ed:b1:ab:
                    55:f4:db:bf:31:f6:21:78:0c:2c:f2:48:10:29:0d:
                    85:9a:43:26:fc:2a:a0:d8:37:6e:6c:19:16:ae:33:
                    a5:fe:01:40:07:ba:27:35:ec:f6:f3:9d:46:91:34:
                    c7:83:59:0f:2d:4d:d6:95:af:47:92:14:d3:56:97:
                    6a:69:d0:8f:da:2b:59:b0:fd:1d:61:68:fa:98:bd:
                    de:c8:41:8a:25:f6:4a:c7:71:9c:7b:4e:cb:0c:bc:
                    17:33:88:38:89:1f:91:31:01:42:d0:53:a8:c1:1c:
                    e2:59:4e:35:27:b1:0c:55:37:74:a1:a8:af:a0:cf:
                    e6:90:f9:ce:a5:9a:fc:b0:65:c7:a3:18:94:5f:08:
                    bc:6e:56:ca:54:3d:bb:26:da:0d:28:bd:37:1c:f1:
                    1c:50:67:7e:d1:87:9b:f6:c2:93:ad:13:9c:d9:e0:
                    a9:71
                Exponent: 65537 (0x10001)
        X509v3 extensions:
            Netscape Cert Type: 
                SSL Server
            X509v3 Key Usage: 
                Digital Signature, Non Repudiation, Key Encipherment
            X509v3 Subject Key Identifier: 
                7E:74:12:08:75:7F:09:5C:34:CC:D9:81:23:A3:13:63:66:76:5D:83
            X509v3 Authority Key Identifier: 
                keyid:3C:67:A2:64:7B:B9:62:CC:A8:68:8D:2B:1D:CE:39:3A:BB:75:4E:66
                DirName:/ST=KA/C=IN/CN=TwoCA1024_server/emailAddress=TwoCA@test_ca.com/O=CITRIX
                serial:11:22:33:44:56

sha256WithRSAEncryption
         a2:5d:8d:37:76:5e:fa:ae:f1:82:b3:18:05:60:45:20:ff:52:
         13:06:40:b5:4d:f1:d7:59:7e:0e:04:ce:b1:fe:6d:26:3e:cd:
         de:fd:5e:63:95:f0:27:68:35:5e:39:85:87:01:58:d8:64:d9:
         9b:23:60:9b:21:d5:d8:b3:55:2e:b6:cd:fc:5d:e5:9b:1c:35:
         72:f7:bb:bb:10:1e:eb:c6:e9:a2:42:82:c4:6f:29:68:ba:92:
         8e:a2:f9:9d:b7:bc:cc:05:59:fa:87:a0:a9:42:a6:4d:e1:05:
         7e:38:68:fc:37:e0:8e:bf:44:62:bd:2f:57:21:c9:d5:d6:f4:
         94:74:72:ca:e5:a3:dd:25:c3:b6:80:bc:19:4b:d3:bd:d3:0f:
         93:23:c8:5c:7f:00:7f:01:1a:e4:71:62:1a:2b:a8:e2:0c:46:
         06:28:03:82:20:a8:d5:8c:03:81:91:f4:1b:cd:d0:71:5b:20:
         75:3d:52:e1:25:30:2e:91:c4:48:68:40:97:eb:f5:2d:e7:7b:
         49:aa:f1:e3:d0:ee:18:24:1b:b0:ac:13:af:87:20:77:72:d6:
         d0:6e:d4:97:cf:a0:13:cd:2c:07:29:7e:68:e2:2d:2c:ba:12:
         62:f4:69:51:a7:af:54:8d:c7:f2:96:cd:8d:3f:65:c9:14:22:
         5a:98:a5:0d
-----BEGIN CERTIFICATE-----
MIIEMzCCAxugAwIBAgIGAKCw0MDzMA0GCSqGSIb3DQEBCwUAMGgxCzAJBgNVBAgT
AktBMQswCQYDVQQGEwJJTjEZMBcGA1UEAxQQU05JQ0EyMDQ4X3NlcnZlcjEgMB4G
CSqGSIb3DQEJARYRU05JQ0FAdGVzdF9jYS5jb20xDzANBgNVBAoTBkNJVFJJWDAe
Fw0xNzA4MjIwMTQyMTVaFw0yNzA4MjAwMTQyMTVaMG8xCzAJBgNVBAgTAktBMQsw
CQYDVQQGEwJJTjEXMBUGA1UEAxQOKi5uZXdzLmFiYy5jb20xKTAnBgkqhkiG9w0B
CQEWGioubmV3cy5hYmMuY29tQHRlc3RfY2EuY29tMQ8wDQYDVQQKEwZDSVRSSVgw
ggEiMA0GCSqGSIb3DQEBAQUAA4IBDwAwggEKAoIBAQDCbhuzRn+tO0A7btasIDCq
6Mr/da8bgYUEIhDY10/FuQwejCeywymVWAem8hnA3HUVbreMs3D+ul22VT+0CbrG
DBg8ypp5nQ55Q6VBWEomgFvYfdmWFu2xq1X0278x9iF4DCzySBApDYWaQyb8KqDY
N25sGRauM6X+AUAHuic17PbznUaRNMeDWQ8tTdaVr0eSFNNWl2pp0I/aK1mw/R1h
aPqYvd7IQYol9krHcZx7TssMvBcziDiJH5ExAULQU6jBHOJZTjUnsQxVN3ShqK+g
z+aQ+c6lmvywZcejGJRfCLxuVspUPbsm2g0ovTcc8RxQZ37Rh5v2wpOtE5zZ4Klx
AgMBAAGjgdswgdgwEQYJYIZIAYb4QgEBBAQDAgZAMAsGA1UdDwQEAwIF4DAdBgNV
HQ4EFgQUfnQSCHV/CVw0zNmBI6MTY2Z2XYMwgZYGA1UdIwSBjjCBi4AUPGeiZHu5
YsyoaI0rHc45Ort1TmahbKRqMGgxCzAJBgNVBAgTAktBMQswCQYDVQQGEwJJTjEZ
MBcGA1UEAxQQVHdvQ0ExMDI0X3NlcnZlcjEgMB4GCSqGSIb3DQEJARYRVHdvQ0FA
dGVzdF9jYS5jb20xDzANBgNVBAoTBkNJVFJJWIIFESIzRFYwDQYJKoZIhvcNAQEL
BQADggEBAKJdjTd2Xvqu8YKzGAVgRSD/UhMGQLVN8ddZfg4EzrH+bSY+zd79XmOV
8CdoNV45hYcBWNhk2ZsjYJsh1dizVS62zfxd5ZscNXL3u7sQHuvG6aJCgsRvKWi6
ko6i+Z23vMwFWfqHoKlCpk3hBX44aPw34I6/RGK9L1chydXW9JR0csrlo90lw7aA
vBlL073TD5MjyFx/AH8BGuRxYhorqOIMRgYoA4IgqNWMA4GR9BvN0HFbIHU9UuEl
MC6RxEhoQJfr9S3ne0mq8ePQ7hgkG7CsE6+HIHdy1tBu1JfPoBPNLAcpfmjiLSy6
EmL0aVGnr1SNx/KWzY0/ZckUIlqYpQ0=
-----END CERTIFICATE-----
