Certificate:
    Data:
        Version: 3 (0x2)
        Serial Number: 690161238256 (0xa0b0d0c0f0)
sha256WithRSAEncryption
        Issuer: ST=KA, C=IN, CN=SNICA2048_server/emailAddress=SNICA@test_ca.com, O=CITRIX
        Validity
            Not Before: Aug 22 01:34:16 2017 GMT
            Not After : Aug 20 01:34:16 2027 GMT
        Subject: ST=KA, C=IN, CN=sports.abc.com/emailAddress=sports.abc.com@test_ca.com, O=CITRIX
        Subject Public Key Info:
            Public Key Algorithm: rsaEncryption
                Public-Key: (2048 bit)
                Modulus:
                    00:bc:23:bf:54:48:66:87:13:9d:a3:31:84:de:7c:
                    6a:3b:25:e6:69:7d:de:05:8f:81:6d:59:7f:66:46:
                    44:06:c7:a6:4e:fe:72:e2:71:5f:16:ad:92:26:6c:
                    33:5d:d1:54:4b:41:45:5f:c3:81:4f:92:3f:88:3d:
                    de:c8:a2:23:f5:71:51:23:d5:79:cf:07:b9:d7:97:
                    8f:41:5e:ff:74:37:82:00:67:d8:72:d0:ac:27:fd:
                    49:84:d2:9e:e7:39:98:4a:5a:9b:5a:7b:e2:b8:27:
                    66:78:c8:67:43:6c:ac:83:04:d7:b5:82:f6:bf:49:
                    2a:47:db:c4:4d:c8:17:a5:1e:29:cf:2b:01:9d:37:
                    65:b8:5a:9f:ae:f3:6c:05:5b:11:27:22:f7:73:c7:
                    fd:42:c5:1a:4a:d4:0d:29:bf:92:d2:22:65:66:1d:
                    4d:66:aa:4e:fc:7b:b4:99:6a:c7:6b:ef:23:64:e6:
                    3e:3e:58:d8:63:2a:4e:6e:80:b8:69:b6:84:27:81:
                    2c:f9:d3:94:45:2f:ea:31:ee:9f:98:4b:a7:72:20:
                    20:92:a3:34:31:c0:0d:6c:19:af:07:4e:e7:20:20:
                    f0:20:80:f0:d2:a2:de:b7:41:44:5d:42:59:39:17:
                    20:c9:64:79:32:b4:da:30:f1:41:1e:0a:67:0e:b2:
                    8d:83
                Exponent: 65537 (0x10001)
        X509v3 extensions:
            Netscape Cert Type: 
                SSL Server
            X509v3 Key Usage: 
                Digital Signature, Non Repudiation, Key Encipherment
            X509v3 Subject Key Identifier: 
                8F:57:EE:26:5A:F8:6E:D5:44:25:8E:B4:95:E8:65:B4:B0:3C:C7:A9
            X509v3 Authority Key Identifier: 
                keyid:3C:67:A2:64:7B:B9:62:CC:A8:68:8D:2B:1D:CE:39:3A:BB:75:4E:66
                DirName:/ST=KA/C=IN/CN=TwoCA1024_server/emailAddress=TwoCA@test_ca.com/O=CITRIX
                serial:11:22:33:44:56

sha256WithRSAEncryption
         7b:20:79:6e:58:fc:ae:03:c5:a4:ca:18:c3:3e:17:e8:b8:d6:
         2d:f5:e5:52:1c:41:7f:49:42:b0:67:9b:38:4e:71:dd:3d:e5:
         2e:76:5d:a1:92:a8:7d:59:23:ae:7e:d5:d2:54:7e:9f:7c:4c:
         52:53:dd:d4:3f:d9:e3:32:64:a8:35:1b:ad:a3:a0:44:76:b2:
         04:65:8d:ec:c2:d5:2a:f2:a6:08:47:b9:e9:5f:57:dd:eb:85:
         6c:da:1e:72:e9:36:54:a6:31:7d:d4:ea:d1:7f:15:07:0f:08:
         24:29:d7:9a:58:10:d9:d2:63:cb:ab:f0:88:bc:5e:ac:6d:32:
         ad:7d:0a:4b:0a:f3:0f:f9:bd:f3:1f:f1:d3:c5:8f:27:dd:09:
         24:1d:cc:7a:5b:6a:a1:51:09:c3:b7:49:2b:ff:56:c1:39:38:
         88:25:c6:a6:72:22:c0:bf:d7:ee:ba:74:ae:46:c6:4f:d1:16:
         b5:9e:ec:e2:db:d5:9d:19:8c:82:fe:5d:1a:48:98:e3:b3:ea:
         f7:94:8c:07:30:e0:bb:25:0f:87:ef:fa:31:aa:ba:2e:b0:70:
         03:0f:2a:46:15:ed:70:0c:5f:62:a9:8e:53:63:a2:53:e0:72:
         f4:f3:5f:66:74:6e:1a:d5:f5:60:d2:1b:5e:9c:a9:f4:bf:93:
         e8:b2:69:68
-----BEGIN CERTIFICATE-----
MIIEMzCCAxugAwIBAgIGAKCw0MDwMA0GCSqGSIb3DQEBCwUAMGgxCzAJBgNVBAgT
AktBMQswCQYDVQQGEwJJTjEZMBcGA1UEAxQQU05JQ0EyMDQ4X3NlcnZlcjEgMB4G
CSqGSIb3DQEJARYRU05JQ0FAdGVzdF9jYS5jb20xDzANBgNVBAoTBkNJVFJJWDAe
Fw0xNzA4MjIwMTM0MTZaFw0yNzA4MjAwMTM0MTZaMG8xCzAJBgNVBAgTAktBMQsw
CQYDVQQGEwJJTjEXMBUGA1UEAxMOc3BvcnRzLmFiYy5jb20xKTAnBgkqhkiG9w0B
CQEWGnNwb3J0cy5hYmMuY29tQHRlc3RfY2EuY29tMQ8wDQYDVQQKEwZDSVRSSVgw
ggEiMA0GCSqGSIb3DQEBAQUAA4IBDwAwggEKAoIBAQC8I79USGaHE52jMYTefGo7
JeZpfd4Fj4FtWX9mRkQGx6ZO/nLicV8WrZImbDNd0VRLQUVfw4FPkj+IPd7IoiP1
cVEj1XnPB7nXl49BXv90N4IAZ9hy0Kwn/UmE0p7nOZhKWptae+K4J2Z4yGdDbKyD
BNe1gva/SSpH28RNyBelHinPKwGdN2W4Wp+u82wFWxEnIvdzx/1CxRpK1A0pv5LS
ImVmHU1mqk78e7SZasdr7yNk5j4+WNhjKk5ugLhptoQngSz505RFL+ox7p+YS6dy
ICCSozQxwA1sGa8HTucgIPAggPDSot63QURdQlk5FyDJZHkytNow8UEeCmcOso2D
AgMBAAGjgdswgdgwEQYJYIZIAYb4QgEBBAQDAgZAMAsGA1UdDwQEAwIF4DAdBgNV
HQ4EFgQUj1fuJlr4btVEJY60lehltLA8x6kwgZYGA1UdIwSBjjCBi4AUPGeiZHu5
YsyoaI0rHc45Ort1TmahbKRqMGgxCzAJBgNVBAgTAktBMQswCQYDVQQGEwJJTjEZ
MBcGA1UEAxQQVHdvQ0ExMDI0X3NlcnZlcjEgMB4GCSqGSIb3DQEJARYRVHdvQ0FA
dGVzdF9jYS5jb20xDzANBgNVBAoTBkNJVFJJWIIFESIzRFYwDQYJKoZIhvcNAQEL
BQADggEBAHsgeW5Y/K4DxaTKGMM+F+i41i315VIcQX9JQrBnmzhOcd095S52XaGS
qH1ZI65+1dJUfp98TFJT3dQ/2eMyZKg1G62joER2sgRljezC1SrypghHuelfV93r
hWzaHnLpNlSmMX3U6tF/FQcPCCQp15pYENnSY8ur8Ii8XqxtMq19CksK8w/5vfMf
8dPFjyfdCSQdzHpbaqFRCcO3SSv/VsE5OIglxqZyIsC/1+66dK5Gxk/RFrWe7OLb
1Z0ZjIL+XRpImOOz6veUjAcw4LslD4fv+jGqui6wcAMPKkYV7XAMX2KpjlNjolPg
cvTzX2Z0bhrV9WDSG16cqfS/k+iyaWg=
-----END CERTIFICATE-----
