Certificate:
    Data:
        Version: 3 (0x2)
        Serial Number: 690161238258 (0xa0b0d0c0f2)
sha256WithRSAEncryption
        Issuer: ST=KA, C=IN, CN=SNICA2048_server/emailAddress=SNICA@test_ca.com, O=CITRIX
        Validity
            Not Before: Aug 22 01:37:23 2017 GMT
            Not After : Aug 20 01:37:23 2027 GMT
        Subject: ST=KA, C=IN, CN=*.abc.com/emailAddress=*.abc.com@test_ca.com, O=CITRIX
        Subject Public Key Info:
            Public Key Algorithm: rsaEncryption
                Public-Key: (2048 bit)
                Modulus:
                    00:ae:0d:9e:5f:8a:b9:47:be:22:aa:69:dd:34:a6:
                    71:9b:a6:52:b4:0c:e4:53:2b:93:99:b4:05:60:4e:
                    0b:fe:37:ae:ae:fb:36:c7:87:3b:0c:7b:e2:17:a4:
                    31:56:a6:3a:69:f0:44:28:ea:cb:55:45:c6:d6:01:
                    fb:ca:6b:ee:f3:9e:9b:9f:11:26:0f:07:84:f5:0b:
                    3e:8f:c2:ae:c8:b9:93:28:6e:dd:a4:0d:d9:c7:8c:
                    09:07:c1:df:7b:3c:e0:ab:fc:85:18:14:b1:ee:35:
                    56:da:dc:3f:5f:8e:5e:a7:03:8a:43:e5:2d:60:82:
                    b1:20:02:d4:27:79:93:64:7c:eb:d2:6c:96:9f:62:
                    ab:2b:3a:68:48:a9:8f:f8:29:0a:43:37:a6:bd:8f:
                    65:2e:8d:67:2d:63:c2:52:c6:57:d1:5a:e4:8a:ab:
                    c1:f6:52:bb:10:98:b6:a6:d1:4d:69:ce:74:43:74:
                    f0:33:58:e6:be:24:46:1b:33:b6:f3:2f:ba:f2:ed:
                    3b:54:ad:9c:9b:51:38:9b:3c:18:55:68:d0:aa:74:
                    59:80:50:a8:7f:7e:00:de:44:78:8e:d1:02:9c:69:
                    14:53:78:d7:11:ce:6b:dd:b9:d0:0d:a7:69:ca:33:
                    25:b3:e5:9f:df:1f:ad:8c:fb:fa:a9:2e:28:0d:8a:
                    6d:bd
                Exponent: 65537 (0x10001)
        X509v3 extensions:
            Netscape Cert Type: 
                SSL Server
            X509v3 Key Usage: 
                Digital Signature, Non Repudiation, Key Encipherment
            X509v3 Subject Key Identifier: 
                D3:E3:97:18:80:BC:59:91:33:92:C4:6A:70:4F:5B:1B:F4:3E:1B:D9
            X509v3 Authority Key Identifier: 
                keyid:3C:67:A2:64:7B:B9:62:CC:A8:68:8D:2B:1D:CE:39:3A:BB:75:4E:66
                DirName:/ST=KA/C=IN/CN=TwoCA1024_server/emailAddress=TwoCA@test_ca.com/O=CITRIX
                serial:11:22:33:44:56

sha256WithRSAEncryption
         4c:d0:8f:ff:bd:72:c6:c6:20:e7:cc:05:f7:3a:44:87:70:28:
         5e:3b:87:b2:16:e3:fb:2f:b9:ba:b6:e1:27:ac:33:c3:5e:39:
         3e:fd:1b:d6:3d:ea:ce:ab:3a:00:4b:ed:1e:66:0a:b7:ac:39:
         12:3e:7b:c5:9c:c1:b0:b7:5c:ae:4e:9c:3b:f6:52:39:4c:76:
         3a:bc:8c:15:02:07:50:0e:3e:34:a8:1e:4c:cc:52:81:11:32:
         27:2a:b9:0e:fe:71:63:80:f0:08:04:7a:c4:96:76:b1:4c:55:
         85:6b:1d:e0:e0:c1:e3:b0:fe:b4:8a:41:26:fe:63:18:27:0e:
         0a:53:e4:b7:49:a7:a5:13:33:09:a5:e5:bf:4a:0c:93:3d:87:
         05:4d:2b:c9:93:43:48:28:7c:64:65:c2:96:15:18:f9:f5:64:
         fa:69:8a:f3:b4:50:f9:3e:d8:32:3c:8c:bd:a1:ac:3a:c6:ab:
         a9:97:c2:a3:cb:e2:52:38:ce:20:f4:c8:36:e5:fb:80:05:ae:
         cc:bb:f6:a5:95:7a:d9:7e:6b:09:02:93:7b:f3:79:16:9c:b9:
         e6:11:d3:d9:46:7b:06:20:55:da:1f:fd:6e:3f:fc:24:38:ab:
         7a:44:ec:d4:bb:f2:12:83:87:da:36:50:d7:f9:d9:a4:53:05:
         26:c5:82:21
-----BEGIN CERTIFICATE-----
MIIEKTCCAxGgAwIBAgIGAKCw0MDyMA0GCSqGSIb3DQEBCwUAMGgxCzAJBgNVBAgT
AktBMQswCQYDVQQGEwJJTjEZMBcGA1UEAxQQU05JQ0EyMDQ4X3NlcnZlcjEgMB4G
CSqGSIb3DQEJARYRU05JQ0FAdGVzdF9jYS5jb20xDzANBgNVBAoTBkNJVFJJWDAe
Fw0xNzA4MjIwMTM3MjNaFw0yNzA4MjAwMTM3MjNaMGUxCzAJBgNVBAgTAktBMQsw
CQYDVQQGEwJJTjESMBAGA1UEAxQJKi5hYmMuY29tMSQwIgYJKoZIhvcNAQkBFhUq
LmFiYy5jb21AdGVzdF9jYS5jb20xDzANBgNVBAoTBkNJVFJJWDCCASIwDQYJKoZI
hvcNAQEBBQADggEPADCCAQoCggEBAK4Nnl+KuUe+Iqpp3TSmcZumUrQM5FMrk5m0
BWBOC/43rq77NseHOwx74hekMVamOmnwRCjqy1VFxtYB+8pr7vOem58RJg8HhPUL
Po/Crsi5kyhu3aQN2ceMCQfB33s84Kv8hRgUse41VtrcP1+OXqcDikPlLWCCsSAC
1Cd5k2R869Jslp9iqys6aEipj/gpCkM3pr2PZS6NZy1jwlLGV9Fa5IqrwfZSuxCY
tqbRTWnOdEN08DNY5r4kRhsztvMvuvLtO1StnJtROJs8GFVo0Kp0WYBQqH9+AN5E
eI7RApxpFFN41xHOa9250A2nacozJbPln98frYz7+qkuKA2Kbb0CAwEAAaOB2zCB
2DARBglghkgBhvhCAQEEBAMCBkAwCwYDVR0PBAQDAgXgMB0GA1UdDgQWBBTT45cY
gLxZkTOSxGpwT1sb9D4b2TCBlgYDVR0jBIGOMIGLgBQ8Z6Jke7lizKhojSsdzjk6
u3VOZqFspGowaDELMAkGA1UECBMCS0ExCzAJBgNVBAYTAklOMRkwFwYDVQQDFBBU
d29DQTEwMjRfc2VydmVyMSAwHgYJKoZIhvcNAQkBFhFUd29DQUB0ZXN0X2NhLmNv
bTEPMA0GA1UEChMGQ0lUUklYggURIjNEVjANBgkqhkiG9w0BAQsFAAOCAQEATNCP
/71yxsYg58wF9zpEh3AoXjuHshbj+y+5urbhJ6wzw145Pv0b1j3qzqs6AEvtHmYK
t6w5Ej57xZzBsLdcrk6cO/ZSOUx2OryMFQIHUA4+NKgeTMxSgREyJyq5Dv5xY4Dw
CAR6xJZ2sUxVhWsd4ODB47D+tIpBJv5jGCcOClPkt0mnpRMzCaXlv0oMkz2HBU0r
yZNDSCh8ZGXClhUY+fVk+mmK87RQ+T7YMjyMvaGsOsarqZfCo8viUjjOIPTINuX7
gAWuzLv2pZV62X5rCQKTe/N5Fpy55hHT2UZ7BiBV2h/9bj/8JDirekTs1LvyEoOH
2jZQ1/nZpFMFJsWCIQ==
-----END CERTIFICATE-----
