Certificate:
    Data:
        Version: 3 (0x2)
        Serial Number: 690161238260 (0xa0b0d0c0f4)
sha256WithRSAEncryption
        Issuer: ST=KA, C=IN, CN=SNICA2048_server/emailAddress=SNICA@test_ca.com, O=CITRIX
        Validity
            Not Before: Aug 22 01:43:09 2017 GMT
            Not After : Aug 20 01:43:09 2027 GMT
        Subject: ST=KA, C=IN, CN=a.news.abc.com/emailAddress=a.news.abc.com@test_ca.com, O=CITRIX
        Subject Public Key Info:
            Public Key Algorithm: rsaEncryption
                Public-Key: (2048 bit)
                Modulus:
                    00:cb:a8:d5:e1:04:c6:f5:4a:75:38:97:f8:0c:d4:
                    8a:08:70:50:06:90:ff:61:cb:93:03:6b:31:98:6e:
                    ca:47:2b:d6:3c:a8:bb:15:ec:a4:fb:b7:4c:2d:b3:
                    e6:b0:f8:f7:b8:4c:49:60:63:08:94:75:2d:ca:55:
                    91:5c:fe:b0:7e:6d:10:ad:c1:d6:cf:bf:e8:22:31:
                    e6:b2:cf:b7:32:f6:2b:6c:59:a1:c9:a0:9f:e0:29:
                    5c:0c:ca:ef:9e:ac:bd:a5:58:1f:8a:50:50:42:47:
                    e6:c3:56:bf:00:52:cb:46:ec:59:c8:54:fe:49:81:
                    27:19:e6:6d:70:d7:c1:4e:4c:77:fe:17:19:21:c6:
                    8b:f4:d5:20:a6:8a:2b:08:6c:f2:4b:fb:d3:a6:9b:
                    b8:97:ab:64:df:6b:2f:58:bc:8a:08:e7:95:d8:cf:
                    3a:21:f8:55:7f:38:67:21:21:44:51:a2:79:2f:e2:
                    1d:0e:8d:38:a3:02:b9:69:8c:91:c6:21:c0:84:86:
                    43:33:62:a6:3c:9a:d7:47:63:c9:93:81:b3:67:2a:
                    9f:af:b2:92:ca:83:bf:4d:42:6f:fd:28:9c:f2:bd:
                    4e:a6:16:21:5c:db:2f:ee:4a:d5:07:cf:a3:51:9f:
                    e2:4e:7b:49:be:55:dd:bc:ee:48:9d:d5:a7:ab:9f:
                    75:35
                Exponent: 65537 (0x10001)
        X509v3 extensions:
            Netscape Cert Type: 
                SSL Server
            X509v3 Key Usage: 
                Digital Signature, Non Repudiation, Key Encipherment
            X509v3 Subject Key Identifier: 
                73:E5:ED:E1:AC:66:65:F9:BB:38:71:2D:0A:3F:F6:BF:0A:CF:85:AA
            X509v3 Authority Key Identifier: 
                keyid:3C:67:A2:64:7B:B9:62:CC:A8:68:8D:2B:1D:CE:39:3A:BB:75:4E:66
                DirName:/ST=KA/C=IN/CN=TwoCA1024_server/emailAddress=TwoCA@test_ca.com/O=CITRIX
                serial:11:22:33:44:56

sha256WithRSAEncryption
         bb:67:72:21:a0:70:17:c6:a0:7e:e4:c0:8a:00:1a:d5:10:6d:
         03:e8:dc:63:c9:bd:c6:0f:d1:91:6e:3b:ca:ba:39:64:45:57:
         2a:72:60:50:88:5b:d9:bb:ac:b5:6e:fc:f6:aa:21:96:89:da:
         5d:76:80:07:d7:df:53:11:7f:41:fd:e9:c6:d9:2a:a1:9d:fd:
         c8:8d:e3:c3:5e:a7:23:45:dd:f6:12:8b:6c:4b:83:73:2f:47:
         9b:32:54:97:15:9a:30:66:52:69:62:dc:40:84:ee:9b:f8:ca:
         7d:9b:59:4f:63:6a:24:28:a9:e9:f7:d1:44:05:5b:4f:13:76:
         59:23:d0:70:cc:6a:1e:6c:76:f4:a5:3c:58:fc:ea:3b:2d:b6:
         17:12:6e:56:87:66:0f:26:2e:e0:f0:dd:e9:f4:a9:49:04:d4:
         5c:a4:01:44:df:c6:34:f6:f8:70:7b:ec:16:b8:91:a5:2f:d9:
         e0:ad:45:5b:dc:ea:16:4b:6d:e8:4f:25:0e:2f:4e:44:bf:09:
         e5:1f:ad:52:15:a3:24:29:ba:75:42:bb:57:ba:5c:9e:4c:e7:
         56:bd:79:18:6e:2f:48:ed:ee:d4:8a:95:6b:d7:13:19:b4:e2:
         f1:f1:3b:8f:c9:f4:0a:13:a6:cc:4a:41:bd:0d:fb:41:82:cc:
         09:b0:84:07
-----BEGIN CERTIFICATE-----
MIIEMzCCAxugAwIBAgIGAKCw0MD0MA0GCSqGSIb3DQEBCwUAMGgxCzAJBgNVBAgT
AktBMQswCQYDVQQGEwJJTjEZMBcGA1UEAxQQU05JQ0EyMDQ4X3NlcnZlcjEgMB4G
CSqGSIb3DQEJARYRU05JQ0FAdGVzdF9jYS5jb20xDzANBgNVBAoTBkNJVFJJWDAe
Fw0xNzA4MjIwMTQzMDlaFw0yNzA4MjAwMTQzMDlaMG8xCzAJBgNVBAgTAktBMQsw
CQYDVQQGEwJJTjEXMBUGA1UEAxMOYS5uZXdzLmFiYy5jb20xKTAnBgkqhkiG9w0B
CQEWGmEubmV3cy5hYmMuY29tQHRlc3RfY2EuY29tMQ8wDQYDVQQKEwZDSVRSSVgw
ggEiMA0GCSqGSIb3DQEBAQUAA4IBDwAwggEKAoIBAQDLqNXhBMb1SnU4l/gM1IoI
cFAGkP9hy5MDazGYbspHK9Y8qLsV7KT7t0wts+aw+Pe4TElgYwiUdS3KVZFc/rB+
bRCtwdbPv+giMeayz7cy9itsWaHJoJ/gKVwMyu+erL2lWB+KUFBCR+bDVr8AUstG
7FnIVP5JgScZ5m1w18FOTHf+Fxkhxov01SCmiisIbPJL+9Omm7iXq2Tfay9YvIoI
55XYzzoh+FV/OGchIURRonkv4h0OjTijArlpjJHGIcCEhkMzYqY8mtdHY8mTgbNn
Kp+vspLKg79NQm/9KJzyvU6mFiFc2y/uStUHz6NRn+JOe0m+Vd287kid1aern3U1
AgMBAAGjgdswgdgwEQYJYIZIAYb4QgEBBAQDAgZAMAsGA1UdDwQEAwIF4DAdBgNV
HQ4EFgQUc+Xt4axmZfm7OHEtCj/2vwrPhaowgZYGA1UdIwSBjjCBi4AUPGeiZHu5
YsyoaI0rHc45Ort1TmahbKRqMGgxCzAJBgNVBAgTAktBMQswCQYDVQQGEwJJTjEZ
MBcGA1UEAxQQVHdvQ0ExMDI0X3NlcnZlcjEgMB4GCSqGSIb3DQEJARYRVHdvQ0FA
dGVzdF9jYS5jb20xDzANBgNVBAoTBkNJVFJJWIIFESIzRFYwDQYJKoZIhvcNAQEL
BQADggEBALtnciGgcBfGoH7kwIoAGtUQbQPo3GPJvcYP0ZFuO8q6OWRFVypyYFCI
W9m7rLVu/PaqIZaJ2l12gAfX31MRf0H96cbZKqGd/ciN48NepyNF3fYSi2xLg3Mv
R5syVJcVmjBmUmli3ECE7pv4yn2bWU9jaiQoqen30UQFW08Tdlkj0HDMah5sdvSl
PFj86jstthcSblaHZg8mLuDw3en0qUkE1FykAUTfxjT2+HB77Ba4kaUv2eCtRVvc
6hZLbehPJQ4vTkS/CeUfrVIVoyQpunVCu1e6XJ5M51a9eRhuL0jt7tSKlWvXExm0
4vHxO4/J9AoTpsxKQb0N+0GCzAmwhAc=
-----END CERTIFICATE-----
