Certificate:
    Data:
        Version: 3 (0x2)
        Serial Number: 690161238268 (0xa0b0d0c0fc)
sha256WithRSAEncryption
        Issuer: ST=KA, C=IN, CN=SNICA2048_server/emailAddress=SNICA@test_ca.com, O=CITRIX
        Validity
            Not Before: Aug 22 05:56:41 2017 GMT
            Not After : Aug 20 05:56:41 2027 GMT
        Subject: ST=KA, C=IN, CN=www.bac.com/emailAddress=www.bac.com@test_ca.com, O=CITRIX
        Subject Public Key Info:
            Public Key Algorithm: rsaEncryption
                Public-Key: (2048 bit)
                Modulus:
                    00:e4:24:d1:69:c7:28:5b:68:62:63:90:e3:39:80:
                    78:e7:0a:ac:69:0c:01:cf:d2:17:16:fb:7b:f9:9c:
                    e6:c2:3f:0c:bd:b0:28:94:ed:6d:1a:35:7c:60:fa:
                    31:1b:ff:01:62:c2:51:b5:0b:47:85:e8:70:55:0b:
                    a0:b1:57:cb:9e:5b:95:44:df:6d:3f:1c:f4:ec:91:
                    6b:84:4d:31:dc:4d:02:07:76:9e:ed:7f:f8:6f:c0:
                    33:4a:79:2c:01:13:5c:a1:56:5d:0e:00:2b:05:81:
                    e8:f8:a0:b4:43:70:2a:d8:51:dd:3d:e7:a9:ac:10:
                    8f:e3:a0:dd:c0:97:44:7f:af:f0:39:4f:e7:a2:b9:
                    03:df:fa:bb:6b:bf:12:31:f0:f1:d5:cc:f2:ce:17:
                    34:56:09:36:eb:cf:20:60:c1:af:4b:8a:a6:da:b3:
                    7d:53:e2:2b:a9:07:33:cd:f0:8c:2a:57:b6:80:cd:
                    8c:fc:51:76:94:dd:bc:45:18:04:13:86:c3:3e:21:
                    74:c8:3a:ac:ed:2a:6a:d1:65:68:5b:91:55:4a:95:
                    e4:f9:cb:3a:14:33:2f:8f:5c:4b:81:96:ea:be:39:
                    39:f1:c9:1e:9e:c5:22:c6:56:77:10:34:d6:c3:04:
                    ae:1a:52:1c:b6:d2:1f:c5:40:8d:83:66:fc:d8:9b:
                    d7:fd
                Exponent: 65537 (0x10001)
        X509v3 extensions:
            Netscape Cert Type: 
                SSL Server
            X509v3 Key Usage: 
                Digital Signature, Non Repudiation, Key Encipherment
            X509v3 Subject Alternative Name: 
                DNS:*.abc.com, DNS:news.abc.com, DNS:sports.abc.com, DNS:*.news.abc.com, DNS:*.sports.abc.com
            X509v3 Subject Key Identifier: 
                33:94:92:E2:46:C7:65:FC:43:85:11:B4:24:D0:D3:60:8A:4F:22:EA
            X509v3 Authority Key Identifier: 
                keyid:3C:67:A2:64:7B:B9:62:CC:A8:68:8D:2B:1D:CE:39:3A:BB:75:4E:66
                DirName:/ST=KA/C=IN/CN=TwoCA1024_server/emailAddress=TwoCA@test_ca.com/O=CITRIX
                serial:11:22:33:44:56

sha256WithRSAEncryption
         c6:ed:66:57:30:b6:78:1a:52:23:6f:51:77:d5:5e:9a:6c:5f:
         9b:f2:b3:26:38:ec:dd:d8:a1:74:30:07:3c:2c:dc:f0:fd:ca:
         40:78:e0:ea:85:6a:0c:d1:e9:e8:72:48:76:91:f2:e2:0e:32:
         6e:42:99:87:b9:5d:5f:2f:83:57:93:2b:ae:b3:0f:68:ab:2c:
         66:93:f7:5c:2c:d5:76:e5:e9:b4:21:33:c4:2f:70:82:14:16:
         d1:50:bc:f1:40:31:08:4c:90:c1:c6:7f:72:43:d1:89:05:f9:
         49:04:39:79:c4:f1:2f:aa:68:5a:69:88:46:9b:01:31:7a:f8:
         7a:96:3b:48:91:6e:f8:b9:62:02:aa:5b:b7:de:64:10:f5:54:
         60:0f:a3:42:2e:27:1c:79:15:31:b8:fc:f2:c0:65:0f:ca:ce:
         a5:1b:3d:34:29:da:9f:dd:5d:54:6a:38:21:e4:f8:ac:ed:db:
         03:ab:5d:5d:83:b0:65:44:44:ed:00:ff:d3:70:9d:24:59:72:
         b7:5d:31:4b:f1:fc:ba:3a:7b:76:cf:c4:78:22:14:30:75:b8:
         d6:d6:07:ae:50:0b:df:4f:ac:b6:d0:59:b1:3d:79:c1:dc:fc:
         5a:a8:f0:e9:a8:9b:f9:cb:cb:14:4e:50:6f:6d:f2:fc:c8:35:
         18:0e:cb:55
-----BEGIN CERTIFICATE-----
MIIEhTCCA22gAwIBAgIGAKCw0MD8MA0GCSqGSIb3DQEBCwUAMGgxCzAJBgNVBAgT
AktBMQswCQYDVQQGEwJJTjEZMBcGA1UEAxQQU05JQ0EyMDQ4X3NlcnZlcjEgMB4G
CSqGSIb3DQEJARYRU05JQ0FAdGVzdF9jYS5jb20xDzANBgNVBAoTBkNJVFJJWDAe
Fw0xNzA4MjIwNTU2NDFaFw0yNzA4MjAwNTU2NDFaMGkxCzAJBgNVBAgTAktBMQsw
CQYDVQQGEwJJTjEUMBIGA1UEAxMLd3d3LmJhYy5jb20xJjAkBgkqhkiG9w0BCQEW
F3d3dy5iYWMuY29tQHRlc3RfY2EuY29tMQ8wDQYDVQQKEwZDSVRSSVgwggEiMA0G
CSqGSIb3DQEBAQUAA4IBDwAwggEKAoIBAQDkJNFpxyhbaGJjkOM5gHjnCqxpDAHP
0hcW+3v5nObCPwy9sCiU7W0aNXxg+jEb/wFiwlG1C0eF6HBVC6CxV8ueW5VE320/
HPTskWuETTHcTQIHdp7tf/hvwDNKeSwBE1yhVl0OACsFgej4oLRDcCrYUd0956ms
EI/joN3Al0R/r/A5T+eiuQPf+rtrvxIx8PHVzPLOFzRWCTbrzyBgwa9Liqbas31T
4iupBzPN8IwqV7aAzYz8UXaU3bxFGAQThsM+IXTIOqztKmrRZWhbkVVKleT5yzoU
My+PXEuBluq+OTnxyR6exSLGVncQNNbDBK4aUhy20h/FQI2DZvzYm9f9AgMBAAGj
ggEyMIIBLjARBglghkgBhvhCAQEEBAMCBkAwCwYDVR0PBAQDAgXgMFQGA1UdEQRN
MEuCCSouYWJjLmNvbYIMbmV3cy5hYmMuY29tgg5zcG9ydHMuYWJjLmNvbYIOKi5u
ZXdzLmFiYy5jb22CECouc3BvcnRzLmFiYy5jb20wHQYDVR0OBBYEFDOUkuJGx2X8
Q4URtCTQ02CKTyLqMIGWBgNVHSMEgY4wgYuAFDxnomR7uWLMqGiNKx3OOTq7dU5m
oWykajBoMQswCQYDVQQIEwJLQTELMAkGA1UEBhMCSU4xGTAXBgNVBAMUEFR3b0NB
MTAyNF9zZXJ2ZXIxIDAeBgkqhkiG9w0BCQEWEVR3b0NBQHRlc3RfY2EuY29tMQ8w
DQYDVQQKEwZDSVRSSViCBREiM0RWMA0GCSqGSIb3DQEBCwUAA4IBAQDG7WZXMLZ4
GlIjb1F31V6abF+b8rMmOOzd2KF0MAc8LNzw/cpAeODqhWoM0enockh2kfLiDjJu
QpmHuV1fL4NXkyuusw9oqyxmk/dcLNV25em0ITPEL3CCFBbRULzxQDEITJDBxn9y
Q9GJBflJBDl5xPEvqmhaaYhGmwExevh6ljtIkW74uWICqlu33mQQ9VRgD6NCLicc
eRUxuPzywGUPys6lGz00Kdqf3V1Uajgh5Pis7dsDq11dg7BlRETtAP/TcJ0kWXK3
XTFL8fy6Ont2z8R4IhQwdbjW1geuUAvfT6y20FmxPXnB3PxaqPDpqJv5y8sUTlBv
bfL8yDUYDstV
-----END CERTIFICATE-----
