Certificate:
    Data:
        Version: 3 (0x2)
        Serial Number: 690161238261 (0xa0b0d0c0f5)
sha256WithRSAEncryption
        Issuer: ST=KA, C=IN, CN=SNICA2048_server/emailAddress=SNICA@test_ca.com, O=CITRIX
        Validity
            Not Before: Aug 22 01:47:27 2017 GMT
            Not After : Aug 20 01:47:27 2027 GMT
        Subject: ST=KA, C=IN, CN=dupcheck.abc.com/emailAddress=dupcheck.abc.com@test_ca.com, O=CITRIX
        Subject Public Key Info:
            Public Key Algorithm: rsaEncryption
                Public-Key: (2048 bit)
                Modulus:
                    00:ae:1c:d7:87:d3:7b:a9:03:ad:a8:ff:27:d3:82:
                    6e:45:35:8e:da:ac:07:a8:f9:c9:a6:23:82:33:51:
                    fe:da:37:94:93:8d:2a:9d:b6:95:91:5a:dc:5e:13:
                    26:2c:71:d7:a1:d0:49:1a:19:0f:35:a1:dd:30:c0:
                    31:15:28:78:c7:6b:6e:68:22:5e:06:4a:5b:4a:04:
                    a8:ec:1e:10:6c:93:65:c1:c2:ef:5f:df:8c:29:c5:
                    0c:e9:8f:2a:05:8d:b7:36:78:f2:11:98:a3:f1:1b:
                    bc:50:ea:91:84:6f:18:82:af:54:25:02:b6:3c:76:
                    a1:46:1b:2e:2e:ae:e2:42:e3:7f:03:64:dc:a5:3d:
                    a6:7b:ef:2e:65:37:b6:ae:41:d6:4c:f8:dc:78:b7:
                    06:0b:bc:9a:75:de:23:03:01:de:ec:31:18:5f:20:
                    69:9c:e7:d3:a7:98:b8:4c:ea:13:50:17:4f:62:8b:
                    39:02:1d:86:03:33:9d:b1:0c:32:b8:75:97:ca:da:
                    5a:c9:1c:be:98:77:61:f2:27:ca:7a:ee:f1:89:0c:
                    af:2c:02:88:e5:c7:40:dd:5d:6c:48:af:92:a2:d5:
                    a5:59:36:d2:ec:46:51:3a:ff:07:44:be:4b:c8:6e:
                    94:90:85:c3:84:8b:44:ed:a8:31:fb:a7:ce:9d:e6:
                    ef:c1
                Exponent: 65537 (0x10001)
        X509v3 extensions:
            Netscape Cert Type: 
                SSL Server
            X509v3 Key Usage: 
                Digital Signature, Non Repudiation, Key Encipherment
            X509v3 Subject Alternative Name: 
                DNS:*.abc.com, DNS:news.abc.com, DNS:sports.abc.com, DNS:*.news.abc.com, DNS:*.sports.abc.com
            X509v3 Subject Key Identifier: 
                A6:7D:94:43:53:C9:31:F5:E3:FF:03:6B:03:97:2A:6B:C4:69:9C:9D
            X509v3 Authority Key Identifier: 
                keyid:3C:67:A2:64:7B:B9:62:CC:A8:68:8D:2B:1D:CE:39:3A:BB:75:4E:66
                DirName:/ST=KA/C=IN/CN=TwoCA1024_server/emailAddress=TwoCA@test_ca.com/O=CITRIX
                serial:11:22:33:44:56

sha256WithRSAEncryption
         d7:3a:c0:41:56:69:91:8e:f1:79:ee:43:ae:43:ee:c4:1e:98:
         47:50:f0:95:eb:07:88:11:c6:11:5b:82:88:47:f8:e6:0a:5d:
         64:61:d0:14:7a:9b:6e:a7:f4:cc:ac:67:05:2a:12:11:47:9e:
         67:be:31:c7:77:33:93:8f:ef:8f:f2:25:bb:71:80:04:5d:75:
         73:9f:5f:87:b2:79:19:23:ac:c0:6d:c0:59:66:42:2e:17:3c:
         45:d6:69:e8:db:a2:59:cd:ad:76:62:ac:f9:fd:7e:83:61:ac:
         ac:b7:3a:f5:30:dd:53:15:e3:07:5d:51:fa:5b:12:41:f3:c2:
         86:c3:69:bd:2d:ec:9a:be:37:9c:41:8e:68:1e:a6:d3:84:a6:
         8d:df:8c:61:59:df:15:40:15:1b:3e:5c:7e:b9:12:70:d0:2f:
         ca:f9:94:f1:1c:c6:04:b5:6c:2d:8e:a5:df:58:84:2b:56:a0:
         df:84:e6:92:73:5b:fe:16:54:45:e0:23:80:eb:da:9b:8e:eb:
         d3:c9:fe:6b:e8:1a:73:46:0c:5d:e2:cd:90:fd:16:de:02:92:
         74:a1:82:67:6f:d3:97:fa:f1:e4:59:d3:c4:7d:98:a0:95:11:
         df:1c:fd:9e:b6:40:4c:ad:16:61:97:49:f9:da:3e:4b:80:4c:
         0c:b4:73:8b
-----BEGIN CERTIFICATE-----
MIIEjzCCA3egAwIBAgIGAKCw0MD1MA0GCSqGSIb3DQEBCwUAMGgxCzAJBgNVBAgT
AktBMQswCQYDVQQGEwJJTjEZMBcGA1UEAxQQU05JQ0EyMDQ4X3NlcnZlcjEgMB4G
CSqGSIb3DQEJARYRU05JQ0FAdGVzdF9jYS5jb20xDzANBgNVBAoTBkNJVFJJWDAe
Fw0xNzA4MjIwMTQ3MjdaFw0yNzA4MjAwMTQ3MjdaMHMxCzAJBgNVBAgTAktBMQsw
CQYDVQQGEwJJTjEZMBcGA1UEAxMQZHVwY2hlY2suYWJjLmNvbTErMCkGCSqGSIb3
DQEJARYcZHVwY2hlY2suYWJjLmNvbUB0ZXN0X2NhLmNvbTEPMA0GA1UEChMGQ0lU
UklYMIIBIjANBgkqhkiG9w0BAQEFAAOCAQ8AMIIBCgKCAQEArhzXh9N7qQOtqP8n
04JuRTWO2qwHqPnJpiOCM1H+2jeUk40qnbaVkVrcXhMmLHHXodBJGhkPNaHdMMAx
FSh4x2tuaCJeBkpbSgSo7B4QbJNlwcLvX9+MKcUM6Y8qBY23NnjyEZij8Ru8UOqR
hG8Ygq9UJQK2PHahRhsuLq7iQuN/A2TcpT2me+8uZTe2rkHWTPjceLcGC7yadd4j
AwHe7DEYXyBpnOfTp5i4TOoTUBdPYos5Ah2GAzOdsQwyuHWXytpayRy+mHdh8ifK
eu7xiQyvLAKI5cdA3V1sSK+SotWlWTbS7EZROv8HRL5LyG6UkIXDhItE7agx+6fO
nebvwQIDAQABo4IBMjCCAS4wEQYJYIZIAYb4QgEBBAQDAgZAMAsGA1UdDwQEAwIF
4DBUBgNVHREETTBLggkqLmFiYy5jb22CDG5ld3MuYWJjLmNvbYIOc3BvcnRzLmFi
Yy5jb22CDioubmV3cy5hYmMuY29tghAqLnNwb3J0cy5hYmMuY29tMB0GA1UdDgQW
BBSmfZRDU8kx9eP/A2sDlyprxGmcnTCBlgYDVR0jBIGOMIGLgBQ8Z6Jke7lizKho
jSsdzjk6u3VOZqFspGowaDELMAkGA1UECBMCS0ExCzAJBgNVBAYTAklOMRkwFwYD
VQQDFBBUd29DQTEwMjRfc2VydmVyMSAwHgYJKoZIhvcNAQkBFhFUd29DQUB0ZXN0
X2NhLmNvbTEPMA0GA1UEChMGQ0lUUklYggURIjNEVjANBgkqhkiG9w0BAQsFAAOC
AQEA1zrAQVZpkY7xee5DrkPuxB6YR1DwlesHiBHGEVuCiEf45gpdZGHQFHqbbqf0
zKxnBSoSEUeeZ74xx3czk4/vj/Ilu3GABF11c59fh7J5GSOswG3AWWZCLhc8RdZp
6NuiWc2tdmKs+f1+g2GsrLc69TDdUxXjB11R+lsSQfPChsNpvS3smr43nEGOaB6m
04Smjd+MYVnfFUAVGz5cfrkScNAvyvmU8RzGBLVsLY6l31iEK1ag34TmknNb/hZU
ReAjgOvam47r08n+a+gac0YMXeLNkP0W3gKSdKGCZ2/Tl/rx5FnTxH2YoJUR3xz9
nrZATK0WYZdJ+do+S4BMDLRziw==
-----END CERTIFICATE-----
