Certificate:
    Data:
        Version: 3 (0x2)
        Serial Number: 690161238257 (0xa0b0d0c0f1)
sha256WithRSAEncryption
        Issuer: ST=KA, C=IN, CN=SNICA2048_server/emailAddress=SNICA@test_ca.com, O=CITRIX
        Validity
            Not Before: Aug 22 01:37:07 2017 GMT
            Not After : Aug 20 01:37:07 2027 GMT
        Subject: ST=KA, C=IN, CN=news.abc.com/emailAddress=news.abc.com@test_ca.com, O=CITRIX
        Subject Public Key Info:
            Public Key Algorithm: rsaEncryption
                Public-Key: (2048 bit)
                Modulus:
                    00:9b:f4:16:0e:0f:dd:ad:4d:78:88:62:2a:eb:65:
                    ba:12:70:40:11:e3:0e:b6:9b:9e:79:03:80:ff:82:
                    b3:12:a4:2d:cc:80:f3:21:66:1c:f0:c7:49:39:d4:
                    dd:87:bf:9e:eb:71:0b:cd:0a:da:45:8b:f4:3a:8e:
                    cc:ee:b4:04:a3:d2:5e:8a:8e:53:d9:8c:50:c0:dc:
                    d2:19:7b:44:a5:71:fe:38:02:c8:dd:83:ec:25:1d:
                    1a:d2:66:d5:c1:36:9d:f0:e6:0b:4a:e8:6b:d8:d4:
                    a4:87:b4:d4:20:b4:22:45:fc:5d:3a:d6:29:01:57:
                    41:62:7c:de:ab:c3:cb:f4:46:c3:4d:d1:92:37:1a:
                    0a:80:1c:f6:00:c3:03:ad:32:c6:fc:29:ac:9c:a1:
                    d8:31:e3:81:f8:db:96:60:40:e5:48:c0:d7:a4:5a:
                    f5:94:9c:07:30:83:b2:a1:15:3a:fd:1b:db:ce:68:
                    bb:fa:15:b5:6c:a7:a1:64:83:50:a3:0a:f0:4e:9c:
                    f6:ab:aa:9e:1e:f3:1e:b3:20:ff:bf:8d:cf:fd:6c:
                    00:c0:b0:c8:aa:dd:cd:f4:bf:a1:4d:9d:43:f8:3d:
                    48:f8:88:43:43:38:47:d6:6a:85:84:3b:88:e3:2f:
                    f9:4a:af:cb:72:fc:51:79:d2:56:44:6d:32:71:f7:
                    b8:c7
                Exponent: 65537 (0x10001)
        X509v3 extensions:
            Netscape Cert Type: 
                SSL Server
            X509v3 Key Usage: 
                Digital Signature, Non Repudiation, Key Encipherment
            X509v3 Subject Key Identifier: 
                A7:E5:FC:48:F2:D1:08:6D:11:7A:43:F0:F7:77:F1:AC:16:96:49:F7
            X509v3 Authority Key Identifier: 
                keyid:3C:67:A2:64:7B:B9:62:CC:A8:68:8D:2B:1D:CE:39:3A:BB:75:4E:66
                DirName:/ST=KA/C=IN/CN=TwoCA1024_server/emailAddress=TwoCA@test_ca.com/O=CITRIX
                serial:11:22:33:44:56

sha256WithRSAEncryption
         66:7a:02:5e:b3:a2:e5:7c:0a:0e:a3:d5:e0:f6:3d:01:e9:2d:
         b7:75:68:9f:9d:30:b8:70:14:62:54:7e:05:14:03:e9:d1:df:
         07:f5:a7:21:50:fa:ce:ca:90:87:52:2e:37:f1:95:a5:5d:aa:
         26:b6:01:53:41:22:a0:16:56:f3:a7:b0:0d:5a:15:a8:5a:1c:
         f2:71:ec:15:46:05:df:21:f7:d4:4b:56:04:2d:cc:7f:84:3c:
         ca:f3:46:a5:5d:70:0c:9f:bc:78:9e:39:be:29:a1:2f:d9:80:
         62:3d:04:04:91:df:e8:56:a4:38:d0:fe:1d:2e:a2:3e:44:06:
         0b:c1:51:29:47:32:be:c1:c6:0e:5b:27:d9:2e:ae:9d:cf:27:
         85:06:ba:53:02:71:1a:ed:b9:1b:43:62:cd:5e:45:b8:ca:c2:
         a2:45:5c:e4:00:a1:a8:90:ce:f0:6e:71:46:94:a8:a2:d6:46:
         d4:e8:8e:d5:91:92:dd:29:0c:57:9d:57:e2:44:67:16:b0:36:
         09:36:72:3f:28:12:9c:61:b1:81:c4:3f:fd:6e:47:1f:cf:b4:
         49:0f:0d:94:5c:c4:4f:44:dc:bb:0f:ae:d5:11:69:04:14:fa:
         c1:88:ab:6e:b1:8d:cc:2a:7d:37:e0:62:c7:60:f7:71:e7:0a:
         95:4b:d3:32
-----BEGIN CERTIFICATE-----
MIIELzCCAxegAwIBAgIGAKCw0MDxMA0GCSqGSIb3DQEBCwUAMGgxCzAJBgNVBAgT
AktBMQswCQYDVQQGEwJJTjEZMBcGA1UEAxQQU05JQ0EyMDQ4X3NlcnZlcjEgMB4G
CSqGSIb3DQEJARYRU05JQ0FAdGVzdF9jYS5jb20xDzANBgNVBAoTBkNJVFJJWDAe
Fw0xNzA4MjIwMTM3MDdaFw0yNzA4MjAwMTM3MDdaMGsxCzAJBgNVBAgTAktBMQsw
CQYDVQQGEwJJTjEVMBMGA1UEAxMMbmV3cy5hYmMuY29tMScwJQYJKoZIhvcNAQkB
FhhuZXdzLmFiYy5jb21AdGVzdF9jYS5jb20xDzANBgNVBAoTBkNJVFJJWDCCASIw
DQYJKoZIhvcNAQEBBQADggEPADCCAQoCggEBAJv0Fg4P3a1NeIhiKutluhJwQBHj
DrabnnkDgP+CsxKkLcyA8yFmHPDHSTnU3Ye/nutxC80K2kWL9DqOzO60BKPSXoqO
U9mMUMDc0hl7RKVx/jgCyN2D7CUdGtJm1cE2nfDmC0roa9jUpIe01CC0IkX8XTrW
KQFXQWJ83qvDy/RGw03RkjcaCoAc9gDDA60yxvwprJyh2DHjgfjblmBA5UjA16Ra
9ZScBzCDsqEVOv0b285ou/oVtWynoWSDUKMK8E6c9quqnh7zHrMg/7+Nz/1sAMCw
yKrdzfS/oU2dQ/g9SPiIQ0M4R9ZqhYQ7iOMv+Uqvy3L8UXnSVkRtMnH3uMcCAwEA
AaOB2zCB2DARBglghkgBhvhCAQEEBAMCBkAwCwYDVR0PBAQDAgXgMB0GA1UdDgQW
BBSn5fxI8tEIbRF6Q/D3d/GsFpZJ9zCBlgYDVR0jBIGOMIGLgBQ8Z6Jke7lizKho
jSsdzjk6u3VOZqFspGowaDELMAkGA1UECBMCS0ExCzAJBgNVBAYTAklOMRkwFwYD
VQQDFBBUd29DQTEwMjRfc2VydmVyMSAwHgYJKoZIhvcNAQkBFhFUd29DQUB0ZXN0
X2NhLmNvbTEPMA0GA1UEChMGQ0lUUklYggURIjNEVjANBgkqhkiG9w0BAQsFAAOC
AQEAZnoCXrOi5XwKDqPV4PY9Aektt3Von50wuHAUYlR+BRQD6dHfB/WnIVD6zsqQ
h1IuN/GVpV2qJrYBU0EioBZW86ewDVoVqFoc8nHsFUYF3yH31EtWBC3Mf4Q8yvNG
pV1wDJ+8eJ45vimhL9mAYj0EBJHf6FakOND+HS6iPkQGC8FRKUcyvsHGDlsn2S6u
nc8nhQa6UwJxGu25G0NizV5FuMrCokVc5AChqJDO8G5xRpSootZG1OiO1ZGS3SkM
V51X4kRnFrA2CTZyPygSnGGxgcQ//W5HH8+0SQ8NlFzET0Tcuw+u1RFpBBT6wYir
brGNzCp9N+Bix2D3cecKlUvTMg==
-----END CERTIFICATE-----
