Certificate:
    Data:
        Version: 3 (0x2)
        Serial Number: 11042563100187 (0xa0b0c0d0e1b)
    Signature Algorithm: sha256WithRSAEncryption
        Issuer: CN=PATNACA_CA, C=IN, O=CITRIX, OU=ANG, ST=KA/emailAddress=PATNACA_CA@PATNACA_mail.com
        Validity
            Not Before: Jul  8 04:38:26 2016 GMT
            Not After : Jul  6 04:38:26 2026 GMT
        Subject: ST=KA, C=IN, CN=113_PATNACA_server/emailAddress=113_PATNACA@test_ca.com, O=CITRIX
        Subject Public Key Info:
            Public Key Algorithm: rsaEncryption
                Public-Key: (2048 bit)
                Modulus:
                    00:a5:5e:84:85:82:c6:63:8e:a3:b0:dc:03:7b:1b:
                    a6:9a:87:99:cd:f9:ae:a8:cf:27:ff:df:66:15:a5:
                    85:e5:2b:ee:83:b6:02:d2:4c:cb:f0:93:67:fe:c8:
                    1b:16:89:34:da:7f:96:64:71:70:ce:cd:bf:04:7f:
                    6f:68:00:8f:16:00:82:21:6a:c2:c4:63:9d:b1:e4:
                    a1:67:14:da:95:1b:fa:59:88:26:a7:7f:f8:99:d0:
                    70:f5:56:30:ff:66:5e:d9:84:07:a7:b5:cf:e8:be:
                    4c:1b:84:be:c1:9e:49:4c:09:b1:a6:fe:8e:99:49:
                    b0:1b:a3:4e:0b:0c:56:c3:db:1c:8c:dc:2a:11:95:
                    75:d9:31:17:c9:8e:71:55:f2:3f:71:07:fd:02:82:
                    09:07:ef:a3:d7:87:8e:3d:90:69:db:58:25:e7:35:
                    20:85:04:85:61:6a:ad:48:0f:e5:63:c5:d8:c1:69:
                    78:e8:b4:27:48:57:77:97:7c:95:6f:60:d5:e2:56:
                    2d:53:61:d5:db:30:dd:31:f8:8c:50:44:bf:7b:1c:
                    11:64:c4:9b:0d:1f:c9:e9:02:32:51:ca:08:3d:fc:
                    96:f6:67:3e:1e:b7:5a:86:9f:6e:e1:e1:f2:2c:d2:
                    81:2c:03:e9:ab:33:8e:16:75:35:44:eb:56:60:f2:
                    30:53
                Exponent: 65537 (0x10001)
        X509v3 extensions:
            Netscape Cert Type: 
                SSL Server
            X509v3 Subject Key Identifier: 
                6E:21:3B:96:F4:04:42:09:07:75:F3:ED:21:52:E2:F8:4B:6D:B4:2F
            X509v3 Authority Key Identifier: 
                keyid:FF:DF:C4:8D:AF:64:E1:E3:17:FA:96:EE:F1:75:A7:ED:A7:C3:91:B8
                DirName:/CN=PATNACA_CA/C=IN/O=CITRIX/OU=ANG/ST=KA/emailAddress=PATNACA_CA@PATNACA_mail.com
                serial:9F:2E:15:76:F0:BD:C1:6F

            Authority Information Access: 
                OCSP - URI:http://PATNACA_two.ocsptest.com/responderpath

    Signature Algorithm: sha256WithRSAEncryption
         6e:18:c5:10:19:03:89:64:a2:75:59:65:fe:6f:ba:1c:30:63:
         db:fb:8c:4a:03:5f:fb:8a:fd:29:af:86:dd:2c:64:4b:b9:f5:
         33:9c:b2:b9:53:b7:b1:b9:52:77:90:00:4a:83:52:ee:f4:25:
         e3:2a:bd:fe:49:55:a8:e4:a9:7e:a7:d6:b3:de:4a:85:4b:d7:
         7c:2f:5a:f5:47:48:d3:46:b6:4a:b5:3d:8f:f2:71:44:68:13:
         26:23:5d:b4:e6:26:5b:4a:5d:f1:79:1e:1c:b2:4c:ba:f5:50:
         b7:bd:b6:38:fc:2f:0f:2d:93:dc:8b:45:5c:0f:12:d1:11:dd:
         30:7b:48:1a:47:24:5b:57:06:ce:e1:80:d8:79:6b:ce:34:ee:
         9d:b0:d3:5b:8f:0e:60:de:6d:4e:3b:c3:0d:05:6f:0b:9d:7c:
         f4:64:ff:dd:df:62:04:6e:8c:3f:2e:82:a6:5f:15:65:b2:57:
         e8:84:51:7c:91:a6:32:0e:8f:0e:98:8a:78:fc:de:ef:a1:99:
         c3:1b:a6:26:65:b9:d4:62:22:8b:73:10:5a:62:08:ab:85:a0:
         91:33:26:ec:ec:05:86:82:94:84:2c:68:24:26:fd:cf:a2:63:
         21:24:67:56:57:25:11:18:74:22:4e:a3:8e:f2:56:29:68:2c:
         e3:9a:72:c7
-----BEGIN CERTIFICATE-----
MIIEnDCCA4SgAwIBAgIGCgsMDQ4bMA0GCSqGSIb3DQEBCwUAMHoxEzARBgNVBAMU
ClBBVE5BQ0FfQ0ExCzAJBgNVBAYTAklOMQ8wDQYDVQQKEwZDSVRSSVgxDDAKBgNV
BAsTA0FORzELMAkGA1UECBMCS0ExKjAoBgkqhkiG9w0BCQEWG1BBVE5BQ0FfQ0FA
UEFUTkFDQV9tYWlsLmNvbTAeFw0xNjA3MDgwNDM4MjZaFw0yNjA3MDYwNDM4MjZa
MHAxCzAJBgNVBAgTAktBMQswCQYDVQQGEwJJTjEbMBkGA1UEAxQSMTEzX1BBVE5B
Q0Ffc2VydmVyMSYwJAYJKoZIhvcNAQkBFhcxMTNfUEFUTkFDQUB0ZXN0X2NhLmNv
bTEPMA0GA1UEChMGQ0lUUklYMIIBIjANBgkqhkiG9w0BAQEFAAOCAQ8AMIIBCgKC
AQEApV6EhYLGY46jsNwDexummoeZzfmuqM8n/99mFaWF5Svug7YC0kzL8JNn/sgb
Fok02n+WZHFwzs2/BH9vaACPFgCCIWrCxGOdseShZxTalRv6WYgmp3/4mdBw9VYw
/2Ze2YQHp7XP6L5MG4S+wZ5JTAmxpv6OmUmwG6NOCwxWw9scjNwqEZV12TEXyY5x
VfI/cQf9AoIJB++j14eOPZBp21gl5zUghQSFYWqtSA/lY8XYwWl46LQnSFd3l3yV
b2DV4lYtU2HV2zDdMfiMUES/exwRZMSbDR/J6QIyUcoIPfyW9mc+Hrdahp9u4eHy
LNKBLAPpqzOOFnU1ROtWYPIwUwIDAQABo4IBMDCCASwwEQYJYIZIAYb4QgEBBAQD
AgZAMB0GA1UdDgQWBBRuITuW9ARCCQd18+0hUuL4S220LzCBrAYDVR0jBIGkMIGh
gBT/38SNr2Th4xf6lu7xdaftp8ORuKF+pHwwejETMBEGA1UEAxQKUEFUTkFDQV9D
QTELMAkGA1UEBhMCSU4xDzANBgNVBAoTBkNJVFJJWDEMMAoGA1UECxMDQU5HMQsw
CQYDVQQIEwJLQTEqMCgGCSqGSIb3DQEJARYbUEFUTkFDQV9DQUBQQVROQUNBX21h
aWwuY29tggkAny4VdvC9wW8wSQYIKwYBBQUHAQEEPTA7MDkGCCsGAQUFBzABhi1o
dHRwOi8vUEFUTkFDQV90d28ub2NzcHRlc3QuY29tL3Jlc3BvbmRlcnBhdGgwDQYJ
KoZIhvcNAQELBQADggEBAG4YxRAZA4lkonVZZf5vuhwwY9v7jEoDX/uK/Smvht0s
ZEu59TOcsrlTt7G5UneQAEqDUu70JeMqvf5JVajkqX6n1rPeSoVL13wvWvVHSNNG
tkq1PY/ycURoEyYjXbTmJltKXfF5HhyyTLr1ULe9tjj8Lw8tk9yLRVwPEtER3TB7
SBpHJFtXBs7hgNh5a8407p2w01uPDmDebU47ww0FbwudfPRk/93fYgRujD8ugqZf
FWWyV+iEUXyRpjIOjw6Yinj83u+hmcMbpiZludRiIotzEFpiCKuFoJEzJuzsBYaC
lIQsaCQm/c+iYyEkZ1ZXJREYdCJOo47yViloLOOacsc=
-----END CERTIFICATE-----
