Certificate:
    Data:
        Version: 3 (0x2)
        Serial Number: 11042563100185 (0xa0b0c0d0e19)
    Signature Algorithm: sha256WithRSAEncryption
        Issuer: CN=PATNACA_CA, C=IN, O=CITRIX, OU=ANG, ST=KA/emailAddress=PATNACA_CA@PATNACA_mail.com
        Validity
            Not Before: Jul  8 04:38:25 2016 GMT
            Not After : Jul  6 04:38:25 2026 GMT
        Subject: ST=KA, C=IN, CN=111_PATNACA_server/emailAddress=111_PATNACA@test_ca.com, O=CITRIX
        Subject Public Key Info:
            Public Key Algorithm: rsaEncryption
                Public-Key: (2048 bit)
                Modulus:
                    00:b1:04:be:47:02:be:f2:39:82:fb:0c:ce:04:10:
                    04:c8:13:5a:60:a2:75:f8:9a:e1:12:0d:58:2e:95:
                    20:6e:4f:1a:aa:b2:63:6d:29:2b:a2:51:03:6a:10:
                    f2:3c:2a:50:e7:50:36:e2:f2:53:5e:58:94:30:31:
                    9e:ca:13:e3:f7:67:62:55:a7:11:87:a6:19:37:b7:
                    31:13:99:fa:12:33:b5:cc:5f:4e:a2:1c:70:1d:26:
                    cf:c8:69:61:e4:c7:f0:ad:59:7e:be:7a:32:a6:a5:
                    90:bf:a8:0f:ff:79:1f:ff:28:d2:65:3b:dc:58:0f:
                    0b:ac:cf:f7:08:83:79:7e:4a:96:53:b2:09:37:d5:
                    db:03:82:fd:1b:09:02:9a:28:a0:61:9d:69:ee:b4:
                    7b:b9:56:ab:02:54:13:a7:54:4e:7b:d9:f9:5f:f4:
                    21:20:9e:7e:bd:8a:34:d2:ad:94:4f:9e:6e:2c:5e:
                    83:7d:ac:1c:a1:81:dd:7a:be:0b:37:29:5d:49:3a:
                    2d:23:b3:5b:67:97:bd:2f:f5:44:7e:58:81:37:55:
                    7c:34:00:04:de:3e:bc:22:d7:8d:67:d0:2d:d7:0d:
                    88:8b:9d:05:9d:17:49:3f:6d:70:09:0e:20:98:67:
                    31:24:b6:a1:03:aa:f1:ce:c1:db:54:09:17:e7:87:
                    e2:35
                Exponent: 65537 (0x10001)
        X509v3 extensions:
            Netscape Cert Type: 
                SSL Server
            X509v3 Subject Key Identifier: 
                25:C1:BC:79:9B:AE:25:E7:A7:F6:1A:F0:48:E7:52:F4:ED:3B:B4:DB
            X509v3 Authority Key Identifier: 
                keyid:FF:DF:C4:8D:AF:64:E1:E3:17:FA:96:EE:F1:75:A7:ED:A7:C3:91:B8
                DirName:/CN=PATNACA_CA/C=IN/O=CITRIX/OU=ANG/ST=KA/emailAddress=PATNACA_CA@PATNACA_mail.com
                serial:9F:2E:15:76:F0:BD:C1:6F

            Authority Information Access: 
                OCSP - URI:http://PATNACA_two.ocsptest.com/responderpath

    Signature Algorithm: sha256WithRSAEncryption
         74:bf:6f:c1:96:99:7a:62:ac:89:c1:a4:36:73:10:85:29:f0:
         9f:be:55:99:74:7a:9c:80:fc:d5:08:01:a1:bc:6a:89:cb:82:
         9f:2f:75:d7:3d:4a:35:18:c6:25:66:d8:6f:2b:64:4b:b0:e5:
         e8:0b:1f:ff:25:8c:f9:16:99:30:7c:41:f4:27:9f:ec:32:e1:
         b7:75:84:a8:94:43:75:75:c8:eb:17:e2:e7:44:33:cc:9d:96:
         ce:a8:db:44:48:6b:4e:1b:e4:ca:e9:be:ac:a3:a5:49:0b:93:
         c1:89:71:86:a3:d9:64:9c:f6:24:c4:87:78:cc:27:c0:80:ed:
         0b:a7:5e:04:cd:bf:de:27:09:aa:a6:a2:3b:12:9f:b7:a5:f4:
         59:98:26:26:60:76:6d:b6:46:a6:06:d7:82:84:d9:66:c6:0f:
         b9:74:86:62:c4:2c:ad:77:55:d8:c7:b0:65:6a:8a:a1:af:c3:
         6c:07:da:46:28:3c:ac:9b:8d:d8:4f:ec:1f:d2:f2:de:9b:3b:
         7f:b9:d6:ba:98:54:fd:63:7a:7b:45:aa:30:5f:f0:fb:4e:8d:
         ac:3f:3a:4b:03:2d:1a:ec:ad:a1:8f:bf:4b:eb:32:c6:4a:50:
         55:11:53:90:54:77:8d:ba:f0:36:70:24:5b:61:21:cf:1e:c5:
         b8:9f:2f:42
-----BEGIN CERTIFICATE-----
MIIEnDCCA4SgAwIBAgIGCgsMDQ4ZMA0GCSqGSIb3DQEBCwUAMHoxEzARBgNVBAMU
ClBBVE5BQ0FfQ0ExCzAJBgNVBAYTAklOMQ8wDQYDVQQKEwZDSVRSSVgxDDAKBgNV
BAsTA0FORzELMAkGA1UECBMCS0ExKjAoBgkqhkiG9w0BCQEWG1BBVE5BQ0FfQ0FA
UEFUTkFDQV9tYWlsLmNvbTAeFw0xNjA3MDgwNDM4MjVaFw0yNjA3MDYwNDM4MjVa
MHAxCzAJBgNVBAgTAktBMQswCQYDVQQGEwJJTjEbMBkGA1UEAxQSMTExX1BBVE5B
Q0Ffc2VydmVyMSYwJAYJKoZIhvcNAQkBFhcxMTFfUEFUTkFDQUB0ZXN0X2NhLmNv
bTEPMA0GA1UEChMGQ0lUUklYMIIBIjANBgkqhkiG9w0BAQEFAAOCAQ8AMIIBCgKC
AQEAsQS+RwK+8jmC+wzOBBAEyBNaYKJ1+JrhEg1YLpUgbk8aqrJjbSkrolEDahDy
PCpQ51A24vJTXliUMDGeyhPj92diVacRh6YZN7cxE5n6EjO1zF9OohxwHSbPyGlh
5MfwrVl+vnoypqWQv6gP/3kf/yjSZTvcWA8LrM/3CIN5fkqWU7IJN9XbA4L9GwkC
miigYZ1p7rR7uVarAlQTp1ROe9n5X/QhIJ5+vYo00q2UT55uLF6DfawcoYHder4L
NyldSTotI7NbZ5e9L/VEfliBN1V8NAAE3j68IteNZ9At1w2Ii50FnRdJP21wCQ4g
mGcxJLahA6rxzsHbVAkX54fiNQIDAQABo4IBMDCCASwwEQYJYIZIAYb4QgEBBAQD
AgZAMB0GA1UdDgQWBBQlwbx5m64l56f2GvBI51L07Tu02zCBrAYDVR0jBIGkMIGh
gBT/38SNr2Th4xf6lu7xdaftp8ORuKF+pHwwejETMBEGA1UEAxQKUEFUTkFDQV9D
QTELMAkGA1UEBhMCSU4xDzANBgNVBAoTBkNJVFJJWDEMMAoGA1UECxMDQU5HMQsw
CQYDVQQIEwJLQTEqMCgGCSqGSIb3DQEJARYbUEFUTkFDQV9DQUBQQVROQUNBX21h
aWwuY29tggkAny4VdvC9wW8wSQYIKwYBBQUHAQEEPTA7MDkGCCsGAQUFBzABhi1o
dHRwOi8vUEFUTkFDQV90d28ub2NzcHRlc3QuY29tL3Jlc3BvbmRlcnBhdGgwDQYJ
KoZIhvcNAQELBQADggEBAHS/b8GWmXpirInBpDZzEIUp8J++VZl0epyA/NUIAaG8
aonLgp8vddc9SjUYxiVm2G8rZEuw5egLH/8ljPkWmTB8QfQnn+wy4bd1hKiUQ3V1
yOsX4udEM8ydls6o20RIa04b5MrpvqyjpUkLk8GJcYaj2WSc9iTEh3jMJ8CA7Qun
XgTNv94nCaqmojsSn7el9FmYJiZgdm22RqYG14KE2WbGD7l0hmLELK13VdjHsGVq
iqGvw2wH2kYoPKybjdhP7B/S8t6bO3+51rqYVP1jentFqjBf8PtOjaw/OksDLRrs
raGPv0vrMsZKUFURU5BUd4268DZwJFthIc8exbifL0I=
-----END CERTIFICATE-----
