Certificate:
    Data:
        Version: 3 (0x2)
        Serial Number: 11042563100175 (0xa0b0c0d0e0f)
    Signature Algorithm: sha256WithRSAEncryption
        Issuer: CN=PATNACA_CA, C=IN, O=CITRIX, OU=ANG, ST=KA/emailAddress=PATNACA_CA@PATNACA_mail.com
        Validity
            Not Before: Jul  8 04:38:22 2016 GMT
            Not After : Jul  6 04:38:22 2026 GMT
        Subject: ST=KA, C=IN, CN=101_PATNACA_server/emailAddress=101_PATNACA@test_ca.com, O=CITRIX
        Subject Public Key Info:
            Public Key Algorithm: rsaEncryption
                Public-Key: (2048 bit)
                Modulus:
                    00:cd:ba:e8:38:29:30:20:b6:56:50:1d:33:3f:f2:
                    f2:29:1d:b3:b1:e8:55:fc:bb:dd:cd:18:73:f1:ba:
                    0c:7e:97:32:be:77:29:a9:94:f9:eb:a5:f6:7d:05:
                    07:86:c9:c5:05:7a:f3:d3:e1:64:79:b8:f2:23:8e:
                    a1:ac:d9:07:cb:52:d1:e2:21:69:a0:a5:ae:dc:e5:
                    a4:6b:a2:59:cb:d5:67:e7:92:b6:33:e7:64:95:8d:
                    61:65:41:6d:3c:13:48:41:a5:d2:4f:71:22:ea:5c:
                    ed:1b:8f:1b:aa:a2:80:ed:73:37:d2:c3:96:d1:d3:
                    9d:c6:15:31:3a:ea:59:d0:f4:4c:fe:27:78:fd:7f:
                    25:e4:c3:23:eb:ea:6d:4b:69:06:95:e4:b3:72:7a:
                    3c:ae:9c:4d:4f:3a:5b:58:c5:46:8a:e7:6e:52:4d:
                    e9:8b:7f:a5:53:ed:ba:3f:cf:a8:97:71:0e:13:be:
                    51:dd:73:a0:3c:95:e0:15:0e:da:05:bd:aa:29:83:
                    8a:ae:a9:d5:47:44:16:0e:5f:0f:2e:9d:fd:37:a9:
                    33:e9:de:8f:0b:b9:9c:15:6d:43:c4:7a:2e:2c:c1:
                    03:d2:05:42:f6:dd:35:c6:10:8a:85:cc:04:e1:90:
                    b5:03:08:92:53:47:20:1a:7a:43:bc:73:b9:2c:70:
                    78:b5
                Exponent: 65537 (0x10001)
        X509v3 extensions:
            Netscape Cert Type: 
                SSL Server
            X509v3 Subject Key Identifier: 
                FC:57:11:4B:50:C4:DF:4A:F0:64:40:9D:00:9C:1F:49:CE:11:C5:8D
            X509v3 Authority Key Identifier: 
                keyid:FF:DF:C4:8D:AF:64:E1:E3:17:FA:96:EE:F1:75:A7:ED:A7:C3:91:B8
                DirName:/CN=PATNACA_CA/C=IN/O=CITRIX/OU=ANG/ST=KA/emailAddress=PATNACA_CA@PATNACA_mail.com
                serial:9F:2E:15:76:F0:BD:C1:6F

            Authority Information Access: 
                OCSP - URI:http://PATNACA_one.ocsptest.com/responderpath

    Signature Algorithm: sha256WithRSAEncryption
         55:19:45:bd:f9:30:d1:37:98:b5:16:68:c2:22:43:93:f9:94:
         48:37:3e:80:cc:1d:17:b3:6c:a1:ed:eb:08:f3:fc:39:45:a3:
         d4:92:64:69:e8:90:b1:d9:f1:a5:f6:05:ad:49:e8:29:81:fa:
         46:36:d0:1c:33:0b:88:6d:07:c8:32:ff:ae:92:c9:2b:a5:8e:
         c7:05:e3:92:5d:52:4a:31:a7:32:a7:87:81:a0:a1:45:04:5d:
         f3:dd:66:e1:77:62:83:a0:28:83:d8:4f:a3:82:57:33:b8:02:
         f5:60:bf:07:fb:10:a5:ee:14:82:d8:e5:6a:fa:c4:f2:1a:e1:
         9f:8d:da:c8:a5:de:f3:f4:35:39:f0:bc:19:af:3d:de:36:7a:
         af:e6:15:00:80:1e:18:f4:b2:a6:cb:6d:c2:9e:de:29:53:cf:
         bd:6b:38:e8:98:59:79:f6:a7:e2:23:9c:20:47:51:c9:b7:5b:
         d1:43:2d:7b:ab:8c:f2:fe:d7:ba:24:53:1d:04:10:c7:1b:e7:
         28:23:59:74:b9:d1:de:51:4b:c2:1e:3a:24:5d:9d:05:97:08:
         b4:b5:e0:a4:e4:b5:8e:96:85:3a:f1:3d:6d:48:16:07:21:89:
         df:e1:03:08:b0:1d:08:2d:9e:c1:bd:14:0f:95:69:42:91:9a:
         95:8d:93:ce
-----BEGIN CERTIFICATE-----
MIIEnDCCA4SgAwIBAgIGCgsMDQ4PMA0GCSqGSIb3DQEBCwUAMHoxEzARBgNVBAMU
ClBBVE5BQ0FfQ0ExCzAJBgNVBAYTAklOMQ8wDQYDVQQKEwZDSVRSSVgxDDAKBgNV
BAsTA0FORzELMAkGA1UECBMCS0ExKjAoBgkqhkiG9w0BCQEWG1BBVE5BQ0FfQ0FA
UEFUTkFDQV9tYWlsLmNvbTAeFw0xNjA3MDgwNDM4MjJaFw0yNjA3MDYwNDM4MjJa
MHAxCzAJBgNVBAgTAktBMQswCQYDVQQGEwJJTjEbMBkGA1UEAxQSMTAxX1BBVE5B
Q0Ffc2VydmVyMSYwJAYJKoZIhvcNAQkBFhcxMDFfUEFUTkFDQUB0ZXN0X2NhLmNv
bTEPMA0GA1UEChMGQ0lUUklYMIIBIjANBgkqhkiG9w0BAQEFAAOCAQ8AMIIBCgKC
AQEAzbroOCkwILZWUB0zP/LyKR2zsehV/LvdzRhz8boMfpcyvncpqZT566X2fQUH
hsnFBXrz0+FkebjyI46hrNkHy1LR4iFpoKWu3OWka6JZy9Vn55K2M+dklY1hZUFt
PBNIQaXST3Ei6lztG48bqqKA7XM30sOW0dOdxhUxOupZ0PRM/id4/X8l5MMj6+pt
S2kGleSzcno8rpxNTzpbWMVGiuduUk3pi3+lU+26P8+ol3EOE75R3XOgPJXgFQ7a
Bb2qKYOKrqnVR0QWDl8PLp39N6kz6d6PC7mcFW1DxHouLMED0gVC9t01xhCKhcwE
4ZC1AwiSU0cgGnpDvHO5LHB4tQIDAQABo4IBMDCCASwwEQYJYIZIAYb4QgEBBAQD
AgZAMB0GA1UdDgQWBBT8VxFLUMTfSvBkQJ0AnB9JzhHFjTCBrAYDVR0jBIGkMIGh
gBT/38SNr2Th4xf6lu7xdaftp8ORuKF+pHwwejETMBEGA1UEAxQKUEFUTkFDQV9D
QTELMAkGA1UEBhMCSU4xDzANBgNVBAoTBkNJVFJJWDEMMAoGA1UECxMDQU5HMQsw
CQYDVQQIEwJLQTEqMCgGCSqGSIb3DQEJARYbUEFUTkFDQV9DQUBQQVROQUNBX21h
aWwuY29tggkAny4VdvC9wW8wSQYIKwYBBQUHAQEEPTA7MDkGCCsGAQUFBzABhi1o
dHRwOi8vUEFUTkFDQV9vbmUub2NzcHRlc3QuY29tL3Jlc3BvbmRlcnBhdGgwDQYJ
KoZIhvcNAQELBQADggEBAFUZRb35MNE3mLUWaMIiQ5P5lEg3PoDMHRezbKHt6wjz
/DlFo9SSZGnokLHZ8aX2Ba1J6CmB+kY20BwzC4htB8gy/66SySuljscF45JdUkox
pzKnh4GgoUUEXfPdZuF3YoOgKIPYT6OCVzO4AvVgvwf7EKXuFILY5Wr6xPIa4Z+N
2sil3vP0NTnwvBmvPd42eq/mFQCAHhj0sqbLbcKe3ilTz71rOOiYWXn2p+IjnCBH
Ucm3W9FDLXurjPL+17okUx0EEMcb5ygjWXS50d5RS8IeOiRdnQWXCLS14KTktY6W
hTrxPW1IFgchid/hAwiwHQgtnsG9FA+VaUKRmpWNk84=
-----END CERTIFICATE-----
