Certificate:
    Data:
        Version: 3 (0x2)
        Serial Number: 11042563100192 (0xa0b0c0d0e20)
    Signature Algorithm: sha256WithRSAEncryption
        Issuer: CN=PATNACA_CA, C=IN, O=CITRIX, OU=ANG, ST=KA/emailAddress=PATNACA_CA@PATNACA_mail.com
        Validity
            Not Before: Jul  8 04:38:27 2016 GMT
            Not After : Jul  6 04:38:27 2026 GMT
        Subject: ST=KA, C=IN, CN=118_PATNACA_server/emailAddress=118_PATNACA@test_ca.com, O=CITRIX
        Subject Public Key Info:
            Public Key Algorithm: rsaEncryption
                Public-Key: (2048 bit)
                Modulus:
                    00:ab:b9:ec:34:09:c4:9f:7e:75:b9:07:96:da:d6:
                    7f:c1:bb:c9:a0:52:2a:ee:d1:00:3c:9a:d1:1e:a1:
                    47:86:c0:86:95:cf:a9:43:5f:7b:eb:44:99:1e:1d:
                    6c:4e:c7:c8:73:e6:ce:5a:9a:da:60:95:37:33:d9:
                    e3:b0:98:cb:2e:8e:be:0f:66:71:e3:fe:fa:bf:4c:
                    4c:f2:40:ee:bf:0b:91:f9:e7:c9:5c:a3:8f:1f:c4:
                    8d:51:90:ff:dc:25:02:96:c9:de:6e:4e:d5:a7:ca:
                    64:79:dc:d4:a8:4f:3d:aa:b4:5f:c8:5d:e2:35:e3:
                    e8:8a:d6:66:f9:35:89:84:7b:2b:b9:51:37:0b:30:
                    9f:08:74:cf:4a:be:0b:c8:65:ad:b3:75:4e:0b:b1:
                    bb:d2:61:18:5c:f4:0d:9a:71:7d:87:86:2f:4a:a1:
                    70:31:5d:3d:3a:c0:69:23:81:b4:92:8b:f0:02:54:
                    61:b0:2e:d0:1b:d3:3b:83:bc:84:2f:36:63:4d:71:
                    9f:d7:22:c1:3d:a7:3b:0b:22:73:b6:74:6a:0c:fb:
                    34:4c:55:c0:54:50:01:67:b4:3e:d6:05:2a:c9:1b:
                    04:52:28:22:23:8e:50:65:ed:77:7d:f3:5a:d2:2b:
                    92:9c:24:8d:c5:38:0e:d2:dc:8a:5d:4d:70:3a:e7:
                    dd:7f
                Exponent: 65537 (0x10001)
        X509v3 extensions:
            Netscape Cert Type: 
                SSL Server
            X509v3 Subject Key Identifier: 
                DC:06:DA:DD:C8:05:11:49:B3:4D:6B:00:64:B4:2E:A3:E0:2C:CC:9E
            X509v3 Authority Key Identifier: 
                keyid:FF:DF:C4:8D:AF:64:E1:E3:17:FA:96:EE:F1:75:A7:ED:A7:C3:91:B8
                DirName:/CN=PATNACA_CA/C=IN/O=CITRIX/OU=ANG/ST=KA/emailAddress=PATNACA_CA@PATNACA_mail.com
                serial:9F:2E:15:76:F0:BD:C1:6F

            Authority Information Access: 
                OCSP - URI:http://PATNACA_two.ocsptest.com/responderpath

    Signature Algorithm: sha256WithRSAEncryption
         0b:56:d7:22:5f:2d:72:74:c9:75:fa:15:26:46:71:8c:b4:14:
         ac:71:a0:53:7b:61:57:5b:9a:f9:be:78:fb:11:c4:91:88:28:
         5a:39:55:8f:f8:bf:0e:92:04:45:4e:1a:97:d3:16:7d:f0:e5:
         0e:fa:21:de:d0:8a:3c:e8:2e:85:f5:dc:0e:fa:63:5d:a8:93:
         3e:b0:74:ed:5c:20:3e:f0:dc:2c:95:46:cc:d0:ee:51:d8:54:
         1a:73:76:bf:af:51:60:f6:41:19:34:2c:cb:54:d7:53:27:79:
         96:4c:66:29:38:43:7f:79:83:42:76:95:51:44:79:fb:0b:cd:
         9b:9d:8b:30:38:de:86:26:87:0f:f7:fd:c7:f0:d1:3c:16:78:
         0a:61:eb:95:a5:b8:f1:3f:2b:e9:6f:d2:a8:7e:87:09:fd:bd:
         08:13:f4:50:30:61:20:ac:49:03:d1:71:55:af:c3:8f:fd:a2:
         90:91:5c:b2:96:b0:d2:e7:b0:68:67:d6:ff:43:78:d0:76:f4:
         14:06:c0:f9:bc:53:95:bb:36:fe:98:62:b9:77:72:36:e9:ec:
         04:d9:61:77:44:23:88:4f:93:1f:35:8c:0a:ff:ff:d5:1f:cf:
         3a:46:62:6a:53:de:18:e1:34:e4:fb:0d:39:b1:6b:7e:e4:cb:
         43:58:74:fd
-----BEGIN CERTIFICATE-----
MIIEnDCCA4SgAwIBAgIGCgsMDQ4gMA0GCSqGSIb3DQEBCwUAMHoxEzARBgNVBAMU
ClBBVE5BQ0FfQ0ExCzAJBgNVBAYTAklOMQ8wDQYDVQQKEwZDSVRSSVgxDDAKBgNV
BAsTA0FORzELMAkGA1UECBMCS0ExKjAoBgkqhkiG9w0BCQEWG1BBVE5BQ0FfQ0FA
UEFUTkFDQV9tYWlsLmNvbTAeFw0xNjA3MDgwNDM4MjdaFw0yNjA3MDYwNDM4Mjda
MHAxCzAJBgNVBAgTAktBMQswCQYDVQQGEwJJTjEbMBkGA1UEAxQSMTE4X1BBVE5B
Q0Ffc2VydmVyMSYwJAYJKoZIhvcNAQkBFhcxMThfUEFUTkFDQUB0ZXN0X2NhLmNv
bTEPMA0GA1UEChMGQ0lUUklYMIIBIjANBgkqhkiG9w0BAQEFAAOCAQ8AMIIBCgKC
AQEAq7nsNAnEn351uQeW2tZ/wbvJoFIq7tEAPJrRHqFHhsCGlc+pQ19760SZHh1s
TsfIc+bOWpraYJU3M9njsJjLLo6+D2Zx4/76v0xM8kDuvwuR+efJXKOPH8SNUZD/
3CUClsnebk7Vp8pkedzUqE89qrRfyF3iNePoitZm+TWJhHsruVE3CzCfCHTPSr4L
yGWts3VOC7G70mEYXPQNmnF9h4YvSqFwMV09OsBpI4G0kovwAlRhsC7QG9M7g7yE
LzZjTXGf1yLBPac7CyJztnRqDPs0TFXAVFABZ7Q+1gUqyRsEUigiI45QZe13ffNa
0iuSnCSNxTgO0tyKXU1wOufdfwIDAQABo4IBMDCCASwwEQYJYIZIAYb4QgEBBAQD
AgZAMB0GA1UdDgQWBBTcBtrdyAURSbNNawBktC6j4CzMnjCBrAYDVR0jBIGkMIGh
gBT/38SNr2Th4xf6lu7xdaftp8ORuKF+pHwwejETMBEGA1UEAxQKUEFUTkFDQV9D
QTELMAkGA1UEBhMCSU4xDzANBgNVBAoTBkNJVFJJWDEMMAoGA1UECxMDQU5HMQsw
CQYDVQQIEwJLQTEqMCgGCSqGSIb3DQEJARYbUEFUTkFDQV9DQUBQQVROQUNBX21h
aWwuY29tggkAny4VdvC9wW8wSQYIKwYBBQUHAQEEPTA7MDkGCCsGAQUFBzABhi1o
dHRwOi8vUEFUTkFDQV90d28ub2NzcHRlc3QuY29tL3Jlc3BvbmRlcnBhdGgwDQYJ
KoZIhvcNAQELBQADggEBAAtW1yJfLXJ0yXX6FSZGcYy0FKxxoFN7YVdbmvm+ePsR
xJGIKFo5VY/4vw6SBEVOGpfTFn3w5Q76Id7QijzoLoX13A76Y12okz6wdO1cID7w
3CyVRszQ7lHYVBpzdr+vUWD2QRk0LMtU11MneZZMZik4Q395g0J2lVFEefsLzZud
izA43oYmhw/3/cfw0TwWeAph65WluPE/K+lv0qh+hwn9vQgT9FAwYSCsSQPRcVWv
w4/9opCRXLKWsNLnsGhn1v9DeNB29BQGwPm8U5W7Nv6YYrl3cjbp7ATZYXdEI4hP
kx81jAr//9UfzzpGYmpT3hjhNOT7DTmxa37ky0NYdP0=
-----END CERTIFICATE-----
