Certificate:
    Data:
        Version: 3 (0x2)
        Serial Number: 11042563100197 (0xa0b0c0d0e25)
    Signature Algorithm: sha256WithRSAEncryption
        Issuer: CN=PATNACA_CA, C=IN, O=CITRIX, OU=ANG, ST=KA/emailAddress=PATNACA_CA@PATNACA_mail.com
        Validity
            Not Before: Jul  8 04:38:28 2016 GMT
            Not After : Jul  6 04:38:28 2026 GMT
        Subject: ST=KA, C=IN, CN=123_PATNACA_server/emailAddress=123_PATNACA@test_ca.com, O=CITRIX
        Subject Public Key Info:
            Public Key Algorithm: rsaEncryption
                Public-Key: (2048 bit)
                Modulus:
                    00:ce:db:b0:e9:dd:bb:ab:c0:88:f5:c4:23:6d:06:
                    6d:83:69:8c:10:22:25:69:c1:8e:7f:95:9a:02:c6:
                    a5:c2:5b:fa:4e:49:24:9a:0b:1c:dc:b5:87:04:b5:
                    44:2d:8c:10:8b:15:3d:20:0b:cb:4f:44:47:25:7b:
                    a3:0b:9f:5d:26:8d:28:27:97:da:e6:c8:66:98:bb:
                    04:46:59:84:2e:e6:3b:f0:12:7c:b7:88:f3:46:1e:
                    1e:5a:a4:b2:1d:ee:09:69:7b:fa:8c:d4:72:06:0a:
                    50:be:44:11:8e:d2:11:70:3b:34:ab:26:a0:ac:b3:
                    c5:77:a2:f0:ef:82:b9:de:b2:bf:11:1e:f6:a6:ba:
                    ff:7c:64:03:f3:7a:ed:5b:2a:6f:23:3a:3a:ab:2f:
                    0f:4c:02:8f:fa:d9:5f:8e:ad:5d:c3:2e:3a:a7:6b:
                    cc:ec:ea:ed:4d:8a:76:01:70:d9:5a:5d:a4:f6:80:
                    55:63:97:e4:00:47:91:cd:90:c8:f8:68:98:1b:21:
                    bf:19:ee:7d:dc:9c:38:eb:03:26:c2:4e:1b:0f:75:
                    05:13:11:16:e6:c4:2c:d9:ba:56:ec:50:0c:83:9c:
                    57:12:4b:21:83:aa:13:ae:9c:46:46:c4:69:31:75:
                    a2:ab:75:d7:ba:83:84:9f:38:4c:86:97:d0:ea:23:
                    b9:25
                Exponent: 65537 (0x10001)
        X509v3 extensions:
            Netscape Cert Type: 
                SSL Server
            X509v3 Subject Key Identifier: 
                7A:11:7D:91:05:F2:62:74:F3:28:51:22:1D:1F:AA:41:7A:8C:DE:B7
            X509v3 Authority Key Identifier: 
                keyid:FF:DF:C4:8D:AF:64:E1:E3:17:FA:96:EE:F1:75:A7:ED:A7:C3:91:B8
                DirName:/CN=PATNACA_CA/C=IN/O=CITRIX/OU=ANG/ST=KA/emailAddress=PATNACA_CA@PATNACA_mail.com
                serial:9F:2E:15:76:F0:BD:C1:6F

            Authority Information Access: 
                OCSP - URI:http://172.26.10.1/responderpath

    Signature Algorithm: sha256WithRSAEncryption
         6d:92:89:90:0c:b1:89:ef:58:18:71:9b:26:9f:fa:7c:b0:3b:
         5a:fe:bd:2e:8a:6e:07:a7:32:57:29:94:f2:9d:ef:ae:d5:bd:
         8b:6a:4b:0c:88:4d:30:12:71:d8:96:fe:5f:d4:ea:c1:a3:5e:
         3a:c2:a7:17:06:28:c5:5a:77:fd:4e:26:8a:ac:04:73:83:85:
         7a:ac:41:60:62:5b:38:2a:0b:6c:e4:d7:c7:30:e6:a2:7e:74:
         cc:77:a2:ad:9d:1f:da:f0:b4:16:2f:af:15:61:48:85:85:c3:
         94:f3:e8:61:30:6b:82:ba:c4:12:59:77:4c:2c:18:6e:0c:2c:
         4f:aa:e9:9e:27:b1:bd:05:3b:fe:1a:df:44:02:09:ea:bf:05:
         c6:38:0c:bf:cf:80:43:17:cb:8a:bc:72:5f:c0:d0:67:b2:5f:
         6a:b6:bd:21:48:16:00:e2:76:21:52:9c:89:99:b0:a7:be:e7:
         c9:d4:f9:4a:98:a7:7a:a7:d6:6d:1b:b3:55:64:d6:90:fd:4d:
         ef:05:7a:3d:ba:0a:db:85:90:fa:83:3b:af:0f:07:d4:8f:9d:
         2d:7e:65:bb:a4:4a:e6:07:a4:01:cd:4d:50:4d:77:60:03:9c:
         af:af:c8:5d:fe:8a:98:ea:d9:77:5d:3e:6c:de:b8:45:2d:b7:
         13:f9:d4:64
-----BEGIN CERTIFICATE-----
MIIEjzCCA3egAwIBAgIGCgsMDQ4lMA0GCSqGSIb3DQEBCwUAMHoxEzARBgNVBAMU
ClBBVE5BQ0FfQ0ExCzAJBgNVBAYTAklOMQ8wDQYDVQQKEwZDSVRSSVgxDDAKBgNV
BAsTA0FORzELMAkGA1UECBMCS0ExKjAoBgkqhkiG9w0BCQEWG1BBVE5BQ0FfQ0FA
UEFUTkFDQV9tYWlsLmNvbTAeFw0xNjA3MDgwNDM4MjhaFw0yNjA3MDYwNDM4Mjha
MHAxCzAJBgNVBAgTAktBMQswCQYDVQQGEwJJTjEbMBkGA1UEAxQSMTIzX1BBVE5B
Q0Ffc2VydmVyMSYwJAYJKoZIhvcNAQkBFhcxMjNfUEFUTkFDQUB0ZXN0X2NhLmNv
bTEPMA0GA1UEChMGQ0lUUklYMIIBIjANBgkqhkiG9w0BAQEFAAOCAQ8AMIIBCgKC
AQEAztuw6d27q8CI9cQjbQZtg2mMECIlacGOf5WaAsalwlv6Tkkkmgsc3LWHBLVE
LYwQixU9IAvLT0RHJXujC59dJo0oJ5fa5shmmLsERlmELuY78BJ8t4jzRh4eWqSy
He4JaXv6jNRyBgpQvkQRjtIRcDs0qyagrLPFd6Lw74K53rK/ER72prr/fGQD83rt
WypvIzo6qy8PTAKP+tlfjq1dwy46p2vM7OrtTYp2AXDZWl2k9oBVY5fkAEeRzZDI
+GiYGyG/Ge593Jw46wMmwk4bD3UFExEW5sQs2bpW7FAMg5xXEkshg6oTrpxGRsRp
MXWiq3XXuoOEnzhMhpfQ6iO5JQIDAQABo4IBIzCCAR8wEQYJYIZIAYb4QgEBBAQD
AgZAMB0GA1UdDgQWBBR6EX2RBfJidPMoUSIdH6pBeozetzCBrAYDVR0jBIGkMIGh
gBT/38SNr2Th4xf6lu7xdaftp8ORuKF+pHwwejETMBEGA1UEAxQKUEFUTkFDQV9D
QTELMAkGA1UEBhMCSU4xDzANBgNVBAoTBkNJVFJJWDEMMAoGA1UECxMDQU5HMQsw
CQYDVQQIEwJLQTEqMCgGCSqGSIb3DQEJARYbUEFUTkFDQV9DQUBQQVROQUNBX21h
aWwuY29tggkAny4VdvC9wW8wPAYIKwYBBQUHAQEEMDAuMCwGCCsGAQUFBzABhiBo
dHRwOi8vMTcyLjI2LjEwLjEvcmVzcG9uZGVycGF0aDANBgkqhkiG9w0BAQsFAAOC
AQEAbZKJkAyxie9YGHGbJp/6fLA7Wv69LopuB6cyVymU8p3vrtW9i2pLDIhNMBJx
2Jb+X9TqwaNeOsKnFwYoxVp3/U4miqwEc4OFeqxBYGJbOCoLbOTXxzDmon50zHei
rZ0f2vC0Fi+vFWFIhYXDlPPoYTBrgrrEEll3TCwYbgwsT6rpniexvQU7/hrfRAIJ
6r8FxjgMv8+AQxfLirxyX8DQZ7Jfara9IUgWAOJ2IVKciZmwp77nydT5SpineqfW
bRuzVWTWkP1N7wV6PboK24WQ+oM7rw8H1I+dLX5lu6RK5gekAc1NUE13YAOcr6/I
Xf6KmOrZd10+bN64RS23E/nUZA==
-----END CERTIFICATE-----
