Certificate:
    Data:
        Version: 3 (0x2)
        Serial Number: 11042563100183 (0xa0b0c0d0e17)
    Signature Algorithm: sha256WithRSAEncryption
        Issuer: CN=PATNACA_CA, C=IN, O=CITRIX, OU=ANG, ST=KA/emailAddress=PATNACA_CA@PATNACA_mail.com
        Validity
            Not Before: Jul  8 04:38:24 2016 GMT
            Not After : Jul  6 04:38:24 2026 GMT
        Subject: ST=KA, C=IN, CN=109_PATNACA_server/emailAddress=109_PATNACA@test_ca.com, O=CITRIX
        Subject Public Key Info:
            Public Key Algorithm: rsaEncryption
                Public-Key: (2048 bit)
                Modulus:
                    00:9f:8c:ec:04:f2:9a:63:c2:02:10:45:4b:8b:b5:
                    84:01:b5:42:b0:3e:d1:a4:46:e4:cc:38:c6:7a:03:
                    5b:0b:76:2f:85:3e:aa:9b:2f:82:c2:12:d7:2c:31:
                    bd:6a:38:e7:d1:60:7f:5d:81:3a:aa:8e:e3:91:61:
                    c0:cb:76:bd:d8:9d:ae:32:1e:95:2d:b4:82:a2:56:
                    6d:59:11:b5:63:22:87:3a:dc:65:f7:5d:c3:ea:e8:
                    82:16:2c:23:5a:bb:6d:ee:23:24:ba:90:e1:a3:73:
                    3c:7d:9c:b3:d1:f6:eb:ee:80:24:9b:cf:f2:72:2a:
                    bf:a6:32:ee:63:6f:53:74:23:93:61:56:1a:ca:9d:
                    4e:40:17:58:90:01:bc:cd:17:f3:be:cc:d3:a7:c4:
                    ea:94:2a:65:e9:16:0b:04:38:c3:26:de:bc:d2:26:
                    34:a3:fc:46:c7:ef:17:0d:69:48:ac:ae:11:50:58:
                    0c:06:e4:52:41:c2:03:30:c4:47:18:02:a0:d0:68:
                    a2:83:30:ac:93:2a:85:c0:1b:bf:27:c3:6b:ef:30:
                    e5:dd:9a:cb:b8:7d:92:ab:61:cd:2b:26:63:09:cc:
                    e6:34:1e:6b:2d:e9:68:20:b7:23:cb:f3:6a:48:2f:
                    9c:86:42:ad:2e:c1:8f:b4:b6:90:6e:91:6e:d8:52:
                    4b:6d
                Exponent: 65537 (0x10001)
        X509v3 extensions:
            Netscape Cert Type: 
                SSL Server
            X509v3 Subject Key Identifier: 
                22:00:D3:B2:39:48:F2:92:B7:B5:37:88:FA:07:38:C6:C0:6B:BC:5F
            X509v3 Authority Key Identifier: 
                keyid:FF:DF:C4:8D:AF:64:E1:E3:17:FA:96:EE:F1:75:A7:ED:A7:C3:91:B8
                DirName:/CN=PATNACA_CA/C=IN/O=CITRIX/OU=ANG/ST=KA/emailAddress=PATNACA_CA@PATNACA_mail.com
                serial:9F:2E:15:76:F0:BD:C1:6F

            Authority Information Access: 
                OCSP - URI:http://PATNACA_one.ocsptest.com/responderpath

    Signature Algorithm: sha256WithRSAEncryption
         57:ad:82:66:94:4b:63:4c:5e:2b:cf:3a:37:45:37:b4:62:fc:
         f5:af:08:f8:de:81:18:fb:2d:8c:b6:14:f4:27:90:c9:56:a7:
         0c:82:af:0b:2c:10:80:48:69:0d:75:48:17:d1:6e:af:1e:8d:
         e7:49:c1:d3:d4:0b:6b:e5:f7:07:62:f8:6b:81:e2:d5:53:c1:
         aa:f3:9e:da:5c:5b:f5:ab:cd:10:49:af:12:1d:0f:9c:94:2d:
         13:7b:b6:7f:5a:b6:b3:bc:f8:10:83:17:0f:73:94:94:68:b7:
         a3:e4:d0:a7:87:62:88:66:73:6e:c4:dc:9e:1c:8b:5e:16:08:
         93:19:aa:5f:cb:9e:ea:b1:7f:32:d1:ef:63:81:36:ff:0b:d8:
         70:28:5b:94:ce:f0:6c:b6:2a:82:cf:99:23:d6:24:98:02:4b:
         af:43:31:91:5b:1f:e9:87:cd:31:87:62:ae:49:aa:47:33:d0:
         c9:1d:7d:2a:a1:96:ba:a4:55:ed:8b:d9:eb:58:74:8d:72:39:
         86:5b:40:9b:bf:b2:ba:20:3d:05:94:21:0c:18:48:ef:d2:ed:
         58:77:a0:32:7e:66:ad:ad:cd:02:c3:90:1d:b6:93:74:bf:6d:
         b6:84:2b:1a:28:25:0f:41:30:41:83:13:6b:6e:00:2b:9a:26:
         ef:b6:1d:e3
-----BEGIN CERTIFICATE-----
MIIEnDCCA4SgAwIBAgIGCgsMDQ4XMA0GCSqGSIb3DQEBCwUAMHoxEzARBgNVBAMU
ClBBVE5BQ0FfQ0ExCzAJBgNVBAYTAklOMQ8wDQYDVQQKEwZDSVRSSVgxDDAKBgNV
BAsTA0FORzELMAkGA1UECBMCS0ExKjAoBgkqhkiG9w0BCQEWG1BBVE5BQ0FfQ0FA
UEFUTkFDQV9tYWlsLmNvbTAeFw0xNjA3MDgwNDM4MjRaFw0yNjA3MDYwNDM4MjRa
MHAxCzAJBgNVBAgTAktBMQswCQYDVQQGEwJJTjEbMBkGA1UEAxQSMTA5X1BBVE5B
Q0Ffc2VydmVyMSYwJAYJKoZIhvcNAQkBFhcxMDlfUEFUTkFDQUB0ZXN0X2NhLmNv
bTEPMA0GA1UEChMGQ0lUUklYMIIBIjANBgkqhkiG9w0BAQEFAAOCAQ8AMIIBCgKC
AQEAn4zsBPKaY8ICEEVLi7WEAbVCsD7RpEbkzDjGegNbC3YvhT6qmy+CwhLXLDG9
ajjn0WB/XYE6qo7jkWHAy3a92J2uMh6VLbSColZtWRG1YyKHOtxl913D6uiCFiwj
Wrtt7iMkupDho3M8fZyz0fbr7oAkm8/yciq/pjLuY29TdCOTYVYayp1OQBdYkAG8
zRfzvszTp8TqlCpl6RYLBDjDJt680iY0o/xGx+8XDWlIrK4RUFgMBuRSQcIDMMRH
GAKg0GiigzCskyqFwBu/J8Nr7zDl3ZrLuH2Sq2HNKyZjCczmNB5rLeloILcjy/Nq
SC+chkKtLsGPtLaQbpFu2FJLbQIDAQABo4IBMDCCASwwEQYJYIZIAYb4QgEBBAQD
AgZAMB0GA1UdDgQWBBQiANOyOUjykre1N4j6BzjGwGu8XzCBrAYDVR0jBIGkMIGh
gBT/38SNr2Th4xf6lu7xdaftp8ORuKF+pHwwejETMBEGA1UEAxQKUEFUTkFDQV9D
QTELMAkGA1UEBhMCSU4xDzANBgNVBAoTBkNJVFJJWDEMMAoGA1UECxMDQU5HMQsw
CQYDVQQIEwJLQTEqMCgGCSqGSIb3DQEJARYbUEFUTkFDQV9DQUBQQVROQUNBX21h
aWwuY29tggkAny4VdvC9wW8wSQYIKwYBBQUHAQEEPTA7MDkGCCsGAQUFBzABhi1o
dHRwOi8vUEFUTkFDQV9vbmUub2NzcHRlc3QuY29tL3Jlc3BvbmRlcnBhdGgwDQYJ
KoZIhvcNAQELBQADggEBAFetgmaUS2NMXivPOjdFN7Ri/PWvCPjegRj7LYy2FPQn
kMlWpwyCrwssEIBIaQ11SBfRbq8ejedJwdPUC2vl9wdi+GuB4tVTwarzntpcW/Wr
zRBJrxIdD5yULRN7tn9atrO8+BCDFw9zlJRot6Pk0KeHYohmc27E3J4ci14WCJMZ
ql/LnuqxfzLR72OBNv8L2HAoW5TO8Gy2KoLPmSPWJJgCS69DMZFbH+mHzTGHYq5J
qkcz0MkdfSqhlrqkVe2L2etYdI1yOYZbQJu/srogPQWUIQwYSO/S7Vh3oDJ+Zq2t
zQLDkB22k3S/bbaEKxooJQ9BMEGDE2tuACuaJu+2HeM=
-----END CERTIFICATE-----
