Certificate:
    Data:
        Version: 3 (0x2)
        Serial Number: 11042563100179 (0xa0b0c0d0e13)
    Signature Algorithm: sha256WithRSAEncryption
        Issuer: CN=PATNACA_CA, C=IN, O=CITRIX, OU=ANG, ST=KA/emailAddress=PATNACA_CA@PATNACA_mail.com
        Validity
            Not Before: Jul  8 04:38:24 2016 GMT
            Not After : Jul  6 04:38:24 2026 GMT
        Subject: ST=KA, C=IN, CN=105_PATNACA_server/emailAddress=105_PATNACA@test_ca.com, O=CITRIX
        Subject Public Key Info:
            Public Key Algorithm: rsaEncryption
                Public-Key: (2048 bit)
                Modulus:
                    00:bd:27:82:95:2e:54:07:73:ff:57:0a:a4:0e:6a:
                    a2:b7:6c:6a:a6:51:d0:b8:7a:64:8a:f6:d8:a8:55:
                    6e:4a:86:77:e2:4b:55:d4:1e:18:94:b5:b4:31:f4:
                    e7:08:e6:e6:25:51:24:66:44:1b:1e:6e:68:76:a4:
                    e6:9a:26:0f:cf:9f:79:0a:30:be:a8:1c:4a:49:15:
                    16:7d:c6:34:8a:5b:49:8f:fc:b4:5e:2d:0a:96:f1:
                    17:66:4b:ad:42:a0:a9:18:49:81:43:af:f9:22:80:
                    26:d9:03:81:73:2a:f2:84:a2:14:13:b6:63:b2:17:
                    ea:be:ca:1c:ea:b7:35:60:90:58:89:54:28:7b:31:
                    04:20:5d:6b:16:dd:8b:41:99:48:ff:28:3b:17:f2:
                    05:a0:5c:b8:9a:fa:61:df:20:34:ed:b8:46:f4:79:
                    68:8b:02:8c:22:ed:eb:75:7d:1a:d0:fd:2b:03:67:
                    f0:9a:21:57:0e:b2:74:2f:55:9b:e6:84:17:a0:df:
                    8f:45:47:f3:5a:1b:97:d1:d5:82:71:da:bf:28:9c:
                    5a:79:e5:d0:2e:87:3e:c7:e6:95:d0:a1:95:66:87:
                    3b:e5:53:bb:28:0f:85:a7:58:89:86:1a:5e:4a:e4:
                    1c:7b:4d:74:5a:7a:7e:29:a6:90:69:dc:76:62:d6:
                    a2:cd
                Exponent: 65537 (0x10001)
        X509v3 extensions:
            Netscape Cert Type: 
                SSL Server
            X509v3 Subject Key Identifier: 
                4B:A0:DC:1B:63:38:02:C3:F5:9B:9F:F2:C3:85:1E:9A:B1:D6:C1:D9
            X509v3 Authority Key Identifier: 
                keyid:FF:DF:C4:8D:AF:64:E1:E3:17:FA:96:EE:F1:75:A7:ED:A7:C3:91:B8
                DirName:/CN=PATNACA_CA/C=IN/O=CITRIX/OU=ANG/ST=KA/emailAddress=PATNACA_CA@PATNACA_mail.com
                serial:9F:2E:15:76:F0:BD:C1:6F

            Authority Information Access: 
                OCSP - URI:http://PATNACA_one.ocsptest.com/responderpath

    Signature Algorithm: sha256WithRSAEncryption
         10:96:32:87:d4:f2:46:e7:a1:56:2c:f5:91:35:0f:59:78:5d:
         3d:b7:12:26:04:f1:2b:67:34:a0:bb:20:dd:f2:f1:58:60:3b:
         f8:20:6f:ea:b6:08:bf:81:69:ab:aa:1a:6d:7e:98:c0:c6:47:
         22:8a:3c:14:37:86:db:8b:88:c0:42:aa:46:de:73:57:8b:45:
         e9:99:08:54:4d:47:78:56:ea:04:4f:a7:8b:15:b0:6e:61:0c:
         23:17:06:9d:0d:9b:26:a5:92:eb:9f:a9:b9:80:38:94:fe:65:
         fe:83:58:d5:76:fd:55:7b:e4:0b:a6:e8:8c:6c:46:4b:38:5d:
         41:2f:2d:89:64:c1:4f:0e:51:4e:93:06:65:7d:f1:48:7f:e7:
         23:9d:9d:e2:d5:ae:ed:7d:2c:c5:b2:a3:b3:55:47:03:bd:c6:
         5a:5d:53:d0:b4:f9:54:9d:68:96:73:25:54:c8:61:19:d2:ed:
         68:c9:24:b4:00:60:3d:bb:22:72:cf:90:55:33:38:07:7d:55:
         76:c3:bd:dd:1f:b9:8a:50:5d:f6:b8:27:be:bc:ed:84:5f:53:
         77:21:60:99:6b:2d:97:cf:b4:f8:ad:c8:59:12:cd:80:a8:fd:
         cf:59:46:50:14:e6:b2:95:b9:e1:cb:ea:66:5e:15:2a:80:e7:
         35:a0:8b:bc
-----BEGIN CERTIFICATE-----
MIIEnDCCA4SgAwIBAgIGCgsMDQ4TMA0GCSqGSIb3DQEBCwUAMHoxEzARBgNVBAMU
ClBBVE5BQ0FfQ0ExCzAJBgNVBAYTAklOMQ8wDQYDVQQKEwZDSVRSSVgxDDAKBgNV
BAsTA0FORzELMAkGA1UECBMCS0ExKjAoBgkqhkiG9w0BCQEWG1BBVE5BQ0FfQ0FA
UEFUTkFDQV9tYWlsLmNvbTAeFw0xNjA3MDgwNDM4MjRaFw0yNjA3MDYwNDM4MjRa
MHAxCzAJBgNVBAgTAktBMQswCQYDVQQGEwJJTjEbMBkGA1UEAxQSMTA1X1BBVE5B
Q0Ffc2VydmVyMSYwJAYJKoZIhvcNAQkBFhcxMDVfUEFUTkFDQUB0ZXN0X2NhLmNv
bTEPMA0GA1UEChMGQ0lUUklYMIIBIjANBgkqhkiG9w0BAQEFAAOCAQ8AMIIBCgKC
AQEAvSeClS5UB3P/VwqkDmqit2xqplHQuHpkivbYqFVuSoZ34ktV1B4YlLW0MfTn
CObmJVEkZkQbHm5odqTmmiYPz595CjC+qBxKSRUWfcY0iltJj/y0Xi0KlvEXZkut
QqCpGEmBQ6/5IoAm2QOBcyryhKIUE7Zjshfqvsoc6rc1YJBYiVQoezEEIF1rFt2L
QZlI/yg7F/IFoFy4mvph3yA07bhG9HloiwKMIu3rdX0a0P0rA2fwmiFXDrJ0L1Wb
5oQXoN+PRUfzWhuX0dWCcdq/KJxaeeXQLoc+x+aV0KGVZoc75VO7KA+Fp1iJhhpe
SuQce010Wnp+KaaQadx2YtaizQIDAQABo4IBMDCCASwwEQYJYIZIAYb4QgEBBAQD
AgZAMB0GA1UdDgQWBBRLoNwbYzgCw/Wbn/LDhR6asdbB2TCBrAYDVR0jBIGkMIGh
gBT/38SNr2Th4xf6lu7xdaftp8ORuKF+pHwwejETMBEGA1UEAxQKUEFUTkFDQV9D
QTELMAkGA1UEBhMCSU4xDzANBgNVBAoTBkNJVFJJWDEMMAoGA1UECxMDQU5HMQsw
CQYDVQQIEwJLQTEqMCgGCSqGSIb3DQEJARYbUEFUTkFDQV9DQUBQQVROQUNBX21h
aWwuY29tggkAny4VdvC9wW8wSQYIKwYBBQUHAQEEPTA7MDkGCCsGAQUFBzABhi1o
dHRwOi8vUEFUTkFDQV9vbmUub2NzcHRlc3QuY29tL3Jlc3BvbmRlcnBhdGgwDQYJ
KoZIhvcNAQELBQADggEBABCWMofU8kbnoVYs9ZE1D1l4XT23EiYE8StnNKC7IN3y
8VhgO/ggb+q2CL+BaauqGm1+mMDGRyKKPBQ3htuLiMBCqkbec1eLRemZCFRNR3hW
6gRPp4sVsG5hDCMXBp0NmyalkuufqbmAOJT+Zf6DWNV2/VV75Aum6IxsRks4XUEv
LYlkwU8OUU6TBmV98Uh/5yOdneLVru19LMWyo7NVRwO9xlpdU9C0+VSdaJZzJVTI
YRnS7WjJJLQAYD27InLPkFUzOAd9VXbDvd0fuYpQXfa4J7687YRfU3chYJlrLZfP
tPityFkSzYCo/c9ZRlAU5rKVueHL6mZeFSqA5zWgi7w=
-----END CERTIFICATE-----
