Certificate:
    Data:
        Version: 3 (0x2)
        Serial Number: 11042563100190 (0xa0b0c0d0e1e)
    Signature Algorithm: sha256WithRSAEncryption
        Issuer: CN=PATNACA_CA, C=IN, O=CITRIX, OU=ANG, ST=KA/emailAddress=PATNACA_CA@PATNACA_mail.com
        Validity
            Not Before: Jul  8 04:38:26 2016 GMT
            Not After : Jul  6 04:38:26 2026 GMT
        Subject: ST=KA, C=IN, CN=116_PATNACA_server/emailAddress=116_PATNACA@test_ca.com, O=CITRIX
        Subject Public Key Info:
            Public Key Algorithm: rsaEncryption
                Public-Key: (2048 bit)
                Modulus:
                    00:a0:9a:14:f9:c3:dc:29:de:4d:a7:a0:91:db:a1:
                    55:1c:b1:59:7c:0c:1f:c5:df:de:f9:b8:ff:f1:91:
                    06:48:4d:4a:46:61:ed:8b:7c:87:ef:8e:0a:0f:9c:
                    47:9c:45:d4:62:d8:d0:34:f8:20:4b:4d:30:89:8c:
                    8c:81:49:74:38:ff:35:c0:82:9f:d5:bd:57:f3:c1:
                    c9:7a:04:33:c2:e4:f7:3f:56:1f:aa:18:f4:d7:b4:
                    0a:45:9a:0a:21:0e:52:96:4b:6f:4e:4d:c7:ff:c1:
                    07:f4:5b:08:e6:a3:f9:5f:52:61:18:24:db:a7:0e:
                    e0:f8:ae:f1:f2:a0:17:9c:5a:76:41:9a:ce:43:ef:
                    4a:20:37:24:58:3b:f8:6f:c4:f3:98:62:e1:2b:43:
                    3b:b0:fa:a6:e2:06:68:95:08:3e:1f:7d:9d:e6:09:
                    8e:25:27:ef:5e:77:bf:d1:64:30:f7:a2:0e:f4:9a:
                    26:bb:65:0b:a6:6d:1a:a1:4e:40:7b:de:51:61:99:
                    ec:19:0c:62:b2:83:82:0c:3a:4a:1a:45:8f:93:46:
                    d6:c1:0f:ff:d5:75:e6:95:f6:ed:96:b8:2d:40:14:
                    9a:8f:83:50:e2:5f:78:ae:6a:68:e0:d5:7d:58:70:
                    0e:2a:71:a3:6a:2e:ab:fc:d2:f9:61:a4:a2:cf:de:
                    39:bd
                Exponent: 65537 (0x10001)
        X509v3 extensions:
            Netscape Cert Type: 
                SSL Server
            X509v3 Subject Key Identifier: 
                A4:51:17:86:52:03:34:A7:DA:BF:01:53:2D:E8:18:C3:A1:F9:05:FB
            X509v3 Authority Key Identifier: 
                keyid:FF:DF:C4:8D:AF:64:E1:E3:17:FA:96:EE:F1:75:A7:ED:A7:C3:91:B8
                DirName:/CN=PATNACA_CA/C=IN/O=CITRIX/OU=ANG/ST=KA/emailAddress=PATNACA_CA@PATNACA_mail.com
                serial:9F:2E:15:76:F0:BD:C1:6F

            Authority Information Access: 
                OCSP - URI:http://PATNACA_two.ocsptest.com/responderpath

    Signature Algorithm: sha256WithRSAEncryption
         1f:f0:49:b3:cc:ab:7d:8b:75:fe:b2:79:2e:aa:8b:f7:4f:17:
         08:5e:3b:3b:49:ce:5d:2a:42:b1:75:4d:bf:ae:26:fa:8e:27:
         1c:9e:d7:74:f4:2f:6d:5f:af:b2:c8:8b:47:47:4d:59:4b:36:
         1e:4c:88:02:2a:b0:09:1e:36:82:c6:37:bd:3b:82:fa:a7:44:
         22:74:f2:92:2b:0c:7f:be:b0:08:1f:d5:cd:cd:df:21:32:50:
         f4:40:92:74:60:b9:3c:e9:27:23:37:53:67:98:0c:5b:64:31:
         a4:a0:42:4a:f6:38:9b:2d:85:28:65:c5:07:04:21:67:db:a7:
         6c:70:43:e9:32:e6:65:54:27:57:32:ea:00:bd:ee:cc:02:1c:
         44:56:f6:03:dd:03:f8:a2:c0:d8:64:71:2f:35:7d:4b:0a:75:
         24:b8:72:b4:4f:4d:d4:1b:64:8a:de:c9:95:23:60:b3:f4:e3:
         68:42:12:87:56:62:9c:52:18:5a:34:14:88:96:bb:df:f0:bb:
         42:7d:a5:b4:62:4a:94:9c:6e:60:6f:53:f8:9e:7d:b8:09:4e:
         06:ec:3d:a3:a6:1f:31:8b:97:10:fc:f7:ec:bd:34:d1:3f:f0:
         47:7b:31:e0:2c:90:18:2f:33:f8:f5:07:e4:35:89:9c:9e:66:
         30:4f:22:3d
-----BEGIN CERTIFICATE-----
MIIEnDCCA4SgAwIBAgIGCgsMDQ4eMA0GCSqGSIb3DQEBCwUAMHoxEzARBgNVBAMU
ClBBVE5BQ0FfQ0ExCzAJBgNVBAYTAklOMQ8wDQYDVQQKEwZDSVRSSVgxDDAKBgNV
BAsTA0FORzELMAkGA1UECBMCS0ExKjAoBgkqhkiG9w0BCQEWG1BBVE5BQ0FfQ0FA
UEFUTkFDQV9tYWlsLmNvbTAeFw0xNjA3MDgwNDM4MjZaFw0yNjA3MDYwNDM4MjZa
MHAxCzAJBgNVBAgTAktBMQswCQYDVQQGEwJJTjEbMBkGA1UEAxQSMTE2X1BBVE5B
Q0Ffc2VydmVyMSYwJAYJKoZIhvcNAQkBFhcxMTZfUEFUTkFDQUB0ZXN0X2NhLmNv
bTEPMA0GA1UEChMGQ0lUUklYMIIBIjANBgkqhkiG9w0BAQEFAAOCAQ8AMIIBCgKC
AQEAoJoU+cPcKd5Np6CR26FVHLFZfAwfxd/e+bj/8ZEGSE1KRmHti3yH744KD5xH
nEXUYtjQNPggS00wiYyMgUl0OP81wIKf1b1X88HJegQzwuT3P1Yfqhj017QKRZoK
IQ5SlktvTk3H/8EH9FsI5qP5X1JhGCTbpw7g+K7x8qAXnFp2QZrOQ+9KIDckWDv4
b8TzmGLhK0M7sPqm4gZolQg+H32d5gmOJSfvXne/0WQw96IO9Jomu2ULpm0aoU5A
e95RYZnsGQxisoOCDDpKGkWPk0bWwQ//1XXmlfbtlrgtQBSaj4NQ4l94rmpo4NV9
WHAOKnGjai6r/NL5YaSiz945vQIDAQABo4IBMDCCASwwEQYJYIZIAYb4QgEBBAQD
AgZAMB0GA1UdDgQWBBSkUReGUgM0p9q/AVMt6BjDofkF+zCBrAYDVR0jBIGkMIGh
gBT/38SNr2Th4xf6lu7xdaftp8ORuKF+pHwwejETMBEGA1UEAxQKUEFUTkFDQV9D
QTELMAkGA1UEBhMCSU4xDzANBgNVBAoTBkNJVFJJWDEMMAoGA1UECxMDQU5HMQsw
CQYDVQQIEwJLQTEqMCgGCSqGSIb3DQEJARYbUEFUTkFDQV9DQUBQQVROQUNBX21h
aWwuY29tggkAny4VdvC9wW8wSQYIKwYBBQUHAQEEPTA7MDkGCCsGAQUFBzABhi1o
dHRwOi8vUEFUTkFDQV90d28ub2NzcHRlc3QuY29tL3Jlc3BvbmRlcnBhdGgwDQYJ
KoZIhvcNAQELBQADggEBAB/wSbPMq32Ldf6yeS6qi/dPFwheOztJzl0qQrF1Tb+u
JvqOJxye13T0L21fr7LIi0dHTVlLNh5MiAIqsAkeNoLGN707gvqnRCJ08pIrDH++
sAgf1c3N3yEyUPRAknRguTzpJyM3U2eYDFtkMaSgQkr2OJsthShlxQcEIWfbp2xw
Q+ky5mVUJ1cy6gC97swCHERW9gPdA/iiwNhkcS81fUsKdSS4crRPTdQbZIreyZUj
YLP042hCEodWYpxSGFo0FIiWu9/wu0J9pbRiSpScbmBvU/iefbgJTgbsPaOmHzGL
lxD89+y9NNE/8Ed7MeAskBgvM/j1B+Q1iZyeZjBPIj0=
-----END CERTIFICATE-----
