Certificate:
    Data:
        Version: 3 (0x2)
        Serial Number: 11042563100206 (0xa0b0c0d0e2e)
    Signature Algorithm: sha256WithRSAEncryption
        Issuer: CN=PATNACA_CA, C=IN, O=CITRIX, OU=ANG, ST=KA/emailAddress=PATNACA_CA@PATNACA_mail.com
        Validity
            Not Before: Jul  8 04:38:29 2016 GMT
            Not After : Jul  6 04:38:29 2026 GMT
        Subject: ST=KA, C=IN, CN=132_PATNACA_server/emailAddress=132_PATNACA@test_ca.com, O=CITRIX
        Subject Public Key Info:
            Public Key Algorithm: rsaEncryption
                Public-Key: (2048 bit)
                Modulus:
                    00:b2:f0:ce:fe:fc:e9:fe:bc:e0:7c:d8:ea:25:ce:
                    9e:b3:17:af:7b:0d:e1:a6:cf:24:95:f1:58:d2:27:
                    1a:6e:52:cc:0c:94:c2:e4:23:69:0e:31:83:64:53:
                    37:f3:b2:d1:37:02:da:d4:a2:3c:73:e2:2a:35:5f:
                    ad:27:59:6a:29:b1:23:18:76:95:e8:56:1b:79:27:
                    df:41:53:94:4d:5a:e3:91:7f:4d:6c:2f:bb:02:60:
                    64:9d:e3:be:57:6d:0a:ba:11:2d:94:e3:da:7e:f8:
                    fb:b5:f1:1d:05:4b:54:a8:6c:22:33:6c:90:07:10:
                    72:49:33:b9:b1:9a:5d:2f:2f:8d:7a:3d:28:b4:63:
                    0d:b1:fd:b3:15:c7:80:68:0f:8e:4b:01:0a:a5:54:
                    51:67:4f:cb:f1:22:4c:c6:b2:3a:bd:f2:c2:e1:4f:
                    39:1a:17:3f:49:39:a9:29:41:86:2d:c6:c9:43:44:
                    4e:0f:f9:f2:e4:a1:d3:69:d1:c8:b6:1b:32:55:54:
                    a6:50:b6:6d:b0:5b:23:bc:11:85:b5:66:2c:75:3d:
                    49:0d:fd:5d:e3:84:04:5b:f0:d9:ca:55:80:85:c8:
                    e0:3f:de:13:24:fb:6f:42:60:f6:2c:b4:4e:a4:73:
                    b3:15:d8:83:18:92:45:09:34:93:59:5b:5c:47:3c:
                    4a:43
                Exponent: 65537 (0x10001)
        X509v3 extensions:
            Netscape Cert Type: 
                SSL Server
            X509v3 Subject Key Identifier: 
                04:8E:72:D2:6A:D0:5F:23:60:7C:1F:B6:EA:C0:6E:16:04:88:54:09
            X509v3 Authority Key Identifier: 
                keyid:FF:DF:C4:8D:AF:64:E1:E3:17:FA:96:EE:F1:75:A7:ED:A7:C3:91:B8
                DirName:/CN=PATNACA_CA/C=IN/O=CITRIX/OU=ANG/ST=KA/emailAddress=PATNACA_CA@PATNACA_mail.com
                serial:9F:2E:15:76:F0:BD:C1:6F

            Authority Information Access: 
                OCSP - URI:http://172.26.20.1/responderpath

    Signature Algorithm: sha256WithRSAEncryption
         65:b3:72:cf:25:87:eb:0f:2c:d5:6f:25:59:aa:f1:0a:12:94:
         a6:8a:48:ff:61:d3:4e:41:0b:3b:8c:bc:8c:22:d8:b7:85:6a:
         a5:df:fc:be:9f:10:1a:ef:7a:fb:61:d8:54:db:79:94:15:e8:
         5d:fb:c6:53:29:ed:d1:d8:16:d2:93:8e:52:fa:3f:43:87:c0:
         f7:18:88:7e:29:0d:72:03:b1:27:f1:59:37:e3:1f:a8:77:ea:
         bd:29:c1:25:16:bf:42:13:b8:6c:b6:67:d1:f6:f1:23:80:65:
         84:b6:c2:a5:b0:a4:26:b1:10:50:da:fb:1b:9f:2d:e4:16:d1:
         88:6d:3a:22:92:c6:02:eb:46:8f:31:c2:94:0b:1b:01:d5:06:
         f8:5d:92:28:18:d8:e9:b7:19:be:71:25:80:3c:22:e8:cf:26:
         5d:38:7d:73:28:85:0e:fe:2d:ad:a2:af:67:7f:57:af:fc:f9:
         85:a9:c2:11:db:f9:97:1b:e1:3b:32:bf:94:7d:01:e3:78:8e:
         0b:dc:5d:c0:d0:c7:47:80:4e:a3:4b:b4:87:4d:fb:2d:a1:f5:
         3e:12:c2:1a:c3:96:64:ba:97:cb:67:83:f8:65:4b:5a:05:4c:
         3d:09:4a:95:c5:29:50:2d:a4:db:a2:9d:41:4d:44:cc:2d:77:
         6f:8c:c3:68
-----BEGIN CERTIFICATE-----
MIIEjzCCA3egAwIBAgIGCgsMDQ4uMA0GCSqGSIb3DQEBCwUAMHoxEzARBgNVBAMU
ClBBVE5BQ0FfQ0ExCzAJBgNVBAYTAklOMQ8wDQYDVQQKEwZDSVRSSVgxDDAKBgNV
BAsTA0FORzELMAkGA1UECBMCS0ExKjAoBgkqhkiG9w0BCQEWG1BBVE5BQ0FfQ0FA
UEFUTkFDQV9tYWlsLmNvbTAeFw0xNjA3MDgwNDM4MjlaFw0yNjA3MDYwNDM4Mjla
MHAxCzAJBgNVBAgTAktBMQswCQYDVQQGEwJJTjEbMBkGA1UEAxQSMTMyX1BBVE5B
Q0Ffc2VydmVyMSYwJAYJKoZIhvcNAQkBFhcxMzJfUEFUTkFDQUB0ZXN0X2NhLmNv
bTEPMA0GA1UEChMGQ0lUUklYMIIBIjANBgkqhkiG9w0BAQEFAAOCAQ8AMIIBCgKC
AQEAsvDO/vzp/rzgfNjqJc6esxevew3hps8klfFY0icablLMDJTC5CNpDjGDZFM3
87LRNwLa1KI8c+IqNV+tJ1lqKbEjGHaV6FYbeSffQVOUTVrjkX9NbC+7AmBkneO+
V20KuhEtlOPafvj7tfEdBUtUqGwiM2yQBxBySTO5sZpdLy+Nej0otGMNsf2zFceA
aA+OSwEKpVRRZ0/L8SJMxrI6vfLC4U85Ghc/STmpKUGGLcbJQ0ROD/ny5KHTadHI
thsyVVSmULZtsFsjvBGFtWYsdT1JDf1d44QEW/DZylWAhcjgP94TJPtvQmD2LLRO
pHOzFdiDGJJFCTSTWVtcRzxKQwIDAQABo4IBIzCCAR8wEQYJYIZIAYb4QgEBBAQD
AgZAMB0GA1UdDgQWBBQEjnLSatBfI2B8H7bqwG4WBIhUCTCBrAYDVR0jBIGkMIGh
gBT/38SNr2Th4xf6lu7xdaftp8ORuKF+pHwwejETMBEGA1UEAxQKUEFUTkFDQV9D
QTELMAkGA1UEBhMCSU4xDzANBgNVBAoTBkNJVFJJWDEMMAoGA1UECxMDQU5HMQsw
CQYDVQQIEwJLQTEqMCgGCSqGSIb3DQEJARYbUEFUTkFDQV9DQUBQQVROQUNBX21h
aWwuY29tggkAny4VdvC9wW8wPAYIKwYBBQUHAQEEMDAuMCwGCCsGAQUFBzABhiBo
dHRwOi8vMTcyLjI2LjIwLjEvcmVzcG9uZGVycGF0aDANBgkqhkiG9w0BAQsFAAOC
AQEAZbNyzyWH6w8s1W8lWarxChKUpopI/2HTTkELO4y8jCLYt4Vqpd/8vp8QGu96
+2HYVNt5lBXoXfvGUynt0dgW0pOOUvo/Q4fA9xiIfikNcgOxJ/FZN+MfqHfqvSnB
JRa/QhO4bLZn0fbxI4BlhLbCpbCkJrEQUNr7G58t5BbRiG06IpLGAutGjzHClAsb
AdUG+F2SKBjY6bcZvnElgDwi6M8mXTh9cyiFDv4traKvZ39Xr/z5hanCEdv5lxvh
OzK/lH0B43iOC9xdwNDHR4BOo0u0h037LaH1PhLCGsOWZLqXy2eD+GVLWgVMPQlK
lcUpUC2k26KdQU1EzC13b4zDaA==
-----END CERTIFICATE-----
