Certificate:
    Data:
        Version: 3 (0x2)
        Serial Number: 11042563100208 (0xa0b0c0d0e30)
    Signature Algorithm: sha256WithRSAEncryption
        Issuer: CN=PATNACA_CA, C=IN, O=CITRIX, OU=ANG, ST=KA/emailAddress=PATNACA_CA@PATNACA_mail.com
        Validity
            Not Before: Jul  8 04:38:29 2016 GMT
            Not After : Jul  6 04:38:29 2026 GMT
        Subject: ST=KA, C=IN, CN=134_PATNACA_server/emailAddress=134_PATNACA@test_ca.com, O=CITRIX
        Subject Public Key Info:
            Public Key Algorithm: rsaEncryption
                Public-Key: (2048 bit)
                Modulus:
                    00:b5:47:fb:43:d5:89:a4:b9:9d:e4:88:8f:ce:51:
                    31:a1:07:43:95:62:1a:a3:c3:61:65:51:d8:b6:78:
                    e1:2f:d2:e0:de:f4:25:47:39:ca:73:83:39:7b:86:
                    48:fe:ca:97:5f:5c:a4:c4:5f:81:6f:24:07:52:46:
                    9a:cd:3e:00:5d:1d:12:3a:b3:66:c0:f0:80:e3:b7:
                    fb:5c:2f:a9:d6:75:2a:3e:72:b8:af:e1:7a:d0:dd:
                    85:88:12:91:ce:30:9e:ab:ea:c7:82:a2:05:fa:ec:
                    e6:95:fd:92:17:c6:0b:fb:14:3a:b7:0a:8d:1a:61:
                    cf:24:5b:95:08:a3:18:98:d5:d4:e7:95:1d:e9:2e:
                    48:3e:e0:c5:90:71:c7:00:b1:ce:76:d3:1e:16:36:
                    e0:49:53:95:e9:d4:00:6d:5c:9c:b5:47:57:a2:af:
                    20:14:81:1b:30:3b:30:6a:16:02:6e:f4:0d:2c:4e:
                    0d:06:15:4d:3c:0a:6b:67:f8:1a:9f:41:cb:36:35:
                    a9:be:22:80:08:e9:29:bf:2c:d1:bc:9f:7c:bd:d2:
                    e3:7b:f8:1d:f5:d1:bf:0b:b1:25:08:37:e2:f8:91:
                    1c:50:59:0e:ae:70:7e:a2:7c:16:fb:94:a4:fa:35:
                    00:0a:62:f7:18:aa:6d:91:96:e8:3b:85:35:f5:4a:
                    8f:df
                Exponent: 65537 (0x10001)
        X509v3 extensions:
            Netscape Cert Type: 
                SSL Server
            X509v3 Subject Key Identifier: 
                0E:79:60:75:11:0D:EA:67:7C:A6:58:20:57:14:F9:C9:26:D3:DF:AB
            X509v3 Authority Key Identifier: 
                keyid:FF:DF:C4:8D:AF:64:E1:E3:17:FA:96:EE:F1:75:A7:ED:A7:C3:91:B8
                DirName:/CN=PATNACA_CA/C=IN/O=CITRIX/OU=ANG/ST=KA/emailAddress=PATNACA_CA@PATNACA_mail.com
                serial:9F:2E:15:76:F0:BD:C1:6F

            Authority Information Access: 
                OCSP - URI:http://172.26.20.1/responderpath

    Signature Algorithm: sha256WithRSAEncryption
         72:0d:28:22:e7:0c:0f:32:35:56:a2:d7:b5:a6:2b:7e:4a:59:
         f1:1e:26:d7:94:bc:6b:ce:69:b8:aa:64:f2:1f:5e:1a:12:0e:
         c9:9c:0f:e4:ee:2b:c7:68:60:80:08:f4:76:0c:14:76:19:50:
         7d:a5:ea:6e:59:46:54:6b:d2:90:cf:88:05:99:fe:f1:90:6f:
         2a:8d:ae:46:62:23:b1:17:96:2f:4c:cd:62:33:0c:fd:38:38:
         f2:62:e8:3b:a5:5d:33:cd:41:43:30:d9:d5:8d:a4:ef:9c:32:
         52:b1:33:d7:94:b5:61:d2:24:ea:42:b1:df:b3:a3:ce:48:64:
         2a:3b:73:d2:45:da:5d:e0:91:60:a0:f2:fb:d2:00:58:71:c6:
         cb:b2:0f:b7:c4:50:3a:06:29:37:2e:d0:f3:28:59:bd:3a:2f:
         39:43:22:e5:95:03:7a:a3:0f:c9:e8:15:7d:8a:ec:6c:2c:82:
         f3:2d:de:b3:36:90:07:dc:54:fd:39:e8:a5:65:47:70:31:4d:
         2e:8e:ec:03:df:5e:17:09:51:ac:e9:4b:b8:a9:b1:15:85:39:
         71:06:32:c4:2e:1f:6c:c7:a2:3f:99:97:f0:d4:75:e7:47:81:
         c4:91:1f:dd:a2:3b:2e:f5:a9:73:1a:2c:21:24:09:c4:36:1a:
         65:42:3b:1b
-----BEGIN CERTIFICATE-----
MIIEjzCCA3egAwIBAgIGCgsMDQ4wMA0GCSqGSIb3DQEBCwUAMHoxEzARBgNVBAMU
ClBBVE5BQ0FfQ0ExCzAJBgNVBAYTAklOMQ8wDQYDVQQKEwZDSVRSSVgxDDAKBgNV
BAsTA0FORzELMAkGA1UECBMCS0ExKjAoBgkqhkiG9w0BCQEWG1BBVE5BQ0FfQ0FA
UEFUTkFDQV9tYWlsLmNvbTAeFw0xNjA3MDgwNDM4MjlaFw0yNjA3MDYwNDM4Mjla
MHAxCzAJBgNVBAgTAktBMQswCQYDVQQGEwJJTjEbMBkGA1UEAxQSMTM0X1BBVE5B
Q0Ffc2VydmVyMSYwJAYJKoZIhvcNAQkBFhcxMzRfUEFUTkFDQUB0ZXN0X2NhLmNv
bTEPMA0GA1UEChMGQ0lUUklYMIIBIjANBgkqhkiG9w0BAQEFAAOCAQ8AMIIBCgKC
AQEAtUf7Q9WJpLmd5IiPzlExoQdDlWIao8NhZVHYtnjhL9Lg3vQlRznKc4M5e4ZI
/sqXX1ykxF+BbyQHUkaazT4AXR0SOrNmwPCA47f7XC+p1nUqPnK4r+F60N2FiBKR
zjCeq+rHgqIF+uzmlf2SF8YL+xQ6twqNGmHPJFuVCKMYmNXU55Ud6S5IPuDFkHHH
ALHOdtMeFjbgSVOV6dQAbVyctUdXoq8gFIEbMDswahYCbvQNLE4NBhVNPAprZ/ga
n0HLNjWpviKACOkpvyzRvJ98vdLje/gd9dG/C7ElCDfi+JEcUFkOrnB+onwW+5Sk
+jUACmL3GKptkZboO4U19UqP3wIDAQABo4IBIzCCAR8wEQYJYIZIAYb4QgEBBAQD
AgZAMB0GA1UdDgQWBBQOeWB1EQ3qZ3ymWCBXFPnJJtPfqzCBrAYDVR0jBIGkMIGh
gBT/38SNr2Th4xf6lu7xdaftp8ORuKF+pHwwejETMBEGA1UEAxQKUEFUTkFDQV9D
QTELMAkGA1UEBhMCSU4xDzANBgNVBAoTBkNJVFJJWDEMMAoGA1UECxMDQU5HMQsw
CQYDVQQIEwJLQTEqMCgGCSqGSIb3DQEJARYbUEFUTkFDQV9DQUBQQVROQUNBX21h
aWwuY29tggkAny4VdvC9wW8wPAYIKwYBBQUHAQEEMDAuMCwGCCsGAQUFBzABhiBo
dHRwOi8vMTcyLjI2LjIwLjEvcmVzcG9uZGVycGF0aDANBgkqhkiG9w0BAQsFAAOC
AQEAcg0oIucMDzI1VqLXtaYrfkpZ8R4m15S8a85puKpk8h9eGhIOyZwP5O4rx2hg
gAj0dgwUdhlQfaXqbllGVGvSkM+IBZn+8ZBvKo2uRmIjsReWL0zNYjMM/Tg48mLo
O6VdM81BQzDZ1Y2k75wyUrEz15S1YdIk6kKx37OjzkhkKjtz0kXaXeCRYKDy+9IA
WHHGy7IPt8RQOgYpNy7Q8yhZvTovOUMi5ZUDeqMPyegVfYrsbCyC8y3eszaQB9xU
/TnopWVHcDFNLo7sA99eFwlRrOlLuKmxFYU5cQYyxC4fbMeiP5mX8NR150eBxJEf
3aI7LvWpcxosISQJxDYaZUI7Gw==
-----END CERTIFICATE-----
