Certificate:
    Data:
        Version: 3 (0x2)
        Serial Number: 11042563100180 (0xa0b0c0d0e14)
    Signature Algorithm: sha256WithRSAEncryption
        Issuer: CN=PATNACA_CA, C=IN, O=CITRIX, OU=ANG, ST=KA/emailAddress=PATNACA_CA@PATNACA_mail.com
        Validity
            Not Before: Jul  8 04:38:24 2016 GMT
            Not After : Jul  6 04:38:24 2026 GMT
        Subject: ST=KA, C=IN, CN=106_PATNACA_server/emailAddress=106_PATNACA@test_ca.com, O=CITRIX
        Subject Public Key Info:
            Public Key Algorithm: rsaEncryption
                Public-Key: (2048 bit)
                Modulus:
                    00:cf:8f:d2:1d:35:b8:67:a1:66:cd:99:3b:85:78:
                    1e:3a:f7:6c:50:90:63:ff:f8:74:25:8b:d0:78:ae:
                    ec:7c:91:49:af:87:1b:c6:99:39:35:34:58:cf:24:
                    ed:39:03:48:17:d7:91:e5:c0:eb:b7:9c:f3:23:80:
                    5c:22:80:42:5b:ca:e9:4b:36:54:52:8b:81:1c:ec:
                    40:05:6f:38:40:63:0f:37:a1:c0:cc:38:ef:cc:5e:
                    a5:36:21:0c:8f:b7:c8:b4:25:79:eb:b4:72:a8:5a:
                    f1:7e:a2:dd:bc:d5:33:f5:2d:a4:68:a3:dd:38:84:
                    15:7b:b7:64:08:72:4a:c6:2a:fc:ab:30:a4:79:17:
                    53:b9:f6:e6:64:46:6b:97:0e:6c:a6:19:00:cf:2d:
                    36:63:86:4a:8c:95:a7:e1:0e:2d:b9:e9:57:43:b6:
                    e8:3d:aa:d6:41:73:e4:c8:fe:e9:48:3f:de:d8:f1:
                    18:62:bc:21:0f:bf:3f:4d:4b:2a:82:34:ce:de:d0:
                    fb:a5:c4:91:7d:79:24:b8:23:c3:b3:01:f8:f8:95:
                    93:ee:31:67:99:10:b9:ec:4f:df:99:38:85:71:32:
                    db:bd:45:69:6d:77:a7:5e:04:06:80:3a:2b:31:81:
                    41:5e:d2:31:78:bd:65:76:4e:69:70:f6:fd:c0:6c:
                    97:17
                Exponent: 65537 (0x10001)
        X509v3 extensions:
            Netscape Cert Type: 
                SSL Server
            X509v3 Subject Key Identifier: 
                6F:A2:F2:B0:E0:F6:7D:65:A8:D5:C3:31:17:56:EC:B2:C7:22:4A:21
            X509v3 Authority Key Identifier: 
                keyid:FF:DF:C4:8D:AF:64:E1:E3:17:FA:96:EE:F1:75:A7:ED:A7:C3:91:B8
                DirName:/CN=PATNACA_CA/C=IN/O=CITRIX/OU=ANG/ST=KA/emailAddress=PATNACA_CA@PATNACA_mail.com
                serial:9F:2E:15:76:F0:BD:C1:6F

            Authority Information Access: 
                OCSP - URI:http://PATNACA_one.ocsptest.com/responderpath

    Signature Algorithm: sha256WithRSAEncryption
         3b:73:ec:6c:26:10:f6:81:6d:cf:64:07:d5:f2:b7:ac:b1:58:
         e7:55:7b:b0:53:d5:26:fb:e9:cb:2d:7a:66:0f:86:b7:8b:b6:
         aa:3c:c4:c1:95:fa:d1:52:fc:cf:81:5c:cd:f4:b0:b3:a0:d9:
         70:44:fc:18:20:c1:23:8a:23:87:f0:e7:ef:08:5c:c3:18:f1:
         99:3c:f9:62:71:23:1a:51:3c:3d:50:4f:92:00:dc:ca:51:60:
         7f:c5:9c:02:2b:2f:d2:f8:13:02:59:d7:02:1c:27:ff:40:cb:
         b7:84:6f:72:d5:32:55:fe:99:5d:98:21:6e:6b:f7:72:fa:94:
         ec:59:b8:63:9f:7f:61:e8:ee:5d:2f:26:b6:41:03:a4:6d:46:
         a8:d9:38:f0:6f:04:6d:ec:c2:85:9f:09:a0:db:4c:e5:d5:9b:
         07:a4:60:a2:3e:93:83:37:db:ef:60:c5:90:59:9c:2d:b2:92:
         d0:a3:7b:02:12:80:00:9a:c1:9d:68:50:ed:e5:8d:f4:a0:27:
         1e:e8:bf:66:b5:f0:4f:73:47:4d:9d:cd:b8:93:e7:38:d5:0f:
         ba:8d:13:ec:92:4d:24:1a:8d:cd:a0:c8:84:be:91:59:3f:19:
         fc:c0:46:09:cf:b6:45:7b:62:c7:79:96:2d:b5:0e:2c:03:e1:
         9c:49:e7:b8
-----BEGIN CERTIFICATE-----
MIIEnDCCA4SgAwIBAgIGCgsMDQ4UMA0GCSqGSIb3DQEBCwUAMHoxEzARBgNVBAMU
ClBBVE5BQ0FfQ0ExCzAJBgNVBAYTAklOMQ8wDQYDVQQKEwZDSVRSSVgxDDAKBgNV
BAsTA0FORzELMAkGA1UECBMCS0ExKjAoBgkqhkiG9w0BCQEWG1BBVE5BQ0FfQ0FA
UEFUTkFDQV9tYWlsLmNvbTAeFw0xNjA3MDgwNDM4MjRaFw0yNjA3MDYwNDM4MjRa
MHAxCzAJBgNVBAgTAktBMQswCQYDVQQGEwJJTjEbMBkGA1UEAxQSMTA2X1BBVE5B
Q0Ffc2VydmVyMSYwJAYJKoZIhvcNAQkBFhcxMDZfUEFUTkFDQUB0ZXN0X2NhLmNv
bTEPMA0GA1UEChMGQ0lUUklYMIIBIjANBgkqhkiG9w0BAQEFAAOCAQ8AMIIBCgKC
AQEAz4/SHTW4Z6FmzZk7hXgeOvdsUJBj//h0JYvQeK7sfJFJr4cbxpk5NTRYzyTt
OQNIF9eR5cDrt5zzI4BcIoBCW8rpSzZUUouBHOxABW84QGMPN6HAzDjvzF6lNiEM
j7fItCV567RyqFrxfqLdvNUz9S2kaKPdOIQVe7dkCHJKxir8qzCkeRdTufbmZEZr
lw5sphkAzy02Y4ZKjJWn4Q4tuelXQ7boParWQXPkyP7pSD/e2PEYYrwhD78/TUsq
gjTO3tD7pcSRfXkkuCPDswH4+JWT7jFnmRC57E/fmTiFcTLbvUVpbXenXgQGgDor
MYFBXtIxeL1ldk5pcPb9wGyXFwIDAQABo4IBMDCCASwwEQYJYIZIAYb4QgEBBAQD
AgZAMB0GA1UdDgQWBBRvovKw4PZ9ZajVwzEXVuyyxyJKITCBrAYDVR0jBIGkMIGh
gBT/38SNr2Th4xf6lu7xdaftp8ORuKF+pHwwejETMBEGA1UEAxQKUEFUTkFDQV9D
QTELMAkGA1UEBhMCSU4xDzANBgNVBAoTBkNJVFJJWDEMMAoGA1UECxMDQU5HMQsw
CQYDVQQIEwJLQTEqMCgGCSqGSIb3DQEJARYbUEFUTkFDQV9DQUBQQVROQUNBX21h
aWwuY29tggkAny4VdvC9wW8wSQYIKwYBBQUHAQEEPTA7MDkGCCsGAQUFBzABhi1o
dHRwOi8vUEFUTkFDQV9vbmUub2NzcHRlc3QuY29tL3Jlc3BvbmRlcnBhdGgwDQYJ
KoZIhvcNAQELBQADggEBADtz7GwmEPaBbc9kB9Xyt6yxWOdVe7BT1Sb76cstemYP
hreLtqo8xMGV+tFS/M+BXM30sLOg2XBE/BggwSOKI4fw5+8IXMMY8Zk8+WJxIxpR
PD1QT5IA3MpRYH/FnAIrL9L4EwJZ1wIcJ/9Ay7eEb3LVMlX+mV2YIW5r93L6lOxZ
uGOff2Ho7l0vJrZBA6RtRqjZOPBvBG3swoWfCaDbTOXVmwekYKI+k4M32+9gxZBZ
nC2yktCjewISgACawZ1oUO3ljfSgJx7ov2a18E9zR02dzbiT5zjVD7qNE+ySTSQa
jc2gyIS+kVk/GfzARgnPtkV7Ysd5li21DiwD4ZxJ57g=
-----END CERTIFICATE-----
