Certificate:
    Data:
        Version: 3 (0x2)
        Serial Number: 11042563100176 (0xa0b0c0d0e10)
    Signature Algorithm: sha256WithRSAEncryption
        Issuer: CN=PATNACA_CA, C=IN, O=CITRIX, OU=ANG, ST=KA/emailAddress=PATNACA_CA@PATNACA_mail.com
        Validity
            Not Before: Jul  8 04:38:23 2016 GMT
            Not After : Jul  6 04:38:23 2026 GMT
        Subject: ST=KA, C=IN, CN=102_PATNACA_server/emailAddress=102_PATNACA@test_ca.com, O=CITRIX
        Subject Public Key Info:
            Public Key Algorithm: rsaEncryption
                Public-Key: (2048 bit)
                Modulus:
                    00:fa:7b:62:0d:33:ce:f6:ad:91:4a:9e:ab:c4:76:
                    9c:8f:26:b7:d2:f7:83:d7:8a:c0:40:03:91:bd:71:
                    f5:9a:c5:9b:9e:b5:9e:01:88:c4:0f:8d:9f:ff:a4:
                    c2:63:9b:d8:cb:18:06:af:f2:2f:60:b1:66:72:27:
                    fe:ab:9a:8b:93:ec:a7:dc:66:59:17:e3:98:fd:eb:
                    27:11:6d:b0:b6:cd:cc:44:4a:7d:21:e0:f4:b4:8b:
                    46:95:75:91:4c:ef:66:12:92:d8:fe:c6:18:df:2f:
                    8a:39:5d:59:11:f4:d5:f9:fd:25:63:ef:5b:f2:75:
                    21:02:69:aa:76:ba:57:2b:75:93:59:8f:69:a3:cf:
                    b6:a8:e4:8e:c9:8c:86:e7:cf:91:b8:dc:36:53:f8:
                    41:52:89:3a:cd:0f:b8:80:08:96:93:83:50:06:8f:
                    df:ac:90:42:6f:90:51:07:61:00:98:87:80:ab:13:
                    97:7f:ca:54:18:0d:58:5f:97:ae:a2:78:6f:ba:a5:
                    68:c4:c2:dc:27:db:8c:9b:d6:95:24:d7:42:f3:23:
                    44:ea:bb:b4:1b:ea:b4:c0:98:a6:5a:90:0f:75:1d:
                    bf:2e:04:72:c4:91:bf:12:11:d7:c4:cc:68:0d:6c:
                    7d:ac:4d:1d:a4:25:62:54:a2:32:0b:b3:fb:95:d2:
                    30:ef
                Exponent: 65537 (0x10001)
        X509v3 extensions:
            Netscape Cert Type: 
                SSL Server
            X509v3 Subject Key Identifier: 
                57:1A:BB:C6:AF:47:FE:99:E3:98:2B:E7:3D:9A:FB:73:C2:52:07:EA
            X509v3 Authority Key Identifier: 
                keyid:FF:DF:C4:8D:AF:64:E1:E3:17:FA:96:EE:F1:75:A7:ED:A7:C3:91:B8
                DirName:/CN=PATNACA_CA/C=IN/O=CITRIX/OU=ANG/ST=KA/emailAddress=PATNACA_CA@PATNACA_mail.com
                serial:9F:2E:15:76:F0:BD:C1:6F

            Authority Information Access: 
                OCSP - URI:http://PATNACA_one.ocsptest.com/responderpath

    Signature Algorithm: sha256WithRSAEncryption
         8c:60:6d:7f:68:2b:63:08:78:20:6f:69:03:31:53:21:3e:1b:
         5c:2b:f3:ce:da:60:05:17:f9:e1:12:32:f3:cf:bb:d4:b5:36:
         42:3c:fc:79:88:46:86:0a:1b:e9:c6:b4:92:b3:04:fb:f0:1f:
         6d:b7:2a:3f:45:fd:b6:8a:78:f2:39:7e:1f:d5:b8:f4:04:39:
         72:09:fa:7a:ce:e7:ab:64:d1:29:9b:d9:8b:79:c5:af:49:b3:
         91:d5:73:a5:bb:49:a4:2f:74:1c:ca:4f:65:b8:0a:be:5a:47:
         bd:8c:e1:e8:31:9b:39:8b:b5:d4:26:03:af:fd:13:f9:89:3a:
         55:8e:9f:83:6a:96:66:b4:07:89:42:79:26:67:fe:79:fb:79:
         33:61:d9:bc:3a:70:0f:12:4b:26:77:94:b2:51:fe:d3:5a:c1:
         22:dd:97:12:e5:a3:b1:6d:69:39:dc:da:f6:23:4f:60:5d:ea:
         29:3a:4c:2e:06:42:7c:05:78:1a:c4:0e:ca:49:de:2a:e1:5a:
         2e:04:3b:bc:a3:f9:78:a0:f4:e3:c4:46:89:66:ad:a4:70:d4:
         a5:2e:df:e8:b0:7c:84:e4:f4:bf:b8:24:38:33:4a:44:5b:e2:
         5a:b0:05:21:0b:d9:d2:fd:c9:e0:10:5c:73:3e:65:ad:ca:18:
         23:6d:95:9f
-----BEGIN CERTIFICATE-----
MIIEnDCCA4SgAwIBAgIGCgsMDQ4QMA0GCSqGSIb3DQEBCwUAMHoxEzARBgNVBAMU
ClBBVE5BQ0FfQ0ExCzAJBgNVBAYTAklOMQ8wDQYDVQQKEwZDSVRSSVgxDDAKBgNV
BAsTA0FORzELMAkGA1UECBMCS0ExKjAoBgkqhkiG9w0BCQEWG1BBVE5BQ0FfQ0FA
UEFUTkFDQV9tYWlsLmNvbTAeFw0xNjA3MDgwNDM4MjNaFw0yNjA3MDYwNDM4MjNa
MHAxCzAJBgNVBAgTAktBMQswCQYDVQQGEwJJTjEbMBkGA1UEAxQSMTAyX1BBVE5B
Q0Ffc2VydmVyMSYwJAYJKoZIhvcNAQkBFhcxMDJfUEFUTkFDQUB0ZXN0X2NhLmNv
bTEPMA0GA1UEChMGQ0lUUklYMIIBIjANBgkqhkiG9w0BAQEFAAOCAQ8AMIIBCgKC
AQEA+ntiDTPO9q2RSp6rxHacjya30veD14rAQAORvXH1msWbnrWeAYjED42f/6TC
Y5vYyxgGr/IvYLFmcif+q5qLk+yn3GZZF+OY/esnEW2wts3MREp9IeD0tItGlXWR
TO9mEpLY/sYY3y+KOV1ZEfTV+f0lY+9b8nUhAmmqdrpXK3WTWY9po8+2qOSOyYyG
58+RuNw2U/hBUok6zQ+4gAiWk4NQBo/frJBCb5BRB2EAmIeAqxOXf8pUGA1YX5eu
onhvuqVoxMLcJ9uMm9aVJNdC8yNE6ru0G+q0wJimWpAPdR2/LgRyxJG/EhHXxMxo
DWx9rE0dpCViVKIyC7P7ldIw7wIDAQABo4IBMDCCASwwEQYJYIZIAYb4QgEBBAQD
AgZAMB0GA1UdDgQWBBRXGrvGr0f+meOYK+c9mvtzwlIH6jCBrAYDVR0jBIGkMIGh
gBT/38SNr2Th4xf6lu7xdaftp8ORuKF+pHwwejETMBEGA1UEAxQKUEFUTkFDQV9D
QTELMAkGA1UEBhMCSU4xDzANBgNVBAoTBkNJVFJJWDEMMAoGA1UECxMDQU5HMQsw
CQYDVQQIEwJLQTEqMCgGCSqGSIb3DQEJARYbUEFUTkFDQV9DQUBQQVROQUNBX21h
aWwuY29tggkAny4VdvC9wW8wSQYIKwYBBQUHAQEEPTA7MDkGCCsGAQUFBzABhi1o
dHRwOi8vUEFUTkFDQV9vbmUub2NzcHRlc3QuY29tL3Jlc3BvbmRlcnBhdGgwDQYJ
KoZIhvcNAQELBQADggEBAIxgbX9oK2MIeCBvaQMxUyE+G1wr887aYAUX+eESMvPP
u9S1NkI8/HmIRoYKG+nGtJKzBPvwH223Kj9F/baKePI5fh/VuPQEOXIJ+nrO56tk
0Smb2Yt5xa9Js5HVc6W7SaQvdBzKT2W4Cr5aR72M4egxmzmLtdQmA6/9E/mJOlWO
n4Nqlma0B4lCeSZn/nn7eTNh2bw6cA8SSyZ3lLJR/tNawSLdlxLlo7FtaTnc2vYj
T2Bd6ik6TC4GQnwFeBrEDspJ3irhWi4EO7yj+Xig9OPERolmraRw1KUu3+iwfITk
9L+4JDgzSkRb4lqwBSEL2dL9yeAQXHM+Za3KGCNtlZ8=
-----END CERTIFICATE-----
