Certificate:
    Data:
        Version: 3 (0x2)
        Serial Number: 11042563100177 (0xa0b0c0d0e11)
    Signature Algorithm: sha256WithRSAEncryption
        Issuer: CN=PATNACA_CA, C=IN, O=CITRIX, OU=ANG, ST=KA/emailAddress=PATNACA_CA@PATNACA_mail.com
        Validity
            Not Before: Jul  8 04:38:23 2016 GMT
            Not After : Jul  6 04:38:23 2026 GMT
        Subject: ST=KA, C=IN, CN=103_PATNACA_server/emailAddress=103_PATNACA@test_ca.com, O=CITRIX
        Subject Public Key Info:
            Public Key Algorithm: rsaEncryption
                Public-Key: (2048 bit)
                Modulus:
                    00:c3:f7:e3:7c:e4:5d:f7:ad:3b:c8:d3:f2:c2:79:
                    9e:db:f6:a2:64:e4:f6:1c:48:2a:55:d5:53:a6:dd:
                    db:46:af:2b:c4:dc:07:2d:3f:34:28:57:f1:05:85:
                    0e:8e:8c:4c:be:a2:0e:19:e0:01:e4:41:1c:9f:75:
                    90:c3:6a:b8:6b:81:66:29:d9:bc:b0:5d:80:f7:da:
                    3e:71:69:92:d3:ee:d0:ec:bb:fe:9d:51:41:fa:9c:
                    7b:34:88:bc:de:13:4a:62:91:b5:85:6d:5e:ad:3e:
                    31:c7:d9:d9:16:b5:83:11:b0:63:f2:d4:fa:18:7f:
                    79:1f:93:0c:62:1d:01:3f:35:69:62:01:ef:3f:f9:
                    70:ce:c7:2f:98:4d:14:ee:07:ae:60:59:73:db:8e:
                    46:4b:fe:8e:00:14:a4:e8:60:ba:55:4b:95:41:44:
                    7b:9a:9d:9d:0e:27:7d:83:3d:5f:b2:79:a6:7f:9c:
                    f5:d2:04:d3:9f:71:bc:87:50:f6:59:90:68:d1:e4:
                    a3:8e:24:c0:2e:10:fe:e9:4d:60:38:f5:08:3f:73:
                    ce:17:2e:43:95:f8:3d:63:5e:81:50:49:67:ec:72:
                    1e:7f:98:c6:b7:20:5f:97:49:c1:82:4d:57:71:5a:
                    32:46:82:3d:bf:a9:95:6b:95:2d:a6:a9:48:0b:3d:
                    8b:59
                Exponent: 65537 (0x10001)
        X509v3 extensions:
            Netscape Cert Type: 
                SSL Server
            X509v3 Subject Key Identifier: 
                F3:01:40:3C:8F:D2:94:A9:12:BE:AE:A3:76:A1:FD:33:8F:88:1D:0C
            X509v3 Authority Key Identifier: 
                keyid:FF:DF:C4:8D:AF:64:E1:E3:17:FA:96:EE:F1:75:A7:ED:A7:C3:91:B8
                DirName:/CN=PATNACA_CA/C=IN/O=CITRIX/OU=ANG/ST=KA/emailAddress=PATNACA_CA@PATNACA_mail.com
                serial:9F:2E:15:76:F0:BD:C1:6F

            Authority Information Access: 
                OCSP - URI:http://PATNACA_one.ocsptest.com/responderpath

    Signature Algorithm: sha256WithRSAEncryption
         64:30:af:e6:0a:7d:ba:da:b4:a0:16:f9:35:ab:d9:b1:82:ce:
         1b:c3:73:f5:e8:d5:3c:c5:a5:ae:01:75:70:7e:d6:17:53:3a:
         4d:77:26:8d:21:51:1e:97:fb:72:f5:fb:ed:9f:24:3c:22:ec:
         e1:da:aa:86:69:81:20:17:19:ea:7f:5d:ab:66:a3:1b:91:2e:
         76:f9:e5:8d:9f:28:13:1c:4d:03:6d:54:bf:9c:80:0b:63:cc:
         b2:42:5e:45:9a:8a:b8:08:ba:e8:26:b9:73:16:df:2a:a9:9c:
         42:52:02:52:23:26:17:9b:e7:38:61:85:24:ac:bf:af:57:ca:
         9f:3c:39:52:26:75:96:88:b0:ab:31:d6:a0:92:ca:dd:c0:a3:
         f3:b0:d8:23:a4:36:c2:0d:47:03:2e:87:eb:f8:99:ce:a2:05:
         7a:d8:2e:18:99:9c:b4:f4:a8:7d:eb:3b:c5:db:0a:c5:60:2a:
         9d:07:24:ea:07:0f:6f:5a:e6:b4:12:d5:18:b1:c3:91:b7:74:
         57:13:0b:f9:db:c7:d3:ae:43:71:65:ff:75:c8:68:68:c4:8c:
         fd:62:93:04:61:f5:c5:8a:87:08:a0:17:84:23:81:74:c8:63:
         14:45:5e:e8:11:dc:31:66:18:bd:04:10:1a:e1:8f:19:3e:f4:
         26:16:35:f1
-----BEGIN CERTIFICATE-----
MIIEnDCCA4SgAwIBAgIGCgsMDQ4RMA0GCSqGSIb3DQEBCwUAMHoxEzARBgNVBAMU
ClBBVE5BQ0FfQ0ExCzAJBgNVBAYTAklOMQ8wDQYDVQQKEwZDSVRSSVgxDDAKBgNV
BAsTA0FORzELMAkGA1UECBMCS0ExKjAoBgkqhkiG9w0BCQEWG1BBVE5BQ0FfQ0FA
UEFUTkFDQV9tYWlsLmNvbTAeFw0xNjA3MDgwNDM4MjNaFw0yNjA3MDYwNDM4MjNa
MHAxCzAJBgNVBAgTAktBMQswCQYDVQQGEwJJTjEbMBkGA1UEAxQSMTAzX1BBVE5B
Q0Ffc2VydmVyMSYwJAYJKoZIhvcNAQkBFhcxMDNfUEFUTkFDQUB0ZXN0X2NhLmNv
bTEPMA0GA1UEChMGQ0lUUklYMIIBIjANBgkqhkiG9w0BAQEFAAOCAQ8AMIIBCgKC
AQEAw/fjfORd9607yNPywnme2/aiZOT2HEgqVdVTpt3bRq8rxNwHLT80KFfxBYUO
joxMvqIOGeAB5EEcn3WQw2q4a4FmKdm8sF2A99o+cWmS0+7Q7Lv+nVFB+px7NIi8
3hNKYpG1hW1erT4xx9nZFrWDEbBj8tT6GH95H5MMYh0BPzVpYgHvP/lwzscvmE0U
7geuYFlz245GS/6OABSk6GC6VUuVQUR7mp2dDid9gz1fsnmmf5z10gTTn3G8h1D2
WZBo0eSjjiTALhD+6U1gOPUIP3POFy5Dlfg9Y16BUEln7HIef5jGtyBfl0nBgk1X
cVoyRoI9v6mVa5UtpqlICz2LWQIDAQABo4IBMDCCASwwEQYJYIZIAYb4QgEBBAQD
AgZAMB0GA1UdDgQWBBTzAUA8j9KUqRK+rqN2of0zj4gdDDCBrAYDVR0jBIGkMIGh
gBT/38SNr2Th4xf6lu7xdaftp8ORuKF+pHwwejETMBEGA1UEAxQKUEFUTkFDQV9D
QTELMAkGA1UEBhMCSU4xDzANBgNVBAoTBkNJVFJJWDEMMAoGA1UECxMDQU5HMQsw
CQYDVQQIEwJLQTEqMCgGCSqGSIb3DQEJARYbUEFUTkFDQV9DQUBQQVROQUNBX21h
aWwuY29tggkAny4VdvC9wW8wSQYIKwYBBQUHAQEEPTA7MDkGCCsGAQUFBzABhi1o
dHRwOi8vUEFUTkFDQV9vbmUub2NzcHRlc3QuY29tL3Jlc3BvbmRlcnBhdGgwDQYJ
KoZIhvcNAQELBQADggEBAGQwr+YKfbratKAW+TWr2bGCzhvDc/Xo1TzFpa4BdXB+
1hdTOk13Jo0hUR6X+3L1++2fJDwi7OHaqoZpgSAXGep/XatmoxuRLnb55Y2fKBMc
TQNtVL+cgAtjzLJCXkWairgIuugmuXMW3yqpnEJSAlIjJheb5zhhhSSsv69Xyp88
OVImdZaIsKsx1qCSyt3Ao/Ow2COkNsINRwMuh+v4mc6iBXrYLhiZnLT0qH3rO8Xb
CsVgKp0HJOoHD29a5rQS1Rixw5G3dFcTC/nbx9OuQ3Fl/3XIaGjEjP1ikwRh9cWK
hwigF4QjgXTIYxRFXugR3DFmGL0EEBrhjxk+9CYWNfE=
-----END CERTIFICATE-----
