Certificate:
    Data:
        Version: 3 (0x2)
        Serial Number: 11042563100178 (0xa0b0c0d0e12)
    Signature Algorithm: sha256WithRSAEncryption
        Issuer: CN=PATNACA_CA, C=IN, O=CITRIX, OU=ANG, ST=KA/emailAddress=PATNACA_CA@PATNACA_mail.com
        Validity
            Not Before: Jul  8 04:38:23 2016 GMT
            Not After : Jul  6 04:38:23 2026 GMT
        Subject: ST=KA, C=IN, CN=104_PATNACA_server/emailAddress=104_PATNACA@test_ca.com, O=CITRIX
        Subject Public Key Info:
            Public Key Algorithm: rsaEncryption
                Public-Key: (2048 bit)
                Modulus:
                    00:cd:d3:80:54:e0:d0:fd:52:8e:81:7f:14:88:7a:
                    b7:b4:ba:32:8d:b1:93:4e:fa:e7:e7:8c:fa:1f:f2:
                    96:e1:cd:56:18:9c:20:aa:62:26:e0:43:73:b9:6e:
                    cd:7c:a1:7d:00:a6:49:9b:8e:e5:b8:ea:51:85:01:
                    37:f3:49:d1:4c:e1:14:22:85:3e:7f:e8:1f:e6:d3:
                    c7:f4:90:67:12:ec:4c:44:72:6d:48:08:8e:75:60:
                    cd:2e:a8:7f:0e:8b:71:fb:6f:d0:81:63:33:0b:61:
                    30:5d:39:68:06:c7:31:77:9c:d3:36:89:53:2c:64:
                    a8:36:f4:d7:b3:9b:b5:ff:2f:ad:fb:84:e2:34:6e:
                    ad:bf:15:1f:6e:a8:f0:19:d3:37:03:ae:64:2d:2c:
                    69:5b:cb:c7:25:e9:7b:99:49:ed:fa:ad:d0:e3:e8:
                    7e:c1:35:91:f0:11:43:f0:8b:cf:b0:b6:c9:38:59:
                    ca:6f:b1:2d:0d:79:ce:d2:3d:69:84:1c:e5:37:17:
                    0c:05:0a:a1:de:4c:48:8e:4a:ec:8b:d8:d9:9c:e1:
                    f3:ae:ea:4e:17:26:81:eb:80:fa:5b:6e:8e:06:02:
                    c2:8e:13:97:ae:c0:77:31:6a:27:d6:e3:e3:31:c2:
                    03:6d:02:50:3e:15:4e:d2:14:11:86:70:92:98:81:
                    c2:f9
                Exponent: 65537 (0x10001)
        X509v3 extensions:
            Netscape Cert Type: 
                SSL Server
            X509v3 Subject Key Identifier: 
                14:73:E7:A8:4A:CA:97:5F:6A:E2:AB:83:08:CA:B8:A7:DB:31:97:22
            X509v3 Authority Key Identifier: 
                keyid:FF:DF:C4:8D:AF:64:E1:E3:17:FA:96:EE:F1:75:A7:ED:A7:C3:91:B8
                DirName:/CN=PATNACA_CA/C=IN/O=CITRIX/OU=ANG/ST=KA/emailAddress=PATNACA_CA@PATNACA_mail.com
                serial:9F:2E:15:76:F0:BD:C1:6F

            Authority Information Access: 
                OCSP - URI:http://PATNACA_one.ocsptest.com/responderpath

    Signature Algorithm: sha256WithRSAEncryption
         0c:66:a7:91:0b:df:a9:7e:b9:61:eb:0a:a9:8e:0d:92:76:7f:
         29:ee:d2:99:ec:0c:5e:81:08:44:a6:7e:de:5f:d2:0e:97:f1:
         ad:3e:a4:15:19:1c:40:63:01:dd:7c:e6:c8:e3:56:c4:b2:d7:
         fc:01:a3:01:66:b2:9d:6a:5c:86:e0:0e:3d:21:80:f1:cb:0f:
         f5:79:ed:89:2a:46:b5:c2:3f:3e:8e:82:fa:9e:19:ef:a3:ff:
         08:ca:1e:ff:2d:ba:ab:83:a8:9b:a7:4f:71:d9:fd:cd:a4:c3:
         ff:9d:5b:75:37:e2:63:44:70:b7:8d:35:be:72:5e:86:21:e1:
         62:a2:a7:97:61:08:e1:8a:e9:ef:9a:73:b5:0f:10:b0:f9:e5:
         16:20:f6:34:d0:a1:d2:b3:cf:97:3f:7b:fe:2b:d5:8f:c7:78:
         a0:f2:33:8b:3b:9a:cb:dd:57:6f:5d:54:d8:ec:6f:7f:f7:3f:
         b9:55:b5:2f:f5:53:2a:2d:98:67:99:9b:ca:8d:23:fe:4d:43:
         ac:0d:e6:f4:48:07:b7:a9:94:87:10:0f:2f:45:cd:19:f5:05:
         ec:27:0e:85:11:cf:91:68:e4:05:98:c5:a8:db:a7:74:34:0a:
         ee:f5:10:0a:cd:1a:59:31:89:e3:01:c1:9e:3c:93:02:8b:0f:
         1a:75:e3:16
-----BEGIN CERTIFICATE-----
MIIEnDCCA4SgAwIBAgIGCgsMDQ4SMA0GCSqGSIb3DQEBCwUAMHoxEzARBgNVBAMU
ClBBVE5BQ0FfQ0ExCzAJBgNVBAYTAklOMQ8wDQYDVQQKEwZDSVRSSVgxDDAKBgNV
BAsTA0FORzELMAkGA1UECBMCS0ExKjAoBgkqhkiG9w0BCQEWG1BBVE5BQ0FfQ0FA
UEFUTkFDQV9tYWlsLmNvbTAeFw0xNjA3MDgwNDM4MjNaFw0yNjA3MDYwNDM4MjNa
MHAxCzAJBgNVBAgTAktBMQswCQYDVQQGEwJJTjEbMBkGA1UEAxQSMTA0X1BBVE5B
Q0Ffc2VydmVyMSYwJAYJKoZIhvcNAQkBFhcxMDRfUEFUTkFDQUB0ZXN0X2NhLmNv
bTEPMA0GA1UEChMGQ0lUUklYMIIBIjANBgkqhkiG9w0BAQEFAAOCAQ8AMIIBCgKC
AQEAzdOAVODQ/VKOgX8UiHq3tLoyjbGTTvrn54z6H/KW4c1WGJwgqmIm4ENzuW7N
fKF9AKZJm47luOpRhQE380nRTOEUIoU+f+gf5tPH9JBnEuxMRHJtSAiOdWDNLqh/
Dotx+2/QgWMzC2EwXTloBscxd5zTNolTLGSoNvTXs5u1/y+t+4TiNG6tvxUfbqjw
GdM3A65kLSxpW8vHJel7mUnt+q3Q4+h+wTWR8BFD8IvPsLbJOFnKb7EtDXnO0j1p
hBzlNxcMBQqh3kxIjkrsi9jZnOHzrupOFyaB64D6W26OBgLCjhOXrsB3MWon1uPj
McIDbQJQPhVO0hQRhnCSmIHC+QIDAQABo4IBMDCCASwwEQYJYIZIAYb4QgEBBAQD
AgZAMB0GA1UdDgQWBBQUc+eoSsqXX2riq4MIyrin2zGXIjCBrAYDVR0jBIGkMIGh
gBT/38SNr2Th4xf6lu7xdaftp8ORuKF+pHwwejETMBEGA1UEAxQKUEFUTkFDQV9D
QTELMAkGA1UEBhMCSU4xDzANBgNVBAoTBkNJVFJJWDEMMAoGA1UECxMDQU5HMQsw
CQYDVQQIEwJLQTEqMCgGCSqGSIb3DQEJARYbUEFUTkFDQV9DQUBQQVROQUNBX21h
aWwuY29tggkAny4VdvC9wW8wSQYIKwYBBQUHAQEEPTA7MDkGCCsGAQUFBzABhi1o
dHRwOi8vUEFUTkFDQV9vbmUub2NzcHRlc3QuY29tL3Jlc3BvbmRlcnBhdGgwDQYJ
KoZIhvcNAQELBQADggEBAAxmp5EL36l+uWHrCqmODZJ2fynu0pnsDF6BCESmft5f
0g6X8a0+pBUZHEBjAd185sjjVsSy1/wBowFmsp1qXIbgDj0hgPHLD/V57YkqRrXC
Pz6OgvqeGe+j/wjKHv8tuquDqJunT3HZ/c2kw/+dW3U34mNEcLeNNb5yXoYh4WKi
p5dhCOGK6e+ac7UPELD55RYg9jTQodKzz5c/e/4r1Y/HeKDyM4s7msvdV29dVNjs
b3/3P7lVtS/1UyotmGeZm8qNI/5NQ6wN5vRIB7eplIcQDy9FzRn1BewnDoURz5Fo
5AWYxajbp3Q0Cu71EArNGlkxieMBwZ48kwKLDxp14xY=
-----END CERTIFICATE-----
