Certificate:
    Data:
        Version: 3 (0x2)
        Serial Number: 11042563100181 (0xa0b0c0d0e15)
    Signature Algorithm: sha256WithRSAEncryption
        Issuer: CN=PATNACA_CA, C=IN, O=CITRIX, OU=ANG, ST=KA/emailAddress=PATNACA_CA@PATNACA_mail.com
        Validity
            Not Before: Jul  8 04:38:24 2016 GMT
            Not After : Jul  6 04:38:24 2026 GMT
        Subject: ST=KA, C=IN, CN=107_PATNACA_server/emailAddress=107_PATNACA@test_ca.com, O=CITRIX
        Subject Public Key Info:
            Public Key Algorithm: rsaEncryption
                Public-Key: (2048 bit)
                Modulus:
                    00:b9:0a:c3:d2:e6:65:11:c7:fb:72:34:71:c3:2b:
                    5f:e4:9d:9d:d2:82:39:a3:9c:6c:17:b2:18:33:72:
                    0b:36:c0:89:35:8d:ae:af:b6:4b:6a:28:16:ea:4d:
                    8a:ba:cd:5b:49:77:79:dc:e6:e8:98:0f:1f:d8:3e:
                    0f:0d:24:b7:01:7e:e9:f7:7b:9a:c4:ad:51:13:d6:
                    ed:98:39:71:9e:a2:d9:a2:ef:80:1d:a8:6d:23:e0:
                    4e:30:f5:cd:4b:18:dc:0f:7a:88:cc:15:3c:03:5d:
                    56:a7:f4:e4:2f:e8:17:fe:62:0a:1b:d1:56:3c:88:
                    59:55:3b:ae:54:33:bb:f3:aa:eb:3f:2d:44:8d:67:
                    b0:b4:48:7c:f0:8d:46:fb:eb:d7:44:a8:27:30:65:
                    2d:15:47:59:af:70:76:94:ef:af:e7:4d:22:33:f2:
                    4e:9a:06:aa:ef:0d:04:a0:a1:6e:23:bd:8b:00:a9:
                    0b:f7:8d:34:9a:8a:57:81:99:b1:e0:3a:7c:d9:c9:
                    53:d8:52:e8:5a:65:81:33:bc:cc:79:4f:64:26:43:
                    03:44:67:85:ef:ed:d6:00:7c:bc:47:70:81:f0:3b:
                    e9:56:a3:64:a4:56:dc:af:8e:e9:f8:cf:4c:12:83:
                    da:e7:aa:e2:d8:5c:eb:19:a1:76:ae:3f:ad:16:d1:
                    70:c9
                Exponent: 65537 (0x10001)
        X509v3 extensions:
            Netscape Cert Type: 
                SSL Server
            X509v3 Subject Key Identifier: 
                3F:EA:83:B5:D4:0F:C9:BE:71:20:C4:E0:0E:39:EF:ED:FE:13:62:7D
            X509v3 Authority Key Identifier: 
                keyid:FF:DF:C4:8D:AF:64:E1:E3:17:FA:96:EE:F1:75:A7:ED:A7:C3:91:B8
                DirName:/CN=PATNACA_CA/C=IN/O=CITRIX/OU=ANG/ST=KA/emailAddress=PATNACA_CA@PATNACA_mail.com
                serial:9F:2E:15:76:F0:BD:C1:6F

            Authority Information Access: 
                OCSP - URI:http://PATNACA_one.ocsptest.com/responderpath

    Signature Algorithm: sha256WithRSAEncryption
         5b:e5:cd:30:2c:6f:f1:90:e0:52:41:ab:5c:8b:69:2c:3a:1e:
         cc:f3:5c:6a:f1:9f:1f:48:8b:4e:a1:d0:06:c5:3d:9e:0b:cd:
         7a:df:97:5b:74:f8:2d:b5:1e:d7:75:cf:16:39:dd:41:27:15:
         98:ad:12:19:20:a7:84:d8:bb:c9:2b:46:ee:4a:5d:cc:f7:90:
         74:2c:2f:a6:6b:03:c3:a5:28:42:2e:66:01:23:2e:db:2f:e0:
         d5:3b:e0:cb:06:82:fe:c0:9e:bb:68:07:2d:a6:76:a7:7b:cd:
         6d:b3:ae:d1:84:b9:72:de:07:0b:16:bc:5a:41:5b:f5:64:48:
         40:54:f4:d3:40:9b:7f:ff:eb:1f:ff:d0:4e:09:8f:9e:52:48:
         60:42:2d:8b:f5:8c:03:bb:02:67:64:58:96:24:be:fc:cb:9e:
         51:ab:1e:c8:43:cc:06:d9:26:34:15:42:ef:36:a5:57:b0:a1:
         b7:c1:83:5e:92:ab:85:c3:52:56:7c:67:fd:a1:00:8d:9f:96:
         05:1f:5c:cf:2f:9f:d0:a7:ee:0a:b7:f8:18:05:2d:a1:36:30:
         33:fe:4e:b5:dd:bf:d4:25:84:2f:4f:9c:60:1d:da:4e:6c:b3:
         bf:37:f8:c7:df:50:e5:9f:ec:7f:29:fa:2d:70:97:fb:d1:3d:
         d9:3f:a1:85
-----BEGIN CERTIFICATE-----
MIIEnDCCA4SgAwIBAgIGCgsMDQ4VMA0GCSqGSIb3DQEBCwUAMHoxEzARBgNVBAMU
ClBBVE5BQ0FfQ0ExCzAJBgNVBAYTAklOMQ8wDQYDVQQKEwZDSVRSSVgxDDAKBgNV
BAsTA0FORzELMAkGA1UECBMCS0ExKjAoBgkqhkiG9w0BCQEWG1BBVE5BQ0FfQ0FA
UEFUTkFDQV9tYWlsLmNvbTAeFw0xNjA3MDgwNDM4MjRaFw0yNjA3MDYwNDM4MjRa
MHAxCzAJBgNVBAgTAktBMQswCQYDVQQGEwJJTjEbMBkGA1UEAxQSMTA3X1BBVE5B
Q0Ffc2VydmVyMSYwJAYJKoZIhvcNAQkBFhcxMDdfUEFUTkFDQUB0ZXN0X2NhLmNv
bTEPMA0GA1UEChMGQ0lUUklYMIIBIjANBgkqhkiG9w0BAQEFAAOCAQ8AMIIBCgKC
AQEAuQrD0uZlEcf7cjRxwytf5J2d0oI5o5xsF7IYM3ILNsCJNY2ur7ZLaigW6k2K
us1bSXd53ObomA8f2D4PDSS3AX7p93uaxK1RE9btmDlxnqLZou+AHahtI+BOMPXN
SxjcD3qIzBU8A11Wp/TkL+gX/mIKG9FWPIhZVTuuVDO786rrPy1EjWewtEh88I1G
++vXRKgnMGUtFUdZr3B2lO+v500iM/JOmgaq7w0EoKFuI72LAKkL9400mopXgZmx
4Dp82clT2FLoWmWBM7zMeU9kJkMDRGeF7+3WAHy8R3CB8DvpVqNkpFbcr47p+M9M
EoPa56ri2FzrGaF2rj+tFtFwyQIDAQABo4IBMDCCASwwEQYJYIZIAYb4QgEBBAQD
AgZAMB0GA1UdDgQWBBQ/6oO11A/JvnEgxOAOOe/t/hNifTCBrAYDVR0jBIGkMIGh
gBT/38SNr2Th4xf6lu7xdaftp8ORuKF+pHwwejETMBEGA1UEAxQKUEFUTkFDQV9D
QTELMAkGA1UEBhMCSU4xDzANBgNVBAoTBkNJVFJJWDEMMAoGA1UECxMDQU5HMQsw
CQYDVQQIEwJLQTEqMCgGCSqGSIb3DQEJARYbUEFUTkFDQV9DQUBQQVROQUNBX21h
aWwuY29tggkAny4VdvC9wW8wSQYIKwYBBQUHAQEEPTA7MDkGCCsGAQUFBzABhi1o
dHRwOi8vUEFUTkFDQV9vbmUub2NzcHRlc3QuY29tL3Jlc3BvbmRlcnBhdGgwDQYJ
KoZIhvcNAQELBQADggEBAFvlzTAsb/GQ4FJBq1yLaSw6HszzXGrxnx9Ii06h0AbF
PZ4LzXrfl1t0+C21Htd1zxY53UEnFZitEhkgp4TYu8krRu5KXcz3kHQsL6ZrA8Ol
KEIuZgEjLtsv4NU74MsGgv7AnrtoBy2mdqd7zW2zrtGEuXLeBwsWvFpBW/VkSEBU
9NNAm3//6x//0E4Jj55SSGBCLYv1jAO7AmdkWJYkvvzLnlGrHshDzAbZJjQVQu82
pVewobfBg16Sq4XDUlZ8Z/2hAI2flgUfXM8vn9Cn7gq3+BgFLaE2MDP+TrXdv9Ql
hC9PnGAd2k5ss783+MffUOWf7H8p+i1wl/vRPdk/oYU=
-----END CERTIFICATE-----
