Certificate:
    Data:
        Version: 3 (0x2)
        Serial Number: 11042563100184 (0xa0b0c0d0e18)
    Signature Algorithm: sha256WithRSAEncryption
        Issuer: CN=PATNACA_CA, C=IN, O=CITRIX, OU=ANG, ST=KA/emailAddress=PATNACA_CA@PATNACA_mail.com
        Validity
            Not Before: Jul  8 04:38:25 2016 GMT
            Not After : Jul  6 04:38:25 2026 GMT
        Subject: ST=KA, C=IN, CN=110_PATNACA_server/emailAddress=110_PATNACA@test_ca.com, O=CITRIX
        Subject Public Key Info:
            Public Key Algorithm: rsaEncryption
                Public-Key: (2048 bit)
                Modulus:
                    00:d2:28:3e:e3:a4:42:0a:0f:1f:b7:69:f5:4d:dc:
                    d3:e8:8d:60:10:6f:b3:48:69:6f:5b:2e:3b:b7:78:
                    a1:bb:ea:8c:ec:f0:bb:9a:0b:06:0b:a8:5f:43:15:
                    91:35:25:75:b8:12:a9:a7:a5:0c:e2:62:e1:79:f6:
                    3f:51:d2:b6:d1:5f:94:d3:f3:be:f5:c7:25:17:3e:
                    68:7a:4f:cc:bd:fa:62:51:0b:75:a2:5f:8d:77:b3:
                    29:28:18:5b:41:17:88:c4:fe:11:de:2a:53:57:d6:
                    83:af:5e:12:5d:4e:bb:65:7d:23:68:ab:5f:48:9f:
                    76:c0:04:cb:e9:be:fa:d3:50:1d:a8:e4:16:a7:70:
                    b2:bf:13:33:c6:e5:a5:12:38:36:69:ac:08:b8:94:
                    7a:36:f3:12:7f:b0:1d:2a:d7:79:8b:da:a2:c2:cb:
                    9d:5a:63:dd:b4:32:9a:f9:8b:19:ed:33:a5:c4:3f:
                    71:02:5b:92:45:0d:09:63:0a:a1:3d:e1:df:c9:5a:
                    22:2b:3a:9a:f4:db:eb:02:56:75:0a:06:a3:12:f2:
                    7b:c9:9b:e3:ee:df:fe:a6:f4:f0:40:cf:60:b2:6e:
                    a6:c9:36:e3:7f:f5:fe:e2:da:ab:bb:f3:15:0f:25:
                    2e:c6:0b:fd:de:1c:4d:2e:5a:24:4f:69:4e:0b:76:
                    43:f3
                Exponent: 65537 (0x10001)
        X509v3 extensions:
            Netscape Cert Type: 
                SSL Server
            X509v3 Subject Key Identifier: 
                21:65:FE:43:C6:18:2E:70:71:F2:2E:B9:59:5C:2A:D5:82:43:33:F8
            X509v3 Authority Key Identifier: 
                keyid:FF:DF:C4:8D:AF:64:E1:E3:17:FA:96:EE:F1:75:A7:ED:A7:C3:91:B8
                DirName:/CN=PATNACA_CA/C=IN/O=CITRIX/OU=ANG/ST=KA/emailAddress=PATNACA_CA@PATNACA_mail.com
                serial:9F:2E:15:76:F0:BD:C1:6F

            Authority Information Access: 
                OCSP - URI:http://PATNACA_one.ocsptest.com/responderpath

    Signature Algorithm: sha256WithRSAEncryption
         3c:27:92:ca:e8:47:68:2c:cf:6e:68:37:d6:59:dc:31:d9:b9:
         3a:42:e3:c4:a8:0d:52:f2:68:bf:3a:dc:e4:8c:ee:75:8f:7a:
         81:10:31:32:55:a7:f5:9a:04:d1:dd:38:5e:5a:56:9a:a1:95:
         92:3d:d9:67:5f:65:58:26:8a:d7:da:98:ee:c6:50:31:79:9e:
         a7:36:8a:a7:31:3f:69:2a:9f:24:9b:ad:03:66:7b:cd:79:db:
         5a:48:5b:10:4d:40:29:ce:94:c8:5c:ba:a6:01:26:c1:ae:7a:
         a8:0a:8f:9a:73:e0:e6:1a:a5:d0:e9:68:f5:84:58:25:a9:8b:
         90:6c:37:cf:6c:75:9f:88:9b:0f:11:bc:65:af:4c:af:5d:be:
         cc:05:73:39:76:08:d1:b5:b4:01:da:54:48:e2:78:c6:8f:59:
         02:80:69:9d:1e:26:22:11:05:7b:da:2b:1a:7f:b3:f6:24:f3:
         70:21:57:d2:54:b2:f2:2e:ce:bf:46:55:2f:1a:1d:36:dd:cd:
         5a:79:c6:fd:4b:d4:56:db:67:69:b7:3a:02:0f:76:b4:6d:e0:
         fa:34:a6:05:ff:ec:43:80:b1:4d:7d:4b:c9:c5:1e:1f:02:2b:
         57:7a:88:7f:5e:da:58:1f:1e:fa:35:e6:d2:71:00:f7:81:9a:
         e5:22:c0:f5
-----BEGIN CERTIFICATE-----
MIIEnDCCA4SgAwIBAgIGCgsMDQ4YMA0GCSqGSIb3DQEBCwUAMHoxEzARBgNVBAMU
ClBBVE5BQ0FfQ0ExCzAJBgNVBAYTAklOMQ8wDQYDVQQKEwZDSVRSSVgxDDAKBgNV
BAsTA0FORzELMAkGA1UECBMCS0ExKjAoBgkqhkiG9w0BCQEWG1BBVE5BQ0FfQ0FA
UEFUTkFDQV9tYWlsLmNvbTAeFw0xNjA3MDgwNDM4MjVaFw0yNjA3MDYwNDM4MjVa
MHAxCzAJBgNVBAgTAktBMQswCQYDVQQGEwJJTjEbMBkGA1UEAxQSMTEwX1BBVE5B
Q0Ffc2VydmVyMSYwJAYJKoZIhvcNAQkBFhcxMTBfUEFUTkFDQUB0ZXN0X2NhLmNv
bTEPMA0GA1UEChMGQ0lUUklYMIIBIjANBgkqhkiG9w0BAQEFAAOCAQ8AMIIBCgKC
AQEA0ig+46RCCg8ft2n1TdzT6I1gEG+zSGlvWy47t3ihu+qM7PC7mgsGC6hfQxWR
NSV1uBKpp6UM4mLhefY/UdK20V+U0/O+9cclFz5oek/MvfpiUQt1ol+Nd7MpKBhb
QReIxP4R3ipTV9aDr14SXU67ZX0jaKtfSJ92wATL6b7601AdqOQWp3CyvxMzxuWl
Ejg2aawIuJR6NvMSf7AdKtd5i9qiwsudWmPdtDKa+YsZ7TOlxD9xAluSRQ0JYwqh
PeHfyVoiKzqa9NvrAlZ1CgajEvJ7yZvj7t/+pvTwQM9gsm6myTbjf/X+4tqru/MV
DyUuxgv93hxNLlokT2lOC3ZD8wIDAQABo4IBMDCCASwwEQYJYIZIAYb4QgEBBAQD
AgZAMB0GA1UdDgQWBBQhZf5DxhgucHHyLrlZXCrVgkMz+DCBrAYDVR0jBIGkMIGh
gBT/38SNr2Th4xf6lu7xdaftp8ORuKF+pHwwejETMBEGA1UEAxQKUEFUTkFDQV9D
QTELMAkGA1UEBhMCSU4xDzANBgNVBAoTBkNJVFJJWDEMMAoGA1UECxMDQU5HMQsw
CQYDVQQIEwJLQTEqMCgGCSqGSIb3DQEJARYbUEFUTkFDQV9DQUBQQVROQUNBX21h
aWwuY29tggkAny4VdvC9wW8wSQYIKwYBBQUHAQEEPTA7MDkGCCsGAQUFBzABhi1o
dHRwOi8vUEFUTkFDQV9vbmUub2NzcHRlc3QuY29tL3Jlc3BvbmRlcnBhdGgwDQYJ
KoZIhvcNAQELBQADggEBADwnksroR2gsz25oN9ZZ3DHZuTpC48SoDVLyaL863OSM
7nWPeoEQMTJVp/WaBNHdOF5aVpqhlZI92WdfZVgmitfamO7GUDF5nqc2iqcxP2kq
nySbrQNme81521pIWxBNQCnOlMhcuqYBJsGueqgKj5pz4OYapdDpaPWEWCWpi5Bs
N89sdZ+Imw8RvGWvTK9dvswFczl2CNG1tAHaVEjieMaPWQKAaZ0eJiIRBXvaKxp/
s/Yk83AhV9JUsvIuzr9GVS8aHTbdzVp5xv1L1FbbZ2m3OgIPdrRt4Po0pgX/7EOA
sU19S8nFHh8CK1d6iH9e2lgfHvo15tJxAPeBmuUiwPU=
-----END CERTIFICATE-----
