Certificate:
    Data:
        Version: 3 (0x2)
        Serial Number: 11042563100186 (0xa0b0c0d0e1a)
    Signature Algorithm: sha256WithRSAEncryption
        Issuer: CN=PATNACA_CA, C=IN, O=CITRIX, OU=ANG, ST=KA/emailAddress=PATNACA_CA@PATNACA_mail.com
        Validity
            Not Before: Jul  8 04:38:25 2016 GMT
            Not After : Jul  6 04:38:25 2026 GMT
        Subject: ST=KA, C=IN, CN=112_PATNACA_server/emailAddress=112_PATNACA@test_ca.com, O=CITRIX
        Subject Public Key Info:
            Public Key Algorithm: rsaEncryption
                Public-Key: (2048 bit)
                Modulus:
                    00:c4:22:b1:40:95:ad:f9:cd:f2:bd:90:0e:35:e7:
                    e8:ef:52:a2:20:a4:d2:9e:1b:13:a3:b9:ca:35:b9:
                    bb:20:d1:ca:1f:7d:a9:8c:59:20:3e:ed:58:0a:75:
                    48:2d:59:f8:0f:85:08:d4:5a:b1:dd:19:2b:ea:ca:
                    20:1d:cb:f3:91:76:5c:ed:05:5d:84:62:b8:cb:40:
                    08:ea:b1:2f:47:d1:62:b1:21:71:81:bc:bf:c4:24:
                    e1:5b:a7:1c:b9:8d:4b:89:f6:e5:f0:45:e2:2d:fb:
                    c0:4e:8e:a9:83:d6:14:73:a0:40:c0:cc:cb:99:a5:
                    08:0d:a9:b1:a5:0e:65:38:b9:bb:9b:fc:e2:84:f3:
                    5f:ab:07:49:36:c1:02:40:f6:b5:aa:bc:0a:d0:d0:
                    59:07:09:69:f2:36:c6:65:f9:b8:d8:d4:3e:0b:c5:
                    e3:0c:6d:ed:b8:0e:e9:ec:e1:62:69:79:23:ee:e5:
                    da:7c:a8:83:5b:69:97:7d:04:b2:21:62:f4:a2:e3:
                    f5:16:b5:3a:76:bf:f5:8a:a7:9e:74:8b:cd:2a:b2:
                    25:8a:60:95:b1:c5:d5:c8:0b:e2:b1:ff:11:17:03:
                    b5:cf:b4:7b:88:e2:72:36:56:bb:be:f1:68:4b:92:
                    81:55:fe:19:8b:5a:8e:f7:c7:13:91:0c:f9:7c:07:
                    fa:15
                Exponent: 65537 (0x10001)
        X509v3 extensions:
            Netscape Cert Type: 
                SSL Server
            X509v3 Subject Key Identifier: 
                B4:56:BC:72:20:51:04:1F:E3:31:F3:78:D0:6E:E6:57:20:53:16:96
            X509v3 Authority Key Identifier: 
                keyid:FF:DF:C4:8D:AF:64:E1:E3:17:FA:96:EE:F1:75:A7:ED:A7:C3:91:B8
                DirName:/CN=PATNACA_CA/C=IN/O=CITRIX/OU=ANG/ST=KA/emailAddress=PATNACA_CA@PATNACA_mail.com
                serial:9F:2E:15:76:F0:BD:C1:6F

            Authority Information Access: 
                OCSP - URI:http://PATNACA_two.ocsptest.com/responderpath

    Signature Algorithm: sha256WithRSAEncryption
         4c:7f:fd:b7:85:55:8e:a6:a2:f4:c0:fc:4b:25:41:08:b7:e5:
         f8:78:a3:39:13:5f:05:9b:6b:87:1e:eb:bf:ed:de:0b:5a:bd:
         9e:04:3f:78:25:ee:87:34:fe:19:f2:56:fd:8f:18:10:12:d6:
         be:1b:27:ce:13:33:61:9d:e1:ee:8f:7f:0f:66:56:47:46:3b:
         2c:16:9b:22:6e:de:08:0e:1f:9f:74:b4:d8:18:2c:21:38:d3:
         57:ba:26:02:34:e9:e6:87:e0:14:dd:2c:c1:b9:98:b9:45:ac:
         d4:a2:4c:fc:46:96:36:42:20:6c:92:f3:58:d6:15:5e:18:5c:
         48:24:59:c1:1b:59:8b:fb:69:b9:fb:f5:37:29:8b:ce:1e:4e:
         08:b7:77:7d:2e:07:9e:a3:17:1c:45:a7:67:b6:38:05:f9:3a:
         63:69:94:b4:55:26:34:d9:19:21:6d:88:b5:4b:32:81:6a:a6:
         33:59:6f:99:b3:7c:9b:4a:38:2e:82:dc:0f:0d:2d:db:0c:41:
         e9:5d:c3:23:14:07:67:ae:b4:73:75:ce:b3:67:99:05:ec:cb:
         e0:43:eb:81:9b:06:af:27:fc:79:65:87:94:94:90:e4:37:1f:
         bb:ae:b5:4d:9a:45:35:70:3c:f8:89:fc:53:22:46:3a:57:04:
         7b:fa:e5:c0
-----BEGIN CERTIFICATE-----
MIIEnDCCA4SgAwIBAgIGCgsMDQ4aMA0GCSqGSIb3DQEBCwUAMHoxEzARBgNVBAMU
ClBBVE5BQ0FfQ0ExCzAJBgNVBAYTAklOMQ8wDQYDVQQKEwZDSVRSSVgxDDAKBgNV
BAsTA0FORzELMAkGA1UECBMCS0ExKjAoBgkqhkiG9w0BCQEWG1BBVE5BQ0FfQ0FA
UEFUTkFDQV9tYWlsLmNvbTAeFw0xNjA3MDgwNDM4MjVaFw0yNjA3MDYwNDM4MjVa
MHAxCzAJBgNVBAgTAktBMQswCQYDVQQGEwJJTjEbMBkGA1UEAxQSMTEyX1BBVE5B
Q0Ffc2VydmVyMSYwJAYJKoZIhvcNAQkBFhcxMTJfUEFUTkFDQUB0ZXN0X2NhLmNv
bTEPMA0GA1UEChMGQ0lUUklYMIIBIjANBgkqhkiG9w0BAQEFAAOCAQ8AMIIBCgKC
AQEAxCKxQJWt+c3yvZAONefo71KiIKTSnhsTo7nKNbm7INHKH32pjFkgPu1YCnVI
LVn4D4UI1Fqx3Rkr6sogHcvzkXZc7QVdhGK4y0AI6rEvR9FisSFxgby/xCThW6cc
uY1Lifbl8EXiLfvATo6pg9YUc6BAwMzLmaUIDamxpQ5lOLm7m/zihPNfqwdJNsEC
QPa1qrwK0NBZBwlp8jbGZfm42NQ+C8XjDG3tuA7p7OFiaXkj7uXafKiDW2mXfQSy
IWL0ouP1FrU6dr/1iqeedIvNKrIlimCVscXVyAvisf8RFwO1z7R7iOJyNla7vvFo
S5KBVf4Zi1qO98cTkQz5fAf6FQIDAQABo4IBMDCCASwwEQYJYIZIAYb4QgEBBAQD
AgZAMB0GA1UdDgQWBBS0VrxyIFEEH+Mx83jQbuZXIFMWljCBrAYDVR0jBIGkMIGh
gBT/38SNr2Th4xf6lu7xdaftp8ORuKF+pHwwejETMBEGA1UEAxQKUEFUTkFDQV9D
QTELMAkGA1UEBhMCSU4xDzANBgNVBAoTBkNJVFJJWDEMMAoGA1UECxMDQU5HMQsw
CQYDVQQIEwJLQTEqMCgGCSqGSIb3DQEJARYbUEFUTkFDQV9DQUBQQVROQUNBX21h
aWwuY29tggkAny4VdvC9wW8wSQYIKwYBBQUHAQEEPTA7MDkGCCsGAQUFBzABhi1o
dHRwOi8vUEFUTkFDQV90d28ub2NzcHRlc3QuY29tL3Jlc3BvbmRlcnBhdGgwDQYJ
KoZIhvcNAQELBQADggEBAEx//beFVY6movTA/EslQQi35fh4ozkTXwWba4ce67/t
3gtavZ4EP3gl7oc0/hnyVv2PGBAS1r4bJ84TM2Gd4e6Pfw9mVkdGOywWmyJu3ggO
H590tNgYLCE401e6JgI06eaH4BTdLMG5mLlFrNSiTPxGljZCIGyS81jWFV4YXEgk
WcEbWYv7abn79Tcpi84eTgi3d30uB56jFxxFp2e2OAX5OmNplLRVJjTZGSFtiLVL
MoFqpjNZb5mzfJtKOC6C3A8NLdsMQeldwyMUB2eutHN1zrNnmQXsy+BD64GbBq8n
/Hllh5SUkOQ3H7uutU2aRTVwPPiJ/FMiRjpXBHv65cA=
-----END CERTIFICATE-----
