Certificate:
    Data:
        Version: 3 (0x2)
        Serial Number: 11042563100188 (0xa0b0c0d0e1c)
    Signature Algorithm: sha256WithRSAEncryption
        Issuer: CN=PATNACA_CA, C=IN, O=CITRIX, OU=ANG, ST=KA/emailAddress=PATNACA_CA@PATNACA_mail.com
        Validity
            Not Before: Jul  8 04:38:26 2016 GMT
            Not After : Jul  6 04:38:26 2026 GMT
        Subject: ST=KA, C=IN, CN=114_PATNACA_server/emailAddress=114_PATNACA@test_ca.com, O=CITRIX
        Subject Public Key Info:
            Public Key Algorithm: rsaEncryption
                Public-Key: (2048 bit)
                Modulus:
                    00:d4:5a:9e:3b:13:4e:14:3c:d1:45:7c:cf:35:39:
                    92:8a:6a:a8:ce:f4:74:0c:81:54:fc:e1:ee:6c:82:
                    c9:74:3d:ff:25:98:5c:db:64:dc:64:3c:a2:09:4c:
                    ef:c7:dc:b5:17:48:c2:2d:90:b3:48:8e:7d:7c:60:
                    8d:d1:90:0b:e2:e2:bb:da:be:76:ba:7e:28:97:ac:
                    1a:0a:f3:9d:d9:c2:9b:b0:2f:61:6a:46:08:ba:ab:
                    6c:82:41:4e:7a:23:88:de:75:3f:7c:c7:3e:9a:09:
                    57:0d:ea:8c:5d:3b:38:3c:d4:51:23:71:5c:43:3e:
                    c8:c9:ce:75:dc:f9:c8:24:c7:98:fa:78:0e:38:fa:
                    f1:d4:c9:e4:69:14:b7:c3:85:39:7a:c3:3a:35:5b:
                    07:1a:33:c8:a9:4f:a2:a2:e1:2d:fa:28:14:a0:47:
                    0f:18:a0:5d:be:0b:95:c6:9f:8f:ee:90:9a:93:e6:
                    43:27:e0:1b:e8:0a:d5:65:03:8e:63:b5:48:d1:23:
                    2f:e2:c6:1a:cd:e7:0d:ba:f1:c8:fa:6a:8f:5f:d0:
                    e7:9d:4e:6c:39:dc:29:b1:66:8f:dd:29:31:fa:9b:
                    15:95:07:1c:20:ae:17:2e:87:1a:e5:df:2d:75:7c:
                    f1:54:2d:c4:19:63:f4:51:90:70:aa:0c:84:bf:e6:
                    e6:05
                Exponent: 65537 (0x10001)
        X509v3 extensions:
            Netscape Cert Type: 
                SSL Server
            X509v3 Subject Key Identifier: 
                0D:D8:9B:2A:93:CF:58:93:68:F3:F1:74:FA:FB:1A:B2:7C:38:DC:4D
            X509v3 Authority Key Identifier: 
                keyid:FF:DF:C4:8D:AF:64:E1:E3:17:FA:96:EE:F1:75:A7:ED:A7:C3:91:B8
                DirName:/CN=PATNACA_CA/C=IN/O=CITRIX/OU=ANG/ST=KA/emailAddress=PATNACA_CA@PATNACA_mail.com
                serial:9F:2E:15:76:F0:BD:C1:6F

            Authority Information Access: 
                OCSP - URI:http://PATNACA_two.ocsptest.com/responderpath

    Signature Algorithm: sha256WithRSAEncryption
         b7:0a:c5:67:cb:cd:49:50:6f:7c:13:a6:ed:df:c7:48:59:b3:
         49:fe:b5:d0:b3:41:9f:ea:49:ab:3c:b7:a4:03:c1:d9:c8:82:
         40:5f:48:3a:c2:17:9c:60:e8:95:39:5e:ea:06:7a:0f:56:83:
         f4:d0:7f:ac:c0:93:31:ad:f5:9f:05:40:04:b1:63:86:77:1e:
         87:ac:9e:7c:72:0a:d0:09:bf:5d:27:3e:d2:34:42:6d:38:93:
         fc:5b:0a:44:10:28:25:c6:e4:c7:82:0c:1d:4b:8b:62:bc:1e:
         c7:91:4a:84:ea:2f:4d:e5:22:0c:f7:f6:76:5d:05:b5:2e:e9:
         3f:7f:d9:10:99:bc:29:87:34:a0:99:74:a5:e7:17:29:5d:df:
         bc:03:0c:34:fc:5c:73:06:fc:56:2b:ba:c5:30:60:6f:81:a4:
         09:e1:1b:70:42:78:b2:c7:2e:b3:ce:0d:05:cd:6b:1a:35:e0:
         e0:4a:c1:64:bb:59:5a:a1:1e:89:6d:2c:bf:45:18:45:83:d4:
         3f:bb:3f:b7:51:4c:a4:92:83:64:ac:57:39:9b:52:5b:a3:2f:
         bc:db:ca:38:1e:9b:7e:1d:48:24:c1:af:04:a4:4e:21:81:95:
         5b:ee:9b:fb:1b:92:d3:1b:4d:32:a0:52:75:9d:44:34:87:38:
         30:aa:ac:3f
-----BEGIN CERTIFICATE-----
MIIEnDCCA4SgAwIBAgIGCgsMDQ4cMA0GCSqGSIb3DQEBCwUAMHoxEzARBgNVBAMU
ClBBVE5BQ0FfQ0ExCzAJBgNVBAYTAklOMQ8wDQYDVQQKEwZDSVRSSVgxDDAKBgNV
BAsTA0FORzELMAkGA1UECBMCS0ExKjAoBgkqhkiG9w0BCQEWG1BBVE5BQ0FfQ0FA
UEFUTkFDQV9tYWlsLmNvbTAeFw0xNjA3MDgwNDM4MjZaFw0yNjA3MDYwNDM4MjZa
MHAxCzAJBgNVBAgTAktBMQswCQYDVQQGEwJJTjEbMBkGA1UEAxQSMTE0X1BBVE5B
Q0Ffc2VydmVyMSYwJAYJKoZIhvcNAQkBFhcxMTRfUEFUTkFDQUB0ZXN0X2NhLmNv
bTEPMA0GA1UEChMGQ0lUUklYMIIBIjANBgkqhkiG9w0BAQEFAAOCAQ8AMIIBCgKC
AQEA1FqeOxNOFDzRRXzPNTmSimqozvR0DIFU/OHubILJdD3/JZhc22TcZDyiCUzv
x9y1F0jCLZCzSI59fGCN0ZAL4uK72r52un4ol6waCvOd2cKbsC9hakYIuqtsgkFO
eiOI3nU/fMc+mglXDeqMXTs4PNRRI3FcQz7Iyc513PnIJMeY+ngOOPrx1MnkaRS3
w4U5esM6NVsHGjPIqU+iouEt+igUoEcPGKBdvguVxp+P7pCak+ZDJ+Ab6ArVZQOO
Y7VI0SMv4sYazecNuvHI+mqPX9DnnU5sOdwpsWaP3Skx+psVlQccIK4XLoca5d8t
dXzxVC3EGWP0UZBwqgyEv+bmBQIDAQABo4IBMDCCASwwEQYJYIZIAYb4QgEBBAQD
AgZAMB0GA1UdDgQWBBQN2Jsqk89Yk2jz8XT6+xqyfDjcTTCBrAYDVR0jBIGkMIGh
gBT/38SNr2Th4xf6lu7xdaftp8ORuKF+pHwwejETMBEGA1UEAxQKUEFUTkFDQV9D
QTELMAkGA1UEBhMCSU4xDzANBgNVBAoTBkNJVFJJWDEMMAoGA1UECxMDQU5HMQsw
CQYDVQQIEwJLQTEqMCgGCSqGSIb3DQEJARYbUEFUTkFDQV9DQUBQQVROQUNBX21h
aWwuY29tggkAny4VdvC9wW8wSQYIKwYBBQUHAQEEPTA7MDkGCCsGAQUFBzABhi1o
dHRwOi8vUEFUTkFDQV90d28ub2NzcHRlc3QuY29tL3Jlc3BvbmRlcnBhdGgwDQYJ
KoZIhvcNAQELBQADggEBALcKxWfLzUlQb3wTpu3fx0hZs0n+tdCzQZ/qSas8t6QD
wdnIgkBfSDrCF5xg6JU5XuoGeg9Wg/TQf6zAkzGt9Z8FQASxY4Z3HoesnnxyCtAJ
v10nPtI0Qm04k/xbCkQQKCXG5MeCDB1Li2K8HseRSoTqL03lIgz39nZdBbUu6T9/
2RCZvCmHNKCZdKXnFyld37wDDDT8XHMG/FYrusUwYG+BpAnhG3BCeLLHLrPODQXN
axo14OBKwWS7WVqhHoltLL9FGEWD1D+7P7dRTKSSg2SsVzmbUlujL7zbyjgem34d
SCTBrwSkTiGBlVvum/sbktMbTTKgUnWdRDSHODCqrD8=
-----END CERTIFICATE-----
