Certificate:
    Data:
        Version: 3 (0x2)
        Serial Number: 11042563100195 (0xa0b0c0d0e23)
    Signature Algorithm: sha256WithRSAEncryption
        Issuer: CN=PATNACA_CA, C=IN, O=CITRIX, OU=ANG, ST=KA/emailAddress=PATNACA_CA@PATNACA_mail.com
        Validity
            Not Before: Jul  8 04:38:27 2016 GMT
            Not After : Jul  6 04:38:27 2026 GMT
        Subject: ST=KA, C=IN, CN=121_PATNACA_server/emailAddress=121_PATNACA@test_ca.com, O=CITRIX
        Subject Public Key Info:
            Public Key Algorithm: rsaEncryption
                Public-Key: (2048 bit)
                Modulus:
                    00:d3:f1:c1:76:e7:46:4a:3f:1f:d5:6b:b0:d1:19:
                    63:bd:49:1e:91:6f:2f:83:e2:48:04:82:c7:77:75:
                    69:37:cc:85:62:29:48:27:3b:4a:c7:e8:a9:d1:29:
                    5d:e0:b2:7d:89:ee:1e:e3:30:18:84:6a:4a:3d:7d:
                    dd:0e:52:c0:81:9b:5f:64:0d:2b:42:c9:40:d7:26:
                    ce:fe:a6:dc:50:2e:88:f2:d3:6a:df:42:95:d0:5f:
                    ac:53:fd:80:49:bc:72:a3:2f:41:f2:b9:36:89:f7:
                    93:70:f8:1b:fa:f7:9e:a9:62:da:3a:d4:c4:35:86:
                    3e:83:ab:ce:58:69:09:e0:3d:e2:91:91:ba:80:27:
                    9e:58:b1:8a:b6:93:0d:cd:4c:35:a5:64:8e:4b:cb:
                    97:98:63:e8:4b:fe:84:99:f1:df:8c:9c:49:a8:2c:
                    f7:76:e0:ed:ea:5d:00:f2:72:75:55:25:5b:f6:9c:
                    46:5b:1b:4b:ae:1e:c3:a7:1a:c9:ab:c9:66:aa:7b:
                    70:9a:1b:e2:87:15:cb:cc:6a:b0:67:4d:9a:17:ac:
                    21:5c:54:58:e9:75:f1:52:93:3a:1b:f0:0d:dc:89:
                    4b:bd:0d:7e:b5:d5:4a:4c:b1:f7:af:42:20:6a:a6:
                    83:2e:ef:7b:36:30:15:e8:a2:b9:63:ee:f4:7b:18:
                    f5:03
                Exponent: 65537 (0x10001)
        X509v3 extensions:
            Netscape Cert Type: 
                SSL Server
            X509v3 Subject Key Identifier: 
                9B:B9:16:F9:95:50:AD:07:14:3F:69:28:71:94:73:13:34:94:CA:42
            X509v3 Authority Key Identifier: 
                keyid:FF:DF:C4:8D:AF:64:E1:E3:17:FA:96:EE:F1:75:A7:ED:A7:C3:91:B8
                DirName:/CN=PATNACA_CA/C=IN/O=CITRIX/OU=ANG/ST=KA/emailAddress=PATNACA_CA@PATNACA_mail.com
                serial:9F:2E:15:76:F0:BD:C1:6F

            Authority Information Access: 
                OCSP - URI:http://172.26.10.1/responderpath

    Signature Algorithm: sha256WithRSAEncryption
         76:15:dd:ce:6c:9d:67:00:73:6f:df:8b:ff:9e:7a:29:c0:50:
         37:90:7a:dc:69:3b:dd:4c:68:9d:92:ca:c6:95:b8:5a:a7:c1:
         05:a6:66:de:49:aa:af:e1:75:66:69:15:40:fb:4a:b4:c4:4b:
         c2:85:a3:7b:04:c0:bb:82:ec:a1:a8:3a:7e:bc:87:cd:ad:90:
         73:be:8c:63:35:c1:80:56:d6:5e:c6:f7:74:04:60:fc:a7:b0:
         c6:90:df:8a:47:5a:fb:d4:15:68:28:4a:7d:76:4a:1b:58:a0:
         83:81:17:b0:91:14:34:1e:aa:1c:6c:1a:57:54:f2:9c:6b:ca:
         c5:ba:a9:7d:49:70:f6:c1:8d:eb:a7:11:23:33:a2:6c:12:91:
         59:e0:a8:67:78:00:1d:14:c3:22:20:6b:94:a7:61:2d:71:bf:
         e6:45:22:00:2b:7f:34:ef:88:3b:f4:ee:33:60:aa:6d:21:b3:
         6c:8e:e4:36:16:44:75:50:d8:fc:fb:86:f7:8e:46:b6:73:e8:
         6e:e7:27:39:23:ef:e1:0a:cc:6b:de:39:c5:31:81:e0:f6:21:
         1f:f6:37:d6:16:25:ee:bb:e0:93:57:c1:2c:e2:c6:46:ca:14:
         0e:bb:a0:8f:fa:0e:c2:f5:97:5e:8c:80:40:1c:29:1b:c9:d8:
         89:76:9e:fb
-----BEGIN CERTIFICATE-----
MIIEjzCCA3egAwIBAgIGCgsMDQ4jMA0GCSqGSIb3DQEBCwUAMHoxEzARBgNVBAMU
ClBBVE5BQ0FfQ0ExCzAJBgNVBAYTAklOMQ8wDQYDVQQKEwZDSVRSSVgxDDAKBgNV
BAsTA0FORzELMAkGA1UECBMCS0ExKjAoBgkqhkiG9w0BCQEWG1BBVE5BQ0FfQ0FA
UEFUTkFDQV9tYWlsLmNvbTAeFw0xNjA3MDgwNDM4MjdaFw0yNjA3MDYwNDM4Mjda
MHAxCzAJBgNVBAgTAktBMQswCQYDVQQGEwJJTjEbMBkGA1UEAxQSMTIxX1BBVE5B
Q0Ffc2VydmVyMSYwJAYJKoZIhvcNAQkBFhcxMjFfUEFUTkFDQUB0ZXN0X2NhLmNv
bTEPMA0GA1UEChMGQ0lUUklYMIIBIjANBgkqhkiG9w0BAQEFAAOCAQ8AMIIBCgKC
AQEA0/HBdudGSj8f1Wuw0RljvUkekW8vg+JIBILHd3VpN8yFYilIJztKx+ip0Sld
4LJ9ie4e4zAYhGpKPX3dDlLAgZtfZA0rQslA1ybO/qbcUC6I8tNq30KV0F+sU/2A
Sbxyoy9B8rk2ifeTcPgb+veeqWLaOtTENYY+g6vOWGkJ4D3ikZG6gCeeWLGKtpMN
zUw1pWSOS8uXmGPoS/6EmfHfjJxJqCz3duDt6l0A8nJ1VSVb9pxGWxtLrh7DpxrJ
q8lmqntwmhvihxXLzGqwZ02aF6whXFRY6XXxUpM6G/AN3IlLvQ1+tdVKTLH3r0Ig
aqaDLu97NjAV6KK5Y+70exj1AwIDAQABo4IBIzCCAR8wEQYJYIZIAYb4QgEBBAQD
AgZAMB0GA1UdDgQWBBSbuRb5lVCtBxQ/aShxlHMTNJTKQjCBrAYDVR0jBIGkMIGh
gBT/38SNr2Th4xf6lu7xdaftp8ORuKF+pHwwejETMBEGA1UEAxQKUEFUTkFDQV9D
QTELMAkGA1UEBhMCSU4xDzANBgNVBAoTBkNJVFJJWDEMMAoGA1UECxMDQU5HMQsw
CQYDVQQIEwJLQTEqMCgGCSqGSIb3DQEJARYbUEFUTkFDQV9DQUBQQVROQUNBX21h
aWwuY29tggkAny4VdvC9wW8wPAYIKwYBBQUHAQEEMDAuMCwGCCsGAQUFBzABhiBo
dHRwOi8vMTcyLjI2LjEwLjEvcmVzcG9uZGVycGF0aDANBgkqhkiG9w0BAQsFAAOC
AQEAdhXdzmydZwBzb9+L/556KcBQN5B63Gk73UxonZLKxpW4WqfBBaZm3kmqr+F1
ZmkVQPtKtMRLwoWjewTAu4Lsoag6fryHza2Qc76MYzXBgFbWXsb3dARg/KewxpDf
ikda+9QVaChKfXZKG1igg4EXsJEUNB6qHGwaV1TynGvKxbqpfUlw9sGN66cRIzOi
bBKRWeCoZ3gAHRTDIiBrlKdhLXG/5kUiACt/NO+IO/TuM2CqbSGzbI7kNhZEdVDY
/PuG945GtnPobucnOSPv4QrMa945xTGB4PYhH/Y31hYl7rvgk1fBLOLGRsoUDrug
j/oOwvWXXoyAQBwpG8nYiXae+w==
-----END CERTIFICATE-----
