Certificate:
    Data:
        Version: 3 (0x2)
        Serial Number: 11042563100196 (0xa0b0c0d0e24)
    Signature Algorithm: sha256WithRSAEncryption
        Issuer: CN=PATNACA_CA, C=IN, O=CITRIX, OU=ANG, ST=KA/emailAddress=PATNACA_CA@PATNACA_mail.com
        Validity
            Not Before: Jul  8 04:38:27 2016 GMT
            Not After : Jul  6 04:38:27 2026 GMT
        Subject: ST=KA, C=IN, CN=122_PATNACA_server/emailAddress=122_PATNACA@test_ca.com, O=CITRIX
        Subject Public Key Info:
            Public Key Algorithm: rsaEncryption
                Public-Key: (2048 bit)
                Modulus:
                    00:a7:5c:9f:30:39:da:8f:bc:db:68:66:86:2b:42:
                    be:e0:58:f4:f5:6c:d6:d4:00:da:2a:ab:e2:ac:52:
                    5a:2d:d6:64:f5:ea:36:6f:1f:f1:14:3e:4c:b7:ce:
                    16:52:bf:2e:2e:7a:60:52:1a:d5:ac:3d:04:47:17:
                    4e:97:60:1b:92:5f:59:c2:82:7b:d6:18:bd:96:d1:
                    44:1d:b4:46:a9:66:d1:7a:38:41:65:8a:45:a5:1e:
                    ba:2a:27:76:e7:bd:b9:e4:95:3b:27:59:76:ae:f5:
                    d5:b2:2f:0b:6a:17:c0:90:35:60:14:12:03:e9:8c:
                    35:45:8c:29:12:f9:5e:88:6b:bf:f6:87:e5:3d:b2:
                    21:11:4c:76:c3:85:a9:40:4a:89:f6:2a:a3:19:67:
                    d8:6e:1e:5a:cf:a3:b2:6a:8d:28:86:0b:35:7a:64:
                    6b:7f:be:34:43:c0:0b:ca:f0:af:46:e0:c6:ff:3a:
                    cd:54:5b:79:ae:ee:69:c7:36:b7:2f:2e:b0:d2:e7:
                    1e:d3:93:67:03:47:52:3c:12:d4:9e:6e:8a:65:e7:
                    78:5f:a2:6f:24:27:47:14:45:85:bc:cd:4c:bb:ea:
                    57:50:09:cd:c4:8f:8a:e5:8d:91:30:95:e7:d6:72:
                    b2:7d:a6:b7:bf:3b:11:b8:57:f3:43:c4:15:e2:09:
                    79:0d
                Exponent: 65537 (0x10001)
        X509v3 extensions:
            Netscape Cert Type: 
                SSL Server
            X509v3 Subject Key Identifier: 
                BE:48:5A:25:84:36:93:32:68:17:ED:4D:5E:C2:0C:E2:58:64:2D:A0
            X509v3 Authority Key Identifier: 
                keyid:FF:DF:C4:8D:AF:64:E1:E3:17:FA:96:EE:F1:75:A7:ED:A7:C3:91:B8
                DirName:/CN=PATNACA_CA/C=IN/O=CITRIX/OU=ANG/ST=KA/emailAddress=PATNACA_CA@PATNACA_mail.com
                serial:9F:2E:15:76:F0:BD:C1:6F

            Authority Information Access: 
                OCSP - URI:http://172.26.10.1/responderpath

    Signature Algorithm: sha256WithRSAEncryption
         8a:cf:4b:92:ea:be:f3:21:70:49:d4:e7:b3:16:73:e0:63:48:
         b5:8d:84:6c:0a:bc:c0:c9:b6:49:b4:0f:2b:73:17:8c:b7:f2:
         5d:90:26:08:3d:20:8e:2f:0c:47:f2:8b:b0:ee:14:c0:22:f2:
         9d:05:21:89:4b:ba:74:7d:20:50:86:6b:4d:5b:75:7f:35:b5:
         3f:1a:3d:94:95:b5:ea:71:c3:99:93:fc:8c:ff:ce:c6:22:46:
         a1:b6:56:76:2b:e1:d4:ad:35:ca:c9:96:ff:c9:0a:fe:f4:bf:
         bf:2b:e8:d7:6e:37:1c:a5:41:24:35:0d:19:7b:6a:32:e8:47:
         34:0d:47:9a:31:2a:f1:44:e2:fa:7a:b4:cf:de:06:54:34:17:
         db:9d:be:e9:4d:59:28:45:80:c4:5d:8e:2c:b7:b3:f0:8c:19:
         db:63:69:d5:03:37:be:f0:53:12:d8:12:16:27:91:3a:18:ab:
         d5:84:f0:ef:fc:9e:4b:9d:66:7a:b5:24:a9:22:44:d6:65:6e:
         03:eb:c4:a3:04:1f:0e:25:26:91:36:00:f3:fe:15:40:64:3c:
         5f:cb:c5:44:07:76:9b:72:57:99:08:fc:c2:69:d8:3a:be:ac:
         3f:92:49:8a:8f:0c:3c:81:52:fb:bc:90:b6:3b:17:e7:aa:2e:
         82:6a:91:ea
-----BEGIN CERTIFICATE-----
MIIEjzCCA3egAwIBAgIGCgsMDQ4kMA0GCSqGSIb3DQEBCwUAMHoxEzARBgNVBAMU
ClBBVE5BQ0FfQ0ExCzAJBgNVBAYTAklOMQ8wDQYDVQQKEwZDSVRSSVgxDDAKBgNV
BAsTA0FORzELMAkGA1UECBMCS0ExKjAoBgkqhkiG9w0BCQEWG1BBVE5BQ0FfQ0FA
UEFUTkFDQV9tYWlsLmNvbTAeFw0xNjA3MDgwNDM4MjdaFw0yNjA3MDYwNDM4Mjda
MHAxCzAJBgNVBAgTAktBMQswCQYDVQQGEwJJTjEbMBkGA1UEAxQSMTIyX1BBVE5B
Q0Ffc2VydmVyMSYwJAYJKoZIhvcNAQkBFhcxMjJfUEFUTkFDQUB0ZXN0X2NhLmNv
bTEPMA0GA1UEChMGQ0lUUklYMIIBIjANBgkqhkiG9w0BAQEFAAOCAQ8AMIIBCgKC
AQEAp1yfMDnaj7zbaGaGK0K+4Fj09WzW1ADaKqvirFJaLdZk9eo2bx/xFD5Mt84W
Ur8uLnpgUhrVrD0ERxdOl2Abkl9ZwoJ71hi9ltFEHbRGqWbRejhBZYpFpR66Kid2
57255JU7J1l2rvXVsi8LahfAkDVgFBID6Yw1RYwpEvleiGu/9oflPbIhEUx2w4Wp
QEqJ9iqjGWfYbh5az6Oyao0ohgs1emRrf740Q8ALyvCvRuDG/zrNVFt5ru5pxza3
Ly6w0uce05NnA0dSPBLUnm6KZed4X6JvJCdHFEWFvM1Mu+pXUAnNxI+K5Y2RMJXn
1nKyfaa3vzsRuFfzQ8QV4gl5DQIDAQABo4IBIzCCAR8wEQYJYIZIAYb4QgEBBAQD
AgZAMB0GA1UdDgQWBBS+SFolhDaTMmgX7U1ewgziWGQtoDCBrAYDVR0jBIGkMIGh
gBT/38SNr2Th4xf6lu7xdaftp8ORuKF+pHwwejETMBEGA1UEAxQKUEFUTkFDQV9D
QTELMAkGA1UEBhMCSU4xDzANBgNVBAoTBkNJVFJJWDEMMAoGA1UECxMDQU5HMQsw
CQYDVQQIEwJLQTEqMCgGCSqGSIb3DQEJARYbUEFUTkFDQV9DQUBQQVROQUNBX21h
aWwuY29tggkAny4VdvC9wW8wPAYIKwYBBQUHAQEEMDAuMCwGCCsGAQUFBzABhiBo
dHRwOi8vMTcyLjI2LjEwLjEvcmVzcG9uZGVycGF0aDANBgkqhkiG9w0BAQsFAAOC
AQEAis9Lkuq+8yFwSdTnsxZz4GNItY2EbAq8wMm2SbQPK3MXjLfyXZAmCD0gji8M
R/KLsO4UwCLynQUhiUu6dH0gUIZrTVt1fzW1Pxo9lJW16nHDmZP8jP/OxiJGobZW
divh1K01ysmW/8kK/vS/vyvo1243HKVBJDUNGXtqMuhHNA1HmjEq8UTi+nq0z94G
VDQX252+6U1ZKEWAxF2OLLez8IwZ22Np1QM3vvBTEtgSFieROhir1YTw7/yeS51m
erUkqSJE1mVuA+vEowQfDiUmkTYA8/4VQGQ8X8vFRAd2m3JXmQj8wmnYOr6sP5JJ
io8MPIFS+7yQtjsX56ougmqR6g==
-----END CERTIFICATE-----
