Certificate:
    Data:
        Version: 3 (0x2)
        Serial Number: 11042563100199 (0xa0b0c0d0e27)
    Signature Algorithm: sha256WithRSAEncryption
        Issuer: CN=PATNACA_CA, C=IN, O=CITRIX, OU=ANG, ST=KA/emailAddress=PATNACA_CA@PATNACA_mail.com
        Validity
            Not Before: Jul  8 04:38:28 2016 GMT
            Not After : Jul  6 04:38:28 2026 GMT
        Subject: ST=KA, C=IN, CN=125_PATNACA_server/emailAddress=125_PATNACA@test_ca.com, O=CITRIX
        Subject Public Key Info:
            Public Key Algorithm: rsaEncryption
                Public-Key: (2048 bit)
                Modulus:
                    00:cc:87:54:6a:af:30:32:d0:7a:7a:a2:fd:3d:21:
                    74:83:5d:c5:c2:af:87:46:64:7e:f4:8f:2a:35:bd:
                    d5:1c:c6:09:4e:40:05:fe:5c:21:56:ed:ad:a8:da:
                    1e:fe:9a:39:0c:24:6c:b0:09:79:92:89:27:03:d3:
                    0b:0a:63:31:7d:00:9b:0d:84:f5:60:18:0f:cd:24:
                    5b:37:32:ab:0c:65:21:c8:13:b6:21:e0:66:f0:a3:
                    4c:4f:a2:54:1e:bc:65:24:df:bd:a8:3b:93:dc:da:
                    09:7e:45:29:c0:7d:da:a1:6d:45:71:85:fe:d1:e8:
                    9a:03:4d:33:c7:62:ce:fa:7d:3f:78:bf:d3:1c:6b:
                    4e:60:97:f6:d4:7d:66:8d:09:85:c1:e2:2c:19:16:
                    d9:bb:1e:94:12:ca:da:f6:ce:6d:7c:a8:61:d3:bb:
                    41:bf:c9:d2:4b:6b:82:60:4b:c3:9a:f5:24:86:43:
                    b8:ef:d5:02:d3:b0:1c:03:85:2d:b4:6c:15:b1:fd:
                    cb:42:21:9d:7d:c9:c4:ec:b7:93:a2:de:67:b9:b2:
                    be:89:6d:13:32:62:40:42:a1:fd:95:21:93:c8:63:
                    e0:52:6d:3f:6b:ce:63:e7:d0:ca:5e:29:66:a3:83:
                    77:13:65:23:7e:e6:ed:b7:bc:f9:a0:c3:fe:84:05:
                    36:6d
                Exponent: 65537 (0x10001)
        X509v3 extensions:
            Netscape Cert Type: 
                SSL Server
            X509v3 Subject Key Identifier: 
                CD:24:1C:25:A9:D1:11:D9:F5:CE:ED:D1:7C:08:9B:1C:41:70:70:DC
            X509v3 Authority Key Identifier: 
                keyid:FF:DF:C4:8D:AF:64:E1:E3:17:FA:96:EE:F1:75:A7:ED:A7:C3:91:B8
                DirName:/CN=PATNACA_CA/C=IN/O=CITRIX/OU=ANG/ST=KA/emailAddress=PATNACA_CA@PATNACA_mail.com
                serial:9F:2E:15:76:F0:BD:C1:6F

            Authority Information Access: 
                OCSP - URI:http://172.26.10.1/responderpath

    Signature Algorithm: sha256WithRSAEncryption
         22:60:51:80:77:19:df:5a:32:d2:21:cf:f0:b0:ab:e0:40:c2:
         35:30:fd:ea:31:e0:ae:ac:fb:34:f8:e4:e1:f3:eb:72:45:da:
         c4:4d:a1:4a:0e:77:3b:c7:97:69:f4:9b:a7:67:26:9a:29:c3:
         22:94:43:0a:3c:96:92:97:3a:93:79:ae:ac:ca:1b:3c:dc:0e:
         88:13:b5:c6:01:f4:56:4b:f3:2a:fb:ea:13:67:9a:ea:fa:e9:
         b8:5f:e7:ae:e9:d7:65:63:57:1f:41:88:9d:3b:fe:0d:a4:c5:
         26:e5:ce:7d:67:3e:d6:a5:86:bf:98:7c:e4:8b:e9:dc:0b:c4:
         d1:57:34:69:94:89:c8:ef:c9:14:11:84:ea:91:04:92:6a:dd:
         17:8d:21:57:f9:d5:38:d3:d5:84:7b:f7:4e:20:2a:3c:80:61:
         2f:b1:77:42:b0:75:3b:ba:35:03:ca:66:cd:8d:ce:de:3c:3c:
         d6:16:a6:89:bf:98:c4:84:7d:1a:69:34:28:68:b1:6d:f1:d5:
         0f:19:4f:00:dc:0e:69:9d:ab:ff:02:3b:38:66:82:a7:a9:cd:
         1d:43:90:1b:6a:82:90:3f:b7:8e:d4:99:75:bb:7b:a5:97:11:
         ee:74:12:12:94:70:50:c5:41:76:b4:a1:9e:99:b6:94:57:fe:
         10:10:6e:62
-----BEGIN CERTIFICATE-----
MIIEjzCCA3egAwIBAgIGCgsMDQ4nMA0GCSqGSIb3DQEBCwUAMHoxEzARBgNVBAMU
ClBBVE5BQ0FfQ0ExCzAJBgNVBAYTAklOMQ8wDQYDVQQKEwZDSVRSSVgxDDAKBgNV
BAsTA0FORzELMAkGA1UECBMCS0ExKjAoBgkqhkiG9w0BCQEWG1BBVE5BQ0FfQ0FA
UEFUTkFDQV9tYWlsLmNvbTAeFw0xNjA3MDgwNDM4MjhaFw0yNjA3MDYwNDM4Mjha
MHAxCzAJBgNVBAgTAktBMQswCQYDVQQGEwJJTjEbMBkGA1UEAxQSMTI1X1BBVE5B
Q0Ffc2VydmVyMSYwJAYJKoZIhvcNAQkBFhcxMjVfUEFUTkFDQUB0ZXN0X2NhLmNv
bTEPMA0GA1UEChMGQ0lUUklYMIIBIjANBgkqhkiG9w0BAQEFAAOCAQ8AMIIBCgKC
AQEAzIdUaq8wMtB6eqL9PSF0g13Fwq+HRmR+9I8qNb3VHMYJTkAF/lwhVu2tqNoe
/po5DCRssAl5koknA9MLCmMxfQCbDYT1YBgPzSRbNzKrDGUhyBO2IeBm8KNMT6JU
HrxlJN+9qDuT3NoJfkUpwH3aoW1FcYX+0eiaA00zx2LO+n0/eL/THGtOYJf21H1m
jQmFweIsGRbZux6UEsra9s5tfKhh07tBv8nSS2uCYEvDmvUkhkO479UC07AcA4Ut
tGwVsf3LQiGdfcnE7LeTot5nubK+iW0TMmJAQqH9lSGTyGPgUm0/a85j59DKXilm
o4N3E2Ujfubtt7z5oMP+hAU2bQIDAQABo4IBIzCCAR8wEQYJYIZIAYb4QgEBBAQD
AgZAMB0GA1UdDgQWBBTNJBwlqdER2fXO7dF8CJscQXBw3DCBrAYDVR0jBIGkMIGh
gBT/38SNr2Th4xf6lu7xdaftp8ORuKF+pHwwejETMBEGA1UEAxQKUEFUTkFDQV9D
QTELMAkGA1UEBhMCSU4xDzANBgNVBAoTBkNJVFJJWDEMMAoGA1UECxMDQU5HMQsw
CQYDVQQIEwJLQTEqMCgGCSqGSIb3DQEJARYbUEFUTkFDQV9DQUBQQVROQUNBX21h
aWwuY29tggkAny4VdvC9wW8wPAYIKwYBBQUHAQEEMDAuMCwGCCsGAQUFBzABhiBo
dHRwOi8vMTcyLjI2LjEwLjEvcmVzcG9uZGVycGF0aDANBgkqhkiG9w0BAQsFAAOC
AQEAImBRgHcZ31oy0iHP8LCr4EDCNTD96jHgrqz7NPjk4fPrckXaxE2hSg53O8eX
afSbp2cmminDIpRDCjyWkpc6k3murMobPNwOiBO1xgH0VkvzKvvqE2ea6vrpuF/n
runXZWNXH0GInTv+DaTFJuXOfWc+1qWGv5h85Ivp3AvE0Vc0aZSJyO/JFBGE6pEE
kmrdF40hV/nVONPVhHv3TiAqPIBhL7F3QrB1O7o1A8pmzY3O3jw81hamib+YxIR9
Gmk0KGixbfHVDxlPANwOaZ2r/wI7OGaCp6nNHUOQG2qCkD+3jtSZdbt7pZcR7nQS
EpRwUMVBdrShnpm2lFf+EBBuYg==
-----END CERTIFICATE-----
