Certificate:
    Data:
        Version: 3 (0x2)
        Serial Number: 11042563100202 (0xa0b0c0d0e2a)
    Signature Algorithm: sha256WithRSAEncryption
        Issuer: CN=PATNACA_CA, C=IN, O=CITRIX, OU=ANG, ST=KA/emailAddress=PATNACA_CA@PATNACA_mail.com
        Validity
            Not Before: Jul  8 04:38:29 2016 GMT
            Not After : Jul  6 04:38:29 2026 GMT
        Subject: ST=KA, C=IN, CN=128_PATNACA_server/emailAddress=128_PATNACA@test_ca.com, O=CITRIX
        Subject Public Key Info:
            Public Key Algorithm: rsaEncryption
                Public-Key: (2048 bit)
                Modulus:
                    00:de:01:95:28:48:8e:6d:dc:a2:b7:76:e1:85:47:
                    2e:d8:b4:83:c8:61:a3:32:c4:10:35:fa:87:3a:1f:
                    ae:d0:72:67:4e:df:15:83:bb:63:8f:d7:66:39:86:
                    40:2b:3e:3d:18:a3:f1:47:a5:c8:14:64:00:39:1b:
                    6e:e1:ba:5e:c7:51:1c:28:c0:88:fb:bc:49:3e:77:
                    c6:c0:20:87:dd:8a:d6:d4:eb:24:07:fa:7a:56:73:
                    5d:db:59:a6:0a:93:12:95:d8:7e:2e:f5:40:c0:82:
                    11:b3:82:82:05:e1:02:16:58:1b:db:27:0e:55:4c:
                    a3:5d:62:ce:67:0e:e6:bb:92:3c:3c:b0:67:7a:af:
                    79:4a:74:82:4c:36:fc:d3:25:a2:06:3a:bc:74:f1:
                    ee:3f:1e:18:4a:0a:94:46:b8:39:54:68:53:40:91:
                    26:f8:9a:77:bf:9a:fb:4a:dc:f9:e2:b0:f6:33:2d:
                    d9:29:dd:58:db:e1:cb:fb:3b:41:d9:b2:4e:79:35:
                    73:5d:bf:0d:64:e3:5f:1f:29:77:22:20:c3:1e:67:
                    33:c3:5e:f0:04:c1:c2:3c:dd:71:2d:8a:08:a5:d8:
                    83:14:00:8a:5b:69:0e:8c:25:68:e7:63:47:90:ce:
                    e6:59:2c:d3:99:01:40:42:af:ef:41:cd:86:97:9c:
                    04:3f
                Exponent: 65537 (0x10001)
        X509v3 extensions:
            Netscape Cert Type: 
                SSL Server
            X509v3 Subject Key Identifier: 
                C0:93:E3:F0:84:E7:F8:D6:28:4B:16:92:82:9A:6D:03:7A:E3:13:9F
            X509v3 Authority Key Identifier: 
                keyid:FF:DF:C4:8D:AF:64:E1:E3:17:FA:96:EE:F1:75:A7:ED:A7:C3:91:B8
                DirName:/CN=PATNACA_CA/C=IN/O=CITRIX/OU=ANG/ST=KA/emailAddress=PATNACA_CA@PATNACA_mail.com
                serial:9F:2E:15:76:F0:BD:C1:6F

            Authority Information Access: 
                OCSP - URI:http://172.26.10.1/responderpath

    Signature Algorithm: sha256WithRSAEncryption
         a7:6e:b1:e0:1a:a2:5e:1d:4d:35:f7:a0:2a:26:5c:8d:be:4a:
         c2:8b:1a:06:ca:8d:5f:20:7e:66:87:93:57:2b:2a:76:58:59:
         07:02:42:af:bf:3f:e3:97:8f:30:72:f9:79:65:c6:c2:3a:26:
         6f:b2:e4:ed:cc:56:df:d8:2e:db:96:fe:e5:1d:9f:06:c4:c2:
         c9:1c:f1:11:6b:57:72:98:f3:81:6f:af:88:18:50:4d:1e:86:
         4d:a0:15:7e:77:f2:7d:a6:88:1f:86:c8:5a:61:97:4c:f9:03:
         b7:1b:aa:89:48:00:de:95:a2:db:6b:35:44:d0:b4:75:6c:34:
         90:0c:78:5d:10:74:17:8d:c8:1c:c8:95:95:49:42:01:88:7c:
         c1:4c:59:e3:99:8d:44:6b:9a:b9:0d:d5:53:df:83:34:c9:ab:
         34:dd:b4:f9:b5:80:7d:b9:b6:07:aa:68:65:8d:b1:b8:4c:d8:
         42:61:4d:bd:bc:a4:56:0b:19:60:32:26:e3:71:17:68:91:b9:
         57:45:1d:42:68:a0:da:1e:e6:e0:42:c6:2a:3a:3e:1b:2f:71:
         d4:7e:b1:de:c0:c2:e8:74:63:24:7e:b8:3f:c3:98:2f:8c:68:
         bc:50:ca:47:cb:d2:f7:1e:bc:78:d2:86:dd:08:b3:02:7f:3f:
         34:a0:51:59
-----BEGIN CERTIFICATE-----
MIIEjzCCA3egAwIBAgIGCgsMDQ4qMA0GCSqGSIb3DQEBCwUAMHoxEzARBgNVBAMU
ClBBVE5BQ0FfQ0ExCzAJBgNVBAYTAklOMQ8wDQYDVQQKEwZDSVRSSVgxDDAKBgNV
BAsTA0FORzELMAkGA1UECBMCS0ExKjAoBgkqhkiG9w0BCQEWG1BBVE5BQ0FfQ0FA
UEFUTkFDQV9tYWlsLmNvbTAeFw0xNjA3MDgwNDM4MjlaFw0yNjA3MDYwNDM4Mjla
MHAxCzAJBgNVBAgTAktBMQswCQYDVQQGEwJJTjEbMBkGA1UEAxQSMTI4X1BBVE5B
Q0Ffc2VydmVyMSYwJAYJKoZIhvcNAQkBFhcxMjhfUEFUTkFDQUB0ZXN0X2NhLmNv
bTEPMA0GA1UEChMGQ0lUUklYMIIBIjANBgkqhkiG9w0BAQEFAAOCAQ8AMIIBCgKC
AQEA3gGVKEiObdyit3bhhUcu2LSDyGGjMsQQNfqHOh+u0HJnTt8Vg7tjj9dmOYZA
Kz49GKPxR6XIFGQAORtu4bpex1EcKMCI+7xJPnfGwCCH3YrW1OskB/p6VnNd21mm
CpMSldh+LvVAwIIRs4KCBeECFlgb2ycOVUyjXWLOZw7mu5I8PLBneq95SnSCTDb8
0yWiBjq8dPHuPx4YSgqURrg5VGhTQJEm+Jp3v5r7Stz54rD2My3ZKd1Y2+HL+ztB
2bJOeTVzXb8NZONfHyl3IiDDHmczw17wBMHCPN1xLYoIpdiDFACKW2kOjCVo52NH
kM7mWSzTmQFAQq/vQc2Gl5wEPwIDAQABo4IBIzCCAR8wEQYJYIZIAYb4QgEBBAQD
AgZAMB0GA1UdDgQWBBTAk+PwhOf41ihLFpKCmm0DeuMTnzCBrAYDVR0jBIGkMIGh
gBT/38SNr2Th4xf6lu7xdaftp8ORuKF+pHwwejETMBEGA1UEAxQKUEFUTkFDQV9D
QTELMAkGA1UEBhMCSU4xDzANBgNVBAoTBkNJVFJJWDEMMAoGA1UECxMDQU5HMQsw
CQYDVQQIEwJLQTEqMCgGCSqGSIb3DQEJARYbUEFUTkFDQV9DQUBQQVROQUNBX21h
aWwuY29tggkAny4VdvC9wW8wPAYIKwYBBQUHAQEEMDAuMCwGCCsGAQUFBzABhiBo
dHRwOi8vMTcyLjI2LjEwLjEvcmVzcG9uZGVycGF0aDANBgkqhkiG9w0BAQsFAAOC
AQEAp26x4BqiXh1NNfegKiZcjb5KwosaBsqNXyB+ZoeTVysqdlhZBwJCr78/45eP
MHL5eWXGwjomb7Lk7cxW39gu25b+5R2fBsTCyRzxEWtXcpjzgW+viBhQTR6GTaAV
fnfyfaaIH4bIWmGXTPkDtxuqiUgA3pWi22s1RNC0dWw0kAx4XRB0F43IHMiVlUlC
AYh8wUxZ45mNRGuauQ3VU9+DNMmrNN20+bWAfbm2B6poZY2xuEzYQmFNvbykVgsZ
YDIm43EXaJG5V0UdQmig2h7m4ELGKjo+Gy9x1H6x3sDC6HRjJH64P8OYL4xovFDK
R8vS9x68eNKG3QizAn8/NKBRWQ==
-----END CERTIFICATE-----
