Certificate:
    Data:
        Version: 3 (0x2)
        Serial Number: 11042563100207 (0xa0b0c0d0e2f)
    Signature Algorithm: sha256WithRSAEncryption
        Issuer: CN=PATNACA_CA, C=IN, O=CITRIX, OU=ANG, ST=KA/emailAddress=PATNACA_CA@PATNACA_mail.com
        Validity
            Not Before: Jul  8 04:38:29 2016 GMT
            Not After : Jul  6 04:38:29 2026 GMT
        Subject: ST=KA, C=IN, CN=133_PATNACA_server/emailAddress=133_PATNACA@test_ca.com, O=CITRIX
        Subject Public Key Info:
            Public Key Algorithm: rsaEncryption
                Public-Key: (2048 bit)
                Modulus:
                    00:c2:63:7b:62:9f:76:d8:44:3a:5a:e5:6f:c0:7e:
                    d2:40:66:1c:be:e3:ea:bf:52:72:d9:24:df:9a:be:
                    5c:c5:e4:a2:8a:cd:6a:d4:9e:63:26:b1:e9:24:10:
                    9c:a8:aa:b9:3f:2f:f7:d6:7f:54:5f:57:69:db:11:
                    0b:1a:f5:bc:53:00:08:d9:22:2f:17:ee:6d:53:95:
                    3e:47:e8:21:d4:75:75:b9:f0:42:45:fc:7f:8b:9e:
                    74:40:91:20:ec:ef:55:90:8e:8a:94:6a:57:56:97:
                    c5:b1:22:22:f3:7a:3c:4b:a4:f3:79:2d:c2:6f:41:
                    6f:ca:26:27:93:3b:7a:de:4d:46:cc:bd:f1:3e:d5:
                    fa:3b:43:2a:41:7d:2e:52:7f:41:3d:52:4e:5a:3f:
                    55:ec:af:36:0e:33:6e:14:92:50:f1:ab:93:92:e0:
                    9a:fe:77:dc:7d:6f:99:51:3c:e0:d4:87:28:50:f3:
                    11:ba:56:68:50:86:68:63:c3:1c:63:af:0d:d0:bb:
                    70:7f:77:4b:16:44:82:11:c1:14:62:3a:ed:fa:91:
                    d0:3e:81:91:5b:a8:63:1d:bc:09:6a:e5:03:35:65:
                    87:a7:dd:df:bd:23:cc:cd:51:a3:8a:67:1b:e4:08:
                    da:12:f6:68:d9:16:2d:81:d6:c9:6f:f4:df:e2:08:
                    3b:41
                Exponent: 65537 (0x10001)
        X509v3 extensions:
            Netscape Cert Type: 
                SSL Server
            X509v3 Subject Key Identifier: 
                05:03:E9:CF:85:FC:10:52:DF:D3:44:1E:A4:FA:3E:98:53:57:64:73
            X509v3 Authority Key Identifier: 
                keyid:FF:DF:C4:8D:AF:64:E1:E3:17:FA:96:EE:F1:75:A7:ED:A7:C3:91:B8
                DirName:/CN=PATNACA_CA/C=IN/O=CITRIX/OU=ANG/ST=KA/emailAddress=PATNACA_CA@PATNACA_mail.com
                serial:9F:2E:15:76:F0:BD:C1:6F

            Authority Information Access: 
                OCSP - URI:http://172.26.20.1/responderpath

    Signature Algorithm: sha256WithRSAEncryption
         25:8a:02:01:e1:54:c9:5b:4b:15:4f:bd:3b:02:5d:d3:d1:75:
         bb:4b:83:68:16:b4:79:72:b7:24:dd:95:d0:6b:ca:73:04:0d:
         63:1d:ad:00:76:f9:55:b6:53:8d:1d:ec:6e:3d:c6:4a:cf:f6:
         ec:e8:bc:d8:c9:0b:5b:dd:ba:cf:cc:c5:6c:3d:c7:d2:98:19:
         87:64:0a:a7:c8:ac:c1:ce:ac:0d:96:f6:03:20:37:e9:0e:a7:
         2b:12:c9:b6:62:54:98:7d:16:9b:0a:9a:08:84:6f:b5:2d:96:
         93:b5:ce:6f:74:f3:ca:b7:9f:b4:cf:20:7a:8d:c5:b9:53:f1:
         3f:17:f6:76:a3:50:14:6e:57:f4:74:cd:8a:5f:97:e0:22:1b:
         8e:51:bd:65:b2:79:7c:09:0d:67:3a:5a:ed:c9:2f:9e:6a:8a:
         a7:1d:6d:f0:1f:6b:90:ba:50:7b:e8:a8:8b:99:11:5a:1c:52:
         16:f4:26:4f:44:ce:2b:96:e3:6d:da:c7:54:1f:28:13:bd:6e:
         db:a8:c8:7b:9d:b9:2e:71:fa:87:5c:c4:95:f4:ae:d1:f3:34:
         b7:a8:33:a9:9b:b3:24:eb:aa:4a:d0:85:da:da:c7:9f:49:5f:
         7b:37:0e:7f:20:f6:7a:ac:52:37:88:d6:9a:10:01:24:b2:87:
         38:a2:97:1f
-----BEGIN CERTIFICATE-----
MIIEjzCCA3egAwIBAgIGCgsMDQ4vMA0GCSqGSIb3DQEBCwUAMHoxEzARBgNVBAMU
ClBBVE5BQ0FfQ0ExCzAJBgNVBAYTAklOMQ8wDQYDVQQKEwZDSVRSSVgxDDAKBgNV
BAsTA0FORzELMAkGA1UECBMCS0ExKjAoBgkqhkiG9w0BCQEWG1BBVE5BQ0FfQ0FA
UEFUTkFDQV9tYWlsLmNvbTAeFw0xNjA3MDgwNDM4MjlaFw0yNjA3MDYwNDM4Mjla
MHAxCzAJBgNVBAgTAktBMQswCQYDVQQGEwJJTjEbMBkGA1UEAxQSMTMzX1BBVE5B
Q0Ffc2VydmVyMSYwJAYJKoZIhvcNAQkBFhcxMzNfUEFUTkFDQUB0ZXN0X2NhLmNv
bTEPMA0GA1UEChMGQ0lUUklYMIIBIjANBgkqhkiG9w0BAQEFAAOCAQ8AMIIBCgKC
AQEAwmN7Yp922EQ6WuVvwH7SQGYcvuPqv1Jy2STfmr5cxeSiis1q1J5jJrHpJBCc
qKq5Py/31n9UX1dp2xELGvW8UwAI2SIvF+5tU5U+R+gh1HV1ufBCRfx/i550QJEg
7O9VkI6KlGpXVpfFsSIi83o8S6TzeS3Cb0FvyiYnkzt63k1GzL3xPtX6O0MqQX0u
Un9BPVJOWj9V7K82DjNuFJJQ8auTkuCa/nfcfW+ZUTzg1IcoUPMRulZoUIZoY8Mc
Y68N0Ltwf3dLFkSCEcEUYjrt+pHQPoGRW6hjHbwJauUDNWWHp93fvSPMzVGjimcb
5AjaEvZo2RYtgdbJb/Tf4gg7QQIDAQABo4IBIzCCAR8wEQYJYIZIAYb4QgEBBAQD
AgZAMB0GA1UdDgQWBBQFA+nPhfwQUt/TRB6k+j6YU1dkczCBrAYDVR0jBIGkMIGh
gBT/38SNr2Th4xf6lu7xdaftp8ORuKF+pHwwejETMBEGA1UEAxQKUEFUTkFDQV9D
QTELMAkGA1UEBhMCSU4xDzANBgNVBAoTBkNJVFJJWDEMMAoGA1UECxMDQU5HMQsw
CQYDVQQIEwJLQTEqMCgGCSqGSIb3DQEJARYbUEFUTkFDQV9DQUBQQVROQUNBX21h
aWwuY29tggkAny4VdvC9wW8wPAYIKwYBBQUHAQEEMDAuMCwGCCsGAQUFBzABhiBo
dHRwOi8vMTcyLjI2LjIwLjEvcmVzcG9uZGVycGF0aDANBgkqhkiG9w0BAQsFAAOC
AQEAJYoCAeFUyVtLFU+9OwJd09F1u0uDaBa0eXK3JN2V0GvKcwQNYx2tAHb5VbZT
jR3sbj3GSs/27Oi82MkLW926z8zFbD3H0pgZh2QKp8iswc6sDZb2AyA36Q6nKxLJ
tmJUmH0WmwqaCIRvtS2Wk7XOb3TzyreftM8geo3FuVPxPxf2dqNQFG5X9HTNil+X
4CIbjlG9ZbJ5fAkNZzpa7ckvnmqKpx1t8B9rkLpQe+ioi5kRWhxSFvQmT0TOK5bj
bdrHVB8oE71u26jIe525LnH6h1zElfSu0fM0t6gzqZuzJOuqStCF2trHn0lfezcO
fyD2eqxSN4jWmhABJLKHOKKXHw==
-----END CERTIFICATE-----
