Certificate:
    Data:
        Version: 3 (0x2)
        Serial Number: 11042563100209 (0xa0b0c0d0e31)
    Signature Algorithm: sha256WithRSAEncryption
        Issuer: CN=PATNACA_CA, C=IN, O=CITRIX, OU=ANG, ST=KA/emailAddress=PATNACA_CA@PATNACA_mail.com
        Validity
            Not Before: Jul  8 04:38:30 2016 GMT
            Not After : Jul  6 04:38:30 2026 GMT
        Subject: ST=KA, C=IN, CN=135_PATNACA_server/emailAddress=135_PATNACA@test_ca.com, O=CITRIX
        Subject Public Key Info:
            Public Key Algorithm: rsaEncryption
                Public-Key: (2048 bit)
                Modulus:
                    00:b2:c6:ff:25:31:af:27:73:45:92:53:9b:eb:ff:
                    6e:1e:7b:40:08:54:09:87:65:46:16:cc:f8:38:7c:
                    90:48:7a:ee:04:d1:4e:27:1b:c8:12:b7:2b:72:2a:
                    0d:c2:e9:20:e4:39:6b:e9:fe:d1:6e:ba:89:dd:80:
                    04:fe:86:6e:83:2c:a8:a2:ab:b4:f1:58:2c:dd:a8:
                    bc:4d:87:fb:99:ea:29:d3:43:10:9d:a0:1f:a7:3c:
                    be:e0:75:53:b9:79:8b:7f:2d:85:f9:5e:24:84:8d:
                    5a:79:10:7e:cf:05:88:57:bb:21:82:67:31:a2:80:
                    f7:ea:5c:c3:56:5a:dd:1e:92:41:3a:43:10:c2:b0:
                    06:c5:b5:f3:80:a9:a2:e8:79:25:e4:08:18:ba:31:
                    9d:ae:4f:4c:b7:96:01:14:39:90:ea:c5:2e:fd:ca:
                    e8:45:88:62:ba:14:b1:d5:2c:a6:59:bb:61:f9:9e:
                    3a:22:b9:e5:f7:28:27:bf:cb:7d:6a:28:65:17:8f:
                    aa:14:fb:62:2e:f8:4f:a8:54:a8:3d:98:e1:5c:7a:
                    2e:b8:e7:ab:8b:e7:11:94:5c:9b:29:bd:a9:a9:1a:
                    ee:4e:c3:65:48:f9:f5:3f:65:01:5c:e1:dd:72:5d:
                    4e:9c:27:c3:3f:5d:3a:ac:f9:0d:bb:d4:2f:25:7c:
                    d2:6b
                Exponent: 65537 (0x10001)
        X509v3 extensions:
            Netscape Cert Type: 
                SSL Server
            X509v3 Subject Key Identifier: 
                B6:C0:C2:EE:2F:4D:16:DA:9B:12:47:FE:A3:10:4D:E5:1C:0E:B6:DC
            X509v3 Authority Key Identifier: 
                keyid:FF:DF:C4:8D:AF:64:E1:E3:17:FA:96:EE:F1:75:A7:ED:A7:C3:91:B8
                DirName:/CN=PATNACA_CA/C=IN/O=CITRIX/OU=ANG/ST=KA/emailAddress=PATNACA_CA@PATNACA_mail.com
                serial:9F:2E:15:76:F0:BD:C1:6F

            Authority Information Access: 
                OCSP - URI:http://172.26.20.1/responderpath

    Signature Algorithm: sha256WithRSAEncryption
         a5:ec:a6:e5:6c:02:9b:cc:42:80:e8:79:f8:eb:4e:72:86:6c:
         d8:2f:a3:65:9f:c8:76:83:22:db:14:05:90:dc:ac:ea:23:6e:
         97:cf:01:97:08:d6:9d:18:aa:25:a8:d4:da:56:16:66:3e:d3:
         8f:28:86:a5:5a:7a:3b:8a:7d:ad:17:36:56:14:7a:84:8e:f2:
         e2:df:63:f8:f5:7c:d9:31:c0:8c:03:6a:2e:b7:37:52:86:67:
         94:3a:18:94:d3:f4:ea:99:4a:39:67:60:cb:0b:ab:cd:b8:f3:
         d2:b6:69:e9:55:bc:f5:42:78:30:a2:da:92:d3:a1:f0:e2:5a:
         f5:c5:fe:4b:7b:3d:fc:ae:88:7b:dc:78:c2:1e:df:80:45:91:
         1d:85:9a:36:d1:10:a3:1b:2d:d1:28:88:c9:f4:52:1b:cd:e3:
         35:4f:95:dc:48:55:95:03:af:81:48:db:3c:c0:84:a8:cf:2e:
         7c:0c:b7:1b:c0:a7:5d:72:87:09:ff:ae:d0:3d:cd:48:d3:97:
         a6:0c:f3:94:e3:eb:57:d5:4c:d4:3a:f2:73:0a:bf:1f:b6:c4:
         9d:16:4f:8d:a6:97:03:1a:bd:ad:87:ef:e4:c3:00:38:4a:cf:
         b4:6d:df:a7:d2:cf:fe:03:6a:8e:63:56:4c:8d:e3:6b:a1:da:
         5c:01:69:0e
-----BEGIN CERTIFICATE-----
MIIEjzCCA3egAwIBAgIGCgsMDQ4xMA0GCSqGSIb3DQEBCwUAMHoxEzARBgNVBAMU
ClBBVE5BQ0FfQ0ExCzAJBgNVBAYTAklOMQ8wDQYDVQQKEwZDSVRSSVgxDDAKBgNV
BAsTA0FORzELMAkGA1UECBMCS0ExKjAoBgkqhkiG9w0BCQEWG1BBVE5BQ0FfQ0FA
UEFUTkFDQV9tYWlsLmNvbTAeFw0xNjA3MDgwNDM4MzBaFw0yNjA3MDYwNDM4MzBa
MHAxCzAJBgNVBAgTAktBMQswCQYDVQQGEwJJTjEbMBkGA1UEAxQSMTM1X1BBVE5B
Q0Ffc2VydmVyMSYwJAYJKoZIhvcNAQkBFhcxMzVfUEFUTkFDQUB0ZXN0X2NhLmNv
bTEPMA0GA1UEChMGQ0lUUklYMIIBIjANBgkqhkiG9w0BAQEFAAOCAQ8AMIIBCgKC
AQEAssb/JTGvJ3NFklOb6/9uHntACFQJh2VGFsz4OHyQSHruBNFOJxvIErcrcioN
wukg5Dlr6f7RbrqJ3YAE/oZugyyooqu08Vgs3ai8TYf7meop00MQnaAfpzy+4HVT
uXmLfy2F+V4khI1aeRB+zwWIV7shgmcxooD36lzDVlrdHpJBOkMQwrAGxbXzgKmi
6Hkl5AgYujGdrk9Mt5YBFDmQ6sUu/croRYhiuhSx1SymWbth+Z46Irnl9ygnv8t9
aihlF4+qFPtiLvhPqFSoPZjhXHouuOeri+cRlFybKb2pqRruTsNlSPn1P2UBXOHd
cl1OnCfDP106rPkNu9QvJXzSawIDAQABo4IBIzCCAR8wEQYJYIZIAYb4QgEBBAQD
AgZAMB0GA1UdDgQWBBS2wMLuL00W2psSR/6jEE3lHA623DCBrAYDVR0jBIGkMIGh
gBT/38SNr2Th4xf6lu7xdaftp8ORuKF+pHwwejETMBEGA1UEAxQKUEFUTkFDQV9D
QTELMAkGA1UEBhMCSU4xDzANBgNVBAoTBkNJVFJJWDEMMAoGA1UECxMDQU5HMQsw
CQYDVQQIEwJLQTEqMCgGCSqGSIb3DQEJARYbUEFUTkFDQV9DQUBQQVROQUNBX21h
aWwuY29tggkAny4VdvC9wW8wPAYIKwYBBQUHAQEEMDAuMCwGCCsGAQUFBzABhiBo
dHRwOi8vMTcyLjI2LjIwLjEvcmVzcG9uZGVycGF0aDANBgkqhkiG9w0BAQsFAAOC
AQEApeym5WwCm8xCgOh5+OtOcoZs2C+jZZ/IdoMi2xQFkNys6iNul88BlwjWnRiq
JajU2lYWZj7TjyiGpVp6O4p9rRc2VhR6hI7y4t9j+PV82THAjANqLrc3UoZnlDoY
lNP06plKOWdgywurzbjz0rZp6VW89UJ4MKLaktOh8OJa9cX+S3s9/K6Ie9x4wh7f
gEWRHYWaNtEQoxst0SiIyfRSG83jNU+V3EhVlQOvgUjbPMCEqM8ufAy3G8CnXXKH
Cf+u0D3NSNOXpgzzlOPrV9VM1Drycwq/H7bEnRZPjaaXAxq9rYfv5MMAOErPtG3f
p9LP/gNqjmNWTI3ja6HaXAFpDg==
-----END CERTIFICATE-----
