Certificate:
    Data:
        Version: 3 (0x2)
        Serial Number: 11042563100210 (0xa0b0c0d0e32)
    Signature Algorithm: sha256WithRSAEncryption
        Issuer: CN=PATNACA_CA, C=IN, O=CITRIX, OU=ANG, ST=KA/emailAddress=PATNACA_CA@PATNACA_mail.com
        Validity
            Not Before: Jul  8 04:38:30 2016 GMT
            Not After : Jul  6 04:38:30 2026 GMT
        Subject: ST=KA, C=IN, CN=136_PATNACA_server/emailAddress=136_PATNACA@test_ca.com, O=CITRIX
        Subject Public Key Info:
            Public Key Algorithm: rsaEncryption
                Public-Key: (2048 bit)
                Modulus:
                    00:e9:9d:6e:99:00:c1:3f:86:a3:dd:69:9b:6f:33:
                    95:2c:17:2f:fc:dc:27:10:45:e2:03:d0:78:8d:3c:
                    35:c3:67:8d:f7:e9:95:0a:bf:7a:8d:a9:58:50:9c:
                    4e:e9:ab:fc:98:7c:c5:0a:56:90:b1:0b:25:c8:65:
                    24:14:c2:f3:a9:cb:ab:0d:0d:06:d7:27:37:88:5c:
                    45:cc:85:a3:d8:10:4f:de:68:14:95:2a:68:0d:19:
                    6b:72:32:b2:ea:fc:cd:8d:58:67:23:ce:9f:2a:75:
                    7b:37:f1:83:93:42:41:41:3d:b4:32:ed:a4:e5:63:
                    81:6a:d0:39:30:f1:f4:b0:b1:36:ad:d9:89:31:b8:
                    c1:51:34:3b:a5:c4:35:51:fd:d0:99:4e:bb:05:08:
                    49:53:91:9b:07:3a:ac:f2:b4:35:bd:73:07:e8:25:
                    95:85:25:fd:be:b1:cc:7a:0b:6d:f0:ff:ff:50:b4:
                    4f:fc:2a:ae:a2:07:cb:c3:ba:0a:8c:ea:02:a5:05:
                    26:af:8f:ed:b3:63:75:3f:0e:d5:84:48:9f:0c:e1:
                    2e:43:78:17:69:7c:3b:14:f2:99:88:7c:e1:3c:c6:
                    eb:3d:30:3c:ec:f3:17:9c:4a:7a:50:76:7d:2c:a8:
                    b1:78:c7:d3:0d:b4:9e:79:fc:41:c6:61:1c:96:91:
                    0d:8f
                Exponent: 65537 (0x10001)
        X509v3 extensions:
            Netscape Cert Type: 
                SSL Server
            X509v3 Subject Key Identifier: 
                EC:52:82:CC:44:47:20:42:70:25:10:25:B7:4A:FF:E8:0A:8C:C5:7F
            X509v3 Authority Key Identifier: 
                keyid:FF:DF:C4:8D:AF:64:E1:E3:17:FA:96:EE:F1:75:A7:ED:A7:C3:91:B8
                DirName:/CN=PATNACA_CA/C=IN/O=CITRIX/OU=ANG/ST=KA/emailAddress=PATNACA_CA@PATNACA_mail.com
                serial:9F:2E:15:76:F0:BD:C1:6F

            Authority Information Access: 
                OCSP - URI:http://172.26.20.1/responderpath

    Signature Algorithm: sha256WithRSAEncryption
         84:eb:76:a2:ea:4d:05:70:8c:08:b2:bb:02:f7:b9:be:0c:75:
         c7:92:9b:39:41:c5:d4:52:07:c8:a3:7a:6f:0b:31:0b:af:a7:
         d6:78:51:f3:d9:2b:67:10:33:0b:66:de:55:b7:b5:01:57:59:
         25:70:58:ec:66:94:87:f1:a3:18:67:47:8e:f7:13:b4:42:d6:
         5c:5a:d4:dd:20:22:b6:14:53:53:5f:25:67:1d:11:59:20:6d:
         a3:54:06:b6:99:7b:fd:af:6e:94:a9:ba:72:9c:17:71:1c:8b:
         0f:39:00:22:8a:40:85:43:27:c8:af:10:da:f6:1f:86:58:f7:
         68:a4:90:9f:85:e6:bc:a6:1c:aa:fd:1b:12:73:bc:67:fc:81:
         ad:75:a4:7a:1b:98:ea:65:e3:c8:1b:57:e0:8e:1c:33:35:e0:
         62:24:4b:93:99:aa:8c:5d:c6:89:5b:a7:f5:d7:2f:71:ac:54:
         71:bc:fd:be:02:ab:26:75:52:d4:19:02:4d:28:1c:2e:bc:6c:
         5d:d1:48:23:d5:56:86:86:fd:65:99:f5:a4:40:94:d9:e8:67:
         b0:1c:90:19:74:1a:ac:a6:3b:03:d9:80:f5:ef:8e:95:5c:25:
         8e:a2:50:f8:c0:b9:4c:99:f5:e6:42:77:29:71:7c:a1:05:0d:
         3c:00:37:18
-----BEGIN CERTIFICATE-----
MIIEjzCCA3egAwIBAgIGCgsMDQ4yMA0GCSqGSIb3DQEBCwUAMHoxEzARBgNVBAMU
ClBBVE5BQ0FfQ0ExCzAJBgNVBAYTAklOMQ8wDQYDVQQKEwZDSVRSSVgxDDAKBgNV
BAsTA0FORzELMAkGA1UECBMCS0ExKjAoBgkqhkiG9w0BCQEWG1BBVE5BQ0FfQ0FA
UEFUTkFDQV9tYWlsLmNvbTAeFw0xNjA3MDgwNDM4MzBaFw0yNjA3MDYwNDM4MzBa
MHAxCzAJBgNVBAgTAktBMQswCQYDVQQGEwJJTjEbMBkGA1UEAxQSMTM2X1BBVE5B
Q0Ffc2VydmVyMSYwJAYJKoZIhvcNAQkBFhcxMzZfUEFUTkFDQUB0ZXN0X2NhLmNv
bTEPMA0GA1UEChMGQ0lUUklYMIIBIjANBgkqhkiG9w0BAQEFAAOCAQ8AMIIBCgKC
AQEA6Z1umQDBP4aj3WmbbzOVLBcv/NwnEEXiA9B4jTw1w2eN9+mVCr96jalYUJxO
6av8mHzFClaQsQslyGUkFMLzqcurDQ0G1yc3iFxFzIWj2BBP3mgUlSpoDRlrcjKy
6vzNjVhnI86fKnV7N/GDk0JBQT20Mu2k5WOBatA5MPH0sLE2rdmJMbjBUTQ7pcQ1
Uf3QmU67BQhJU5GbBzqs8rQ1vXMH6CWVhSX9vrHMegtt8P//ULRP/CquogfLw7oK
jOoCpQUmr4/ts2N1Pw7VhEifDOEuQ3gXaXw7FPKZiHzhPMbrPTA87PMXnEp6UHZ9
LKixeMfTDbSeefxBxmEclpENjwIDAQABo4IBIzCCAR8wEQYJYIZIAYb4QgEBBAQD
AgZAMB0GA1UdDgQWBBTsUoLMREcgQnAlECW3Sv/oCozFfzCBrAYDVR0jBIGkMIGh
gBT/38SNr2Th4xf6lu7xdaftp8ORuKF+pHwwejETMBEGA1UEAxQKUEFUTkFDQV9D
QTELMAkGA1UEBhMCSU4xDzANBgNVBAoTBkNJVFJJWDEMMAoGA1UECxMDQU5HMQsw
CQYDVQQIEwJLQTEqMCgGCSqGSIb3DQEJARYbUEFUTkFDQV9DQUBQQVROQUNBX21h
aWwuY29tggkAny4VdvC9wW8wPAYIKwYBBQUHAQEEMDAuMCwGCCsGAQUFBzABhiBo
dHRwOi8vMTcyLjI2LjIwLjEvcmVzcG9uZGVycGF0aDANBgkqhkiG9w0BAQsFAAOC
AQEAhOt2oupNBXCMCLK7Ave5vgx1x5KbOUHF1FIHyKN6bwsxC6+n1nhR89krZxAz
C2beVbe1AVdZJXBY7GaUh/GjGGdHjvcTtELWXFrU3SAithRTU18lZx0RWSBto1QG
tpl7/a9ulKm6cpwXcRyLDzkAIopAhUMnyK8Q2vYfhlj3aKSQn4XmvKYcqv0bEnO8
Z/yBrXWkehuY6mXjyBtX4I4cMzXgYiRLk5mqjF3GiVun9dcvcaxUcbz9vgKrJnVS
1BkCTSgcLrxsXdFII9VWhob9ZZn1pECU2ehnsByQGXQarKY7A9mA9e+OlVwljqJQ
+MC5TJn15kJ3KXF8oQUNPAA3GA==
-----END CERTIFICATE-----
