Certificate:
    Data:
        Version: 3 (0x2)
        Serial Number: 11042563100211 (0xa0b0c0d0e33)
    Signature Algorithm: sha256WithRSAEncryption
        Issuer: CN=PATNACA_CA, C=IN, O=CITRIX, OU=ANG, ST=KA/emailAddress=PATNACA_CA@PATNACA_mail.com
        Validity
            Not Before: Jul  8 04:38:30 2016 GMT
            Not After : Jul  6 04:38:30 2026 GMT
        Subject: ST=KA, C=IN, CN=137_PATNACA_server/emailAddress=137_PATNACA@test_ca.com, O=CITRIX
        Subject Public Key Info:
            Public Key Algorithm: rsaEncryption
                Public-Key: (2048 bit)
                Modulus:
                    00:cc:97:46:91:88:df:e2:45:6b:ed:0a:f2:12:4f:
                    78:ed:6c:96:e6:73:12:2f:9e:50:7c:26:f6:96:81:
                    5e:e5:cd:c8:53:4e:ed:38:71:c1:6d:a0:2a:dd:f2:
                    e4:5d:a6:82:be:e6:e4:82:e1:27:1d:63:a6:a6:32:
                    1d:a8:8e:31:e1:9f:a6:72:3b:77:b4:b2:17:e2:83:
                    a8:aa:03:60:72:6d:08:cc:70:44:8a:77:e9:e3:c3:
                    7f:e0:13:38:3a:47:35:82:45:97:be:da:80:6a:77:
                    0b:60:8c:77:bc:45:c7:ea:e0:37:10:50:4c:7d:71:
                    40:01:91:24:8a:83:23:8d:77:9d:ad:1a:e9:af:d9:
                    23:9f:c1:e2:34:9d:7e:19:3b:21:ed:73:e4:01:1b:
                    a5:f1:68:06:e0:96:96:96:44:3f:bd:ca:13:62:9e:
                    43:35:71:91:d9:85:0a:c0:b7:0e:a5:46:ca:7e:56:
                    0f:c7:f5:9f:f9:a0:c2:11:05:d6:7c:db:93:90:55:
                    5d:07:22:1c:3c:4f:ac:9e:48:db:53:c0:88:8c:d9:
                    f0:6a:45:f4:3c:7b:41:09:f3:77:cc:5b:36:9c:8a:
                    ee:a7:d3:1d:e9:1a:fc:af:21:80:a2:64:0d:5b:be:
                    21:d3:2a:e3:f2:a3:e4:b8:ea:55:33:15:cb:d4:04:
                    0a:e9
                Exponent: 65537 (0x10001)
        X509v3 extensions:
            Netscape Cert Type: 
                SSL Server
            X509v3 Subject Key Identifier: 
                B8:73:2E:8C:89:37:B3:BF:AC:2A:99:A9:73:94:C2:5B:8E:D4:B2:DB
            X509v3 Authority Key Identifier: 
                keyid:FF:DF:C4:8D:AF:64:E1:E3:17:FA:96:EE:F1:75:A7:ED:A7:C3:91:B8
                DirName:/CN=PATNACA_CA/C=IN/O=CITRIX/OU=ANG/ST=KA/emailAddress=PATNACA_CA@PATNACA_mail.com
                serial:9F:2E:15:76:F0:BD:C1:6F

            Authority Information Access: 
                OCSP - URI:http://172.26.20.1/responderpath

    Signature Algorithm: sha256WithRSAEncryption
         45:3f:b9:8b:de:32:66:5f:84:20:7d:f3:f0:70:56:20:60:c7:
         a9:9a:6e:d1:4e:6a:6a:8f:d9:98:b3:ee:f3:53:49:b7:7d:b6:
         a7:d9:a4:4b:1f:42:9f:49:95:b0:88:99:f1:2b:2c:65:3c:5e:
         15:fa:cd:ac:1b:16:09:d0:7a:7f:ca:a9:71:d5:03:ca:0c:99:
         c9:f5:c4:cd:99:cf:5f:e6:9a:c5:e2:50:d5:50:8e:5b:9c:21:
         9f:54:53:2e:30:b1:2e:17:62:ef:08:fe:18:57:1e:b9:56:4d:
         44:dc:32:37:f0:66:00:e4:5f:1e:61:0c:39:42:95:28:58:5a:
         bd:ba:7e:4f:ab:ad:09:81:0c:87:12:8a:5a:41:97:aa:fb:19:
         39:cb:ac:3f:d3:75:8f:d9:69:eb:2e:88:f0:06:fa:94:12:fe:
         3e:43:ba:dd:a7:97:56:19:c3:79:5f:3d:1e:75:c2:e8:35:11:
         3f:87:a6:36:70:e9:36:a2:7f:65:16:b1:54:1f:a0:6e:5e:e5:
         94:1b:91:1f:1c:5b:79:c7:ee:d8:69:30:63:cd:02:e1:59:f2:
         e7:28:c9:95:b8:95:4a:b4:71:94:13:aa:2e:44:a3:9b:fa:a7:
         a6:2f:e8:67:49:be:e9:48:5c:ec:e3:f5:7b:bd:4a:f0:02:ca:
         e0:87:cc:67
-----BEGIN CERTIFICATE-----
MIIEjzCCA3egAwIBAgIGCgsMDQ4zMA0GCSqGSIb3DQEBCwUAMHoxEzARBgNVBAMU
ClBBVE5BQ0FfQ0ExCzAJBgNVBAYTAklOMQ8wDQYDVQQKEwZDSVRSSVgxDDAKBgNV
BAsTA0FORzELMAkGA1UECBMCS0ExKjAoBgkqhkiG9w0BCQEWG1BBVE5BQ0FfQ0FA
UEFUTkFDQV9tYWlsLmNvbTAeFw0xNjA3MDgwNDM4MzBaFw0yNjA3MDYwNDM4MzBa
MHAxCzAJBgNVBAgTAktBMQswCQYDVQQGEwJJTjEbMBkGA1UEAxQSMTM3X1BBVE5B
Q0Ffc2VydmVyMSYwJAYJKoZIhvcNAQkBFhcxMzdfUEFUTkFDQUB0ZXN0X2NhLmNv
bTEPMA0GA1UEChMGQ0lUUklYMIIBIjANBgkqhkiG9w0BAQEFAAOCAQ8AMIIBCgKC
AQEAzJdGkYjf4kVr7QryEk947WyW5nMSL55QfCb2loFe5c3IU07tOHHBbaAq3fLk
XaaCvubkguEnHWOmpjIdqI4x4Z+mcjt3tLIX4oOoqgNgcm0IzHBEinfp48N/4BM4
Okc1gkWXvtqAancLYIx3vEXH6uA3EFBMfXFAAZEkioMjjXedrRrpr9kjn8HiNJ1+
GTsh7XPkARul8WgG4JaWlkQ/vcoTYp5DNXGR2YUKwLcOpUbKflYPx/Wf+aDCEQXW
fNuTkFVdByIcPE+snkjbU8CIjNnwakX0PHtBCfN3zFs2nIrup9Md6Rr8ryGAomQN
W74h0yrj8qPkuOpVMxXL1AQK6QIDAQABo4IBIzCCAR8wEQYJYIZIAYb4QgEBBAQD
AgZAMB0GA1UdDgQWBBS4cy6MiTezv6wqmalzlMJbjtSy2zCBrAYDVR0jBIGkMIGh
gBT/38SNr2Th4xf6lu7xdaftp8ORuKF+pHwwejETMBEGA1UEAxQKUEFUTkFDQV9D
QTELMAkGA1UEBhMCSU4xDzANBgNVBAoTBkNJVFJJWDEMMAoGA1UECxMDQU5HMQsw
CQYDVQQIEwJLQTEqMCgGCSqGSIb3DQEJARYbUEFUTkFDQV9DQUBQQVROQUNBX21h
aWwuY29tggkAny4VdvC9wW8wPAYIKwYBBQUHAQEEMDAuMCwGCCsGAQUFBzABhiBo
dHRwOi8vMTcyLjI2LjIwLjEvcmVzcG9uZGVycGF0aDANBgkqhkiG9w0BAQsFAAOC
AQEART+5i94yZl+EIH3z8HBWIGDHqZpu0U5qao/ZmLPu81NJt322p9mkSx9Cn0mV
sIiZ8SssZTxeFfrNrBsWCdB6f8qpcdUDygyZyfXEzZnPX+aaxeJQ1VCOW5whn1RT
LjCxLhdi7wj+GFceuVZNRNwyN/BmAORfHmEMOUKVKFhavbp+T6utCYEMhxKKWkGX
qvsZOcusP9N1j9lp6y6I8Ab6lBL+PkO63aeXVhnDeV89HnXC6DURP4emNnDpNqJ/
ZRaxVB+gbl7llBuRHxxbecfu2GkwY80C4Vny5yjJlbiVSrRxlBOqLkSjm/qnpi/o
Z0m+6Uhc7OP1e71K8ALK4IfMZw==
-----END CERTIFICATE-----
