Certificate:
    Data:
        Version: 3 (0x2)
        Serial Number: 11042563100214 (0xa0b0c0d0e36)
    Signature Algorithm: sha256WithRSAEncryption
        Issuer: CN=PATNACA_CA, C=IN, O=CITRIX, OU=ANG, ST=KA/emailAddress=PATNACA_CA@PATNACA_mail.com
        Validity
            Not Before: Jul  8 04:38:31 2016 GMT
            Not After : Jul  6 04:38:31 2026 GMT
        Subject: ST=KA, C=IN, CN=140_PATNACA_server/emailAddress=140_PATNACA@test_ca.com, O=CITRIX
        Subject Public Key Info:
            Public Key Algorithm: rsaEncryption
                Public-Key: (2048 bit)
                Modulus:
                    00:e9:3a:89:81:0b:b9:bb:ef:b0:94:56:c9:d6:3c:
                    44:d1:9b:81:0b:d6:15:36:a6:a6:b6:d4:93:d8:ba:
                    d0:e3:bd:98:50:9e:fd:b4:9b:a4:43:cf:cb:ed:91:
                    1b:33:d4:de:ae:41:e7:64:6c:34:85:d0:82:1e:37:
                    fb:f9:89:5d:a5:e5:be:bc:a1:14:14:61:3e:77:e5:
                    4a:4c:e2:29:fc:ad:24:60:c0:de:ad:5e:26:6a:97:
                    24:88:c6:9a:7c:93:08:1c:24:5b:87:79:a1:e2:49:
                    16:de:06:d6:c9:1c:c4:97:b8:34:24:0f:35:42:4d:
                    4e:70:9f:5e:f6:6f:99:e4:0f:5c:ae:4a:35:83:83:
                    fa:57:b7:9a:b5:19:72:52:4c:b0:a0:96:ed:97:31:
                    1f:f2:23:af:b1:78:75:c0:50:73:a7:8c:ff:e7:b6:
                    11:c7:e8:63:b3:98:fe:45:92:98:44:a9:ff:00:58:
                    a2:ca:1b:31:5f:53:6b:ee:cf:0e:e5:1b:4a:31:1e:
                    b1:52:28:af:42:05:48:72:8d:ce:ba:d3:23:22:e0:
                    7b:ad:87:42:38:ca:9f:e5:a2:d8:f1:b2:49:ce:74:
                    71:db:b3:55:8b:60:62:34:6f:c6:5d:8b:e1:60:67:
                    db:22:a1:8a:69:0e:3f:91:40:05:a1:29:e2:bd:8b:
                    ce:b1
                Exponent: 65537 (0x10001)
        X509v3 extensions:
            Netscape Cert Type: 
                SSL Server
            X509v3 Subject Key Identifier: 
                71:C3:DE:38:A7:55:7E:8C:68:44:3A:76:8F:8F:97:C7:44:31:B2:1B
            X509v3 Authority Key Identifier: 
                keyid:FF:DF:C4:8D:AF:64:E1:E3:17:FA:96:EE:F1:75:A7:ED:A7:C3:91:B8
                DirName:/CN=PATNACA_CA/C=IN/O=CITRIX/OU=ANG/ST=KA/emailAddress=PATNACA_CA@PATNACA_mail.com
                serial:9F:2E:15:76:F0:BD:C1:6F

            Authority Information Access: 
                OCSP - URI:http://172.26.20.1/responderpath

    Signature Algorithm: sha256WithRSAEncryption
         68:48:df:12:55:2b:f5:cc:cc:97:eb:da:86:f1:61:c3:44:93:
         27:df:f1:05:a8:97:eb:06:b7:8e:bd:7f:ec:4f:92:76:56:51:
         27:ef:53:d4:a1:fd:f0:1b:4b:30:9f:1d:52:51:66:3d:c0:6b:
         ed:53:85:ef:ef:e4:0c:3e:5a:44:b5:0e:17:e9:e9:17:03:3b:
         f2:ec:0b:41:4a:2e:32:8b:2c:8a:36:75:05:ee:d3:74:8b:27:
         78:0d:20:24:a2:5d:a1:3d:3f:13:9c:ef:3f:e9:37:45:69:f1:
         61:3d:d3:0e:91:16:ef:7a:22:86:65:b0:d0:82:ef:48:1f:a7:
         7f:b3:aa:72:f3:7c:0e:a7:9b:d4:60:48:e5:87:41:76:08:86:
         b1:d0:ca:71:fa:e3:99:52:ee:fb:67:18:ec:85:31:2a:e3:15:
         e2:2c:b1:73:74:1a:b7:fe:d1:33:df:70:77:22:41:09:60:f9:
         f1:fc:9d:cb:28:e8:cf:ca:ca:aa:ac:6d:71:2b:5c:d6:ba:45:
         03:bc:4d:71:53:26:08:38:24:7a:d5:18:e5:99:71:fe:dd:bf:
         54:41:98:65:f7:b7:d1:b1:e9:4d:7d:3f:8b:78:f9:1a:39:b7:
         05:0d:b3:e3:30:87:e0:dc:f7:12:00:de:e8:f3:93:6f:ab:61:
         57:41:ef:13
-----BEGIN CERTIFICATE-----
MIIEjzCCA3egAwIBAgIGCgsMDQ42MA0GCSqGSIb3DQEBCwUAMHoxEzARBgNVBAMU
ClBBVE5BQ0FfQ0ExCzAJBgNVBAYTAklOMQ8wDQYDVQQKEwZDSVRSSVgxDDAKBgNV
BAsTA0FORzELMAkGA1UECBMCS0ExKjAoBgkqhkiG9w0BCQEWG1BBVE5BQ0FfQ0FA
UEFUTkFDQV9tYWlsLmNvbTAeFw0xNjA3MDgwNDM4MzFaFw0yNjA3MDYwNDM4MzFa
MHAxCzAJBgNVBAgTAktBMQswCQYDVQQGEwJJTjEbMBkGA1UEAxQSMTQwX1BBVE5B
Q0Ffc2VydmVyMSYwJAYJKoZIhvcNAQkBFhcxNDBfUEFUTkFDQUB0ZXN0X2NhLmNv
bTEPMA0GA1UEChMGQ0lUUklYMIIBIjANBgkqhkiG9w0BAQEFAAOCAQ8AMIIBCgKC
AQEA6TqJgQu5u++wlFbJ1jxE0ZuBC9YVNqamttST2LrQ472YUJ79tJukQ8/L7ZEb
M9TerkHnZGw0hdCCHjf7+YldpeW+vKEUFGE+d+VKTOIp/K0kYMDerV4mapckiMaa
fJMIHCRbh3mh4kkW3gbWyRzEl7g0JA81Qk1OcJ9e9m+Z5A9crko1g4P6V7eatRly
UkywoJbtlzEf8iOvsXh1wFBzp4z/57YRx+hjs5j+RZKYRKn/AFiiyhsxX1Nr7s8O
5RtKMR6xUiivQgVIco3OutMjIuB7rYdCOMqf5aLY8bJJznRx27NVi2BiNG/GXYvh
YGfbIqGKaQ4/kUAFoSnivYvOsQIDAQABo4IBIzCCAR8wEQYJYIZIAYb4QgEBBAQD
AgZAMB0GA1UdDgQWBBRxw944p1V+jGhEOnaPj5fHRDGyGzCBrAYDVR0jBIGkMIGh
gBT/38SNr2Th4xf6lu7xdaftp8ORuKF+pHwwejETMBEGA1UEAxQKUEFUTkFDQV9D
QTELMAkGA1UEBhMCSU4xDzANBgNVBAoTBkNJVFJJWDEMMAoGA1UECxMDQU5HMQsw
CQYDVQQIEwJLQTEqMCgGCSqGSIb3DQEJARYbUEFUTkFDQV9DQUBQQVROQUNBX21h
aWwuY29tggkAny4VdvC9wW8wPAYIKwYBBQUHAQEEMDAuMCwGCCsGAQUFBzABhiBo
dHRwOi8vMTcyLjI2LjIwLjEvcmVzcG9uZGVycGF0aDANBgkqhkiG9w0BAQsFAAOC
AQEAaEjfElUr9czMl+vahvFhw0STJ9/xBaiX6wa3jr1/7E+SdlZRJ+9T1KH98BtL
MJ8dUlFmPcBr7VOF7+/kDD5aRLUOF+npFwM78uwLQUouMossijZ1Be7TdIsneA0g
JKJdoT0/E5zvP+k3RWnxYT3TDpEW73oihmWw0ILvSB+nf7OqcvN8Dqeb1GBI5YdB
dgiGsdDKcfrjmVLu+2cY7IUxKuMV4iyxc3Qat/7RM99wdyJBCWD58fydyyjoz8rK
qqxtcStc1rpFA7xNcVMmCDgketUY5Zlx/t2/VEGYZfe30bHpTX0/i3j5Gjm3BQ2z
4zCH4Nz3EgDe6POTb6thV0HvEw==
-----END CERTIFICATE-----
