Certificate:
    Data:
        Version: 3 (0x2)
        Serial Number:
            05:0a:05:0a:05:0a:05:0a:00:00:03
    Signature Algorithm: sha1WithRSAEncryption
        Issuer: ST=KA, C=IN, CN=LevelThreeClientCA/emailAddress=LevelThreeClientCA@test_ca.com, O=CITRIX
        Validity
            Not Before: Feb 17 11:37:36 2016 GMT
            Not After : Feb 14 11:37:36 2026 GMT
        Subject: ST=KA, C=IN, CN=4096_sha1_client/emailAddress=4096_sha1_client@test_ca.com, O=CITRIX
        Subject Public Key Info:
            Public Key Algorithm: rsaEncryption
                Public-Key: (4096 bit)
                Modulus:
                    00:c8:f5:23:45:33:31:57:ca:80:1e:e2:15:40:34:
                    3c:01:30:4e:60:cf:6c:62:a6:08:c8:ac:b0:18:ca:
                    72:27:42:56:61:15:79:9c:b4:bd:09:16:66:d7:07:
                    9e:1b:5d:ea:c1:2b:ce:8c:f9:9a:4b:7a:36:42:7e:
                    00:e1:d6:7c:2c:4d:20:fc:3f:db:32:88:50:a8:82:
                    33:3d:62:fc:0a:f5:ed:f7:ea:e0:e3:af:dc:00:5b:
                    b2:d7:34:be:66:53:bd:09:9a:03:f3:2e:97:82:4c:
                    29:8f:2f:35:3d:70:56:50:f7:98:8c:82:3b:91:c1:
                    be:ad:56:1e:07:f2:fe:07:cb:b4:07:ae:90:ec:5c:
                    81:aa:86:5f:e7:ff:75:b0:08:17:10:c7:42:c4:b7:
                    24:2a:54:d2:fe:02:2b:f0:d8:21:e1:63:5c:bb:00:
                    ee:67:32:ce:14:0b:87:b3:82:7f:67:ef:bc:4d:ee:
                    ee:45:0b:b5:49:f8:6b:13:78:ad:d7:f0:79:29:06:
                    6f:6a:27:ad:5a:4b:b6:c0:36:41:38:f3:58:e2:c1:
                    e2:e1:fb:8b:7b:07:20:f9:56:7f:cd:65:d5:0e:d0:
                    c1:79:15:79:10:21:01:f6:eb:f4:a7:54:10:48:5a:
                    1d:00:67:55:6a:6e:a5:68:cb:b5:75:a6:7e:02:bf:
                    cf:a6:42:8e:b6:73:8f:8e:a1:60:59:58:ea:83:da:
                    d4:bc:80:59:41:90:4d:f5:67:bd:13:6f:6a:a8:5c:
                    0e:6d:dc:2e:2c:c6:5b:95:59:83:51:9a:d2:46:28:
                    38:d4:77:0a:88:99:b1:af:ab:bf:3a:f9:c4:16:0b:
                    90:3e:48:f3:68:1e:8a:79:e4:92:b0:58:09:42:20:
                    c5:ef:d7:21:d1:22:08:91:aa:c8:f9:64:a7:97:5b:
                    1c:87:25:ce:4f:d3:4e:79:b7:10:0f:93:72:ba:80:
                    60:39:73:f3:55:41:ff:18:b2:38:99:44:4c:99:5a:
                    37:c3:25:81:cb:44:13:07:02:ce:22:40:9b:70:30:
                    83:9a:0e:f4:96:8d:25:92:56:ff:39:18:0e:76:ca:
                    11:ca:d2:cb:8a:46:48:9a:78:0a:c0:83:99:4c:f2:
                    e2:21:66:eb:ae:4e:e9:85:40:93:16:7e:c1:f0:3c:
                    2c:30:8d:ad:20:f5:4a:ab:1e:af:37:79:9a:f5:83:
                    7a:11:01:f8:2c:76:1b:47:b5:62:e7:5a:2c:3b:45:
                    e2:f9:75:e1:7b:dc:11:38:aa:13:fa:f5:9e:cd:c4:
                    89:81:df:c1:a3:2e:ad:9c:0d:34:6c:5a:58:28:08:
                    8b:08:c7:53:12:d5:ab:62:6c:6c:60:65:12:61:90:
                    a7:6e:cb
                Exponent: 65537 (0x10001)
        X509v3 extensions:
            X509v3 Basic Constraints: 
                CA:FALSE
            Netscape Cert Type: 
                SSL Client
            X509v3 Key Usage: 
                Digital Signature, Non Repudiation, Key Encipherment
            X509v3 Subject Key Identifier: 
                08:3C:04:BA:E4:52:57:E0:8B:11:63:7D:08:2B:0E:D8:E4:B6:EF:79
            X509v3 Authority Key Identifier: 
                keyid:DF:F5:69:E3:7D:93:55:F6:B4:A0:39:A4:93:AC:E4:90:F8:1D:6A:D2
                DirName:/ST=KA/C=IN/CN=LevelTwoClientCA/emailAddress=LevelTwoClientCA@test_ca.com/O=CITRIX
                serial:02:02:02:03:03:03

            X509v3 Certificate Policies: 
                Policy: testoid1
                Policy: 1.5.6.7.8

            X509v3 Policy Mappings: 
                0.10.11.12:0.1.2.3, 0.3.5.7:0.2.4.6
    Signature Algorithm: sha1WithRSAEncryption
         77:e8:bb:2b:8b:d0:41:76:c9:58:14:46:df:27:ec:ee:01:a2:
         a8:21:18:11:30:6f:c8:3c:73:11:79:7b:eb:70:06:7e:a2:f3:
         e5:8f:f4:f2:57:49:66:e1:6b:b0:9f:e1:c8:7a:43:2a:49:0a:
         20:13:2c:f8:2a:da:92:49:c7:76:30:69:f8:80:63:13:32:50:
         c0:07:90:c2:4a:b6:a8:af:91:3e:e8:18:40:da:ac:f7:4f:89:
         a4:7e:13:7f:e0:17:c5:d9:e2:39:d8:dd:20:16:38:5d:50:5b:
         fa:e4:c0:02:68:c1:fa:f5:23:45:39:98:27:2e:c8:85:50:5c:
         b5:11:7c:15:e5:67:63:f3:bf:f6:b4:0a:73:9d:24:e2:b9:34:
         4e:07:f0:f7:dc:02:1c:ad:44:0e:53:40:c7:b8:b2:6e:4c:0f:
         23:05:59:54:e9:6c:37:4c:4d:7e:d1:4e:e1:60:7c:bf:d2:f2:
         16:b3:ed:0a:84:7d:97:c1:d7:2f:9b:54:9b:fe:b5:f2:76:8f:
         05:52:14:b6:30:6a:1d:c5:a8:05:4e:87:60:d5:85:5b:94:a7:
         1b:5c:7a:ab:8d:6c:87:1c:4b:c2:96:cb:eb:1c:36:2b:bb:0e:
         7a:24:3f:dd:ba:4e:b2:91:e3:b0:79:12:64:cb:5c:ef:bd:9f:
         44:45:9c:5f
-----BEGIN CERTIFICATE-----
MIIFozCCBIugAwIBAgILBQoFCgUKBQoAAAMwDQYJKoZIhvcNAQEFBQAwdzELMAkG
A1UECBMCS0ExCzAJBgNVBAYTAklOMRswGQYDVQQDExJMZXZlbFRocmVlQ2xpZW50
Q0ExLTArBgkqhkiG9w0BCQEWHkxldmVsVGhyZWVDbGllbnRDQUB0ZXN0X2NhLmNv
bTEPMA0GA1UEChMGQ0lUUklYMB4XDTE2MDIxNzExMzczNloXDTI2MDIxNDExMzcz
NlowczELMAkGA1UECBMCS0ExCzAJBgNVBAYTAklOMRkwFwYDVQQDFBA0MDk2X3No
YTFfY2xpZW50MSswKQYJKoZIhvcNAQkBFhw0MDk2X3NoYTFfY2xpZW50QHRlc3Rf
Y2EuY29tMQ8wDQYDVQQKEwZDSVRSSVgwggIiMA0GCSqGSIb3DQEBAQUAA4ICDwAw
ggIKAoICAQDI9SNFMzFXyoAe4hVANDwBME5gz2xipgjIrLAYynInQlZhFXmctL0J
FmbXB54bXerBK86M+ZpLejZCfgDh1nwsTSD8P9syiFCogjM9YvwK9e336uDjr9wA
W7LXNL5mU70JmgPzLpeCTCmPLzU9cFZQ95iMgjuRwb6tVh4H8v4Hy7QHrpDsXIGq
hl/n/3WwCBcQx0LEtyQqVNL+Aivw2CHhY1y7AO5nMs4UC4ezgn9n77xN7u5FC7VJ
+GsTeK3X8HkpBm9qJ61aS7bANkE481jiweLh+4t7ByD5Vn/NZdUO0MF5FXkQIQH2
6/SnVBBIWh0AZ1VqbqVoy7V1pn4Cv8+mQo62c4+OoWBZWOqD2tS8gFlBkE31Z70T
b2qoXA5t3C4sxluVWYNRmtJGKDjUdwqImbGvq786+cQWC5A+SPNoHop55JKwWAlC
IMXv1yHRIgiRqsj5ZKeXWxyHJc5P0055txAPk3K6gGA5c/NVQf8YsjiZREyZWjfD
JYHLRBMHAs4iQJtwMIOaDvSWjSWSVv85GA52yhHK0suKRkiaeArAg5lM8uIhZuuu
TumFQJMWfsHwPCwwja0g9UqrHq83eZr1g3oRAfgsdhtHtWLnWiw7ReL5deF73BE4
qhP69Z7NxImB38GjLq2cDTRsWlgoCIsIx1MS1atibGxgZRJhkKduywIDAQABo4IB
MjCCAS4wCQYDVR0TBAIwADARBglghkgBhvhCAQEEBAMCB4AwCwYDVR0PBAQDAgXg
MB0GA1UdDgQWBBQIPAS65FJX4IsRY30IKw7Y5LbveTCBogYDVR0jBIGaMIGXgBTf
9WnjfZNV9rSgOaSTrOSQ+B1q0qF3pHUwczELMAkGA1UECBMCS0ExCzAJBgNVBAYT
AklOMRkwFwYDVQQDExBMZXZlbFR3b0NsaWVudENBMSswKQYJKoZIhvcNAQkBFhxM
ZXZlbFR3b0NsaWVudENBQHRlc3RfY2EuY29tMQ8wDQYDVQQKEwZDSVRSSViCBgIC
AgMDAzAYBgNVHSAEETAPMAUGAyoDBDAGBgQtBgcIMCMGA1UdIQQcMIAwCgYDCgsM
BgMBAgMwCgYDAwUHBgMCBAYAADANBgkqhkiG9w0BAQUFAAOCAQEAd+i7K4vQQXbJ
WBRG3yfs7gGiqCEYETBvyDxzEXl763AGfqLz5Y/08ldJZuFrsJ/hyHpDKkkKIBMs
+CrakknHdjBp+IBjEzJQwAeQwkq2qK+RPugYQNqs90+JpH4Tf+AXxdniOdjdIBY4
XVBb+uTAAmjB+vUjRTmYJy7IhVBctRF8FeVnY/O/9rQKc50k4rk0Tgfw99wCHK1E
DlNAx7iybkwPIwVZVOlsN0xNftFO4WB8v9LyFrPtCoR9l8HXL5tUm/618naPBVIU
tjBqHcWoBU6HYNWFW5SnG1x6q41shxxLwpbL6xw2K7sOeiQ/3bpOspHjsHkSZMtc
772fREWcXw==
-----END CERTIFICATE-----
