Certificate:
    Data:
        Version: 3 (0x2)
        Serial Number: 11042563100200 (0xa0b0c0d0e28)
    Signature Algorithm: sha256WithRSAEncryption
        Issuer: CN=GOACA_CA, C=IN, O=CITRIX, OU=ANG, ST=KA/emailAddress=GOACA_CA@GOACA_mail.com
        Validity
            Not Before: Jul  8 04:34:59 2016 GMT
            Not After : Jul  6 04:34:59 2026 GMT
        Subject: ST=KA, C=IN, CN=126_GOACA_server/emailAddress=126_GOACA@test_ca.com, O=CITRIX
        Subject Public Key Info:
            Public Key Algorithm: rsaEncryption
                Public-Key: (2048 bit)
                Modulus:
                    00:df:7c:61:43:07:22:0a:14:55:28:33:6e:e3:6b:
                    e0:50:a4:5c:3d:80:a8:ee:4c:58:40:00:f6:04:70:
                    04:45:d9:30:73:67:52:7a:db:3e:e2:9a:ee:13:76:
                    ed:54:8f:ee:27:d3:c4:fd:1a:fe:1e:7a:0b:14:09:
                    d0:d4:46:64:31:69:a2:ed:ce:3c:57:d3:48:e7:9c:
                    e5:d5:22:98:9b:16:64:92:96:1b:c2:82:41:bc:94:
                    96:fb:e0:fc:e9:fa:02:3a:64:3d:5b:95:b9:b4:50:
                    57:bc:11:8a:15:bb:96:03:73:39:d5:94:08:f2:d5:
                    b6:aa:b7:d9:cb:5d:df:19:34:37:b7:82:b0:c9:f2:
                    a5:df:89:c7:72:c4:e1:45:62:69:92:3c:d5:cf:96:
                    0f:6f:b2:ae:a0:9d:54:7d:44:d5:a9:8f:7e:89:b2:
                    72:c5:01:35:81:8c:1a:f7:de:97:a3:6f:88:14:54:
                    36:23:94:5b:7a:05:71:57:7d:1f:5e:61:cb:07:d7:
                    87:23:6d:f8:dc:0a:06:65:e4:63:35:e0:ae:31:48:
                    53:36:e1:52:d9:32:b3:79:b9:07:5f:b7:f7:22:14:
                    2e:78:22:7e:02:69:87:a7:48:98:79:b1:cf:09:1d:
                    39:40:b3:56:36:e2:9e:ee:14:1d:43:54:2f:1a:e6:
                    35:db
                Exponent: 65537 (0x10001)
        X509v3 extensions:
            Netscape Cert Type: 
                SSL Server
            X509v3 Subject Key Identifier: 
                6A:59:09:A5:6F:5C:EC:5F:39:F7:14:6A:7E:A5:78:C9:C7:58:D2:EB
            X509v3 Authority Key Identifier: 
                keyid:81:03:00:D4:DC:70:D9:A7:03:08:1E:DC:9B:4C:AC:E6:59:CD:39:68
                DirName:/CN=GOACA_CA/C=IN/O=CITRIX/OU=ANG/ST=KA/emailAddress=GOACA_CA@GOACA_mail.com
                serial:FC:8B:0A:90:01:17:5F:1C

            Authority Information Access: 
                OCSP - URI:http://172.21.10.1/responderpath

    Signature Algorithm: sha256WithRSAEncryption
         cb:7a:56:89:f1:31:1d:15:df:c8:7a:b2:c3:d5:fd:ad:43:08:
         b6:c1:1e:86:19:2c:b6:ff:68:7c:aa:c7:05:84:4d:7a:69:f0:
         69:69:e3:5d:93:07:a1:7b:59:b8:79:ed:da:2e:bd:d0:dc:f4:
         39:3a:98:69:bb:da:c9:ef:5d:4b:8a:07:25:22:c3:a4:b0:56:
         35:7f:21:1f:0e:29:96:06:ca:66:83:da:2f:83:f9:ee:40:81:
         a5:97:46:af:13:19:51:32:8c:72:70:fc:78:ba:61:12:c9:b6:
         94:91:2d:81:8a:06:aa:ae:b6:7f:ef:84:d3:16:68:f1:fa:a6:
         21:d9:db:40:80:08:6e:85:0b:d7:88:c1:d9:2f:60:00:cb:da:
         5d:2e:65:ec:2c:84:03:d4:76:d2:f1:cc:b6:95:5f:8c:4f:3b:
         aa:5f:28:d6:e0:a6:6d:d0:18:94:48:98:a7:0f:c3:a2:14:a9:
         5d:e9:45:ac:00:fb:00:a6:7e:9c:62:3d:4b:0a:36:1d:53:5d:
         37:50:00:9b:bd:a4:24:ae:e0:a5:e7:22:a3:18:9a:6f:ba:2d:
         63:30:c8:7f:44:94:a5:81:2e:54:10:60:75:4d:a3:a3:2f:72:
         a8:bc:7b:52:29:6e:8b:8e:9e:78:c0:06:86:23:83:b3:be:2e:
         0d:ed:e0:cb
-----BEGIN CERTIFICATE-----
MIIEfzCCA2egAwIBAgIGCgsMDQ4oMA0GCSqGSIb3DQEBCwUAMHQxETAPBgNVBAMU
CEdPQUNBX0NBMQswCQYDVQQGEwJJTjEPMA0GA1UEChMGQ0lUUklYMQwwCgYDVQQL
EwNBTkcxCzAJBgNVBAgTAktBMSYwJAYJKoZIhvcNAQkBFhdHT0FDQV9DQUBHT0FD
QV9tYWlsLmNvbTAeFw0xNjA3MDgwNDM0NTlaFw0yNjA3MDYwNDM0NTlaMGwxCzAJ
BgNVBAgTAktBMQswCQYDVQQGEwJJTjEZMBcGA1UEAxQQMTI2X0dPQUNBX3NlcnZl
cjEkMCIGCSqGSIb3DQEJARYVMTI2X0dPQUNBQHRlc3RfY2EuY29tMQ8wDQYDVQQK
EwZDSVRSSVgwggEiMA0GCSqGSIb3DQEBAQUAA4IBDwAwggEKAoIBAQDffGFDByIK
FFUoM27ja+BQpFw9gKjuTFhAAPYEcARF2TBzZ1J62z7imu4Tdu1Uj+4n08T9Gv4e
egsUCdDURmQxaaLtzjxX00jnnOXVIpibFmSSlhvCgkG8lJb74Pzp+gI6ZD1blbm0
UFe8EYoVu5YDcznVlAjy1baqt9nLXd8ZNDe3grDJ8qXficdyxOFFYmmSPNXPlg9v
sq6gnVR9RNWpj36JsnLFATWBjBr33pejb4gUVDYjlFt6BXFXfR9eYcsH14cjbfjc
CgZl5GM14K4xSFM24VLZMrN5uQdft/ciFC54In4CaYenSJh5sc8JHTlAs1Y24p7u
FB1DVC8a5jXbAgMBAAGjggEdMIIBGTARBglghkgBhvhCAQEEBAMCBkAwHQYDVR0O
BBYEFGpZCaVvXOxfOfcUan6leMnHWNLrMIGmBgNVHSMEgZ4wgZuAFIEDANTccNmn
Awge3JtMrOZZzTlooXikdjB0MREwDwYDVQQDFAhHT0FDQV9DQTELMAkGA1UEBhMC
SU4xDzANBgNVBAoTBkNJVFJJWDEMMAoGA1UECxMDQU5HMQswCQYDVQQIEwJLQTEm
MCQGCSqGSIb3DQEJARYXR09BQ0FfQ0FAR09BQ0FfbWFpbC5jb22CCQD8iwqQARdf
HDA8BggrBgEFBQcBAQQwMC4wLAYIKwYBBQUHMAGGIGh0dHA6Ly8xNzIuMjEuMTAu
MS9yZXNwb25kZXJwYXRoMA0GCSqGSIb3DQEBCwUAA4IBAQDLelaJ8TEdFd/IerLD
1f2tQwi2wR6GGSy2/2h8qscFhE16afBpaeNdkwehe1m4ee3aLr3Q3PQ5Ophpu9rJ
711LigclIsOksFY1fyEfDimWBspmg9ovg/nuQIGll0avExlRMoxycPx4umESybaU
kS2BigaqrrZ/74TTFmjx+qYh2dtAgAhuhQvXiMHZL2AAy9pdLmXsLIQD1HbS8cy2
lV+MTzuqXyjW4KZt0BiUSJinD8OiFKld6UWsAPsApn6cYj1LCjYdU103UACbvaQk
ruCl5yKjGJpvui1jMMh/RJSlgS5UEGB1TaOjL3KovHtSKW6Ljp54wAaGI4Ozvi4N
7eDL
-----END CERTIFICATE-----
