Certificate:
    Data:
        Version: 3 (0x2)
        Serial Number: 11042563100191 (0xa0b0c0d0e1f)
    Signature Algorithm: sha256WithRSAEncryption
        Issuer: CN=GOACA_CA, C=IN, O=CITRIX, OU=ANG, ST=KA/emailAddress=GOACA_CA@GOACA_mail.com
        Validity
            Not Before: Jul  8 04:34:57 2016 GMT
            Not After : Jul  6 04:34:57 2026 GMT
        Subject: ST=KA, C=IN, CN=117_GOACA_server/emailAddress=117_GOACA@test_ca.com, O=CITRIX
        Subject Public Key Info:
            Public Key Algorithm: rsaEncryption
                Public-Key: (2048 bit)
                Modulus:
                    00:9a:d1:34:43:89:57:c0:03:06:e0:9d:8d:a5:28:
                    43:84:41:d6:e3:9c:5d:c1:69:be:9c:1e:70:fd:a3:
                    45:36:8b:73:62:1d:98:9c:e6:51:b4:ac:bc:13:04:
                    cb:cf:b2:c5:45:61:44:2b:30:0c:62:73:04:86:5f:
                    03:20:e9:a5:ca:a7:0c:7f:78:88:a0:3c:fa:0e:ef:
                    aa:91:9e:d4:9d:e3:7d:cc:0b:4c:cc:a7:66:0c:0f:
                    89:e7:a7:8c:71:b0:c9:75:ff:f0:71:89:53:ee:f0:
                    ec:74:75:70:22:50:7a:d5:b9:03:d7:59:56:1d:1b:
                    13:b9:88:a0:38:4a:38:b7:29:14:a4:8a:6f:07:47:
                    23:24:23:4f:07:d5:49:1a:2c:32:bd:a7:74:ff:6c:
                    7d:52:9a:67:e6:c7:a7:b3:37:a7:72:f5:50:52:14:
                    6a:2f:ee:5e:ec:9a:69:29:01:53:8b:75:45:4a:7e:
                    3b:9f:64:00:f9:81:e8:0e:4b:ed:06:66:ed:bb:a5:
                    31:3d:17:e8:c8:58:64:18:15:e8:ba:4a:a3:f6:3e:
                    be:6d:10:06:fe:18:09:2b:fe:e1:61:36:d3:96:cf:
                    d3:92:62:bd:f6:c8:ca:5b:df:68:71:fc:97:11:42:
                    b6:62:8e:b4:b1:cc:62:d1:1e:64:3e:83:f9:66:c9:
                    37:63
                Exponent: 65537 (0x10001)
        X509v3 extensions:
            Netscape Cert Type: 
                SSL Server
            X509v3 Subject Key Identifier: 
                80:78:93:01:F4:C4:56:F8:7D:C2:65:38:30:88:D3:42:B0:16:C0:22
            X509v3 Authority Key Identifier: 
                keyid:81:03:00:D4:DC:70:D9:A7:03:08:1E:DC:9B:4C:AC:E6:59:CD:39:68
                DirName:/CN=GOACA_CA/C=IN/O=CITRIX/OU=ANG/ST=KA/emailAddress=GOACA_CA@GOACA_mail.com
                serial:FC:8B:0A:90:01:17:5F:1C

            Authority Information Access: 
                OCSP - URI:http://GOACA_two.ocsptest.com/responderpath

    Signature Algorithm: sha256WithRSAEncryption
         1b:2a:13:56:2b:fc:5a:a9:11:17:ef:f4:19:d0:aa:eb:44:aa:
         73:ff:6d:b8:28:4e:92:af:5a:8d:59:fd:9b:c4:85:37:73:4a:
         74:ec:52:29:54:98:15:4c:05:30:ee:05:f4:30:59:46:72:00:
         de:7b:54:be:a1:55:f7:c1:d6:30:27:50:a3:5b:e1:22:3c:37:
         f0:3d:7f:15:fa:44:c4:78:ad:03:4e:90:eb:23:5a:64:2f:ac:
         3e:5e:27:b6:50:fd:d3:8a:1a:32:2c:86:42:3f:23:ba:0f:76:
         99:5b:5e:ee:64:b2:ac:7e:d9:0f:19:5f:cd:97:1b:39:3d:bf:
         aa:a4:db:e9:2c:76:c9:75:5a:39:d4:8b:51:45:db:6e:d6:d2:
         6a:87:8b:29:ab:c9:be:07:ad:ae:59:28:28:16:83:48:d9:d0:
         5b:4e:54:b6:ce:50:3d:9b:06:55:37:55:3a:d8:87:63:ce:69:
         76:22:93:ea:36:67:4b:a7:6c:5e:ca:3e:37:77:22:7c:84:7a:
         5f:48:1b:1e:39:b4:db:64:1b:1f:fd:49:ae:09:d1:46:4c:2e:
         26:6d:82:54:dd:b8:67:19:8d:b3:93:50:31:0e:e2:8a:45:32:
         3f:af:7c:cb:31:49:bd:5c:e7:89:02:e2:8f:2e:42:93:9a:61:
         3e:bb:e2:a4
-----BEGIN CERTIFICATE-----
MIIEijCCA3KgAwIBAgIGCgsMDQ4fMA0GCSqGSIb3DQEBCwUAMHQxETAPBgNVBAMU
CEdPQUNBX0NBMQswCQYDVQQGEwJJTjEPMA0GA1UEChMGQ0lUUklYMQwwCgYDVQQL
EwNBTkcxCzAJBgNVBAgTAktBMSYwJAYJKoZIhvcNAQkBFhdHT0FDQV9DQUBHT0FD
QV9tYWlsLmNvbTAeFw0xNjA3MDgwNDM0NTdaFw0yNjA3MDYwNDM0NTdaMGwxCzAJ
BgNVBAgTAktBMQswCQYDVQQGEwJJTjEZMBcGA1UEAxQQMTE3X0dPQUNBX3NlcnZl
cjEkMCIGCSqGSIb3DQEJARYVMTE3X0dPQUNBQHRlc3RfY2EuY29tMQ8wDQYDVQQK
EwZDSVRSSVgwggEiMA0GCSqGSIb3DQEBAQUAA4IBDwAwggEKAoIBAQCa0TRDiVfA
AwbgnY2lKEOEQdbjnF3Bab6cHnD9o0U2i3NiHZic5lG0rLwTBMvPssVFYUQrMAxi
cwSGXwMg6aXKpwx/eIigPPoO76qRntSd433MC0zMp2YMD4nnp4xxsMl1//BxiVPu
8Ox0dXAiUHrVuQPXWVYdGxO5iKA4Sji3KRSkim8HRyMkI08H1UkaLDK9p3T/bH1S
mmfmx6ezN6dy9VBSFGov7l7smmkpAVOLdUVKfjufZAD5gegOS+0GZu27pTE9F+jI
WGQYFei6SqP2Pr5tEAb+GAkr/uFhNtOWz9OSYr32yMpb32hx/JcRQrZijrSxzGLR
HmQ+g/lmyTdjAgMBAAGjggEoMIIBJDARBglghkgBhvhCAQEEBAMCBkAwHQYDVR0O
BBYEFIB4kwH0xFb4fcJlODCI00KwFsAiMIGmBgNVHSMEgZ4wgZuAFIEDANTccNmn
Awge3JtMrOZZzTlooXikdjB0MREwDwYDVQQDFAhHT0FDQV9DQTELMAkGA1UEBhMC
SU4xDzANBgNVBAoTBkNJVFJJWDEMMAoGA1UECxMDQU5HMQswCQYDVQQIEwJLQTEm
MCQGCSqGSIb3DQEJARYXR09BQ0FfQ0FAR09BQ0FfbWFpbC5jb22CCQD8iwqQARdf
HDBHBggrBgEFBQcBAQQ7MDkwNwYIKwYBBQUHMAGGK2h0dHA6Ly9HT0FDQV90d28u
b2NzcHRlc3QuY29tL3Jlc3BvbmRlcnBhdGgwDQYJKoZIhvcNAQELBQADggEBABsq
E1Yr/FqpERfv9BnQqutEqnP/bbgoTpKvWo1Z/ZvEhTdzSnTsUilUmBVMBTDuBfQw
WUZyAN57VL6hVffB1jAnUKNb4SI8N/A9fxX6RMR4rQNOkOsjWmQvrD5eJ7ZQ/dOK
GjIshkI/I7oPdplbXu5ksqx+2Q8ZX82XGzk9v6qk2+ksdsl1WjnUi1FF227W0mqH
iymryb4Hra5ZKCgWg0jZ0FtOVLbOUD2bBlU3VTrYh2POaXYik+o2Z0unbF7KPjd3
InyEel9IGx45tNtkGx/9Sa4J0UZMLiZtglTduGcZjbOTUDEO4opFMj+vfMsxSb1c
54kC4o8uQpOaYT674qQ=
-----END CERTIFICATE-----
