Certificate:
    Data:
        Version: 3 (0x2)
        Serial Number: 11042563100194 (0xa0b0c0d0e22)
    Signature Algorithm: sha256WithRSAEncryption
        Issuer: CN=GOACA_CA, C=IN, O=CITRIX, OU=ANG, ST=KA/emailAddress=GOACA_CA@GOACA_mail.com
        Validity
            Not Before: Jul  8 04:34:58 2016 GMT
            Not After : Jul  6 04:34:58 2026 GMT
        Subject: ST=KA, C=IN, CN=120_GOACA_server/emailAddress=120_GOACA@test_ca.com, O=CITRIX
        Subject Public Key Info:
            Public Key Algorithm: rsaEncryption
                Public-Key: (2048 bit)
                Modulus:
                    00:93:db:44:55:c0:1c:1f:a8:8d:59:d8:ed:b7:08:
                    80:f0:24:43:ab:89:b0:28:c4:b2:b6:0d:33:39:11:
                    d4:08:38:9e:27:0d:88:61:54:f3:a6:06:31:61:d3:
                    20:e6:f1:c8:9c:74:c2:16:17:69:43:83:4f:e3:c3:
                    35:30:46:b2:6b:eb:66:2e:69:66:b2:ab:d2:5c:72:
                    61:8f:66:51:0b:cf:67:ab:50:a2:e7:e6:73:95:db:
                    58:57:6d:b9:66:cb:64:d2:cb:f1:6d:44:0e:ef:28:
                    c4:b9:80:c3:64:98:2e:1f:ad:fa:20:60:06:82:f6:
                    38:c3:48:19:8c:ec:a3:8f:c5:f0:68:10:0e:70:01:
                    0d:b2:d4:09:a3:89:11:94:11:65:13:98:33:25:02:
                    94:b3:27:4f:98:c1:b0:b5:42:af:22:00:cb:4a:72:
                    1e:93:93:96:e9:03:e9:f0:8f:f9:f7:58:c7:e1:66:
                    d5:7e:30:a1:6b:85:83:b9:c4:99:3d:24:29:fb:28:
                    13:20:32:ee:87:c8:ea:18:f6:94:71:82:e8:ae:15:
                    98:57:28:5b:57:ba:6f:7a:8b:5e:18:50:0a:00:d2:
                    d3:1b:49:07:b0:2e:15:e1:18:b8:bd:dd:79:d8:cc:
                    7c:34:a6:0e:32:07:56:ff:91:db:c7:e1:fc:47:2a:
                    55:e5
                Exponent: 65537 (0x10001)
        X509v3 extensions:
            Netscape Cert Type: 
                SSL Server
            X509v3 Subject Key Identifier: 
                29:29:4C:4E:7E:A1:E7:A4:26:DF:57:FA:71:2A:E0:43:DE:7A:59:20
            X509v3 Authority Key Identifier: 
                keyid:81:03:00:D4:DC:70:D9:A7:03:08:1E:DC:9B:4C:AC:E6:59:CD:39:68
                DirName:/CN=GOACA_CA/C=IN/O=CITRIX/OU=ANG/ST=KA/emailAddress=GOACA_CA@GOACA_mail.com
                serial:FC:8B:0A:90:01:17:5F:1C

            Authority Information Access: 
                OCSP - URI:http://GOACA_two.ocsptest.com/responderpath

    Signature Algorithm: sha256WithRSAEncryption
         8a:24:d8:93:e5:98:20:b7:3a:59:83:b2:4d:40:f7:43:4d:0f:
         6d:3e:7b:5b:df:bb:38:c1:94:82:9a:c3:fc:ea:24:b7:83:df:
         bf:26:a5:18:79:66:ee:27:41:5b:66:cd:1a:8f:fe:ad:0c:1c:
         68:e2:6a:53:97:59:28:32:6b:87:86:c0:57:c5:a1:22:a4:8d:
         33:60:bb:a1:58:df:4f:d1:d9:a5:a6:ae:54:73:f6:2b:10:95:
         4e:d3:20:54:07:5e:db:bf:c5:80:de:7e:8b:c4:d9:ca:05:29:
         31:cc:a2:23:9c:03:87:2b:1b:88:5d:a9:a1:ac:98:05:2a:af:
         9b:ca:be:c1:f0:38:18:db:36:50:69:b4:ea:9f:90:95:cd:9b:
         1f:f0:79:09:1f:47:1e:34:30:73:9a:59:c1:a9:98:13:a0:6f:
         51:64:3f:2f:06:2d:c6:41:4d:61:c5:66:b4:ce:f8:4f:b3:bf:
         c6:c2:a4:c7:98:d5:5d:a6:9b:3f:73:67:18:5b:e4:2c:c9:92:
         07:3c:9c:32:ac:89:2c:ad:3c:40:11:33:c9:7f:3b:6c:ca:87:
         13:12:e4:d1:6d:98:87:aa:ea:4c:2e:59:b4:7f:03:90:01:e6:
         b8:14:a8:44:28:f3:fb:ca:74:79:96:7e:8d:40:ac:e0:ac:af:
         2a:36:dd:92
-----BEGIN CERTIFICATE-----
MIIEijCCA3KgAwIBAgIGCgsMDQ4iMA0GCSqGSIb3DQEBCwUAMHQxETAPBgNVBAMU
CEdPQUNBX0NBMQswCQYDVQQGEwJJTjEPMA0GA1UEChMGQ0lUUklYMQwwCgYDVQQL
EwNBTkcxCzAJBgNVBAgTAktBMSYwJAYJKoZIhvcNAQkBFhdHT0FDQV9DQUBHT0FD
QV9tYWlsLmNvbTAeFw0xNjA3MDgwNDM0NThaFw0yNjA3MDYwNDM0NThaMGwxCzAJ
BgNVBAgTAktBMQswCQYDVQQGEwJJTjEZMBcGA1UEAxQQMTIwX0dPQUNBX3NlcnZl
cjEkMCIGCSqGSIb3DQEJARYVMTIwX0dPQUNBQHRlc3RfY2EuY29tMQ8wDQYDVQQK
EwZDSVRSSVgwggEiMA0GCSqGSIb3DQEBAQUAA4IBDwAwggEKAoIBAQCT20RVwBwf
qI1Z2O23CIDwJEOribAoxLK2DTM5EdQIOJ4nDYhhVPOmBjFh0yDm8cicdMIWF2lD
g0/jwzUwRrJr62YuaWayq9JccmGPZlELz2erUKLn5nOV21hXbblmy2TSy/FtRA7v
KMS5gMNkmC4frfogYAaC9jjDSBmM7KOPxfBoEA5wAQ2y1AmjiRGUEWUTmDMlApSz
J0+YwbC1Qq8iAMtKch6Tk5bpA+nwj/n3WMfhZtV+MKFrhYO5xJk9JCn7KBMgMu6H
yOoY9pRxguiuFZhXKFtXum96i14YUAoA0tMbSQewLhXhGLi93XnYzHw0pg4yB1b/
kdvH4fxHKlXlAgMBAAGjggEoMIIBJDARBglghkgBhvhCAQEEBAMCBkAwHQYDVR0O
BBYEFCkpTE5+oeekJt9X+nEq4EPeelkgMIGmBgNVHSMEgZ4wgZuAFIEDANTccNmn
Awge3JtMrOZZzTlooXikdjB0MREwDwYDVQQDFAhHT0FDQV9DQTELMAkGA1UEBhMC
SU4xDzANBgNVBAoTBkNJVFJJWDEMMAoGA1UECxMDQU5HMQswCQYDVQQIEwJLQTEm
MCQGCSqGSIb3DQEJARYXR09BQ0FfQ0FAR09BQ0FfbWFpbC5jb22CCQD8iwqQARdf
HDBHBggrBgEFBQcBAQQ7MDkwNwYIKwYBBQUHMAGGK2h0dHA6Ly9HT0FDQV90d28u
b2NzcHRlc3QuY29tL3Jlc3BvbmRlcnBhdGgwDQYJKoZIhvcNAQELBQADggEBAIok
2JPlmCC3OlmDsk1A90NND20+e1vfuzjBlIKaw/zqJLeD378mpRh5Zu4nQVtmzRqP
/q0MHGjialOXWSgya4eGwFfFoSKkjTNgu6FY30/R2aWmrlRz9isQlU7TIFQHXtu/
xYDefovE2coFKTHMoiOcA4crG4hdqaGsmAUqr5vKvsHwOBjbNlBptOqfkJXNmx/w
eQkfRx40MHOaWcGpmBOgb1FkPy8GLcZBTWHFZrTO+E+zv8bCpMeY1V2mmz9zZxhb
5CzJkgc8nDKsiSytPEARM8l/O2zKhxMS5NFtmIeq6kwuWbR/A5AB5rgUqEQo8/vK
dHmWfo1ArOCsryo23ZI=
-----END CERTIFICATE-----
