Certificate:
    Data:
        Version: 3 (0x2)
        Serial Number: 11042563100210 (0xa0b0c0d0e32)
    Signature Algorithm: sha256WithRSAEncryption
        Issuer: CN=GOACA_CA, C=IN, O=CITRIX, OU=ANG, ST=KA/emailAddress=GOACA_CA@GOACA_mail.com
        Validity
            Not Before: Jul  8 04:35:03 2016 GMT
            Not After : Jul  6 04:35:03 2026 GMT
        Subject: ST=KA, C=IN, CN=136_GOACA_server/emailAddress=136_GOACA@test_ca.com, O=CITRIX
        Subject Public Key Info:
            Public Key Algorithm: rsaEncryption
                Public-Key: (2048 bit)
                Modulus:
                    00:ae:b4:c1:41:36:6c:a3:5b:f6:bd:50:a8:2f:53:
                    a8:e5:f0:c0:10:f2:4f:31:76:63:0e:bd:ef:04:f0:
                    69:91:07:d8:4f:dc:81:a0:7b:76:26:93:73:9a:91:
                    21:63:99:24:6d:00:8e:d3:87:82:00:e7:b8:84:bd:
                    e0:38:ec:ed:7e:9d:bf:ea:a8:50:6b:0a:95:ad:f7:
                    7b:02:58:43:af:3c:07:a9:05:10:dd:6c:d2:ed:eb:
                    50:5c:6f:0a:ef:9f:f5:cb:45:15:4e:96:5d:80:55:
                    06:8f:8f:94:3c:f7:f6:f6:76:51:ad:4e:b7:f2:28:
                    0c:99:38:eb:26:53:fe:b2:fc:d8:c3:8a:8f:26:9e:
                    08:b3:72:d7:ab:d0:92:e3:af:e1:e6:11:12:22:b3:
                    ec:3d:9e:07:a7:d7:fb:90:f7:56:2a:51:49:33:3a:
                    09:bb:b5:2b:32:0c:03:a3:41:9c:eb:6a:fc:f2:12:
                    a3:dc:a8:04:25:16:5c:ef:c2:12:2f:b7:94:60:40:
                    b0:3c:1b:6b:2b:a0:5c:04:06:f6:f8:20:e9:b6:d5:
                    ec:93:3b:4b:e4:c2:52:7e:75:97:42:6c:ed:f0:f4:
                    b2:8a:4d:61:a0:56:6d:6a:ac:52:00:2c:96:37:ca:
                    67:37:8f:87:df:a3:e6:4c:c0:33:8d:5c:49:6e:2e:
                    e6:af
                Exponent: 65537 (0x10001)
        X509v3 extensions:
            Netscape Cert Type: 
                SSL Server
            X509v3 Subject Key Identifier: 
                A4:9C:9B:18:62:32:D1:1E:EB:BB:3A:59:14:7A:5E:3A:72:97:5A:1C
            X509v3 Authority Key Identifier: 
                keyid:81:03:00:D4:DC:70:D9:A7:03:08:1E:DC:9B:4C:AC:E6:59:CD:39:68
                DirName:/CN=GOACA_CA/C=IN/O=CITRIX/OU=ANG/ST=KA/emailAddress=GOACA_CA@GOACA_mail.com
                serial:FC:8B:0A:90:01:17:5F:1C

            Authority Information Access: 
                OCSP - URI:http://172.21.20.1/responderpath

    Signature Algorithm: sha256WithRSAEncryption
         8f:17:b3:de:e5:6e:21:51:ea:39:60:ff:23:95:76:3c:5c:06:
         b1:be:d9:f4:9b:3b:c9:04:eb:85:e1:a1:fc:2c:10:33:4b:b9:
         66:dc:5d:4e:77:28:f0:c5:5b:ca:4f:3f:f7:e4:aa:cb:1f:41:
         8d:14:53:c1:fc:ea:0e:1f:a6:b2:1f:a5:1b:54:bf:78:da:16:
         7a:2e:08:38:8e:ec:c8:c7:e2:f0:ed:39:78:89:4a:4d:b8:99:
         a5:88:6c:98:14:ec:28:d8:cb:84:7e:4d:29:01:d8:31:b2:b2:
         0b:35:21:5c:3b:48:e3:83:42:9e:46:25:a0:ee:d8:14:70:2e:
         13:e1:c7:a0:bc:53:15:d7:14:71:fa:ec:02:ec:f0:2c:57:b0:
         db:ff:ea:6a:5b:77:80:b5:1d:c5:97:e7:fa:c5:00:50:20:61:
         84:b0:e3:0a:45:75:a3:2a:b8:b2:a0:17:ee:b3:f8:30:09:62:
         a6:2e:63:28:00:c6:e0:b9:bc:00:04:9f:a2:cc:8b:e9:c6:32:
         f2:16:d4:9f:24:dd:76:c7:0d:88:38:3b:56:0f:6b:ab:db:98:
         d9:1a:29:03:ec:6b:cd:90:d0:e6:23:90:8f:a3:0e:46:7f:cf:
         cf:8e:4d:73:d3:21:c0:10:17:5c:59:da:21:c2:8a:bf:5e:2d:
         5b:57:e0:78
-----BEGIN CERTIFICATE-----
MIIEfzCCA2egAwIBAgIGCgsMDQ4yMA0GCSqGSIb3DQEBCwUAMHQxETAPBgNVBAMU
CEdPQUNBX0NBMQswCQYDVQQGEwJJTjEPMA0GA1UEChMGQ0lUUklYMQwwCgYDVQQL
EwNBTkcxCzAJBgNVBAgTAktBMSYwJAYJKoZIhvcNAQkBFhdHT0FDQV9DQUBHT0FD
QV9tYWlsLmNvbTAeFw0xNjA3MDgwNDM1MDNaFw0yNjA3MDYwNDM1MDNaMGwxCzAJ
BgNVBAgTAktBMQswCQYDVQQGEwJJTjEZMBcGA1UEAxQQMTM2X0dPQUNBX3NlcnZl
cjEkMCIGCSqGSIb3DQEJARYVMTM2X0dPQUNBQHRlc3RfY2EuY29tMQ8wDQYDVQQK
EwZDSVRSSVgwggEiMA0GCSqGSIb3DQEBAQUAA4IBDwAwggEKAoIBAQCutMFBNmyj
W/a9UKgvU6jl8MAQ8k8xdmMOve8E8GmRB9hP3IGge3Ymk3OakSFjmSRtAI7Th4IA
57iEveA47O1+nb/qqFBrCpWt93sCWEOvPAepBRDdbNLt61Bcbwrvn/XLRRVOll2A
VQaPj5Q89/b2dlGtTrfyKAyZOOsmU/6y/NjDio8mngizcter0JLjr+HmERIis+w9
ngen1/uQ91YqUUkzOgm7tSsyDAOjQZzravzyEqPcqAQlFlzvwhIvt5RgQLA8G2sr
oFwEBvb4IOm21eyTO0vkwlJ+dZdCbO3w9LKKTWGgVm1qrFIALJY3ymc3j4ffo+ZM
wDONXEluLuavAgMBAAGjggEdMIIBGTARBglghkgBhvhCAQEEBAMCBkAwHQYDVR0O
BBYEFKScmxhiMtEe67s6WRR6Xjpyl1ocMIGmBgNVHSMEgZ4wgZuAFIEDANTccNmn
Awge3JtMrOZZzTlooXikdjB0MREwDwYDVQQDFAhHT0FDQV9DQTELMAkGA1UEBhMC
SU4xDzANBgNVBAoTBkNJVFJJWDEMMAoGA1UECxMDQU5HMQswCQYDVQQIEwJLQTEm
MCQGCSqGSIb3DQEJARYXR09BQ0FfQ0FAR09BQ0FfbWFpbC5jb22CCQD8iwqQARdf
HDA8BggrBgEFBQcBAQQwMC4wLAYIKwYBBQUHMAGGIGh0dHA6Ly8xNzIuMjEuMjAu
MS9yZXNwb25kZXJwYXRoMA0GCSqGSIb3DQEBCwUAA4IBAQCPF7Pe5W4hUeo5YP8j
lXY8XAaxvtn0mzvJBOuF4aH8LBAzS7lm3F1OdyjwxVvKTz/35KrLH0GNFFPB/OoO
H6ayH6UbVL942hZ6Lgg4juzIx+Lw7Tl4iUpNuJmliGyYFOwo2MuEfk0pAdgxsrIL
NSFcO0jjg0KeRiWg7tgUcC4T4cegvFMV1xRx+uwC7PAsV7Db/+pqW3eAtR3Fl+f6
xQBQIGGEsOMKRXWjKriyoBfus/gwCWKmLmMoAMbgubwABJ+izIvpxjLyFtSfJN12
xw2IODtWD2ur25jZGikD7GvNkNDmI5CPow5Gf8/Pjk1z0yHAEBdcWdohwoq/Xi1b
V+B4
-----END CERTIFICATE-----
