Certificate:
    Data:
        Version: 3 (0x2)
        Serial Number: 11042563100192 (0xa0b0c0d0e20)
    Signature Algorithm: sha256WithRSAEncryption
        Issuer: CN=GOACA_CA, C=IN, O=CITRIX, OU=ANG, ST=KA/emailAddress=GOACA_CA@GOACA_mail.com
        Validity
            Not Before: Jul  8 04:34:57 2016 GMT
            Not After : Jul  6 04:34:57 2026 GMT
        Subject: ST=KA, C=IN, CN=118_GOACA_server/emailAddress=118_GOACA@test_ca.com, O=CITRIX
        Subject Public Key Info:
            Public Key Algorithm: rsaEncryption
                Public-Key: (2048 bit)
                Modulus:
                    00:c7:f9:4c:7d:67:1e:1b:09:37:e8:02:29:4f:ef:
                    e4:3f:ea:e3:3a:ee:50:b2:94:a2:85:e6:00:c9:f2:
                    46:f9:1b:36:4f:eb:b4:7b:be:1c:55:a1:82:ae:f6:
                    83:87:34:ca:f7:5e:82:23:be:b0:9d:c9:7c:4f:cd:
                    c9:7d:96:75:20:40:20:94:0d:cb:3c:c3:96:f9:58:
                    e5:6e:1c:ad:5b:b9:f0:7a:9f:94:77:33:bd:09:31:
                    6d:20:e5:08:1d:e6:33:12:69:53:35:90:a9:86:22:
                    9f:ef:2b:20:63:32:71:2a:41:c7:1f:a3:d9:48:c6:
                    3f:9e:c0:4e:cb:e8:16:66:ec:32:1c:37:44:3e:87:
                    5a:46:a1:79:e3:39:f6:fc:c9:5b:32:c3:a2:65:e5:
                    80:88:65:44:ab:43:e6:01:1b:6e:f2:9c:51:ab:a7:
                    67:5b:13:a3:e7:dc:89:15:25:a5:48:ce:3f:ed:98:
                    75:b1:2e:59:13:d9:72:df:9b:50:13:1d:e0:1e:ec:
                    89:bf:14:9d:3f:4d:04:b0:5b:56:34:14:f4:9c:d8:
                    96:b9:82:d7:fd:1a:53:f0:c3:8c:f9:1b:34:58:d5:
                    5f:c6:d6:54:45:96:42:23:85:80:ff:f2:61:5c:64:
                    19:a8:04:8f:b8:61:0e:67:d9:78:94:82:e5:cb:6e:
                    99:99
                Exponent: 65537 (0x10001)
        X509v3 extensions:
            Netscape Cert Type: 
                SSL Server
            X509v3 Subject Key Identifier: 
                A0:C9:4C:F3:F6:89:AE:A8:D0:84:A7:7E:69:21:B5:FB:4D:CE:80:67
            X509v3 Authority Key Identifier: 
                keyid:81:03:00:D4:DC:70:D9:A7:03:08:1E:DC:9B:4C:AC:E6:59:CD:39:68
                DirName:/CN=GOACA_CA/C=IN/O=CITRIX/OU=ANG/ST=KA/emailAddress=GOACA_CA@GOACA_mail.com
                serial:FC:8B:0A:90:01:17:5F:1C

            Authority Information Access: 
                OCSP - URI:http://GOACA_two.ocsptest.com/responderpath

    Signature Algorithm: sha256WithRSAEncryption
         b0:8b:b5:e8:92:5c:be:da:9c:05:f2:3f:11:b8:eb:d0:d4:be:
         70:fc:e9:ac:91:ea:e8:3c:7b:4d:ee:9c:41:13:e3:f8:24:80:
         1c:cf:35:23:79:38:55:3c:b7:1b:30:13:b1:b0:27:0f:15:b0:
         7d:73:6c:9b:6e:46:01:77:04:4d:9c:da:78:54:d4:6d:97:f3:
         fd:a8:1b:77:03:4c:d7:d1:84:52:b5:d0:4a:41:70:1a:dd:84:
         1c:50:fc:39:da:c2:38:39:1d:51:9d:82:6d:8a:7d:1a:18:82:
         35:d2:07:52:b3:6a:4d:a9:f9:df:65:47:b9:f8:4e:20:d6:2e:
         6f:79:c3:19:68:b5:ad:09:ec:e2:c3:10:a9:4b:bb:8b:2e:c6:
         f4:e0:cb:43:56:f4:e5:1f:74:17:8e:55:de:91:b0:b7:fd:d7:
         d7:c6:25:29:96:b1:7b:28:06:d9:3c:ca:4f:8f:e1:1b:e2:49:
         5f:1d:ff:09:b5:ed:20:5a:2a:7c:84:bb:6e:e8:da:a9:ac:c0:
         51:37:88:87:3c:99:e1:55:78:ba:b1:70:d1:1f:8f:a5:0c:c2:
         54:35:f2:7a:0d:cf:0b:7d:a5:a6:ea:3d:12:40:70:8d:fc:88:
         0b:75:c7:2f:13:ea:ea:8d:ce:8d:54:58:86:a0:9a:d3:3e:d6:
         ff:d2:c8:b1
-----BEGIN CERTIFICATE-----
MIIEijCCA3KgAwIBAgIGCgsMDQ4gMA0GCSqGSIb3DQEBCwUAMHQxETAPBgNVBAMU
CEdPQUNBX0NBMQswCQYDVQQGEwJJTjEPMA0GA1UEChMGQ0lUUklYMQwwCgYDVQQL
EwNBTkcxCzAJBgNVBAgTAktBMSYwJAYJKoZIhvcNAQkBFhdHT0FDQV9DQUBHT0FD
QV9tYWlsLmNvbTAeFw0xNjA3MDgwNDM0NTdaFw0yNjA3MDYwNDM0NTdaMGwxCzAJ
BgNVBAgTAktBMQswCQYDVQQGEwJJTjEZMBcGA1UEAxQQMTE4X0dPQUNBX3NlcnZl
cjEkMCIGCSqGSIb3DQEJARYVMTE4X0dPQUNBQHRlc3RfY2EuY29tMQ8wDQYDVQQK
EwZDSVRSSVgwggEiMA0GCSqGSIb3DQEBAQUAA4IBDwAwggEKAoIBAQDH+Ux9Zx4b
CTfoAilP7+Q/6uM67lCylKKF5gDJ8kb5GzZP67R7vhxVoYKu9oOHNMr3XoIjvrCd
yXxPzcl9lnUgQCCUDcs8w5b5WOVuHK1bufB6n5R3M70JMW0g5Qgd5jMSaVM1kKmG
Ip/vKyBjMnEqQccfo9lIxj+ewE7L6BZm7DIcN0Q+h1pGoXnjOfb8yVsyw6Jl5YCI
ZUSrQ+YBG27ynFGrp2dbE6Pn3IkVJaVIzj/tmHWxLlkT2XLfm1ATHeAe7Im/FJ0/
TQSwW1Y0FPSc2Ja5gtf9GlPww4z5GzRY1V/G1lRFlkIjhYD/8mFcZBmoBI+4YQ5n
2XiUguXLbpmZAgMBAAGjggEoMIIBJDARBglghkgBhvhCAQEEBAMCBkAwHQYDVR0O
BBYEFKDJTPP2ia6o0ISnfmkhtftNzoBnMIGmBgNVHSMEgZ4wgZuAFIEDANTccNmn
Awge3JtMrOZZzTlooXikdjB0MREwDwYDVQQDFAhHT0FDQV9DQTELMAkGA1UEBhMC
SU4xDzANBgNVBAoTBkNJVFJJWDEMMAoGA1UECxMDQU5HMQswCQYDVQQIEwJLQTEm
MCQGCSqGSIb3DQEJARYXR09BQ0FfQ0FAR09BQ0FfbWFpbC5jb22CCQD8iwqQARdf
HDBHBggrBgEFBQcBAQQ7MDkwNwYIKwYBBQUHMAGGK2h0dHA6Ly9HT0FDQV90d28u
b2NzcHRlc3QuY29tL3Jlc3BvbmRlcnBhdGgwDQYJKoZIhvcNAQELBQADggEBALCL
teiSXL7anAXyPxG469DUvnD86ayR6ug8e03unEET4/gkgBzPNSN5OFU8txswE7Gw
Jw8VsH1zbJtuRgF3BE2c2nhU1G2X8/2oG3cDTNfRhFK10EpBcBrdhBxQ/Dnawjg5
HVGdgm2KfRoYgjXSB1Kzak2p+d9lR7n4TiDWLm95wxlota0J7OLDEKlLu4suxvTg
y0NW9OUfdBeOVd6RsLf919fGJSmWsXsoBtk8yk+P4RviSV8d/wm17SBaKnyEu27o
2qmswFE3iIc8meFVeLqxcNEfj6UMwlQ18noNzwt9pabqPRJAcI38iAt1xy8T6uqN
zo1UWIagmtM+1v/SyLE=
-----END CERTIFICATE-----
