Certificate:
    Data:
        Version: 3 (0x2)
        Serial Number: 11042563100193 (0xa0b0c0d0e21)
    Signature Algorithm: sha256WithRSAEncryption
        Issuer: CN=GOACA_CA, C=IN, O=CITRIX, OU=ANG, ST=KA/emailAddress=GOACA_CA@GOACA_mail.com
        Validity
            Not Before: Jul  8 04:34:57 2016 GMT
            Not After : Jul  6 04:34:57 2026 GMT
        Subject: ST=KA, C=IN, CN=119_GOACA_server/emailAddress=119_GOACA@test_ca.com, O=CITRIX
        Subject Public Key Info:
            Public Key Algorithm: rsaEncryption
                Public-Key: (2048 bit)
                Modulus:
                    00:cb:8a:08:47:84:b4:58:a9:be:05:39:78:c0:7b:
                    4d:58:47:43:eb:83:8b:64:7e:da:47:d8:53:a6:b1:
                    44:75:7e:03:e9:28:10:7b:61:b5:95:64:0c:16:ac:
                    b1:a6:0c:f6:67:2d:9e:90:f1:81:e2:30:6c:49:78:
                    10:7a:05:fb:d1:b5:42:a7:a3:df:b9:cf:0b:9f:40:
                    67:77:2b:bf:14:9c:47:c4:95:fe:b7:00:b3:2c:f3:
                    fb:2f:50:d5:4c:f7:c8:11:ca:94:64:4a:b7:39:96:
                    a1:c3:95:df:63:3e:02:fa:3b:4f:79:ea:4b:f8:6e:
                    7d:ff:eb:10:e1:7e:60:11:bc:13:61:d4:80:41:e3:
                    e8:cd:cd:c2:91:77:de:cf:37:c0:d0:cb:6a:66:61:
                    c6:27:9b:4f:27:2d:b4:a7:8b:f2:0d:b7:43:e7:d7:
                    94:50:b0:18:0b:de:df:2e:4b:7a:ee:49:6b:ab:7c:
                    a4:b6:e0:bc:d8:fb:3a:44:a3:5b:df:2e:4c:cc:fc:
                    df:e1:18:63:70:6d:82:96:24:0f:ca:4e:a2:32:64:
                    fe:9f:f3:9e:5d:09:a8:89:f1:cb:85:c4:54:d9:b6:
                    a2:a1:61:bd:a4:43:56:1a:d7:77:aa:73:fe:e6:2b:
                    01:86:aa:11:c9:a0:f7:ce:ef:6f:e8:d1:8a:e6:6b:
                    33:55
                Exponent: 65537 (0x10001)
        X509v3 extensions:
            Netscape Cert Type: 
                SSL Server
            X509v3 Subject Key Identifier: 
                11:6E:25:18:09:08:49:A3:52:0D:96:62:2A:B0:2A:92:27:F3:77:B4
            X509v3 Authority Key Identifier: 
                keyid:81:03:00:D4:DC:70:D9:A7:03:08:1E:DC:9B:4C:AC:E6:59:CD:39:68
                DirName:/CN=GOACA_CA/C=IN/O=CITRIX/OU=ANG/ST=KA/emailAddress=GOACA_CA@GOACA_mail.com
                serial:FC:8B:0A:90:01:17:5F:1C

            Authority Information Access: 
                OCSP - URI:http://GOACA_two.ocsptest.com/responderpath

    Signature Algorithm: sha256WithRSAEncryption
         b1:60:a6:1b:27:52:1f:77:17:ed:4b:d7:c5:66:91:6a:a1:73:
         cf:5e:6f:13:2e:b5:e7:17:14:66:b3:d7:c6:69:b7:ed:b1:07:
         e3:7a:f7:2b:78:b7:6d:ee:58:a2:f2:ca:fd:5a:14:99:5d:88:
         bb:d9:0c:a4:24:f2:de:f6:0d:db:d5:72:ac:4e:44:a5:35:18:
         fd:52:ff:7d:fc:08:07:d7:20:0b:35:b0:57:ce:9e:8c:17:7c:
         24:a2:a4:63:75:32:27:fd:07:b7:6b:e5:c9:d8:ee:82:16:44:
         ff:31:af:3b:4d:0d:6e:64:4a:71:9a:95:1b:33:f3:8d:46:3a:
         84:f2:a2:b2:b3:d5:1f:33:76:be:50:2a:5b:83:d9:08:87:b3:
         77:73:38:b9:30:68:bf:c1:bd:23:a9:97:d3:e2:cf:c1:76:8d:
         f8:7d:91:bb:c9:09:cd:7f:27:78:96:a7:c0:3a:77:0f:b8:d1:
         90:a8:d5:e7:24:00:1a:8b:ad:0e:0d:b6:3f:71:c2:80:8e:8f:
         41:56:f2:39:2b:38:36:7a:1f:75:9d:6a:67:39:f3:1c:fc:b0:
         db:80:02:e1:5d:ad:96:45:f6:8d:f2:61:26:10:08:28:f6:33:
         ff:31:58:da:fc:a3:3d:54:1a:5b:ff:fa:22:e1:2d:50:2e:0f:
         9f:59:34:bf
-----BEGIN CERTIFICATE-----
MIIEijCCA3KgAwIBAgIGCgsMDQ4hMA0GCSqGSIb3DQEBCwUAMHQxETAPBgNVBAMU
CEdPQUNBX0NBMQswCQYDVQQGEwJJTjEPMA0GA1UEChMGQ0lUUklYMQwwCgYDVQQL
EwNBTkcxCzAJBgNVBAgTAktBMSYwJAYJKoZIhvcNAQkBFhdHT0FDQV9DQUBHT0FD
QV9tYWlsLmNvbTAeFw0xNjA3MDgwNDM0NTdaFw0yNjA3MDYwNDM0NTdaMGwxCzAJ
BgNVBAgTAktBMQswCQYDVQQGEwJJTjEZMBcGA1UEAxQQMTE5X0dPQUNBX3NlcnZl
cjEkMCIGCSqGSIb3DQEJARYVMTE5X0dPQUNBQHRlc3RfY2EuY29tMQ8wDQYDVQQK
EwZDSVRSSVgwggEiMA0GCSqGSIb3DQEBAQUAA4IBDwAwggEKAoIBAQDLighHhLRY
qb4FOXjAe01YR0Prg4tkftpH2FOmsUR1fgPpKBB7YbWVZAwWrLGmDPZnLZ6Q8YHi
MGxJeBB6BfvRtUKno9+5zwufQGd3K78UnEfElf63ALMs8/svUNVM98gRypRkSrc5
lqHDld9jPgL6O0956kv4bn3/6xDhfmARvBNh1IBB4+jNzcKRd97PN8DQy2pmYcYn
m08nLbSni/INt0Pn15RQsBgL3t8uS3ruSWurfKS24LzY+zpEo1vfLkzM/N/hGGNw
bYKWJA/KTqIyZP6f855dCaiJ8cuFxFTZtqKhYb2kQ1Ya13eqc/7mKwGGqhHJoPfO
72/o0YrmazNVAgMBAAGjggEoMIIBJDARBglghkgBhvhCAQEEBAMCBkAwHQYDVR0O
BBYEFBFuJRgJCEmjUg2WYiqwKpIn83e0MIGmBgNVHSMEgZ4wgZuAFIEDANTccNmn
Awge3JtMrOZZzTlooXikdjB0MREwDwYDVQQDFAhHT0FDQV9DQTELMAkGA1UEBhMC
SU4xDzANBgNVBAoTBkNJVFJJWDEMMAoGA1UECxMDQU5HMQswCQYDVQQIEwJLQTEm
MCQGCSqGSIb3DQEJARYXR09BQ0FfQ0FAR09BQ0FfbWFpbC5jb22CCQD8iwqQARdf
HDBHBggrBgEFBQcBAQQ7MDkwNwYIKwYBBQUHMAGGK2h0dHA6Ly9HT0FDQV90d28u
b2NzcHRlc3QuY29tL3Jlc3BvbmRlcnBhdGgwDQYJKoZIhvcNAQELBQADggEBALFg
phsnUh93F+1L18VmkWqhc89ebxMutecXFGaz18Zpt+2xB+N69yt4t23uWKLyyv1a
FJldiLvZDKQk8t72DdvVcqxORKU1GP1S/338CAfXIAs1sFfOnowXfCSipGN1Mif9
B7dr5cnY7oIWRP8xrztNDW5kSnGalRsz841GOoTyorKz1R8zdr5QKluD2QiHs3dz
OLkwaL/BvSOpl9Piz8F2jfh9kbvJCc1/J3iWp8A6dw+40ZCo1eckABqLrQ4Ntj9x
woCOj0FW8jkrODZ6H3Wdamc58xz8sNuAAuFdrZZF9o3yYSYQCCj2M/8xWNr8oz1U
Glv/+iLhLVAuD59ZNL8=
-----END CERTIFICATE-----
