Certificate:
    Data:
        Version: 3 (0x2)
        Serial Number: 11042563100176 (0xa0b0c0d0e10)
    Signature Algorithm: sha256WithRSAEncryption
        Issuer: CN=GOACA_CA, C=IN, O=CITRIX, OU=ANG, ST=KA/emailAddress=GOACA_CA@GOACA_mail.com
        Validity
            Not Before: Jul  8 04:34:53 2016 GMT
            Not After : Jul  6 04:34:53 2026 GMT
        Subject: ST=KA, C=IN, CN=102_GOACA_server/emailAddress=102_GOACA@test_ca.com, O=CITRIX
        Subject Public Key Info:
            Public Key Algorithm: rsaEncryption
                Public-Key: (2048 bit)
                Modulus:
                    00:f1:ba:88:c7:bb:a7:a4:9c:1f:22:cb:6e:a9:1c:
                    bf:e6:24:10:a0:09:70:79:c6:05:e3:ed:fb:64:cc:
                    3e:30:8b:c4:c1:d2:ca:07:7e:13:99:38:64:12:10:
                    8f:18:86:74:8b:69:91:87:6a:e4:a2:b3:e0:d2:27:
                    56:cd:20:3b:78:4e:84:61:d1:f9:6f:e8:e2:ed:bf:
                    67:46:55:5c:c4:48:b1:f7:cc:fb:31:98:0c:4f:3d:
                    a3:9a:36:8a:10:9e:dd:53:a0:76:f3:14:cd:4b:cf:
                    0b:19:6e:b0:71:a2:72:fe:9e:f8:a6:23:a5:06:63:
                    65:2c:69:93:6c:c3:fd:b1:e4:98:2e:36:8c:2a:ab:
                    4d:5a:ec:46:34:e5:6f:ef:ac:f7:c0:73:9a:d9:08:
                    d1:b1:d2:9c:b4:b9:40:86:41:21:6a:b9:c2:58:90:
                    13:f8:97:f4:e0:0f:55:e6:e2:98:9d:cb:bc:00:18:
                    69:05:98:a8:c2:44:df:81:d4:7b:84:ef:3a:75:bb:
                    fd:ba:01:fc:d1:55:38:bb:83:36:3e:7e:9c:a6:f6:
                    99:f3:6e:7e:03:29:1c:ca:b2:8e:16:de:a6:59:e8:
                    69:65:f2:98:c7:f5:4f:0b:31:8c:96:48:ca:c4:2a:
                    28:2d:2f:4d:01:65:79:7c:f8:82:1c:7e:56:27:2c:
                    e4:dd
                Exponent: 65537 (0x10001)
        X509v3 extensions:
            Netscape Cert Type: 
                SSL Server
            X509v3 Subject Key Identifier: 
                95:EF:F4:FF:BF:3D:7C:D1:EF:F1:E5:CA:8B:2F:EE:74:EE:E8:BD:6A
            X509v3 Authority Key Identifier: 
                keyid:81:03:00:D4:DC:70:D9:A7:03:08:1E:DC:9B:4C:AC:E6:59:CD:39:68
                DirName:/CN=GOACA_CA/C=IN/O=CITRIX/OU=ANG/ST=KA/emailAddress=GOACA_CA@GOACA_mail.com
                serial:FC:8B:0A:90:01:17:5F:1C

            Authority Information Access: 
                OCSP - URI:http://GOACA_one.ocsptest.com/responderpath

    Signature Algorithm: sha256WithRSAEncryption
         1c:f9:ef:68:59:dc:79:cb:92:da:79:e2:67:5c:6f:65:9b:57:
         03:80:8a:9a:66:b6:47:16:48:4f:95:f8:a7:56:f3:e5:9e:50:
         8c:f6:d5:0d:58:13:dc:3b:65:8c:19:9e:d3:8c:7f:95:61:b5:
         70:7c:50:45:91:af:b4:05:ac:63:b5:c6:f8:62:74:c6:b8:cf:
         c6:dc:f6:0b:03:92:b2:6b:b9:28:c3:a2:62:07:5e:aa:67:33:
         1e:eb:3c:0a:cb:06:b0:61:34:a6:89:1a:7e:b9:0a:32:a3:1f:
         36:f6:37:4c:bf:06:2d:6e:59:65:31:ee:05:46:93:0b:d2:a0:
         0c:0b:6a:45:2e:5d:b3:ab:77:5d:b0:4b:e4:9e:99:a6:a2:55:
         ec:13:39:c3:56:78:8a:00:9b:74:a8:f8:2a:fd:1c:bf:5b:7d:
         7b:1a:d3:9d:ee:85:82:dc:c0:ca:10:ae:14:e6:91:a2:64:a4:
         41:36:c9:d6:b4:95:07:6c:26:44:87:69:91:90:aa:ba:9a:e6:
         0b:bb:e3:dc:50:77:d4:75:03:07:ac:7b:cb:e6:a3:ed:9b:e3:
         fd:16:ef:73:b1:26:ca:b4:9e:a0:eb:44:aa:78:a8:56:fe:c9:
         64:f6:28:00:be:99:e9:10:91:f5:eb:03:e0:72:a0:cd:eb:c3:
         b8:2f:a4:de
-----BEGIN CERTIFICATE-----
MIIEijCCA3KgAwIBAgIGCgsMDQ4QMA0GCSqGSIb3DQEBCwUAMHQxETAPBgNVBAMU
CEdPQUNBX0NBMQswCQYDVQQGEwJJTjEPMA0GA1UEChMGQ0lUUklYMQwwCgYDVQQL
EwNBTkcxCzAJBgNVBAgTAktBMSYwJAYJKoZIhvcNAQkBFhdHT0FDQV9DQUBHT0FD
QV9tYWlsLmNvbTAeFw0xNjA3MDgwNDM0NTNaFw0yNjA3MDYwNDM0NTNaMGwxCzAJ
BgNVBAgTAktBMQswCQYDVQQGEwJJTjEZMBcGA1UEAxQQMTAyX0dPQUNBX3NlcnZl
cjEkMCIGCSqGSIb3DQEJARYVMTAyX0dPQUNBQHRlc3RfY2EuY29tMQ8wDQYDVQQK
EwZDSVRSSVgwggEiMA0GCSqGSIb3DQEBAQUAA4IBDwAwggEKAoIBAQDxuojHu6ek
nB8iy26pHL/mJBCgCXB5xgXj7ftkzD4wi8TB0soHfhOZOGQSEI8YhnSLaZGHauSi
s+DSJ1bNIDt4ToRh0flv6OLtv2dGVVzESLH3zPsxmAxPPaOaNooQnt1ToHbzFM1L
zwsZbrBxonL+nvimI6UGY2UsaZNsw/2x5JguNowqq01a7EY05W/vrPfAc5rZCNGx
0py0uUCGQSFqucJYkBP4l/TgD1Xm4pidy7wAGGkFmKjCRN+B1HuE7zp1u/26AfzR
VTi7gzY+fpym9pnzbn4DKRzKso4W3qZZ6Gll8pjH9U8LMYyWSMrEKigtL00BZXl8
+IIcflYnLOTdAgMBAAGjggEoMIIBJDARBglghkgBhvhCAQEEBAMCBkAwHQYDVR0O
BBYEFJXv9P+/PXzR7/Hlyosv7nTu6L1qMIGmBgNVHSMEgZ4wgZuAFIEDANTccNmn
Awge3JtMrOZZzTlooXikdjB0MREwDwYDVQQDFAhHT0FDQV9DQTELMAkGA1UEBhMC
SU4xDzANBgNVBAoTBkNJVFJJWDEMMAoGA1UECxMDQU5HMQswCQYDVQQIEwJLQTEm
MCQGCSqGSIb3DQEJARYXR09BQ0FfQ0FAR09BQ0FfbWFpbC5jb22CCQD8iwqQARdf
HDBHBggrBgEFBQcBAQQ7MDkwNwYIKwYBBQUHMAGGK2h0dHA6Ly9HT0FDQV9vbmUu
b2NzcHRlc3QuY29tL3Jlc3BvbmRlcnBhdGgwDQYJKoZIhvcNAQELBQADggEBABz5
72hZ3HnLktp54mdcb2WbVwOAippmtkcWSE+V+KdW8+WeUIz21Q1YE9w7ZYwZntOM
f5VhtXB8UEWRr7QFrGO1xvhidMa4z8bc9gsDkrJruSjDomIHXqpnMx7rPArLBrBh
NKaJGn65CjKjHzb2N0y/Bi1uWWUx7gVGkwvSoAwLakUuXbOrd12wS+SemaaiVewT
OcNWeIoAm3So+Cr9HL9bfXsa053uhYLcwMoQrhTmkaJkpEE2yda0lQdsJkSHaZGQ
qrqa5gu749xQd9R1Awese8vmo+2b4/0W73OxJsq0nqDrRKp4qFb+yWT2KAC+mekQ
kfXrA+ByoM3rw7gvpN4=
-----END CERTIFICATE-----
