Certificate:
    Data:
        Version: 3 (0x2)
        Serial Number: 11042563100179 (0xa0b0c0d0e13)
    Signature Algorithm: sha256WithRSAEncryption
        Issuer: CN=GOACA_CA, C=IN, O=CITRIX, OU=ANG, ST=KA/emailAddress=GOACA_CA@GOACA_mail.com
        Validity
            Not Before: Jul  8 04:34:54 2016 GMT
            Not After : Jul  6 04:34:54 2026 GMT
        Subject: ST=KA, C=IN, CN=105_GOACA_server/emailAddress=105_GOACA@test_ca.com, O=CITRIX
        Subject Public Key Info:
            Public Key Algorithm: rsaEncryption
                Public-Key: (2048 bit)
                Modulus:
                    00:bf:af:e3:c1:f0:9c:92:73:ef:63:3a:b1:78:a3:
                    57:16:1b:d1:46:ac:a7:74:c2:f8:18:11:7f:be:fa:
                    66:64:9a:ee:ec:25:f6:51:dd:88:30:00:9e:03:33:
                    af:11:ef:ac:ab:b5:39:7d:25:32:c7:c2:1a:24:2d:
                    a4:d7:46:7e:00:05:8b:e8:1b:07:04:85:5f:0a:81:
                    4d:95:46:86:4d:72:9f:fe:98:13:5f:64:09:68:4b:
                    76:b6:85:04:80:e9:36:e4:79:4b:a2:28:60:43:3a:
                    88:49:d4:41:7e:56:a6:19:9e:1e:72:d8:2e:39:39:
                    2d:e9:c9:51:eb:91:63:7a:e8:45:ea:eb:23:ec:51:
                    b5:f4:57:89:20:af:16:4d:7a:d7:c7:7e:77:5f:af:
                    c5:f0:2e:64:99:78:63:f1:93:b0:c4:2e:18:a4:3a:
                    63:8b:5d:c7:6b:ad:b1:40:40:df:4b:ec:48:31:11:
                    46:8e:3a:2d:16:cd:77:6a:25:18:cf:56:97:f4:bc:
                    99:a1:aa:19:29:7a:db:07:e2:1e:f0:a9:d7:33:68:
                    30:9f:43:68:5b:ba:bc:a4:89:18:27:1a:ab:9d:72:
                    44:13:89:c2:33:29:82:df:05:1f:fe:0a:d2:51:09:
                    00:4d:fe:6d:c6:24:e1:9a:e2:68:42:46:eb:82:36:
                    83:55
                Exponent: 65537 (0x10001)
        X509v3 extensions:
            Netscape Cert Type: 
                SSL Server
            X509v3 Subject Key Identifier: 
                8B:94:9E:7F:10:28:36:45:39:21:9D:88:D6:12:66:C6:64:6E:21:E4
            X509v3 Authority Key Identifier: 
                keyid:81:03:00:D4:DC:70:D9:A7:03:08:1E:DC:9B:4C:AC:E6:59:CD:39:68
                DirName:/CN=GOACA_CA/C=IN/O=CITRIX/OU=ANG/ST=KA/emailAddress=GOACA_CA@GOACA_mail.com
                serial:FC:8B:0A:90:01:17:5F:1C

            Authority Information Access: 
                OCSP - URI:http://GOACA_one.ocsptest.com/responderpath

    Signature Algorithm: sha256WithRSAEncryption
         12:6c:33:c1:f5:09:21:25:cf:08:31:34:1a:04:a3:8a:d2:f4:
         f5:3b:1b:71:a7:3a:66:de:ba:94:c7:4f:d4:9d:82:f6:b8:9a:
         56:5c:12:10:57:03:b3:a5:30:f7:47:9d:4e:09:72:ed:9b:fc:
         c9:cf:21:5f:ef:d5:10:b6:74:90:8d:e8:42:83:6c:fe:cc:11:
         d2:7e:58:3b:51:15:aa:32:ce:58:fa:1d:a2:0e:36:c4:64:a5:
         17:da:c6:b4:8d:4c:ee:e6:94:5e:32:91:22:10:f4:79:b7:cd:
         a0:3c:ff:ab:e3:e2:a1:de:dc:97:05:89:9d:88:40:d2:d9:c3:
         20:85:b6:e1:80:a5:b1:65:ea:26:22:28:13:96:fa:b7:10:68:
         e7:ea:03:aa:1e:a4:66:34:88:e5:19:47:a3:42:fe:59:5a:1d:
         9d:f5:af:d9:58:c9:6e:08:06:11:1f:66:2c:1f:ef:48:6a:1f:
         62:9b:0f:ef:83:ad:a5:36:7e:4f:09:55:02:bc:da:97:3e:56:
         cd:31:3a:b7:90:d2:54:2f:71:21:f4:61:10:71:45:37:5b:fc:
         5e:d3:a4:a0:0f:bb:bd:ec:73:57:24:eb:0b:2e:2d:c1:bc:2b:
         08:1f:72:7c:a2:67:90:5f:4d:ca:02:64:f6:2a:d7:9d:54:0f:
         19:93:d3:af
-----BEGIN CERTIFICATE-----
MIIEijCCA3KgAwIBAgIGCgsMDQ4TMA0GCSqGSIb3DQEBCwUAMHQxETAPBgNVBAMU
CEdPQUNBX0NBMQswCQYDVQQGEwJJTjEPMA0GA1UEChMGQ0lUUklYMQwwCgYDVQQL
EwNBTkcxCzAJBgNVBAgTAktBMSYwJAYJKoZIhvcNAQkBFhdHT0FDQV9DQUBHT0FD
QV9tYWlsLmNvbTAeFw0xNjA3MDgwNDM0NTRaFw0yNjA3MDYwNDM0NTRaMGwxCzAJ
BgNVBAgTAktBMQswCQYDVQQGEwJJTjEZMBcGA1UEAxQQMTA1X0dPQUNBX3NlcnZl
cjEkMCIGCSqGSIb3DQEJARYVMTA1X0dPQUNBQHRlc3RfY2EuY29tMQ8wDQYDVQQK
EwZDSVRSSVgwggEiMA0GCSqGSIb3DQEBAQUAA4IBDwAwggEKAoIBAQC/r+PB8JyS
c+9jOrF4o1cWG9FGrKd0wvgYEX+++mZkmu7sJfZR3YgwAJ4DM68R76yrtTl9JTLH
whokLaTXRn4ABYvoGwcEhV8KgU2VRoZNcp/+mBNfZAloS3a2hQSA6TbkeUuiKGBD
OohJ1EF+VqYZnh5y2C45OS3pyVHrkWN66EXq6yPsUbX0V4kgrxZNetfHfndfr8Xw
LmSZeGPxk7DELhikOmOLXcdrrbFAQN9L7EgxEUaOOi0WzXdqJRjPVpf0vJmhqhkp
etsH4h7wqdczaDCfQ2hburykiRgnGqudckQTicIzKYLfBR/+CtJRCQBN/m3GJOGa
4mhCRuuCNoNVAgMBAAGjggEoMIIBJDARBglghkgBhvhCAQEEBAMCBkAwHQYDVR0O
BBYEFIuUnn8QKDZFOSGdiNYSZsZkbiHkMIGmBgNVHSMEgZ4wgZuAFIEDANTccNmn
Awge3JtMrOZZzTlooXikdjB0MREwDwYDVQQDFAhHT0FDQV9DQTELMAkGA1UEBhMC
SU4xDzANBgNVBAoTBkNJVFJJWDEMMAoGA1UECxMDQU5HMQswCQYDVQQIEwJLQTEm
MCQGCSqGSIb3DQEJARYXR09BQ0FfQ0FAR09BQ0FfbWFpbC5jb22CCQD8iwqQARdf
HDBHBggrBgEFBQcBAQQ7MDkwNwYIKwYBBQUHMAGGK2h0dHA6Ly9HT0FDQV9vbmUu
b2NzcHRlc3QuY29tL3Jlc3BvbmRlcnBhdGgwDQYJKoZIhvcNAQELBQADggEBABJs
M8H1CSElzwgxNBoEo4rS9PU7G3GnOmbeupTHT9Sdgva4mlZcEhBXA7OlMPdHnU4J
cu2b/MnPIV/v1RC2dJCN6EKDbP7MEdJ+WDtRFaoyzlj6HaIONsRkpRfaxrSNTO7m
lF4ykSIQ9Hm3zaA8/6vj4qHe3JcFiZ2IQNLZwyCFtuGApbFl6iYiKBOW+rcQaOfq
A6oepGY0iOUZR6NC/llaHZ31r9lYyW4IBhEfZiwf70hqH2KbD++DraU2fk8JVQK8
2pc+Vs0xOreQ0lQvcSH0YRBxRTdb/F7TpKAPu73sc1ck6wsuLcG8KwgfcnyiZ5Bf
TcoCZPYq151UDxmT068=
-----END CERTIFICATE-----
