Certificate:
    Data:
        Version: 3 (0x2)
        Serial Number: 11042563100180 (0xa0b0c0d0e14)
    Signature Algorithm: sha256WithRSAEncryption
        Issuer: CN=GOACA_CA, C=IN, O=CITRIX, OU=ANG, ST=KA/emailAddress=GOACA_CA@GOACA_mail.com
        Validity
            Not Before: Jul  8 04:34:54 2016 GMT
            Not After : Jul  6 04:34:54 2026 GMT
        Subject: ST=KA, C=IN, CN=106_GOACA_server/emailAddress=106_GOACA@test_ca.com, O=CITRIX
        Subject Public Key Info:
            Public Key Algorithm: rsaEncryption
                Public-Key: (2048 bit)
                Modulus:
                    00:d8:9b:a2:e0:17:9e:a1:c9:92:4a:44:70:2f:e5:
                    8a:fd:3b:6c:0e:ba:91:4c:02:87:a1:3c:4f:bb:1b:
                    ff:5c:07:e5:e9:db:11:f5:37:8c:7a:7f:77:cf:0f:
                    2f:f8:95:8c:8e:95:29:74:d1:24:ef:88:30:d0:80:
                    c9:da:f6:53:60:3c:b0:33:f4:b6:c5:09:a0:62:15:
                    0b:d2:7e:d3:07:f4:c8:7a:01:18:6b:88:2c:a4:96:
                    43:a3:ec:d3:43:6e:18:fb:0f:69:8d:08:c7:83:d2:
                    57:cc:2f:c4:a7:2f:cb:90:88:98:2d:a4:f8:c2:58:
                    42:fb:84:11:9c:ee:57:7a:ae:c0:0d:22:74:9b:0e:
                    2c:04:61:a7:70:c7:c4:2a:80:34:19:1f:82:b6:e5:
                    57:88:be:a3:ce:ac:9c:78:9f:ca:3d:ca:0b:d9:ce:
                    78:c9:36:25:c3:06:08:79:72:79:28:87:6e:df:6c:
                    ff:fc:73:b0:06:d3:4b:0b:11:d8:f5:29:ad:51:d8:
                    c2:72:a9:cc:b4:b7:fa:1e:44:69:06:d3:e9:f1:2f:
                    74:86:b2:32:be:5b:fa:f8:14:1f:c6:1a:6e:42:27:
                    8d:95:d9:9b:5f:f6:42:45:87:0c:86:eb:a2:fb:58:
                    89:19:ee:8f:9b:2a:7c:fe:50:84:2d:5c:01:1a:e7:
                    ce:f1
                Exponent: 65537 (0x10001)
        X509v3 extensions:
            Netscape Cert Type: 
                SSL Server
            X509v3 Subject Key Identifier: 
                83:F6:50:05:DF:8F:55:F0:B8:8D:23:9B:9D:A0:67:2E:8E:17:70:2A
            X509v3 Authority Key Identifier: 
                keyid:81:03:00:D4:DC:70:D9:A7:03:08:1E:DC:9B:4C:AC:E6:59:CD:39:68
                DirName:/CN=GOACA_CA/C=IN/O=CITRIX/OU=ANG/ST=KA/emailAddress=GOACA_CA@GOACA_mail.com
                serial:FC:8B:0A:90:01:17:5F:1C

            Authority Information Access: 
                OCSP - URI:http://GOACA_one.ocsptest.com/responderpath

    Signature Algorithm: sha256WithRSAEncryption
         2a:7d:e7:b3:8e:b4:a3:a7:5a:af:2c:bb:f5:15:82:4e:fd:c9:
         7b:b4:f4:98:99:75:17:e0:e8:59:dc:3b:6e:b1:38:ec:47:4f:
         a0:72:c3:d6:26:1b:8e:cd:3d:d9:8d:cf:6d:24:d4:ea:0d:be:
         85:d4:b6:6f:ae:f7:db:b6:74:b7:84:c2:cd:b9:0f:fc:f9:da:
         5a:b8:d6:8d:81:78:b3:38:cb:c9:83:65:dc:7c:28:b9:d3:0d:
         14:22:38:d2:5c:2e:84:b2:6d:00:fa:b1:3b:f9:99:53:61:15:
         b2:87:0e:48:92:a5:dd:82:e1:e7:05:79:4f:90:0a:fa:75:d7:
         1f:ed:94:63:b1:1f:6c:2f:53:0e:2d:a6:ef:ff:9c:73:15:7b:
         de:b0:6a:63:bb:5c:c3:bb:98:70:db:76:7d:bb:a8:36:ab:1d:
         d4:4c:5b:54:85:7a:0d:ee:1b:f8:c3:50:23:a2:c3:11:cd:91:
         f3:65:56:a8:37:b0:4e:26:6e:b0:6a:38:12:17:0b:84:60:33:
         e1:e6:97:4c:61:90:8c:c3:82:ab:44:03:b7:f8:ed:0b:ea:6b:
         dc:72:07:86:42:72:a4:69:ed:30:39:2e:e6:88:40:8e:a7:f6:
         1a:f9:cd:af:cd:1c:07:98:a7:e4:ff:55:11:52:ab:65:e2:a9:
         22:4b:7f:d4
-----BEGIN CERTIFICATE-----
MIIEijCCA3KgAwIBAgIGCgsMDQ4UMA0GCSqGSIb3DQEBCwUAMHQxETAPBgNVBAMU
CEdPQUNBX0NBMQswCQYDVQQGEwJJTjEPMA0GA1UEChMGQ0lUUklYMQwwCgYDVQQL
EwNBTkcxCzAJBgNVBAgTAktBMSYwJAYJKoZIhvcNAQkBFhdHT0FDQV9DQUBHT0FD
QV9tYWlsLmNvbTAeFw0xNjA3MDgwNDM0NTRaFw0yNjA3MDYwNDM0NTRaMGwxCzAJ
BgNVBAgTAktBMQswCQYDVQQGEwJJTjEZMBcGA1UEAxQQMTA2X0dPQUNBX3NlcnZl
cjEkMCIGCSqGSIb3DQEJARYVMTA2X0dPQUNBQHRlc3RfY2EuY29tMQ8wDQYDVQQK
EwZDSVRSSVgwggEiMA0GCSqGSIb3DQEBAQUAA4IBDwAwggEKAoIBAQDYm6LgF56h
yZJKRHAv5Yr9O2wOupFMAoehPE+7G/9cB+Xp2xH1N4x6f3fPDy/4lYyOlSl00STv
iDDQgMna9lNgPLAz9LbFCaBiFQvSftMH9Mh6ARhriCyklkOj7NNDbhj7D2mNCMeD
0lfML8SnL8uQiJgtpPjCWEL7hBGc7ld6rsANInSbDiwEYadwx8QqgDQZH4K25VeI
vqPOrJx4n8o9ygvZznjJNiXDBgh5cnkoh27fbP/8c7AG00sLEdj1Ka1R2MJyqcy0
t/oeRGkG0+nxL3SGsjK+W/r4FB/GGm5CJ42V2Ztf9kJFhwyG66L7WIkZ7o+bKnz+
UIQtXAEa587xAgMBAAGjggEoMIIBJDARBglghkgBhvhCAQEEBAMCBkAwHQYDVR0O
BBYEFIP2UAXfj1XwuI0jm52gZy6OF3AqMIGmBgNVHSMEgZ4wgZuAFIEDANTccNmn
Awge3JtMrOZZzTlooXikdjB0MREwDwYDVQQDFAhHT0FDQV9DQTELMAkGA1UEBhMC
SU4xDzANBgNVBAoTBkNJVFJJWDEMMAoGA1UECxMDQU5HMQswCQYDVQQIEwJLQTEm
MCQGCSqGSIb3DQEJARYXR09BQ0FfQ0FAR09BQ0FfbWFpbC5jb22CCQD8iwqQARdf
HDBHBggrBgEFBQcBAQQ7MDkwNwYIKwYBBQUHMAGGK2h0dHA6Ly9HT0FDQV9vbmUu
b2NzcHRlc3QuY29tL3Jlc3BvbmRlcnBhdGgwDQYJKoZIhvcNAQELBQADggEBACp9
57OOtKOnWq8su/UVgk79yXu09JiZdRfg6FncO26xOOxHT6Byw9YmG47NPdmNz20k
1OoNvoXUtm+u99u2dLeEws25D/z52lq41o2BeLM4y8mDZdx8KLnTDRQiONJcLoSy
bQD6sTv5mVNhFbKHDkiSpd2C4ecFeU+QCvp11x/tlGOxH2wvUw4tpu//nHMVe96w
amO7XMO7mHDbdn27qDarHdRMW1SFeg3uG/jDUCOiwxHNkfNlVqg3sE4mbrBqOBIX
C4RgM+Hml0xhkIzDgqtEA7f47Qvqa9xyB4ZCcqRp7TA5LuaIQI6n9hr5za/NHAeY
p+T/VRFSq2XiqSJLf9Q=
-----END CERTIFICATE-----
