Certificate:
    Data:
        Version: 3 (0x2)
        Serial Number: 11042563100181 (0xa0b0c0d0e15)
    Signature Algorithm: sha256WithRSAEncryption
        Issuer: CN=GOACA_CA, C=IN, O=CITRIX, OU=ANG, ST=KA/emailAddress=GOACA_CA@GOACA_mail.com
        Validity
            Not Before: Jul  8 04:34:55 2016 GMT
            Not After : Jul  6 04:34:55 2026 GMT
        Subject: ST=KA, C=IN, CN=107_GOACA_server/emailAddress=107_GOACA@test_ca.com, O=CITRIX
        Subject Public Key Info:
            Public Key Algorithm: rsaEncryption
                Public-Key: (2048 bit)
                Modulus:
                    00:bc:76:8c:24:ba:ee:7e:ba:5f:d4:5e:a9:d6:e4:
                    ea:9a:ef:b7:de:a1:fb:49:7e:45:26:16:9b:bf:da:
                    7c:e2:72:ba:63:d4:e6:05:db:3d:4c:f1:58:05:df:
                    d3:93:e3:ec:74:f8:ae:7e:17:4c:64:51:4e:b9:88:
                    1a:d8:2c:62:b5:1f:03:b2:75:1b:63:1b:16:1b:4b:
                    bf:2f:37:92:25:c5:0d:17:38:75:b7:dd:e7:fd:9a:
                    81:8d:78:70:3a:05:46:30:7b:f8:2a:d5:a5:69:16:
                    24:19:a9:3e:d4:19:ac:19:14:82:d0:4f:f8:ea:22:
                    31:a6:3f:a7:cb:38:ac:76:a5:eb:e9:ed:d9:54:5c:
                    c7:20:24:50:4b:30:63:a8:56:4f:38:90:d7:c3:ad:
                    18:ea:67:d7:d7:10:1e:27:0f:50:b1:fb:f9:76:64:
                    2c:6d:70:b8:d1:1c:07:83:26:6a:4b:f1:00:6a:56:
                    14:d3:2b:9e:3e:97:f4:79:37:2d:3a:34:43:2a:0e:
                    d9:a9:a5:e4:98:e3:61:0d:be:d7:b3:f8:25:2b:31:
                    89:f6:27:0b:5c:48:f9:5d:3a:72:8f:b6:4b:b3:b3:
                    74:53:bb:64:f3:d2:7c:9c:ec:c9:2e:7f:3a:d8:d9:
                    d2:cb:a9:63:fe:7f:2b:17:7f:d8:07:43:ec:c6:46:
                    b8:05
                Exponent: 65537 (0x10001)
        X509v3 extensions:
            Netscape Cert Type: 
                SSL Server
            X509v3 Subject Key Identifier: 
                F1:91:54:EE:6D:8E:B9:AC:59:A0:9C:1B:5D:12:42:AF:48:1F:1D:83
            X509v3 Authority Key Identifier: 
                keyid:81:03:00:D4:DC:70:D9:A7:03:08:1E:DC:9B:4C:AC:E6:59:CD:39:68
                DirName:/CN=GOACA_CA/C=IN/O=CITRIX/OU=ANG/ST=KA/emailAddress=GOACA_CA@GOACA_mail.com
                serial:FC:8B:0A:90:01:17:5F:1C

            Authority Information Access: 
                OCSP - URI:http://GOACA_one.ocsptest.com/responderpath

    Signature Algorithm: sha256WithRSAEncryption
         33:84:4b:4f:d0:7a:c6:35:0e:a4:b0:e5:51:92:3e:83:c3:0b:
         e4:94:5e:00:15:79:f3:88:66:66:c1:ca:4a:5c:30:bf:c4:69:
         69:23:98:d5:cb:df:99:94:14:b7:4b:13:dd:a5:06:6f:62:fc:
         70:3d:37:8c:da:29:9b:46:f9:dc:5a:02:8b:13:bc:c5:5c:04:
         83:89:f1:cb:ea:39:08:f5:c4:dd:87:e3:ad:fc:ec:b3:3c:75:
         50:db:7c:be:13:56:c8:64:ff:af:2b:e1:dc:ab:3c:5d:66:cd:
         94:ad:17:52:d4:7f:32:46:9f:35:2f:35:e3:47:47:80:b0:9d:
         ea:2a:d3:38:90:65:05:fd:05:f4:38:0c:55:84:f5:6e:0b:e1:
         5a:80:6c:af:99:37:81:42:a3:6a:94:1c:ed:63:92:4a:82:2b:
         b2:35:48:d3:1f:1c:88:a0:e2:34:2a:dd:c1:16:06:43:24:8e:
         91:46:df:a8:bc:7b:3d:2d:3b:e0:af:bf:45:66:21:8a:b1:10:
         7c:c2:c5:ec:20:d7:7d:0a:49:c2:39:83:8b:30:85:22:0c:1e:
         1a:bd:c3:62:e8:bf:ba:f8:d7:4d:e9:e9:c3:26:58:24:62:5e:
         02:57:3f:c1:a8:4b:1c:7e:56:7d:d7:5f:b7:fa:a0:53:bf:6f:
         c5:44:67:cf
-----BEGIN CERTIFICATE-----
MIIEijCCA3KgAwIBAgIGCgsMDQ4VMA0GCSqGSIb3DQEBCwUAMHQxETAPBgNVBAMU
CEdPQUNBX0NBMQswCQYDVQQGEwJJTjEPMA0GA1UEChMGQ0lUUklYMQwwCgYDVQQL
EwNBTkcxCzAJBgNVBAgTAktBMSYwJAYJKoZIhvcNAQkBFhdHT0FDQV9DQUBHT0FD
QV9tYWlsLmNvbTAeFw0xNjA3MDgwNDM0NTVaFw0yNjA3MDYwNDM0NTVaMGwxCzAJ
BgNVBAgTAktBMQswCQYDVQQGEwJJTjEZMBcGA1UEAxQQMTA3X0dPQUNBX3NlcnZl
cjEkMCIGCSqGSIb3DQEJARYVMTA3X0dPQUNBQHRlc3RfY2EuY29tMQ8wDQYDVQQK
EwZDSVRSSVgwggEiMA0GCSqGSIb3DQEBAQUAA4IBDwAwggEKAoIBAQC8dowkuu5+
ul/UXqnW5Oqa77feoftJfkUmFpu/2nzicrpj1OYF2z1M8VgF39OT4+x0+K5+F0xk
UU65iBrYLGK1HwOydRtjGxYbS78vN5IlxQ0XOHW33ef9moGNeHA6BUYwe/gq1aVp
FiQZqT7UGawZFILQT/jqIjGmP6fLOKx2pevp7dlUXMcgJFBLMGOoVk84kNfDrRjq
Z9fXEB4nD1Cx+/l2ZCxtcLjRHAeDJmpL8QBqVhTTK54+l/R5Ny06NEMqDtmppeSY
42ENvtez+CUrMYn2JwtcSPldOnKPtkuzs3RTu2Tz0nyc7MkufzrY2dLLqWP+fysX
f9gHQ+zGRrgFAgMBAAGjggEoMIIBJDARBglghkgBhvhCAQEEBAMCBkAwHQYDVR0O
BBYEFPGRVO5tjrmsWaCcG10SQq9IHx2DMIGmBgNVHSMEgZ4wgZuAFIEDANTccNmn
Awge3JtMrOZZzTlooXikdjB0MREwDwYDVQQDFAhHT0FDQV9DQTELMAkGA1UEBhMC
SU4xDzANBgNVBAoTBkNJVFJJWDEMMAoGA1UECxMDQU5HMQswCQYDVQQIEwJLQTEm
MCQGCSqGSIb3DQEJARYXR09BQ0FfQ0FAR09BQ0FfbWFpbC5jb22CCQD8iwqQARdf
HDBHBggrBgEFBQcBAQQ7MDkwNwYIKwYBBQUHMAGGK2h0dHA6Ly9HT0FDQV9vbmUu
b2NzcHRlc3QuY29tL3Jlc3BvbmRlcnBhdGgwDQYJKoZIhvcNAQELBQADggEBADOE
S0/QesY1DqSw5VGSPoPDC+SUXgAVefOIZmbBykpcML/EaWkjmNXL35mUFLdLE92l
Bm9i/HA9N4zaKZtG+dxaAosTvMVcBIOJ8cvqOQj1xN2H46387LM8dVDbfL4TVshk
/68r4dyrPF1mzZStF1LUfzJGnzUvNeNHR4Cwneoq0ziQZQX9BfQ4DFWE9W4L4VqA
bK+ZN4FCo2qUHO1jkkqCK7I1SNMfHIig4jQq3cEWBkMkjpFG36i8ez0tO+Cvv0Vm
IYqxEHzCxewg130KScI5g4swhSIMHhq9w2Lov7r4103p6cMmWCRiXgJXP8GoSxx+
Vn3XX7f6oFO/b8VEZ88=
-----END CERTIFICATE-----
