Certificate:
    Data:
        Version: 3 (0x2)
        Serial Number: 11042563100182 (0xa0b0c0d0e16)
    Signature Algorithm: sha256WithRSAEncryption
        Issuer: CN=GOACA_CA, C=IN, O=CITRIX, OU=ANG, ST=KA/emailAddress=GOACA_CA@GOACA_mail.com
        Validity
            Not Before: Jul  8 04:34:55 2016 GMT
            Not After : Jul  6 04:34:55 2026 GMT
        Subject: ST=KA, C=IN, CN=108_GOACA_server/emailAddress=108_GOACA@test_ca.com, O=CITRIX
        Subject Public Key Info:
            Public Key Algorithm: rsaEncryption
                Public-Key: (2048 bit)
                Modulus:
                    00:ad:1e:b2:b8:20:7b:66:82:05:ad:b5:d2:9a:4d:
                    86:25:2c:af:cc:cd:9a:48:fa:24:8d:db:85:65:f3:
                    bc:c3:d4:3e:2e:39:e3:eb:b5:07:11:70:7c:ec:22:
                    fc:56:ea:f7:01:90:48:d7:36:08:61:25:50:5c:a1:
                    7c:41:2d:ec:c8:41:dd:89:ec:51:34:f1:98:c4:97:
                    e9:2c:ed:4f:2c:1f:33:18:62:ec:b5:dd:06:4c:f9:
                    a6:07:31:23:cc:7c:34:3f:89:5e:28:8a:67:1e:00:
                    d8:32:94:a3:93:12:5d:b7:62:f7:9b:c0:96:61:05:
                    64:b1:2a:e6:3c:0b:32:9f:6b:ea:64:d0:e1:eb:3d:
                    4a:34:1f:91:d2:6d:1d:a4:27:20:87:00:03:70:85:
                    c2:6d:63:df:3c:ce:cd:e1:30:bc:f4:75:7e:a7:9d:
                    92:46:39:2a:ab:04:6b:26:e5:ce:81:e9:e0:83:5c:
                    2e:27:1b:b3:2d:52:c9:3c:8d:f0:61:1e:4c:7c:47:
                    67:15:ff:d6:96:94:18:b4:d8:41:a7:8f:92:57:3a:
                    24:66:b7:45:18:cf:b2:e7:41:75:24:3e:ce:67:b9:
                    3f:0f:26:a0:79:cd:be:d4:a7:10:fe:ba:f5:ee:92:
                    de:5a:c7:08:4c:9e:cb:52:1c:e3:fe:35:ed:34:c6:
                    8b:0d
                Exponent: 65537 (0x10001)
        X509v3 extensions:
            Netscape Cert Type: 
                SSL Server
            X509v3 Subject Key Identifier: 
                41:88:AD:3B:6D:27:5E:78:92:DE:22:9A:1B:15:77:A7:73:5A:7C:28
            X509v3 Authority Key Identifier: 
                keyid:81:03:00:D4:DC:70:D9:A7:03:08:1E:DC:9B:4C:AC:E6:59:CD:39:68
                DirName:/CN=GOACA_CA/C=IN/O=CITRIX/OU=ANG/ST=KA/emailAddress=GOACA_CA@GOACA_mail.com
                serial:FC:8B:0A:90:01:17:5F:1C

            Authority Information Access: 
                OCSP - URI:http://GOACA_one.ocsptest.com/responderpath

    Signature Algorithm: sha256WithRSAEncryption
         47:a7:4f:06:54:cf:27:2a:df:c5:50:57:a6:39:a8:bd:0a:cb:
         82:8f:15:6d:ca:54:c6:6a:ef:5e:63:7a:ec:6a:c3:db:4f:aa:
         6b:de:3f:da:73:48:2c:cd:d9:f5:11:f2:a3:b6:93:aa:bf:74:
         7e:76:ed:74:c9:a6:1e:39:2b:3e:a4:9b:ef:09:42:23:d2:c6:
         98:0b:1e:ce:ab:1f:04:77:b0:a7:6c:c1:e2:0f:5b:a5:f4:e5:
         c0:81:10:68:44:88:d2:2f:3d:02:cb:a5:ca:20:e0:f7:73:6b:
         59:15:bc:4b:cd:9d:1c:d6:89:08:06:39:19:25:e1:c4:de:a6:
         82:e7:0d:ef:a3:83:d6:09:4d:ae:c9:74:16:88:ab:51:ee:7b:
         44:ba:a1:91:4c:04:6c:e1:3a:d8:8e:84:1e:81:3f:c8:9d:39:
         51:90:94:0d:af:44:77:16:68:d8:03:22:f6:d8:fe:8c:46:ce:
         c0:55:7f:3b:3a:7c:ad:c4:4c:a1:2c:ab:40:a0:00:08:c6:23:
         ee:fd:c8:5d:26:71:ff:03:9a:27:9c:48:3e:8b:70:91:8c:0a:
         af:e4:5e:70:8f:3b:e0:4f:8c:68:34:9e:2b:f0:63:ba:1d:11:
         1f:67:6e:95:d8:31:85:65:2b:45:9b:00:84:b8:9c:42:88:c8:
         13:cb:7d:41
-----BEGIN CERTIFICATE-----
MIIEijCCA3KgAwIBAgIGCgsMDQ4WMA0GCSqGSIb3DQEBCwUAMHQxETAPBgNVBAMU
CEdPQUNBX0NBMQswCQYDVQQGEwJJTjEPMA0GA1UEChMGQ0lUUklYMQwwCgYDVQQL
EwNBTkcxCzAJBgNVBAgTAktBMSYwJAYJKoZIhvcNAQkBFhdHT0FDQV9DQUBHT0FD
QV9tYWlsLmNvbTAeFw0xNjA3MDgwNDM0NTVaFw0yNjA3MDYwNDM0NTVaMGwxCzAJ
BgNVBAgTAktBMQswCQYDVQQGEwJJTjEZMBcGA1UEAxQQMTA4X0dPQUNBX3NlcnZl
cjEkMCIGCSqGSIb3DQEJARYVMTA4X0dPQUNBQHRlc3RfY2EuY29tMQ8wDQYDVQQK
EwZDSVRSSVgwggEiMA0GCSqGSIb3DQEBAQUAA4IBDwAwggEKAoIBAQCtHrK4IHtm
ggWttdKaTYYlLK/MzZpI+iSN24Vl87zD1D4uOePrtQcRcHzsIvxW6vcBkEjXNghh
JVBcoXxBLezIQd2J7FE08ZjEl+ks7U8sHzMYYuy13QZM+aYHMSPMfDQ/iV4oimce
ANgylKOTEl23YvebwJZhBWSxKuY8CzKfa+pk0OHrPUo0H5HSbR2kJyCHAANwhcJt
Y988zs3hMLz0dX6nnZJGOSqrBGsm5c6B6eCDXC4nG7MtUsk8jfBhHkx8R2cV/9aW
lBi02EGnj5JXOiRmt0UYz7LnQXUkPs5nuT8PJqB5zb7UpxD+uvXukt5axwhMnstS
HOP+Ne00xosNAgMBAAGjggEoMIIBJDARBglghkgBhvhCAQEEBAMCBkAwHQYDVR0O
BBYEFEGIrTttJ154kt4imhsVd6dzWnwoMIGmBgNVHSMEgZ4wgZuAFIEDANTccNmn
Awge3JtMrOZZzTlooXikdjB0MREwDwYDVQQDFAhHT0FDQV9DQTELMAkGA1UEBhMC
SU4xDzANBgNVBAoTBkNJVFJJWDEMMAoGA1UECxMDQU5HMQswCQYDVQQIEwJLQTEm
MCQGCSqGSIb3DQEJARYXR09BQ0FfQ0FAR09BQ0FfbWFpbC5jb22CCQD8iwqQARdf
HDBHBggrBgEFBQcBAQQ7MDkwNwYIKwYBBQUHMAGGK2h0dHA6Ly9HT0FDQV9vbmUu
b2NzcHRlc3QuY29tL3Jlc3BvbmRlcnBhdGgwDQYJKoZIhvcNAQELBQADggEBAEen
TwZUzycq38VQV6Y5qL0Ky4KPFW3KVMZq715jeuxqw9tPqmveP9pzSCzN2fUR8qO2
k6q/dH527XTJph45Kz6km+8JQiPSxpgLHs6rHwR3sKdsweIPW6X05cCBEGhEiNIv
PQLLpcog4Pdza1kVvEvNnRzWiQgGORkl4cTepoLnDe+jg9YJTa7JdBaIq1Hue0S6
oZFMBGzhOtiOhB6BP8idOVGQlA2vRHcWaNgDIvbY/oxGzsBVfzs6fK3ETKEsq0Cg
AAjGI+79yF0mcf8DmiecSD6LcJGMCq/kXnCPO+BPjGg0nivwY7odER9nbpXYMYVl
K0WbAIS4nEKIyBPLfUE=
-----END CERTIFICATE-----
