Certificate:
    Data:
        Version: 3 (0x2)
        Serial Number: 11042563100183 (0xa0b0c0d0e17)
    Signature Algorithm: sha256WithRSAEncryption
        Issuer: CN=GOACA_CA, C=IN, O=CITRIX, OU=ANG, ST=KA/emailAddress=GOACA_CA@GOACA_mail.com
        Validity
            Not Before: Jul  8 04:34:55 2016 GMT
            Not After : Jul  6 04:34:55 2026 GMT
        Subject: ST=KA, C=IN, CN=109_GOACA_server/emailAddress=109_GOACA@test_ca.com, O=CITRIX
        Subject Public Key Info:
            Public Key Algorithm: rsaEncryption
                Public-Key: (2048 bit)
                Modulus:
                    00:c1:94:3f:e7:92:b8:4d:28:77:58:fb:8e:76:00:
                    20:3a:ae:eb:5d:32:70:52:14:df:61:15:4b:55:3d:
                    c1:f4:c3:47:88:93:3c:b4:cf:b7:6f:b6:80:43:40:
                    11:ea:cd:86:c6:84:99:bc:38:bb:b6:c2:17:92:82:
                    7b:ac:1c:41:7f:9c:f1:38:1d:1f:fe:e5:54:e1:cd:
                    52:bb:ac:09:97:75:45:ad:36:5d:d3:f0:7d:be:43:
                    1c:84:83:af:29:3d:c9:e3:3c:5a:dc:d4:0c:a6:d3:
                    82:6c:39:20:4b:b1:8a:33:f1:41:93:8b:66:d7:a1:
                    2a:4b:b0:89:ca:d2:9f:c7:79:62:0a:05:23:5f:60:
                    58:97:1b:ea:82:cf:17:73:c6:b8:ac:36:a3:17:b6:
                    89:7d:42:b8:4a:d4:2c:13:0f:6c:bb:21:94:24:c7:
                    4a:5a:84:05:f9:e6:97:0c:91:a5:ea:29:31:bb:e7:
                    6b:9f:7f:b9:00:ca:bb:5c:22:75:f1:63:fd:f0:14:
                    b0:c5:cc:f8:13:73:de:75:d8:ff:2b:87:21:a9:d9:
                    a5:52:4e:f7:51:0a:ce:f9:a1:cc:13:59:ec:1f:78:
                    5a:7f:55:3f:05:f2:d1:82:70:07:11:4b:d7:e0:e7:
                    28:3c:34:e8:0c:0d:b8:7b:09:9c:ff:e6:d5:92:0d:
                    a9:f3
                Exponent: 65537 (0x10001)
        X509v3 extensions:
            Netscape Cert Type: 
                SSL Server
            X509v3 Subject Key Identifier: 
                62:BA:C2:E4:41:21:CE:14:76:6D:34:B7:29:5D:67:AF:2E:FE:F8:47
            X509v3 Authority Key Identifier: 
                keyid:81:03:00:D4:DC:70:D9:A7:03:08:1E:DC:9B:4C:AC:E6:59:CD:39:68
                DirName:/CN=GOACA_CA/C=IN/O=CITRIX/OU=ANG/ST=KA/emailAddress=GOACA_CA@GOACA_mail.com
                serial:FC:8B:0A:90:01:17:5F:1C

            Authority Information Access: 
                OCSP - URI:http://GOACA_one.ocsptest.com/responderpath

    Signature Algorithm: sha256WithRSAEncryption
         3f:ab:4f:2b:83:f2:7a:81:01:bf:e8:1c:4a:78:e4:84:ff:48:
         63:a6:58:07:65:6f:3b:0a:a9:c9:64:f3:aa:24:aa:59:c6:9f:
         50:ed:ea:97:4e:68:75:94:b4:82:1e:30:87:51:3d:0a:fe:45:
         31:aa:6b:d6:77:52:5c:52:84:80:fd:ae:12:b9:79:e0:51:d3:
         1d:c8:45:c8:ff:c0:82:98:93:22:ca:78:6a:95:44:b2:65:fa:
         63:23:0b:59:49:25:e0:3b:30:8d:94:6d:4a:49:3d:8f:94:63:
         dd:b8:35:99:ba:a6:1f:9d:1e:30:05:ac:1e:10:32:87:36:1c:
         f1:a3:c1:c5:b5:2f:89:97:2c:db:8b:28:29:60:bb:19:7e:36:
         79:9f:7c:5a:2b:a2:ac:5b:56:4f:30:1a:a9:cb:9f:7b:73:90:
         95:8d:e3:fd:cb:a5:0e:9d:39:f8:b6:19:b1:37:7a:b9:64:1c:
         b1:97:b3:d9:e3:08:bc:97:78:7e:d8:63:99:3b:85:cc:78:44:
         14:a0:13:a7:f6:14:aa:e2:fc:59:3f:f4:52:b8:24:17:b1:80:
         9e:96:8f:bd:1d:20:bd:95:68:55:d0:4f:61:2a:2b:97:25:f4:
         e5:88:be:d0:a9:c7:c3:e3:74:26:9e:40:d5:b6:ed:0e:22:a3:
         1d:a7:a5:a7
-----BEGIN CERTIFICATE-----
MIIEijCCA3KgAwIBAgIGCgsMDQ4XMA0GCSqGSIb3DQEBCwUAMHQxETAPBgNVBAMU
CEdPQUNBX0NBMQswCQYDVQQGEwJJTjEPMA0GA1UEChMGQ0lUUklYMQwwCgYDVQQL
EwNBTkcxCzAJBgNVBAgTAktBMSYwJAYJKoZIhvcNAQkBFhdHT0FDQV9DQUBHT0FD
QV9tYWlsLmNvbTAeFw0xNjA3MDgwNDM0NTVaFw0yNjA3MDYwNDM0NTVaMGwxCzAJ
BgNVBAgTAktBMQswCQYDVQQGEwJJTjEZMBcGA1UEAxQQMTA5X0dPQUNBX3NlcnZl
cjEkMCIGCSqGSIb3DQEJARYVMTA5X0dPQUNBQHRlc3RfY2EuY29tMQ8wDQYDVQQK
EwZDSVRSSVgwggEiMA0GCSqGSIb3DQEBAQUAA4IBDwAwggEKAoIBAQDBlD/nkrhN
KHdY+452ACA6rutdMnBSFN9hFUtVPcH0w0eIkzy0z7dvtoBDQBHqzYbGhJm8OLu2
wheSgnusHEF/nPE4HR/+5VThzVK7rAmXdUWtNl3T8H2+QxyEg68pPcnjPFrc1Aym
04JsOSBLsYoz8UGTi2bXoSpLsInK0p/HeWIKBSNfYFiXG+qCzxdzxrisNqMXtol9
QrhK1CwTD2y7IZQkx0pahAX55pcMkaXqKTG752uff7kAyrtcInXxY/3wFLDFzPgT
c9512P8rhyGp2aVSTvdRCs75ocwTWewfeFp/VT8F8tGCcAcRS9fg5yg8NOgMDbh7
CZz/5tWSDanzAgMBAAGjggEoMIIBJDARBglghkgBhvhCAQEEBAMCBkAwHQYDVR0O
BBYEFGK6wuRBIc4Udm00tyldZ68u/vhHMIGmBgNVHSMEgZ4wgZuAFIEDANTccNmn
Awge3JtMrOZZzTlooXikdjB0MREwDwYDVQQDFAhHT0FDQV9DQTELMAkGA1UEBhMC
SU4xDzANBgNVBAoTBkNJVFJJWDEMMAoGA1UECxMDQU5HMQswCQYDVQQIEwJLQTEm
MCQGCSqGSIb3DQEJARYXR09BQ0FfQ0FAR09BQ0FfbWFpbC5jb22CCQD8iwqQARdf
HDBHBggrBgEFBQcBAQQ7MDkwNwYIKwYBBQUHMAGGK2h0dHA6Ly9HT0FDQV9vbmUu
b2NzcHRlc3QuY29tL3Jlc3BvbmRlcnBhdGgwDQYJKoZIhvcNAQELBQADggEBAD+r
TyuD8nqBAb/oHEp45IT/SGOmWAdlbzsKqclk86okqlnGn1Dt6pdOaHWUtIIeMIdR
PQr+RTGqa9Z3UlxShID9rhK5eeBR0x3IRcj/wIKYkyLKeGqVRLJl+mMjC1lJJeA7
MI2UbUpJPY+UY924NZm6ph+dHjAFrB4QMoc2HPGjwcW1L4mXLNuLKClguxl+Nnmf
fForoqxbVk8wGqnLn3tzkJWN4/3LpQ6dOfi2GbE3erlkHLGXs9njCLyXeH7YY5k7
hcx4RBSgE6f2FKri/Fk/9FK4JBexgJ6Wj70dIL2VaFXQT2EqK5cl9OWIvtCpx8Pj
dCaeQNW27Q4iox2npac=
-----END CERTIFICATE-----
