Certificate:
    Data:
        Version: 3 (0x2)
        Serial Number: 11042563100184 (0xa0b0c0d0e18)
    Signature Algorithm: sha256WithRSAEncryption
        Issuer: CN=GOACA_CA, C=IN, O=CITRIX, OU=ANG, ST=KA/emailAddress=GOACA_CA@GOACA_mail.com
        Validity
            Not Before: Jul  8 04:34:55 2016 GMT
            Not After : Jul  6 04:34:55 2026 GMT
        Subject: ST=KA, C=IN, CN=110_GOACA_server/emailAddress=110_GOACA@test_ca.com, O=CITRIX
        Subject Public Key Info:
            Public Key Algorithm: rsaEncryption
                Public-Key: (2048 bit)
                Modulus:
                    00:a6:be:ce:2c:49:10:d8:54:1b:72:a3:8d:78:30:
                    75:c6:95:c8:e1:18:e3:3c:d4:3e:72:42:62:20:6a:
                    b9:63:52:df:93:a9:87:6a:7d:77:63:57:f8:c3:17:
                    c8:3d:f0:f6:b2:6c:3f:b6:76:3d:78:c3:90:38:0b:
                    f5:e0:ea:48:6a:58:ea:de:a6:a0:02:3f:38:f9:a3:
                    92:75:19:bd:67:cf:ce:21:76:8e:8d:0c:f2:c9:fa:
                    12:51:6f:38:95:af:56:a9:0d:6c:d0:2a:78:07:bd:
                    f6:43:a2:4c:53:17:61:4a:86:96:6a:51:19:f5:a0:
                    09:e9:cf:e9:c6:67:da:bb:9f:03:85:c2:ec:d0:b9:
                    24:c7:15:ee:e0:43:12:28:cc:12:ea:15:1a:8b:71:
                    8b:cb:8a:72:9e:b2:1e:86:c5:49:c8:75:e5:0b:29:
                    5b:fb:e8:a5:07:63:31:dd:4f:87:cc:dc:54:21:d4:
                    b3:c1:ee:f2:53:79:60:2f:62:ff:3c:59:f7:3e:1e:
                    6b:af:62:82:e7:6a:db:a4:89:aa:fc:3d:f7:25:26:
                    3b:65:67:93:83:dc:27:e7:37:6b:fe:47:50:64:10:
                    8f:f3:bc:8e:35:53:28:d7:a1:fb:eb:c8:b4:9a:b1:
                    e7:0c:c6:43:44:0d:86:59:0d:41:ed:c3:4b:e6:5e:
                    80:73
                Exponent: 65537 (0x10001)
        X509v3 extensions:
            Netscape Cert Type: 
                SSL Server
            X509v3 Subject Key Identifier: 
                24:5F:B3:80:99:66:D8:B0:55:D9:5B:A2:E3:7B:5E:DB:0D:26:80:96
            X509v3 Authority Key Identifier: 
                keyid:81:03:00:D4:DC:70:D9:A7:03:08:1E:DC:9B:4C:AC:E6:59:CD:39:68
                DirName:/CN=GOACA_CA/C=IN/O=CITRIX/OU=ANG/ST=KA/emailAddress=GOACA_CA@GOACA_mail.com
                serial:FC:8B:0A:90:01:17:5F:1C

            Authority Information Access: 
                OCSP - URI:http://GOACA_one.ocsptest.com/responderpath

    Signature Algorithm: sha256WithRSAEncryption
         ca:ec:a1:d8:de:3f:c4:1d:0f:8c:72:69:0b:44:28:12:3b:94:
         f9:da:de:68:ca:7b:28:82:5d:dc:4d:b4:77:75:56:24:5a:50:
         26:8e:c6:d6:94:1b:10:ad:d9:8f:39:75:f8:22:50:e6:d0:75:
         0d:0e:ad:b8:12:6c:d9:81:94:1f:fc:a0:ae:2d:89:4a:96:02:
         72:7b:23:d4:4f:c4:c2:af:92:37:da:76:b6:d0:e1:d9:cf:33:
         73:50:14:5c:15:e4:3c:28:dd:3c:be:95:c5:91:2d:16:79:e8:
         09:06:30:05:6c:a5:fd:ae:98:89:97:f3:4c:6c:8d:a1:2d:45:
         25:05:be:e6:ea:c9:3c:b9:fa:d0:1e:e9:c7:5a:b2:f8:25:89:
         5c:a8:67:23:18:74:c0:a5:52:7e:ee:c1:01:9c:0d:cf:90:1c:
         01:97:c3:35:dc:97:3e:96:be:65:1c:58:ed:36:9d:7a:f1:12:
         b1:6d:a4:64:65:9f:4d:53:c6:bf:aa:6b:1c:6f:ec:ca:dc:ff:
         11:2f:af:0f:87:8b:6c:d0:c6:8b:ce:5f:12:b3:75:c1:de:71:
         9f:9e:93:48:5c:d4:a5:8b:40:c6:c0:69:43:91:83:d3:f3:ef:
         d6:9a:37:ed:13:44:a8:e9:f3:aa:5b:88:aa:81:4a:2b:af:fc:
         62:dd:3a:c4
-----BEGIN CERTIFICATE-----
MIIEijCCA3KgAwIBAgIGCgsMDQ4YMA0GCSqGSIb3DQEBCwUAMHQxETAPBgNVBAMU
CEdPQUNBX0NBMQswCQYDVQQGEwJJTjEPMA0GA1UEChMGQ0lUUklYMQwwCgYDVQQL
EwNBTkcxCzAJBgNVBAgTAktBMSYwJAYJKoZIhvcNAQkBFhdHT0FDQV9DQUBHT0FD
QV9tYWlsLmNvbTAeFw0xNjA3MDgwNDM0NTVaFw0yNjA3MDYwNDM0NTVaMGwxCzAJ
BgNVBAgTAktBMQswCQYDVQQGEwJJTjEZMBcGA1UEAxQQMTEwX0dPQUNBX3NlcnZl
cjEkMCIGCSqGSIb3DQEJARYVMTEwX0dPQUNBQHRlc3RfY2EuY29tMQ8wDQYDVQQK
EwZDSVRSSVgwggEiMA0GCSqGSIb3DQEBAQUAA4IBDwAwggEKAoIBAQCmvs4sSRDY
VBtyo414MHXGlcjhGOM81D5yQmIgarljUt+TqYdqfXdjV/jDF8g98PaybD+2dj14
w5A4C/Xg6khqWOrepqACPzj5o5J1Gb1nz84hdo6NDPLJ+hJRbziVr1apDWzQKngH
vfZDokxTF2FKhpZqURn1oAnpz+nGZ9q7nwOFwuzQuSTHFe7gQxIozBLqFRqLcYvL
inKesh6GxUnIdeULKVv76KUHYzHdT4fM3FQh1LPB7vJTeWAvYv88Wfc+HmuvYoLn
atukiar8PfclJjtlZ5OD3CfnN2v+R1BkEI/zvI41UyjXofvryLSasecMxkNEDYZZ
DUHtw0vmXoBzAgMBAAGjggEoMIIBJDARBglghkgBhvhCAQEEBAMCBkAwHQYDVR0O
BBYEFCRfs4CZZtiwVdlbouN7XtsNJoCWMIGmBgNVHSMEgZ4wgZuAFIEDANTccNmn
Awge3JtMrOZZzTlooXikdjB0MREwDwYDVQQDFAhHT0FDQV9DQTELMAkGA1UEBhMC
SU4xDzANBgNVBAoTBkNJVFJJWDEMMAoGA1UECxMDQU5HMQswCQYDVQQIEwJLQTEm
MCQGCSqGSIb3DQEJARYXR09BQ0FfQ0FAR09BQ0FfbWFpbC5jb22CCQD8iwqQARdf
HDBHBggrBgEFBQcBAQQ7MDkwNwYIKwYBBQUHMAGGK2h0dHA6Ly9HT0FDQV9vbmUu
b2NzcHRlc3QuY29tL3Jlc3BvbmRlcnBhdGgwDQYJKoZIhvcNAQELBQADggEBAMrs
odjeP8QdD4xyaQtEKBI7lPna3mjKeyiCXdxNtHd1ViRaUCaOxtaUGxCt2Y85dfgi
UObQdQ0OrbgSbNmBlB/8oK4tiUqWAnJ7I9RPxMKvkjfadrbQ4dnPM3NQFFwV5Dwo
3Ty+lcWRLRZ56AkGMAVspf2umImX80xsjaEtRSUFvubqyTy5+tAe6cdasvgliVyo
ZyMYdMClUn7uwQGcDc+QHAGXwzXclz6WvmUcWO02nXrxErFtpGRln01Txr+qaxxv
7Mrc/xEvrw+Hi2zQxovOXxKzdcHecZ+ek0hc1KWLQMbAaUORg9Pz79aaN+0TRKjp
86pbiKqBSiuv/GLdOsQ=
-----END CERTIFICATE-----
