Certificate:
    Data:
        Version: 3 (0x2)
        Serial Number: 11042563100185 (0xa0b0c0d0e19)
    Signature Algorithm: sha256WithRSAEncryption
        Issuer: CN=GOACA_CA, C=IN, O=CITRIX, OU=ANG, ST=KA/emailAddress=GOACA_CA@GOACA_mail.com
        Validity
            Not Before: Jul  8 04:34:55 2016 GMT
            Not After : Jul  6 04:34:55 2026 GMT
        Subject: ST=KA, C=IN, CN=111_GOACA_server/emailAddress=111_GOACA@test_ca.com, O=CITRIX
        Subject Public Key Info:
            Public Key Algorithm: rsaEncryption
                Public-Key: (2048 bit)
                Modulus:
                    00:9f:16:a8:3e:0c:c0:fb:da:ce:16:5a:12:49:d5:
                    98:8f:75:63:9d:58:71:e0:86:0f:0b:6c:b5:e2:6a:
                    5b:05:44:3a:90:d1:75:9e:a9:d0:f2:12:52:32:28:
                    96:33:30:bd:23:9a:ba:1d:d9:76:e9:a1:ae:41:bb:
                    b8:ae:92:2b:15:44:67:f5:03:14:49:11:b2:fd:89:
                    0c:01:8a:0d:e8:40:c7:13:cd:6b:6b:ee:16:d3:71:
                    0a:1f:e6:0e:5a:60:0f:6c:b3:43:0b:1b:a8:53:18:
                    70:5a:54:67:f1:23:04:3c:39:76:ac:ce:bc:2a:df:
                    91:99:ca:6c:93:63:28:94:90:cf:1e:93:1d:f4:77:
                    2b:96:f2:e4:5c:55:52:4d:aa:b5:38:c1:81:8b:4b:
                    70:e0:f1:77:79:47:48:87:1f:e8:e8:9f:6c:60:7f:
                    88:48:d2:96:5f:fd:9b:23:17:5e:e0:03:bf:32:76:
                    04:10:d4:fb:e7:90:d8:82:e8:ca:30:27:df:8d:15:
                    bf:80:fd:01:8f:1b:27:29:ed:cd:fe:a4:44:b0:82:
                    53:6d:13:fb:e9:b9:9e:10:c9:51:76:3f:c4:07:07:
                    b1:43:76:20:1d:a2:3e:1c:89:fc:4e:14:34:eb:d8:
                    f4:6e:f8:9d:4a:51:98:4f:3c:97:61:7b:ee:57:86:
                    2d:c5
                Exponent: 65537 (0x10001)
        X509v3 extensions:
            Netscape Cert Type: 
                SSL Server
            X509v3 Subject Key Identifier: 
                B7:62:DD:AE:53:57:9D:93:2B:08:96:A6:04:FE:1A:D1:FE:D3:90:F9
            X509v3 Authority Key Identifier: 
                keyid:81:03:00:D4:DC:70:D9:A7:03:08:1E:DC:9B:4C:AC:E6:59:CD:39:68
                DirName:/CN=GOACA_CA/C=IN/O=CITRIX/OU=ANG/ST=KA/emailAddress=GOACA_CA@GOACA_mail.com
                serial:FC:8B:0A:90:01:17:5F:1C

            Authority Information Access: 
                OCSP - URI:http://GOACA_two.ocsptest.com/responderpath

    Signature Algorithm: sha256WithRSAEncryption
         16:b6:6c:e6:86:9b:62:51:b2:48:4e:94:b2:b8:2b:a7:ef:4a:
         61:bb:82:a0:0a:83:e9:79:1f:b6:f4:6c:d4:84:5c:ee:ce:df:
         99:83:51:6b:bd:62:53:d8:83:a2:45:fa:dd:2b:3f:5f:ba:41:
         08:fc:42:f7:23:29:12:65:77:8e:6b:a6:55:5f:77:0c:3e:b2:
         1f:98:73:1e:d1:9c:42:04:28:41:b2:ca:6c:4d:54:b9:90:39:
         33:6a:96:d3:cb:4a:bd:0c:d4:41:07:66:4b:be:54:23:8c:e6:
         8c:71:e2:47:b7:6b:4e:b7:40:9f:e6:07:c8:8e:a0:ac:1f:7d:
         97:e0:7a:54:5f:67:39:6b:20:d4:7b:a8:3f:a6:26:e3:8b:ab:
         59:48:06:c5:69:ea:79:6b:4d:de:6b:90:23:d7:9c:80:86:ed:
         b5:59:1f:e7:dd:f5:f8:77:9c:23:b5:13:83:05:bf:34:e8:fc:
         22:4a:dc:c3:aa:35:59:0d:32:68:3a:ea:a9:ac:d6:5c:a0:66:
         00:cb:98:9f:83:67:1b:c0:3b:31:1d:78:f7:15:c2:36:4a:77:
         46:f3:db:d4:1c:36:5d:02:52:dd:36:49:dd:c9:b6:40:b7:43:
         5d:45:9a:f9:34:76:69:53:44:4e:9e:e1:09:af:34:53:99:91:
         c3:c1:2a:3a
-----BEGIN CERTIFICATE-----
MIIEijCCA3KgAwIBAgIGCgsMDQ4ZMA0GCSqGSIb3DQEBCwUAMHQxETAPBgNVBAMU
CEdPQUNBX0NBMQswCQYDVQQGEwJJTjEPMA0GA1UEChMGQ0lUUklYMQwwCgYDVQQL
EwNBTkcxCzAJBgNVBAgTAktBMSYwJAYJKoZIhvcNAQkBFhdHT0FDQV9DQUBHT0FD
QV9tYWlsLmNvbTAeFw0xNjA3MDgwNDM0NTVaFw0yNjA3MDYwNDM0NTVaMGwxCzAJ
BgNVBAgTAktBMQswCQYDVQQGEwJJTjEZMBcGA1UEAxQQMTExX0dPQUNBX3NlcnZl
cjEkMCIGCSqGSIb3DQEJARYVMTExX0dPQUNBQHRlc3RfY2EuY29tMQ8wDQYDVQQK
EwZDSVRSSVgwggEiMA0GCSqGSIb3DQEBAQUAA4IBDwAwggEKAoIBAQCfFqg+DMD7
2s4WWhJJ1ZiPdWOdWHHghg8LbLXialsFRDqQ0XWeqdDyElIyKJYzML0jmrod2Xbp
oa5Bu7iukisVRGf1AxRJEbL9iQwBig3oQMcTzWtr7hbTcQof5g5aYA9ss0MLG6hT
GHBaVGfxIwQ8OXaszrwq35GZymyTYyiUkM8ekx30dyuW8uRcVVJNqrU4wYGLS3Dg
8Xd5R0iHH+jon2xgf4hI0pZf/ZsjF17gA78ydgQQ1PvnkNiC6MowJ9+NFb+A/QGP
Gycp7c3+pESwglNtE/vpuZ4QyVF2P8QHB7FDdiAdoj4cifxOFDTr2PRu+J1KUZhP
PJdhe+5Xhi3FAgMBAAGjggEoMIIBJDARBglghkgBhvhCAQEEBAMCBkAwHQYDVR0O
BBYEFLdi3a5TV52TKwiWpgT+GtH+05D5MIGmBgNVHSMEgZ4wgZuAFIEDANTccNmn
Awge3JtMrOZZzTlooXikdjB0MREwDwYDVQQDFAhHT0FDQV9DQTELMAkGA1UEBhMC
SU4xDzANBgNVBAoTBkNJVFJJWDEMMAoGA1UECxMDQU5HMQswCQYDVQQIEwJLQTEm
MCQGCSqGSIb3DQEJARYXR09BQ0FfQ0FAR09BQ0FfbWFpbC5jb22CCQD8iwqQARdf
HDBHBggrBgEFBQcBAQQ7MDkwNwYIKwYBBQUHMAGGK2h0dHA6Ly9HT0FDQV90d28u
b2NzcHRlc3QuY29tL3Jlc3BvbmRlcnBhdGgwDQYJKoZIhvcNAQELBQADggEBABa2
bOaGm2JRskhOlLK4K6fvSmG7gqAKg+l5H7b0bNSEXO7O35mDUWu9YlPYg6JF+t0r
P1+6QQj8QvcjKRJld45rplVfdww+sh+Ycx7RnEIEKEGyymxNVLmQOTNqltPLSr0M
1EEHZku+VCOM5oxx4ke3a063QJ/mB8iOoKwffZfgelRfZzlrINR7qD+mJuOLq1lI
BsVp6nlrTd5rkCPXnICG7bVZH+fd9fh3nCO1E4MFvzTo/CJK3MOqNVkNMmg66qms
1lygZgDLmJ+DZxvAOzEdePcVwjZKd0bz29QcNl0CUt02Sd3JtkC3Q11Fmvk0dmlT
RE6e4QmvNFOZkcPBKjo=
-----END CERTIFICATE-----
