Certificate:
    Data:
        Version: 3 (0x2)
        Serial Number: 11042563100186 (0xa0b0c0d0e1a)
    Signature Algorithm: sha256WithRSAEncryption
        Issuer: CN=GOACA_CA, C=IN, O=CITRIX, OU=ANG, ST=KA/emailAddress=GOACA_CA@GOACA_mail.com
        Validity
            Not Before: Jul  8 04:34:56 2016 GMT
            Not After : Jul  6 04:34:56 2026 GMT
        Subject: ST=KA, C=IN, CN=112_GOACA_server/emailAddress=112_GOACA@test_ca.com, O=CITRIX
        Subject Public Key Info:
            Public Key Algorithm: rsaEncryption
                Public-Key: (2048 bit)
                Modulus:
                    00:a7:79:38:82:22:74:f6:f4:d1:3f:df:d6:19:66:
                    6d:24:1a:c1:8e:cb:47:ab:a3:40:31:e6:df:92:de:
                    82:bf:86:c5:1e:27:56:72:bc:a5:ec:c5:42:ed:50:
                    fb:f4:16:bf:1e:48:d2:cf:c8:2e:2e:60:72:d4:99:
                    e6:ca:e8:e0:16:c9:f0:55:9c:62:f8:a2:35:c8:bb:
                    35:1a:59:c9:7a:21:4b:e9:2f:e4:d6:01:75:93:54:
                    cb:ac:e9:8d:ac:a8:ef:8f:2c:aa:34:4b:fe:36:60:
                    a7:2d:d2:cb:22:cc:da:50:d7:9f:d2:c5:e3:09:f0:
                    53:7a:64:92:ee:c0:a6:d5:5d:2e:c8:c9:22:ac:50:
                    d1:b5:04:e4:86:d6:74:fb:0e:15:b9:b9:df:4e:5c:
                    05:66:19:21:16:f8:32:8a:3f:f0:5b:ca:a1:12:f7:
                    49:2a:30:1d:d2:6b:0f:ab:aa:94:c2:d3:58:f5:81:
                    20:98:f2:29:5b:af:b5:88:3a:54:ec:db:98:01:0c:
                    f8:75:19:fe:93:b3:00:5d:ab:13:88:d8:76:84:70:
                    e3:23:d3:34:c6:2c:7b:b9:47:43:ec:ac:69:8b:bf:
                    21:67:f1:70:98:90:a9:52:6b:b5:f0:aa:d3:18:7f:
                    6c:b6:a2:cc:73:18:62:40:63:38:8d:01:2f:4a:1c:
                    ce:ff
                Exponent: 65537 (0x10001)
        X509v3 extensions:
            Netscape Cert Type: 
                SSL Server
            X509v3 Subject Key Identifier: 
                5F:00:B1:80:E6:BB:23:8D:77:31:43:8D:5A:CD:F9:42:95:1D:CA:40
            X509v3 Authority Key Identifier: 
                keyid:81:03:00:D4:DC:70:D9:A7:03:08:1E:DC:9B:4C:AC:E6:59:CD:39:68
                DirName:/CN=GOACA_CA/C=IN/O=CITRIX/OU=ANG/ST=KA/emailAddress=GOACA_CA@GOACA_mail.com
                serial:FC:8B:0A:90:01:17:5F:1C

            Authority Information Access: 
                OCSP - URI:http://GOACA_two.ocsptest.com/responderpath

    Signature Algorithm: sha256WithRSAEncryption
         78:54:27:e3:d3:51:dc:7a:b8:dc:31:b7:a2:3f:3e:86:0b:31:
         ae:f9:a8:2c:07:12:73:84:1b:7e:23:d8:4b:11:54:3c:d7:62:
         82:07:73:d1:bc:64:ae:27:9d:1e:c7:80:3b:cd:19:3e:14:5a:
         29:87:cf:5e:3f:8d:59:11:7e:e9:52:43:39:fd:72:8f:cd:c8:
         be:cc:83:13:fb:c9:0d:7a:87:a5:4d:0a:39:5d:77:45:3d:7b:
         ba:2d:57:37:c4:d9:49:41:25:42:74:8e:eb:aa:47:b1:6c:29:
         d9:ef:bd:14:25:6b:af:72:7f:e5:0b:50:f8:fe:e2:cc:74:b0:
         8e:76:d1:f0:1b:0e:e6:3d:69:94:c6:3a:1b:9f:5b:c8:84:a5:
         0e:ff:f7:23:f4:81:18:ea:54:17:ab:00:24:04:fe:69:fe:ad:
         81:da:44:cf:10:52:73:a9:65:7b:79:37:0e:53:97:83:3b:48:
         31:9f:56:11:d8:a3:e4:d5:f4:54:ad:8e:65:5f:d7:2f:c9:fd:
         4d:b1:3d:ef:71:8f:20:4c:30:89:97:7f:e2:16:46:da:93:5e:
         cb:2c:cd:bd:c2:7e:21:1f:18:6d:1a:b0:59:e4:d4:38:72:96:
         bd:01:92:56:8e:fa:84:b5:a7:b9:ff:f5:17:e1:49:0c:11:74:
         b7:15:ea:3a
-----BEGIN CERTIFICATE-----
MIIEijCCA3KgAwIBAgIGCgsMDQ4aMA0GCSqGSIb3DQEBCwUAMHQxETAPBgNVBAMU
CEdPQUNBX0NBMQswCQYDVQQGEwJJTjEPMA0GA1UEChMGQ0lUUklYMQwwCgYDVQQL
EwNBTkcxCzAJBgNVBAgTAktBMSYwJAYJKoZIhvcNAQkBFhdHT0FDQV9DQUBHT0FD
QV9tYWlsLmNvbTAeFw0xNjA3MDgwNDM0NTZaFw0yNjA3MDYwNDM0NTZaMGwxCzAJ
BgNVBAgTAktBMQswCQYDVQQGEwJJTjEZMBcGA1UEAxQQMTEyX0dPQUNBX3NlcnZl
cjEkMCIGCSqGSIb3DQEJARYVMTEyX0dPQUNBQHRlc3RfY2EuY29tMQ8wDQYDVQQK
EwZDSVRSSVgwggEiMA0GCSqGSIb3DQEBAQUAA4IBDwAwggEKAoIBAQCneTiCInT2
9NE/39YZZm0kGsGOy0ero0Ax5t+S3oK/hsUeJ1ZyvKXsxULtUPv0Fr8eSNLPyC4u
YHLUmebK6OAWyfBVnGL4ojXIuzUaWcl6IUvpL+TWAXWTVMus6Y2sqO+PLKo0S/42
YKct0ssizNpQ15/SxeMJ8FN6ZJLuwKbVXS7IySKsUNG1BOSG1nT7DhW5ud9OXAVm
GSEW+DKKP/BbyqES90kqMB3Saw+rqpTC01j1gSCY8ilbr7WIOlTs25gBDPh1Gf6T
swBdqxOI2HaEcOMj0zTGLHu5R0PsrGmLvyFn8XCYkKlSa7XwqtMYf2y2osxzGGJA
YziNAS9KHM7/AgMBAAGjggEoMIIBJDARBglghkgBhvhCAQEEBAMCBkAwHQYDVR0O
BBYEFF8AsYDmuyONdzFDjVrN+UKVHcpAMIGmBgNVHSMEgZ4wgZuAFIEDANTccNmn
Awge3JtMrOZZzTlooXikdjB0MREwDwYDVQQDFAhHT0FDQV9DQTELMAkGA1UEBhMC
SU4xDzANBgNVBAoTBkNJVFJJWDEMMAoGA1UECxMDQU5HMQswCQYDVQQIEwJLQTEm
MCQGCSqGSIb3DQEJARYXR09BQ0FfQ0FAR09BQ0FfbWFpbC5jb22CCQD8iwqQARdf
HDBHBggrBgEFBQcBAQQ7MDkwNwYIKwYBBQUHMAGGK2h0dHA6Ly9HT0FDQV90d28u
b2NzcHRlc3QuY29tL3Jlc3BvbmRlcnBhdGgwDQYJKoZIhvcNAQELBQADggEBAHhU
J+PTUdx6uNwxt6I/PoYLMa75qCwHEnOEG34j2EsRVDzXYoIHc9G8ZK4nnR7HgDvN
GT4UWimHz14/jVkRfulSQzn9co/NyL7MgxP7yQ16h6VNCjldd0U9e7otVzfE2UlB
JUJ0juuqR7FsKdnvvRQla69yf+ULUPj+4sx0sI520fAbDuY9aZTGOhufW8iEpQ7/
9yP0gRjqVBerACQE/mn+rYHaRM8QUnOpZXt5Nw5Tl4M7SDGfVhHYo+TV9FStjmVf
1y/J/U2xPe9xjyBMMImXf+IWRtqTXssszb3CfiEfGG0asFnk1Dhylr0BklaO+oS1
p7n/9RfhSQwRdLcV6jo=
-----END CERTIFICATE-----
