Certificate:
    Data:
        Version: 3 (0x2)
        Serial Number: 11042563100188 (0xa0b0c0d0e1c)
    Signature Algorithm: sha256WithRSAEncryption
        Issuer: CN=GOACA_CA, C=IN, O=CITRIX, OU=ANG, ST=KA/emailAddress=GOACA_CA@GOACA_mail.com
        Validity
            Not Before: Jul  8 04:34:56 2016 GMT
            Not After : Jul  6 04:34:56 2026 GMT
        Subject: ST=KA, C=IN, CN=114_GOACA_server/emailAddress=114_GOACA@test_ca.com, O=CITRIX
        Subject Public Key Info:
            Public Key Algorithm: rsaEncryption
                Public-Key: (2048 bit)
                Modulus:
                    00:bf:ab:6e:3d:5a:8f:45:cb:8d:8d:e1:66:6b:57:
                    16:8a:b4:ef:11:c3:52:45:00:b6:50:8b:8b:ba:67:
                    9f:aa:11:a4:f4:c9:e0:94:af:ec:d1:7c:a6:bd:f5:
                    aa:03:a0:16:2a:c3:0c:22:e0:5c:2d:7d:e8:0a:3e:
                    0b:e0:4a:53:68:11:d3:ab:88:12:4c:53:10:27:2f:
                    6b:7c:36:54:2d:e4:19:46:1e:4a:c1:31:76:55:c0:
                    5c:ae:96:98:a4:ad:78:33:43:85:4c:4d:74:26:74:
                    fd:82:b5:10:f2:f7:d6:09:c0:45:c5:82:78:31:ad:
                    74:ec:fb:e4:fe:6e:fa:24:53:3d:43:ad:61:0f:b5:
                    df:38:c7:4a:0d:aa:ee:8f:85:0f:f9:a4:39:8e:57:
                    0d:40:4a:8e:6a:71:d7:2d:27:b0:13:8b:6b:24:e3:
                    06:68:04:18:63:d4:23:d0:17:cc:fc:a5:9c:44:b3:
                    17:1c:cd:77:98:b4:ed:c2:58:fb:46:b5:a0:b3:63:
                    33:d5:6e:15:ab:f8:44:ee:21:f7:a6:c1:1b:ce:0c:
                    53:fa:06:a8:c8:32:bc:f5:d7:04:2c:3b:c2:e7:bc:
                    c1:2f:4a:e1:44:12:f1:fd:c6:89:e0:66:45:5b:2b:
                    fc:ca:9a:7a:b5:f8:26:5e:d3:95:f2:18:43:59:67:
                    b7:11
                Exponent: 65537 (0x10001)
        X509v3 extensions:
            Netscape Cert Type: 
                SSL Server
            X509v3 Subject Key Identifier: 
                A2:FE:0D:F8:D9:DC:82:6F:4E:A9:00:FF:44:71:02:8D:FF:33:F0:F3
            X509v3 Authority Key Identifier: 
                keyid:81:03:00:D4:DC:70:D9:A7:03:08:1E:DC:9B:4C:AC:E6:59:CD:39:68
                DirName:/CN=GOACA_CA/C=IN/O=CITRIX/OU=ANG/ST=KA/emailAddress=GOACA_CA@GOACA_mail.com
                serial:FC:8B:0A:90:01:17:5F:1C

            Authority Information Access: 
                OCSP - URI:http://GOACA_two.ocsptest.com/responderpath

    Signature Algorithm: sha256WithRSAEncryption
         02:ad:5c:e8:64:f4:7b:8f:1a:0c:ca:92:71:fd:2f:36:6e:14:
         e4:43:ca:83:a0:fe:59:65:1d:1a:87:df:7d:38:4b:ae:4d:e0:
         7b:e7:68:99:24:0d:74:15:66:70:7a:28:21:aa:c6:0f:98:01:
         6d:15:18:b2:22:c8:d0:13:e2:66:62:ed:0c:a6:54:c4:a8:1b:
         73:54:25:1b:bc:9e:2b:4d:d4:6c:e8:04:da:dc:6a:f9:7f:f8:
         87:2e:d8:0f:53:d0:db:ca:9d:3d:3e:3f:72:30:61:c9:45:3b:
         c7:64:3d:3d:e0:5c:5f:38:d6:06:15:bb:75:5b:8a:40:18:72:
         30:3b:7f:28:79:62:41:e9:8b:a4:35:33:cd:11:18:b9:80:50:
         24:9a:06:f0:b5:71:26:d4:4a:db:17:c7:89:d5:67:c2:1d:c1:
         86:66:ad:5e:31:ef:09:ea:e5:5d:c6:46:93:b7:72:68:7b:77:
         89:9a:ea:cf:ec:d5:a0:7e:25:f4:2d:32:47:c5:7d:8b:10:a9:
         9f:83:e0:b0:4a:33:a2:c2:d1:59:b7:63:64:1c:3c:3d:8d:8c:
         b9:f7:81:e3:4c:8f:db:bc:d6:ae:11:08:55:36:ab:74:dc:b9:
         84:39:ab:94:30:f7:fc:45:2d:1a:78:05:17:6b:cd:b6:80:f6:
         5c:82:c0:a2
-----BEGIN CERTIFICATE-----
MIIEijCCA3KgAwIBAgIGCgsMDQ4cMA0GCSqGSIb3DQEBCwUAMHQxETAPBgNVBAMU
CEdPQUNBX0NBMQswCQYDVQQGEwJJTjEPMA0GA1UEChMGQ0lUUklYMQwwCgYDVQQL
EwNBTkcxCzAJBgNVBAgTAktBMSYwJAYJKoZIhvcNAQkBFhdHT0FDQV9DQUBHT0FD
QV9tYWlsLmNvbTAeFw0xNjA3MDgwNDM0NTZaFw0yNjA3MDYwNDM0NTZaMGwxCzAJ
BgNVBAgTAktBMQswCQYDVQQGEwJJTjEZMBcGA1UEAxQQMTE0X0dPQUNBX3NlcnZl
cjEkMCIGCSqGSIb3DQEJARYVMTE0X0dPQUNBQHRlc3RfY2EuY29tMQ8wDQYDVQQK
EwZDSVRSSVgwggEiMA0GCSqGSIb3DQEBAQUAA4IBDwAwggEKAoIBAQC/q249Wo9F
y42N4WZrVxaKtO8Rw1JFALZQi4u6Z5+qEaT0yeCUr+zRfKa99aoDoBYqwwwi4Fwt
fegKPgvgSlNoEdOriBJMUxAnL2t8NlQt5BlGHkrBMXZVwFyulpikrXgzQ4VMTXQm
dP2CtRDy99YJwEXFgngxrXTs++T+bvokUz1DrWEPtd84x0oNqu6PhQ/5pDmOVw1A
So5qcdctJ7ATi2sk4wZoBBhj1CPQF8z8pZxEsxcczXeYtO3CWPtGtaCzYzPVbhWr
+ETuIfemwRvODFP6BqjIMrz11wQsO8LnvMEvSuFEEvH9xongZkVbK/zKmnq1+CZe
05XyGENZZ7cRAgMBAAGjggEoMIIBJDARBglghkgBhvhCAQEEBAMCBkAwHQYDVR0O
BBYEFKL+DfjZ3IJvTqkA/0RxAo3/M/DzMIGmBgNVHSMEgZ4wgZuAFIEDANTccNmn
Awge3JtMrOZZzTlooXikdjB0MREwDwYDVQQDFAhHT0FDQV9DQTELMAkGA1UEBhMC
SU4xDzANBgNVBAoTBkNJVFJJWDEMMAoGA1UECxMDQU5HMQswCQYDVQQIEwJLQTEm
MCQGCSqGSIb3DQEJARYXR09BQ0FfQ0FAR09BQ0FfbWFpbC5jb22CCQD8iwqQARdf
HDBHBggrBgEFBQcBAQQ7MDkwNwYIKwYBBQUHMAGGK2h0dHA6Ly9HT0FDQV90d28u
b2NzcHRlc3QuY29tL3Jlc3BvbmRlcnBhdGgwDQYJKoZIhvcNAQELBQADggEBAAKt
XOhk9HuPGgzKknH9LzZuFORDyoOg/lllHRqH3304S65N4HvnaJkkDXQVZnB6KCGq
xg+YAW0VGLIiyNAT4mZi7QymVMSoG3NUJRu8nitN1GzoBNrcavl/+Icu2A9T0NvK
nT0+P3IwYclFO8dkPT3gXF841gYVu3VbikAYcjA7fyh5YkHpi6Q1M80RGLmAUCSa
BvC1cSbUStsXx4nVZ8IdwYZmrV4x7wnq5V3GRpO3cmh7d4ma6s/s1aB+JfQtMkfF
fYsQqZ+D4LBKM6LC0Vm3Y2QcPD2NjLn3geNMj9u81q4RCFU2q3TcuYQ5q5Qw9/xF
LRp4BRdrzbaA9lyCwKI=
-----END CERTIFICATE-----
