Certificate:
    Data:
        Version: 3 (0x2)
        Serial Number: 11042563100190 (0xa0b0c0d0e1e)
    Signature Algorithm: sha256WithRSAEncryption
        Issuer: CN=GOACA_CA, C=IN, O=CITRIX, OU=ANG, ST=KA/emailAddress=GOACA_CA@GOACA_mail.com
        Validity
            Not Before: Jul  8 04:34:57 2016 GMT
            Not After : Jul  6 04:34:57 2026 GMT
        Subject: ST=KA, C=IN, CN=116_GOACA_server/emailAddress=116_GOACA@test_ca.com, O=CITRIX
        Subject Public Key Info:
            Public Key Algorithm: rsaEncryption
                Public-Key: (2048 bit)
                Modulus:
                    00:be:5b:55:68:95:b6:84:ef:16:96:25:27:db:86:
                    0c:38:cb:58:ea:74:f3:f3:b9:48:ef:53:63:a0:cc:
                    6b:2b:a9:82:44:76:8a:c2:a4:fb:65:f0:2b:03:e3:
                    7c:58:d1:7a:f0:3e:cb:d7:2a:00:4a:f5:9c:65:71:
                    b9:d2:92:b2:e4:83:f0:80:96:d0:08:ec:22:85:05:
                    8b:a6:43:30:75:82:69:dc:5a:ad:80:d5:ce:90:68:
                    0c:36:e0:4a:71:d4:33:b4:e4:c3:8e:85:23:c9:2d:
                    df:af:22:01:d4:70:44:3f:4b:0a:0a:3c:3b:c6:35:
                    2e:93:b3:cf:73:74:84:96:a6:7c:e7:d4:df:bf:2c:
                    95:6b:26:de:37:12:d7:58:b1:45:e5:58:96:e5:5f:
                    49:a2:ec:10:80:80:1f:f3:47:e3:12:70:b7:4b:09:
                    cf:11:48:ab:d7:0b:0d:8a:a5:42:76:6d:92:0f:b7:
                    7c:90:45:2c:7b:53:d0:3d:3b:e8:c5:fc:3d:3e:22:
                    67:a4:4e:d5:05:91:c7:9c:c1:22:cb:12:d6:47:fc:
                    7f:ad:dd:b2:9c:ec:31:f2:e1:bf:7d:3a:48:4a:da:
                    bf:c9:85:6d:d1:03:e8:67:a1:07:51:fe:91:c5:08:
                    34:2b:28:39:c9:88:d7:49:4b:b5:e7:1d:9a:45:ff:
                    52:1f
                Exponent: 65537 (0x10001)
        X509v3 extensions:
            Netscape Cert Type: 
                SSL Server
            X509v3 Subject Key Identifier: 
                5C:90:FE:FE:1C:96:2F:7F:AD:0F:5E:3F:60:F2:27:93:E1:48:E5:3B
            X509v3 Authority Key Identifier: 
                keyid:81:03:00:D4:DC:70:D9:A7:03:08:1E:DC:9B:4C:AC:E6:59:CD:39:68
                DirName:/CN=GOACA_CA/C=IN/O=CITRIX/OU=ANG/ST=KA/emailAddress=GOACA_CA@GOACA_mail.com
                serial:FC:8B:0A:90:01:17:5F:1C

            Authority Information Access: 
                OCSP - URI:http://GOACA_two.ocsptest.com/responderpath

    Signature Algorithm: sha256WithRSAEncryption
         45:a1:ce:71:43:69:e1:88:a5:e2:8c:e8:93:45:f6:1b:6d:53:
         32:a7:62:a2:be:82:93:0e:ac:e5:dd:50:c7:f4:e6:af:fa:3d:
         91:52:ed:ef:67:0a:70:3c:1f:18:e9:5e:12:f8:42:63:1e:92:
         6d:77:81:50:c6:a9:e0:89:e7:4f:16:5c:3b:91:b7:47:7b:ff:
         25:38:4d:54:d7:4b:fb:74:f8:00:05:37:6b:b1:e6:f6:a0:5b:
         8d:18:c0:07:e4:73:ab:03:26:ed:ae:07:0f:81:f5:df:98:3d:
         c4:6d:6f:0f:11:8a:70:7a:67:09:46:66:23:95:19:eb:86:49:
         e8:66:85:39:44:0d:c3:e7:61:57:16:bb:7a:12:6a:63:95:e4:
         cf:ff:1c:02:ca:76:9b:f8:79:5d:da:8f:15:51:9e:8c:4b:f6:
         44:7a:31:78:c5:91:77:25:bd:7c:0f:d3:af:f6:af:1c:6d:07:
         51:d0:71:00:dc:08:03:01:3d:1f:92:f9:84:1c:65:07:d0:64:
         b0:98:37:8a:66:2e:43:19:98:8a:74:2f:ed:ea:6a:6f:cb:e9:
         51:0e:d0:54:7a:5f:10:c3:9a:63:b7:9a:80:6e:6f:3d:b9:4a:
         5e:a4:e4:27:52:e5:ff:c8:80:15:32:e6:88:df:dc:49:9a:34:
         f0:d4:e0:73
-----BEGIN CERTIFICATE-----
MIIEijCCA3KgAwIBAgIGCgsMDQ4eMA0GCSqGSIb3DQEBCwUAMHQxETAPBgNVBAMU
CEdPQUNBX0NBMQswCQYDVQQGEwJJTjEPMA0GA1UEChMGQ0lUUklYMQwwCgYDVQQL
EwNBTkcxCzAJBgNVBAgTAktBMSYwJAYJKoZIhvcNAQkBFhdHT0FDQV9DQUBHT0FD
QV9tYWlsLmNvbTAeFw0xNjA3MDgwNDM0NTdaFw0yNjA3MDYwNDM0NTdaMGwxCzAJ
BgNVBAgTAktBMQswCQYDVQQGEwJJTjEZMBcGA1UEAxQQMTE2X0dPQUNBX3NlcnZl
cjEkMCIGCSqGSIb3DQEJARYVMTE2X0dPQUNBQHRlc3RfY2EuY29tMQ8wDQYDVQQK
EwZDSVRSSVgwggEiMA0GCSqGSIb3DQEBAQUAA4IBDwAwggEKAoIBAQC+W1VolbaE
7xaWJSfbhgw4y1jqdPPzuUjvU2OgzGsrqYJEdorCpPtl8CsD43xY0XrwPsvXKgBK
9ZxlcbnSkrLkg/CAltAI7CKFBYumQzB1gmncWq2A1c6QaAw24Epx1DO05MOOhSPJ
Ld+vIgHUcEQ/SwoKPDvGNS6Ts89zdISWpnzn1N+/LJVrJt43EtdYsUXlWJblX0mi
7BCAgB/zR+MScLdLCc8RSKvXCw2KpUJ2bZIPt3yQRSx7U9A9O+jF/D0+ImekTtUF
kcecwSLLEtZH/H+t3bKc7DHy4b99OkhK2r/JhW3RA+hnoQdR/pHFCDQrKDnJiNdJ
S7XnHZpF/1IfAgMBAAGjggEoMIIBJDARBglghkgBhvhCAQEEBAMCBkAwHQYDVR0O
BBYEFFyQ/v4cli9/rQ9eP2DyJ5PhSOU7MIGmBgNVHSMEgZ4wgZuAFIEDANTccNmn
Awge3JtMrOZZzTlooXikdjB0MREwDwYDVQQDFAhHT0FDQV9DQTELMAkGA1UEBhMC
SU4xDzANBgNVBAoTBkNJVFJJWDEMMAoGA1UECxMDQU5HMQswCQYDVQQIEwJLQTEm
MCQGCSqGSIb3DQEJARYXR09BQ0FfQ0FAR09BQ0FfbWFpbC5jb22CCQD8iwqQARdf
HDBHBggrBgEFBQcBAQQ7MDkwNwYIKwYBBQUHMAGGK2h0dHA6Ly9HT0FDQV90d28u
b2NzcHRlc3QuY29tL3Jlc3BvbmRlcnBhdGgwDQYJKoZIhvcNAQELBQADggEBAEWh
znFDaeGIpeKM6JNF9httUzKnYqK+gpMOrOXdUMf05q/6PZFS7e9nCnA8HxjpXhL4
QmMekm13gVDGqeCJ508WXDuRt0d7/yU4TVTXS/t0+AAFN2ux5vagW40YwAfkc6sD
Ju2uBw+B9d+YPcRtbw8RinB6ZwlGZiOVGeuGSehmhTlEDcPnYVcWu3oSamOV5M//
HALKdpv4eV3ajxVRnoxL9kR6MXjFkXclvXwP06/2rxxtB1HQcQDcCAMBPR+S+YQc
ZQfQZLCYN4pmLkMZmIp0L+3qam/L6VEO0FR6XxDDmmO3moBubz25Sl6k5CdS5f/I
gBUy5ojf3EmaNPDU4HM=
-----END CERTIFICATE-----
