Certificate:
    Data:
        Version: 3 (0x2)
        Serial Number: 11042563100195 (0xa0b0c0d0e23)
    Signature Algorithm: sha256WithRSAEncryption
        Issuer: CN=GOACA_CA, C=IN, O=CITRIX, OU=ANG, ST=KA/emailAddress=GOACA_CA@GOACA_mail.com
        Validity
            Not Before: Jul  8 04:34:58 2016 GMT
            Not After : Jul  6 04:34:58 2026 GMT
        Subject: ST=KA, C=IN, CN=121_GOACA_server/emailAddress=121_GOACA@test_ca.com, O=CITRIX
        Subject Public Key Info:
            Public Key Algorithm: rsaEncryption
                Public-Key: (2048 bit)
                Modulus:
                    00:d6:3e:e0:d6:22:d1:86:d7:d8:d6:28:3c:e8:9a:
                    5b:d8:0c:f4:0b:d0:1e:ed:67:0d:8b:6d:fb:7b:00:
                    b8:38:b4:b4:e9:aa:7f:94:24:b2:1e:92:d0:f3:cc:
                    30:3f:41:2a:b8:50:3d:62:b0:54:29:b3:ec:4c:e9:
                    eb:18:ae:4c:5f:1a:ba:52:dc:58:7c:58:cf:de:c9:
                    19:b9:d9:1a:b9:79:e9:32:fe:60:19:82:1f:45:80:
                    f1:36:9e:c4:0f:88:75:6b:df:5f:52:f1:5b:9a:55:
                    85:db:4d:39:86:55:6e:23:f3:29:70:d8:0f:02:1b:
                    4d:74:6c:e9:51:d5:62:0f:63:c8:4f:b0:d5:f6:84:
                    2f:9c:6a:98:0f:c4:ca:15:e6:e6:14:d5:e9:2a:79:
                    04:03:ad:26:11:d2:ce:42:c5:bd:4e:bc:3d:76:4e:
                    f8:ef:7a:71:4c:78:d9:ee:82:74:03:9a:a4:9a:9d:
                    9e:4d:0b:0c:e9:64:84:44:34:fc:9b:72:88:45:7b:
                    bd:59:fb:a2:37:65:02:94:b5:40:3b:06:92:7e:b7:
                    18:16:d9:10:ae:32:1e:7e:b3:95:5b:aa:67:5c:01:
                    09:21:3b:4e:ff:59:21:3e:3d:43:62:52:ec:82:c8:
                    ff:72:4f:05:cb:a1:06:28:fd:bd:bb:64:39:d2:54:
                    16:ed
                Exponent: 65537 (0x10001)
        X509v3 extensions:
            Netscape Cert Type: 
                SSL Server
            X509v3 Subject Key Identifier: 
                2E:58:8E:9C:3B:C7:DD:A6:58:98:C0:FE:4B:F6:AB:BF:6D:7D:9C:F5
            X509v3 Authority Key Identifier: 
                keyid:81:03:00:D4:DC:70:D9:A7:03:08:1E:DC:9B:4C:AC:E6:59:CD:39:68
                DirName:/CN=GOACA_CA/C=IN/O=CITRIX/OU=ANG/ST=KA/emailAddress=GOACA_CA@GOACA_mail.com
                serial:FC:8B:0A:90:01:17:5F:1C

            Authority Information Access: 
                OCSP - URI:http://172.21.10.1/responderpath

    Signature Algorithm: sha256WithRSAEncryption
         62:7f:d6:aa:86:54:20:a7:42:d9:c2:d0:33:99:84:39:a5:83:
         68:5c:87:a7:be:82:a2:71:31:20:43:f0:af:65:2b:e3:fe:8d:
         1a:03:56:07:09:a9:31:a2:43:e9:b4:fb:f3:f8:7e:c8:50:03:
         cd:ed:f2:58:30:9c:bc:9c:da:01:03:57:78:50:99:04:50:98:
         d7:47:8f:58:1a:56:7f:73:98:c5:e7:83:b4:97:cc:61:d2:dc:
         72:c4:08:fb:60:df:2a:39:24:1d:48:8a:c2:62:90:32:4f:2b:
         f1:fb:41:c5:b7:32:7c:92:19:07:37:79:4c:70:5f:c1:7f:1e:
         dc:a0:56:8f:63:56:a0:96:eb:cf:01:ce:62:3a:e4:4a:7d:cc:
         56:1c:9e:98:a8:81:7f:bd:63:cf:55:e9:37:33:93:00:af:ce:
         0e:b4:1c:89:8b:b5:6e:ad:51:66:f6:09:46:97:4f:21:28:f6:
         70:b7:38:98:04:9e:af:db:65:e9:a0:63:0e:0c:d7:24:36:51:
         6b:04:8e:8e:9e:2a:47:22:7b:5d:36:d4:1d:ec:ed:f0:38:be:
         15:bf:96:9f:ad:46:60:48:b1:cd:3f:89:af:5e:b0:9d:bc:fa:
         07:fe:3f:16:27:89:1a:7a:2d:9a:af:40:49:40:47:99:2e:d4:
         7a:ee:a2:c1
-----BEGIN CERTIFICATE-----
MIIEfzCCA2egAwIBAgIGCgsMDQ4jMA0GCSqGSIb3DQEBCwUAMHQxETAPBgNVBAMU
CEdPQUNBX0NBMQswCQYDVQQGEwJJTjEPMA0GA1UEChMGQ0lUUklYMQwwCgYDVQQL
EwNBTkcxCzAJBgNVBAgTAktBMSYwJAYJKoZIhvcNAQkBFhdHT0FDQV9DQUBHT0FD
QV9tYWlsLmNvbTAeFw0xNjA3MDgwNDM0NThaFw0yNjA3MDYwNDM0NThaMGwxCzAJ
BgNVBAgTAktBMQswCQYDVQQGEwJJTjEZMBcGA1UEAxQQMTIxX0dPQUNBX3NlcnZl
cjEkMCIGCSqGSIb3DQEJARYVMTIxX0dPQUNBQHRlc3RfY2EuY29tMQ8wDQYDVQQK
EwZDSVRSSVgwggEiMA0GCSqGSIb3DQEBAQUAA4IBDwAwggEKAoIBAQDWPuDWItGG
19jWKDzomlvYDPQL0B7tZw2Lbft7ALg4tLTpqn+UJLIektDzzDA/QSq4UD1isFQp
s+xM6esYrkxfGrpS3Fh8WM/eyRm52Rq5eeky/mAZgh9FgPE2nsQPiHVr319S8Vua
VYXbTTmGVW4j8ylw2A8CG010bOlR1WIPY8hPsNX2hC+capgPxMoV5uYU1ekqeQQD
rSYR0s5Cxb1OvD12TvjvenFMeNnugnQDmqSanZ5NCwzpZIRENPybcohFe71Z+6I3
ZQKUtUA7BpJ+txgW2RCuMh5+s5VbqmdcAQkhO07/WSE+PUNiUuyCyP9yTwXLoQYo
/b27ZDnSVBbtAgMBAAGjggEdMIIBGTARBglghkgBhvhCAQEEBAMCBkAwHQYDVR0O
BBYEFC5Yjpw7x92mWJjA/kv2q79tfZz1MIGmBgNVHSMEgZ4wgZuAFIEDANTccNmn
Awge3JtMrOZZzTlooXikdjB0MREwDwYDVQQDFAhHT0FDQV9DQTELMAkGA1UEBhMC
SU4xDzANBgNVBAoTBkNJVFJJWDEMMAoGA1UECxMDQU5HMQswCQYDVQQIEwJLQTEm
MCQGCSqGSIb3DQEJARYXR09BQ0FfQ0FAR09BQ0FfbWFpbC5jb22CCQD8iwqQARdf
HDA8BggrBgEFBQcBAQQwMC4wLAYIKwYBBQUHMAGGIGh0dHA6Ly8xNzIuMjEuMTAu
MS9yZXNwb25kZXJwYXRoMA0GCSqGSIb3DQEBCwUAA4IBAQBif9aqhlQgp0LZwtAz
mYQ5pYNoXIenvoKicTEgQ/CvZSvj/o0aA1YHCakxokPptPvz+H7IUAPN7fJYMJy8
nNoBA1d4UJkEUJjXR49YGlZ/c5jF54O0l8xh0txyxAj7YN8qOSQdSIrCYpAyTyvx
+0HFtzJ8khkHN3lMcF/Bfx7coFaPY1agluvPAc5iOuRKfcxWHJ6YqIF/vWPPVek3
M5MAr84OtByJi7VurVFm9glGl08hKPZwtziYBJ6v22XpoGMODNckNlFrBI6OnipH
IntdNtQd7O3wOL4Vv5afrUZgSLHNP4mvXrCdvPoH/j8WJ4kaei2ar0BJQEeZLtR6
7qLB
-----END CERTIFICATE-----
