Certificate:
    Data:
        Version: 3 (0x2)
        Serial Number: 11042563100197 (0xa0b0c0d0e25)
    Signature Algorithm: sha256WithRSAEncryption
        Issuer: CN=GOACA_CA, C=IN, O=CITRIX, OU=ANG, ST=KA/emailAddress=GOACA_CA@GOACA_mail.com
        Validity
            Not Before: Jul  8 04:34:58 2016 GMT
            Not After : Jul  6 04:34:58 2026 GMT
        Subject: ST=KA, C=IN, CN=123_GOACA_server/emailAddress=123_GOACA@test_ca.com, O=CITRIX
        Subject Public Key Info:
            Public Key Algorithm: rsaEncryption
                Public-Key: (2048 bit)
                Modulus:
                    00:a7:0e:a6:75:56:65:05:ee:fc:68:2c:61:23:89:
                    ad:69:55:12:fd:13:ba:a1:c6:cd:80:04:d4:29:02:
                    44:83:cc:d1:2b:d7:54:16:a2:fc:55:77:4f:b6:4e:
                    33:2e:db:eb:8f:0d:32:93:f3:a3:37:fb:cc:e0:6a:
                    da:54:63:53:be:b8:07:04:3d:0b:e0:1c:9d:69:9b:
                    24:bd:80:dd:50:d8:06:90:18:f8:3b:9c:62:43:e0:
                    11:92:4c:3c:5a:54:2c:cc:b1:a2:ef:c4:95:da:b3:
                    cd:39:4f:8d:93:3c:e7:ee:35:d0:e1:d8:8e:61:cc:
                    58:1c:a3:4b:47:97:5e:c8:bf:4f:76:17:00:c3:2a:
                    0f:b1:80:59:4b:f9:ff:49:0f:b9:ae:73:f4:50:73:
                    4e:02:d0:50:2d:25:e8:31:eb:e6:2f:3b:92:0e:6e:
                    7a:53:b2:6d:42:0f:a8:87:25:c8:f7:f2:fa:8f:ae:
                    c2:df:c2:5c:26:8d:77:e6:fc:66:5e:0c:cb:f1:fc:
                    96:60:4a:a0:b8:f8:32:c1:b5:ba:f6:19:76:f0:48:
                    fe:0e:fb:2a:93:96:c9:50:2a:19:1d:4b:71:99:0c:
                    b8:29:e0:03:97:07:61:e7:45:07:46:56:03:38:0d:
                    ad:d8:fd:f3:7b:01:ae:6d:94:90:48:2a:61:14:80:
                    35:e3
                Exponent: 65537 (0x10001)
        X509v3 extensions:
            Netscape Cert Type: 
                SSL Server
            X509v3 Subject Key Identifier: 
                18:69:D4:A8:AB:8D:F3:76:2A:8B:1B:BC:B3:BC:91:A3:42:AC:E1:A2
            X509v3 Authority Key Identifier: 
                keyid:81:03:00:D4:DC:70:D9:A7:03:08:1E:DC:9B:4C:AC:E6:59:CD:39:68
                DirName:/CN=GOACA_CA/C=IN/O=CITRIX/OU=ANG/ST=KA/emailAddress=GOACA_CA@GOACA_mail.com
                serial:FC:8B:0A:90:01:17:5F:1C

            Authority Information Access: 
                OCSP - URI:http://172.21.10.1/responderpath

    Signature Algorithm: sha256WithRSAEncryption
         bf:eb:8b:45:64:df:b0:68:86:4e:4f:6e:7b:5f:46:35:9c:8e:
         15:31:a8:20:56:10:ca:73:a6:39:d8:ce:c9:05:14:48:5e:0c:
         c6:71:29:c6:d1:95:7d:f4:8b:5a:45:51:73:93:2a:3f:2a:60:
         30:cb:84:57:d7:fe:04:93:d2:43:6e:3d:64:6c:43:88:43:a4:
         21:e7:71:7a:11:9c:b4:97:d6:54:50:05:37:76:a9:99:ac:67:
         53:6c:f2:2e:7d:ec:31:cf:31:b5:ce:1b:51:0a:aa:d5:dc:a0:
         55:96:12:c7:2d:b4:59:2c:df:7a:68:04:06:7e:87:61:6f:3c:
         2f:34:b8:52:2d:99:f6:2d:4c:7e:f3:b8:cc:0e:96:49:7e:e5:
         c9:43:ef:1b:84:1c:4a:57:16:3e:7b:5c:3e:6a:f3:a2:8f:19:
         50:44:c5:13:9a:a9:97:67:5a:4d:a5:54:3b:eb:39:e9:85:69:
         1a:ea:ff:29:b7:25:98:18:1e:1c:e3:87:e1:57:69:5b:7a:8d:
         8f:ca:52:6f:8b:25:e4:c5:e7:ab:39:bb:1d:74:72:62:d1:b4:
         23:c2:06:dc:fc:b4:32:51:a2:f2:b0:a1:88:55:88:38:0e:53:
         bc:ef:e0:1f:93:80:e3:01:52:9b:16:73:37:74:c1:46:66:56:
         c7:e8:af:3d
-----BEGIN CERTIFICATE-----
MIIEfzCCA2egAwIBAgIGCgsMDQ4lMA0GCSqGSIb3DQEBCwUAMHQxETAPBgNVBAMU
CEdPQUNBX0NBMQswCQYDVQQGEwJJTjEPMA0GA1UEChMGQ0lUUklYMQwwCgYDVQQL
EwNBTkcxCzAJBgNVBAgTAktBMSYwJAYJKoZIhvcNAQkBFhdHT0FDQV9DQUBHT0FD
QV9tYWlsLmNvbTAeFw0xNjA3MDgwNDM0NThaFw0yNjA3MDYwNDM0NThaMGwxCzAJ
BgNVBAgTAktBMQswCQYDVQQGEwJJTjEZMBcGA1UEAxQQMTIzX0dPQUNBX3NlcnZl
cjEkMCIGCSqGSIb3DQEJARYVMTIzX0dPQUNBQHRlc3RfY2EuY29tMQ8wDQYDVQQK
EwZDSVRSSVgwggEiMA0GCSqGSIb3DQEBAQUAA4IBDwAwggEKAoIBAQCnDqZ1VmUF
7vxoLGEjia1pVRL9E7qhxs2ABNQpAkSDzNEr11QWovxVd0+2TjMu2+uPDTKT86M3
+8zgatpUY1O+uAcEPQvgHJ1pmyS9gN1Q2AaQGPg7nGJD4BGSTDxaVCzMsaLvxJXa
s805T42TPOfuNdDh2I5hzFgco0tHl17Iv092FwDDKg+xgFlL+f9JD7muc/RQc04C
0FAtJegx6+YvO5IObnpTsm1CD6iHJcj38vqPrsLfwlwmjXfm/GZeDMvx/JZgSqC4
+DLBtbr2GXbwSP4O+yqTlslQKhkdS3GZDLgp4AOXB2HnRQdGVgM4Da3Y/fN7Aa5t
lJBIKmEUgDXjAgMBAAGjggEdMIIBGTARBglghkgBhvhCAQEEBAMCBkAwHQYDVR0O
BBYEFBhp1KirjfN2KosbvLO8kaNCrOGiMIGmBgNVHSMEgZ4wgZuAFIEDANTccNmn
Awge3JtMrOZZzTlooXikdjB0MREwDwYDVQQDFAhHT0FDQV9DQTELMAkGA1UEBhMC
SU4xDzANBgNVBAoTBkNJVFJJWDEMMAoGA1UECxMDQU5HMQswCQYDVQQIEwJLQTEm
MCQGCSqGSIb3DQEJARYXR09BQ0FfQ0FAR09BQ0FfbWFpbC5jb22CCQD8iwqQARdf
HDA8BggrBgEFBQcBAQQwMC4wLAYIKwYBBQUHMAGGIGh0dHA6Ly8xNzIuMjEuMTAu
MS9yZXNwb25kZXJwYXRoMA0GCSqGSIb3DQEBCwUAA4IBAQC/64tFZN+waIZOT257
X0Y1nI4VMaggVhDKc6Y52M7JBRRIXgzGcSnG0ZV99ItaRVFzkyo/KmAwy4RX1/4E
k9JDbj1kbEOIQ6Qh53F6EZy0l9ZUUAU3dqmZrGdTbPIufewxzzG1zhtRCqrV3KBV
lhLHLbRZLN96aAQGfodhbzwvNLhSLZn2LUx+87jMDpZJfuXJQ+8bhBxKVxY+e1w+
avOijxlQRMUTmqmXZ1pNpVQ76znphWka6v8ptyWYGB4c44fhV2lbeo2PylJviyXk
xeerObsddHJi0bQjwgbc/LQyUaLysKGIVYg4DlO87+Afk4DjAVKbFnM3dMFGZlbH
6K89
-----END CERTIFICATE-----
