Certificate:
    Data:
        Version: 3 (0x2)
        Serial Number: 11042563100198 (0xa0b0c0d0e26)
    Signature Algorithm: sha256WithRSAEncryption
        Issuer: CN=GOACA_CA, C=IN, O=CITRIX, OU=ANG, ST=KA/emailAddress=GOACA_CA@GOACA_mail.com
        Validity
            Not Before: Jul  8 04:34:59 2016 GMT
            Not After : Jul  6 04:34:59 2026 GMT
        Subject: ST=KA, C=IN, CN=124_GOACA_server/emailAddress=124_GOACA@test_ca.com, O=CITRIX
        Subject Public Key Info:
            Public Key Algorithm: rsaEncryption
                Public-Key: (2048 bit)
                Modulus:
                    00:b5:9a:3b:f2:44:c0:3a:6b:90:2d:62:d1:f4:17:
                    9e:37:d9:ab:5d:ee:22:11:a4:00:a8:dc:5c:fa:77:
                    2b:b5:2c:17:90:dc:03:e5:df:ed:57:ce:c5:bc:c9:
                    74:83:d5:89:64:18:82:83:62:a2:74:0f:f2:e9:eb:
                    79:36:39:d6:5b:48:a8:12:5f:85:3d:6c:2d:7d:d0:
                    18:13:f4:60:25:04:9c:53:02:e0:80:46:b1:1d:20:
                    18:81:58:91:33:0d:72:de:e5:4f:a1:b8:4c:2a:b9:
                    27:c8:d5:8e:96:d3:09:92:96:7f:9f:f8:90:6e:93:
                    61:35:e6:67:1f:31:b0:e6:94:5c:b2:8c:8a:55:87:
                    f0:eb:89:38:71:7f:06:79:7f:a4:cc:8b:98:8b:95:
                    a8:d3:e6:40:f1:89:20:f4:2d:be:ae:10:28:5e:8b:
                    44:9c:d6:26:3c:04:5a:2a:3c:22:ce:f8:d8:07:b2:
                    27:ae:38:ee:ce:43:6b:7d:ff:85:ac:0e:1c:54:1d:
                    75:78:66:f8:82:73:0d:bf:d3:e9:4f:2c:48:75:d2:
                    22:4d:af:eb:3f:6e:8d:33:4e:8e:d3:e8:5a:90:9d:
                    1d:d1:98:e8:7f:26:27:8b:70:a0:11:9e:92:d7:fd:
                    f4:47:72:6b:fe:68:7e:61:bb:17:71:d2:a8:5a:9d:
                    ae:2b
                Exponent: 65537 (0x10001)
        X509v3 extensions:
            Netscape Cert Type: 
                SSL Server
            X509v3 Subject Key Identifier: 
                13:26:B4:9D:5D:8B:37:03:64:ED:78:B9:AA:F8:AA:8E:15:AD:F4:BB
            X509v3 Authority Key Identifier: 
                keyid:81:03:00:D4:DC:70:D9:A7:03:08:1E:DC:9B:4C:AC:E6:59:CD:39:68
                DirName:/CN=GOACA_CA/C=IN/O=CITRIX/OU=ANG/ST=KA/emailAddress=GOACA_CA@GOACA_mail.com
                serial:FC:8B:0A:90:01:17:5F:1C

            Authority Information Access: 
                OCSP - URI:http://172.21.10.1/responderpath

    Signature Algorithm: sha256WithRSAEncryption
         86:5c:b6:46:61:f3:76:4a:70:95:2e:0f:57:8f:a4:6b:a3:23:
         04:ac:ff:69:32:db:96:27:91:cb:7e:94:6c:56:24:7b:76:26:
         5b:28:e9:97:0f:6d:58:a8:17:90:f5:23:40:78:6c:e6:d0:be:
         2e:5b:84:c0:1f:7a:3b:64:a3:89:58:a4:16:65:56:ee:31:a5:
         d7:40:77:ed:35:c3:c9:27:1c:b0:f3:df:dd:ac:21:0c:ab:50:
         63:2f:e6:10:4b:fe:67:a4:c4:d2:e5:4b:61:b0:52:a6:af:53:
         f9:4d:79:0c:9d:43:4a:48:7f:e8:12:40:bb:ce:de:57:6a:ae:
         d9:5e:60:f0:34:ae:56:e4:9d:ff:74:64:3a:3c:c9:0a:9b:4d:
         87:a4:5d:c6:c2:9c:d5:7c:2a:ce:67:16:26:24:79:a2:7d:6d:
         fc:3c:6c:9b:80:ee:dc:70:c8:1e:e2:4d:9d:fa:e1:64:25:0e:
         5f:5f:51:e1:22:36:71:51:5f:09:80:6d:63:ca:bc:0c:8f:e7:
         25:62:07:68:73:09:e6:28:d2:dd:45:4b:ca:c7:b7:00:08:2e:
         8d:7d:36:85:f3:aa:23:30:dc:7b:bb:09:56:a5:4a:57:55:2f:
         62:9e:83:bd:60:45:20:54:d8:1a:e4:16:c0:9c:86:9f:3c:03:
         54:fc:42:03
-----BEGIN CERTIFICATE-----
MIIEfzCCA2egAwIBAgIGCgsMDQ4mMA0GCSqGSIb3DQEBCwUAMHQxETAPBgNVBAMU
CEdPQUNBX0NBMQswCQYDVQQGEwJJTjEPMA0GA1UEChMGQ0lUUklYMQwwCgYDVQQL
EwNBTkcxCzAJBgNVBAgTAktBMSYwJAYJKoZIhvcNAQkBFhdHT0FDQV9DQUBHT0FD
QV9tYWlsLmNvbTAeFw0xNjA3MDgwNDM0NTlaFw0yNjA3MDYwNDM0NTlaMGwxCzAJ
BgNVBAgTAktBMQswCQYDVQQGEwJJTjEZMBcGA1UEAxQQMTI0X0dPQUNBX3NlcnZl
cjEkMCIGCSqGSIb3DQEJARYVMTI0X0dPQUNBQHRlc3RfY2EuY29tMQ8wDQYDVQQK
EwZDSVRSSVgwggEiMA0GCSqGSIb3DQEBAQUAA4IBDwAwggEKAoIBAQC1mjvyRMA6
a5AtYtH0F5432atd7iIRpACo3Fz6dyu1LBeQ3APl3+1XzsW8yXSD1YlkGIKDYqJ0
D/Lp63k2OdZbSKgSX4U9bC190BgT9GAlBJxTAuCARrEdIBiBWJEzDXLe5U+huEwq
uSfI1Y6W0wmSln+f+JBuk2E15mcfMbDmlFyyjIpVh/DriThxfwZ5f6TMi5iLlajT
5kDxiSD0Lb6uEChei0Sc1iY8BFoqPCLO+NgHsieuOO7OQ2t9/4WsDhxUHXV4ZviC
cw2/0+lPLEh10iJNr+s/bo0zTo7T6FqQnR3RmOh/JieLcKARnpLX/fRHcmv+aH5h
uxdx0qhana4rAgMBAAGjggEdMIIBGTARBglghkgBhvhCAQEEBAMCBkAwHQYDVR0O
BBYEFBMmtJ1dizcDZO14uar4qo4VrfS7MIGmBgNVHSMEgZ4wgZuAFIEDANTccNmn
Awge3JtMrOZZzTlooXikdjB0MREwDwYDVQQDFAhHT0FDQV9DQTELMAkGA1UEBhMC
SU4xDzANBgNVBAoTBkNJVFJJWDEMMAoGA1UECxMDQU5HMQswCQYDVQQIEwJLQTEm
MCQGCSqGSIb3DQEJARYXR09BQ0FfQ0FAR09BQ0FfbWFpbC5jb22CCQD8iwqQARdf
HDA8BggrBgEFBQcBAQQwMC4wLAYIKwYBBQUHMAGGIGh0dHA6Ly8xNzIuMjEuMTAu
MS9yZXNwb25kZXJwYXRoMA0GCSqGSIb3DQEBCwUAA4IBAQCGXLZGYfN2SnCVLg9X
j6RroyMErP9pMtuWJ5HLfpRsViR7diZbKOmXD21YqBeQ9SNAeGzm0L4uW4TAH3o7
ZKOJWKQWZVbuMaXXQHftNcPJJxyw89/drCEMq1BjL+YQS/5npMTS5UthsFKmr1P5
TXkMnUNKSH/oEkC7zt5Xaq7ZXmDwNK5W5J3/dGQ6PMkKm02HpF3GwpzVfCrOZxYm
JHmifW38PGybgO7ccMge4k2d+uFkJQ5fX1HhIjZxUV8JgG1jyrwMj+clYgdocwnm
KNLdRUvKx7cACC6NfTaF86ojMNx7uwlWpUpXVS9inoO9YEUgVNga5BbAnIafPANU
/EID
-----END CERTIFICATE-----
