Certificate:
    Data:
        Version: 3 (0x2)
        Serial Number: 11042563100199 (0xa0b0c0d0e27)
    Signature Algorithm: sha256WithRSAEncryption
        Issuer: CN=GOACA_CA, C=IN, O=CITRIX, OU=ANG, ST=KA/emailAddress=GOACA_CA@GOACA_mail.com
        Validity
            Not Before: Jul  8 04:34:59 2016 GMT
            Not After : Jul  6 04:34:59 2026 GMT
        Subject: ST=KA, C=IN, CN=125_GOACA_server/emailAddress=125_GOACA@test_ca.com, O=CITRIX
        Subject Public Key Info:
            Public Key Algorithm: rsaEncryption
                Public-Key: (2048 bit)
                Modulus:
                    00:cc:b7:0a:26:47:1f:f6:96:f1:60:94:14:29:ea:
                    f8:5c:db:b1:06:d7:2a:cd:4a:d1:da:b7:75:3f:7c:
                    b1:18:86:84:26:0d:e9:1c:27:97:ca:51:ad:d8:5d:
                    61:1b:5c:9d:3c:d1:ea:89:dd:8e:02:da:08:ae:5d:
                    ef:43:4a:45:0e:88:8f:9c:19:39:ab:4e:6e:c5:e5:
                    d2:64:99:f9:85:8d:8a:69:e7:0b:d1:4d:c4:56:c1:
                    a5:a6:aa:f8:15:37:be:5e:64:b4:35:45:84:b2:5a:
                    d8:51:06:d7:54:58:d0:0f:69:92:fe:7c:29:0d:ae:
                    3f:06:1b:bf:c8:c8:3d:88:bb:29:47:df:e2:99:2a:
                    78:12:12:80:4b:2f:c5:d6:ec:72:c5:86:d4:70:4f:
                    f8:60:b4:55:52:25:8e:e0:d1:99:3e:f3:61:a6:c6:
                    77:aa:9c:08:88:61:ad:58:72:e1:e8:91:3b:fd:d5:
                    13:af:6c:63:49:01:1f:03:72:07:de:09:2d:02:c4:
                    2b:70:4e:98:ab:f8:dc:dd:6c:41:06:db:8f:79:97:
                    ad:50:89:0b:2c:76:05:4d:93:81:2d:07:8c:16:9f:
                    c4:cc:53:7f:ff:19:02:9b:de:52:9f:cc:d1:85:6e:
                    79:ef:33:38:05:a7:a6:2c:76:9e:d1:52:66:e7:53:
                    55:71
                Exponent: 65537 (0x10001)
        X509v3 extensions:
            Netscape Cert Type: 
                SSL Server
            X509v3 Subject Key Identifier: 
                B6:7E:42:51:F3:18:FE:AF:A2:39:9E:38:AD:ED:9D:D2:3B:B7:6A:31
            X509v3 Authority Key Identifier: 
                keyid:81:03:00:D4:DC:70:D9:A7:03:08:1E:DC:9B:4C:AC:E6:59:CD:39:68
                DirName:/CN=GOACA_CA/C=IN/O=CITRIX/OU=ANG/ST=KA/emailAddress=GOACA_CA@GOACA_mail.com
                serial:FC:8B:0A:90:01:17:5F:1C

            Authority Information Access: 
                OCSP - URI:http://172.21.10.1/responderpath

    Signature Algorithm: sha256WithRSAEncryption
         55:b9:ad:30:f8:9c:91:79:f0:87:be:52:36:55:5f:89:c5:60:
         c7:a3:40:b8:d9:7f:59:1b:be:d3:d1:9f:43:33:42:6a:55:3b:
         ff:a5:71:6c:ae:df:36:e1:32:12:85:78:fe:55:0b:b9:b7:6b:
         2f:c1:1e:f8:bd:a4:02:5d:8f:d5:b6:de:7a:27:ab:94:ee:3a:
         51:e9:e3:c0:ff:2b:80:08:2d:71:bf:4a:44:47:03:3f:57:9e:
         6a:50:8c:f4:e7:b8:cf:23:63:fd:72:b8:d8:ec:4e:c4:af:20:
         5a:c4:2d:07:ec:f7:eb:08:87:54:f8:56:ac:63:50:2b:73:ef:
         13:60:2d:af:12:51:2a:dd:ce:67:ea:3b:40:08:36:74:78:1f:
         9c:fe:86:51:ee:32:dd:b5:f1:16:59:d0:98:5c:6a:62:13:e4:
         e0:e1:e7:10:5a:3e:c3:ea:28:f5:30:4b:d0:69:5b:6c:ab:87:
         68:a1:eb:02:63:aa:0d:e6:f4:49:56:8d:4a:0f:60:da:14:3a:
         2b:b9:3d:e9:5c:2b:14:a5:39:26:11:bf:14:90:2a:6b:01:88:
         a6:9f:57:1f:80:09:f1:7a:c6:f7:0b:fb:3e:5a:af:7f:ea:05:
         d3:ac:41:9f:ed:8f:9c:f4:dc:e6:cd:cf:bc:ac:f5:e8:8a:90:
         63:2d:a4:e1
-----BEGIN CERTIFICATE-----
MIIEfzCCA2egAwIBAgIGCgsMDQ4nMA0GCSqGSIb3DQEBCwUAMHQxETAPBgNVBAMU
CEdPQUNBX0NBMQswCQYDVQQGEwJJTjEPMA0GA1UEChMGQ0lUUklYMQwwCgYDVQQL
EwNBTkcxCzAJBgNVBAgTAktBMSYwJAYJKoZIhvcNAQkBFhdHT0FDQV9DQUBHT0FD
QV9tYWlsLmNvbTAeFw0xNjA3MDgwNDM0NTlaFw0yNjA3MDYwNDM0NTlaMGwxCzAJ
BgNVBAgTAktBMQswCQYDVQQGEwJJTjEZMBcGA1UEAxQQMTI1X0dPQUNBX3NlcnZl
cjEkMCIGCSqGSIb3DQEJARYVMTI1X0dPQUNBQHRlc3RfY2EuY29tMQ8wDQYDVQQK
EwZDSVRSSVgwggEiMA0GCSqGSIb3DQEBAQUAA4IBDwAwggEKAoIBAQDMtwomRx/2
lvFglBQp6vhc27EG1yrNStHat3U/fLEYhoQmDekcJ5fKUa3YXWEbXJ080eqJ3Y4C
2giuXe9DSkUOiI+cGTmrTm7F5dJkmfmFjYpp5wvRTcRWwaWmqvgVN75eZLQ1RYSy
WthRBtdUWNAPaZL+fCkNrj8GG7/IyD2IuylH3+KZKngSEoBLL8XW7HLFhtRwT/hg
tFVSJY7g0Zk+82GmxneqnAiIYa1YcuHokTv91ROvbGNJAR8DcgfeCS0CxCtwTpir
+NzdbEEG2495l61QiQssdgVNk4EtB4wWn8TMU3//GQKb3lKfzNGFbnnvMzgFp6Ys
dp7RUmbnU1VxAgMBAAGjggEdMIIBGTARBglghkgBhvhCAQEEBAMCBkAwHQYDVR0O
BBYEFLZ+QlHzGP6vojmeOK3tndI7t2oxMIGmBgNVHSMEgZ4wgZuAFIEDANTccNmn
Awge3JtMrOZZzTlooXikdjB0MREwDwYDVQQDFAhHT0FDQV9DQTELMAkGA1UEBhMC
SU4xDzANBgNVBAoTBkNJVFJJWDEMMAoGA1UECxMDQU5HMQswCQYDVQQIEwJLQTEm
MCQGCSqGSIb3DQEJARYXR09BQ0FfQ0FAR09BQ0FfbWFpbC5jb22CCQD8iwqQARdf
HDA8BggrBgEFBQcBAQQwMC4wLAYIKwYBBQUHMAGGIGh0dHA6Ly8xNzIuMjEuMTAu
MS9yZXNwb25kZXJwYXRoMA0GCSqGSIb3DQEBCwUAA4IBAQBVua0w+JyRefCHvlI2
VV+JxWDHo0C42X9ZG77T0Z9DM0JqVTv/pXFsrt824TIShXj+VQu5t2svwR74vaQC
XY/Vtt56J6uU7jpR6ePA/yuACC1xv0pERwM/V55qUIz057jPI2P9crjY7E7EryBa
xC0H7PfrCIdU+FasY1Arc+8TYC2vElEq3c5n6jtACDZ0eB+c/oZR7jLdtfEWWdCY
XGpiE+Tg4ecQWj7D6ij1MEvQaVtsq4dooesCY6oN5vRJVo1KD2DaFDoruT3pXCsU
pTkmEb8UkCprAYimn1cfgAnxesb3C/s+Wq9/6gXTrEGf7Y+c9Nzmzc+8rPXoipBj
LaTh
-----END CERTIFICATE-----
