Certificate:
    Data:
        Version: 3 (0x2)
        Serial Number: 11042563100205 (0xa0b0c0d0e2d)
    Signature Algorithm: sha256WithRSAEncryption
        Issuer: CN=GOACA_CA, C=IN, O=CITRIX, OU=ANG, ST=KA/emailAddress=GOACA_CA@GOACA_mail.com
        Validity
            Not Before: Jul  8 04:35:01 2016 GMT
            Not After : Jul  6 04:35:01 2026 GMT
        Subject: ST=KA, C=IN, CN=131_GOACA_server/emailAddress=131_GOACA@test_ca.com, O=CITRIX
        Subject Public Key Info:
            Public Key Algorithm: rsaEncryption
                Public-Key: (2048 bit)
                Modulus:
                    00:c8:48:da:25:bb:63:ec:f9:e4:9a:16:2d:32:83:
                    5b:6d:fa:d0:9d:75:e1:ab:f8:9f:f0:88:7c:43:d4:
                    01:bc:7d:50:90:e8:01:67:e2:39:67:33:95:be:0c:
                    8c:9e:7b:54:3c:22:97:d1:ac:fc:0b:aa:b5:5b:68:
                    f4:b5:d5:9b:b9:12:e1:73:a6:5c:a2:ae:42:45:c0:
                    f3:d1:6f:ac:39:bf:62:af:cc:38:ed:d7:c3:3e:56:
                    3c:7b:f4:55:eb:2b:ea:51:22:b9:f0:f5:30:4c:f6:
                    b9:77:40:55:60:3e:3f:62:19:ba:04:a5:f6:57:06:
                    3b:51:7f:32:10:6d:ac:ba:9b:b2:9f:ec:ff:cb:c7:
                    25:c8:21:3e:c9:e8:c8:47:04:6c:bf:98:85:96:f7:
                    19:61:f1:72:bf:01:81:9f:b0:51:eb:2b:21:db:dc:
                    cc:6f:b3:b5:12:3d:99:a2:2f:f5:b4:8b:6c:48:a9:
                    5d:76:4a:16:34:5e:43:76:e7:96:11:b4:f5:e8:24:
                    35:23:76:07:a8:9e:83:fe:80:6a:e0:62:e9:9a:2c:
                    90:7a:7e:ba:f0:25:9c:27:6d:82:32:3d:2b:11:c1:
                    d5:75:da:f4:95:db:a6:55:40:73:33:16:92:b7:2c:
                    31:3b:6c:1a:db:32:f1:5d:d9:b2:f2:12:52:28:b3:
                    31:f1
                Exponent: 65537 (0x10001)
        X509v3 extensions:
            Netscape Cert Type: 
                SSL Server
            X509v3 Subject Key Identifier: 
                27:C8:18:F6:DE:F4:5F:62:69:F0:05:E0:B5:89:B3:FF:16:E4:C1:74
            X509v3 Authority Key Identifier: 
                keyid:81:03:00:D4:DC:70:D9:A7:03:08:1E:DC:9B:4C:AC:E6:59:CD:39:68
                DirName:/CN=GOACA_CA/C=IN/O=CITRIX/OU=ANG/ST=KA/emailAddress=GOACA_CA@GOACA_mail.com
                serial:FC:8B:0A:90:01:17:5F:1C

            Authority Information Access: 
                OCSP - URI:http://172.21.20.1/responderpath

    Signature Algorithm: sha256WithRSAEncryption
         24:70:d0:e3:92:e3:9f:0d:bf:25:72:86:75:a6:93:ff:90:f8:
         53:0a:c6:f1:36:c7:d9:e5:53:c3:66:61:f6:66:05:df:32:88:
         de:9e:9b:d2:7b:54:2b:e0:0e:24:6a:ec:9a:ac:a7:af:37:6b:
         b1:a6:a8:d9:7e:a9:40:e3:80:09:0f:93:4f:8a:29:17:58:61:
         dd:20:6c:37:22:b8:28:27:ce:27:72:0b:08:9c:fe:7d:4e:a4:
         5a:3a:b2:e0:72:66:c6:c8:ee:c3:c1:68:2e:45:f9:b1:09:50:
         a0:f7:2b:e2:6d:dd:66:3d:0d:c9:8b:b7:0a:8a:01:36:13:13:
         8d:89:54:7e:0f:61:e1:93:63:e1:fa:b2:2d:cf:51:80:13:3a:
         7c:0a:8c:ca:79:1d:49:4a:3b:ae:30:3b:67:6c:f4:e0:62:3b:
         92:bd:39:6c:de:c9:93:d4:ba:b6:4f:a0:c3:c7:1f:29:da:27:
         72:ee:a4:20:a2:13:f5:e3:9f:7f:11:53:b6:83:44:7c:39:bf:
         3d:80:4a:31:78:9d:72:a2:1d:fe:dd:f3:98:4b:67:e0:55:24:
         93:54:a6:74:a0:97:18:ee:76:29:a1:af:6c:88:b5:9b:75:a1:
         bd:d1:1e:a9:5e:50:9f:e1:aa:70:3a:33:60:c7:a3:3c:f4:d7:
         3a:2d:4e:1b
-----BEGIN CERTIFICATE-----
MIIEfzCCA2egAwIBAgIGCgsMDQ4tMA0GCSqGSIb3DQEBCwUAMHQxETAPBgNVBAMU
CEdPQUNBX0NBMQswCQYDVQQGEwJJTjEPMA0GA1UEChMGQ0lUUklYMQwwCgYDVQQL
EwNBTkcxCzAJBgNVBAgTAktBMSYwJAYJKoZIhvcNAQkBFhdHT0FDQV9DQUBHT0FD
QV9tYWlsLmNvbTAeFw0xNjA3MDgwNDM1MDFaFw0yNjA3MDYwNDM1MDFaMGwxCzAJ
BgNVBAgTAktBMQswCQYDVQQGEwJJTjEZMBcGA1UEAxQQMTMxX0dPQUNBX3NlcnZl
cjEkMCIGCSqGSIb3DQEJARYVMTMxX0dPQUNBQHRlc3RfY2EuY29tMQ8wDQYDVQQK
EwZDSVRSSVgwggEiMA0GCSqGSIb3DQEBAQUAA4IBDwAwggEKAoIBAQDISNolu2Ps
+eSaFi0yg1tt+tCddeGr+J/wiHxD1AG8fVCQ6AFn4jlnM5W+DIyee1Q8IpfRrPwL
qrVbaPS11Zu5EuFzplyirkJFwPPRb6w5v2KvzDjt18M+Vjx79FXrK+pRIrnw9TBM
9rl3QFVgPj9iGboEpfZXBjtRfzIQbay6m7Kf7P/LxyXIIT7J6MhHBGy/mIWW9xlh
8XK/AYGfsFHrKyHb3Mxvs7USPZmiL/W0i2xIqV12ShY0XkN255YRtPXoJDUjdgeo
noP+gGrgYumaLJB6frrwJZwnbYIyPSsRwdV12vSV26ZVQHMzFpK3LDE7bBrbMvFd
2bLyElIoszHxAgMBAAGjggEdMIIBGTARBglghkgBhvhCAQEEBAMCBkAwHQYDVR0O
BBYEFCfIGPbe9F9iafAF4LWJs/8W5MF0MIGmBgNVHSMEgZ4wgZuAFIEDANTccNmn
Awge3JtMrOZZzTlooXikdjB0MREwDwYDVQQDFAhHT0FDQV9DQTELMAkGA1UEBhMC
SU4xDzANBgNVBAoTBkNJVFJJWDEMMAoGA1UECxMDQU5HMQswCQYDVQQIEwJLQTEm
MCQGCSqGSIb3DQEJARYXR09BQ0FfQ0FAR09BQ0FfbWFpbC5jb22CCQD8iwqQARdf
HDA8BggrBgEFBQcBAQQwMC4wLAYIKwYBBQUHMAGGIGh0dHA6Ly8xNzIuMjEuMjAu
MS9yZXNwb25kZXJwYXRoMA0GCSqGSIb3DQEBCwUAA4IBAQAkcNDjkuOfDb8lcoZ1
ppP/kPhTCsbxNsfZ5VPDZmH2ZgXfMojenpvSe1Qr4A4kauyarKevN2uxpqjZfqlA
44AJD5NPiikXWGHdIGw3IrgoJ84ncgsInP59TqRaOrLgcmbGyO7DwWguRfmxCVCg
9yvibd1mPQ3Ji7cKigE2ExONiVR+D2Hhk2Ph+rItz1GAEzp8CozKeR1JSjuuMDtn
bPTgYjuSvTls3smT1Lq2T6DDxx8p2idy7qQgohP1459/EVO2g0R8Ob89gEoxeJ1y
oh3+3fOYS2fgVSSTVKZ0oJcY7nYpoa9siLWbdaG90R6pXlCf4apwOjNgx6M89Nc6
LU4b
-----END CERTIFICATE-----
