Certificate:
    Data:
        Version: 3 (0x2)
        Serial Number: 11042563100207 (0xa0b0c0d0e2f)
    Signature Algorithm: sha256WithRSAEncryption
        Issuer: CN=GOACA_CA, C=IN, O=CITRIX, OU=ANG, ST=KA/emailAddress=GOACA_CA@GOACA_mail.com
        Validity
            Not Before: Jul  8 04:35:02 2016 GMT
            Not After : Jul  6 04:35:02 2026 GMT
        Subject: ST=KA, C=IN, CN=133_GOACA_server/emailAddress=133_GOACA@test_ca.com, O=CITRIX
        Subject Public Key Info:
            Public Key Algorithm: rsaEncryption
                Public-Key: (2048 bit)
                Modulus:
                    00:d1:33:eb:b3:8c:ee:9e:19:23:c6:83:0d:92:54:
                    03:40:66:8e:44:50:21:e9:5b:6c:b0:30:52:71:63:
                    85:b9:8c:8d:82:86:2c:dd:db:f7:43:c6:1a:7e:85:
                    c6:1c:7c:07:21:0b:ba:8d:61:cb:6c:8c:8c:f4:6f:
                    db:40:aa:1c:8f:4b:bf:29:f5:0b:bf:a3:df:50:92:
                    85:e7:ab:0a:a8:77:71:d1:96:b1:90:73:37:4b:60:
                    8f:c2:fd:fd:66:59:1e:47:a6:be:3b:7d:64:ef:40:
                    fc:e1:f8:f2:03:7b:bc:cb:48:15:5f:e4:af:3f:a7:
                    96:38:be:e5:00:39:3b:a0:cd:8f:db:61:9a:5e:dc:
                    ff:e9:8c:6f:05:f0:75:3d:18:62:39:b4:f8:51:22:
                    63:c9:2b:03:6c:ea:c0:bb:06:66:67:e5:51:d2:0c:
                    5a:25:4e:5b:95:f0:81:21:f2:2c:5d:0e:3b:fc:12:
                    9f:bd:1e:b5:4d:b9:e0:50:3d:53:cc:ce:d3:31:e3:
                    3a:43:23:d1:00:12:bd:34:53:92:ea:c0:d6:df:f0:
                    a6:f5:76:f6:5b:f5:25:12:43:da:b4:b6:1f:56:46:
                    4d:b9:a3:6d:e3:8b:35:1c:bc:c6:b4:2c:ad:96:f1:
                    1a:48:8d:19:cd:2a:48:a0:fe:1f:3d:a6:78:2c:6b:
                    1d:2b
                Exponent: 65537 (0x10001)
        X509v3 extensions:
            Netscape Cert Type: 
                SSL Server
            X509v3 Subject Key Identifier: 
                F0:04:60:64:74:6B:6E:7A:22:67:AD:7C:CA:1D:84:E8:B6:1B:1C:82
            X509v3 Authority Key Identifier: 
                keyid:81:03:00:D4:DC:70:D9:A7:03:08:1E:DC:9B:4C:AC:E6:59:CD:39:68
                DirName:/CN=GOACA_CA/C=IN/O=CITRIX/OU=ANG/ST=KA/emailAddress=GOACA_CA@GOACA_mail.com
                serial:FC:8B:0A:90:01:17:5F:1C

            Authority Information Access: 
                OCSP - URI:http://172.21.20.1/responderpath

    Signature Algorithm: sha256WithRSAEncryption
         0d:0b:4c:d9:3d:99:49:e2:06:c3:de:8b:9f:0c:4c:c5:8b:14:
         79:82:f2:9d:ac:af:73:6d:62:53:10:20:b7:7e:7c:fe:3d:1d:
         53:ef:12:94:75:27:68:3b:03:29:9a:4e:9f:85:f2:18:35:7f:
         59:25:87:3d:a9:9e:bc:85:d6:df:3a:cf:04:e2:8c:31:45:57:
         4d:c1:ab:8e:3b:52:96:d8:10:43:b7:da:b4:90:a9:13:9b:5a:
         18:8f:8d:61:bd:7e:3b:70:6e:b6:a2:03:fc:c3:3e:1e:ed:e7:
         1b:05:26:d1:9a:e5:a6:59:5f:ff:17:e4:ca:1a:80:30:3d:20:
         13:4b:c3:93:32:34:7a:2d:56:fd:b9:39:9d:64:60:38:41:49:
         8c:c3:d4:5e:b1:c7:9a:79:34:7c:8a:d9:b3:30:ee:f6:29:81:
         ce:e8:a8:2b:95:5a:16:b6:6f:e0:a3:fc:a3:31:82:a9:9b:f6:
         9c:3c:29:60:87:35:33:b3:ec:ee:b2:7f:8c:9f:e2:93:f5:44:
         a0:45:c9:1c:aa:81:be:d1:d4:ef:8c:41:3c:51:3f:f7:ba:3e:
         60:f9:d2:00:77:9b:b3:c8:aa:22:29:7d:11:69:ad:6f:1b:70:
         34:76:30:65:f5:70:4f:9d:35:fe:a7:47:4c:e3:4d:12:31:5a:
         3c:76:aa:30
-----BEGIN CERTIFICATE-----
MIIEfzCCA2egAwIBAgIGCgsMDQ4vMA0GCSqGSIb3DQEBCwUAMHQxETAPBgNVBAMU
CEdPQUNBX0NBMQswCQYDVQQGEwJJTjEPMA0GA1UEChMGQ0lUUklYMQwwCgYDVQQL
EwNBTkcxCzAJBgNVBAgTAktBMSYwJAYJKoZIhvcNAQkBFhdHT0FDQV9DQUBHT0FD
QV9tYWlsLmNvbTAeFw0xNjA3MDgwNDM1MDJaFw0yNjA3MDYwNDM1MDJaMGwxCzAJ
BgNVBAgTAktBMQswCQYDVQQGEwJJTjEZMBcGA1UEAxQQMTMzX0dPQUNBX3NlcnZl
cjEkMCIGCSqGSIb3DQEJARYVMTMzX0dPQUNBQHRlc3RfY2EuY29tMQ8wDQYDVQQK
EwZDSVRSSVgwggEiMA0GCSqGSIb3DQEBAQUAA4IBDwAwggEKAoIBAQDRM+uzjO6e
GSPGgw2SVANAZo5EUCHpW2ywMFJxY4W5jI2Chizd2/dDxhp+hcYcfAchC7qNYcts
jIz0b9tAqhyPS78p9Qu/o99QkoXnqwqod3HRlrGQczdLYI/C/f1mWR5Hpr47fWTv
QPzh+PIDe7zLSBVf5K8/p5Y4vuUAOTugzY/bYZpe3P/pjG8F8HU9GGI5tPhRImPJ
KwNs6sC7BmZn5VHSDFolTluV8IEh8ixdDjv8Ep+9HrVNueBQPVPMztMx4zpDI9EA
Er00U5LqwNbf8Kb1dvZb9SUSQ9q0th9WRk25o23jizUcvMa0LK2W8RpIjRnNKkig
/h89pngsax0rAgMBAAGjggEdMIIBGTARBglghkgBhvhCAQEEBAMCBkAwHQYDVR0O
BBYEFPAEYGR0a256ImetfModhOi2GxyCMIGmBgNVHSMEgZ4wgZuAFIEDANTccNmn
Awge3JtMrOZZzTlooXikdjB0MREwDwYDVQQDFAhHT0FDQV9DQTELMAkGA1UEBhMC
SU4xDzANBgNVBAoTBkNJVFJJWDEMMAoGA1UECxMDQU5HMQswCQYDVQQIEwJLQTEm
MCQGCSqGSIb3DQEJARYXR09BQ0FfQ0FAR09BQ0FfbWFpbC5jb22CCQD8iwqQARdf
HDA8BggrBgEFBQcBAQQwMC4wLAYIKwYBBQUHMAGGIGh0dHA6Ly8xNzIuMjEuMjAu
MS9yZXNwb25kZXJwYXRoMA0GCSqGSIb3DQEBCwUAA4IBAQANC0zZPZlJ4gbD3ouf
DEzFixR5gvKdrK9zbWJTECC3fnz+PR1T7xKUdSdoOwMpmk6fhfIYNX9ZJYc9qZ68
hdbfOs8E4owxRVdNwauOO1KW2BBDt9q0kKkTm1oYj41hvX47cG62ogP8wz4e7ecb
BSbRmuWmWV//F+TKGoAwPSATS8OTMjR6LVb9uTmdZGA4QUmMw9ResceaeTR8itmz
MO72KYHO6KgrlVoWtm/go/yjMYKpm/acPClghzUzs+zusn+Mn+KT9USgRckcqoG+
0dTvjEE8UT/3uj5g+dIAd5uzyKoiKX0Raa1vG3A0djBl9XBPnTX+p0dM400SMVo8
dqow
-----END CERTIFICATE-----
