Certificate:
    Data:
        Version: 3 (0x2)
        Serial Number: 11042563100209 (0xa0b0c0d0e31)
    Signature Algorithm: sha256WithRSAEncryption
        Issuer: CN=GOACA_CA, C=IN, O=CITRIX, OU=ANG, ST=KA/emailAddress=GOACA_CA@GOACA_mail.com
        Validity
            Not Before: Jul  8 04:35:03 2016 GMT
            Not After : Jul  6 04:35:03 2026 GMT
        Subject: ST=KA, C=IN, CN=135_GOACA_server/emailAddress=135_GOACA@test_ca.com, O=CITRIX
        Subject Public Key Info:
            Public Key Algorithm: rsaEncryption
                Public-Key: (2048 bit)
                Modulus:
                    00:cb:db:31:ba:18:d3:e7:eb:18:6a:d9:6f:8f:de:
                    60:04:1b:04:f9:e5:ce:55:f9:fe:d4:b0:41:5d:e8:
                    5a:06:ea:b5:0c:35:a4:07:b2:de:61:90:7b:6a:59:
                    62:08:5c:15:e4:9c:b9:f0:47:ee:0c:68:51:7f:70:
                    c6:63:6b:00:eb:ad:87:ca:99:8b:63:e8:a2:2d:57:
                    43:59:80:a7:d6:0f:bb:17:3a:f2:da:ce:8c:27:7b:
                    0d:6d:2b:51:43:1d:bb:a7:f6:c6:34:ff:25:10:16:
                    13:71:8f:67:9c:b4:9c:70:f5:1c:5b:78:90:8b:1f:
                    42:41:b0:51:2c:93:d2:af:fa:38:18:17:6c:3f:67:
                    ef:46:11:0b:86:a4:52:ba:ca:56:d7:e9:6a:43:6e:
                    e6:22:36:ec:cd:df:fe:ea:5d:70:8c:be:3c:46:eb:
                    ed:97:36:58:57:22:0f:3d:44:99:fa:9d:18:52:6b:
                    b0:ec:f9:b0:e5:48:6e:6c:35:af:8b:9c:5b:85:10:
                    d5:19:69:39:1b:da:37:ca:e1:c4:f8:a4:e8:2b:f2:
                    9c:20:35:22:ca:e6:6b:d5:e8:73:2f:24:0a:dc:c1:
                    dd:ad:93:63:39:27:3e:23:32:d8:23:ff:7b:51:42:
                    7a:cf:d8:5f:c8:62:dd:cb:65:57:71:a0:69:50:e2:
                    3a:af
                Exponent: 65537 (0x10001)
        X509v3 extensions:
            Netscape Cert Type: 
                SSL Server
            X509v3 Subject Key Identifier: 
                81:DA:DD:77:4F:AE:2E:BD:4F:6E:17:33:13:0D:41:D1:F2:B2:B2:A3
            X509v3 Authority Key Identifier: 
                keyid:81:03:00:D4:DC:70:D9:A7:03:08:1E:DC:9B:4C:AC:E6:59:CD:39:68
                DirName:/CN=GOACA_CA/C=IN/O=CITRIX/OU=ANG/ST=KA/emailAddress=GOACA_CA@GOACA_mail.com
                serial:FC:8B:0A:90:01:17:5F:1C

            Authority Information Access: 
                OCSP - URI:http://172.21.20.1/responderpath

    Signature Algorithm: sha256WithRSAEncryption
         aa:89:bc:80:e8:0a:e6:9d:c1:0c:7e:0f:21:2f:e9:b9:66:e1:
         a2:5b:54:92:1b:47:01:51:c1:3e:8f:60:ea:60:5d:f7:d1:e8:
         e1:55:e3:a9:e0:bd:b8:ea:59:80:82:10:31:9a:00:94:da:c3:
         02:e9:1a:14:6d:8d:0c:4e:7c:31:14:b4:dc:54:8a:ad:4b:e3:
         a8:3e:97:2e:80:c3:82:f3:20:b7:be:90:ea:1b:16:36:26:7b:
         dc:d7:e2:9e:87:87:e8:45:6f:be:df:a7:f0:71:9c:5f:17:6d:
         bc:39:4f:e1:24:0a:05:14:2b:24:92:aa:51:b0:03:a7:3d:90:
         93:55:40:e1:bc:7a:df:8d:04:3b:5b:1f:b9:9d:02:fd:90:c0:
         e0:f3:02:45:4f:1a:f7:f8:ea:98:7d:7b:18:1f:fd:e9:41:9b:
         87:46:1c:7d:6d:18:51:ac:65:1b:95:f4:a1:f8:dd:a2:4c:fe:
         b5:e2:5f:45:8a:1b:a9:9a:62:e0:fe:ad:45:50:17:c0:e9:fe:
         ad:04:37:8e:d0:bc:45:e3:19:98:e1:2a:e5:43:f3:cc:0e:73:
         58:38:93:a2:97:6b:16:6f:71:32:62:a2:df:73:9a:d0:5b:65:
         dd:22:54:27:36:4a:ed:56:a2:20:8a:5a:62:06:d6:50:a0:2f:
         98:57:39:42
-----BEGIN CERTIFICATE-----
MIIEfzCCA2egAwIBAgIGCgsMDQ4xMA0GCSqGSIb3DQEBCwUAMHQxETAPBgNVBAMU
CEdPQUNBX0NBMQswCQYDVQQGEwJJTjEPMA0GA1UEChMGQ0lUUklYMQwwCgYDVQQL
EwNBTkcxCzAJBgNVBAgTAktBMSYwJAYJKoZIhvcNAQkBFhdHT0FDQV9DQUBHT0FD
QV9tYWlsLmNvbTAeFw0xNjA3MDgwNDM1MDNaFw0yNjA3MDYwNDM1MDNaMGwxCzAJ
BgNVBAgTAktBMQswCQYDVQQGEwJJTjEZMBcGA1UEAxQQMTM1X0dPQUNBX3NlcnZl
cjEkMCIGCSqGSIb3DQEJARYVMTM1X0dPQUNBQHRlc3RfY2EuY29tMQ8wDQYDVQQK
EwZDSVRSSVgwggEiMA0GCSqGSIb3DQEBAQUAA4IBDwAwggEKAoIBAQDL2zG6GNPn
6xhq2W+P3mAEGwT55c5V+f7UsEFd6FoG6rUMNaQHst5hkHtqWWIIXBXknLnwR+4M
aFF/cMZjawDrrYfKmYtj6KItV0NZgKfWD7sXOvLazownew1tK1FDHbun9sY0/yUQ
FhNxj2ectJxw9RxbeJCLH0JBsFEsk9Kv+jgYF2w/Z+9GEQuGpFK6ylbX6WpDbuYi
NuzN3/7qXXCMvjxG6+2XNlhXIg89RJn6nRhSa7Ds+bDlSG5sNa+LnFuFENUZaTkb
2jfK4cT4pOgr8pwgNSLK5mvV6HMvJArcwd2tk2M5Jz4jMtgj/3tRQnrP2F/IYt3L
ZVdxoGlQ4jqvAgMBAAGjggEdMIIBGTARBglghkgBhvhCAQEEBAMCBkAwHQYDVR0O
BBYEFIHa3XdPri69T24XMxMNQdHysrKjMIGmBgNVHSMEgZ4wgZuAFIEDANTccNmn
Awge3JtMrOZZzTlooXikdjB0MREwDwYDVQQDFAhHT0FDQV9DQTELMAkGA1UEBhMC
SU4xDzANBgNVBAoTBkNJVFJJWDEMMAoGA1UECxMDQU5HMQswCQYDVQQIEwJLQTEm
MCQGCSqGSIb3DQEJARYXR09BQ0FfQ0FAR09BQ0FfbWFpbC5jb22CCQD8iwqQARdf
HDA8BggrBgEFBQcBAQQwMC4wLAYIKwYBBQUHMAGGIGh0dHA6Ly8xNzIuMjEuMjAu
MS9yZXNwb25kZXJwYXRoMA0GCSqGSIb3DQEBCwUAA4IBAQCqibyA6ArmncEMfg8h
L+m5ZuGiW1SSG0cBUcE+j2DqYF330ejhVeOp4L246lmAghAxmgCU2sMC6RoUbY0M
TnwxFLTcVIqtS+OoPpcugMOC8yC3vpDqGxY2Jnvc1+Keh4foRW++36fwcZxfF228
OU/hJAoFFCskkqpRsAOnPZCTVUDhvHrfjQQ7Wx+5nQL9kMDg8wJFTxr3+OqYfXsY
H/3pQZuHRhx9bRhRrGUblfSh+N2iTP614l9FihupmmLg/q1FUBfA6f6tBDeO0LxF
4xmY4SrlQ/PMDnNYOJOil2sWb3EyYqLfc5rQW2XdIlQnNkrtVqIgilpiBtZQoC+Y
VzlC
-----END CERTIFICATE-----
