Certificate:
    Data:
        Version: 3 (0x2)
        Serial Number: 11042563100211 (0xa0b0c0d0e33)
    Signature Algorithm: sha256WithRSAEncryption
        Issuer: CN=GOACA_CA, C=IN, O=CITRIX, OU=ANG, ST=KA/emailAddress=GOACA_CA@GOACA_mail.com
        Validity
            Not Before: Jul  8 04:35:04 2016 GMT
            Not After : Jul  6 04:35:04 2026 GMT
        Subject: ST=KA, C=IN, CN=137_GOACA_server/emailAddress=137_GOACA@test_ca.com, O=CITRIX
        Subject Public Key Info:
            Public Key Algorithm: rsaEncryption
                Public-Key: (2048 bit)
                Modulus:
                    00:c5:c9:8d:b9:0a:9d:52:8f:42:0b:f5:46:67:18:
                    e2:cb:f3:b2:ce:10:e3:f3:2c:17:39:53:9c:8a:a2:
                    47:47:bb:fc:21:c0:75:1b:65:f2:3b:69:6a:0b:00:
                    cc:3a:42:09:c6:6a:9b:d3:3a:0b:e4:63:b3:b9:d6:
                    93:d2:2e:22:35:66:a3:2f:0a:44:bd:a2:ff:26:b7:
                    b2:10:21:90:94:44:67:86:49:08:c5:2b:3f:14:50:
                    23:07:fe:d2:7e:a9:c2:6e:0e:cc:36:36:e2:f0:66:
                    36:a2:c8:a2:72:70:9b:06:b4:de:7f:74:58:ca:3a:
                    2a:5a:d7:0e:db:ff:53:6d:52:18:03:ac:6f:2b:d9:
                    1a:a1:b6:ea:fc:d0:a0:ea:d0:2c:a2:45:5e:4c:94:
                    ad:15:5c:09:8f:43:bb:ee:ce:0e:f9:ae:67:4f:b7:
                    d5:64:c8:a5:1d:a6:0f:ee:ab:68:78:d5:17:a2:19:
                    2c:44:a3:a1:9b:a6:75:0b:8b:27:dc:02:ef:d1:fa:
                    c6:64:c2:fd:69:2e:8c:93:a0:39:6f:5c:1a:f4:cd:
                    75:04:71:be:a2:61:b9:28:41:96:2d:fa:ec:5a:b7:
                    fb:41:11:d9:92:b5:33:0e:3a:5d:15:5b:5b:50:cb:
                    bf:99:b3:12:4f:e0:54:ae:ac:01:56:9f:01:2c:b0:
                    51:61
                Exponent: 65537 (0x10001)
        X509v3 extensions:
            Netscape Cert Type: 
                SSL Server
            X509v3 Subject Key Identifier: 
                E2:F1:98:0A:8E:53:E5:48:A7:8E:50:D5:68:07:2C:69:C6:1B:6B:6B
            X509v3 Authority Key Identifier: 
                keyid:81:03:00:D4:DC:70:D9:A7:03:08:1E:DC:9B:4C:AC:E6:59:CD:39:68
                DirName:/CN=GOACA_CA/C=IN/O=CITRIX/OU=ANG/ST=KA/emailAddress=GOACA_CA@GOACA_mail.com
                serial:FC:8B:0A:90:01:17:5F:1C

            Authority Information Access: 
                OCSP - URI:http://172.21.20.1/responderpath

    Signature Algorithm: sha256WithRSAEncryption
         16:88:1a:46:4f:ad:f2:2a:21:76:e8:2a:4e:b6:4c:b4:69:21:
         89:31:3c:d0:85:15:4d:3e:fd:1c:37:71:77:78:89:fc:12:3b:
         d8:c3:85:27:5d:21:23:e6:97:71:bf:9b:06:4b:0e:71:54:68:
         56:59:fc:3a:71:1d:a8:e9:c4:00:91:7f:85:1a:98:25:c3:b1:
         73:af:4e:9a:9a:12:84:cf:23:bb:a4:a5:d2:6b:22:11:9e:de:
         02:11:a3:e2:93:9c:f9:4a:96:39:0c:95:6b:0e:1f:0c:cc:2a:
         ce:14:cf:fc:4f:2f:c3:78:55:62:66:9e:f3:2c:5c:65:14:ee:
         ae:10:70:51:9d:38:d6:eb:91:b8:db:0c:cc:33:2d:bd:b7:d4:
         d2:a4:a3:42:64:e3:d4:95:9e:03:52:0a:0a:34:9d:6c:b4:d9:
         6c:ca:1d:93:14:f2:01:66:17:12:10:cf:ea:a6:ad:23:da:44:
         74:e8:25:2f:72:d9:3c:7e:54:a6:42:be:2b:04:f4:eb:33:c1:
         f2:b5:06:50:fd:d4:ba:11:eb:d7:48:1a:aa:70:2c:c8:9e:cb:
         fd:cc:6a:f7:ca:f1:7f:00:9b:51:de:0f:25:93:89:6c:7a:37:
         31:ef:fe:06:89:7e:a0:00:44:a8:e9:a1:2c:25:cb:ca:51:65:
         98:f0:92:1d
-----BEGIN CERTIFICATE-----
MIIEfzCCA2egAwIBAgIGCgsMDQ4zMA0GCSqGSIb3DQEBCwUAMHQxETAPBgNVBAMU
CEdPQUNBX0NBMQswCQYDVQQGEwJJTjEPMA0GA1UEChMGQ0lUUklYMQwwCgYDVQQL
EwNBTkcxCzAJBgNVBAgTAktBMSYwJAYJKoZIhvcNAQkBFhdHT0FDQV9DQUBHT0FD
QV9tYWlsLmNvbTAeFw0xNjA3MDgwNDM1MDRaFw0yNjA3MDYwNDM1MDRaMGwxCzAJ
BgNVBAgTAktBMQswCQYDVQQGEwJJTjEZMBcGA1UEAxQQMTM3X0dPQUNBX3NlcnZl
cjEkMCIGCSqGSIb3DQEJARYVMTM3X0dPQUNBQHRlc3RfY2EuY29tMQ8wDQYDVQQK
EwZDSVRSSVgwggEiMA0GCSqGSIb3DQEBAQUAA4IBDwAwggEKAoIBAQDFyY25Cp1S
j0IL9UZnGOLL87LOEOPzLBc5U5yKokdHu/whwHUbZfI7aWoLAMw6QgnGapvTOgvk
Y7O51pPSLiI1ZqMvCkS9ov8mt7IQIZCURGeGSQjFKz8UUCMH/tJ+qcJuDsw2NuLw
ZjaiyKJycJsGtN5/dFjKOipa1w7b/1NtUhgDrG8r2Rqhtur80KDq0CyiRV5MlK0V
XAmPQ7vuzg75rmdPt9VkyKUdpg/uq2h41ReiGSxEo6GbpnULiyfcAu/R+sZkwv1p
LoyToDlvXBr0zXUEcb6iYbkoQZYt+uxat/tBEdmStTMOOl0VW1tQy7+ZsxJP4FSu
rAFWnwEssFFhAgMBAAGjggEdMIIBGTARBglghkgBhvhCAQEEBAMCBkAwHQYDVR0O
BBYEFOLxmAqOU+VIp45Q1WgHLGnGG2trMIGmBgNVHSMEgZ4wgZuAFIEDANTccNmn
Awge3JtMrOZZzTlooXikdjB0MREwDwYDVQQDFAhHT0FDQV9DQTELMAkGA1UEBhMC
SU4xDzANBgNVBAoTBkNJVFJJWDEMMAoGA1UECxMDQU5HMQswCQYDVQQIEwJLQTEm
MCQGCSqGSIb3DQEJARYXR09BQ0FfQ0FAR09BQ0FfbWFpbC5jb22CCQD8iwqQARdf
HDA8BggrBgEFBQcBAQQwMC4wLAYIKwYBBQUHMAGGIGh0dHA6Ly8xNzIuMjEuMjAu
MS9yZXNwb25kZXJwYXRoMA0GCSqGSIb3DQEBCwUAA4IBAQAWiBpGT63yKiF26CpO
tky0aSGJMTzQhRVNPv0cN3F3eIn8EjvYw4UnXSEj5pdxv5sGSw5xVGhWWfw6cR2o
6cQAkX+FGpglw7Fzr06amhKEzyO7pKXSayIRnt4CEaPik5z5SpY5DJVrDh8MzCrO
FM/8Ty/DeFViZp7zLFxlFO6uEHBRnTjW65G42wzMMy29t9TSpKNCZOPUlZ4DUgoK
NJ1stNlsyh2TFPIBZhcSEM/qpq0j2kR06CUvctk8flSmQr4rBPTrM8HytQZQ/dS6
EevXSBqqcCzInsv9zGr3yvF/AJtR3g8lk4lsejcx7/4GiX6gAESo6aEsJcvKUWWY
8JId
-----END CERTIFICATE-----
