Certificate:
    Data:
        Version: 3 (0x2)
        Serial Number: 11042563100212 (0xa0b0c0d0e34)
    Signature Algorithm: sha256WithRSAEncryption
        Issuer: CN=GOACA_CA, C=IN, O=CITRIX, OU=ANG, ST=KA/emailAddress=GOACA_CA@GOACA_mail.com
        Validity
            Not Before: Jul  8 04:35:04 2016 GMT
            Not After : Jul  6 04:35:04 2026 GMT
        Subject: ST=KA, C=IN, CN=138_GOACA_server/emailAddress=138_GOACA@test_ca.com, O=CITRIX
        Subject Public Key Info:
            Public Key Algorithm: rsaEncryption
                Public-Key: (2048 bit)
                Modulus:
                    00:d8:c8:8b:72:f6:24:ad:44:8b:61:66:72:93:19:
                    b5:ad:28:17:10:f1:b2:d0:7a:df:8f:b5:39:ac:48:
                    f4:d5:0d:77:cb:d4:cb:7b:f5:89:7a:3b:ce:14:71:
                    05:31:c7:60:d8:0a:07:3e:a0:26:fe:73:12:4b:7d:
                    1e:16:1c:d0:8a:80:c2:40:bf:e2:6e:40:a9:3a:4e:
                    1e:4e:72:0c:51:d6:3b:52:11:fd:ed:e0:4f:ed:e8:
                    b7:4d:cc:b1:59:8e:f3:52:82:ba:cc:c8:bb:1b:e0:
                    05:e3:b6:ea:42:db:0c:75:9f:f6:35:15:25:fd:8f:
                    f3:85:30:30:c4:ba:04:e7:06:dd:1f:ef:f1:81:0f:
                    67:f2:9e:ff:fc:d4:ea:be:a2:b9:6d:1f:19:b7:4f:
                    d0:be:77:5b:37:39:5a:e7:17:78:6a:cf:b5:60:45:
                    16:5c:c0:1b:d8:8f:1e:93:a1:46:14:ce:87:63:24:
                    f7:cf:34:35:25:ef:71:7a:fa:6e:e2:e0:df:a2:fe:
                    50:29:dc:56:51:1b:b5:5d:ce:ec:80:e5:7e:4d:7b:
                    d4:ed:5f:7c:51:d5:54:69:75:71:fe:55:24:51:34:
                    e1:ed:51:d0:e8:58:5a:32:ad:11:a8:7f:57:b8:27:
                    8f:da:b1:a8:7f:4c:31:d3:7c:2b:13:92:35:5f:10:
                    4f:39
                Exponent: 65537 (0x10001)
        X509v3 extensions:
            Netscape Cert Type: 
                SSL Server
            X509v3 Subject Key Identifier: 
                66:E5:53:A9:33:E6:A9:E6:1E:B3:57:5E:E6:85:42:A9:6F:19:09:71
            X509v3 Authority Key Identifier: 
                keyid:81:03:00:D4:DC:70:D9:A7:03:08:1E:DC:9B:4C:AC:E6:59:CD:39:68
                DirName:/CN=GOACA_CA/C=IN/O=CITRIX/OU=ANG/ST=KA/emailAddress=GOACA_CA@GOACA_mail.com
                serial:FC:8B:0A:90:01:17:5F:1C

            Authority Information Access: 
                OCSP - URI:http://172.21.20.1/responderpath

    Signature Algorithm: sha256WithRSAEncryption
         37:47:38:f2:2c:15:b4:ab:8b:7c:6b:32:91:20:d8:aa:7e:70:
         29:64:58:da:66:de:1a:78:c0:b4:ce:bf:f9:c2:78:65:2a:9c:
         92:b4:36:9c:ee:9d:15:37:6f:56:82:96:71:5c:4e:83:f6:3e:
         79:65:f2:ee:f6:bc:b9:4c:75:ad:87:2b:2f:eb:c2:f6:c8:00:
         8f:65:0a:69:80:e0:1e:63:22:7a:e9:d7:47:c7:2c:aa:6a:eb:
         d3:74:20:21:9f:47:9a:62:e3:b7:30:73:54:e1:b3:d3:85:15:
         7b:5c:9b:0f:6b:82:6f:9b:bb:6b:29:fa:2a:56:7e:4f:28:2e:
         86:7b:31:85:20:25:c6:a5:b5:ed:8d:ad:dd:e1:55:1c:d8:4a:
         7f:ae:a6:23:c9:e7:fa:16:54:69:db:c0:fe:d4:0b:60:6e:c0:
         10:6a:fc:da:49:70:f3:3e:a0:77:9c:b0:ce:8b:56:f0:85:54:
         24:ce:e8:93:85:08:1c:cb:ba:49:26:bd:ab:6d:d0:1f:66:61:
         58:42:c1:5f:2e:7f:36:90:84:13:4e:bd:8c:a3:44:66:fb:69:
         01:3f:f4:57:f0:ed:96:a6:3d:e4:b3:67:8b:3b:8b:80:cb:f3:
         59:77:f5:1e:66:28:67:c6:5e:4e:f3:31:fb:85:12:bf:ed:45:
         9b:42:c3:18
-----BEGIN CERTIFICATE-----
MIIEfzCCA2egAwIBAgIGCgsMDQ40MA0GCSqGSIb3DQEBCwUAMHQxETAPBgNVBAMU
CEdPQUNBX0NBMQswCQYDVQQGEwJJTjEPMA0GA1UEChMGQ0lUUklYMQwwCgYDVQQL
EwNBTkcxCzAJBgNVBAgTAktBMSYwJAYJKoZIhvcNAQkBFhdHT0FDQV9DQUBHT0FD
QV9tYWlsLmNvbTAeFw0xNjA3MDgwNDM1MDRaFw0yNjA3MDYwNDM1MDRaMGwxCzAJ
BgNVBAgTAktBMQswCQYDVQQGEwJJTjEZMBcGA1UEAxQQMTM4X0dPQUNBX3NlcnZl
cjEkMCIGCSqGSIb3DQEJARYVMTM4X0dPQUNBQHRlc3RfY2EuY29tMQ8wDQYDVQQK
EwZDSVRSSVgwggEiMA0GCSqGSIb3DQEBAQUAA4IBDwAwggEKAoIBAQDYyIty9iSt
RIthZnKTGbWtKBcQ8bLQet+PtTmsSPTVDXfL1Mt79Yl6O84UcQUxx2DYCgc+oCb+
cxJLfR4WHNCKgMJAv+JuQKk6Th5OcgxR1jtSEf3t4E/t6LdNzLFZjvNSgrrMyLsb
4AXjtupC2wx1n/Y1FSX9j/OFMDDEugTnBt0f7/GBD2fynv/81Oq+orltHxm3T9C+
d1s3OVrnF3hqz7VgRRZcwBvYjx6ToUYUzodjJPfPNDUl73F6+m7i4N+i/lAp3FZR
G7VdzuyA5X5Ne9TtX3xR1VRpdXH+VSRRNOHtUdDoWFoyrRGof1e4J4/asah/TDHT
fCsTkjVfEE85AgMBAAGjggEdMIIBGTARBglghkgBhvhCAQEEBAMCBkAwHQYDVR0O
BBYEFGblU6kz5qnmHrNXXuaFQqlvGQlxMIGmBgNVHSMEgZ4wgZuAFIEDANTccNmn
Awge3JtMrOZZzTlooXikdjB0MREwDwYDVQQDFAhHT0FDQV9DQTELMAkGA1UEBhMC
SU4xDzANBgNVBAoTBkNJVFJJWDEMMAoGA1UECxMDQU5HMQswCQYDVQQIEwJLQTEm
MCQGCSqGSIb3DQEJARYXR09BQ0FfQ0FAR09BQ0FfbWFpbC5jb22CCQD8iwqQARdf
HDA8BggrBgEFBQcBAQQwMC4wLAYIKwYBBQUHMAGGIGh0dHA6Ly8xNzIuMjEuMjAu
MS9yZXNwb25kZXJwYXRoMA0GCSqGSIb3DQEBCwUAA4IBAQA3RzjyLBW0q4t8azKR
INiqfnApZFjaZt4aeMC0zr/5wnhlKpyStDac7p0VN29WgpZxXE6D9j55ZfLu9ry5
THWthysv68L2yACPZQppgOAeYyJ66ddHxyyqauvTdCAhn0eaYuO3MHNU4bPThRV7
XJsPa4Jvm7trKfoqVn5PKC6GezGFICXGpbXtja3d4VUc2Ep/rqYjyef6FlRp28D+
1AtgbsAQavzaSXDzPqB3nLDOi1bwhVQkzuiThQgcy7pJJr2rbdAfZmFYQsFfLn82
kIQTTr2Mo0Rm+2kBP/RX8O2Wpj3ks2eLO4uAy/NZd/UeZihnxl5O8zH7hRK/7UWb
QsMY
-----END CERTIFICATE-----
