Certificate:
    Data:
        Version: 3 (0x2)
        Serial Number: 11042563100209 (0xa0b0c0d0e31)
    Signature Algorithm: sha256WithRSAEncryption
        Issuer: CN=CHENNAICA_CA, C=IN, O=CITRIX, OU=ANG, ST=KA/emailAddress=CHENNAICA_CA@CHENNAICA_mail.com
        Validity
            Not Before: Jul  8 04:33:57 2016 GMT
            Not After : Jul  6 04:33:57 2026 GMT
        Subject: ST=KA, C=IN, CN=135_CHENNAICA_server/emailAddress=135_CHENNAICA@test_ca.com, O=CITRIX
        Subject Public Key Info:
            Public Key Algorithm: rsaEncryption
                Public-Key: (2048 bit)
                Modulus:
                    00:a3:3e:3c:8a:38:ca:9a:ab:52:11:42:17:cf:c0:
                    03:d1:3c:2a:40:bf:2a:87:61:a5:01:df:e1:3a:59:
                    37:b2:b9:1e:83:63:fd:8e:a6:7b:b3:c8:5e:d3:86:
                    8c:75:a3:45:3b:10:01:83:15:e1:4f:09:71:f7:be:
                    22:01:43:f7:01:11:11:0f:51:9a:e9:2b:5f:7c:84:
                    bd:6b:a9:ce:a8:5c:13:30:52:57:b2:9d:6b:fe:27:
                    f7:26:50:dd:f1:8d:f2:be:f3:80:95:d0:a5:7d:af:
                    b4:f8:ab:50:aa:8e:25:71:66:9c:27:06:59:08:86:
                    8c:8c:63:4e:9a:2b:54:9c:94:09:f8:14:84:6f:9a:
                    09:00:ec:35:68:9c:6e:86:21:86:7e:72:6b:2d:be:
                    1c:dc:da:a6:82:17:6e:de:c2:52:df:89:c3:96:bc:
                    d0:9f:d5:0e:99:be:c3:77:62:2b:91:c2:ed:cd:e8:
                    8f:ea:4a:6a:a9:de:89:94:4b:1b:61:5b:a3:92:99:
                    1f:e2:ca:1f:d0:9f:1e:f3:f3:30:47:65:72:4b:dd:
                    fc:7b:cd:3a:0a:93:25:d0:3a:70:cb:5e:50:bf:f6:
                    79:56:ed:60:c0:77:fd:67:1e:72:b9:ab:26:20:6d:
                    ad:d1:71:3b:ff:24:40:c8:f0:ed:14:f4:8b:55:57:
                    ab:9b
                Exponent: 65537 (0x10001)
        X509v3 extensions:
            Netscape Cert Type: 
                SSL Server
            X509v3 Subject Key Identifier: 
                D7:E2:27:01:16:FF:9A:16:71:E4:09:08:E4:FB:AF:96:8D:73:AD:AA
            X509v3 Authority Key Identifier: 
                keyid:BE:CA:53:AC:65:89:18:02:1E:F6:53:A2:50:12:94:60:EC:CC:05:FA
                DirName:/CN=CHENNAICA_CA/C=IN/O=CITRIX/OU=ANG/ST=KA/emailAddress=CHENNAICA_CA@CHENNAICA_mail.com
                serial:87:FB:C4:D4:5E:46:56:70

            Authority Information Access: 
                OCSP - URI:http://172.19.20.1/responderpath

    Signature Algorithm: sha256WithRSAEncryption
         0a:9b:87:9c:53:60:61:ca:d8:8b:bb:09:5b:85:a1:19:50:24:
         2c:85:35:ea:93:a5:16:05:c0:bf:ed:41:69:5f:22:7b:5e:45:
         44:3f:f5:36:2a:84:bd:0f:20:9d:04:12:d6:0a:28:a7:ef:2e:
         3d:5b:53:11:e9:f0:ae:5d:95:db:80:c0:e5:de:76:3f:16:dc:
         f0:ea:c4:f0:49:19:b9:b3:31:2b:0a:72:73:4c:40:9e:11:da:
         12:b9:98:84:5c:fa:b2:3e:70:00:5f:b1:77:e3:0b:53:3c:df:
         bb:89:31:b3:3d:fc:fd:d9:91:a3:5a:11:92:57:47:76:c5:df:
         5a:82:c9:f5:a4:17:5d:e7:e9:18:e2:4f:8e:2f:90:93:d2:88:
         fe:2b:9e:84:b9:16:d7:dd:c8:23:93:d7:e5:e6:10:d4:22:e7:
         f8:46:50:7f:67:2e:5b:94:a5:1b:9b:fa:82:51:b9:11:8f:b5:
         c8:04:a0:96:70:0c:fa:6a:3e:26:1c:f0:93:22:80:72:7b:fa:
         2b:43:28:72:30:f9:06:80:65:ee:e1:98:20:61:39:aa:b7:3b:
         18:c5:7b:4a:6e:a7:79:35:1f:03:71:57:d7:a6:29:bb:2f:20:
         ef:ee:62:90:ac:d1:34:1a:3f:00:0e:60:28:ae:13:bf:90:3f:
         eb:06:4d:f2
-----BEGIN CERTIFICATE-----
MIIEozCCA4ugAwIBAgIGCgsMDQ4xMA0GCSqGSIb3DQEBCwUAMIGAMRUwEwYDVQQD
FAxDSEVOTkFJQ0FfQ0ExCzAJBgNVBAYTAklOMQ8wDQYDVQQKEwZDSVRSSVgxDDAK
BgNVBAsTA0FORzELMAkGA1UECBMCS0ExLjAsBgkqhkiG9w0BCQEWH0NIRU5OQUlD
QV9DQUBDSEVOTkFJQ0FfbWFpbC5jb20wHhcNMTYwNzA4MDQzMzU3WhcNMjYwNzA2
MDQzMzU3WjB0MQswCQYDVQQIEwJLQTELMAkGA1UEBhMCSU4xHTAbBgNVBAMUFDEz
NV9DSEVOTkFJQ0Ffc2VydmVyMSgwJgYJKoZIhvcNAQkBFhkxMzVfQ0hFTk5BSUNB
QHRlc3RfY2EuY29tMQ8wDQYDVQQKEwZDSVRSSVgwggEiMA0GCSqGSIb3DQEBAQUA
A4IBDwAwggEKAoIBAQCjPjyKOMqaq1IRQhfPwAPRPCpAvyqHYaUB3+E6WTeyuR6D
Y/2OpnuzyF7Thox1o0U7EAGDFeFPCXH3viIBQ/cBEREPUZrpK198hL1rqc6oXBMw
UleynWv+J/cmUN3xjfK+84CV0KV9r7T4q1CqjiVxZpwnBlkIhoyMY06aK1SclAn4
FIRvmgkA7DVonG6GIYZ+cmstvhzc2qaCF27ewlLficOWvNCf1Q6ZvsN3YiuRwu3N
6I/qSmqp3omUSxthW6OSmR/iyh/Qnx7z8zBHZXJL3fx7zToKkyXQOnDLXlC/9nlW
7WDAd/1nHnK5qyYgba3RcTv/JEDI8O0U9ItVV6ubAgMBAAGjggEsMIIBKDARBglg
hkgBhvhCAQEEBAMCBkAwHQYDVR0OBBYEFNfiJwEW/5oWceQJCOT7r5aNc62qMIG1
BgNVHSMEga0wgaqAFL7KU6xliRgCHvZTolASlGDszAX6oYGGpIGDMIGAMRUwEwYD
VQQDFAxDSEVOTkFJQ0FfQ0ExCzAJBgNVBAYTAklOMQ8wDQYDVQQKEwZDSVRSSVgx
DDAKBgNVBAsTA0FORzELMAkGA1UECBMCS0ExLjAsBgkqhkiG9w0BCQEWH0NIRU5O
QUlDQV9DQUBDSEVOTkFJQ0FfbWFpbC5jb22CCQCH+8TUXkZWcDA8BggrBgEFBQcB
AQQwMC4wLAYIKwYBBQUHMAGGIGh0dHA6Ly8xNzIuMTkuMjAuMS9yZXNwb25kZXJw
YXRoMA0GCSqGSIb3DQEBCwUAA4IBAQAKm4ecU2BhytiLuwlbhaEZUCQshTXqk6UW
BcC/7UFpXyJ7XkVEP/U2KoS9DyCdBBLWCiin7y49W1MR6fCuXZXbgMDl3nY/Ftzw
6sTwSRm5szErCnJzTECeEdoSuZiEXPqyPnAAX7F34wtTPN+7iTGzPfz92ZGjWhGS
V0d2xd9agsn1pBdd5+kY4k+OL5CT0oj+K56EuRbX3cgjk9fl5hDUIuf4RlB/Zy5b
lKUbm/qCUbkRj7XIBKCWcAz6aj4mHPCTIoBye/orQyhyMPkGgGXu4ZggYTmqtzsY
xXtKbqd5NR8DcVfXpim7LyDv7mKQrNE0Gj8ADmAorhO/kD/rBk3y
-----END CERTIFICATE-----
