Certificate:
    Data:
        Version: 3 (0x2)
        Serial Number: 11042563100177 (0xa0b0c0d0e11)
    Signature Algorithm: sha256WithRSAEncryption
        Issuer: CN=CHENNAICA_CA, C=IN, O=CITRIX, OU=ANG, ST=KA/emailAddress=CHENNAICA_CA@CHENNAICA_mail.com
        Validity
            Not Before: Jul  8 04:33:49 2016 GMT
            Not After : Jul  6 04:33:49 2026 GMT
        Subject: ST=KA, C=IN, CN=103_CHENNAICA_server/emailAddress=103_CHENNAICA@test_ca.com, O=CITRIX
        Subject Public Key Info:
            Public Key Algorithm: rsaEncryption
                Public-Key: (2048 bit)
                Modulus:
                    00:b4:9d:bf:7a:06:24:e0:58:b4:2b:6f:b3:2b:a8:
                    5d:71:9b:f6:6c:65:ad:ee:1c:c2:1c:56:d7:25:7f:
                    b0:44:fb:3f:7a:15:26:2a:69:0f:49:d3:14:cd:cd:
                    e8:d5:38:18:1c:a8:02:fb:c0:1c:3a:79:dc:e0:65:
                    5a:d0:54:81:b9:59:f9:ce:32:93:73:32:03:01:3e:
                    49:2b:dc:34:a0:a2:0e:e8:60:61:12:6e:19:97:18:
                    97:37:2d:15:1a:9e:95:02:12:4e:95:f8:5b:90:42:
                    72:a3:42:39:94:77:10:65:30:0f:c5:46:cb:09:b1:
                    73:52:e7:5c:5e:85:26:70:93:40:a7:5b:1f:4c:ff:
                    52:57:a0:7a:2d:fa:2c:d8:db:b9:56:24:90:be:e0:
                    f1:40:e3:f4:5d:9e:a7:48:f5:82:58:fa:3e:89:1f:
                    52:e6:02:b7:8c:29:02:57:9e:c0:0a:18:c5:cb:82:
                    5a:56:1e:a7:3f:2b:83:05:c1:9d:cc:a3:c4:3e:6e:
                    6d:e1:0b:52:2d:8c:70:4a:44:7c:39:63:6b:e4:81:
                    cc:9b:3d:18:87:87:2c:5e:48:62:17:f1:11:65:01:
                    a3:25:cd:90:f1:99:a1:2c:b4:51:5f:d0:29:94:f4:
                    cc:46:1e:59:f4:19:37:2d:59:bd:70:ef:c4:a9:fb:
                    19:d1
                Exponent: 65537 (0x10001)
        X509v3 extensions:
            Netscape Cert Type: 
                SSL Server
            X509v3 Subject Key Identifier: 
                25:16:90:9E:44:68:F6:DB:66:51:B6:BD:3B:99:30:F9:BB:9C:EA:88
            X509v3 Authority Key Identifier: 
                keyid:BE:CA:53:AC:65:89:18:02:1E:F6:53:A2:50:12:94:60:EC:CC:05:FA
                DirName:/CN=CHENNAICA_CA/C=IN/O=CITRIX/OU=ANG/ST=KA/emailAddress=CHENNAICA_CA@CHENNAICA_mail.com
                serial:87:FB:C4:D4:5E:46:56:70

            Authority Information Access: 
                OCSP - URI:http://CHENNAICA_one.ocsptest.com/responderpath

    Signature Algorithm: sha256WithRSAEncryption
         a5:84:cd:4f:21:38:41:6e:05:c9:f4:a6:c9:04:64:0e:94:86:
         57:b2:0c:b9:66:09:44:f3:c9:88:5a:27:c6:38:1b:b8:00:e0:
         b7:23:5a:93:79:8d:08:42:9e:04:f4:e1:f8:5c:db:74:0f:99:
         d2:b9:93:38:59:3e:b4:fc:1a:d1:e4:7f:02:8a:50:ec:b6:a0:
         0c:6f:90:a8:9a:0f:62:a6:da:f7:9c:3c:9c:a7:59:b0:39:bf:
         89:c3:68:6e:fb:f4:45:23:e3:02:12:15:b7:01:2b:e9:2a:7e:
         55:6b:54:9c:97:a2:9d:f9:39:6f:23:1b:bb:cb:33:b9:6c:a7:
         c7:c5:ea:ff:3a:c5:9c:bb:32:d7:ab:84:b6:6d:c0:aa:fe:d7:
         36:a6:da:8a:b1:8a:a1:23:e6:33:2f:0e:0b:58:ac:89:d8:27:
         96:c9:6c:9d:61:07:2e:ef:19:91:cf:0f:b3:69:50:94:cf:43:
         41:a0:5f:12:c5:79:3f:95:d5:12:a1:f0:c5:85:f3:f8:2d:16:
         b0:2d:00:c8:4c:b4:09:00:f1:78:e3:11:09:e2:8b:48:50:cd:
         7c:fc:ab:e4:54:94:5c:cc:94:22:3a:24:3e:44:ff:6f:dd:25:
         1a:21:6e:9e:02:69:a4:da:48:1a:a3:88:9c:01:0e:42:65:5e:
         ba:c4:2c:56
-----BEGIN CERTIFICATE-----
MIIEsjCCA5qgAwIBAgIGCgsMDQ4RMA0GCSqGSIb3DQEBCwUAMIGAMRUwEwYDVQQD
FAxDSEVOTkFJQ0FfQ0ExCzAJBgNVBAYTAklOMQ8wDQYDVQQKEwZDSVRSSVgxDDAK
BgNVBAsTA0FORzELMAkGA1UECBMCS0ExLjAsBgkqhkiG9w0BCQEWH0NIRU5OQUlD
QV9DQUBDSEVOTkFJQ0FfbWFpbC5jb20wHhcNMTYwNzA4MDQzMzQ5WhcNMjYwNzA2
MDQzMzQ5WjB0MQswCQYDVQQIEwJLQTELMAkGA1UEBhMCSU4xHTAbBgNVBAMUFDEw
M19DSEVOTkFJQ0Ffc2VydmVyMSgwJgYJKoZIhvcNAQkBFhkxMDNfQ0hFTk5BSUNB
QHRlc3RfY2EuY29tMQ8wDQYDVQQKEwZDSVRSSVgwggEiMA0GCSqGSIb3DQEBAQUA
A4IBDwAwggEKAoIBAQC0nb96BiTgWLQrb7MrqF1xm/ZsZa3uHMIcVtclf7BE+z96
FSYqaQ9J0xTNzejVOBgcqAL7wBw6edzgZVrQVIG5WfnOMpNzMgMBPkkr3DSgog7o
YGESbhmXGJc3LRUanpUCEk6V+FuQQnKjQjmUdxBlMA/FRssJsXNS51xehSZwk0Cn
Wx9M/1JXoHot+izY27lWJJC+4PFA4/RdnqdI9YJY+j6JH1LmAreMKQJXnsAKGMXL
glpWHqc/K4MFwZ3Mo8Q+bm3hC1ItjHBKRHw5Y2vkgcybPRiHhyxeSGIX8RFlAaMl
zZDxmaEstFFf0CmU9MxGHln0GTctWb1w78Sp+xnRAgMBAAGjggE7MIIBNzARBglg
hkgBhvhCAQEEBAMCBkAwHQYDVR0OBBYEFCUWkJ5EaPbbZlG2vTuZMPm7nOqIMIG1
BgNVHSMEga0wgaqAFL7KU6xliRgCHvZTolASlGDszAX6oYGGpIGDMIGAMRUwEwYD
VQQDFAxDSEVOTkFJQ0FfQ0ExCzAJBgNVBAYTAklOMQ8wDQYDVQQKEwZDSVRSSVgx
DDAKBgNVBAsTA0FORzELMAkGA1UECBMCS0ExLjAsBgkqhkiG9w0BCQEWH0NIRU5O
QUlDQV9DQUBDSEVOTkFJQ0FfbWFpbC5jb22CCQCH+8TUXkZWcDBLBggrBgEFBQcB
AQQ/MD0wOwYIKwYBBQUHMAGGL2h0dHA6Ly9DSEVOTkFJQ0Ffb25lLm9jc3B0ZXN0
LmNvbS9yZXNwb25kZXJwYXRoMA0GCSqGSIb3DQEBCwUAA4IBAQClhM1PIThBbgXJ
9KbJBGQOlIZXsgy5ZglE88mIWifGOBu4AOC3I1qTeY0IQp4E9OH4XNt0D5nSuZM4
WT60/BrR5H8CilDstqAMb5Comg9iptr3nDycp1mwOb+Jw2hu+/RFI+MCEhW3ASvp
Kn5Va1Scl6Kd+TlvIxu7yzO5bKfHxer/OsWcuzLXq4S2bcCq/tc2ptqKsYqhI+Yz
Lw4LWKyJ2CeWyWydYQcu7xmRzw+zaVCUz0NBoF8SxXk/ldUSofDFhfP4LRawLQDI
TLQJAPF44xEJ4otIUM18/KvkVJRczJQiOiQ+RP9v3SUaIW6eAmmk2kgao4icAQ5C
ZV66xCxW
-----END CERTIFICATE-----
