Certificate:
    Data:
        Version: 3 (0x2)
        Serial Number: 11042563100201 (0xa0b0c0d0e29)
    Signature Algorithm: sha256WithRSAEncryption
        Issuer: CN=CHENNAICA_CA, C=IN, O=CITRIX, OU=ANG, ST=KA/emailAddress=CHENNAICA_CA@CHENNAICA_mail.com
        Validity
            Not Before: Jul  8 04:33:55 2016 GMT
            Not After : Jul  6 04:33:55 2026 GMT
        Subject: ST=KA, C=IN, CN=127_CHENNAICA_server/emailAddress=127_CHENNAICA@test_ca.com, O=CITRIX
        Subject Public Key Info:
            Public Key Algorithm: rsaEncryption
                Public-Key: (2048 bit)
                Modulus:
                    00:e8:4c:3a:a3:61:71:e3:b1:db:05:1a:51:b6:f2:
                    8e:d1:75:4b:eb:fa:92:26:92:e8:e9:29:8e:5d:55:
                    eb:00:a5:2a:d6:95:fc:db:37:29:41:62:ed:c2:0d:
                    94:c3:06:dc:37:7d:10:dc:11:a2:3e:1d:ae:6a:54:
                    4f:c5:a1:ef:d0:95:88:1c:fd:d8:16:ce:e2:4d:2b:
                    8f:ba:c9:f1:ce:3c:af:30:55:ad:90:f7:11:92:64:
                    e6:78:c9:97:76:90:19:e1:12:3c:72:b7:71:e6:8f:
                    2d:ca:e8:6c:ce:9f:a0:43:2b:d9:54:b1:28:89:45:
                    60:b6:21:8b:12:78:91:e5:54:80:0f:5d:2e:af:6e:
                    94:ee:bd:fd:4d:1b:80:c2:9c:45:2e:dc:04:4d:84:
                    e0:de:d7:ad:3c:43:cf:b1:88:db:3e:ef:1e:a3:24:
                    f5:18:a6:83:95:a7:9f:2b:c6:09:c2:56:f1:25:60:
                    c9:40:32:0f:2d:ff:f0:ce:fb:f7:3f:c8:8c:55:b5:
                    b9:75:c3:86:b4:8c:5e:29:b9:45:2c:3d:fe:1d:40:
                    b9:cd:70:8b:0c:9d:6f:bb:be:d6:ca:05:2d:ff:0d:
                    57:f5:85:14:c5:da:9e:05:b4:4a:8f:c9:23:e7:1c:
                    06:8a:a5:bc:f1:88:c7:06:f1:cf:6d:43:49:4a:dd:
                    37:3b
                Exponent: 65537 (0x10001)
        X509v3 extensions:
            Netscape Cert Type: 
                SSL Server
            X509v3 Subject Key Identifier: 
                02:85:60:9F:4A:00:8A:C4:6A:D7:A3:93:4A:C4:9F:CD:A2:2A:FC:5A
            X509v3 Authority Key Identifier: 
                keyid:BE:CA:53:AC:65:89:18:02:1E:F6:53:A2:50:12:94:60:EC:CC:05:FA
                DirName:/CN=CHENNAICA_CA/C=IN/O=CITRIX/OU=ANG/ST=KA/emailAddress=CHENNAICA_CA@CHENNAICA_mail.com
                serial:87:FB:C4:D4:5E:46:56:70

            Authority Information Access: 
                OCSP - URI:http://172.19.10.1/responderpath

    Signature Algorithm: sha256WithRSAEncryption
         3a:57:f2:65:48:ef:15:27:d5:39:63:ac:28:1d:0d:fb:16:fe:
         92:f2:f5:aa:ba:52:5b:b4:c0:eb:7a:18:d6:5b:27:bb:2f:08:
         2c:fb:19:cf:34:14:9c:f6:35:b2:fc:ba:46:f3:38:9e:9a:06:
         f3:d7:5a:a4:cf:45:49:fb:ce:70:e6:a1:de:00:1e:fe:cd:f4:
         05:37:0a:ed:79:b7:81:d5:e9:c0:e4:b0:5a:10:19:9e:41:05:
         3c:fc:b7:16:e6:7e:cc:11:33:90:e5:8b:78:21:f7:cd:b6:ad:
         f0:f2:20:5c:0e:67:27:44:28:d8:62:4d:91:3c:b3:08:69:b8:
         fc:a4:29:f5:49:bb:e2:26:1f:43:42:00:9a:f5:02:8c:90:a8:
         c6:ca:d6:e0:41:9f:74:42:ce:31:b3:cf:54:79:a5:99:5e:7a:
         0c:7e:c1:f4:b6:f4:f7:18:e5:2c:f8:74:03:2d:a0:c3:58:02:
         eb:61:8f:39:0d:13:f5:10:c4:6a:1d:6e:7c:54:76:1a:96:a6:
         55:6c:f4:8c:d2:e9:b3:b6:5d:05:17:56:37:3b:f2:47:8a:41:
         fb:d6:52:12:ae:62:eb:48:8f:a0:c3:ba:19:43:61:73:e7:6a:
         73:de:ae:8c:f6:f2:0a:b3:21:cc:54:6a:c8:df:ed:66:94:6e:
         ed:b0:50:48
-----BEGIN CERTIFICATE-----
MIIEozCCA4ugAwIBAgIGCgsMDQ4pMA0GCSqGSIb3DQEBCwUAMIGAMRUwEwYDVQQD
FAxDSEVOTkFJQ0FfQ0ExCzAJBgNVBAYTAklOMQ8wDQYDVQQKEwZDSVRSSVgxDDAK
BgNVBAsTA0FORzELMAkGA1UECBMCS0ExLjAsBgkqhkiG9w0BCQEWH0NIRU5OQUlD
QV9DQUBDSEVOTkFJQ0FfbWFpbC5jb20wHhcNMTYwNzA4MDQzMzU1WhcNMjYwNzA2
MDQzMzU1WjB0MQswCQYDVQQIEwJLQTELMAkGA1UEBhMCSU4xHTAbBgNVBAMUFDEy
N19DSEVOTkFJQ0Ffc2VydmVyMSgwJgYJKoZIhvcNAQkBFhkxMjdfQ0hFTk5BSUNB
QHRlc3RfY2EuY29tMQ8wDQYDVQQKEwZDSVRSSVgwggEiMA0GCSqGSIb3DQEBAQUA
A4IBDwAwggEKAoIBAQDoTDqjYXHjsdsFGlG28o7RdUvr+pImkujpKY5dVesApSrW
lfzbNylBYu3CDZTDBtw3fRDcEaI+Ha5qVE/Foe/QlYgc/dgWzuJNK4+6yfHOPK8w
Va2Q9xGSZOZ4yZd2kBnhEjxyt3Hmjy3K6GzOn6BDK9lUsSiJRWC2IYsSeJHlVIAP
XS6vbpTuvf1NG4DCnEUu3ARNhODe1608Q8+xiNs+7x6jJPUYpoOVp58rxgnCVvEl
YMlAMg8t//DO+/c/yIxVtbl1w4a0jF4puUUsPf4dQLnNcIsMnW+7vtbKBS3/DVf1
hRTF2p4FtEqPySPnHAaKpbzxiMcG8c9tQ0lK3Tc7AgMBAAGjggEsMIIBKDARBglg
hkgBhvhCAQEEBAMCBkAwHQYDVR0OBBYEFAKFYJ9KAIrEatejk0rEn82iKvxaMIG1
BgNVHSMEga0wgaqAFL7KU6xliRgCHvZTolASlGDszAX6oYGGpIGDMIGAMRUwEwYD
VQQDFAxDSEVOTkFJQ0FfQ0ExCzAJBgNVBAYTAklOMQ8wDQYDVQQKEwZDSVRSSVgx
DDAKBgNVBAsTA0FORzELMAkGA1UECBMCS0ExLjAsBgkqhkiG9w0BCQEWH0NIRU5O
QUlDQV9DQUBDSEVOTkFJQ0FfbWFpbC5jb22CCQCH+8TUXkZWcDA8BggrBgEFBQcB
AQQwMC4wLAYIKwYBBQUHMAGGIGh0dHA6Ly8xNzIuMTkuMTAuMS9yZXNwb25kZXJw
YXRoMA0GCSqGSIb3DQEBCwUAA4IBAQA6V/JlSO8VJ9U5Y6woHQ37Fv6S8vWqulJb
tMDrehjWWye7Lwgs+xnPNBSc9jWy/LpG8ziemgbz11qkz0VJ+85w5qHeAB7+zfQF
NwrtebeB1enA5LBaEBmeQQU8/LcW5n7METOQ5Yt4IffNtq3w8iBcDmcnRCjYYk2R
PLMIabj8pCn1SbviJh9DQgCa9QKMkKjGytbgQZ90Qs4xs89UeaWZXnoMfsH0tvT3
GOUs+HQDLaDDWALrYY85DRP1EMRqHW58VHYalqZVbPSM0umztl0FF1Y3O/JHikH7
1lISrmLrSI+gw7oZQ2Fz52pz3q6M9vIKsyHMVGrI3+1mlG7tsFBI
-----END CERTIFICATE-----
