Certificate:
    Data:
        Version: 3 (0x2)
        Serial Number: 11042563100212 (0xa0b0c0d0e34)
    Signature Algorithm: sha256WithRSAEncryption
        Issuer: CN=CHENNAICA_CA, C=IN, O=CITRIX, OU=ANG, ST=KA/emailAddress=CHENNAICA_CA@CHENNAICA_mail.com
        Validity
            Not Before: Jul  8 04:33:58 2016 GMT
            Not After : Jul  6 04:33:58 2026 GMT
        Subject: ST=KA, C=IN, CN=138_CHENNAICA_server/emailAddress=138_CHENNAICA@test_ca.com, O=CITRIX
        Subject Public Key Info:
            Public Key Algorithm: rsaEncryption
                Public-Key: (2048 bit)
                Modulus:
                    00:c4:90:04:1c:73:5e:96:8f:2e:1f:bc:f6:a0:a8:
                    a2:ca:80:4a:63:74:03:a5:7d:14:fd:3d:96:b9:eb:
                    f9:f8:19:e6:36:2a:c1:1b:9e:b5:97:36:0d:f0:3b:
                    09:55:34:c6:c7:3f:87:db:53:92:02:0b:fe:36:63:
                    9c:09:fb:a7:e6:11:f1:50:82:75:5d:76:ad:eb:09:
                    87:bc:df:13:a4:e3:d8:52:cd:fb:b1:f1:22:91:d3:
                    a4:54:d8:74:ce:89:ca:66:6e:2d:7e:3b:91:ff:27:
                    e2:7b:73:31:73:4c:1b:9c:78:99:21:eb:32:a0:96:
                    c8:bc:f2:88:21:fb:6d:e9:ed:48:e7:a8:db:1e:f2:
                    a8:50:1a:11:08:2c:e0:5f:56:55:7f:8f:85:d5:54:
                    99:b3:11:14:a6:3e:64:97:e7:c0:bd:11:77:b1:5e:
                    c5:75:a8:3e:97:26:18:d2:d9:b4:53:14:7e:f6:24:
                    93:93:f2:13:ff:78:4e:e8:e4:10:52:00:6e:b5:9b:
                    79:09:e7:ad:b7:42:ab:0a:67:5b:7b:1a:2e:e4:ce:
                    66:38:3b:ae:07:80:45:63:3f:a2:73:fc:a3:46:4d:
                    93:82:8c:06:45:4b:7b:25:d0:19:a5:f3:93:d2:ab:
                    cc:f8:ad:e4:59:40:1d:57:8b:33:d2:cb:4d:3b:23:
                    1f:f1
                Exponent: 65537 (0x10001)
        X509v3 extensions:
            Netscape Cert Type: 
                SSL Server
            X509v3 Subject Key Identifier: 
                30:2A:F7:48:7F:79:4F:D6:CE:3A:98:19:13:2C:BC:1E:57:4C:6E:79
            X509v3 Authority Key Identifier: 
                keyid:BE:CA:53:AC:65:89:18:02:1E:F6:53:A2:50:12:94:60:EC:CC:05:FA
                DirName:/CN=CHENNAICA_CA/C=IN/O=CITRIX/OU=ANG/ST=KA/emailAddress=CHENNAICA_CA@CHENNAICA_mail.com
                serial:87:FB:C4:D4:5E:46:56:70

            Authority Information Access: 
                OCSP - URI:http://172.19.20.1/responderpath

    Signature Algorithm: sha256WithRSAEncryption
         d6:5d:4b:f5:b5:63:b8:96:cc:87:39:60:bd:e8:fa:7c:c5:00:
         14:de:82:56:4f:fe:53:5e:cb:7a:8c:ab:b7:0c:5d:f6:99:6f:
         5e:b2:41:c7:ce:03:66:63:d7:46:23:8b:fc:8d:8c:1d:4c:2b:
         1a:73:16:e7:e8:65:2c:46:ab:d7:7d:a8:df:cd:18:50:3e:65:
         86:1a:f6:89:fc:cc:c5:66:0d:30:2a:67:95:90:33:2f:05:50:
         9e:8c:d6:b2:33:55:00:e2:9d:84:da:3d:f4:80:d1:d0:c2:c0:
         ce:c5:e2:44:77:27:7c:88:52:8d:18:8e:74:d4:70:68:3a:db:
         87:c8:1e:74:1f:37:82:b6:d3:cc:90:cd:97:b6:97:49:49:83:
         de:d0:b7:dd:2d:4d:60:38:89:70:1d:00:c0:32:96:01:1e:30:
         17:f5:0b:7f:0c:3e:12:3b:d2:0a:96:c0:c1:71:d8:a5:63:ef:
         de:48:b4:bd:63:a6:b2:06:df:91:a1:d4:68:fb:6c:95:ba:09:
         34:34:e0:1e:e1:2f:69:d6:4c:44:7c:bf:62:28:48:c4:8d:92:
         d9:79:2d:6c:0c:22:00:7f:6c:63:30:fd:61:f8:7a:10:e4:0d:
         18:3e:bb:54:cd:c6:b6:03:36:a5:fe:c7:63:60:4e:22:53:3d:
         07:c0:d3:06
-----BEGIN CERTIFICATE-----
MIIEozCCA4ugAwIBAgIGCgsMDQ40MA0GCSqGSIb3DQEBCwUAMIGAMRUwEwYDVQQD
FAxDSEVOTkFJQ0FfQ0ExCzAJBgNVBAYTAklOMQ8wDQYDVQQKEwZDSVRSSVgxDDAK
BgNVBAsTA0FORzELMAkGA1UECBMCS0ExLjAsBgkqhkiG9w0BCQEWH0NIRU5OQUlD
QV9DQUBDSEVOTkFJQ0FfbWFpbC5jb20wHhcNMTYwNzA4MDQzMzU4WhcNMjYwNzA2
MDQzMzU4WjB0MQswCQYDVQQIEwJLQTELMAkGA1UEBhMCSU4xHTAbBgNVBAMUFDEz
OF9DSEVOTkFJQ0Ffc2VydmVyMSgwJgYJKoZIhvcNAQkBFhkxMzhfQ0hFTk5BSUNB
QHRlc3RfY2EuY29tMQ8wDQYDVQQKEwZDSVRSSVgwggEiMA0GCSqGSIb3DQEBAQUA
A4IBDwAwggEKAoIBAQDEkAQcc16Wjy4fvPagqKLKgEpjdAOlfRT9PZa56/n4GeY2
KsEbnrWXNg3wOwlVNMbHP4fbU5ICC/42Y5wJ+6fmEfFQgnVddq3rCYe83xOk49hS
zfux8SKR06RU2HTOicpmbi1+O5H/J+J7czFzTBuceJkh6zKglsi88ogh+23p7Ujn
qNse8qhQGhEILOBfVlV/j4XVVJmzERSmPmSX58C9EXexXsV1qD6XJhjS2bRTFH72
JJOT8hP/eE7o5BBSAG61m3kJ5623QqsKZ1t7Gi7kzmY4O64HgEVjP6Jz/KNGTZOC
jAZFS3sl0Bml85PSq8z4reRZQB1XizPSy007Ix/xAgMBAAGjggEsMIIBKDARBglg
hkgBhvhCAQEEBAMCBkAwHQYDVR0OBBYEFDAq90h/eU/WzjqYGRMsvB5XTG55MIG1
BgNVHSMEga0wgaqAFL7KU6xliRgCHvZTolASlGDszAX6oYGGpIGDMIGAMRUwEwYD
VQQDFAxDSEVOTkFJQ0FfQ0ExCzAJBgNVBAYTAklOMQ8wDQYDVQQKEwZDSVRSSVgx
DDAKBgNVBAsTA0FORzELMAkGA1UECBMCS0ExLjAsBgkqhkiG9w0BCQEWH0NIRU5O
QUlDQV9DQUBDSEVOTkFJQ0FfbWFpbC5jb22CCQCH+8TUXkZWcDA8BggrBgEFBQcB
AQQwMC4wLAYIKwYBBQUHMAGGIGh0dHA6Ly8xNzIuMTkuMjAuMS9yZXNwb25kZXJw
YXRoMA0GCSqGSIb3DQEBCwUAA4IBAQDWXUv1tWO4lsyHOWC96Pp8xQAU3oJWT/5T
Xst6jKu3DF32mW9eskHHzgNmY9dGI4v8jYwdTCsacxbn6GUsRqvXfajfzRhQPmWG
GvaJ/MzFZg0wKmeVkDMvBVCejNayM1UA4p2E2j30gNHQwsDOxeJEdyd8iFKNGI50
1HBoOtuHyB50HzeCttPMkM2XtpdJSYPe0LfdLU1gOIlwHQDAMpYBHjAX9Qt/DD4S
O9IKlsDBcdilY+/eSLS9Y6ayBt+RodRo+2yVugk0NOAe4S9p1kxEfL9iKEjEjZLZ
eS1sDCIAf2xjMP1h+HoQ5A0YPrtUzca2Azal/sdjYE4iUz0HwNMG
-----END CERTIFICATE-----
