Certificate:
    Data:
        Version: 3 (0x2)
        Serial Number: 11042563100207 (0xa0b0c0d0e2f)
    Signature Algorithm: sha256WithRSAEncryption
        Issuer: CN=CHENNAICA_CA, C=IN, O=CITRIX, OU=ANG, ST=KA/emailAddress=CHENNAICA_CA@CHENNAICA_mail.com
        Validity
            Not Before: Jul  8 04:33:57 2016 GMT
            Not After : Jul  6 04:33:57 2026 GMT
        Subject: ST=KA, C=IN, CN=133_CHENNAICA_server/emailAddress=133_CHENNAICA@test_ca.com, O=CITRIX
        Subject Public Key Info:
            Public Key Algorithm: rsaEncryption
                Public-Key: (2048 bit)
                Modulus:
                    00:94:58:f5:7c:87:c4:c3:99:63:74:7a:0e:a4:a2:
                    3a:6d:9d:a3:b5:a3:99:44:b5:fb:04:9b:1a:aa:af:
                    68:c6:70:ad:d8:6d:6c:6f:b7:5b:c9:0b:1d:26:0c:
                    8e:cb:cd:22:b2:72:be:91:8a:1f:36:8b:eb:92:97:
                    8c:df:c7:48:ac:d9:56:81:17:68:e7:d8:e0:a4:8f:
                    59:c5:9b:35:46:d4:f9:c6:f2:54:0f:b8:a1:0f:b8:
                    2c:16:3a:00:e1:c4:e9:19:a4:1b:7e:f1:5e:5d:82:
                    33:9d:06:a4:8a:cf:8c:99:1c:fa:0b:a5:b9:60:d5:
                    65:9a:93:bb:ea:9c:d5:c5:37:58:98:f6:3b:fc:66:
                    8d:b0:26:2c:33:1c:3a:cd:11:f5:29:c8:71:a7:0d:
                    a1:ff:ec:63:aa:2a:58:15:de:8b:66:14:64:ee:da:
                    1e:9a:54:86:37:d3:22:38:ec:12:fd:c4:a9:b3:5f:
                    c1:13:8f:b0:68:13:d2:fb:f5:2c:7a:f2:53:1b:7d:
                    80:4b:f1:d9:d6:4c:e5:f0:75:f1:8a:1f:ec:93:cd:
                    47:5e:91:10:f4:f9:91:c7:6b:3c:0b:dc:54:b2:08:
                    73:8d:24:da:c8:74:c1:68:cb:92:4e:c1:1e:07:59:
                    49:d4:78:02:69:a6:d9:45:cc:6e:b9:27:73:ee:3d:
                    71:89
                Exponent: 65537 (0x10001)
        X509v3 extensions:
            Netscape Cert Type: 
                SSL Server
            X509v3 Subject Key Identifier: 
                2A:96:42:B5:F0:D3:75:00:A9:35:92:60:D3:6A:C2:8F:5C:FD:51:11
            X509v3 Authority Key Identifier: 
                keyid:BE:CA:53:AC:65:89:18:02:1E:F6:53:A2:50:12:94:60:EC:CC:05:FA
                DirName:/CN=CHENNAICA_CA/C=IN/O=CITRIX/OU=ANG/ST=KA/emailAddress=CHENNAICA_CA@CHENNAICA_mail.com
                serial:87:FB:C4:D4:5E:46:56:70

            Authority Information Access: 
                OCSP - URI:http://172.19.20.1/responderpath

    Signature Algorithm: sha256WithRSAEncryption
         40:d7:98:a1:68:ea:a5:66:c9:18:05:fb:37:ef:fa:b8:52:51:
         8f:fc:d6:7b:96:0b:fd:c9:f8:30:35:8e:cc:72:2a:76:3c:2c:
         23:e3:0b:41:d6:62:fb:98:92:e5:42:39:5b:20:61:bd:d4:f6:
         9c:06:0a:41:ef:b2:bd:3d:4c:05:8f:01:6f:f2:c8:55:e9:ef:
         da:8e:06:75:cd:06:e1:c7:af:f0:4d:2a:16:14:f1:f8:68:8c:
         bb:26:97:80:e6:4c:69:88:4f:87:ef:52:9e:60:66:b7:95:7c:
         ec:de:8d:6e:76:31:b6:b3:f8:53:7f:88:65:c6:42:43:18:98:
         a9:81:09:c2:f0:47:38:1a:ea:7f:44:e8:d7:bd:be:7b:fb:47:
         88:f5:b2:b0:44:96:0b:3f:52:18:14:e7:65:11:49:33:17:6b:
         80:1d:fe:af:14:34:fb:02:c2:93:10:67:7f:a4:a6:56:5f:10:
         41:26:4c:1b:bd:28:ca:10:00:1c:62:c0:9c:01:fa:66:04:31:
         82:8e:ad:05:51:fb:31:27:6c:92:f9:40:4f:29:2c:ff:82:63:
         f5:ab:a7:be:00:ab:f6:d2:10:59:66:be:51:e1:06:ec:55:1a:
         a7:0d:b4:be:90:49:5e:b2:42:ab:21:15:3e:b3:dd:ef:81:07:
         f5:a0:f7:ec
-----BEGIN CERTIFICATE-----
MIIEozCCA4ugAwIBAgIGCgsMDQ4vMA0GCSqGSIb3DQEBCwUAMIGAMRUwEwYDVQQD
FAxDSEVOTkFJQ0FfQ0ExCzAJBgNVBAYTAklOMQ8wDQYDVQQKEwZDSVRSSVgxDDAK
BgNVBAsTA0FORzELMAkGA1UECBMCS0ExLjAsBgkqhkiG9w0BCQEWH0NIRU5OQUlD
QV9DQUBDSEVOTkFJQ0FfbWFpbC5jb20wHhcNMTYwNzA4MDQzMzU3WhcNMjYwNzA2
MDQzMzU3WjB0MQswCQYDVQQIEwJLQTELMAkGA1UEBhMCSU4xHTAbBgNVBAMUFDEz
M19DSEVOTkFJQ0Ffc2VydmVyMSgwJgYJKoZIhvcNAQkBFhkxMzNfQ0hFTk5BSUNB
QHRlc3RfY2EuY29tMQ8wDQYDVQQKEwZDSVRSSVgwggEiMA0GCSqGSIb3DQEBAQUA
A4IBDwAwggEKAoIBAQCUWPV8h8TDmWN0eg6kojptnaO1o5lEtfsEmxqqr2jGcK3Y
bWxvt1vJCx0mDI7LzSKycr6Rih82i+uSl4zfx0is2VaBF2jn2OCkj1nFmzVG1PnG
8lQPuKEPuCwWOgDhxOkZpBt+8V5dgjOdBqSKz4yZHPoLpblg1WWak7vqnNXFN1iY
9jv8Zo2wJiwzHDrNEfUpyHGnDaH/7GOqKlgV3otmFGTu2h6aVIY30yI47BL9xKmz
X8ETj7BoE9L79Sx68lMbfYBL8dnWTOXwdfGKH+yTzUdekRD0+ZHHazwL3FSyCHON
JNrIdMFoy5JOwR4HWUnUeAJpptlFzG65J3PuPXGJAgMBAAGjggEsMIIBKDARBglg
hkgBhvhCAQEEBAMCBkAwHQYDVR0OBBYEFCqWQrXw03UAqTWSYNNqwo9c/VERMIG1
BgNVHSMEga0wgaqAFL7KU6xliRgCHvZTolASlGDszAX6oYGGpIGDMIGAMRUwEwYD
VQQDFAxDSEVOTkFJQ0FfQ0ExCzAJBgNVBAYTAklOMQ8wDQYDVQQKEwZDSVRSSVgx
DDAKBgNVBAsTA0FORzELMAkGA1UECBMCS0ExLjAsBgkqhkiG9w0BCQEWH0NIRU5O
QUlDQV9DQUBDSEVOTkFJQ0FfbWFpbC5jb22CCQCH+8TUXkZWcDA8BggrBgEFBQcB
AQQwMC4wLAYIKwYBBQUHMAGGIGh0dHA6Ly8xNzIuMTkuMjAuMS9yZXNwb25kZXJw
YXRoMA0GCSqGSIb3DQEBCwUAA4IBAQBA15ihaOqlZskYBfs37/q4UlGP/NZ7lgv9
yfgwNY7Mcip2PCwj4wtB1mL7mJLlQjlbIGG91PacBgpB77K9PUwFjwFv8shV6e/a
jgZ1zQbhx6/wTSoWFPH4aIy7JpeA5kxpiE+H71KeYGa3lXzs3o1udjG2s/hTf4hl
xkJDGJipgQnC8Ec4Gup/ROjXvb57+0eI9bKwRJYLP1IYFOdlEUkzF2uAHf6vFDT7
AsKTEGd/pKZWXxBBJkwbvSjKEAAcYsCcAfpmBDGCjq0FUfsxJ2yS+UBPKSz/gmP1
q6e+AKv20hBZZr5R4QbsVRqnDbS+kEleskKrIRU+s93vgQf1oPfs
-----END CERTIFICATE-----
