Certificate:
    Data:
        Version: 3 (0x2)
        Serial Number: 11042563100176 (0xa0b0c0d0e10)
    Signature Algorithm: sha256WithRSAEncryption
        Issuer: CN=CHENNAICA_CA, C=IN, O=CITRIX, OU=ANG, ST=KA/emailAddress=CHENNAICA_CA@CHENNAICA_mail.com
        Validity
            Not Before: Jul  8 04:33:49 2016 GMT
            Not After : Jul  6 04:33:49 2026 GMT
        Subject: ST=KA, C=IN, CN=102_CHENNAICA_server/emailAddress=102_CHENNAICA@test_ca.com, O=CITRIX
        Subject Public Key Info:
            Public Key Algorithm: rsaEncryption
                Public-Key: (2048 bit)
                Modulus:
                    00:e6:ee:43:66:85:5c:53:d1:0a:b8:64:51:89:2c:
                    b1:9e:f3:bb:d1:94:77:11:cb:17:a3:e5:7a:33:9a:
                    64:58:d3:b8:10:da:20:aa:ca:0c:c1:63:81:8d:5d:
                    c4:46:42:eb:6b:d5:98:c1:00:3b:af:9c:e1:07:38:
                    02:04:d8:a2:02:0d:bc:fe:fa:e4:50:e2:5d:fb:6f:
                    57:35:05:fc:7b:d7:7e:32:b5:02:26:98:e8:de:b3:
                    ce:a6:2c:64:0b:95:89:85:5b:e4:4c:9c:5c:cd:ef:
                    64:5f:c4:28:e7:0c:4b:71:a0:24:c1:61:81:f6:fb:
                    8b:01:b8:56:28:2b:e0:c5:22:d1:13:f4:cc:93:68:
                    03:62:3a:7b:8b:55:20:41:07:12:fd:25:a0:fd:bf:
                    d0:ec:9d:9f:8c:4e:28:dd:31:80:51:38:ce:17:5c:
                    bd:af:2e:6f:08:8e:ce:9b:88:7e:f2:66:f0:73:98:
                    73:73:0d:22:7e:39:6b:99:23:41:e8:c7:d9:e6:c3:
                    36:4f:ed:a1:b2:99:b4:7a:36:0e:18:f6:f1:84:bc:
                    dd:1c:71:01:fb:5d:01:bd:81:92:45:3a:2b:91:f7:
                    97:58:22:2e:60:17:8f:63:87:f9:50:0e:4d:75:df:
                    e7:71:c3:1b:10:a3:17:14:8a:52:b4:5a:48:5d:2b:
                    b3:7f
                Exponent: 65537 (0x10001)
        X509v3 extensions:
            Netscape Cert Type: 
                SSL Server
            X509v3 Subject Key Identifier: 
                68:4B:57:50:89:E0:B9:E1:5B:40:A7:EF:E5:43:02:DF:B4:64:2A:49
            X509v3 Authority Key Identifier: 
                keyid:BE:CA:53:AC:65:89:18:02:1E:F6:53:A2:50:12:94:60:EC:CC:05:FA
                DirName:/CN=CHENNAICA_CA/C=IN/O=CITRIX/OU=ANG/ST=KA/emailAddress=CHENNAICA_CA@CHENNAICA_mail.com
                serial:87:FB:C4:D4:5E:46:56:70

            Authority Information Access: 
                OCSP - URI:http://CHENNAICA_one.ocsptest.com/responderpath

    Signature Algorithm: sha256WithRSAEncryption
         7e:1e:cb:3b:1c:1a:c4:ad:a9:d8:68:fb:e6:66:92:29:82:41:
         ea:1a:ec:43:77:7a:99:65:46:56:45:9b:a7:fc:d0:dd:b9:b9:
         29:b1:96:3f:4a:42:58:84:20:9f:fb:ad:2e:86:e1:4a:8d:d4:
         48:ac:38:34:cf:4d:1f:88:f4:5b:83:6f:e3:18:ba:23:1a:a8:
         6f:b1:ba:9a:99:fb:47:83:0f:bc:4f:1f:17:bb:5d:32:01:4d:
         4b:c0:ce:21:03:69:1c:49:13:fd:9b:e4:dd:8e:4a:af:f4:b2:
         1f:d0:49:0a:be:7c:f2:3c:d4:46:30:ce:fb:8a:48:b6:d4:6e:
         c7:8a:0c:e8:32:79:8a:48:01:e2:eb:f8:8d:ba:a3:ad:c9:73:
         d7:66:d4:fc:77:c9:b6:74:bd:ab:66:f4:39:5a:d5:96:45:fb:
         13:ec:a7:3e:eb:4c:74:d9:5b:8d:a4:1e:f6:03:18:0b:61:07:
         da:e4:eb:eb:69:8f:57:44:a8:03:f2:03:0d:3a:34:eb:1e:6b:
         bc:2f:84:80:81:41:95:6a:6c:da:7a:8c:35:f3:66:fa:11:67:
         14:2f:76:5c:2b:ba:93:53:1f:af:52:92:92:00:cb:7c:83:9e:
         5d:6a:4b:27:b3:b4:c6:93:6e:1d:0f:27:4e:f5:a2:7b:dc:f6:
         b3:9d:ae:cb
-----BEGIN CERTIFICATE-----
MIIEsjCCA5qgAwIBAgIGCgsMDQ4QMA0GCSqGSIb3DQEBCwUAMIGAMRUwEwYDVQQD
FAxDSEVOTkFJQ0FfQ0ExCzAJBgNVBAYTAklOMQ8wDQYDVQQKEwZDSVRSSVgxDDAK
BgNVBAsTA0FORzELMAkGA1UECBMCS0ExLjAsBgkqhkiG9w0BCQEWH0NIRU5OQUlD
QV9DQUBDSEVOTkFJQ0FfbWFpbC5jb20wHhcNMTYwNzA4MDQzMzQ5WhcNMjYwNzA2
MDQzMzQ5WjB0MQswCQYDVQQIEwJLQTELMAkGA1UEBhMCSU4xHTAbBgNVBAMUFDEw
Ml9DSEVOTkFJQ0Ffc2VydmVyMSgwJgYJKoZIhvcNAQkBFhkxMDJfQ0hFTk5BSUNB
QHRlc3RfY2EuY29tMQ8wDQYDVQQKEwZDSVRSSVgwggEiMA0GCSqGSIb3DQEBAQUA
A4IBDwAwggEKAoIBAQDm7kNmhVxT0Qq4ZFGJLLGe87vRlHcRyxej5XozmmRY07gQ
2iCqygzBY4GNXcRGQutr1ZjBADuvnOEHOAIE2KICDbz++uRQ4l37b1c1Bfx7134y
tQImmOjes86mLGQLlYmFW+RMnFzN72RfxCjnDEtxoCTBYYH2+4sBuFYoK+DFItET
9MyTaANiOnuLVSBBBxL9JaD9v9DsnZ+MTijdMYBROM4XXL2vLm8Ijs6biH7yZvBz
mHNzDSJ+OWuZI0Hox9nmwzZP7aGymbR6Ng4Y9vGEvN0ccQH7XQG9gZJFOiuR95dY
Ii5gF49jh/lQDk113+dxwxsQoxcUilK0WkhdK7N/AgMBAAGjggE7MIIBNzARBglg
hkgBhvhCAQEEBAMCBkAwHQYDVR0OBBYEFGhLV1CJ4LnhW0Cn7+VDAt+0ZCpJMIG1
BgNVHSMEga0wgaqAFL7KU6xliRgCHvZTolASlGDszAX6oYGGpIGDMIGAMRUwEwYD
VQQDFAxDSEVOTkFJQ0FfQ0ExCzAJBgNVBAYTAklOMQ8wDQYDVQQKEwZDSVRSSVgx
DDAKBgNVBAsTA0FORzELMAkGA1UECBMCS0ExLjAsBgkqhkiG9w0BCQEWH0NIRU5O
QUlDQV9DQUBDSEVOTkFJQ0FfbWFpbC5jb22CCQCH+8TUXkZWcDBLBggrBgEFBQcB
AQQ/MD0wOwYIKwYBBQUHMAGGL2h0dHA6Ly9DSEVOTkFJQ0Ffb25lLm9jc3B0ZXN0
LmNvbS9yZXNwb25kZXJwYXRoMA0GCSqGSIb3DQEBCwUAA4IBAQB+Hss7HBrEranY
aPvmZpIpgkHqGuxDd3qZZUZWRZun/NDdubkpsZY/SkJYhCCf+60uhuFKjdRIrDg0
z00fiPRbg2/jGLojGqhvsbqamftHgw+8Tx8Xu10yAU1LwM4hA2kcSRP9m+Tdjkqv
9LIf0EkKvnzyPNRGMM77iki21G7HigzoMnmKSAHi6/iNuqOtyXPXZtT8d8m2dL2r
ZvQ5WtWWRfsT7Kc+60x02VuNpB72AxgLYQfa5OvraY9XRKgD8gMNOjTrHmu8L4SA
gUGVamzaeow182b6EWcUL3ZcK7qTUx+vUpKSAMt8g55daksns7TGk24dDydO9aJ7
3Pazna7L
-----END CERTIFICATE-----
