Certificate:
    Data:
        Version: 3 (0x2)
        Serial Number: 11042563100205 (0xa0b0c0d0e2d)
    Signature Algorithm: sha256WithRSAEncryption
        Issuer: CN=CHENNAICA_CA, C=IN, O=CITRIX, OU=ANG, ST=KA/emailAddress=CHENNAICA_CA@CHENNAICA_mail.com
        Validity
            Not Before: Jul  8 04:33:56 2016 GMT
            Not After : Jul  6 04:33:56 2026 GMT
        Subject: ST=KA, C=IN, CN=131_CHENNAICA_server/emailAddress=131_CHENNAICA@test_ca.com, O=CITRIX
        Subject Public Key Info:
            Public Key Algorithm: rsaEncryption
                Public-Key: (2048 bit)
                Modulus:
                    00:ba:be:ff:aa:2f:31:bb:3a:2d:fd:3e:01:95:08:
                    a2:98:d2:f9:b0:d2:0b:57:da:7f:7d:12:a3:01:ce:
                    6d:84:cf:b4:c8:5f:fe:b9:30:08:64:e7:93:2d:c0:
                    f0:b7:09:8a:7c:a3:f5:7c:4a:f7:f2:4a:10:a2:c2:
                    cb:ad:23:0a:57:45:24:fb:0f:32:6f:aa:53:d5:1c:
                    a0:6b:2d:8f:6f:05:f3:96:cb:d2:58:97:73:07:79:
                    7c:23:4c:ae:97:3b:fb:23:c5:b2:e5:ad:a0:f7:f3:
                    12:7d:81:3e:1d:a2:9d:b6:14:48:13:84:3d:90:b5:
                    7c:1e:e8:10:00:c5:5b:b3:5c:f4:37:0a:ae:45:54:
                    d7:86:5a:aa:68:ae:58:d8:37:e4:fe:2c:53:5e:db:
                    3b:05:d3:64:f2:ad:b2:58:a5:f3:0e:3d:18:f1:7d:
                    e7:15:2c:44:d0:d8:fa:f1:02:80:a9:0a:27:a3:23:
                    d6:21:76:f9:2c:7c:c5:20:b9:f0:1b:9f:33:64:17:
                    1d:ba:60:2a:da:40:a1:21:be:b5:b1:87:c6:e5:5c:
                    f6:4b:df:52:b6:17:c6:a2:c9:c0:46:38:f6:23:97:
                    c9:8f:c8:34:c8:0c:03:2c:f6:a4:e2:6c:c8:8e:0f:
                    06:9b:fa:70:d7:47:80:dd:69:90:8b:22:dd:6a:9b:
                    19:55
                Exponent: 65537 (0x10001)
        X509v3 extensions:
            Netscape Cert Type: 
                SSL Server
            X509v3 Subject Key Identifier: 
                9A:A8:2C:73:DF:00:FF:B9:C9:AB:CD:06:77:17:B8:39:13:39:18:DC
            X509v3 Authority Key Identifier: 
                keyid:BE:CA:53:AC:65:89:18:02:1E:F6:53:A2:50:12:94:60:EC:CC:05:FA
                DirName:/CN=CHENNAICA_CA/C=IN/O=CITRIX/OU=ANG/ST=KA/emailAddress=CHENNAICA_CA@CHENNAICA_mail.com
                serial:87:FB:C4:D4:5E:46:56:70

            Authority Information Access: 
                OCSP - URI:http://172.19.20.1/responderpath

    Signature Algorithm: sha256WithRSAEncryption
         02:f9:b9:ac:6f:51:17:b4:9a:d4:42:43:4f:d9:91:ad:9f:99:
         a5:ac:8b:57:dc:aa:83:29:8a:05:b7:a2:e3:04:4e:79:9a:d2:
         78:5d:77:4d:5e:4c:eb:aa:65:a9:4d:28:90:44:48:e1:ad:b0:
         8e:3b:ec:90:32:e4:44:6f:9b:a8:a2:fa:62:da:da:fa:00:64:
         e2:b6:b7:62:2c:ae:c7:9b:cc:57:55:65:a6:d8:ac:dd:1b:bd:
         2c:3a:60:22:62:d3:78:57:a2:3f:b3:e4:90:f8:48:1a:5d:fc:
         03:bc:4f:6b:af:34:a0:fa:dd:92:f5:eb:bd:75:b0:02:0d:71:
         66:30:f4:80:ea:21:9a:a2:2c:06:9c:49:ce:84:ce:6b:c0:9e:
         b3:d8:91:0b:a8:86:e7:3d:dc:c4:f6:6d:48:c5:75:61:0a:e6:
         06:73:a6:25:ee:d8:56:cc:74:f9:64:8c:f8:2a:67:ce:eb:ff:
         db:0a:2d:e8:c6:c1:79:72:af:36:27:8a:b3:e9:a4:b7:1f:45:
         ee:3e:b1:f9:18:23:df:ff:d4:65:8f:f2:df:9e:a2:b3:c9:ce:
         cc:9c:e9:95:1e:c6:71:1d:36:9b:29:8e:3a:d6:d4:84:a6:53:
         0e:60:05:b3:1b:3b:92:9e:cf:41:9d:2c:ed:f4:3e:14:86:04:
         4c:e0:b6:9c
-----BEGIN CERTIFICATE-----
MIIEozCCA4ugAwIBAgIGCgsMDQ4tMA0GCSqGSIb3DQEBCwUAMIGAMRUwEwYDVQQD
FAxDSEVOTkFJQ0FfQ0ExCzAJBgNVBAYTAklOMQ8wDQYDVQQKEwZDSVRSSVgxDDAK
BgNVBAsTA0FORzELMAkGA1UECBMCS0ExLjAsBgkqhkiG9w0BCQEWH0NIRU5OQUlD
QV9DQUBDSEVOTkFJQ0FfbWFpbC5jb20wHhcNMTYwNzA4MDQzMzU2WhcNMjYwNzA2
MDQzMzU2WjB0MQswCQYDVQQIEwJLQTELMAkGA1UEBhMCSU4xHTAbBgNVBAMUFDEz
MV9DSEVOTkFJQ0Ffc2VydmVyMSgwJgYJKoZIhvcNAQkBFhkxMzFfQ0hFTk5BSUNB
QHRlc3RfY2EuY29tMQ8wDQYDVQQKEwZDSVRSSVgwggEiMA0GCSqGSIb3DQEBAQUA
A4IBDwAwggEKAoIBAQC6vv+qLzG7Oi39PgGVCKKY0vmw0gtX2n99EqMBzm2Ez7TI
X/65MAhk55MtwPC3CYp8o/V8SvfyShCiwsutIwpXRST7DzJvqlPVHKBrLY9vBfOW
y9JYl3MHeXwjTK6XO/sjxbLlraD38xJ9gT4dop22FEgThD2QtXwe6BAAxVuzXPQ3
Cq5FVNeGWqporljYN+T+LFNe2zsF02TyrbJYpfMOPRjxfecVLETQ2PrxAoCpCiej
I9YhdvksfMUgufAbnzNkFx26YCraQKEhvrWxh8blXPZL31K2F8aiycBGOPYjl8mP
yDTIDAMs9qTibMiODwab+nDXR4DdaZCLIt1qmxlVAgMBAAGjggEsMIIBKDARBglg
hkgBhvhCAQEEBAMCBkAwHQYDVR0OBBYEFJqoLHPfAP+5yavNBncXuDkTORjcMIG1
BgNVHSMEga0wgaqAFL7KU6xliRgCHvZTolASlGDszAX6oYGGpIGDMIGAMRUwEwYD
VQQDFAxDSEVOTkFJQ0FfQ0ExCzAJBgNVBAYTAklOMQ8wDQYDVQQKEwZDSVRSSVgx
DDAKBgNVBAsTA0FORzELMAkGA1UECBMCS0ExLjAsBgkqhkiG9w0BCQEWH0NIRU5O
QUlDQV9DQUBDSEVOTkFJQ0FfbWFpbC5jb22CCQCH+8TUXkZWcDA8BggrBgEFBQcB
AQQwMC4wLAYIKwYBBQUHMAGGIGh0dHA6Ly8xNzIuMTkuMjAuMS9yZXNwb25kZXJw
YXRoMA0GCSqGSIb3DQEBCwUAA4IBAQAC+bmsb1EXtJrUQkNP2ZGtn5mlrItX3KqD
KYoFt6LjBE55mtJ4XXdNXkzrqmWpTSiQREjhrbCOO+yQMuREb5uoovpi2tr6AGTi
trdiLK7Hm8xXVWWm2KzdG70sOmAiYtN4V6I/s+SQ+EgaXfwDvE9rrzSg+t2S9eu9
dbACDXFmMPSA6iGaoiwGnEnOhM5rwJ6z2JELqIbnPdzE9m1IxXVhCuYGc6Yl7thW
zHT5ZIz4KmfO6//bCi3oxsF5cq82J4qz6aS3H0XuPrH5GCPf/9Rlj/LfnqKzyc7M
nOmVHsZxHTabKY461tSEplMOYAWzGzuSns9BnSzt9D4UhgRM4Lac
-----END CERTIFICATE-----
