Certificate:
    Data:
        Version: 3 (0x2)
        Serial Number: 11042563100194 (0xa0b0c0d0e22)
    Signature Algorithm: sha256WithRSAEncryption
        Issuer: CN=CHENNAICA_CA, C=IN, O=CITRIX, OU=ANG, ST=KA/emailAddress=CHENNAICA_CA@CHENNAICA_mail.com
        Validity
            Not Before: Jul  8 04:33:54 2016 GMT
            Not After : Jul  6 04:33:54 2026 GMT
        Subject: ST=KA, C=IN, CN=120_CHENNAICA_server/emailAddress=120_CHENNAICA@test_ca.com, O=CITRIX
        Subject Public Key Info:
            Public Key Algorithm: rsaEncryption
                Public-Key: (2048 bit)
                Modulus:
                    00:9c:fb:94:23:86:ee:39:5c:cc:3f:b3:01:9f:9c:
                    91:9f:3a:fc:b5:d7:a0:55:b4:58:4c:10:bc:49:9c:
                    bf:3a:71:f5:26:3e:a7:0e:12:1a:c6:ea:13:25:d1:
                    55:b4:7b:8f:fe:99:ea:4c:c6:81:70:b9:fd:73:f3:
                    18:90:22:0b:6b:de:26:da:a6:31:b9:f5:0b:f0:b8:
                    66:80:19:1f:d3:77:56:7a:78:f6:98:cc:69:52:28:
                    2e:ba:16:43:5f:c0:56:d4:1d:bc:f9:a7:26:2a:2b:
                    a4:58:7b:01:d2:6c:20:4a:84:a6:23:bb:5a:6f:c0:
                    af:f4:6a:56:39:23:71:19:23:57:09:f2:72:80:20:
                    5b:e5:fb:98:9d:62:12:f6:f5:bb:ef:f4:86:b7:50:
                    34:b7:6a:f2:a6:b6:ed:bc:05:6f:bd:e7:22:0e:1f:
                    ee:57:bc:46:a3:88:09:b5:84:2f:91:4d:8c:d9:46:
                    c8:51:45:63:d6:71:b2:5f:48:af:a7:a8:51:43:4a:
                    32:9c:a2:be:26:4f:21:4d:c4:6f:0e:00:f1:7d:3a:
                    c5:34:9e:69:78:d7:37:99:29:2d:55:cb:00:5b:11:
                    06:07:cc:0f:a5:e4:fb:70:ba:ca:84:4e:82:9d:9a:
                    26:0e:fe:77:ec:75:d9:fb:4a:7e:36:62:c7:14:a5:
                    37:53
                Exponent: 65537 (0x10001)
        X509v3 extensions:
            Netscape Cert Type: 
                SSL Server
            X509v3 Subject Key Identifier: 
                4D:86:3D:33:7A:4E:9B:4C:35:FA:26:0A:1E:0B:CC:00:F7:9B:7E:17
            X509v3 Authority Key Identifier: 
                keyid:BE:CA:53:AC:65:89:18:02:1E:F6:53:A2:50:12:94:60:EC:CC:05:FA
                DirName:/CN=CHENNAICA_CA/C=IN/O=CITRIX/OU=ANG/ST=KA/emailAddress=CHENNAICA_CA@CHENNAICA_mail.com
                serial:87:FB:C4:D4:5E:46:56:70

            Authority Information Access: 
                OCSP - URI:http://CHENNAICA_two.ocsptest.com/responderpath

    Signature Algorithm: sha256WithRSAEncryption
         b9:d3:39:9c:97:4d:7c:72:cf:1f:81:bb:54:fb:6d:64:48:4a:
         96:5f:58:33:84:2e:49:88:8e:a5:f4:d8:6d:73:67:15:2a:05:
         35:6a:1b:18:ea:ad:c0:c4:5d:f4:e9:02:82:71:02:fd:a6:99:
         e4:b6:c3:50:87:5b:98:c7:21:ef:07:8d:70:c7:01:5b:7c:6d:
         ec:c1:88:db:71:29:92:c2:d7:65:a9:e1:1b:22:63:5d:79:8f:
         dc:64:88:19:f1:e3:dd:2c:c7:a2:d2:00:08:a7:cd:22:18:61:
         b2:04:f2:79:91:f7:54:9f:b0:d1:92:d4:95:63:7a:e1:f7:5c:
         e9:19:72:0d:f7:7a:6e:03:f7:94:7d:55:28:aa:06:16:ef:f0:
         04:8a:dc:a0:3b:96:dc:85:8b:68:f0:c4:21:68:59:2f:3b:c6:
         50:1d:1c:d2:fa:a2:c5:a4:91:8e:bc:a5:4c:ef:75:e9:26:cd:
         85:41:36:6e:5d:b7:7e:80:18:9c:75:9c:ab:40:2d:73:bb:c2:
         83:4d:be:0f:17:20:60:bf:f6:74:46:a9:5c:8c:e0:02:50:44:
         85:e1:6e:0d:a3:59:d7:fb:3b:ec:1a:db:a3:e3:59:86:91:1e:
         28:75:72:73:6a:cc:fd:a3:7b:57:c8:05:76:0e:38:ac:40:41:
         21:c2:0d:26
-----BEGIN CERTIFICATE-----
MIIEsjCCA5qgAwIBAgIGCgsMDQ4iMA0GCSqGSIb3DQEBCwUAMIGAMRUwEwYDVQQD
FAxDSEVOTkFJQ0FfQ0ExCzAJBgNVBAYTAklOMQ8wDQYDVQQKEwZDSVRSSVgxDDAK
BgNVBAsTA0FORzELMAkGA1UECBMCS0ExLjAsBgkqhkiG9w0BCQEWH0NIRU5OQUlD
QV9DQUBDSEVOTkFJQ0FfbWFpbC5jb20wHhcNMTYwNzA4MDQzMzU0WhcNMjYwNzA2
MDQzMzU0WjB0MQswCQYDVQQIEwJLQTELMAkGA1UEBhMCSU4xHTAbBgNVBAMUFDEy
MF9DSEVOTkFJQ0Ffc2VydmVyMSgwJgYJKoZIhvcNAQkBFhkxMjBfQ0hFTk5BSUNB
QHRlc3RfY2EuY29tMQ8wDQYDVQQKEwZDSVRSSVgwggEiMA0GCSqGSIb3DQEBAQUA
A4IBDwAwggEKAoIBAQCc+5Qjhu45XMw/swGfnJGfOvy116BVtFhMELxJnL86cfUm
PqcOEhrG6hMl0VW0e4/+mepMxoFwuf1z8xiQIgtr3ibapjG59QvwuGaAGR/Td1Z6
ePaYzGlSKC66FkNfwFbUHbz5pyYqK6RYewHSbCBKhKYju1pvwK/0alY5I3EZI1cJ
8nKAIFvl+5idYhL29bvv9Ia3UDS3avKmtu28BW+95yIOH+5XvEajiAm1hC+RTYzZ
RshRRWPWcbJfSK+nqFFDSjKcor4mTyFNxG8OAPF9OsU0nml41zeZKS1VywBbEQYH
zA+l5PtwusqEToKdmiYO/nfsddn7Sn42YscUpTdTAgMBAAGjggE7MIIBNzARBglg
hkgBhvhCAQEEBAMCBkAwHQYDVR0OBBYEFE2GPTN6TptMNfomCh4LzAD3m34XMIG1
BgNVHSMEga0wgaqAFL7KU6xliRgCHvZTolASlGDszAX6oYGGpIGDMIGAMRUwEwYD
VQQDFAxDSEVOTkFJQ0FfQ0ExCzAJBgNVBAYTAklOMQ8wDQYDVQQKEwZDSVRSSVgx
DDAKBgNVBAsTA0FORzELMAkGA1UECBMCS0ExLjAsBgkqhkiG9w0BCQEWH0NIRU5O
QUlDQV9DQUBDSEVOTkFJQ0FfbWFpbC5jb22CCQCH+8TUXkZWcDBLBggrBgEFBQcB
AQQ/MD0wOwYIKwYBBQUHMAGGL2h0dHA6Ly9DSEVOTkFJQ0FfdHdvLm9jc3B0ZXN0
LmNvbS9yZXNwb25kZXJwYXRoMA0GCSqGSIb3DQEBCwUAA4IBAQC50zmcl018cs8f
gbtU+21kSEqWX1gzhC5JiI6l9Nhtc2cVKgU1ahsY6q3AxF306QKCcQL9ppnktsNQ
h1uYxyHvB41wxwFbfG3swYjbcSmSwtdlqeEbImNdeY/cZIgZ8ePdLMei0gAIp80i
GGGyBPJ5kfdUn7DRktSVY3rh91zpGXIN93puA/eUfVUoqgYW7/AEitygO5bchYto
8MQhaFkvO8ZQHRzS+qLFpJGOvKVM73XpJs2FQTZuXbd+gBicdZyrQC1zu8KDTb4P
FyBgv/Z0RqlcjOACUESF4W4No1nX+zvsGtuj41mGkR4odXJzasz9o3tXyAV2Djis
QEEhwg0m
-----END CERTIFICATE-----
