Certificate:
    Data:
        Version: 3 (0x2)
        Serial Number: 11042563100182 (0xa0b0c0d0e16)
    Signature Algorithm: sha256WithRSAEncryption
        Issuer: CN=CHENNAICA_CA, C=IN, O=CITRIX, OU=ANG, ST=KA/emailAddress=CHENNAICA_CA@CHENNAICA_mail.com
        Validity
            Not Before: Jul  8 04:33:50 2016 GMT
            Not After : Jul  6 04:33:50 2026 GMT
        Subject: ST=KA, C=IN, CN=108_CHENNAICA_server/emailAddress=108_CHENNAICA@test_ca.com, O=CITRIX
        Subject Public Key Info:
            Public Key Algorithm: rsaEncryption
                Public-Key: (2048 bit)
                Modulus:
                    00:a4:b3:55:71:ad:a7:4f:6a:f3:9b:1c:90:53:f1:
                    aa:7b:71:e9:ef:7e:70:32:10:de:6e:27:b9:26:0d:
                    0e:fc:8f:d2:b9:eb:87:1b:10:7a:47:57:52:6a:0c:
                    64:17:c3:93:7f:d5:95:94:1a:a2:a8:df:68:61:ef:
                    9b:5f:1c:37:7f:28:81:4d:19:5b:b7:d6:75:1b:36:
                    b0:c9:ed:bb:67:d1:a0:49:2c:8d:66:86:3c:cc:a8:
                    ec:2d:14:22:e8:fc:47:82:cc:f6:49:42:bf:a8:d1:
                    97:f8:d1:4b:85:0e:1e:08:d5:a9:c8:10:61:8b:e9:
                    3b:e9:a5:79:18:a7:98:a9:53:dc:12:5f:fd:cf:3e:
                    e8:2b:d4:46:11:92:fe:45:0a:c2:32:40:38:3b:ba:
                    d2:9e:28:9e:0d:2b:21:88:31:6e:27:29:f5:68:47:
                    31:63:b2:42:bd:e4:76:f6:f8:f6:7d:4c:85:1d:25:
                    23:82:62:18:87:19:d6:ed:2d:df:6d:cf:d8:a4:c7:
                    01:40:f8:40:db:fe:a2:4c:b4:3d:c6:96:cc:38:51:
                    d1:29:7a:f2:f7:c9:f9:c5:71:af:a2:c2:9a:d9:3c:
                    a8:48:34:e1:9b:93:7e:64:d7:b8:22:c8:69:16:e9:
                    c4:61:eb:e7:2f:6f:b6:0e:35:07:68:04:76:bb:3b:
                    38:71
                Exponent: 65537 (0x10001)
        X509v3 extensions:
            Netscape Cert Type: 
                SSL Server
            X509v3 Subject Key Identifier: 
                E0:79:07:36:64:0D:92:94:10:A3:3C:85:18:BD:B0:FE:EC:4D:F5:13
            X509v3 Authority Key Identifier: 
                keyid:BE:CA:53:AC:65:89:18:02:1E:F6:53:A2:50:12:94:60:EC:CC:05:FA
                DirName:/CN=CHENNAICA_CA/C=IN/O=CITRIX/OU=ANG/ST=KA/emailAddress=CHENNAICA_CA@CHENNAICA_mail.com
                serial:87:FB:C4:D4:5E:46:56:70

            Authority Information Access: 
                OCSP - URI:http://CHENNAICA_one.ocsptest.com/responderpath

    Signature Algorithm: sha256WithRSAEncryption
         a8:a2:d6:ce:e5:02:0c:51:5e:90:f7:4c:48:1a:ef:6d:f8:06:
         b8:15:d8:27:7a:4e:7c:f7:86:d7:fb:eb:26:0a:53:a4:90:2d:
         b4:a7:5e:ec:69:f2:69:1f:0f:a1:ab:7a:9c:3b:57:25:ea:d7:
         0f:ef:e6:9e:0f:c7:83:01:58:bb:3d:d2:9e:cd:d1:74:08:94:
         65:c2:4b:07:c8:89:52:5c:4f:f8:ac:27:3f:e8:78:3c:09:ca:
         9f:f8:6e:ee:68:a6:f4:cc:c0:f2:41:8b:91:6e:b5:22:e9:ae:
         86:59:1c:89:5c:d3:19:74:12:76:12:7d:be:aa:5e:de:2b:45:
         a1:60:6a:8d:2d:f7:dc:05:0d:5e:83:2f:8d:3f:60:cf:04:06:
         2d:a0:f4:60:61:90:08:e1:0e:aa:f9:f7:46:5d:9f:41:4b:f2:
         9e:b1:5f:76:aa:7a:3d:da:dd:25:97:66:e8:32:9b:e1:6c:d7:
         08:08:c3:a6:28:d7:66:d4:3d:26:d4:42:92:f9:ec:96:ab:5a:
         cf:4a:ef:2d:cd:9d:2f:4a:29:ae:71:b0:ae:00:fa:9c:e4:5c:
         a2:e5:ec:38:d7:d7:10:cd:8d:d9:29:fc:2c:07:48:f9:22:74:
         ec:67:f5:39:b6:2a:a2:2f:49:bd:b2:a9:98:0a:08:38:e0:a2:
         ec:0f:55:c8
-----BEGIN CERTIFICATE-----
MIIEsjCCA5qgAwIBAgIGCgsMDQ4WMA0GCSqGSIb3DQEBCwUAMIGAMRUwEwYDVQQD
FAxDSEVOTkFJQ0FfQ0ExCzAJBgNVBAYTAklOMQ8wDQYDVQQKEwZDSVRSSVgxDDAK
BgNVBAsTA0FORzELMAkGA1UECBMCS0ExLjAsBgkqhkiG9w0BCQEWH0NIRU5OQUlD
QV9DQUBDSEVOTkFJQ0FfbWFpbC5jb20wHhcNMTYwNzA4MDQzMzUwWhcNMjYwNzA2
MDQzMzUwWjB0MQswCQYDVQQIEwJLQTELMAkGA1UEBhMCSU4xHTAbBgNVBAMUFDEw
OF9DSEVOTkFJQ0Ffc2VydmVyMSgwJgYJKoZIhvcNAQkBFhkxMDhfQ0hFTk5BSUNB
QHRlc3RfY2EuY29tMQ8wDQYDVQQKEwZDSVRSSVgwggEiMA0GCSqGSIb3DQEBAQUA
A4IBDwAwggEKAoIBAQCks1VxradPavObHJBT8ap7cenvfnAyEN5uJ7kmDQ78j9K5
64cbEHpHV1JqDGQXw5N/1ZWUGqKo32hh75tfHDd/KIFNGVu31nUbNrDJ7btn0aBJ
LI1mhjzMqOwtFCLo/EeCzPZJQr+o0Zf40UuFDh4I1anIEGGL6TvppXkYp5ipU9wS
X/3PPugr1EYRkv5FCsIyQDg7utKeKJ4NKyGIMW4nKfVoRzFjskK95Hb2+PZ9TIUd
JSOCYhiHGdbtLd9tz9ikxwFA+EDb/qJMtD3Glsw4UdEpevL3yfnFca+iwprZPKhI
NOGbk35k17giyGkW6cRh6+cvb7YONQdoBHa7OzhxAgMBAAGjggE7MIIBNzARBglg
hkgBhvhCAQEEBAMCBkAwHQYDVR0OBBYEFOB5BzZkDZKUEKM8hRi9sP7sTfUTMIG1
BgNVHSMEga0wgaqAFL7KU6xliRgCHvZTolASlGDszAX6oYGGpIGDMIGAMRUwEwYD
VQQDFAxDSEVOTkFJQ0FfQ0ExCzAJBgNVBAYTAklOMQ8wDQYDVQQKEwZDSVRSSVgx
DDAKBgNVBAsTA0FORzELMAkGA1UECBMCS0ExLjAsBgkqhkiG9w0BCQEWH0NIRU5O
QUlDQV9DQUBDSEVOTkFJQ0FfbWFpbC5jb22CCQCH+8TUXkZWcDBLBggrBgEFBQcB
AQQ/MD0wOwYIKwYBBQUHMAGGL2h0dHA6Ly9DSEVOTkFJQ0Ffb25lLm9jc3B0ZXN0
LmNvbS9yZXNwb25kZXJwYXRoMA0GCSqGSIb3DQEBCwUAA4IBAQCootbO5QIMUV6Q
90xIGu9t+Aa4Fdgnek5894bX++smClOkkC20p17safJpHw+hq3qcO1cl6tcP7+ae
D8eDAVi7PdKezdF0CJRlwksHyIlSXE/4rCc/6Hg8Ccqf+G7uaKb0zMDyQYuRbrUi
6a6GWRyJXNMZdBJ2En2+ql7eK0WhYGqNLffcBQ1egy+NP2DPBAYtoPRgYZAI4Q6q
+fdGXZ9BS/KesV92qno92t0ll2boMpvhbNcICMOmKNdm1D0m1EKS+eyWq1rPSu8t
zZ0vSimucbCuAPqc5Fyi5ew419cQzY3ZKfwsB0j5InTsZ/U5tiqiL0m9sqmYCgg4
4KLsD1XI
-----END CERTIFICATE-----
