Certificate:
    Data:
        Version: 3 (0x2)
        Serial Number: 11042563100192 (0xa0b0c0d0e20)
    Signature Algorithm: sha256WithRSAEncryption
        Issuer: CN=CHENNAICA_CA, C=IN, O=CITRIX, OU=ANG, ST=KA/emailAddress=CHENNAICA_CA@CHENNAICA_mail.com
        Validity
            Not Before: Jul  8 04:33:53 2016 GMT
            Not After : Jul  6 04:33:53 2026 GMT
        Subject: ST=KA, C=IN, CN=118_CHENNAICA_server/emailAddress=118_CHENNAICA@test_ca.com, O=CITRIX
        Subject Public Key Info:
            Public Key Algorithm: rsaEncryption
                Public-Key: (2048 bit)
                Modulus:
                    00:ac:5d:66:d1:dd:87:89:d6:5b:6f:85:1c:49:58:
                    2d:b0:fd:d4:62:88:60:c6:b2:ac:d8:b6:ac:db:1d:
                    ef:a7:d9:78:9f:d3:36:28:52:31:75:e6:c3:28:a7:
                    c5:b9:c1:8a:bb:05:19:14:5c:8a:49:4c:b7:d8:dc:
                    26:6a:cc:ab:df:9b:1f:dc:79:bb:f1:73:d7:0c:24:
                    8c:28:b0:4d:33:20:d2:ce:b2:26:0d:3a:f8:bc:23:
                    3c:cf:47:a4:75:b3:38:04:d9:6e:8b:ab:49:f6:df:
                    7b:71:28:dc:7a:2b:4b:e3:02:f1:ce:0a:db:d8:c6:
                    42:de:26:44:c8:e5:f8:66:b6:2a:9b:29:f4:79:a7:
                    a0:99:7a:13:65:4b:90:bb:5d:c1:f7:c8:6a:c7:fd:
                    80:e3:da:b2:50:27:8a:ef:63:8e:24:a9:28:80:24:
                    0c:6e:5e:ff:7f:5c:01:27:48:cb:e4:3b:8f:63:67:
                    02:61:e7:31:4d:29:a0:7b:6b:33:01:1b:7e:05:41:
                    c9:49:1c:5c:0d:5b:bf:1d:54:e7:34:66:3d:61:fa:
                    92:be:91:05:1a:27:3e:7e:95:d0:93:ed:6c:91:cc:
                    7a:65:0d:1a:54:dc:24:a1:54:f4:1c:c7:d0:89:a8:
                    1b:7a:15:dd:5c:ad:50:05:76:b7:66:5b:41:bf:29:
                    b0:a1
                Exponent: 65537 (0x10001)
        X509v3 extensions:
            Netscape Cert Type: 
                SSL Server
            X509v3 Subject Key Identifier: 
                4A:27:EF:C1:5E:E1:25:83:4F:68:A6:FD:0F:9F:59:6D:8E:03:70:C4
            X509v3 Authority Key Identifier: 
                keyid:BE:CA:53:AC:65:89:18:02:1E:F6:53:A2:50:12:94:60:EC:CC:05:FA
                DirName:/CN=CHENNAICA_CA/C=IN/O=CITRIX/OU=ANG/ST=KA/emailAddress=CHENNAICA_CA@CHENNAICA_mail.com
                serial:87:FB:C4:D4:5E:46:56:70

            Authority Information Access: 
                OCSP - URI:http://CHENNAICA_two.ocsptest.com/responderpath

    Signature Algorithm: sha256WithRSAEncryption
         2b:be:30:22:19:13:8a:81:6b:06:bc:3d:93:20:c4:dd:ce:ad:
         e0:b5:c4:fd:16:50:f1:44:e6:72:64:bb:c8:63:cb:c1:8c:6b:
         b9:cb:4c:75:e3:a5:f5:c6:97:4e:b9:7a:c4:60:c5:00:87:4e:
         3e:10:3e:1d:ad:c5:cc:87:f5:f6:81:16:b4:0b:a8:5e:6b:cb:
         e6:5e:21:19:c4:bc:aa:0f:88:07:42:99:40:4a:9d:d1:a8:ac:
         fc:bb:09:ab:85:4e:3e:f8:2a:c5:4a:40:ee:2c:7e:a6:ce:43:
         33:ff:16:c2:97:2b:42:5a:d0:f9:b5:6a:a7:e9:4c:ec:98:44:
         65:ba:1a:52:b0:81:8a:e2:f8:00:2a:89:7b:3e:a7:54:db:d0:
         89:23:75:1d:f7:f5:0b:1d:8c:55:10:67:be:6a:58:34:53:25:
         3c:38:12:a4:d6:44:a1:0e:d8:bf:07:40:e7:f5:38:c3:12:32:
         c9:a5:03:13:31:3b:bf:37:84:8d:f6:3f:f9:e3:f2:93:91:d0:
         26:90:2f:c7:97:4d:54:8c:e7:17:5a:d9:07:4c:b2:0d:5a:02:
         27:fb:e1:ae:48:3d:e6:e6:9a:66:0b:87:c5:ae:b0:fb:69:18:
         c9:08:48:93:cd:4e:9f:8b:ea:e1:50:b6:ae:d6:a4:32:fb:0f:
         ee:60:96:1e
-----BEGIN CERTIFICATE-----
MIIEsjCCA5qgAwIBAgIGCgsMDQ4gMA0GCSqGSIb3DQEBCwUAMIGAMRUwEwYDVQQD
FAxDSEVOTkFJQ0FfQ0ExCzAJBgNVBAYTAklOMQ8wDQYDVQQKEwZDSVRSSVgxDDAK
BgNVBAsTA0FORzELMAkGA1UECBMCS0ExLjAsBgkqhkiG9w0BCQEWH0NIRU5OQUlD
QV9DQUBDSEVOTkFJQ0FfbWFpbC5jb20wHhcNMTYwNzA4MDQzMzUzWhcNMjYwNzA2
MDQzMzUzWjB0MQswCQYDVQQIEwJLQTELMAkGA1UEBhMCSU4xHTAbBgNVBAMUFDEx
OF9DSEVOTkFJQ0Ffc2VydmVyMSgwJgYJKoZIhvcNAQkBFhkxMThfQ0hFTk5BSUNB
QHRlc3RfY2EuY29tMQ8wDQYDVQQKEwZDSVRSSVgwggEiMA0GCSqGSIb3DQEBAQUA
A4IBDwAwggEKAoIBAQCsXWbR3YeJ1ltvhRxJWC2w/dRiiGDGsqzYtqzbHe+n2Xif
0zYoUjF15sMop8W5wYq7BRkUXIpJTLfY3CZqzKvfmx/cebvxc9cMJIwosE0zINLO
siYNOvi8IzzPR6R1szgE2W6Lq0n233txKNx6K0vjAvHOCtvYxkLeJkTI5fhmtiqb
KfR5p6CZehNlS5C7XcH3yGrH/YDj2rJQJ4rvY44kqSiAJAxuXv9/XAEnSMvkO49j
ZwJh5zFNKaB7azMBG34FQclJHFwNW78dVOc0Zj1h+pK+kQUaJz5+ldCT7WyRzHpl
DRpU3CShVPQcx9CJqBt6Fd1crVAFdrdmW0G/KbChAgMBAAGjggE7MIIBNzARBglg
hkgBhvhCAQEEBAMCBkAwHQYDVR0OBBYEFEon78Fe4SWDT2im/Q+fWW2OA3DEMIG1
BgNVHSMEga0wgaqAFL7KU6xliRgCHvZTolASlGDszAX6oYGGpIGDMIGAMRUwEwYD
VQQDFAxDSEVOTkFJQ0FfQ0ExCzAJBgNVBAYTAklOMQ8wDQYDVQQKEwZDSVRSSVgx
DDAKBgNVBAsTA0FORzELMAkGA1UECBMCS0ExLjAsBgkqhkiG9w0BCQEWH0NIRU5O
QUlDQV9DQUBDSEVOTkFJQ0FfbWFpbC5jb22CCQCH+8TUXkZWcDBLBggrBgEFBQcB
AQQ/MD0wOwYIKwYBBQUHMAGGL2h0dHA6Ly9DSEVOTkFJQ0FfdHdvLm9jc3B0ZXN0
LmNvbS9yZXNwb25kZXJwYXRoMA0GCSqGSIb3DQEBCwUAA4IBAQArvjAiGROKgWsG
vD2TIMTdzq3gtcT9FlDxROZyZLvIY8vBjGu5y0x146X1xpdOuXrEYMUAh04+ED4d
rcXMh/X2gRa0C6hea8vmXiEZxLyqD4gHQplASp3RqKz8uwmrhU4++CrFSkDuLH6m
zkMz/xbClytCWtD5tWqn6UzsmERluhpSsIGK4vgAKol7PqdU29CJI3Ud9/ULHYxV
EGe+alg0UyU8OBKk1kShDti/B0Dn9TjDEjLJpQMTMTu/N4SN9j/54/KTkdAmkC/H
l01UjOcXWtkHTLINWgIn++GuSD3m5ppmC4fFrrD7aRjJCEiTzU6fi+rhULau1qQy
+w/uYJYe
-----END CERTIFICATE-----
