Certificate:
    Data:
        Version: 3 (0x2)
        Serial Number: 11042563100184 (0xa0b0c0d0e18)
    Signature Algorithm: sha256WithRSAEncryption
        Issuer: CN=CHENNAICA_CA, C=IN, O=CITRIX, OU=ANG, ST=KA/emailAddress=CHENNAICA_CA@CHENNAICA_mail.com
        Validity
            Not Before: Jul  8 04:33:51 2016 GMT
            Not After : Jul  6 04:33:51 2026 GMT
        Subject: ST=KA, C=IN, CN=110_CHENNAICA_server/emailAddress=110_CHENNAICA@test_ca.com, O=CITRIX
        Subject Public Key Info:
            Public Key Algorithm: rsaEncryption
                Public-Key: (2048 bit)
                Modulus:
                    00:f3:26:66:ac:b8:aa:b6:25:f3:54:1c:24:78:21:
                    c9:62:5c:bd:b9:10:cb:24:f4:56:80:a9:8b:1a:d5:
                    c3:f0:7e:2d:af:11:e8:35:f7:4f:c8:ec:cf:79:7a:
                    51:06:3a:5c:d5:b4:83:ba:74:bc:92:90:3e:2a:ed:
                    f8:b1:87:ef:a1:36:28:03:d5:d9:b1:57:37:ee:c6:
                    6d:4c:79:96:9f:32:80:9c:b5:22:b1:c4:64:ac:26:
                    9a:f8:72:2f:1e:43:08:bd:ce:a4:83:19:0d:c6:14:
                    c3:1a:eb:f6:f2:80:f6:be:94:f4:c3:9c:d9:be:2d:
                    db:73:75:bc:9b:57:06:09:aa:12:32:ed:f4:a4:32:
                    fb:84:b5:16:56:2c:ff:92:e2:d8:91:b9:9f:df:4c:
                    31:b0:55:4b:ed:20:cf:49:55:58:ad:35:94:11:74:
                    10:e4:0d:77:c0:8e:f2:34:ad:d0:1e:b6:19:07:ca:
                    89:5c:4c:fd:f2:14:21:9f:89:e1:b7:29:69:03:7f:
                    95:fc:03:6e:a1:83:8e:e1:b0:83:a2:32:08:fa:11:
                    11:7a:a8:db:9e:0a:4a:ab:90:2d:09:63:7c:73:3b:
                    2e:51:30:d6:d8:f5:98:3a:4b:71:1d:f0:97:59:83:
                    97:02:bc:ed:28:f9:de:2d:6d:94:c2:05:1e:fa:7f:
                    87:f7
                Exponent: 65537 (0x10001)
        X509v3 extensions:
            Netscape Cert Type: 
                SSL Server
            X509v3 Subject Key Identifier: 
                45:FC:E5:63:03:1A:20:AB:17:7C:0C:91:EB:AF:5A:0C:80:98:7F:10
            X509v3 Authority Key Identifier: 
                keyid:BE:CA:53:AC:65:89:18:02:1E:F6:53:A2:50:12:94:60:EC:CC:05:FA
                DirName:/CN=CHENNAICA_CA/C=IN/O=CITRIX/OU=ANG/ST=KA/emailAddress=CHENNAICA_CA@CHENNAICA_mail.com
                serial:87:FB:C4:D4:5E:46:56:70

            Authority Information Access: 
                OCSP - URI:http://CHENNAICA_one.ocsptest.com/responderpath

    Signature Algorithm: sha256WithRSAEncryption
         50:c5:16:c4:b7:97:69:d9:61:be:d8:52:e7:dd:04:e2:86:24:
         48:54:28:06:ff:0f:00:ba:5f:03:2c:68:d9:48:e2:0e:78:db:
         bc:ef:7d:7a:38:cc:4c:08:5e:b0:d8:2f:78:14:c1:07:3f:7f:
         d6:a4:b5:b5:2f:fc:c3:41:12:63:30:01:ee:39:74:9e:32:04:
         55:65:d7:e8:d7:dd:7b:28:1e:22:81:f8:68:80:3e:19:b4:0a:
         7f:fa:55:ab:55:de:17:b8:5d:70:d0:3b:cf:52:3c:ca:3a:fa:
         71:b7:e1:4a:ec:46:cb:b6:7c:29:a5:7b:dc:69:2f:21:4c:1b:
         e1:58:b6:de:12:66:87:1a:e5:24:61:60:13:6e:11:29:c5:65:
         d5:8b:57:a4:a1:ed:52:8e:47:6f:47:14:a5:83:79:47:8d:c9:
         a3:65:2c:75:5a:09:80:9b:98:6d:43:79:04:95:35:17:6b:ac:
         01:08:03:9e:8a:99:69:bf:7b:15:b5:6a:97:9f:42:10:af:66:
         de:fe:89:0d:31:94:79:07:15:4c:33:4b:bb:ab:d3:16:3f:06:
         37:90:f9:d2:90:81:51:91:69:cb:67:c3:15:34:81:29:92:df:
         86:39:41:42:4b:57:c7:47:80:d6:6a:db:02:64:3d:fe:3d:b0:
         40:1c:73:4b
-----BEGIN CERTIFICATE-----
MIIEsjCCA5qgAwIBAgIGCgsMDQ4YMA0GCSqGSIb3DQEBCwUAMIGAMRUwEwYDVQQD
FAxDSEVOTkFJQ0FfQ0ExCzAJBgNVBAYTAklOMQ8wDQYDVQQKEwZDSVRSSVgxDDAK
BgNVBAsTA0FORzELMAkGA1UECBMCS0ExLjAsBgkqhkiG9w0BCQEWH0NIRU5OQUlD
QV9DQUBDSEVOTkFJQ0FfbWFpbC5jb20wHhcNMTYwNzA4MDQzMzUxWhcNMjYwNzA2
MDQzMzUxWjB0MQswCQYDVQQIEwJLQTELMAkGA1UEBhMCSU4xHTAbBgNVBAMUFDEx
MF9DSEVOTkFJQ0Ffc2VydmVyMSgwJgYJKoZIhvcNAQkBFhkxMTBfQ0hFTk5BSUNB
QHRlc3RfY2EuY29tMQ8wDQYDVQQKEwZDSVRSSVgwggEiMA0GCSqGSIb3DQEBAQUA
A4IBDwAwggEKAoIBAQDzJmasuKq2JfNUHCR4IcliXL25EMsk9FaAqYsa1cPwfi2v
Eeg190/I7M95elEGOlzVtIO6dLySkD4q7fixh++hNigD1dmxVzfuxm1MeZafMoCc
tSKxxGSsJpr4ci8eQwi9zqSDGQ3GFMMa6/bygPa+lPTDnNm+LdtzdbybVwYJqhIy
7fSkMvuEtRZWLP+S4tiRuZ/fTDGwVUvtIM9JVVitNZQRdBDkDXfAjvI0rdAethkH
yolcTP3yFCGfieG3KWkDf5X8A26hg47hsIOiMgj6ERF6qNueCkqrkC0JY3xzOy5R
MNbY9Zg6S3Ed8JdZg5cCvO0o+d4tbZTCBR76f4f3AgMBAAGjggE7MIIBNzARBglg
hkgBhvhCAQEEBAMCBkAwHQYDVR0OBBYEFEX85WMDGiCrF3wMkeuvWgyAmH8QMIG1
BgNVHSMEga0wgaqAFL7KU6xliRgCHvZTolASlGDszAX6oYGGpIGDMIGAMRUwEwYD
VQQDFAxDSEVOTkFJQ0FfQ0ExCzAJBgNVBAYTAklOMQ8wDQYDVQQKEwZDSVRSSVgx
DDAKBgNVBAsTA0FORzELMAkGA1UECBMCS0ExLjAsBgkqhkiG9w0BCQEWH0NIRU5O
QUlDQV9DQUBDSEVOTkFJQ0FfbWFpbC5jb22CCQCH+8TUXkZWcDBLBggrBgEFBQcB
AQQ/MD0wOwYIKwYBBQUHMAGGL2h0dHA6Ly9DSEVOTkFJQ0Ffb25lLm9jc3B0ZXN0
LmNvbS9yZXNwb25kZXJwYXRoMA0GCSqGSIb3DQEBCwUAA4IBAQBQxRbEt5dp2WG+
2FLn3QTihiRIVCgG/w8Aul8DLGjZSOIOeNu87316OMxMCF6w2C94FMEHP3/WpLW1
L/zDQRJjMAHuOXSeMgRVZdfo1917KB4igfhogD4ZtAp/+lWrVd4XuF1w0DvPUjzK
Ovpxt+FK7EbLtnwppXvcaS8hTBvhWLbeEmaHGuUkYWATbhEpxWXVi1ekoe1Sjkdv
RxSlg3lHjcmjZSx1WgmAm5htQ3kElTUXa6wBCAOeiplpv3sVtWqXn0IQr2be/okN
MZR5BxVMM0u7q9MWPwY3kPnSkIFRkWnLZ8MVNIEpkt+GOUFCS1fHR4DWatsCZD3+
PbBAHHNL
-----END CERTIFICATE-----
