Certificate:
    Data:
        Version: 3 (0x2)
        Serial Number: 11042563100198 (0xa0b0c0d0e26)
    Signature Algorithm: sha256WithRSAEncryption
        Issuer: CN=CHENNAICA_CA, C=IN, O=CITRIX, OU=ANG, ST=KA/emailAddress=CHENNAICA_CA@CHENNAICA_mail.com
        Validity
            Not Before: Jul  8 04:33:55 2016 GMT
            Not After : Jul  6 04:33:55 2026 GMT
        Subject: ST=KA, C=IN, CN=124_CHENNAICA_server/emailAddress=124_CHENNAICA@test_ca.com, O=CITRIX
        Subject Public Key Info:
            Public Key Algorithm: rsaEncryption
                Public-Key: (2048 bit)
                Modulus:
                    00:a6:79:91:b9:b9:4e:2f:2c:b6:e4:e0:6c:a4:bf:
                    4d:f8:fd:18:3a:c1:4b:54:01:79:e5:5b:71:79:cd:
                    c3:cd:07:13:3e:ea:d4:33:4a:39:f1:93:aa:92:5c:
                    02:bd:51:6d:02:dc:5c:1f:d2:57:19:97:ef:4d:4e:
                    a9:ce:f5:b6:e4:13:27:03:01:a1:a0:92:fd:c2:46:
                    b3:ff:c5:b0:76:dc:d0:a4:ba:2d:c3:45:27:4e:91:
                    ae:a9:06:60:8d:01:46:cf:dc:2a:a3:e0:46:b5:b7:
                    e3:c2:15:3f:30:40:57:d6:19:81:ec:86:11:a6:88:
                    46:20:08:4e:14:c2:4d:57:68:f4:9b:08:d3:f4:1e:
                    ad:50:57:fb:f4:23:4e:b4:28:3b:d5:a7:c6:3a:20:
                    ee:a5:11:6b:6c:ca:19:99:58:4b:10:89:e5:1b:9e:
                    88:2f:e2:c3:bd:26:5d:bd:e1:86:e8:10:3c:ce:66:
                    ac:83:11:57:0b:45:32:0c:11:2e:d4:0d:52:43:fc:
                    87:09:11:b2:a5:f8:97:74:37:20:53:d0:8f:69:fb:
                    27:c1:74:e3:c6:c0:0b:57:4b:b3:6b:55:fc:7e:20:
                    d1:5e:c2:89:3f:35:c8:b5:fd:83:f0:42:08:f4:5b:
                    11:27:a7:42:54:7a:89:c4:af:ea:e6:5f:5f:cd:63:
                    3a:e7
                Exponent: 65537 (0x10001)
        X509v3 extensions:
            Netscape Cert Type: 
                SSL Server
            X509v3 Subject Key Identifier: 
                94:E5:57:51:22:A6:BC:E3:3E:B6:0D:6E:78:39:C1:8F:3B:74:32:58
            X509v3 Authority Key Identifier: 
                keyid:BE:CA:53:AC:65:89:18:02:1E:F6:53:A2:50:12:94:60:EC:CC:05:FA
                DirName:/CN=CHENNAICA_CA/C=IN/O=CITRIX/OU=ANG/ST=KA/emailAddress=CHENNAICA_CA@CHENNAICA_mail.com
                serial:87:FB:C4:D4:5E:46:56:70

            Authority Information Access: 
                OCSP - URI:http://172.19.10.1/responderpath

    Signature Algorithm: sha256WithRSAEncryption
         20:d4:24:18:da:48:85:b4:4c:be:65:a3:5b:42:3e:09:1d:35:
         bc:5a:bb:a7:21:43:8c:d9:bb:ae:a1:9b:c3:a2:23:2f:00:7c:
         c6:36:2b:8a:3d:16:f5:3b:1b:5c:6e:ac:c6:df:ad:c5:46:8e:
         8e:c2:ac:4f:94:a1:a6:11:b4:76:b7:fb:fb:e2:9a:1e:74:ae:
         9e:98:9b:7f:2c:5e:b6:dc:10:64:07:38:10:5c:1b:ff:d0:05:
         44:65:46:59:3b:64:14:b6:2f:54:2a:81:50:26:ea:7d:03:c5:
         32:47:3b:31:f7:c3:b8:b4:6b:2a:3b:83:6f:0a:47:d2:20:21:
         a3:70:b0:38:43:f8:15:76:cc:e0:db:10:7a:6f:6e:8c:de:79:
         12:61:53:5b:92:c5:8e:ac:4c:96:a5:3e:25:09:89:90:c7:53:
         3e:57:4c:c2:ae:51:81:62:f7:17:f5:6e:2d:18:70:c7:d3:04:
         7e:da:32:57:82:ed:82:72:0c:79:77:17:79:ab:ae:4c:3b:71:
         e2:eb:71:c2:49:f3:b2:86:80:0f:f1:02:99:f6:24:62:5e:9c:
         6e:f6:dc:0a:89:a8:0a:8f:a3:29:f6:1c:7c:98:26:24:b6:46:
         01:85:b8:fe:4b:d5:9d:6a:f9:80:c5:5b:06:34:51:2a:f0:50:
         3e:bc:c4:b9
-----BEGIN CERTIFICATE-----
MIIEozCCA4ugAwIBAgIGCgsMDQ4mMA0GCSqGSIb3DQEBCwUAMIGAMRUwEwYDVQQD
FAxDSEVOTkFJQ0FfQ0ExCzAJBgNVBAYTAklOMQ8wDQYDVQQKEwZDSVRSSVgxDDAK
BgNVBAsTA0FORzELMAkGA1UECBMCS0ExLjAsBgkqhkiG9w0BCQEWH0NIRU5OQUlD
QV9DQUBDSEVOTkFJQ0FfbWFpbC5jb20wHhcNMTYwNzA4MDQzMzU1WhcNMjYwNzA2
MDQzMzU1WjB0MQswCQYDVQQIEwJLQTELMAkGA1UEBhMCSU4xHTAbBgNVBAMUFDEy
NF9DSEVOTkFJQ0Ffc2VydmVyMSgwJgYJKoZIhvcNAQkBFhkxMjRfQ0hFTk5BSUNB
QHRlc3RfY2EuY29tMQ8wDQYDVQQKEwZDSVRSSVgwggEiMA0GCSqGSIb3DQEBAQUA
A4IBDwAwggEKAoIBAQCmeZG5uU4vLLbk4Gykv034/Rg6wUtUAXnlW3F5zcPNBxM+
6tQzSjnxk6qSXAK9UW0C3Fwf0lcZl+9NTqnO9bbkEycDAaGgkv3CRrP/xbB23NCk
ui3DRSdOka6pBmCNAUbP3Cqj4Ea1t+PCFT8wQFfWGYHshhGmiEYgCE4Uwk1XaPSb
CNP0Hq1QV/v0I060KDvVp8Y6IO6lEWtsyhmZWEsQieUbnogv4sO9Jl294YboEDzO
ZqyDEVcLRTIMES7UDVJD/IcJEbKl+Jd0NyBT0I9p+yfBdOPGwAtXS7NrVfx+INFe
wok/Nci1/YPwQgj0WxEnp0JUeonEr+rmX1/NYzrnAgMBAAGjggEsMIIBKDARBglg
hkgBhvhCAQEEBAMCBkAwHQYDVR0OBBYEFJTlV1EiprzjPrYNbng5wY87dDJYMIG1
BgNVHSMEga0wgaqAFL7KU6xliRgCHvZTolASlGDszAX6oYGGpIGDMIGAMRUwEwYD
VQQDFAxDSEVOTkFJQ0FfQ0ExCzAJBgNVBAYTAklOMQ8wDQYDVQQKEwZDSVRSSVgx
DDAKBgNVBAsTA0FORzELMAkGA1UECBMCS0ExLjAsBgkqhkiG9w0BCQEWH0NIRU5O
QUlDQV9DQUBDSEVOTkFJQ0FfbWFpbC5jb22CCQCH+8TUXkZWcDA8BggrBgEFBQcB
AQQwMC4wLAYIKwYBBQUHMAGGIGh0dHA6Ly8xNzIuMTkuMTAuMS9yZXNwb25kZXJw
YXRoMA0GCSqGSIb3DQEBCwUAA4IBAQAg1CQY2kiFtEy+ZaNbQj4JHTW8WrunIUOM
2buuoZvDoiMvAHzGNiuKPRb1OxtcbqzG363FRo6OwqxPlKGmEbR2t/v74poedK6e
mJt/LF623BBkBzgQXBv/0AVEZUZZO2QUti9UKoFQJup9A8UyRzsx98O4tGsqO4Nv
CkfSICGjcLA4Q/gVdszg2xB6b26M3nkSYVNbksWOrEyWpT4lCYmQx1M+V0zCrlGB
YvcX9W4tGHDH0wR+2jJXgu2Ccgx5dxd5q65MO3Hi63HCSfOyhoAP8QKZ9iRiXpxu
9twKiagKj6Mp9hx8mCYktkYBhbj+S9WdavmAxVsGNFEq8FA+vMS5
-----END CERTIFICATE-----
