Certificate:
    Data:
        Version: 3 (0x2)
        Serial Number: 11042563100186 (0xa0b0c0d0e1a)
    Signature Algorithm: sha256WithRSAEncryption
        Issuer: CN=CHENNAICA_CA, C=IN, O=CITRIX, OU=ANG, ST=KA/emailAddress=CHENNAICA_CA@CHENNAICA_mail.com
        Validity
            Not Before: Jul  8 04:33:52 2016 GMT
            Not After : Jul  6 04:33:52 2026 GMT
        Subject: ST=KA, C=IN, CN=112_CHENNAICA_server/emailAddress=112_CHENNAICA@test_ca.com, O=CITRIX
        Subject Public Key Info:
            Public Key Algorithm: rsaEncryption
                Public-Key: (2048 bit)
                Modulus:
                    00:cc:fc:2e:58:39:45:dc:3a:45:dc:b8:ae:95:d8:
                    c8:ef:69:ec:a5:09:a1:7e:fa:c7:45:27:69:ff:fd:
                    8f:f5:7a:4e:c6:bf:19:91:19:b6:c0:a1:e5:ba:12:
                    2b:cf:7f:b5:28:6b:8f:e7:b3:c4:63:8d:4d:91:fd:
                    fb:54:4f:0f:43:ca:27:2d:fe:38:82:3d:89:df:e0:
                    a2:4b:64:9f:f4:52:88:31:b3:a2:8f:9f:1a:2f:09:
                    9e:b8:07:1e:a8:92:a0:bb:b0:39:81:5b:ac:c9:c4:
                    84:90:1c:a1:bc:7e:26:ce:20:cf:c9:bf:88:fe:f1:
                    c9:c4:56:97:d9:54:71:bd:a5:98:34:69:cd:b8:10:
                    76:d9:77:78:02:0f:6d:cb:93:96:30:53:ac:38:67:
                    f8:b5:e3:01:b9:72:fb:5f:ae:be:f9:9f:bf:8f:14:
                    59:3c:5f:83:e7:39:8f:c6:7d:cf:5e:fc:54:e5:f5:
                    90:29:cd:93:2f:9c:70:8b:eb:f7:0b:7c:b0:19:31:
                    6d:91:70:33:e3:23:61:6f:be:fe:68:88:b3:14:14:
                    69:83:6c:02:ea:33:68:89:a2:8a:51:6c:8e:08:ad:
                    b9:8c:e2:ee:86:45:1e:28:f9:3c:33:1c:03:d4:ef:
                    d7:a9:48:d4:f7:80:02:06:7d:b2:bf:ea:bd:5f:05:
                    80:65
                Exponent: 65537 (0x10001)
        X509v3 extensions:
            Netscape Cert Type: 
                SSL Server
            X509v3 Subject Key Identifier: 
                2F:F5:53:BA:B8:09:05:89:42:B1:87:81:01:84:7B:AD:07:36:9A:BD
            X509v3 Authority Key Identifier: 
                keyid:BE:CA:53:AC:65:89:18:02:1E:F6:53:A2:50:12:94:60:EC:CC:05:FA
                DirName:/CN=CHENNAICA_CA/C=IN/O=CITRIX/OU=ANG/ST=KA/emailAddress=CHENNAICA_CA@CHENNAICA_mail.com
                serial:87:FB:C4:D4:5E:46:56:70

            Authority Information Access: 
                OCSP - URI:http://CHENNAICA_two.ocsptest.com/responderpath

    Signature Algorithm: sha256WithRSAEncryption
         5d:2f:a7:15:07:43:87:40:48:b5:07:e8:aa:98:1a:ea:0e:66:
         1d:72:f5:99:54:af:03:8a:db:70:e7:6e:56:f8:1d:da:48:6a:
         ea:2e:7c:68:a8:40:a6:53:78:ac:72:aa:3d:d5:68:49:90:0b:
         c0:3f:a4:90:12:2f:5b:bb:59:6e:11:e9:01:da:22:69:06:2a:
         f8:59:18:9a:7b:2f:b2:25:c2:b5:49:f9:c0:74:b7:e4:99:ef:
         5d:e0:54:05:5e:bb:f9:5e:0c:9b:77:81:d5:c7:c6:3f:6e:8f:
         91:09:92:9e:59:24:05:08:a3:d5:b8:8f:4c:0f:5e:a5:8b:f6:
         d5:84:bd:e5:34:8f:05:71:8d:42:36:1f:86:2f:aa:3c:12:8d:
         d9:48:42:f4:cc:0b:08:f3:05:60:c2:f1:c4:54:90:0e:f2:fc:
         94:84:08:fc:ce:ad:b5:98:22:7b:fa:a3:25:e4:56:37:00:2c:
         a3:5b:f8:a4:28:bd:0e:5e:16:53:c2:61:33:24:2a:4e:1c:a1:
         a9:45:49:a9:79:a0:b0:6e:63:5e:5f:90:fa:14:d4:f1:c6:64:
         04:7c:64:b6:12:63:ec:c1:50:da:07:60:f2:44:97:f6:6f:21:
         8f:8f:b8:96:42:71:8a:f7:3e:fc:cf:e4:7b:32:66:cb:f6:69:
         5e:f7:86:6f
-----BEGIN CERTIFICATE-----
MIIEsjCCA5qgAwIBAgIGCgsMDQ4aMA0GCSqGSIb3DQEBCwUAMIGAMRUwEwYDVQQD
FAxDSEVOTkFJQ0FfQ0ExCzAJBgNVBAYTAklOMQ8wDQYDVQQKEwZDSVRSSVgxDDAK
BgNVBAsTA0FORzELMAkGA1UECBMCS0ExLjAsBgkqhkiG9w0BCQEWH0NIRU5OQUlD
QV9DQUBDSEVOTkFJQ0FfbWFpbC5jb20wHhcNMTYwNzA4MDQzMzUyWhcNMjYwNzA2
MDQzMzUyWjB0MQswCQYDVQQIEwJLQTELMAkGA1UEBhMCSU4xHTAbBgNVBAMUFDEx
Ml9DSEVOTkFJQ0Ffc2VydmVyMSgwJgYJKoZIhvcNAQkBFhkxMTJfQ0hFTk5BSUNB
QHRlc3RfY2EuY29tMQ8wDQYDVQQKEwZDSVRSSVgwggEiMA0GCSqGSIb3DQEBAQUA
A4IBDwAwggEKAoIBAQDM/C5YOUXcOkXcuK6V2MjvaeylCaF++sdFJ2n//Y/1ek7G
vxmRGbbAoeW6EivPf7Uoa4/ns8RjjU2R/ftUTw9Dyict/jiCPYnf4KJLZJ/0Uogx
s6KPnxovCZ64Bx6okqC7sDmBW6zJxISQHKG8fibOIM/Jv4j+8cnEVpfZVHG9pZg0
ac24EHbZd3gCD23Lk5YwU6w4Z/i14wG5cvtfrr75n7+PFFk8X4PnOY/Gfc9e/FTl
9ZApzZMvnHCL6/cLfLAZMW2RcDPjI2Fvvv5oiLMUFGmDbALqM2iJoopRbI4IrbmM
4u6GRR4o+TwzHAPU79epSNT3gAIGfbK/6r1fBYBlAgMBAAGjggE7MIIBNzARBglg
hkgBhvhCAQEEBAMCBkAwHQYDVR0OBBYEFC/1U7q4CQWJQrGHgQGEe60HNpq9MIG1
BgNVHSMEga0wgaqAFL7KU6xliRgCHvZTolASlGDszAX6oYGGpIGDMIGAMRUwEwYD
VQQDFAxDSEVOTkFJQ0FfQ0ExCzAJBgNVBAYTAklOMQ8wDQYDVQQKEwZDSVRSSVgx
DDAKBgNVBAsTA0FORzELMAkGA1UECBMCS0ExLjAsBgkqhkiG9w0BCQEWH0NIRU5O
QUlDQV9DQUBDSEVOTkFJQ0FfbWFpbC5jb22CCQCH+8TUXkZWcDBLBggrBgEFBQcB
AQQ/MD0wOwYIKwYBBQUHMAGGL2h0dHA6Ly9DSEVOTkFJQ0FfdHdvLm9jc3B0ZXN0
LmNvbS9yZXNwb25kZXJwYXRoMA0GCSqGSIb3DQEBCwUAA4IBAQBdL6cVB0OHQEi1
B+iqmBrqDmYdcvWZVK8Dittw525W+B3aSGrqLnxoqECmU3iscqo91WhJkAvAP6SQ
Ei9bu1luEekB2iJpBir4WRiaey+yJcK1SfnAdLfkme9d4FQFXrv5Xgybd4HVx8Y/
bo+RCZKeWSQFCKPVuI9MD16li/bVhL3lNI8FcY1CNh+GL6o8Eo3ZSEL0zAsI8wVg
wvHEVJAO8vyUhAj8zq21mCJ7+qMl5FY3ACyjW/ikKL0OXhZTwmEzJCpOHKGpRUmp
eaCwbmNeX5D6FNTxxmQEfGS2EmPswVDaB2DyRJf2byGPj7iWQnGK9z78z+R7MmbL
9mle94Zv
-----END CERTIFICATE-----
