Certificate:
    Data:
        Version: 3 (0x2)
        Serial Number: 11042563100211 (0xa0b0c0d0e33)
    Signature Algorithm: sha256WithRSAEncryption
        Issuer: CN=CHENNAICA_CA, C=IN, O=CITRIX, OU=ANG, ST=KA/emailAddress=CHENNAICA_CA@CHENNAICA_mail.com
        Validity
            Not Before: Jul  8 04:33:58 2016 GMT
            Not After : Jul  6 04:33:58 2026 GMT
        Subject: ST=KA, C=IN, CN=137_CHENNAICA_server/emailAddress=137_CHENNAICA@test_ca.com, O=CITRIX
        Subject Public Key Info:
            Public Key Algorithm: rsaEncryption
                Public-Key: (2048 bit)
                Modulus:
                    00:c3:c6:93:2b:95:b4:ca:72:ba:75:d5:f0:66:e4:
                    3d:50:c0:8c:23:08:e4:b8:67:f5:69:5c:99:64:7d:
                    90:01:b9:a0:5b:ac:31:93:c7:28:3d:e4:d0:75:1e:
                    18:f7:94:3f:65:42:d2:63:fc:1d:d4:8b:89:e5:b2:
                    e3:99:7a:3b:64:58:cc:33:56:80:dd:7a:c7:15:3d:
                    0b:c8:f4:8d:9e:73:d0:ca:a8:2f:7f:ff:de:9f:09:
                    28:cc:5a:57:74:d3:f1:38:7e:6d:3d:9d:0a:0d:dc:
                    e9:6f:9d:82:dd:e2:df:a3:54:4e:0d:ba:11:48:4d:
                    44:73:ec:9d:00:59:98:30:6c:3d:96:8f:12:83:84:
                    49:f1:24:89:60:ed:6d:98:cf:f4:61:cd:6e:f4:23:
                    a7:c1:28:5e:86:41:e4:c6:a2:98:e9:c6:0a:c5:dc:
                    cd:50:00:35:08:8d:91:09:f6:47:22:9a:90:1f:c4:
                    2d:1e:a2:37:6a:55:08:f9:32:6b:d4:b4:19:b2:97:
                    d5:27:a7:15:ee:93:10:71:1c:c1:ed:3a:1f:b6:7a:
                    07:d6:ae:db:f4:be:4d:01:83:31:63:e6:85:b7:32:
                    17:b4:76:e6:e7:c2:25:ff:2e:e4:a0:ef:74:69:82:
                    3b:50:23:b7:6e:19:be:5e:9b:8f:c9:05:e3:15:c9:
                    a0:01
                Exponent: 65537 (0x10001)
        X509v3 extensions:
            Netscape Cert Type: 
                SSL Server
            X509v3 Subject Key Identifier: 
                BF:7C:D6:DF:F1:5E:B0:5E:D3:5A:5E:C4:81:B0:18:B2:50:7B:46:F7
            X509v3 Authority Key Identifier: 
                keyid:BE:CA:53:AC:65:89:18:02:1E:F6:53:A2:50:12:94:60:EC:CC:05:FA
                DirName:/CN=CHENNAICA_CA/C=IN/O=CITRIX/OU=ANG/ST=KA/emailAddress=CHENNAICA_CA@CHENNAICA_mail.com
                serial:87:FB:C4:D4:5E:46:56:70

            Authority Information Access: 
                OCSP - URI:http://172.19.20.1/responderpath

    Signature Algorithm: sha256WithRSAEncryption
         50:ed:36:a1:a6:8d:9d:af:bc:62:88:a5:18:5a:03:c4:b8:b7:
         02:e6:aa:0f:40:31:d6:4b:0f:bc:16:f2:3a:ba:62:14:43:55:
         cd:c1:90:d8:0f:e0:57:c0:ea:ef:fc:05:6e:86:8a:4b:b0:27:
         3d:99:60:3a:19:ca:aa:08:a6:bf:cc:a9:43:d4:bf:cf:74:ac:
         db:10:18:68:86:ce:4d:77:4f:36:cc:65:da:f6:e8:c9:61:47:
         3f:b2:fd:4a:80:e5:a3:22:60:a5:44:84:55:49:ae:98:ed:c9:
         2a:14:9c:df:f9:47:cb:4f:f3:14:4e:ce:a0:e3:4f:09:3f:76:
         b2:0c:f0:56:80:a1:b9:04:87:45:99:62:dd:1c:ba:9d:ae:e7:
         c2:1a:c5:f6:91:d8:86:e3:16:1d:81:ed:3c:00:07:9b:e4:87:
         ef:20:93:e3:a4:2f:59:ef:8c:8f:59:66:0d:3e:28:f5:3d:7d:
         23:ee:b1:26:2a:4e:73:41:6b:6f:01:20:90:1f:b6:62:21:bf:
         9d:a6:84:cb:8e:7b:d9:9a:22:15:2b:9a:7d:6d:b7:62:ee:b9:
         e5:08:0c:e7:e2:6a:63:7f:75:11:9b:02:80:da:12:27:fb:78:
         37:71:79:3c:35:0d:2d:63:c2:65:ba:54:f3:a7:fc:16:ce:b5:
         1a:96:51:9c
-----BEGIN CERTIFICATE-----
MIIEozCCA4ugAwIBAgIGCgsMDQ4zMA0GCSqGSIb3DQEBCwUAMIGAMRUwEwYDVQQD
FAxDSEVOTkFJQ0FfQ0ExCzAJBgNVBAYTAklOMQ8wDQYDVQQKEwZDSVRSSVgxDDAK
BgNVBAsTA0FORzELMAkGA1UECBMCS0ExLjAsBgkqhkiG9w0BCQEWH0NIRU5OQUlD
QV9DQUBDSEVOTkFJQ0FfbWFpbC5jb20wHhcNMTYwNzA4MDQzMzU4WhcNMjYwNzA2
MDQzMzU4WjB0MQswCQYDVQQIEwJLQTELMAkGA1UEBhMCSU4xHTAbBgNVBAMUFDEz
N19DSEVOTkFJQ0Ffc2VydmVyMSgwJgYJKoZIhvcNAQkBFhkxMzdfQ0hFTk5BSUNB
QHRlc3RfY2EuY29tMQ8wDQYDVQQKEwZDSVRSSVgwggEiMA0GCSqGSIb3DQEBAQUA
A4IBDwAwggEKAoIBAQDDxpMrlbTKcrp11fBm5D1QwIwjCOS4Z/VpXJlkfZABuaBb
rDGTxyg95NB1Hhj3lD9lQtJj/B3Ui4nlsuOZejtkWMwzVoDdescVPQvI9I2ec9DK
qC9//96fCSjMWld00/E4fm09nQoN3OlvnYLd4t+jVE4NuhFITURz7J0AWZgwbD2W
jxKDhEnxJIlg7W2Yz/RhzW70I6fBKF6GQeTGopjpxgrF3M1QADUIjZEJ9kcimpAf
xC0eojdqVQj5MmvUtBmyl9UnpxXukxBxHMHtOh+2egfWrtv0vk0BgzFj5oW3Mhe0
dubnwiX/LuSg73RpgjtQI7duGb5em4/JBeMVyaABAgMBAAGjggEsMIIBKDARBglg
hkgBhvhCAQEEBAMCBkAwHQYDVR0OBBYEFL981t/xXrBe01pexIGwGLJQe0b3MIG1
BgNVHSMEga0wgaqAFL7KU6xliRgCHvZTolASlGDszAX6oYGGpIGDMIGAMRUwEwYD
VQQDFAxDSEVOTkFJQ0FfQ0ExCzAJBgNVBAYTAklOMQ8wDQYDVQQKEwZDSVRSSVgx
DDAKBgNVBAsTA0FORzELMAkGA1UECBMCS0ExLjAsBgkqhkiG9w0BCQEWH0NIRU5O
QUlDQV9DQUBDSEVOTkFJQ0FfbWFpbC5jb22CCQCH+8TUXkZWcDA8BggrBgEFBQcB
AQQwMC4wLAYIKwYBBQUHMAGGIGh0dHA6Ly8xNzIuMTkuMjAuMS9yZXNwb25kZXJw
YXRoMA0GCSqGSIb3DQEBCwUAA4IBAQBQ7Tahpo2dr7xiiKUYWgPEuLcC5qoPQDHW
Sw+8FvI6umIUQ1XNwZDYD+BXwOrv/AVuhopLsCc9mWA6GcqqCKa/zKlD1L/PdKzb
EBhohs5Nd082zGXa9ujJYUc/sv1KgOWjImClRIRVSa6Y7ckqFJzf+UfLT/MUTs6g
408JP3ayDPBWgKG5BIdFmWLdHLqdrufCGsX2kdiG4xYdge08AAeb5IfvIJPjpC9Z
74yPWWYNPij1PX0j7rEmKk5zQWtvASCQH7ZiIb+dpoTLjnvZmiIVK5p9bbdi7rnl
CAzn4mpjf3URmwKA2hIn+3g3cXk8NQ0tY8JlulTzp/wWzrUallGc
-----END CERTIFICATE-----
