Certificate:
    Data:
        Version: 3 (0x2)
        Serial Number: 11042563100183 (0xa0b0c0d0e17)
    Signature Algorithm: sha256WithRSAEncryption
        Issuer: CN=CHENNAICA_CA, C=IN, O=CITRIX, OU=ANG, ST=KA/emailAddress=CHENNAICA_CA@CHENNAICA_mail.com
        Validity
            Not Before: Jul  8 04:33:51 2016 GMT
            Not After : Jul  6 04:33:51 2026 GMT
        Subject: ST=KA, C=IN, CN=109_CHENNAICA_server/emailAddress=109_CHENNAICA@test_ca.com, O=CITRIX
        Subject Public Key Info:
            Public Key Algorithm: rsaEncryption
                Public-Key: (2048 bit)
                Modulus:
                    00:fd:33:83:81:e4:55:7e:c8:48:28:92:09:66:1d:
                    1c:fa:aa:d3:52:59:03:15:50:e2:5e:87:bb:71:2a:
                    37:52:4b:fc:5d:ae:12:98:ce:05:ed:f7:f6:32:fe:
                    11:8b:c7:e5:86:62:6b:d6:59:ba:1d:70:01:ef:de:
                    25:30:56:2c:58:29:34:5e:0d:79:e6:04:eb:7c:84:
                    3d:f2:1a:d0:6d:04:d8:1e:3d:a9:94:d1:64:d5:07:
                    d6:6c:4e:b8:e2:12:61:5f:5d:cd:69:de:47:c8:cf:
                    93:da:d9:00:a2:ad:5c:60:6c:d6:47:ed:de:d9:89:
                    43:03:b1:32:cc:7d:ac:86:84:a6:4e:c4:4e:a8:71:
                    ed:c7:ca:62:41:1e:8f:a3:6f:e4:fc:87:e1:e7:61:
                    d0:2b:47:fb:2f:59:3e:7b:bd:36:e0:5b:ac:23:f4:
                    9b:87:3f:ff:0d:95:4a:69:a2:f7:21:15:5c:0c:4f:
                    ff:ae:6f:ad:44:34:b0:19:d3:14:37:f5:6e:0c:55:
                    e2:95:cf:71:8f:02:cb:98:d1:2f:ed:16:ed:bc:ce:
                    70:2b:9f:d2:53:56:d1:73:6d:e8:b8:da:c2:0f:4b:
                    6a:fa:60:18:1c:2d:82:84:6f:54:4a:ca:91:6e:cc:
                    17:6e:ce:da:f7:06:3d:89:c1:38:3c:b3:75:f5:f6:
                    d1:e7
                Exponent: 65537 (0x10001)
        X509v3 extensions:
            Netscape Cert Type: 
                SSL Server
            X509v3 Subject Key Identifier: 
                85:52:D6:54:9F:29:9C:BD:DB:78:E2:35:91:0B:63:BC:9D:8A:EC:FD
            X509v3 Authority Key Identifier: 
                keyid:BE:CA:53:AC:65:89:18:02:1E:F6:53:A2:50:12:94:60:EC:CC:05:FA
                DirName:/CN=CHENNAICA_CA/C=IN/O=CITRIX/OU=ANG/ST=KA/emailAddress=CHENNAICA_CA@CHENNAICA_mail.com
                serial:87:FB:C4:D4:5E:46:56:70

            Authority Information Access: 
                OCSP - URI:http://CHENNAICA_one.ocsptest.com/responderpath

    Signature Algorithm: sha256WithRSAEncryption
         1a:a1:c1:41:a9:e5:20:ef:72:9f:07:d2:4b:e6:08:b5:cf:14:
         bf:b2:e0:8c:1c:c2:50:03:85:e0:02:26:5d:66:c8:19:66:ec:
         e2:46:8c:1a:f1:be:87:c9:ca:7c:4a:97:4e:79:1b:dd:32:9c:
         a5:0b:b3:5e:65:11:61:a1:fb:d4:5f:1c:42:43:01:3f:44:81:
         7c:cb:db:6f:b7:fa:b5:59:f3:54:1a:f7:7a:d1:c6:4e:79:ba:
         16:fa:8d:d5:60:40:6a:b5:14:d7:90:5c:5b:25:23:71:6c:0f:
         30:d3:13:39:32:6b:f0:f4:eb:d2:5a:61:16:4d:0e:c2:69:05:
         83:26:53:03:6d:e0:d7:34:d1:c1:38:62:b7:f3:f6:36:3c:93:
         29:c6:94:04:4f:86:18:7a:ca:b8:0b:66:7d:3c:68:cf:b7:e1:
         06:ac:57:ed:48:38:f8:cb:49:e2:af:67:a4:8f:b2:6a:aa:fc:
         38:eb:00:23:ab:c4:43:4d:e7:f4:4b:5a:f7:ca:93:41:52:80:
         7e:67:29:51:0f:52:96:1f:b1:6e:63:ad:1a:d2:c8:e2:07:c5:
         f3:c9:25:31:45:3f:5b:5d:6b:80:2d:5c:f2:65:82:16:e3:e4:
         14:43:cb:9a:33:17:5f:ed:1c:4b:36:4b:1e:26:4b:e9:08:b3:
         ab:b1:6a:7c
-----BEGIN CERTIFICATE-----
MIIEsjCCA5qgAwIBAgIGCgsMDQ4XMA0GCSqGSIb3DQEBCwUAMIGAMRUwEwYDVQQD
FAxDSEVOTkFJQ0FfQ0ExCzAJBgNVBAYTAklOMQ8wDQYDVQQKEwZDSVRSSVgxDDAK
BgNVBAsTA0FORzELMAkGA1UECBMCS0ExLjAsBgkqhkiG9w0BCQEWH0NIRU5OQUlD
QV9DQUBDSEVOTkFJQ0FfbWFpbC5jb20wHhcNMTYwNzA4MDQzMzUxWhcNMjYwNzA2
MDQzMzUxWjB0MQswCQYDVQQIEwJLQTELMAkGA1UEBhMCSU4xHTAbBgNVBAMUFDEw
OV9DSEVOTkFJQ0Ffc2VydmVyMSgwJgYJKoZIhvcNAQkBFhkxMDlfQ0hFTk5BSUNB
QHRlc3RfY2EuY29tMQ8wDQYDVQQKEwZDSVRSSVgwggEiMA0GCSqGSIb3DQEBAQUA
A4IBDwAwggEKAoIBAQD9M4OB5FV+yEgokglmHRz6qtNSWQMVUOJeh7txKjdSS/xd
rhKYzgXt9/Yy/hGLx+WGYmvWWbodcAHv3iUwVixYKTReDXnmBOt8hD3yGtBtBNge
PamU0WTVB9ZsTrjiEmFfXc1p3kfIz5Pa2QCirVxgbNZH7d7ZiUMDsTLMfayGhKZO
xE6oce3HymJBHo+jb+T8h+HnYdArR/svWT57vTbgW6wj9JuHP/8NlUppovchFVwM
T/+ub61ENLAZ0xQ39W4MVeKVz3GPAsuY0S/tFu28znArn9JTVtFzbei42sIPS2r6
YBgcLYKEb1RKypFuzBduztr3Bj2JwTg8s3X19tHnAgMBAAGjggE7MIIBNzARBglg
hkgBhvhCAQEEBAMCBkAwHQYDVR0OBBYEFIVS1lSfKZy923jiNZELY7ydiuz9MIG1
BgNVHSMEga0wgaqAFL7KU6xliRgCHvZTolASlGDszAX6oYGGpIGDMIGAMRUwEwYD
VQQDFAxDSEVOTkFJQ0FfQ0ExCzAJBgNVBAYTAklOMQ8wDQYDVQQKEwZDSVRSSVgx
DDAKBgNVBAsTA0FORzELMAkGA1UECBMCS0ExLjAsBgkqhkiG9w0BCQEWH0NIRU5O
QUlDQV9DQUBDSEVOTkFJQ0FfbWFpbC5jb22CCQCH+8TUXkZWcDBLBggrBgEFBQcB
AQQ/MD0wOwYIKwYBBQUHMAGGL2h0dHA6Ly9DSEVOTkFJQ0Ffb25lLm9jc3B0ZXN0
LmNvbS9yZXNwb25kZXJwYXRoMA0GCSqGSIb3DQEBCwUAA4IBAQAaocFBqeUg73Kf
B9JL5gi1zxS/suCMHMJQA4XgAiZdZsgZZuziRowa8b6Hycp8SpdOeRvdMpylC7Ne
ZRFhofvUXxxCQwE/RIF8y9tvt/q1WfNUGvd60cZOeboW+o3VYEBqtRTXkFxbJSNx
bA8w0xM5Mmvw9OvSWmEWTQ7CaQWDJlMDbeDXNNHBOGK38/Y2PJMpxpQET4YYesq4
C2Z9PGjPt+EGrFftSDj4y0nir2ekj7Jqqvw46wAjq8RDTef0S1r3ypNBUoB+ZylR
D1KWH7FuY60a0sjiB8XzySUxRT9bXWuALVzyZYIW4+QUQ8uaMxdf7RxLNkseJkvp
CLOrsWp8
-----END CERTIFICATE-----
