Certificate:
    Data:
        Version: 3 (0x2)
        Serial Number: 11042563100206 (0xa0b0c0d0e2e)
    Signature Algorithm: sha256WithRSAEncryption
        Issuer: CN=CHENNAICA_CA, C=IN, O=CITRIX, OU=ANG, ST=KA/emailAddress=CHENNAICA_CA@CHENNAICA_mail.com
        Validity
            Not Before: Jul  8 04:33:57 2016 GMT
            Not After : Jul  6 04:33:57 2026 GMT
        Subject: ST=KA, C=IN, CN=132_CHENNAICA_server/emailAddress=132_CHENNAICA@test_ca.com, O=CITRIX
        Subject Public Key Info:
            Public Key Algorithm: rsaEncryption
                Public-Key: (2048 bit)
                Modulus:
                    00:bf:6d:13:f8:48:b5:12:7c:03:24:01:9c:89:6f:
                    aa:b0:82:0a:27:83:2e:b9:cd:48:68:f6:03:1e:a4:
                    d8:27:fa:0b:57:0f:33:f8:7a:e9:0f:7d:45:77:fe:
                    b6:8d:49:a0:a1:9f:87:09:d8:ae:3e:16:f3:34:b2:
                    ad:00:cd:57:0d:02:ad:4d:9f:79:44:e5:02:cc:b4:
                    eb:b6:81:2f:43:be:7b:51:e9:cc:f8:a3:f5:27:c1:
                    f1:4c:ce:55:1d:78:e4:53:95:2e:ce:14:21:54:f4:
                    6e:18:b6:10:09:79:85:0d:32:14:6b:02:90:27:96:
                    5c:ae:d4:9e:b3:de:13:e8:fa:1b:7f:90:d3:ac:be:
                    42:31:cf:30:29:a1:df:da:41:b6:a6:77:e3:3e:13:
                    cd:37:73:fc:3f:3a:f9:b3:3c:c6:d5:55:50:2d:e1:
                    77:d1:cb:cd:1f:93:6b:db:df:0d:76:43:1d:a1:5f:
                    c0:f5:98:d6:4e:15:64:f3:3a:0f:67:9f:21:17:ba:
                    5c:b0:cb:33:ab:32:b3:f1:bf:c3:90:20:33:35:3d:
                    12:2f:21:c8:60:ab:a2:a9:4a:da:50:1b:65:e7:e4:
                    97:1a:91:b8:01:7a:e4:71:1c:80:20:f1:f6:ed:84:
                    44:ef:61:d2:d6:fc:29:ab:e1:c5:73:df:8b:da:19:
                    a4:45
                Exponent: 65537 (0x10001)
        X509v3 extensions:
            Netscape Cert Type: 
                SSL Server
            X509v3 Subject Key Identifier: 
                EE:BA:82:F2:F1:C2:AC:38:C1:41:EF:22:8E:DB:E5:5B:24:8E:3D:6A
            X509v3 Authority Key Identifier: 
                keyid:BE:CA:53:AC:65:89:18:02:1E:F6:53:A2:50:12:94:60:EC:CC:05:FA
                DirName:/CN=CHENNAICA_CA/C=IN/O=CITRIX/OU=ANG/ST=KA/emailAddress=CHENNAICA_CA@CHENNAICA_mail.com
                serial:87:FB:C4:D4:5E:46:56:70

            Authority Information Access: 
                OCSP - URI:http://172.19.20.1/responderpath

    Signature Algorithm: sha256WithRSAEncryption
         02:77:4e:61:35:8f:6d:cd:8a:50:02:7e:8e:f8:fa:60:af:01:
         fd:10:73:17:4b:5f:f8:03:f9:fe:31:f1:74:4a:57:da:b4:eb:
         82:3b:35:7e:a8:ff:9f:28:78:6d:93:6c:0e:61:77:9e:75:3b:
         ce:42:a3:d9:e9:fd:70:0b:09:02:fc:57:63:7b:0f:1f:cb:d1:
         07:e4:d1:3e:d1:af:85:1d:09:14:71:ca:28:69:29:22:0f:b2:
         90:b0:12:5e:18:bf:89:44:b6:a5:7c:99:47:c0:da:52:24:75:
         82:dc:36:f0:17:f8:0b:2d:d0:6d:e7:c6:c1:ab:24:e3:b0:be:
         ea:b9:a8:d6:9f:09:b7:28:f3:bb:fe:6e:5e:f7:b1:92:cb:13:
         82:ac:34:ab:de:91:fa:36:4d:0f:d6:85:02:82:e6:0f:58:30:
         b4:03:0e:3e:e6:58:56:90:45:23:c9:37:4f:6e:42:f0:96:d9:
         92:a4:3f:95:57:27:ed:30:26:d0:64:f7:27:7a:2b:63:5a:d7:
         fc:de:76:6c:63:25:15:60:a0:b3:cb:3f:35:b8:ff:2a:bb:25:
         65:56:27:3d:ed:38:1e:82:82:2c:7f:59:f8:96:e7:3d:d9:f5:
         b0:34:92:09:eb:30:e0:f8:0c:53:27:71:c7:cc:f0:1b:d4:a1:
         2f:d2:04:cb
-----BEGIN CERTIFICATE-----
MIIEozCCA4ugAwIBAgIGCgsMDQ4uMA0GCSqGSIb3DQEBCwUAMIGAMRUwEwYDVQQD
FAxDSEVOTkFJQ0FfQ0ExCzAJBgNVBAYTAklOMQ8wDQYDVQQKEwZDSVRSSVgxDDAK
BgNVBAsTA0FORzELMAkGA1UECBMCS0ExLjAsBgkqhkiG9w0BCQEWH0NIRU5OQUlD
QV9DQUBDSEVOTkFJQ0FfbWFpbC5jb20wHhcNMTYwNzA4MDQzMzU3WhcNMjYwNzA2
MDQzMzU3WjB0MQswCQYDVQQIEwJLQTELMAkGA1UEBhMCSU4xHTAbBgNVBAMUFDEz
Ml9DSEVOTkFJQ0Ffc2VydmVyMSgwJgYJKoZIhvcNAQkBFhkxMzJfQ0hFTk5BSUNB
QHRlc3RfY2EuY29tMQ8wDQYDVQQKEwZDSVRSSVgwggEiMA0GCSqGSIb3DQEBAQUA
A4IBDwAwggEKAoIBAQC/bRP4SLUSfAMkAZyJb6qwggongy65zUho9gMepNgn+gtX
DzP4eukPfUV3/raNSaChn4cJ2K4+FvM0sq0AzVcNAq1Nn3lE5QLMtOu2gS9DvntR
6cz4o/UnwfFMzlUdeORTlS7OFCFU9G4YthAJeYUNMhRrApAnllyu1J6z3hPo+ht/
kNOsvkIxzzApod/aQbamd+M+E803c/w/OvmzPMbVVVAt4XfRy80fk2vb3w12Qx2h
X8D1mNZOFWTzOg9nnyEXulywyzOrMrPxv8OQIDM1PRIvIchgq6KpStpQG2Xn5Jca
kbgBeuRxHIAg8fbthETvYdLW/Cmr4cVz34vaGaRFAgMBAAGjggEsMIIBKDARBglg
hkgBhvhCAQEEBAMCBkAwHQYDVR0OBBYEFO66gvLxwqw4wUHvIo7b5Vskjj1qMIG1
BgNVHSMEga0wgaqAFL7KU6xliRgCHvZTolASlGDszAX6oYGGpIGDMIGAMRUwEwYD
VQQDFAxDSEVOTkFJQ0FfQ0ExCzAJBgNVBAYTAklOMQ8wDQYDVQQKEwZDSVRSSVgx
DDAKBgNVBAsTA0FORzELMAkGA1UECBMCS0ExLjAsBgkqhkiG9w0BCQEWH0NIRU5O
QUlDQV9DQUBDSEVOTkFJQ0FfbWFpbC5jb22CCQCH+8TUXkZWcDA8BggrBgEFBQcB
AQQwMC4wLAYIKwYBBQUHMAGGIGh0dHA6Ly8xNzIuMTkuMjAuMS9yZXNwb25kZXJw
YXRoMA0GCSqGSIb3DQEBCwUAA4IBAQACd05hNY9tzYpQAn6O+PpgrwH9EHMXS1/4
A/n+MfF0SlfatOuCOzV+qP+fKHhtk2wOYXeedTvOQqPZ6f1wCwkC/Fdjew8fy9EH
5NE+0a+FHQkUccooaSkiD7KQsBJeGL+JRLalfJlHwNpSJHWC3DbwF/gLLdBt58bB
qyTjsL7quajWnwm3KPO7/m5e97GSyxOCrDSr3pH6Nk0P1oUCguYPWDC0Aw4+5lhW
kEUjyTdPbkLwltmSpD+VVyftMCbQZPcneitjWtf83nZsYyUVYKCzyz81uP8quyVl
Vic97TgegoIsf1n4luc92fWwNJIJ6zDg+AxTJ3HHzPAb1KEv0gTL
-----END CERTIFICATE-----
