Certificate:
    Data:
        Version: 3 (0x2)
        Serial Number: 11042563100178 (0xa0b0c0d0e12)
    Signature Algorithm: sha256WithRSAEncryption
        Issuer: CN=CHENNAICA_CA, C=IN, O=CITRIX, OU=ANG, ST=KA/emailAddress=CHENNAICA_CA@CHENNAICA_mail.com
        Validity
            Not Before: Jul  8 04:33:49 2016 GMT
            Not After : Jul  6 04:33:49 2026 GMT
        Subject: ST=KA, C=IN, CN=104_CHENNAICA_server/emailAddress=104_CHENNAICA@test_ca.com, O=CITRIX
        Subject Public Key Info:
            Public Key Algorithm: rsaEncryption
                Public-Key: (2048 bit)
                Modulus:
                    00:d9:1a:3e:8e:c9:ff:83:96:02:8b:f2:da:09:8a:
                    f6:eb:a7:08:38:39:a8:a6:bb:24:97:8e:38:d1:dc:
                    82:65:e8:d4:c1:0e:5d:bd:e0:3a:39:50:f7:6e:71:
                    a1:d9:e5:82:75:e8:7a:35:5e:36:b0:e0:63:bc:2a:
                    93:33:9f:b8:85:45:52:e0:e8:75:d7:8f:9a:f2:b4:
                    0f:9d:a8:1b:f9:98:93:11:e2:2b:53:93:15:9c:7e:
                    7f:55:be:61:f8:3d:33:42:a8:6c:9b:49:59:94:12:
                    0e:bf:7f:91:f8:13:39:28:04:2a:4b:79:ad:0e:65:
                    19:66:09:2c:f3:a3:7d:13:a7:50:07:15:86:f3:76:
                    a5:43:45:11:72:55:81:9d:a0:50:f5:20:6e:fe:ab:
                    4a:d3:8e:2d:a7:28:77:32:2b:2a:83:ad:f8:45:e1:
                    8a:c7:c2:f1:8b:91:52:41:47:11:2d:26:58:1c:cc:
                    ba:d2:1a:31:88:d7:4a:d4:51:98:6e:ef:d4:0b:93:
                    93:a4:08:1c:ce:88:99:2f:b6:28:9a:2f:ab:f2:1d:
                    c4:31:4c:a5:f3:d6:c9:75:89:ff:52:ea:a1:3a:f6:
                    35:b0:0a:88:f3:8e:6d:88:14:eb:95:c4:95:7f:9c:
                    55:25:11:f6:c0:cb:8e:8b:98:b2:a4:3e:24:2b:f7:
                    68:c1
                Exponent: 65537 (0x10001)
        X509v3 extensions:
            Netscape Cert Type: 
                SSL Server
            X509v3 Subject Key Identifier: 
                F8:CD:94:3F:71:39:43:27:A7:9C:9B:84:22:C8:33:A7:10:96:97:FF
            X509v3 Authority Key Identifier: 
                keyid:BE:CA:53:AC:65:89:18:02:1E:F6:53:A2:50:12:94:60:EC:CC:05:FA
                DirName:/CN=CHENNAICA_CA/C=IN/O=CITRIX/OU=ANG/ST=KA/emailAddress=CHENNAICA_CA@CHENNAICA_mail.com
                serial:87:FB:C4:D4:5E:46:56:70

            Authority Information Access: 
                OCSP - URI:http://CHENNAICA_one.ocsptest.com/responderpath

    Signature Algorithm: sha256WithRSAEncryption
         48:bb:91:3b:e9:4b:f6:68:61:99:19:39:e4:6a:f6:40:a3:74:
         fb:3b:b3:8e:64:80:b6:79:67:6c:5a:fd:dd:9b:98:76:53:00:
         a3:a7:25:82:d6:55:7c:79:06:c1:1e:a4:07:01:04:36:4b:47:
         3a:18:fd:8f:06:c6:f3:29:82:03:a4:b0:8f:ba:14:6c:0b:de:
         2b:c8:73:70:9c:93:af:83:a8:f6:7a:d2:f7:91:42:1d:1d:b3:
         49:0d:e9:2a:80:33:a6:99:bf:26:c6:02:e7:a3:94:13:4d:09:
         52:8f:da:19:6c:95:ec:bd:d1:b0:30:8e:f7:41:f3:6e:13:94:
         8b:aa:2f:2e:1f:c9:9e:7d:12:43:01:90:c3:bd:16:10:52:b7:
         b1:dd:3a:01:ee:8b:f7:06:28:b2:24:79:17:6d:cf:b8:b1:ab:
         39:7c:29:ee:de:24:47:28:a5:b2:9a:4d:d8:f0:d5:72:a5:b2:
         03:3e:a8:6f:65:31:cd:a8:ed:f1:8a:25:d3:78:17:11:a9:1a:
         35:f7:d6:2e:fd:79:89:77:e8:e6:b7:ea:02:5d:8c:7f:19:d4:
         56:cf:36:2d:c8:31:0b:ea:7d:b3:07:46:94:eb:38:39:12:6c:
         ea:87:8d:c1:c2:88:6c:a6:2b:21:a0:02:b3:db:11:19:4d:d6:
         d2:8a:f3:88
-----BEGIN CERTIFICATE-----
MIIEsjCCA5qgAwIBAgIGCgsMDQ4SMA0GCSqGSIb3DQEBCwUAMIGAMRUwEwYDVQQD
FAxDSEVOTkFJQ0FfQ0ExCzAJBgNVBAYTAklOMQ8wDQYDVQQKEwZDSVRSSVgxDDAK
BgNVBAsTA0FORzELMAkGA1UECBMCS0ExLjAsBgkqhkiG9w0BCQEWH0NIRU5OQUlD
QV9DQUBDSEVOTkFJQ0FfbWFpbC5jb20wHhcNMTYwNzA4MDQzMzQ5WhcNMjYwNzA2
MDQzMzQ5WjB0MQswCQYDVQQIEwJLQTELMAkGA1UEBhMCSU4xHTAbBgNVBAMUFDEw
NF9DSEVOTkFJQ0Ffc2VydmVyMSgwJgYJKoZIhvcNAQkBFhkxMDRfQ0hFTk5BSUNB
QHRlc3RfY2EuY29tMQ8wDQYDVQQKEwZDSVRSSVgwggEiMA0GCSqGSIb3DQEBAQUA
A4IBDwAwggEKAoIBAQDZGj6Oyf+DlgKL8toJivbrpwg4OaimuySXjjjR3IJl6NTB
Dl294Do5UPducaHZ5YJ16Ho1Xjaw4GO8KpMzn7iFRVLg6HXXj5rytA+dqBv5mJMR
4itTkxWcfn9VvmH4PTNCqGybSVmUEg6/f5H4EzkoBCpLea0OZRlmCSzzo30Tp1AH
FYbzdqVDRRFyVYGdoFD1IG7+q0rTji2nKHcyKyqDrfhF4YrHwvGLkVJBRxEtJlgc
zLrSGjGI10rUUZhu79QLk5OkCBzOiJkvtiiaL6vyHcQxTKXz1sl1if9S6qE69jWw
Cojzjm2IFOuVxJV/nFUlEfbAy46LmLKkPiQr92jBAgMBAAGjggE7MIIBNzARBglg
hkgBhvhCAQEEBAMCBkAwHQYDVR0OBBYEFPjNlD9xOUMnp5ybhCLIM6cQlpf/MIG1
BgNVHSMEga0wgaqAFL7KU6xliRgCHvZTolASlGDszAX6oYGGpIGDMIGAMRUwEwYD
VQQDFAxDSEVOTkFJQ0FfQ0ExCzAJBgNVBAYTAklOMQ8wDQYDVQQKEwZDSVRSSVgx
DDAKBgNVBAsTA0FORzELMAkGA1UECBMCS0ExLjAsBgkqhkiG9w0BCQEWH0NIRU5O
QUlDQV9DQUBDSEVOTkFJQ0FfbWFpbC5jb22CCQCH+8TUXkZWcDBLBggrBgEFBQcB
AQQ/MD0wOwYIKwYBBQUHMAGGL2h0dHA6Ly9DSEVOTkFJQ0Ffb25lLm9jc3B0ZXN0
LmNvbS9yZXNwb25kZXJwYXRoMA0GCSqGSIb3DQEBCwUAA4IBAQBIu5E76Uv2aGGZ
GTnkavZAo3T7O7OOZIC2eWdsWv3dm5h2UwCjpyWC1lV8eQbBHqQHAQQ2S0c6GP2P
BsbzKYIDpLCPuhRsC94ryHNwnJOvg6j2etL3kUIdHbNJDekqgDOmmb8mxgLno5QT
TQlSj9oZbJXsvdGwMI73QfNuE5SLqi8uH8mefRJDAZDDvRYQUrex3ToB7ov3Biiy
JHkXbc+4sas5fCnu3iRHKKWymk3Y8NVypbIDPqhvZTHNqO3xiiXTeBcRqRo199Yu
/XmJd+jmt+oCXYx/GdRWzzYtyDEL6n2zB0aU6zg5Emzqh43BwohspishoAKz2xEZ
TdbSivOI
-----END CERTIFICATE-----
