Certificate:
    Data:
        Version: 3 (0x2)
        Serial Number: 11042563100179 (0xa0b0c0d0e13)
    Signature Algorithm: sha256WithRSAEncryption
        Issuer: CN=CHENNAICA_CA, C=IN, O=CITRIX, OU=ANG, ST=KA/emailAddress=CHENNAICA_CA@CHENNAICA_mail.com
        Validity
            Not Before: Jul  8 04:33:50 2016 GMT
            Not After : Jul  6 04:33:50 2026 GMT
        Subject: ST=KA, C=IN, CN=105_CHENNAICA_server/emailAddress=105_CHENNAICA@test_ca.com, O=CITRIX
        Subject Public Key Info:
            Public Key Algorithm: rsaEncryption
                Public-Key: (2048 bit)
                Modulus:
                    00:d0:e4:63:cb:19:5d:e0:9c:42:28:ea:c7:38:1b:
                    9c:21:2f:08:78:c5:af:71:0b:4c:19:1c:1c:2b:d2:
                    9e:71:82:46:62:c2:71:1c:dd:04:3a:b4:3a:5e:97:
                    56:44:28:f4:06:da:0e:ad:ee:00:c4:8e:eb:7e:7e:
                    ba:69:3f:8d:ac:0c:fd:07:e2:09:71:da:e6:47:56:
                    93:e6:68:3e:bb:4a:21:11:ac:88:3f:f5:b0:80:d9:
                    0d:25:53:b0:7b:24:e4:83:82:48:27:df:f8:0b:32:
                    3a:72:ae:70:bc:42:fc:bf:21:b4:ff:f5:1a:31:85:
                    6a:6f:ee:7f:68:7d:c1:a2:f0:3f:a6:ba:3e:f0:e3:
                    5c:f4:8a:f2:6a:e0:c6:b4:d3:71:38:ba:74:51:89:
                    68:3e:56:45:3f:7a:c0:03:e1:2d:62:93:85:ac:23:
                    ff:c7:c0:e9:6a:98:a1:22:80:5a:d0:69:a6:b4:91:
                    88:79:f8:e2:73:54:61:a5:a1:e6:f7:ae:88:83:0f:
                    7d:0f:28:9d:6e:f7:50:c9:2f:4c:ef:88:ec:63:b0:
                    41:d1:03:10:b8:05:cc:86:18:2d:42:c9:b8:f0:5e:
                    cd:a8:46:61:38:2e:96:be:51:10:55:01:c0:b6:41:
                    2d:61:ad:96:cd:d0:2d:2e:05:5f:20:79:d9:29:9d:
                    e0:8b
                Exponent: 65537 (0x10001)
        X509v3 extensions:
            Netscape Cert Type: 
                SSL Server
            X509v3 Subject Key Identifier: 
                8B:72:20:D0:80:EB:4D:BF:E6:72:54:B8:A8:D2:83:84:AC:DA:B5:97
            X509v3 Authority Key Identifier: 
                keyid:BE:CA:53:AC:65:89:18:02:1E:F6:53:A2:50:12:94:60:EC:CC:05:FA
                DirName:/CN=CHENNAICA_CA/C=IN/O=CITRIX/OU=ANG/ST=KA/emailAddress=CHENNAICA_CA@CHENNAICA_mail.com
                serial:87:FB:C4:D4:5E:46:56:70

            Authority Information Access: 
                OCSP - URI:http://CHENNAICA_one.ocsptest.com/responderpath

    Signature Algorithm: sha256WithRSAEncryption
         84:7f:75:ec:22:1c:aa:ed:1f:d3:7d:13:08:76:dd:2a:99:e9:
         a9:eb:32:b6:67:db:28:1f:2e:ca:cf:cd:3f:1a:e9:83:53:c6:
         3a:da:43:11:bc:37:58:d1:27:ef:9d:66:0f:4c:a4:b7:21:3c:
         e9:07:30:89:2f:6a:01:6c:9d:f9:c9:69:46:5d:d2:03:ac:3a:
         1e:8e:f3:a6:91:61:94:f6:53:d4:49:f1:24:74:9a:a3:83:91:
         b6:06:92:03:4f:7f:28:7b:6c:09:82:1e:6c:66:d9:15:4c:06:
         00:6e:22:40:19:b5:c2:e9:6e:db:cc:95:b3:a7:57:27:d4:b9:
         d0:e8:5a:d7:5d:2f:82:61:4f:bf:ee:60:56:b8:dd:f7:73:5e:
         b9:ef:7a:0d:90:42:c2:a6:5a:a8:25:b7:79:15:a5:d9:d7:11:
         7c:b5:af:77:6f:41:77:c7:d5:00:9f:90:72:52:d5:ef:56:04:
         f2:7e:e6:b7:ef:b3:46:60:eb:12:37:6a:1d:1f:fc:f8:a6:e6:
         a0:e4:10:cd:b9:24:a9:49:61:cc:0d:bf:83:3d:49:ca:bb:ce:
         8c:74:9f:22:ea:af:1c:ac:78:ba:c5:e0:d1:32:2c:2d:eb:60:
         1b:e9:9a:85:92:56:ab:f7:5b:7a:eb:49:dd:f0:ec:44:68:df:
         35:79:ed:30
-----BEGIN CERTIFICATE-----
MIIEsjCCA5qgAwIBAgIGCgsMDQ4TMA0GCSqGSIb3DQEBCwUAMIGAMRUwEwYDVQQD
FAxDSEVOTkFJQ0FfQ0ExCzAJBgNVBAYTAklOMQ8wDQYDVQQKEwZDSVRSSVgxDDAK
BgNVBAsTA0FORzELMAkGA1UECBMCS0ExLjAsBgkqhkiG9w0BCQEWH0NIRU5OQUlD
QV9DQUBDSEVOTkFJQ0FfbWFpbC5jb20wHhcNMTYwNzA4MDQzMzUwWhcNMjYwNzA2
MDQzMzUwWjB0MQswCQYDVQQIEwJLQTELMAkGA1UEBhMCSU4xHTAbBgNVBAMUFDEw
NV9DSEVOTkFJQ0Ffc2VydmVyMSgwJgYJKoZIhvcNAQkBFhkxMDVfQ0hFTk5BSUNB
QHRlc3RfY2EuY29tMQ8wDQYDVQQKEwZDSVRSSVgwggEiMA0GCSqGSIb3DQEBAQUA
A4IBDwAwggEKAoIBAQDQ5GPLGV3gnEIo6sc4G5whLwh4xa9xC0wZHBwr0p5xgkZi
wnEc3QQ6tDpel1ZEKPQG2g6t7gDEjut+frppP42sDP0H4glx2uZHVpPmaD67SiER
rIg/9bCA2Q0lU7B7JOSDgkgn3/gLMjpyrnC8Qvy/IbT/9RoxhWpv7n9ofcGi8D+m
uj7w41z0ivJq4Ma003E4unRRiWg+VkU/esAD4S1ik4WsI//HwOlqmKEigFrQaaa0
kYh5+OJzVGGloeb3roiDD30PKJ1u91DJL0zviOxjsEHRAxC4BcyGGC1CybjwXs2o
RmE4Lpa+URBVAcC2QS1hrZbN0C0uBV8gedkpneCLAgMBAAGjggE7MIIBNzARBglg
hkgBhvhCAQEEBAMCBkAwHQYDVR0OBBYEFItyINCA602/5nJUuKjSg4Ss2rWXMIG1
BgNVHSMEga0wgaqAFL7KU6xliRgCHvZTolASlGDszAX6oYGGpIGDMIGAMRUwEwYD
VQQDFAxDSEVOTkFJQ0FfQ0ExCzAJBgNVBAYTAklOMQ8wDQYDVQQKEwZDSVRSSVgx
DDAKBgNVBAsTA0FORzELMAkGA1UECBMCS0ExLjAsBgkqhkiG9w0BCQEWH0NIRU5O
QUlDQV9DQUBDSEVOTkFJQ0FfbWFpbC5jb22CCQCH+8TUXkZWcDBLBggrBgEFBQcB
AQQ/MD0wOwYIKwYBBQUHMAGGL2h0dHA6Ly9DSEVOTkFJQ0Ffb25lLm9jc3B0ZXN0
LmNvbS9yZXNwb25kZXJwYXRoMA0GCSqGSIb3DQEBCwUAA4IBAQCEf3XsIhyq7R/T
fRMIdt0qmemp6zK2Z9soHy7Kz80/GumDU8Y62kMRvDdY0SfvnWYPTKS3ITzpBzCJ
L2oBbJ35yWlGXdIDrDoejvOmkWGU9lPUSfEkdJqjg5G2BpIDT38oe2wJgh5sZtkV
TAYAbiJAGbXC6W7bzJWzp1cn1LnQ6FrXXS+CYU+/7mBWuN33c16573oNkELCplqo
Jbd5FaXZ1xF8ta93b0F3x9UAn5ByUtXvVgTyfua377NGYOsSN2odH/z4puag5BDN
uSSpSWHMDb+DPUnKu86MdJ8i6q8crHi6xeDRMiwt62Ab6ZqFklar91t660nd8OxE
aN81ee0w
-----END CERTIFICATE-----
