Certificate:
    Data:
        Version: 3 (0x2)
        Serial Number: 11042563100181 (0xa0b0c0d0e15)
    Signature Algorithm: sha256WithRSAEncryption
        Issuer: CN=CHENNAICA_CA, C=IN, O=CITRIX, OU=ANG, ST=KA/emailAddress=CHENNAICA_CA@CHENNAICA_mail.com
        Validity
            Not Before: Jul  8 04:33:50 2016 GMT
            Not After : Jul  6 04:33:50 2026 GMT
        Subject: ST=KA, C=IN, CN=107_CHENNAICA_server/emailAddress=107_CHENNAICA@test_ca.com, O=CITRIX
        Subject Public Key Info:
            Public Key Algorithm: rsaEncryption
                Public-Key: (2048 bit)
                Modulus:
                    00:b6:5b:28:c8:54:39:f3:6b:05:d7:61:78:a6:fc:
                    df:29:f5:71:1d:f4:28:7b:f1:30:75:87:e7:a0:4a:
                    86:67:29:ba:dc:0d:8b:bc:40:b9:a7:81:79:8a:59:
                    14:34:79:53:21:c3:0b:f2:79:88:4a:71:45:2b:88:
                    ef:30:58:4f:c2:7a:14:a6:06:92:63:f8:24:34:26:
                    fe:1d:bd:03:45:7d:79:0f:bc:b5:6d:f7:4b:b0:58:
                    85:b5:79:c8:76:31:92:6c:50:36:0e:5e:16:86:b8:
                    ba:ca:c0:0a:59:0b:c9:f1:5c:1e:8f:98:35:37:fb:
                    2a:28:df:c9:a3:f7:06:4f:f0:05:56:32:02:4c:22:
                    99:98:af:5a:29:97:46:e2:f8:cd:60:6d:83:e1:43:
                    cb:66:2b:48:9b:33:db:ad:85:63:c0:3d:c6:97:68:
                    2f:63:20:6b:7e:53:0b:5e:c1:b6:07:15:0f:b7:a8:
                    5c:c2:bd:4b:0a:fb:45:6d:77:37:d2:f1:98:cd:71:
                    72:6b:54:fd:be:53:5f:96:26:19:7a:d6:41:38:9f:
                    18:bc:d9:cd:48:f4:67:36:3e:1d:2a:bd:e6:0e:c6:
                    ea:b5:de:c6:f0:5b:13:13:f5:bc:6f:8d:56:90:ba:
                    4c:31:1d:24:97:3f:23:e5:ed:b5:b2:0d:b9:a0:02:
                    83:f9
                Exponent: 65537 (0x10001)
        X509v3 extensions:
            Netscape Cert Type: 
                SSL Server
            X509v3 Subject Key Identifier: 
                D3:CB:D1:21:8E:15:DC:14:5B:77:E4:66:E6:85:A7:E2:7F:92:1C:C9
            X509v3 Authority Key Identifier: 
                keyid:BE:CA:53:AC:65:89:18:02:1E:F6:53:A2:50:12:94:60:EC:CC:05:FA
                DirName:/CN=CHENNAICA_CA/C=IN/O=CITRIX/OU=ANG/ST=KA/emailAddress=CHENNAICA_CA@CHENNAICA_mail.com
                serial:87:FB:C4:D4:5E:46:56:70

            Authority Information Access: 
                OCSP - URI:http://CHENNAICA_one.ocsptest.com/responderpath

    Signature Algorithm: sha256WithRSAEncryption
         d6:4b:53:5b:e5:18:fb:1b:55:63:f2:d1:b0:fe:56:42:82:06:
         34:4e:b3:08:6d:85:41:9d:4d:a0:b8:c9:70:50:b5:72:35:2e:
         f6:45:b8:84:88:ff:29:39:27:48:53:40:3d:31:35:cc:00:f2:
         95:38:e5:0c:0f:1b:c1:ce:f3:bf:2c:11:a9:97:8e:63:fb:0a:
         25:45:02:9a:1c:15:d3:ed:f7:9b:00:a8:ff:3e:55:5b:e9:d0:
         84:43:cf:db:ed:ac:d1:53:f3:da:7f:2e:3a:59:19:6f:58:16:
         b4:5e:6d:9b:12:9a:dc:32:2f:e1:51:75:31:0f:1c:96:a5:93:
         ff:0e:d8:de:be:b1:dd:60:ee:ef:da:fc:a5:7a:69:26:12:79:
         c6:1d:b2:1f:6a:74:0c:50:22:1c:85:8d:80:04:07:69:36:32:
         9b:de:ea:3d:50:c2:49:09:57:75:d2:fc:49:78:9f:13:d2:70:
         11:63:b7:6c:ce:94:67:0c:74:72:2c:a6:a1:5e:fb:47:fd:f6:
         7a:ac:58:fd:84:4b:ee:2e:e0:d6:f9:e2:35:f9:dd:fa:00:f9:
         f9:32:41:26:d8:e1:24:b8:28:87:49:ec:52:51:dd:91:80:71:
         b8:38:7c:bd:52:07:2b:64:4c:da:d6:6e:4c:fe:80:2f:1a:69:
         67:4d:5b:a7
-----BEGIN CERTIFICATE-----
MIIEsjCCA5qgAwIBAgIGCgsMDQ4VMA0GCSqGSIb3DQEBCwUAMIGAMRUwEwYDVQQD
FAxDSEVOTkFJQ0FfQ0ExCzAJBgNVBAYTAklOMQ8wDQYDVQQKEwZDSVRSSVgxDDAK
BgNVBAsTA0FORzELMAkGA1UECBMCS0ExLjAsBgkqhkiG9w0BCQEWH0NIRU5OQUlD
QV9DQUBDSEVOTkFJQ0FfbWFpbC5jb20wHhcNMTYwNzA4MDQzMzUwWhcNMjYwNzA2
MDQzMzUwWjB0MQswCQYDVQQIEwJLQTELMAkGA1UEBhMCSU4xHTAbBgNVBAMUFDEw
N19DSEVOTkFJQ0Ffc2VydmVyMSgwJgYJKoZIhvcNAQkBFhkxMDdfQ0hFTk5BSUNB
QHRlc3RfY2EuY29tMQ8wDQYDVQQKEwZDSVRSSVgwggEiMA0GCSqGSIb3DQEBAQUA
A4IBDwAwggEKAoIBAQC2WyjIVDnzawXXYXim/N8p9XEd9Ch78TB1h+egSoZnKbrc
DYu8QLmngXmKWRQ0eVMhwwvyeYhKcUUriO8wWE/CehSmBpJj+CQ0Jv4dvQNFfXkP
vLVt90uwWIW1ech2MZJsUDYOXhaGuLrKwApZC8nxXB6PmDU3+yoo38mj9wZP8AVW
MgJMIpmYr1opl0bi+M1gbYPhQ8tmK0ibM9uthWPAPcaXaC9jIGt+UwtewbYHFQ+3
qFzCvUsK+0VtdzfS8ZjNcXJrVP2+U1+WJhl61kE4nxi82c1I9Gc2Ph0qveYOxuq1
3sbwWxMT9bxvjVaQukwxHSSXPyPl7bWyDbmgAoP5AgMBAAGjggE7MIIBNzARBglg
hkgBhvhCAQEEBAMCBkAwHQYDVR0OBBYEFNPL0SGOFdwUW3fkZuaFp+J/khzJMIG1
BgNVHSMEga0wgaqAFL7KU6xliRgCHvZTolASlGDszAX6oYGGpIGDMIGAMRUwEwYD
VQQDFAxDSEVOTkFJQ0FfQ0ExCzAJBgNVBAYTAklOMQ8wDQYDVQQKEwZDSVRSSVgx
DDAKBgNVBAsTA0FORzELMAkGA1UECBMCS0ExLjAsBgkqhkiG9w0BCQEWH0NIRU5O
QUlDQV9DQUBDSEVOTkFJQ0FfbWFpbC5jb22CCQCH+8TUXkZWcDBLBggrBgEFBQcB
AQQ/MD0wOwYIKwYBBQUHMAGGL2h0dHA6Ly9DSEVOTkFJQ0Ffb25lLm9jc3B0ZXN0
LmNvbS9yZXNwb25kZXJwYXRoMA0GCSqGSIb3DQEBCwUAA4IBAQDWS1Nb5Rj7G1Vj
8tGw/lZCggY0TrMIbYVBnU2guMlwULVyNS72RbiEiP8pOSdIU0A9MTXMAPKVOOUM
DxvBzvO/LBGpl45j+wolRQKaHBXT7febAKj/PlVb6dCEQ8/b7azRU/Pafy46WRlv
WBa0Xm2bEprcMi/hUXUxDxyWpZP/DtjevrHdYO7v2vylemkmEnnGHbIfanQMUCIc
hY2ABAdpNjKb3uo9UMJJCVd10vxJeJ8T0nARY7dszpRnDHRyLKahXvtH/fZ6rFj9
hEvuLuDW+eI1+d36APn5MkEm2OEkuCiHSexSUd2RgHG4OHy9UgcrZEza1m5M/oAv
GmlnTVun
-----END CERTIFICATE-----
