Certificate:
    Data:
        Version: 3 (0x2)
        Serial Number: 11042563100185 (0xa0b0c0d0e19)
    Signature Algorithm: sha256WithRSAEncryption
        Issuer: CN=CHENNAICA_CA, C=IN, O=CITRIX, OU=ANG, ST=KA/emailAddress=CHENNAICA_CA@CHENNAICA_mail.com
        Validity
            Not Before: Jul  8 04:33:52 2016 GMT
            Not After : Jul  6 04:33:52 2026 GMT
        Subject: ST=KA, C=IN, CN=111_CHENNAICA_server/emailAddress=111_CHENNAICA@test_ca.com, O=CITRIX
        Subject Public Key Info:
            Public Key Algorithm: rsaEncryption
                Public-Key: (2048 bit)
                Modulus:
                    00:af:c9:bd:59:d9:1a:19:1f:98:be:8b:4a:7a:08:
                    aa:d4:27:0a:cb:b3:3f:69:a9:ec:ca:ab:6e:ca:14:
                    46:86:4c:95:b2:93:ac:e3:8b:eb:41:c0:84:60:cf:
                    2c:c1:cc:d4:a0:22:67:e0:b7:67:da:82:63:04:66:
                    50:f7:28:be:97:77:b2:4a:f3:3a:16:fd:81:2f:8c:
                    32:ac:f7:8a:2e:7b:d2:ac:e8:00:6d:7f:24:59:a9:
                    e4:cb:a7:c8:5e:21:c6:66:78:e8:55:b2:a4:46:1c:
                    69:22:c4:94:0c:99:4a:b9:6e:7d:45:ba:19:5e:6b:
                    dd:96:bc:9b:d0:50:1b:be:42:1c:38:ab:bd:ea:12:
                    f9:31:0e:91:46:d2:d3:73:01:a0:d2:1b:1f:43:48:
                    8a:ec:7d:c7:3e:80:36:93:f4:7c:7f:6a:86:77:ee:
                    7b:eb:e5:ec:a3:6c:fd:9d:df:26:9f:56:eb:57:8c:
                    9b:4d:2a:6c:39:f8:4c:e5:97:9d:7d:86:0a:1a:bf:
                    80:d2:fb:bc:b0:2d:bb:9a:43:3e:d4:a6:74:bf:01:
                    21:2f:74:27:9d:f9:00:47:e3:5d:04:d9:d3:a6:ce:
                    fd:63:05:f4:cb:dd:26:50:68:cf:a5:82:58:e3:17:
                    bc:60:e9:d9:17:24:22:99:c4:e7:cf:60:f0:2f:55:
                    3a:ef
                Exponent: 65537 (0x10001)
        X509v3 extensions:
            Netscape Cert Type: 
                SSL Server
            X509v3 Subject Key Identifier: 
                BD:98:FF:A9:D6:F8:FF:22:28:FD:FB:33:5F:22:87:56:BF:0E:23:65
            X509v3 Authority Key Identifier: 
                keyid:BE:CA:53:AC:65:89:18:02:1E:F6:53:A2:50:12:94:60:EC:CC:05:FA
                DirName:/CN=CHENNAICA_CA/C=IN/O=CITRIX/OU=ANG/ST=KA/emailAddress=CHENNAICA_CA@CHENNAICA_mail.com
                serial:87:FB:C4:D4:5E:46:56:70

            Authority Information Access: 
                OCSP - URI:http://CHENNAICA_two.ocsptest.com/responderpath

    Signature Algorithm: sha256WithRSAEncryption
         47:a8:a3:93:d6:78:81:15:aa:15:02:34:96:d8:fc:b3:ac:d5:
         70:7a:62:d9:9e:1e:f1:81:1f:c0:34:bf:3e:ef:f6:00:93:09:
         b5:12:2e:10:61:91:b1:b1:1a:62:30:10:3c:e8:fa:0d:ee:9c:
         53:ac:8b:39:27:68:65:47:74:a0:c8:75:cc:0a:89:74:b9:35:
         05:07:27:0c:46:db:1a:72:d3:19:7c:f0:dc:4b:37:de:49:8d:
         0c:f6:86:b5:31:da:18:bc:b2:09:a8:f7:3f:a0:3f:7c:c8:08:
         a3:1a:c0:91:62:4c:f5:a0:70:77:c6:38:91:98:ed:84:50:d6:
         44:28:a6:46:1c:48:13:7e:0b:d4:21:03:b5:39:e1:ea:a2:98:
         10:b9:bb:69:0e:ab:18:52:2c:26:43:53:b0:77:68:4a:d9:92:
         dc:dd:68:61:5a:e1:25:5a:f8:74:95:8b:0b:25:3d:22:4f:92:
         1d:0a:b9:c1:53:34:a0:a4:1b:04:b0:5e:b8:57:d8:b4:67:0c:
         f9:70:7b:6f:98:ee:f3:5a:9b:ad:bb:2c:e9:43:29:6d:49:b0:
         a7:70:83:7d:17:81:37:8d:bd:40:6d:0c:78:a7:23:d3:9d:fd:
         6c:dd:91:f4:97:d2:15:05:9c:cc:64:4e:27:ea:aa:3e:96:07:
         59:cf:86:1c
-----BEGIN CERTIFICATE-----
MIIEsjCCA5qgAwIBAgIGCgsMDQ4ZMA0GCSqGSIb3DQEBCwUAMIGAMRUwEwYDVQQD
FAxDSEVOTkFJQ0FfQ0ExCzAJBgNVBAYTAklOMQ8wDQYDVQQKEwZDSVRSSVgxDDAK
BgNVBAsTA0FORzELMAkGA1UECBMCS0ExLjAsBgkqhkiG9w0BCQEWH0NIRU5OQUlD
QV9DQUBDSEVOTkFJQ0FfbWFpbC5jb20wHhcNMTYwNzA4MDQzMzUyWhcNMjYwNzA2
MDQzMzUyWjB0MQswCQYDVQQIEwJLQTELMAkGA1UEBhMCSU4xHTAbBgNVBAMUFDEx
MV9DSEVOTkFJQ0Ffc2VydmVyMSgwJgYJKoZIhvcNAQkBFhkxMTFfQ0hFTk5BSUNB
QHRlc3RfY2EuY29tMQ8wDQYDVQQKEwZDSVRSSVgwggEiMA0GCSqGSIb3DQEBAQUA
A4IBDwAwggEKAoIBAQCvyb1Z2RoZH5i+i0p6CKrUJwrLsz9pqezKq27KFEaGTJWy
k6zji+tBwIRgzyzBzNSgImfgt2fagmMEZlD3KL6Xd7JK8zoW/YEvjDKs94oue9Ks
6ABtfyRZqeTLp8heIcZmeOhVsqRGHGkixJQMmUq5bn1Fuhlea92WvJvQUBu+Qhw4
q73qEvkxDpFG0tNzAaDSGx9DSIrsfcc+gDaT9Hx/aoZ37nvr5eyjbP2d3yafVutX
jJtNKmw5+Ezll519hgoav4DS+7ywLbuaQz7UpnS/ASEvdCed+QBH410E2dOmzv1j
BfTL3SZQaM+lgljjF7xg6dkXJCKZxOfPYPAvVTrvAgMBAAGjggE7MIIBNzARBglg
hkgBhvhCAQEEBAMCBkAwHQYDVR0OBBYEFL2Y/6nW+P8iKP37M18ih1a/DiNlMIG1
BgNVHSMEga0wgaqAFL7KU6xliRgCHvZTolASlGDszAX6oYGGpIGDMIGAMRUwEwYD
VQQDFAxDSEVOTkFJQ0FfQ0ExCzAJBgNVBAYTAklOMQ8wDQYDVQQKEwZDSVRSSVgx
DDAKBgNVBAsTA0FORzELMAkGA1UECBMCS0ExLjAsBgkqhkiG9w0BCQEWH0NIRU5O
QUlDQV9DQUBDSEVOTkFJQ0FfbWFpbC5jb22CCQCH+8TUXkZWcDBLBggrBgEFBQcB
AQQ/MD0wOwYIKwYBBQUHMAGGL2h0dHA6Ly9DSEVOTkFJQ0FfdHdvLm9jc3B0ZXN0
LmNvbS9yZXNwb25kZXJwYXRoMA0GCSqGSIb3DQEBCwUAA4IBAQBHqKOT1niBFaoV
AjSW2PyzrNVwemLZnh7xgR/ANL8+7/YAkwm1Ei4QYZGxsRpiMBA86PoN7pxTrIs5
J2hlR3SgyHXMCol0uTUFBycMRtsactMZfPDcSzfeSY0M9oa1MdoYvLIJqPc/oD98
yAijGsCRYkz1oHB3xjiRmO2EUNZEKKZGHEgTfgvUIQO1OeHqopgQubtpDqsYUiwm
Q1Owd2hK2ZLc3WhhWuElWvh0lYsLJT0iT5IdCrnBUzSgpBsEsF64V9i0Zwz5cHtv
mO7zWputuyzpQyltSbCncIN9F4E3jb1AbQx4pyPTnf1s3ZH0l9IVBZzMZE4n6qo+
lgdZz4Yc
-----END CERTIFICATE-----
