Certificate:
    Data:
        Version: 3 (0x2)
        Serial Number: 11042563100187 (0xa0b0c0d0e1b)
    Signature Algorithm: sha256WithRSAEncryption
        Issuer: CN=CHENNAICA_CA, C=IN, O=CITRIX, OU=ANG, ST=KA/emailAddress=CHENNAICA_CA@CHENNAICA_mail.com
        Validity
            Not Before: Jul  8 04:33:52 2016 GMT
            Not After : Jul  6 04:33:52 2026 GMT
        Subject: ST=KA, C=IN, CN=113_CHENNAICA_server/emailAddress=113_CHENNAICA@test_ca.com, O=CITRIX
        Subject Public Key Info:
            Public Key Algorithm: rsaEncryption
                Public-Key: (2048 bit)
                Modulus:
                    00:c1:2a:3d:b1:de:54:58:37:b1:b2:6c:c4:23:70:
                    a9:bd:3d:0d:18:b4:cf:10:fb:03:07:a7:9d:bb:d0:
                    64:b3:6f:7c:e7:db:95:f2:53:b0:bc:b0:ba:c8:82:
                    85:59:a0:19:4e:1a:bb:dd:13:75:d9:59:18:19:43:
                    f4:8b:9c:9a:e2:47:58:f5:c8:30:fc:ac:dc:38:4e:
                    b2:a9:35:91:75:b1:7a:26:e6:b0:d6:05:22:66:82:
                    4a:84:0b:55:27:09:1a:32:5d:0d:f9:d6:c1:b4:f8:
                    61:75:b7:6e:0e:f5:40:96:72:12:6d:2b:ff:42:64:
                    2c:1b:f8:7b:e8:07:3f:df:69:7a:a4:23:12:d3:6d:
                    18:f4:54:a4:21:1c:11:fd:98:2d:9c:a8:45:91:1e:
                    48:3d:a1:06:46:31:45:28:59:6d:88:93:64:72:1b:
                    05:cc:a2:d7:a0:62:0c:d5:fc:64:d0:9c:4c:68:b5:
                    3d:cc:0f:59:06:66:61:64:1f:8e:78:71:ca:77:93:
                    8a:e5:72:15:fe:2b:66:49:e5:b9:90:1b:04:68:79:
                    a0:b4:c9:0c:db:f8:23:e8:ac:00:9a:2d:0d:1f:ee:
                    75:ec:13:8f:57:5e:c7:c0:90:ed:9d:1b:c3:e0:35:
                    1d:c6:87:e3:28:f9:3b:7e:06:ab:52:b8:d4:97:2b:
                    e5:0b
                Exponent: 65537 (0x10001)
        X509v3 extensions:
            Netscape Cert Type: 
                SSL Server
            X509v3 Subject Key Identifier: 
                36:7F:35:67:5F:6F:61:50:54:C6:4F:34:C3:E6:7D:E7:8C:7A:02:5E
            X509v3 Authority Key Identifier: 
                keyid:BE:CA:53:AC:65:89:18:02:1E:F6:53:A2:50:12:94:60:EC:CC:05:FA
                DirName:/CN=CHENNAICA_CA/C=IN/O=CITRIX/OU=ANG/ST=KA/emailAddress=CHENNAICA_CA@CHENNAICA_mail.com
                serial:87:FB:C4:D4:5E:46:56:70

            Authority Information Access: 
                OCSP - URI:http://CHENNAICA_two.ocsptest.com/responderpath

    Signature Algorithm: sha256WithRSAEncryption
         ae:53:6a:c9:b3:bd:3e:ad:1a:55:3a:40:87:cb:ce:e0:b6:00:
         31:93:9b:bb:4a:2d:ec:c1:c9:68:95:5f:c7:5e:29:f6:4d:6d:
         fd:cc:78:a7:6d:39:0a:72:98:c0:f0:3f:ed:ee:0e:61:f5:29:
         84:b0:55:44:a0:1a:20:bd:c4:14:04:69:b3:06:0c:1a:bf:d1:
         f0:3b:c5:a7:2c:20:41:2b:eb:31:37:3f:67:ab:0d:f0:e9:f2:
         fb:2f:f8:9b:13:1d:93:bc:91:b9:b5:cd:66:a9:29:e5:49:ef:
         5f:95:3e:a4:f4:d3:82:5f:fc:19:f3:35:b2:93:ce:f4:f5:d5:
         db:82:5f:c0:0f:bc:76:17:34:38:51:a8:5b:ce:d2:ca:37:75:
         74:d2:ac:63:86:81:a9:84:6b:cc:96:9e:78:a4:fd:bd:ed:09:
         94:7e:fa:36:13:68:e3:86:1c:90:f1:bd:e8:72:5b:35:1b:75:
         00:2e:69:f5:a4:46:4f:7d:5e:45:60:7c:09:bf:98:8c:a7:31:
         27:41:6c:af:da:3a:73:26:9d:12:e9:25:ec:18:33:f1:8f:3d:
         06:2b:64:45:26:7c:e1:bb:0b:b1:01:13:76:51:86:9f:dd:a6:
         63:ea:9a:d7:68:72:aa:94:cb:64:9c:d3:a6:85:66:a8:62:1f:
         cd:e7:51:be
-----BEGIN CERTIFICATE-----
MIIEsjCCA5qgAwIBAgIGCgsMDQ4bMA0GCSqGSIb3DQEBCwUAMIGAMRUwEwYDVQQD
FAxDSEVOTkFJQ0FfQ0ExCzAJBgNVBAYTAklOMQ8wDQYDVQQKEwZDSVRSSVgxDDAK
BgNVBAsTA0FORzELMAkGA1UECBMCS0ExLjAsBgkqhkiG9w0BCQEWH0NIRU5OQUlD
QV9DQUBDSEVOTkFJQ0FfbWFpbC5jb20wHhcNMTYwNzA4MDQzMzUyWhcNMjYwNzA2
MDQzMzUyWjB0MQswCQYDVQQIEwJLQTELMAkGA1UEBhMCSU4xHTAbBgNVBAMUFDEx
M19DSEVOTkFJQ0Ffc2VydmVyMSgwJgYJKoZIhvcNAQkBFhkxMTNfQ0hFTk5BSUNB
QHRlc3RfY2EuY29tMQ8wDQYDVQQKEwZDSVRSSVgwggEiMA0GCSqGSIb3DQEBAQUA
A4IBDwAwggEKAoIBAQDBKj2x3lRYN7GybMQjcKm9PQ0YtM8Q+wMHp5270GSzb3zn
25XyU7C8sLrIgoVZoBlOGrvdE3XZWRgZQ/SLnJriR1j1yDD8rNw4TrKpNZF1sXom
5rDWBSJmgkqEC1UnCRoyXQ351sG0+GF1t24O9UCWchJtK/9CZCwb+HvoBz/faXqk
IxLTbRj0VKQhHBH9mC2cqEWRHkg9oQZGMUUoWW2Ik2RyGwXMotegYgzV/GTQnExo
tT3MD1kGZmFkH454ccp3k4rlchX+K2ZJ5bmQGwRoeaC0yQzb+CPorACaLQ0f7nXs
E49XXsfAkO2dG8PgNR3Gh+Mo+Tt+BqtSuNSXK+ULAgMBAAGjggE7MIIBNzARBglg
hkgBhvhCAQEEBAMCBkAwHQYDVR0OBBYEFDZ/NWdfb2FQVMZPNMPmfeeMegJeMIG1
BgNVHSMEga0wgaqAFL7KU6xliRgCHvZTolASlGDszAX6oYGGpIGDMIGAMRUwEwYD
VQQDFAxDSEVOTkFJQ0FfQ0ExCzAJBgNVBAYTAklOMQ8wDQYDVQQKEwZDSVRSSVgx
DDAKBgNVBAsTA0FORzELMAkGA1UECBMCS0ExLjAsBgkqhkiG9w0BCQEWH0NIRU5O
QUlDQV9DQUBDSEVOTkFJQ0FfbWFpbC5jb22CCQCH+8TUXkZWcDBLBggrBgEFBQcB
AQQ/MD0wOwYIKwYBBQUHMAGGL2h0dHA6Ly9DSEVOTkFJQ0FfdHdvLm9jc3B0ZXN0
LmNvbS9yZXNwb25kZXJwYXRoMA0GCSqGSIb3DQEBCwUAA4IBAQCuU2rJs70+rRpV
OkCHy87gtgAxk5u7Si3swclolV/HXin2TW39zHinbTkKcpjA8D/t7g5h9SmEsFVE
oBogvcQUBGmzBgwav9HwO8WnLCBBK+sxNz9nqw3w6fL7L/ibEx2TvJG5tc1mqSnl
Se9flT6k9NOCX/wZ8zWyk8709dXbgl/AD7x2FzQ4UahbztLKN3V00qxjhoGphGvM
lp54pP297QmUfvo2E2jjhhyQ8b3ocls1G3UALmn1pEZPfV5FYHwJv5iMpzEnQWyv
2jpzJp0S6SXsGDPxjz0GK2RFJnzhuwuxARN2UYaf3aZj6prXaHKqlMtknNOmhWao
Yh/N51G+
-----END CERTIFICATE-----
