Certificate:
    Data:
        Version: 3 (0x2)
        Serial Number: 11042563100188 (0xa0b0c0d0e1c)
    Signature Algorithm: sha256WithRSAEncryption
        Issuer: CN=CHENNAICA_CA, C=IN, O=CITRIX, OU=ANG, ST=KA/emailAddress=CHENNAICA_CA@CHENNAICA_mail.com
        Validity
            Not Before: Jul  8 04:33:52 2016 GMT
            Not After : Jul  6 04:33:52 2026 GMT
        Subject: ST=KA, C=IN, CN=114_CHENNAICA_server/emailAddress=114_CHENNAICA@test_ca.com, O=CITRIX
        Subject Public Key Info:
            Public Key Algorithm: rsaEncryption
                Public-Key: (2048 bit)
                Modulus:
                    00:ac:a8:72:00:5a:86:8e:17:f9:f3:57:fc:57:c5:
                    1b:e5:21:5d:c3:69:9c:ca:43:b5:dd:a0:c3:87:8e:
                    af:b4:12:58:64:47:d4:db:5c:4f:34:2d:0d:25:40:
                    fb:aa:dd:68:b5:e6:81:4f:4e:be:bf:f5:3c:7a:af:
                    52:43:0f:6f:3f:2c:6e:b5:fe:1f:d1:db:cc:35:63:
                    3f:29:a4:a6:27:45:bd:a2:2f:0f:f7:bd:fb:43:8c:
                    f1:60:25:e7:f1:a2:42:cf:13:c6:4f:7a:21:4f:d5:
                    82:27:f4:37:56:89:6c:21:d7:68:41:89:c6:3c:c9:
                    63:9f:5d:4f:7e:cf:f6:ad:62:5f:90:37:0e:54:d2:
                    45:e5:16:21:be:92:c0:6b:cd:b9:93:54:40:7c:4f:
                    e2:48:37:bd:9e:f7:78:02:4b:9d:73:a5:27:ba:56:
                    69:13:27:52:90:e3:10:3a:1a:3f:eb:36:0e:7e:7d:
                    54:23:e6:15:d5:a8:f0:0a:fe:bb:e4:33:de:bf:c6:
                    f1:0e:11:d0:67:42:23:3e:a1:7a:c2:61:63:5a:54:
                    78:da:33:b5:7b:18:62:45:93:ce:9d:05:2e:ca:14:
                    49:a9:60:ce:41:00:30:43:d6:73:47:53:61:39:23:
                    5e:ed:49:bb:2d:2a:ea:0d:de:33:89:12:08:68:ae:
                    ad:7b
                Exponent: 65537 (0x10001)
        X509v3 extensions:
            Netscape Cert Type: 
                SSL Server
            X509v3 Subject Key Identifier: 
                CC:5F:FF:DD:4B:26:A9:BE:1D:9E:33:94:1A:CA:DB:8E:76:DD:9D:19
            X509v3 Authority Key Identifier: 
                keyid:BE:CA:53:AC:65:89:18:02:1E:F6:53:A2:50:12:94:60:EC:CC:05:FA
                DirName:/CN=CHENNAICA_CA/C=IN/O=CITRIX/OU=ANG/ST=KA/emailAddress=CHENNAICA_CA@CHENNAICA_mail.com
                serial:87:FB:C4:D4:5E:46:56:70

            Authority Information Access: 
                OCSP - URI:http://CHENNAICA_two.ocsptest.com/responderpath

    Signature Algorithm: sha256WithRSAEncryption
         0e:39:ce:8a:4b:b4:80:ec:95:54:fb:b0:e1:78:c5:a3:85:05:
         6b:33:7c:4a:0b:05:d7:07:ea:79:2c:05:e5:3d:28:e0:fd:6b:
         07:df:53:11:ed:fc:6d:40:0e:23:63:8e:7b:0f:97:d6:c6:18:
         ae:42:fb:0f:71:c3:a6:89:75:75:b8:1d:95:b9:32:e5:4a:3a:
         70:33:7e:a2:91:c1:90:b3:ee:53:a8:86:b1:99:9f:87:7e:62:
         0b:fa:cb:46:db:f5:a2:bd:6b:51:15:90:9c:85:eb:79:0e:3f:
         8a:32:cc:df:e8:67:b2:3a:41:12:89:8e:6a:2e:6e:ce:5b:54:
         d1:74:2c:fa:47:4e:9c:88:07:d7:22:3a:8b:66:9c:50:e0:84:
         60:29:78:08:bc:bd:f6:23:ac:9f:cc:5e:af:83:a6:54:05:71:
         b8:66:62:e9:e5:78:1d:4c:d1:9b:e2:39:43:1e:72:05:72:5e:
         46:58:eb:8b:28:b5:31:3c:85:e1:07:71:5c:db:80:d6:5a:e3:
         1a:d6:10:cd:6b:bf:66:c6:fb:b3:9c:2c:4b:4a:97:4a:0d:39:
         8d:d8:24:b4:0a:fe:05:40:56:65:e3:a0:76:1d:dd:11:df:37:
         4a:4e:f9:26:54:6c:da:47:81:8a:e5:49:54:62:b3:b1:ad:e3:
         d3:ce:d3:8f
-----BEGIN CERTIFICATE-----
MIIEsjCCA5qgAwIBAgIGCgsMDQ4cMA0GCSqGSIb3DQEBCwUAMIGAMRUwEwYDVQQD
FAxDSEVOTkFJQ0FfQ0ExCzAJBgNVBAYTAklOMQ8wDQYDVQQKEwZDSVRSSVgxDDAK
BgNVBAsTA0FORzELMAkGA1UECBMCS0ExLjAsBgkqhkiG9w0BCQEWH0NIRU5OQUlD
QV9DQUBDSEVOTkFJQ0FfbWFpbC5jb20wHhcNMTYwNzA4MDQzMzUyWhcNMjYwNzA2
MDQzMzUyWjB0MQswCQYDVQQIEwJLQTELMAkGA1UEBhMCSU4xHTAbBgNVBAMUFDEx
NF9DSEVOTkFJQ0Ffc2VydmVyMSgwJgYJKoZIhvcNAQkBFhkxMTRfQ0hFTk5BSUNB
QHRlc3RfY2EuY29tMQ8wDQYDVQQKEwZDSVRSSVgwggEiMA0GCSqGSIb3DQEBAQUA
A4IBDwAwggEKAoIBAQCsqHIAWoaOF/nzV/xXxRvlIV3DaZzKQ7XdoMOHjq+0Elhk
R9TbXE80LQ0lQPuq3Wi15oFPTr6/9Tx6r1JDD28/LG61/h/R28w1Yz8ppKYnRb2i
Lw/3vftDjPFgJefxokLPE8ZPeiFP1YIn9DdWiWwh12hBicY8yWOfXU9+z/atYl+Q
Nw5U0kXlFiG+ksBrzbmTVEB8T+JIN72e93gCS51zpSe6VmkTJ1KQ4xA6Gj/rNg5+
fVQj5hXVqPAK/rvkM96/xvEOEdBnQiM+oXrCYWNaVHjaM7V7GGJFk86dBS7KFEmp
YM5BADBD1nNHU2E5I17tSbstKuoN3jOJEghorq17AgMBAAGjggE7MIIBNzARBglg
hkgBhvhCAQEEBAMCBkAwHQYDVR0OBBYEFMxf/91LJqm+HZ4zlBrK24523Z0ZMIG1
BgNVHSMEga0wgaqAFL7KU6xliRgCHvZTolASlGDszAX6oYGGpIGDMIGAMRUwEwYD
VQQDFAxDSEVOTkFJQ0FfQ0ExCzAJBgNVBAYTAklOMQ8wDQYDVQQKEwZDSVRSSVgx
DDAKBgNVBAsTA0FORzELMAkGA1UECBMCS0ExLjAsBgkqhkiG9w0BCQEWH0NIRU5O
QUlDQV9DQUBDSEVOTkFJQ0FfbWFpbC5jb22CCQCH+8TUXkZWcDBLBggrBgEFBQcB
AQQ/MD0wOwYIKwYBBQUHMAGGL2h0dHA6Ly9DSEVOTkFJQ0FfdHdvLm9jc3B0ZXN0
LmNvbS9yZXNwb25kZXJwYXRoMA0GCSqGSIb3DQEBCwUAA4IBAQAOOc6KS7SA7JVU
+7DheMWjhQVrM3xKCwXXB+p5LAXlPSjg/WsH31MR7fxtQA4jY457D5fWxhiuQvsP
ccOmiXV1uB2VuTLlSjpwM36ikcGQs+5TqIaxmZ+HfmIL+stG2/WivWtRFZCchet5
Dj+KMszf6GeyOkESiY5qLm7OW1TRdCz6R06ciAfXIjqLZpxQ4IRgKXgIvL32I6yf
zF6vg6ZUBXG4ZmLp5XgdTNGb4jlDHnIFcl5GWOuLKLUxPIXhB3Fc24DWWuMa1hDN
a79mxvuznCxLSpdKDTmN2CS0Cv4FQFZl46B2Hd0R3zdKTvkmVGzaR4GK5UlUYrOx
rePTztOP
-----END CERTIFICATE-----
