Certificate:
    Data:
        Version: 3 (0x2)
        Serial Number: 11042563100190 (0xa0b0c0d0e1e)
    Signature Algorithm: sha256WithRSAEncryption
        Issuer: CN=CHENNAICA_CA, C=IN, O=CITRIX, OU=ANG, ST=KA/emailAddress=CHENNAICA_CA@CHENNAICA_mail.com
        Validity
            Not Before: Jul  8 04:33:53 2016 GMT
            Not After : Jul  6 04:33:53 2026 GMT
        Subject: ST=KA, C=IN, CN=116_CHENNAICA_server/emailAddress=116_CHENNAICA@test_ca.com, O=CITRIX
        Subject Public Key Info:
            Public Key Algorithm: rsaEncryption
                Public-Key: (2048 bit)
                Modulus:
                    00:bf:5d:b0:23:8b:06:d1:b1:28:d3:50:2d:65:d5:
                    1c:27:0e:be:b9:af:6b:0b:6c:e2:0c:62:52:88:8a:
                    de:33:5b:e0:85:d0:8b:76:36:c5:a2:49:cb:b4:c7:
                    4f:81:48:cd:7a:1e:24:9b:2a:01:b7:b2:5a:66:8f:
                    d5:48:70:0d:e1:4b:e2:7a:86:a3:0a:e8:05:b3:d3:
                    25:0b:d9:df:9b:58:67:63:62:2a:38:d9:6a:b8:e1:
                    3f:f8:d1:74:b2:41:e1:af:b9:e1:55:80:d8:f9:6c:
                    b7:97:aa:0a:76:9e:be:39:a7:21:d7:3c:48:f7:83:
                    be:e3:08:49:2f:5f:d9:86:f8:5d:fe:55:c6:2f:f7:
                    6c:45:a4:b1:56:f2:b3:e9:8d:ed:ca:f0:f3:82:b7:
                    9b:89:b9:ca:6e:33:2a:7d:0e:92:78:79:0d:21:7e:
                    1d:0f:4d:1c:b8:07:87:32:05:20:7d:a3:37:e0:ac:
                    e9:2b:fe:cc:c0:29:1a:ba:0a:18:cf:a4:68:a8:80:
                    81:85:df:35:10:fc:40:9c:3d:35:99:0f:9c:10:a6:
                    15:cd:70:60:e2:1d:9a:e9:32:80:8a:ff:a1:b0:22:
                    14:62:25:b3:9b:fc:41:b6:52:3b:b9:ac:a8:1c:7b:
                    a1:34:61:d7:06:be:ac:01:ff:76:86:b6:d6:0c:b5:
                    62:5b
                Exponent: 65537 (0x10001)
        X509v3 extensions:
            Netscape Cert Type: 
                SSL Server
            X509v3 Subject Key Identifier: 
                09:48:C6:6C:8F:03:D4:2F:12:43:C4:F6:87:3F:E6:1A:5F:F6:EC:5B
            X509v3 Authority Key Identifier: 
                keyid:BE:CA:53:AC:65:89:18:02:1E:F6:53:A2:50:12:94:60:EC:CC:05:FA
                DirName:/CN=CHENNAICA_CA/C=IN/O=CITRIX/OU=ANG/ST=KA/emailAddress=CHENNAICA_CA@CHENNAICA_mail.com
                serial:87:FB:C4:D4:5E:46:56:70

            Authority Information Access: 
                OCSP - URI:http://CHENNAICA_two.ocsptest.com/responderpath

    Signature Algorithm: sha256WithRSAEncryption
         89:dc:80:aa:6a:53:53:38:72:cb:41:d9:fa:c4:15:84:9a:25:
         eb:ca:e6:0b:18:45:5d:62:53:1c:8a:19:8c:23:1f:64:89:68:
         9d:c5:c5:0c:ca:44:8b:89:aa:52:44:78:ba:d4:10:5c:07:77:
         95:1f:73:a1:8f:ac:a8:1c:45:42:64:ee:65:84:8e:7b:68:82:
         0b:3b:fa:5e:f1:07:7f:1a:59:0b:23:98:65:a5:63:89:e2:3b:
         11:2d:5d:e5:86:8b:48:b3:c5:f5:10:30:c4:10:86:15:22:63:
         e1:36:85:75:4d:ec:fc:23:c0:8f:82:17:4f:33:25:5d:5a:32:
         30:5d:cf:06:d8:ea:6d:7b:32:37:3e:d7:a3:be:02:3a:48:75:
         79:17:6e:11:a9:86:a9:b5:33:cc:00:b7:d1:1d:46:a0:3a:20:
         eb:e8:f5:f7:f2:75:d7:0a:cb:e7:19:48:aa:23:fc:40:02:f1:
         97:7e:0a:92:ce:62:4f:31:bc:4f:13:6c:f2:05:b1:6b:2b:0a:
         e5:18:ea:3e:e0:63:0d:31:d5:1a:04:99:79:7f:ea:eb:65:85:
         56:ff:74:69:29:27:d3:82:4d:f9:f6:52:6d:06:9f:07:94:2d:
         c6:1a:58:3d:64:d8:dc:1a:ad:fa:90:54:c9:34:10:8f:34:ff:
         85:cb:6b:f4
-----BEGIN CERTIFICATE-----
MIIEsjCCA5qgAwIBAgIGCgsMDQ4eMA0GCSqGSIb3DQEBCwUAMIGAMRUwEwYDVQQD
FAxDSEVOTkFJQ0FfQ0ExCzAJBgNVBAYTAklOMQ8wDQYDVQQKEwZDSVRSSVgxDDAK
BgNVBAsTA0FORzELMAkGA1UECBMCS0ExLjAsBgkqhkiG9w0BCQEWH0NIRU5OQUlD
QV9DQUBDSEVOTkFJQ0FfbWFpbC5jb20wHhcNMTYwNzA4MDQzMzUzWhcNMjYwNzA2
MDQzMzUzWjB0MQswCQYDVQQIEwJLQTELMAkGA1UEBhMCSU4xHTAbBgNVBAMUFDEx
Nl9DSEVOTkFJQ0Ffc2VydmVyMSgwJgYJKoZIhvcNAQkBFhkxMTZfQ0hFTk5BSUNB
QHRlc3RfY2EuY29tMQ8wDQYDVQQKEwZDSVRSSVgwggEiMA0GCSqGSIb3DQEBAQUA
A4IBDwAwggEKAoIBAQC/XbAjiwbRsSjTUC1l1RwnDr65r2sLbOIMYlKIit4zW+CF
0It2NsWiScu0x0+BSM16HiSbKgG3slpmj9VIcA3hS+J6hqMK6AWz0yUL2d+bWGdj
Yio42Wq44T/40XSyQeGvueFVgNj5bLeXqgp2nr45pyHXPEj3g77jCEkvX9mG+F3+
VcYv92xFpLFW8rPpje3K8POCt5uJucpuMyp9DpJ4eQ0hfh0PTRy4B4cyBSB9ozfg
rOkr/szAKRq6ChjPpGiogIGF3zUQ/ECcPTWZD5wQphXNcGDiHZrpMoCK/6GwIhRi
JbOb/EG2Uju5rKgce6E0YdcGvqwB/3aGttYMtWJbAgMBAAGjggE7MIIBNzARBglg
hkgBhvhCAQEEBAMCBkAwHQYDVR0OBBYEFAlIxmyPA9QvEkPE9oc/5hpf9uxbMIG1
BgNVHSMEga0wgaqAFL7KU6xliRgCHvZTolASlGDszAX6oYGGpIGDMIGAMRUwEwYD
VQQDFAxDSEVOTkFJQ0FfQ0ExCzAJBgNVBAYTAklOMQ8wDQYDVQQKEwZDSVRSSVgx
DDAKBgNVBAsTA0FORzELMAkGA1UECBMCS0ExLjAsBgkqhkiG9w0BCQEWH0NIRU5O
QUlDQV9DQUBDSEVOTkFJQ0FfbWFpbC5jb22CCQCH+8TUXkZWcDBLBggrBgEFBQcB
AQQ/MD0wOwYIKwYBBQUHMAGGL2h0dHA6Ly9DSEVOTkFJQ0FfdHdvLm9jc3B0ZXN0
LmNvbS9yZXNwb25kZXJwYXRoMA0GCSqGSIb3DQEBCwUAA4IBAQCJ3ICqalNTOHLL
Qdn6xBWEmiXryuYLGEVdYlMcihmMIx9kiWidxcUMykSLiapSRHi61BBcB3eVH3Oh
j6yoHEVCZO5lhI57aIILO/pe8Qd/GlkLI5hlpWOJ4jsRLV3lhotIs8X1EDDEEIYV
ImPhNoV1Tez8I8CPghdPMyVdWjIwXc8G2OptezI3PtejvgI6SHV5F24RqYaptTPM
ALfRHUagOiDr6PX38nXXCsvnGUiqI/xAAvGXfgqSzmJPMbxPE2zyBbFrKwrlGOo+
4GMNMdUaBJl5f+rrZYVW/3RpKSfTgk359lJtBp8HlC3GGlg9ZNjcGq36kFTJNBCP
NP+Fy2v0
-----END CERTIFICATE-----
