Certificate:
    Data:
        Version: 3 (0x2)
        Serial Number: 11042563100191 (0xa0b0c0d0e1f)
    Signature Algorithm: sha256WithRSAEncryption
        Issuer: CN=CHENNAICA_CA, C=IN, O=CITRIX, OU=ANG, ST=KA/emailAddress=CHENNAICA_CA@CHENNAICA_mail.com
        Validity
            Not Before: Jul  8 04:33:53 2016 GMT
            Not After : Jul  6 04:33:53 2026 GMT
        Subject: ST=KA, C=IN, CN=117_CHENNAICA_server/emailAddress=117_CHENNAICA@test_ca.com, O=CITRIX
        Subject Public Key Info:
            Public Key Algorithm: rsaEncryption
                Public-Key: (2048 bit)
                Modulus:
                    00:bf:55:74:66:64:8b:79:84:22:82:57:3e:05:9a:
                    fd:24:88:e2:09:5f:52:43:71:c4:cb:cb:ea:99:90:
                    8b:51:d0:5b:62:5d:52:39:61:90:68:ac:ad:0a:c6:
                    20:dd:94:18:54:43:a3:70:ea:0d:1f:88:d8:43:67:
                    00:89:fb:46:1e:16:23:0f:fd:09:86:e9:5a:cf:e2:
                    bb:57:fb:84:32:80:ed:83:6d:f2:27:29:50:69:77:
                    a2:ac:cb:92:c2:b1:28:6c:84:f8:c5:78:a3:3a:91:
                    96:33:60:d4:85:36:9f:0a:28:5d:c1:19:1c:35:99:
                    ac:6f:b4:dc:42:41:6a:13:66:cd:fc:25:61:af:20:
                    06:e4:53:66:30:b7:9b:db:86:f2:60:68:a2:fd:60:
                    e4:3d:c4:a9:79:d6:c9:1e:e5:0b:0c:4a:fc:54:ef:
                    ec:77:6a:a0:d2:d8:a7:a0:9d:f4:ff:3e:57:1f:eb:
                    28:bf:2d:3f:25:29:8e:92:e2:4b:f2:67:7b:90:75:
                    51:ea:2b:21:b5:c1:3c:11:a7:9d:f9:42:07:15:d1:
                    6a:47:19:dc:d0:30:5f:e1:2b:42:bb:a0:df:98:c1:
                    7b:37:29:96:2e:35:c7:d5:bf:cc:d4:d8:15:d1:d5:
                    f1:26:99:73:25:6a:f6:37:c9:3e:42:53:57:89:6c:
                    09:23
                Exponent: 65537 (0x10001)
        X509v3 extensions:
            Netscape Cert Type: 
                SSL Server
            X509v3 Subject Key Identifier: 
                D4:E6:2B:2D:4D:8F:6F:CC:1F:EC:0D:D0:F1:12:AD:8A:DA:0A:EE:7E
            X509v3 Authority Key Identifier: 
                keyid:BE:CA:53:AC:65:89:18:02:1E:F6:53:A2:50:12:94:60:EC:CC:05:FA
                DirName:/CN=CHENNAICA_CA/C=IN/O=CITRIX/OU=ANG/ST=KA/emailAddress=CHENNAICA_CA@CHENNAICA_mail.com
                serial:87:FB:C4:D4:5E:46:56:70

            Authority Information Access: 
                OCSP - URI:http://CHENNAICA_two.ocsptest.com/responderpath

    Signature Algorithm: sha256WithRSAEncryption
         ce:e5:d5:f2:64:2b:e5:2b:7e:a2:15:72:d4:93:43:ca:52:63:
         63:0c:26:79:3a:37:eb:3d:97:37:3e:ba:9d:cd:c0:cc:6f:59:
         bb:6e:18:e7:8d:14:ef:48:e5:74:c4:b6:35:8b:f9:35:ad:13:
         07:01:45:f2:3c:a7:3f:db:70:0a:0c:20:84:c5:f5:47:61:71:
         ad:41:7e:69:cb:92:f4:c0:06:fd:46:19:21:d0:23:11:aa:d9:
         4c:9e:47:e8:66:cf:8e:23:59:be:b6:72:e6:5f:f2:7f:27:d6:
         fa:43:42:86:b0:4f:63:c3:88:8b:45:07:3e:60:df:3a:92:cc:
         f2:fa:60:ba:f6:6c:93:47:8b:31:04:2a:3a:95:d7:91:8c:45:
         da:e0:78:53:66:f3:8b:41:e0:17:83:9c:9a:14:24:2a:2f:6d:
         80:59:b7:f6:bc:59:8d:10:5d:df:37:fd:18:1b:ce:3c:33:b4:
         95:f1:e7:fd:9e:b4:36:dc:88:45:35:58:ec:8a:73:72:c5:e0:
         66:88:18:58:59:02:e4:cd:29:ea:96:bb:f1:45:e2:29:60:57:
         5b:9a:52:57:c4:7c:24:a8:30:37:21:21:77:89:9d:e3:99:78:
         fe:33:fc:19:f8:15:bc:73:5c:ae:a7:5d:a2:14:b9:ee:59:c4:
         f9:8c:3f:d7
-----BEGIN CERTIFICATE-----
MIIEsjCCA5qgAwIBAgIGCgsMDQ4fMA0GCSqGSIb3DQEBCwUAMIGAMRUwEwYDVQQD
FAxDSEVOTkFJQ0FfQ0ExCzAJBgNVBAYTAklOMQ8wDQYDVQQKEwZDSVRSSVgxDDAK
BgNVBAsTA0FORzELMAkGA1UECBMCS0ExLjAsBgkqhkiG9w0BCQEWH0NIRU5OQUlD
QV9DQUBDSEVOTkFJQ0FfbWFpbC5jb20wHhcNMTYwNzA4MDQzMzUzWhcNMjYwNzA2
MDQzMzUzWjB0MQswCQYDVQQIEwJLQTELMAkGA1UEBhMCSU4xHTAbBgNVBAMUFDEx
N19DSEVOTkFJQ0Ffc2VydmVyMSgwJgYJKoZIhvcNAQkBFhkxMTdfQ0hFTk5BSUNB
QHRlc3RfY2EuY29tMQ8wDQYDVQQKEwZDSVRSSVgwggEiMA0GCSqGSIb3DQEBAQUA
A4IBDwAwggEKAoIBAQC/VXRmZIt5hCKCVz4Fmv0kiOIJX1JDccTLy+qZkItR0Fti
XVI5YZBorK0KxiDdlBhUQ6Nw6g0fiNhDZwCJ+0YeFiMP/QmG6VrP4rtX+4QygO2D
bfInKVBpd6Ksy5LCsShshPjFeKM6kZYzYNSFNp8KKF3BGRw1maxvtNxCQWoTZs38
JWGvIAbkU2Ywt5vbhvJgaKL9YOQ9xKl51ske5QsMSvxU7+x3aqDS2KegnfT/Plcf
6yi/LT8lKY6S4kvyZ3uQdVHqKyG1wTwRp535QgcV0WpHGdzQMF/hK0K7oN+YwXs3
KZYuNcfVv8zU2BXR1fEmmXMlavY3yT5CU1eJbAkjAgMBAAGjggE7MIIBNzARBglg
hkgBhvhCAQEEBAMCBkAwHQYDVR0OBBYEFNTmKy1Nj2/MH+wN0PESrYraCu5+MIG1
BgNVHSMEga0wgaqAFL7KU6xliRgCHvZTolASlGDszAX6oYGGpIGDMIGAMRUwEwYD
VQQDFAxDSEVOTkFJQ0FfQ0ExCzAJBgNVBAYTAklOMQ8wDQYDVQQKEwZDSVRSSVgx
DDAKBgNVBAsTA0FORzELMAkGA1UECBMCS0ExLjAsBgkqhkiG9w0BCQEWH0NIRU5O
QUlDQV9DQUBDSEVOTkFJQ0FfbWFpbC5jb22CCQCH+8TUXkZWcDBLBggrBgEFBQcB
AQQ/MD0wOwYIKwYBBQUHMAGGL2h0dHA6Ly9DSEVOTkFJQ0FfdHdvLm9jc3B0ZXN0
LmNvbS9yZXNwb25kZXJwYXRoMA0GCSqGSIb3DQEBCwUAA4IBAQDO5dXyZCvlK36i
FXLUk0PKUmNjDCZ5OjfrPZc3PrqdzcDMb1m7bhjnjRTvSOV0xLY1i/k1rRMHAUXy
PKc/23AKDCCExfVHYXGtQX5py5L0wAb9Rhkh0CMRqtlMnkfoZs+OI1m+tnLmX/J/
J9b6Q0KGsE9jw4iLRQc+YN86kszy+mC69myTR4sxBCo6ldeRjEXa4HhTZvOLQeAX
g5yaFCQqL22AWbf2vFmNEF3fN/0YG848M7SV8ef9nrQ23IhFNVjsinNyxeBmiBhY
WQLkzSnqlrvxReIpYFdbmlJXxHwkqDA3ISF3iZ3jmXj+M/wZ+BW8c1yup12iFLnu
WcT5jD/X
-----END CERTIFICATE-----
