Certificate:
    Data:
        Version: 3 (0x2)
        Serial Number: 11042563100197 (0xa0b0c0d0e25)
    Signature Algorithm: sha256WithRSAEncryption
        Issuer: CN=CHENNAICA_CA, C=IN, O=CITRIX, OU=ANG, ST=KA/emailAddress=CHENNAICA_CA@CHENNAICA_mail.com
        Validity
            Not Before: Jul  8 04:33:54 2016 GMT
            Not After : Jul  6 04:33:54 2026 GMT
        Subject: ST=KA, C=IN, CN=123_CHENNAICA_server/emailAddress=123_CHENNAICA@test_ca.com, O=CITRIX
        Subject Public Key Info:
            Public Key Algorithm: rsaEncryption
                Public-Key: (2048 bit)
                Modulus:
                    00:ca:39:aa:51:d9:87:f3:c4:12:0e:7a:f3:75:57:
                    e2:56:06:b7:8b:8f:a2:1d:fd:2f:7f:7d:3c:cd:57:
                    53:c1:f1:b2:ee:a3:b5:5a:81:15:be:b3:c3:4a:6f:
                    8e:b0:51:36:65:39:29:b1:44:1d:2f:97:33:d0:78:
                    06:8e:0a:be:6e:46:22:5c:fa:fc:08:23:f7:b2:ee:
                    53:6d:db:fa:c0:73:dd:59:37:81:2d:53:7c:15:fc:
                    49:ba:58:13:37:1d:2a:d9:39:d7:7a:7f:d0:6a:c9:
                    50:84:5b:92:4c:7f:df:84:4d:62:4d:03:d1:24:70:
                    ef:f2:bd:c5:06:9d:a4:f8:b7:f9:46:d0:b9:72:31:
                    72:9c:95:c9:c9:9e:c9:45:c8:d2:e4:fb:61:be:02:
                    39:bf:c5:f7:a0:35:ab:91:aa:bf:34:e4:87:95:6d:
                    b1:34:6f:55:a8:bd:06:98:ab:82:aa:45:f1:3a:81:
                    d7:9d:7b:7c:4c:46:cf:7e:c3:71:60:52:a1:76:9e:
                    6c:31:ba:4e:e9:9e:60:82:8c:43:61:e4:ba:4a:d8:
                    c0:eb:47:68:08:34:ce:92:69:00:83:16:cb:2b:5d:
                    4c:66:c9:43:2e:c4:18:d7:a2:8e:ce:5f:ae:d1:9e:
                    cb:05:69:a2:2f:d4:3a:02:61:70:ea:36:a1:ec:fa:
                    78:0f
                Exponent: 65537 (0x10001)
        X509v3 extensions:
            Netscape Cert Type: 
                SSL Server
            X509v3 Subject Key Identifier: 
                DD:FF:FB:A6:70:42:10:30:9B:A5:C1:43:DF:4D:B5:63:5B:01:C9:36
            X509v3 Authority Key Identifier: 
                keyid:BE:CA:53:AC:65:89:18:02:1E:F6:53:A2:50:12:94:60:EC:CC:05:FA
                DirName:/CN=CHENNAICA_CA/C=IN/O=CITRIX/OU=ANG/ST=KA/emailAddress=CHENNAICA_CA@CHENNAICA_mail.com
                serial:87:FB:C4:D4:5E:46:56:70

            Authority Information Access: 
                OCSP - URI:http://172.19.10.1/responderpath

    Signature Algorithm: sha256WithRSAEncryption
         80:46:e9:93:7b:46:47:e9:0c:05:b9:02:8c:68:39:66:da:79:
         3e:76:df:11:21:8a:d2:25:3d:64:fe:e8:e9:0a:bf:27:8f:dd:
         56:91:d2:63:91:24:87:d7:42:ed:f8:0e:6d:ec:3f:03:0d:6f:
         06:c6:2c:bc:6d:1d:80:3a:77:62:ad:bc:32:bf:b5:14:8e:f8:
         a9:2b:0d:b2:3b:f2:ae:92:5e:7a:e7:94:25:fc:03:41:b8:69:
         34:31:c5:9f:bd:81:ce:5a:c2:ea:f6:ad:77:6d:74:a1:38:19:
         b9:da:be:7b:2b:e4:7f:fa:d7:e6:a2:04:09:f3:42:8b:35:a9:
         7d:64:2f:ac:f3:90:d5:ba:d5:0c:19:81:0b:38:cc:48:84:29:
         58:2b:56:92:44:0b:6c:d7:6e:e1:3b:02:d0:f9:31:61:97:7b:
         e1:60:52:83:7a:aa:fb:0c:22:3d:e7:0a:11:15:4f:0a:cc:f4:
         3d:bb:1d:7f:d5:2c:fe:32:84:a5:74:d5:5d:02:2e:66:bf:82:
         a4:38:37:9b:1b:48:9b:e6:dd:93:ee:2c:90:b3:6b:0f:1b:3e:
         a2:e9:08:ed:7c:bc:94:d1:44:1f:26:63:3f:0f:3c:77:f6:b0:
         35:af:0d:52:f7:e2:51:96:71:38:a4:12:36:c3:11:b0:e8:9d:
         85:a0:e5:6c
-----BEGIN CERTIFICATE-----
MIIEozCCA4ugAwIBAgIGCgsMDQ4lMA0GCSqGSIb3DQEBCwUAMIGAMRUwEwYDVQQD
FAxDSEVOTkFJQ0FfQ0ExCzAJBgNVBAYTAklOMQ8wDQYDVQQKEwZDSVRSSVgxDDAK
BgNVBAsTA0FORzELMAkGA1UECBMCS0ExLjAsBgkqhkiG9w0BCQEWH0NIRU5OQUlD
QV9DQUBDSEVOTkFJQ0FfbWFpbC5jb20wHhcNMTYwNzA4MDQzMzU0WhcNMjYwNzA2
MDQzMzU0WjB0MQswCQYDVQQIEwJLQTELMAkGA1UEBhMCSU4xHTAbBgNVBAMUFDEy
M19DSEVOTkFJQ0Ffc2VydmVyMSgwJgYJKoZIhvcNAQkBFhkxMjNfQ0hFTk5BSUNB
QHRlc3RfY2EuY29tMQ8wDQYDVQQKEwZDSVRSSVgwggEiMA0GCSqGSIb3DQEBAQUA
A4IBDwAwggEKAoIBAQDKOapR2YfzxBIOevN1V+JWBreLj6Id/S9/fTzNV1PB8bLu
o7VagRW+s8NKb46wUTZlOSmxRB0vlzPQeAaOCr5uRiJc+vwII/ey7lNt2/rAc91Z
N4EtU3wV/Em6WBM3HSrZOdd6f9BqyVCEW5JMf9+ETWJNA9EkcO/yvcUGnaT4t/lG
0LlyMXKclcnJnslFyNLk+2G+Ajm/xfegNauRqr805IeVbbE0b1WovQaYq4KqRfE6
gdede3xMRs9+w3FgUqF2nmwxuk7pnmCCjENh5LpK2MDrR2gINM6SaQCDFssrXUxm
yUMuxBjXoo7OX67RnssFaaIv1DoCYXDqNqHs+ngPAgMBAAGjggEsMIIBKDARBglg
hkgBhvhCAQEEBAMCBkAwHQYDVR0OBBYEFN3/+6ZwQhAwm6XBQ99NtWNbAck2MIG1
BgNVHSMEga0wgaqAFL7KU6xliRgCHvZTolASlGDszAX6oYGGpIGDMIGAMRUwEwYD
VQQDFAxDSEVOTkFJQ0FfQ0ExCzAJBgNVBAYTAklOMQ8wDQYDVQQKEwZDSVRSSVgx
DDAKBgNVBAsTA0FORzELMAkGA1UECBMCS0ExLjAsBgkqhkiG9w0BCQEWH0NIRU5O
QUlDQV9DQUBDSEVOTkFJQ0FfbWFpbC5jb22CCQCH+8TUXkZWcDA8BggrBgEFBQcB
AQQwMC4wLAYIKwYBBQUHMAGGIGh0dHA6Ly8xNzIuMTkuMTAuMS9yZXNwb25kZXJw
YXRoMA0GCSqGSIb3DQEBCwUAA4IBAQCARumTe0ZH6QwFuQKMaDlm2nk+dt8RIYrS
JT1k/ujpCr8nj91WkdJjkSSH10Lt+A5t7D8DDW8Gxiy8bR2AOndirbwyv7UUjvip
Kw2yO/Kukl5655Ql/ANBuGk0McWfvYHOWsLq9q13bXShOBm52r57K+R/+tfmogQJ
80KLNal9ZC+s85DVutUMGYELOMxIhClYK1aSRAts127hOwLQ+TFhl3vhYFKDeqr7
DCI95woRFU8KzPQ9ux1/1Sz+MoSldNVdAi5mv4KkODebG0ib5t2T7iyQs2sPGz6i
6QjtfLyU0UQfJmM/Dzx39rA1rw1S9+JRlnE4pBI2wxGw6J2FoOVs
-----END CERTIFICATE-----
