Certificate:
    Data:
        Version: 3 (0x2)
        Serial Number: 11042563100200 (0xa0b0c0d0e28)
    Signature Algorithm: sha256WithRSAEncryption
        Issuer: CN=CHENNAICA_CA, C=IN, O=CITRIX, OU=ANG, ST=KA/emailAddress=CHENNAICA_CA@CHENNAICA_mail.com
        Validity
            Not Before: Jul  8 04:33:55 2016 GMT
            Not After : Jul  6 04:33:55 2026 GMT
        Subject: ST=KA, C=IN, CN=126_CHENNAICA_server/emailAddress=126_CHENNAICA@test_ca.com, O=CITRIX
        Subject Public Key Info:
            Public Key Algorithm: rsaEncryption
                Public-Key: (2048 bit)
                Modulus:
                    00:ab:e3:ef:56:c2:aa:9c:37:ae:c1:f8:16:b4:6e:
                    3e:31:18:48:e1:9d:3a:89:a5:44:b5:6e:3d:a1:67:
                    a5:5f:72:b0:52:14:3d:d8:66:fb:81:f2:ce:21:56:
                    7f:2a:d2:f5:76:25:f7:26:08:39:45:c0:fd:16:31:
                    b3:f8:7c:9f:40:dc:19:be:d1:47:ef:3e:0e:8a:30:
                    81:33:c0:27:0c:4e:44:3e:d2:eb:b0:1a:b4:a3:36:
                    27:58:1a:6d:ac:26:77:2f:ce:92:40:a6:13:8d:26:
                    0b:69:2a:59:31:75:28:80:2f:9f:c3:a9:b6:27:91:
                    07:27:e4:10:4d:10:32:7a:21:67:bc:63:4f:94:60:
                    8b:d4:60:31:cd:87:e3:e8:5b:cd:62:84:0a:8c:51:
                    d6:d9:d0:a5:e2:73:de:fa:63:84:eb:a4:75:5e:0e:
                    8a:14:2a:2f:67:45:3a:53:0a:07:23:21:83:60:d2:
                    42:90:2f:b4:b0:b5:91:c2:37:5b:02:e5:b8:62:7c:
                    a8:08:cc:74:29:9e:c2:84:92:39:9c:54:90:3a:95:
                    37:55:9d:2c:d5:9a:e7:d6:31:79:87:5e:ac:f3:1e:
                    cc:0b:6a:f7:34:34:ae:c2:ec:76:cd:9e:ce:fb:17:
                    f3:39:e4:b3:34:7b:ad:35:ec:d5:b2:b3:8d:c4:77:
                    b0:d7
                Exponent: 65537 (0x10001)
        X509v3 extensions:
            Netscape Cert Type: 
                SSL Server
            X509v3 Subject Key Identifier: 
                AC:9E:72:1D:CD:B6:FA:96:2E:F5:22:05:38:46:7A:41:6D:2D:98:C7
            X509v3 Authority Key Identifier: 
                keyid:BE:CA:53:AC:65:89:18:02:1E:F6:53:A2:50:12:94:60:EC:CC:05:FA
                DirName:/CN=CHENNAICA_CA/C=IN/O=CITRIX/OU=ANG/ST=KA/emailAddress=CHENNAICA_CA@CHENNAICA_mail.com
                serial:87:FB:C4:D4:5E:46:56:70

            Authority Information Access: 
                OCSP - URI:http://172.19.10.1/responderpath

    Signature Algorithm: sha256WithRSAEncryption
         a2:cd:6a:aa:44:05:fd:88:15:26:ba:6a:7f:da:80:4b:8b:26:
         b4:93:b4:f7:b0:a0:cd:05:68:81:e6:37:6c:ae:de:25:84:f6:
         7d:af:7b:08:57:54:ad:e8:d1:9c:c9:7e:90:a8:bc:64:33:65:
         49:a8:79:31:78:39:7c:35:8f:89:b6:b6:77:87:3b:76:93:6c:
         8b:f5:18:21:7a:3f:7c:70:24:ae:92:95:40:73:8d:a2:10:8c:
         83:a4:35:cc:38:11:17:6a:6f:bf:d7:f3:47:7e:da:cd:c8:19:
         47:b5:cd:32:7b:dd:bb:40:83:13:bf:35:13:d5:ba:3e:d5:6e:
         f3:20:b7:8e:89:3b:e4:89:d3:32:2e:25:47:30:9b:56:b4:eb:
         21:3b:89:7b:8d:62:77:a8:f8:85:1b:1d:b0:b3:11:d3:6c:85:
         d5:36:6a:00:7f:77:20:6c:5b:a1:9a:69:b0:49:af:0d:5f:d5:
         35:21:28:e1:a2:f7:e2:34:20:fa:28:22:a5:90:2d:68:0a:4a:
         31:b7:dd:e2:d9:43:37:a4:a9:25:f9:bc:36:fe:18:f0:1b:0e:
         3c:df:15:38:da:4d:a1:a5:d3:77:fd:9e:16:73:0c:b4:9c:2f:
         17:35:33:b0:c3:35:3e:7d:9d:ff:77:32:46:4e:ea:f1:86:65:
         49:1b:fb:3f
-----BEGIN CERTIFICATE-----
MIIEozCCA4ugAwIBAgIGCgsMDQ4oMA0GCSqGSIb3DQEBCwUAMIGAMRUwEwYDVQQD
FAxDSEVOTkFJQ0FfQ0ExCzAJBgNVBAYTAklOMQ8wDQYDVQQKEwZDSVRSSVgxDDAK
BgNVBAsTA0FORzELMAkGA1UECBMCS0ExLjAsBgkqhkiG9w0BCQEWH0NIRU5OQUlD
QV9DQUBDSEVOTkFJQ0FfbWFpbC5jb20wHhcNMTYwNzA4MDQzMzU1WhcNMjYwNzA2
MDQzMzU1WjB0MQswCQYDVQQIEwJLQTELMAkGA1UEBhMCSU4xHTAbBgNVBAMUFDEy
Nl9DSEVOTkFJQ0Ffc2VydmVyMSgwJgYJKoZIhvcNAQkBFhkxMjZfQ0hFTk5BSUNB
QHRlc3RfY2EuY29tMQ8wDQYDVQQKEwZDSVRSSVgwggEiMA0GCSqGSIb3DQEBAQUA
A4IBDwAwggEKAoIBAQCr4+9WwqqcN67B+Ba0bj4xGEjhnTqJpUS1bj2hZ6VfcrBS
FD3YZvuB8s4hVn8q0vV2JfcmCDlFwP0WMbP4fJ9A3Bm+0UfvPg6KMIEzwCcMTkQ+
0uuwGrSjNidYGm2sJncvzpJAphONJgtpKlkxdSiAL5/DqbYnkQcn5BBNEDJ6IWe8
Y0+UYIvUYDHNh+PoW81ihAqMUdbZ0KXic976Y4TrpHVeDooUKi9nRTpTCgcjIYNg
0kKQL7SwtZHCN1sC5bhifKgIzHQpnsKEkjmcVJA6lTdVnSzVmufWMXmHXqzzHswL
avc0NK7C7HbNns77F/M55LM0e6017NWys43Ed7DXAgMBAAGjggEsMIIBKDARBglg
hkgBhvhCAQEEBAMCBkAwHQYDVR0OBBYEFKyech3NtvqWLvUiBThGekFtLZjHMIG1
BgNVHSMEga0wgaqAFL7KU6xliRgCHvZTolASlGDszAX6oYGGpIGDMIGAMRUwEwYD
VQQDFAxDSEVOTkFJQ0FfQ0ExCzAJBgNVBAYTAklOMQ8wDQYDVQQKEwZDSVRSSVgx
DDAKBgNVBAsTA0FORzELMAkGA1UECBMCS0ExLjAsBgkqhkiG9w0BCQEWH0NIRU5O
QUlDQV9DQUBDSEVOTkFJQ0FfbWFpbC5jb22CCQCH+8TUXkZWcDA8BggrBgEFBQcB
AQQwMC4wLAYIKwYBBQUHMAGGIGh0dHA6Ly8xNzIuMTkuMTAuMS9yZXNwb25kZXJw
YXRoMA0GCSqGSIb3DQEBCwUAA4IBAQCizWqqRAX9iBUmump/2oBLiya0k7T3sKDN
BWiB5jdsrt4lhPZ9r3sIV1St6NGcyX6QqLxkM2VJqHkxeDl8NY+JtrZ3hzt2k2yL
9Rghej98cCSukpVAc42iEIyDpDXMOBEXam+/1/NHftrNyBlHtc0ye927QIMTvzUT
1bo+1W7zILeOiTvkidMyLiVHMJtWtOshO4l7jWJ3qPiFGx2wsxHTbIXVNmoAf3cg
bFuhmmmwSa8NX9U1ISjhovfiNCD6KCKlkC1oCkoxt93i2UM3pKkl+bw2/hjwGw48
3xU42k2hpdN3/Z4Wcwy0nC8XNTOwwzU+fZ3/dzJGTurxhmVJG/s/
-----END CERTIFICATE-----
