Certificate:
    Data:
        Version: 3 (0x2)
        Serial Number: 11042563100202 (0xa0b0c0d0e2a)
    Signature Algorithm: sha256WithRSAEncryption
        Issuer: CN=CHENNAICA_CA, C=IN, O=CITRIX, OU=ANG, ST=KA/emailAddress=CHENNAICA_CA@CHENNAICA_mail.com
        Validity
            Not Before: Jul  8 04:33:56 2016 GMT
            Not After : Jul  6 04:33:56 2026 GMT
        Subject: ST=KA, C=IN, CN=128_CHENNAICA_server/emailAddress=128_CHENNAICA@test_ca.com, O=CITRIX
        Subject Public Key Info:
            Public Key Algorithm: rsaEncryption
                Public-Key: (2048 bit)
                Modulus:
                    00:bb:3b:e9:41:dc:86:19:5c:af:e3:5d:ca:5c:78:
                    37:41:b9:91:28:84:48:00:d3:28:18:12:69:d4:ba:
                    e2:5b:5b:ff:5a:80:74:18:62:a7:1b:46:e3:c1:71:
                    e2:8e:ce:9d:77:d8:20:10:5f:16:3e:5f:39:7a:cd:
                    59:88:d1:7e:d9:8d:01:ce:8e:ab:c9:ca:71:3f:57:
                    c6:ea:77:46:2d:eb:f2:a9:de:51:8d:79:2f:b5:58:
                    86:6a:87:8c:36:df:57:24:e1:73:f9:8b:a0:1a:c3:
                    56:8e:fd:b9:5b:be:3f:15:66:31:59:73:7c:7a:58:
                    1b:b6:c5:2b:04:fe:14:88:47:a6:97:3a:dd:79:3a:
                    68:65:21:7e:ee:1d:78:c8:6f:62:00:5c:b6:ec:58:
                    0c:36:4b:3a:c5:8f:8c:65:ce:44:57:03:9c:50:be:
                    58:d7:8e:88:90:89:dd:38:5e:e4:d0:37:f8:6c:c0:
                    86:89:31:27:cf:65:1d:5d:1c:18:8a:ba:a9:42:b3:
                    2d:85:0b:e8:ea:86:b0:42:37:29:be:61:f1:ed:12:
                    f9:6a:7e:73:39:67:c6:9f:60:55:0f:2a:2e:99:ab:
                    ab:71:ef:1e:db:c6:ac:03:03:dd:d7:43:7f:28:c2:
                    90:92:54:42:cf:1d:6f:9b:94:33:49:41:06:a0:0d:
                    67:89
                Exponent: 65537 (0x10001)
        X509v3 extensions:
            Netscape Cert Type: 
                SSL Server
            X509v3 Subject Key Identifier: 
                A8:71:84:E3:B8:FE:CC:ED:FB:2D:0C:BD:59:FF:2E:00:C1:C8:F7:E8
            X509v3 Authority Key Identifier: 
                keyid:BE:CA:53:AC:65:89:18:02:1E:F6:53:A2:50:12:94:60:EC:CC:05:FA
                DirName:/CN=CHENNAICA_CA/C=IN/O=CITRIX/OU=ANG/ST=KA/emailAddress=CHENNAICA_CA@CHENNAICA_mail.com
                serial:87:FB:C4:D4:5E:46:56:70

            Authority Information Access: 
                OCSP - URI:http://172.19.10.1/responderpath

    Signature Algorithm: sha256WithRSAEncryption
         c9:24:53:3a:c5:f1:b1:c1:d4:16:db:6f:b4:ff:c1:2b:12:93:
         e4:e8:d1:64:3e:72:90:4a:cb:6b:f2:a4:84:7f:56:51:63:15:
         5c:d6:63:f0:06:c8:27:c9:73:af:23:59:cb:96:aa:f0:d5:1d:
         e7:e1:50:77:4a:b4:ba:48:e7:c0:45:1c:34:0a:d0:fa:db:16:
         17:32:4f:3e:1f:ed:80:2a:93:fd:15:61:af:2f:aa:16:54:c0:
         06:ea:e2:33:7e:b2:20:cd:c4:b4:51:87:18:f0:fa:9c:8a:7f:
         e3:b2:f0:c3:37:c0:66:1e:8e:af:77:cb:55:f7:58:f9:2b:3c:
         9b:ce:23:18:84:69:30:a1:67:28:96:1d:bb:c8:cf:bf:3b:2b:
         0c:3d:13:60:63:05:bf:a8:76:e6:7d:00:da:c0:b2:fc:a0:f9:
         ed:1f:d7:7b:b6:b1:9f:c1:d6:9a:66:0b:d1:e9:0b:c4:26:9d:
         5d:83:7d:ad:16:13:6f:71:12:db:7b:b0:f7:59:a2:b8:ac:c5:
         32:b6:bd:26:87:44:6f:29:23:ad:63:50:e6:83:e7:80:4b:3c:
         dc:ec:37:12:54:33:e6:c3:5a:81:16:c1:d7:c0:65:3a:4e:6d:
         3e:23:6b:c9:77:91:3c:e2:94:be:ad:30:2c:c7:32:3b:8e:1e:
         31:b3:ec:35
-----BEGIN CERTIFICATE-----
MIIEozCCA4ugAwIBAgIGCgsMDQ4qMA0GCSqGSIb3DQEBCwUAMIGAMRUwEwYDVQQD
FAxDSEVOTkFJQ0FfQ0ExCzAJBgNVBAYTAklOMQ8wDQYDVQQKEwZDSVRSSVgxDDAK
BgNVBAsTA0FORzELMAkGA1UECBMCS0ExLjAsBgkqhkiG9w0BCQEWH0NIRU5OQUlD
QV9DQUBDSEVOTkFJQ0FfbWFpbC5jb20wHhcNMTYwNzA4MDQzMzU2WhcNMjYwNzA2
MDQzMzU2WjB0MQswCQYDVQQIEwJLQTELMAkGA1UEBhMCSU4xHTAbBgNVBAMUFDEy
OF9DSEVOTkFJQ0Ffc2VydmVyMSgwJgYJKoZIhvcNAQkBFhkxMjhfQ0hFTk5BSUNB
QHRlc3RfY2EuY29tMQ8wDQYDVQQKEwZDSVRSSVgwggEiMA0GCSqGSIb3DQEBAQUA
A4IBDwAwggEKAoIBAQC7O+lB3IYZXK/jXcpceDdBuZEohEgA0ygYEmnUuuJbW/9a
gHQYYqcbRuPBceKOzp132CAQXxY+Xzl6zVmI0X7ZjQHOjqvJynE/V8bqd0Yt6/Kp
3lGNeS+1WIZqh4w231ck4XP5i6Aaw1aO/blbvj8VZjFZc3x6WBu2xSsE/hSIR6aX
Ot15OmhlIX7uHXjIb2IAXLbsWAw2SzrFj4xlzkRXA5xQvljXjoiQid04XuTQN/hs
wIaJMSfPZR1dHBiKuqlCsy2FC+jqhrBCNym+YfHtEvlqfnM5Z8afYFUPKi6Zq6tx
7x7bxqwDA93XQ38owpCSVELPHW+blDNJQQagDWeJAgMBAAGjggEsMIIBKDARBglg
hkgBhvhCAQEEBAMCBkAwHQYDVR0OBBYEFKhxhOO4/szt+y0MvVn/LgDByPfoMIG1
BgNVHSMEga0wgaqAFL7KU6xliRgCHvZTolASlGDszAX6oYGGpIGDMIGAMRUwEwYD
VQQDFAxDSEVOTkFJQ0FfQ0ExCzAJBgNVBAYTAklOMQ8wDQYDVQQKEwZDSVRSSVgx
DDAKBgNVBAsTA0FORzELMAkGA1UECBMCS0ExLjAsBgkqhkiG9w0BCQEWH0NIRU5O
QUlDQV9DQUBDSEVOTkFJQ0FfbWFpbC5jb22CCQCH+8TUXkZWcDA8BggrBgEFBQcB
AQQwMC4wLAYIKwYBBQUHMAGGIGh0dHA6Ly8xNzIuMTkuMTAuMS9yZXNwb25kZXJw
YXRoMA0GCSqGSIb3DQEBCwUAA4IBAQDJJFM6xfGxwdQW22+0/8ErEpPk6NFkPnKQ
Sstr8qSEf1ZRYxVc1mPwBsgnyXOvI1nLlqrw1R3n4VB3SrS6SOfARRw0CtD62xYX
Mk8+H+2AKpP9FWGvL6oWVMAG6uIzfrIgzcS0UYcY8Pqcin/jsvDDN8BmHo6vd8tV
91j5KzybziMYhGkwoWcolh27yM+/OysMPRNgYwW/qHbmfQDawLL8oPntH9d7trGf
wdaaZgvR6QvEJp1dg32tFhNvcRLbe7D3WaK4rMUytr0mh0RvKSOtY1Dmg+eASzzc
7DcSVDPmw1qBFsHXwGU6Tm0+I2vJd5E84pS+rTAsxzI7jh4xs+w1
-----END CERTIFICATE-----
