Certificate:
    Data:
        Version: 3 (0x2)
        Serial Number: 11042563100203 (0xa0b0c0d0e2b)
    Signature Algorithm: sha256WithRSAEncryption
        Issuer: CN=CHENNAICA_CA, C=IN, O=CITRIX, OU=ANG, ST=KA/emailAddress=CHENNAICA_CA@CHENNAICA_mail.com
        Validity
            Not Before: Jul  8 04:33:56 2016 GMT
            Not After : Jul  6 04:33:56 2026 GMT
        Subject: ST=KA, C=IN, CN=129_CHENNAICA_server/emailAddress=129_CHENNAICA@test_ca.com, O=CITRIX
        Subject Public Key Info:
            Public Key Algorithm: rsaEncryption
                Public-Key: (2048 bit)
                Modulus:
                    00:b5:4a:ee:df:0a:2a:4a:a2:6c:3b:5a:dd:c2:64:
                    b4:33:f4:bd:60:40:61:a1:d4:35:f4:34:1b:e6:bb:
                    48:d0:b6:56:83:bd:f6:df:e9:2f:63:4a:eb:5d:78:
                    18:9c:11:98:82:ce:65:d5:54:a3:bb:8f:cb:81:ea:
                    33:2d:e1:f2:85:09:1e:5f:92:5b:c1:f1:56:8e:4d:
                    b0:65:e7:30:84:4e:0c:dc:8c:c7:ac:62:9d:25:b2:
                    7a:c2:e6:f7:ce:08:53:b6:06:87:9b:75:16:6f:0e:
                    7a:41:b1:87:cd:8e:59:9f:a1:b7:24:b3:1a:f5:d0:
                    a0:95:91:3b:86:ef:83:f6:45:b2:ae:d0:6f:76:ff:
                    44:b0:37:a0:d0:8d:4e:b3:79:88:40:34:68:fd:75:
                    42:c4:c3:2d:4b:59:c6:d0:87:ee:fe:3c:db:f8:63:
                    b5:d3:64:51:cc:2d:e2:c3:72:9b:25:c0:2b:0f:01:
                    6b:48:67:20:c0:01:a8:28:44:83:f4:dc:a0:b3:d3:
                    50:79:f6:ec:e5:c7:9e:d1:a3:d6:f7:05:a0:61:f9:
                    4f:b5:bc:10:40:f1:6c:94:99:9e:b1:bd:c4:86:db:
                    1a:ae:2b:11:66:93:64:23:4c:b1:98:39:fa:70:a9:
                    ce:3d:3f:7f:88:4a:aa:61:37:5a:39:56:6c:11:eb:
                    9f:6d
                Exponent: 65537 (0x10001)
        X509v3 extensions:
            Netscape Cert Type: 
                SSL Server
            X509v3 Subject Key Identifier: 
                EB:0A:B9:E7:B9:E0:6B:FA:48:7A:31:59:94:79:FE:B7:40:1B:D8:3B
            X509v3 Authority Key Identifier: 
                keyid:BE:CA:53:AC:65:89:18:02:1E:F6:53:A2:50:12:94:60:EC:CC:05:FA
                DirName:/CN=CHENNAICA_CA/C=IN/O=CITRIX/OU=ANG/ST=KA/emailAddress=CHENNAICA_CA@CHENNAICA_mail.com
                serial:87:FB:C4:D4:5E:46:56:70

            Authority Information Access: 
                OCSP - URI:http://172.19.10.1/responderpath

    Signature Algorithm: sha256WithRSAEncryption
         14:29:7f:ef:19:50:1b:2b:a7:a7:61:ad:d2:20:3f:d8:26:4e:
         85:af:0e:f5:cc:3b:82:1c:20:4e:4c:30:d4:de:6a:c6:84:07:
         9b:15:2e:21:51:3a:e2:6c:66:8f:10:a6:c7:b5:19:40:0c:2b:
         39:5e:45:f7:89:31:5f:3f:7f:17:62:67:1e:aa:21:d6:6e:95:
         e9:28:d0:03:53:a0:5c:79:1b:2c:fd:48:2b:d5:1e:bc:76:31:
         95:ae:d2:69:78:49:83:65:3a:3c:d1:9b:31:bf:51:66:fa:5a:
         2d:c7:8a:3f:c2:fe:c7:2e:0c:ef:0f:35:c9:71:30:4f:20:bc:
         bd:c1:11:34:e0:45:f4:08:de:07:08:e8:35:e9:dc:cf:6d:6b:
         e7:2f:20:95:76:75:9c:97:72:3f:ef:72:f5:91:bd:a4:c0:43:
         da:a0:d0:27:7d:5e:4f:2c:17:c5:ec:02:9a:81:40:51:25:5a:
         ef:61:a0:71:4c:59:77:2e:db:9e:ad:a4:9a:75:b1:0b:14:aa:
         b0:2b:0c:79:81:69:95:f3:f9:7b:52:86:5e:d0:1b:07:2e:ef:
         4c:e6:4d:d7:7a:e6:9a:95:52:88:e1:57:06:8f:ed:5a:ca:d1:
         9e:88:cf:19:8a:48:b8:5e:0f:c8:72:1c:e5:cf:b4:58:1d:82:
         89:f7:29:6f
-----BEGIN CERTIFICATE-----
MIIEozCCA4ugAwIBAgIGCgsMDQ4rMA0GCSqGSIb3DQEBCwUAMIGAMRUwEwYDVQQD
FAxDSEVOTkFJQ0FfQ0ExCzAJBgNVBAYTAklOMQ8wDQYDVQQKEwZDSVRSSVgxDDAK
BgNVBAsTA0FORzELMAkGA1UECBMCS0ExLjAsBgkqhkiG9w0BCQEWH0NIRU5OQUlD
QV9DQUBDSEVOTkFJQ0FfbWFpbC5jb20wHhcNMTYwNzA4MDQzMzU2WhcNMjYwNzA2
MDQzMzU2WjB0MQswCQYDVQQIEwJLQTELMAkGA1UEBhMCSU4xHTAbBgNVBAMUFDEy
OV9DSEVOTkFJQ0Ffc2VydmVyMSgwJgYJKoZIhvcNAQkBFhkxMjlfQ0hFTk5BSUNB
QHRlc3RfY2EuY29tMQ8wDQYDVQQKEwZDSVRSSVgwggEiMA0GCSqGSIb3DQEBAQUA
A4IBDwAwggEKAoIBAQC1Su7fCipKomw7Wt3CZLQz9L1gQGGh1DX0NBvmu0jQtlaD
vfbf6S9jSutdeBicEZiCzmXVVKO7j8uB6jMt4fKFCR5fklvB8VaOTbBl5zCETgzc
jMesYp0lsnrC5vfOCFO2BoebdRZvDnpBsYfNjlmfobcksxr10KCVkTuG74P2RbKu
0G92/0SwN6DQjU6zeYhANGj9dULEwy1LWcbQh+7+PNv4Y7XTZFHMLeLDcpslwCsP
AWtIZyDAAagoRIP03KCz01B59uzlx57Ro9b3BaBh+U+1vBBA8WyUmZ6xvcSG2xqu
KxFmk2QjTLGYOfpwqc49P3+ISqphN1o5VmwR659tAgMBAAGjggEsMIIBKDARBglg
hkgBhvhCAQEEBAMCBkAwHQYDVR0OBBYEFOsKuee54Gv6SHoxWZR5/rdAG9g7MIG1
BgNVHSMEga0wgaqAFL7KU6xliRgCHvZTolASlGDszAX6oYGGpIGDMIGAMRUwEwYD
VQQDFAxDSEVOTkFJQ0FfQ0ExCzAJBgNVBAYTAklOMQ8wDQYDVQQKEwZDSVRSSVgx
DDAKBgNVBAsTA0FORzELMAkGA1UECBMCS0ExLjAsBgkqhkiG9w0BCQEWH0NIRU5O
QUlDQV9DQUBDSEVOTkFJQ0FfbWFpbC5jb22CCQCH+8TUXkZWcDA8BggrBgEFBQcB
AQQwMC4wLAYIKwYBBQUHMAGGIGh0dHA6Ly8xNzIuMTkuMTAuMS9yZXNwb25kZXJw
YXRoMA0GCSqGSIb3DQEBCwUAA4IBAQAUKX/vGVAbK6enYa3SID/YJk6Frw71zDuC
HCBOTDDU3mrGhAebFS4hUTribGaPEKbHtRlADCs5XkX3iTFfP38XYmceqiHWbpXp
KNADU6BceRss/Ugr1R68djGVrtJpeEmDZTo80Zsxv1Fm+lotx4o/wv7HLgzvDzXJ
cTBPILy9wRE04EX0CN4HCOg16dzPbWvnLyCVdnWcl3I/73L1kb2kwEPaoNAnfV5P
LBfF7AKagUBRJVrvYaBxTFl3LtueraSadbELFKqwKwx5gWmV8/l7UoZe0BsHLu9M
5k3XeuaalVKI4VcGj+1aytGeiM8Ziki4Xg/Ichzlz7RYHYKJ9ylv
-----END CERTIFICATE-----
