Certificate:
    Data:
        Version: 3 (0x2)
        Serial Number: 11042563100204 (0xa0b0c0d0e2c)
    Signature Algorithm: sha256WithRSAEncryption
        Issuer: CN=CHENNAICA_CA, C=IN, O=CITRIX, OU=ANG, ST=KA/emailAddress=CHENNAICA_CA@CHENNAICA_mail.com
        Validity
            Not Before: Jul  8 04:33:56 2016 GMT
            Not After : Jul  6 04:33:56 2026 GMT
        Subject: ST=KA, C=IN, CN=130_CHENNAICA_server/emailAddress=130_CHENNAICA@test_ca.com, O=CITRIX
        Subject Public Key Info:
            Public Key Algorithm: rsaEncryption
                Public-Key: (2048 bit)
                Modulus:
                    00:b8:a9:70:9f:d9:82:b9:33:8e:19:fe:a3:9e:9a:
                    68:11:0e:d6:4d:a2:4c:14:58:e6:30:c2:70:cc:3d:
                    68:ea:7a:da:aa:3b:7f:8c:75:12:6f:46:94:f9:00:
                    d0:0b:3b:24:4b:54:52:5c:12:e8:3c:74:29:97:66:
                    23:bc:dc:c3:a2:9b:36:ec:13:bd:0c:e7:a6:bd:b5:
                    77:a8:b0:c2:71:b3:1f:47:6a:f7:db:d2:ff:d6:0b:
                    b5:25:18:71:de:67:64:7f:e7:dc:16:e2:96:ce:31:
                    78:e8:fd:58:68:0d:f8:43:14:f9:5e:dc:71:01:4d:
                    47:5b:b7:1b:0e:12:fa:b0:fe:41:86:98:92:db:e0:
                    c1:1a:db:b8:8e:d4:2b:4e:f8:da:a5:3c:ad:34:c1:
                    35:52:3d:36:02:31:00:00:55:f4:0c:b0:6d:88:3d:
                    61:3c:c3:9c:92:3f:47:a7:40:b6:a6:4f:52:93:9a:
                    ce:32:5a:42:71:b0:08:78:23:49:15:2d:b2:40:e2:
                    6d:99:3a:4e:73:96:58:53:79:3e:77:c6:52:2a:94:
                    d9:d0:22:24:0a:5c:17:74:f7:f5:13:9f:b3:fe:c1:
                    00:b6:80:27:52:fb:ae:a2:10:db:c9:07:a9:ef:ef:
                    2b:c6:0d:72:ea:0f:9e:f1:59:55:9a:94:0f:ff:27:
                    a3:6d
                Exponent: 65537 (0x10001)
        X509v3 extensions:
            Netscape Cert Type: 
                SSL Server
            X509v3 Subject Key Identifier: 
                29:F2:2F:88:E7:BC:13:AC:F2:A1:25:F6:7F:C9:9A:AC:3D:03:D9:D6
            X509v3 Authority Key Identifier: 
                keyid:BE:CA:53:AC:65:89:18:02:1E:F6:53:A2:50:12:94:60:EC:CC:05:FA
                DirName:/CN=CHENNAICA_CA/C=IN/O=CITRIX/OU=ANG/ST=KA/emailAddress=CHENNAICA_CA@CHENNAICA_mail.com
                serial:87:FB:C4:D4:5E:46:56:70

            Authority Information Access: 
                OCSP - URI:http://172.19.10.1/responderpath

    Signature Algorithm: sha256WithRSAEncryption
         0c:c5:f7:79:25:4b:34:32:e7:83:d0:3e:33:80:8a:01:ad:e7:
         6f:d9:8a:a9:a3:f4:7e:1b:0d:c1:cd:e5:d9:6b:87:0e:7c:66:
         48:e7:fd:da:6c:08:3d:3b:69:99:2e:24:12:de:01:14:d5:f5:
         57:06:68:ee:e9:9a:da:94:38:34:35:3e:c6:6b:15:d1:ab:e8:
         bd:be:14:fb:9c:16:65:c0:e7:c8:d2:d9:8b:0c:bb:69:db:57:
         02:de:a5:d6:ec:43:01:c1:10:83:8f:c2:14:4c:58:ac:47:74:
         09:f1:0c:3e:02:64:ad:9d:5e:b6:4b:73:40:ce:7f:e8:ca:a3:
         c9:ae:f0:13:ae:4c:83:1b:9f:3a:b2:99:34:4a:1e:b9:ba:86:
         83:a6:73:ac:34:ca:b6:cb:45:2d:38:85:88:9b:33:b3:10:4e:
         5b:2d:dd:d0:ef:01:60:73:c7:79:a9:fb:40:fb:04:c4:66:81:
         11:a1:23:21:1d:55:f0:87:34:ff:c6:54:3e:37:2a:60:56:00:
         18:d5:ec:65:32:c1:a6:bc:11:b0:bb:be:6a:6c:93:a8:6a:49:
         36:95:2f:40:82:8e:35:04:69:c4:38:e4:28:57:5c:27:f7:e8:
         b2:74:8d:ee:b8:75:36:88:8c:98:c0:08:8e:03:86:2e:91:1b:
         9f:f8:ed:a5
-----BEGIN CERTIFICATE-----
MIIEozCCA4ugAwIBAgIGCgsMDQ4sMA0GCSqGSIb3DQEBCwUAMIGAMRUwEwYDVQQD
FAxDSEVOTkFJQ0FfQ0ExCzAJBgNVBAYTAklOMQ8wDQYDVQQKEwZDSVRSSVgxDDAK
BgNVBAsTA0FORzELMAkGA1UECBMCS0ExLjAsBgkqhkiG9w0BCQEWH0NIRU5OQUlD
QV9DQUBDSEVOTkFJQ0FfbWFpbC5jb20wHhcNMTYwNzA4MDQzMzU2WhcNMjYwNzA2
MDQzMzU2WjB0MQswCQYDVQQIEwJLQTELMAkGA1UEBhMCSU4xHTAbBgNVBAMUFDEz
MF9DSEVOTkFJQ0Ffc2VydmVyMSgwJgYJKoZIhvcNAQkBFhkxMzBfQ0hFTk5BSUNB
QHRlc3RfY2EuY29tMQ8wDQYDVQQKEwZDSVRSSVgwggEiMA0GCSqGSIb3DQEBAQUA
A4IBDwAwggEKAoIBAQC4qXCf2YK5M44Z/qOemmgRDtZNokwUWOYwwnDMPWjqetqq
O3+MdRJvRpT5ANALOyRLVFJcEug8dCmXZiO83MOimzbsE70M56a9tXeosMJxsx9H
avfb0v/WC7UlGHHeZ2R/59wW4pbOMXjo/VhoDfhDFPle3HEBTUdbtxsOEvqw/kGG
mJLb4MEa27iO1CtO+NqlPK00wTVSPTYCMQAAVfQMsG2IPWE8w5ySP0enQLamT1KT
ms4yWkJxsAh4I0kVLbJA4m2ZOk5zllhTeT53xlIqlNnQIiQKXBd09/UTn7P+wQC2
gCdS+66iENvJB6nv7yvGDXLqD57xWVWalA//J6NtAgMBAAGjggEsMIIBKDARBglg
hkgBhvhCAQEEBAMCBkAwHQYDVR0OBBYEFCnyL4jnvBOs8qEl9n/Jmqw9A9nWMIG1
BgNVHSMEga0wgaqAFL7KU6xliRgCHvZTolASlGDszAX6oYGGpIGDMIGAMRUwEwYD
VQQDFAxDSEVOTkFJQ0FfQ0ExCzAJBgNVBAYTAklOMQ8wDQYDVQQKEwZDSVRSSVgx
DDAKBgNVBAsTA0FORzELMAkGA1UECBMCS0ExLjAsBgkqhkiG9w0BCQEWH0NIRU5O
QUlDQV9DQUBDSEVOTkFJQ0FfbWFpbC5jb22CCQCH+8TUXkZWcDA8BggrBgEFBQcB
AQQwMC4wLAYIKwYBBQUHMAGGIGh0dHA6Ly8xNzIuMTkuMTAuMS9yZXNwb25kZXJw
YXRoMA0GCSqGSIb3DQEBCwUAA4IBAQAMxfd5JUs0MueD0D4zgIoBredv2Yqpo/R+
Gw3BzeXZa4cOfGZI5/3abAg9O2mZLiQS3gEU1fVXBmju6ZralDg0NT7GaxXRq+i9
vhT7nBZlwOfI0tmLDLtp21cC3qXW7EMBwRCDj8IUTFisR3QJ8Qw+AmStnV62S3NA
zn/oyqPJrvATrkyDG586spk0Sh65uoaDpnOsNMq2y0UtOIWImzOzEE5bLd3Q7wFg
c8d5qftA+wTEZoERoSMhHVXwhzT/xlQ+NypgVgAY1exlMsGmvBGwu75qbJOoakk2
lS9Ago41BGnEOOQoV1wn9+iydI3uuHU2iIyYwAiOA4YukRuf+O2l
-----END CERTIFICATE-----
