Certificate:
    Data:
        Version: 3 (0x2)
        Serial Number: 11042563100208 (0xa0b0c0d0e30)
    Signature Algorithm: sha256WithRSAEncryption
        Issuer: CN=CHENNAICA_CA, C=IN, O=CITRIX, OU=ANG, ST=KA/emailAddress=CHENNAICA_CA@CHENNAICA_mail.com
        Validity
            Not Before: Jul  8 04:33:57 2016 GMT
            Not After : Jul  6 04:33:57 2026 GMT
        Subject: ST=KA, C=IN, CN=134_CHENNAICA_server/emailAddress=134_CHENNAICA@test_ca.com, O=CITRIX
        Subject Public Key Info:
            Public Key Algorithm: rsaEncryption
                Public-Key: (2048 bit)
                Modulus:
                    00:a4:11:f2:39:60:43:96:6f:94:4f:18:e2:57:02:
                    f9:56:61:d6:76:f8:79:6a:ef:89:c8:5e:ac:66:68:
                    10:eb:24:6c:39:82:c2:f9:0a:00:28:e1:80:8f:eb:
                    6f:d9:96:58:5f:82:3e:ec:16:4e:ac:1a:7f:16:2e:
                    b3:d4:6b:19:93:15:c0:e1:3c:20:07:e8:95:77:1b:
                    89:09:74:ab:cb:7d:20:01:36:20:7c:01:b4:4d:a9:
                    fe:39:4f:86:f4:04:00:1f:0d:96:b9:16:fb:12:71:
                    32:c8:c5:f1:52:c2:85:df:35:39:28:65:77:73:6d:
                    4c:5d:29:8d:48:7a:17:41:b1:7c:05:a9:dd:f0:cf:
                    5a:55:f7:34:6b:78:fd:7a:e4:75:b3:fb:c8:7d:b9:
                    0d:be:54:7a:66:5e:7d:5f:f7:c2:3e:53:22:f4:09:
                    49:d0:8c:ce:de:be:e8:25:32:1a:32:d3:c6:b3:89:
                    a1:94:2a:c9:7e:ec:d7:ef:10:67:5a:1f:00:b1:85:
                    61:27:9e:2c:5b:16:8b:61:46:58:72:28:cc:48:26:
                    7f:bc:58:a8:57:f6:77:b7:f6:66:f7:14:85:11:4e:
                    6f:49:9b:90:40:03:06:9b:f3:90:a2:ec:8b:f4:30:
                    c0:b1:8c:44:93:88:7b:23:92:8f:96:df:98:87:d5:
                    0c:d7
                Exponent: 65537 (0x10001)
        X509v3 extensions:
            Netscape Cert Type: 
                SSL Server
            X509v3 Subject Key Identifier: 
                8A:65:95:33:ED:65:02:4F:BF:B3:59:B2:CA:1F:4F:96:53:6E:9C:AB
            X509v3 Authority Key Identifier: 
                keyid:BE:CA:53:AC:65:89:18:02:1E:F6:53:A2:50:12:94:60:EC:CC:05:FA
                DirName:/CN=CHENNAICA_CA/C=IN/O=CITRIX/OU=ANG/ST=KA/emailAddress=CHENNAICA_CA@CHENNAICA_mail.com
                serial:87:FB:C4:D4:5E:46:56:70

            Authority Information Access: 
                OCSP - URI:http://172.19.20.1/responderpath

    Signature Algorithm: sha256WithRSAEncryption
         2e:2e:d8:47:d9:98:ba:fb:8a:2d:88:90:5c:ca:7c:bf:e6:ae:
         42:ea:32:18:f6:ce:3b:67:59:8a:d2:fe:3b:38:2a:6e:ab:5c:
         42:bc:d1:16:0c:84:8d:4a:9c:e2:c3:32:bf:4a:9b:59:04:0f:
         69:27:22:b4:25:6f:82:fd:b0:8a:3d:e8:cc:45:af:f2:8d:d4:
         26:96:26:d3:4d:04:19:59:2b:4e:55:5e:74:25:d5:78:1c:8d:
         cc:e8:b5:74:bd:21:66:5d:03:7d:78:a1:8d:4d:96:6c:81:3a:
         c7:76:06:94:2a:c3:e3:1c:55:cd:e2:af:59:31:56:4e:64:f4:
         6c:b2:5c:88:2d:7f:30:fa:b2:20:b8:e5:95:96:42:55:0f:ec:
         15:79:6d:29:ac:8c:1f:7e:b5:ec:88:db:33:d8:9e:7f:72:86:
         5d:8a:7b:b6:f2:ab:db:8f:3a:81:27:d0:8d:c3:cf:7e:fc:ce:
         03:90:4c:02:e1:2f:fc:9b:d6:8d:8e:ef:b5:29:71:46:87:ff:
         ef:5d:92:d8:5f:e3:fa:53:17:1e:22:d4:ad:89:60:94:83:73:
         03:e7:c0:a6:6f:bf:83:9b:6f:c4:f7:a8:f9:30:f1:26:08:7b:
         76:cd:c2:6a:31:6e:d5:06:a2:7d:80:c1:ea:a6:5a:66:32:52:
         0c:7a:8a:4d
-----BEGIN CERTIFICATE-----
MIIEozCCA4ugAwIBAgIGCgsMDQ4wMA0GCSqGSIb3DQEBCwUAMIGAMRUwEwYDVQQD
FAxDSEVOTkFJQ0FfQ0ExCzAJBgNVBAYTAklOMQ8wDQYDVQQKEwZDSVRSSVgxDDAK
BgNVBAsTA0FORzELMAkGA1UECBMCS0ExLjAsBgkqhkiG9w0BCQEWH0NIRU5OQUlD
QV9DQUBDSEVOTkFJQ0FfbWFpbC5jb20wHhcNMTYwNzA4MDQzMzU3WhcNMjYwNzA2
MDQzMzU3WjB0MQswCQYDVQQIEwJLQTELMAkGA1UEBhMCSU4xHTAbBgNVBAMUFDEz
NF9DSEVOTkFJQ0Ffc2VydmVyMSgwJgYJKoZIhvcNAQkBFhkxMzRfQ0hFTk5BSUNB
QHRlc3RfY2EuY29tMQ8wDQYDVQQKEwZDSVRSSVgwggEiMA0GCSqGSIb3DQEBAQUA
A4IBDwAwggEKAoIBAQCkEfI5YEOWb5RPGOJXAvlWYdZ2+Hlq74nIXqxmaBDrJGw5
gsL5CgAo4YCP62/Zllhfgj7sFk6sGn8WLrPUaxmTFcDhPCAH6JV3G4kJdKvLfSAB
NiB8AbRNqf45T4b0BAAfDZa5FvsScTLIxfFSwoXfNTkoZXdzbUxdKY1IehdBsXwF
qd3wz1pV9zRreP165HWz+8h9uQ2+VHpmXn1f98I+UyL0CUnQjM7evuglMhoy08az
iaGUKsl+7NfvEGdaHwCxhWEnnixbFothRlhyKMxIJn+8WKhX9ne39mb3FIURTm9J
m5BAAwab85Ci7Iv0MMCxjESTiHsjko+W35iH1QzXAgMBAAGjggEsMIIBKDARBglg
hkgBhvhCAQEEBAMCBkAwHQYDVR0OBBYEFIpllTPtZQJPv7NZssofT5ZTbpyrMIG1
BgNVHSMEga0wgaqAFL7KU6xliRgCHvZTolASlGDszAX6oYGGpIGDMIGAMRUwEwYD
VQQDFAxDSEVOTkFJQ0FfQ0ExCzAJBgNVBAYTAklOMQ8wDQYDVQQKEwZDSVRSSVgx
DDAKBgNVBAsTA0FORzELMAkGA1UECBMCS0ExLjAsBgkqhkiG9w0BCQEWH0NIRU5O
QUlDQV9DQUBDSEVOTkFJQ0FfbWFpbC5jb22CCQCH+8TUXkZWcDA8BggrBgEFBQcB
AQQwMC4wLAYIKwYBBQUHMAGGIGh0dHA6Ly8xNzIuMTkuMjAuMS9yZXNwb25kZXJw
YXRoMA0GCSqGSIb3DQEBCwUAA4IBAQAuLthH2Zi6+4otiJBcyny/5q5C6jIY9s47
Z1mK0v47OCpuq1xCvNEWDISNSpziwzK/SptZBA9pJyK0JW+C/bCKPejMRa/yjdQm
libTTQQZWStOVV50JdV4HI3M6LV0vSFmXQN9eKGNTZZsgTrHdgaUKsPjHFXN4q9Z
MVZOZPRsslyILX8w+rIguOWVlkJVD+wVeW0prIwffrXsiNsz2J5/coZdinu28qvb
jzqBJ9CNw89+/M4DkEwC4S/8m9aNju+1KXFGh//vXZLYX+P6UxceItStiWCUg3MD
58Cmb7+Dm2/E96j5MPEmCHt2zcJqMW7VBqJ9gMHqplpmMlIMeopN
-----END CERTIFICATE-----
