Certificate:
    Data:
        Version: 3 (0x2)
        Serial Number: 11042563100213 (0xa0b0c0d0e35)
    Signature Algorithm: sha256WithRSAEncryption
        Issuer: CN=CHENNAICA_CA, C=IN, O=CITRIX, OU=ANG, ST=KA/emailAddress=CHENNAICA_CA@CHENNAICA_mail.com
        Validity
            Not Before: Jul  8 04:33:58 2016 GMT
            Not After : Jul  6 04:33:58 2026 GMT
        Subject: ST=KA, C=IN, CN=139_CHENNAICA_server/emailAddress=139_CHENNAICA@test_ca.com, O=CITRIX
        Subject Public Key Info:
            Public Key Algorithm: rsaEncryption
                Public-Key: (2048 bit)
                Modulus:
                    00:d8:04:e9:55:21:14:ad:e9:42:e4:44:d1:25:2a:
                    38:8c:a4:a1:fd:56:87:75:18:35:94:e1:a9:68:fd:
                    96:d5:6e:7a:4a:b6:6c:29:8c:73:0b:d0:0c:4c:df:
                    34:c0:95:03:85:9c:32:b5:48:e6:c6:d0:c1:7e:b3:
                    62:14:54:ca:35:ff:21:90:27:95:f5:41:42:36:bf:
                    12:5f:b0:8c:fc:6b:50:79:17:2c:16:3a:cf:a7:38:
                    9b:38:f0:71:5f:8d:c8:34:22:2e:c6:9e:b5:b6:21:
                    c4:c3:7d:17:da:23:a6:c9:fe:6a:4e:e2:93:8d:a4:
                    33:ea:9f:fa:e2:4e:e6:e0:72:c0:b0:9c:2d:d4:fa:
                    9d:18:1f:d1:1f:52:53:66:8b:70:a5:10:67:bd:a4:
                    75:bc:bb:6d:49:e7:41:c1:b5:6b:71:a0:52:25:a6:
                    87:82:20:93:20:21:5c:90:18:8e:6b:0a:45:bf:cd:
                    e1:54:fc:84:fe:d9:e3:20:d5:3a:98:15:40:24:8c:
                    47:cf:d2:28:e9:b7:89:2c:22:1e:57:29:5e:51:90:
                    a9:dc:99:2b:5e:06:4a:df:1c:c7:46:79:96:eb:e6:
                    3b:f2:00:cb:99:60:a6:cf:5d:ee:b5:44:36:4c:f9:
                    d1:a6:8e:09:54:33:b0:aa:40:a5:ec:07:95:8e:3f:
                    5e:5b
                Exponent: 65537 (0x10001)
        X509v3 extensions:
            Netscape Cert Type: 
                SSL Server
            X509v3 Subject Key Identifier: 
                78:E5:95:30:DE:67:3A:F4:3E:1C:6D:AF:DA:78:E7:FB:CF:50:13:D7
            X509v3 Authority Key Identifier: 
                keyid:BE:CA:53:AC:65:89:18:02:1E:F6:53:A2:50:12:94:60:EC:CC:05:FA
                DirName:/CN=CHENNAICA_CA/C=IN/O=CITRIX/OU=ANG/ST=KA/emailAddress=CHENNAICA_CA@CHENNAICA_mail.com
                serial:87:FB:C4:D4:5E:46:56:70

            Authority Information Access: 
                OCSP - URI:http://172.19.20.1/responderpath

    Signature Algorithm: sha256WithRSAEncryption
         a6:95:12:07:a3:cb:0a:40:78:2a:70:19:47:7e:4a:33:59:43:
         d6:34:72:36:2f:d3:5e:dc:d6:a7:82:50:9e:8c:34:9a:55:27:
         5d:9f:e2:8f:09:12:47:65:bd:f2:fb:0c:3d:f9:c9:1b:a5:3a:
         94:b5:b0:86:af:cd:34:38:7d:78:51:3b:78:46:b2:8a:a5:5d:
         d8:a6:65:27:5e:aa:80:a0:d6:1d:55:99:16:5a:70:56:71:06:
         54:49:b5:4c:a9:42:08:bf:94:68:7a:c1:fb:b9:c9:21:3d:8b:
         7f:94:77:0c:b1:cb:1d:4f:73:3a:1b:3e:82:aa:d8:46:ac:13:
         eb:98:af:f4:6d:3e:02:63:d5:22:53:ac:d0:cd:be:e9:3a:58:
         3a:81:bd:32:e6:de:cf:6a:f3:00:b1:7f:45:84:3f:a4:ab:38:
         1e:ee:86:26:24:66:00:5e:34:06:54:da:8c:be:4b:ae:c0:45:
         37:4f:c5:ec:7b:1e:59:e8:7e:23:e2:66:39:4e:47:f0:f3:3d:
         90:a1:d1:30:19:5d:33:17:60:c1:8f:54:99:d5:58:8c:a3:73:
         d3:23:e6:22:a9:26:68:f3:40:4a:4d:7e:0d:a2:2d:c2:f8:ee:
         ef:52:0f:71:24:15:62:c4:63:cb:7a:98:19:d2:cc:0b:17:e1:
         0e:6d:23:5c
-----BEGIN CERTIFICATE-----
MIIEozCCA4ugAwIBAgIGCgsMDQ41MA0GCSqGSIb3DQEBCwUAMIGAMRUwEwYDVQQD
FAxDSEVOTkFJQ0FfQ0ExCzAJBgNVBAYTAklOMQ8wDQYDVQQKEwZDSVRSSVgxDDAK
BgNVBAsTA0FORzELMAkGA1UECBMCS0ExLjAsBgkqhkiG9w0BCQEWH0NIRU5OQUlD
QV9DQUBDSEVOTkFJQ0FfbWFpbC5jb20wHhcNMTYwNzA4MDQzMzU4WhcNMjYwNzA2
MDQzMzU4WjB0MQswCQYDVQQIEwJLQTELMAkGA1UEBhMCSU4xHTAbBgNVBAMUFDEz
OV9DSEVOTkFJQ0Ffc2VydmVyMSgwJgYJKoZIhvcNAQkBFhkxMzlfQ0hFTk5BSUNB
QHRlc3RfY2EuY29tMQ8wDQYDVQQKEwZDSVRSSVgwggEiMA0GCSqGSIb3DQEBAQUA
A4IBDwAwggEKAoIBAQDYBOlVIRSt6ULkRNElKjiMpKH9Vod1GDWU4alo/ZbVbnpK
tmwpjHML0AxM3zTAlQOFnDK1SObG0MF+s2IUVMo1/yGQJ5X1QUI2vxJfsIz8a1B5
FywWOs+nOJs48HFfjcg0Ii7GnrW2IcTDfRfaI6bJ/mpO4pONpDPqn/riTubgcsCw
nC3U+p0YH9EfUlNmi3ClEGe9pHW8u21J50HBtWtxoFIlpoeCIJMgIVyQGI5rCkW/
zeFU/IT+2eMg1TqYFUAkjEfP0ijpt4ksIh5XKV5RkKncmSteBkrfHMdGeZbr5jvy
AMuZYKbPXe61RDZM+dGmjglUM7CqQKXsB5WOP15bAgMBAAGjggEsMIIBKDARBglg
hkgBhvhCAQEEBAMCBkAwHQYDVR0OBBYEFHjllTDeZzr0Phxtr9p45/vPUBPXMIG1
BgNVHSMEga0wgaqAFL7KU6xliRgCHvZTolASlGDszAX6oYGGpIGDMIGAMRUwEwYD
VQQDFAxDSEVOTkFJQ0FfQ0ExCzAJBgNVBAYTAklOMQ8wDQYDVQQKEwZDSVRSSVgx
DDAKBgNVBAsTA0FORzELMAkGA1UECBMCS0ExLjAsBgkqhkiG9w0BCQEWH0NIRU5O
QUlDQV9DQUBDSEVOTkFJQ0FfbWFpbC5jb22CCQCH+8TUXkZWcDA8BggrBgEFBQcB
AQQwMC4wLAYIKwYBBQUHMAGGIGh0dHA6Ly8xNzIuMTkuMjAuMS9yZXNwb25kZXJw
YXRoMA0GCSqGSIb3DQEBCwUAA4IBAQCmlRIHo8sKQHgqcBlHfkozWUPWNHI2L9Ne
3NanglCejDSaVSddn+KPCRJHZb3y+ww9+ckbpTqUtbCGr800OH14UTt4RrKKpV3Y
pmUnXqqAoNYdVZkWWnBWcQZUSbVMqUIIv5RoesH7uckhPYt/lHcMscsdT3M6Gz6C
qthGrBPrmK/0bT4CY9UiU6zQzb7pOlg6gb0y5t7PavMAsX9FhD+kqzge7oYmJGYA
XjQGVNqMvkuuwEU3T8Xsex5Z6H4j4mY5Tkfw8z2QodEwGV0zF2DBj1SZ1ViMo3PT
I+YiqSZo80BKTX4Noi3C+O7vUg9xJBVixGPLepgZ0swLF+EObSNc
-----END CERTIFICATE-----
