Certificate:
    Data:
        Version: 3 (0x2)
        Serial Number: 11042563100184 (0xa0b0c0d0e18)
    Signature Algorithm: sha256WithRSAEncryption
        Issuer: CN=RANCHICA_CA, C=IN, O=CITRIX, OU=ANG, ST=KA/emailAddress=RANCHICA_CA@RANCHICA_mail.com
        Validity
            Not Before: Jul  8 04:38:50 2016 GMT
            Not After : Jul  6 04:38:50 2026 GMT
        Subject: ST=KA, C=IN, CN=110_RANCHICA_server/emailAddress=110_RANCHICA@test_ca.com, O=CITRIX
        Subject Public Key Info:
            Public Key Algorithm: rsaEncryption
                Public-Key: (2048 bit)
                Modulus:
                    00:ca:6b:01:b3:b5:28:68:e9:e6:07:b6:03:92:ae:
                    6e:6f:56:6d:e3:84:7d:06:1a:dd:ed:64:bc:92:37:
                    94:87:3d:31:b4:fd:97:30:38:87:dd:b7:f6:a3:d2:
                    fb:49:40:7b:c1:26:ca:b1:88:b3:d0:bb:c1:78:22:
                    b5:3a:3f:1b:ca:1c:3c:6d:39:c5:94:74:ca:3b:af:
                    73:94:4d:e3:1d:ed:ee:3d:dc:f6:f9:36:51:92:61:
                    2b:bf:43:c9:8f:ae:ea:f1:15:91:06:eb:99:a0:bf:
                    a4:37:2e:00:de:0a:40:17:57:da:d2:73:08:02:d7:
                    e8:fe:fb:5c:95:7f:3b:8d:60:02:d3:f0:39:ac:86:
                    bb:32:9c:7b:26:92:13:1a:01:b5:6c:8b:fb:f6:a2:
                    ec:97:c4:69:4f:4d:4e:73:5e:0d:c1:a8:c0:d2:88:
                    d8:05:f4:56:32:45:60:84:0e:b0:42:a1:fa:13:0f:
                    bb:94:f5:d9:63:ad:41:58:b0:0b:1d:7b:51:14:c7:
                    5d:ce:8a:bf:13:df:c0:b8:25:b3:6f:d4:b8:60:6d:
                    27:84:15:86:88:8e:c5:be:7b:38:f9:96:df:8d:cb:
                    9c:a0:3f:0f:ed:6a:14:61:5f:be:32:56:63:73:be:
                    03:de:09:3c:09:52:15:7a:68:74:8d:3c:e4:26:da:
                    46:83
                Exponent: 65537 (0x10001)
        X509v3 extensions:
            Netscape Cert Type: 
                SSL Server
            X509v3 Subject Key Identifier: 
                25:F0:5C:F4:87:6E:55:EF:81:53:5A:D0:C3:36:CC:59:1F:B3:32:93
            X509v3 Authority Key Identifier: 
                keyid:A7:10:6F:5D:0C:9F:9C:A2:F4:39:92:A3:7D:5C:B8:C0:25:71:BF:39
                DirName:/CN=RANCHICA_CA/C=IN/O=CITRIX/OU=ANG/ST=KA/emailAddress=RANCHICA_CA@RANCHICA_mail.com
                serial:E7:09:A4:3D:1C:C7:45:B1

            Authority Information Access: 
                OCSP - URI:http://RANCHICA_one.ocsptest.com/responderpath

    Signature Algorithm: sha256WithRSAEncryption
         8c:d3:cb:be:fa:6f:18:03:43:8d:c9:d9:a3:79:9e:bd:e3:23:
         d9:c0:a5:cc:b4:6f:95:53:e5:22:8c:27:5a:17:c4:fc:5f:23:
         f6:63:7d:25:89:86:b4:43:cd:83:57:58:46:01:44:5a:54:26:
         4b:fb:fd:ac:3e:f2:00:43:34:06:a2:d8:b1:0a:07:cd:bf:07:
         ad:31:f6:c9:b2:26:c7:0b:67:eb:ff:85:03:6a:f4:7d:88:04:
         45:b5:e2:c3:87:9e:5e:b7:16:33:c4:49:fc:76:b1:72:58:71:
         56:91:97:46:60:94:d6:10:6e:ce:7b:26:db:b6:30:15:9d:24:
         ad:04:f3:a0:47:b1:5a:05:b7:46:61:99:a5:7c:d1:9d:14:09:
         bb:57:1f:9b:ce:05:0a:f3:3f:01:f8:5a:d6:7d:e5:5f:7a:47:
         1c:4e:a8:9b:e8:9d:11:04:48:88:ba:6d:30:6a:e8:86:cf:67:
         ee:a7:b1:16:00:63:66:e4:ac:38:06:4a:6f:49:5d:7e:88:94:
         a1:0b:8a:11:91:8b:4b:87:f0:7d:4e:cb:eb:cb:e6:2c:88:81:
         e4:3a:5c:fd:97:e2:51:c3:15:df:35:26:e7:bf:50:26:13:dc:
         06:53:ba:43:30:73:e4:26:68:b5:46:09:3b:8b:20:e7:4a:1e:
         78:aa:15:ee
-----BEGIN CERTIFICATE-----
MIIEpjCCA46gAwIBAgIGCgsMDQ4YMA0GCSqGSIb3DQEBCwUAMH0xFDASBgNVBAMU
C1JBTkNISUNBX0NBMQswCQYDVQQGEwJJTjEPMA0GA1UEChMGQ0lUUklYMQwwCgYD
VQQLEwNBTkcxCzAJBgNVBAgTAktBMSwwKgYJKoZIhvcNAQkBFh1SQU5DSElDQV9D
QUBSQU5DSElDQV9tYWlsLmNvbTAeFw0xNjA3MDgwNDM4NTBaFw0yNjA3MDYwNDM4
NTBaMHIxCzAJBgNVBAgTAktBMQswCQYDVQQGEwJJTjEcMBoGA1UEAxQTMTEwX1JB
TkNISUNBX3NlcnZlcjEnMCUGCSqGSIb3DQEJARYYMTEwX1JBTkNISUNBQHRlc3Rf
Y2EuY29tMQ8wDQYDVQQKEwZDSVRSSVgwggEiMA0GCSqGSIb3DQEBAQUAA4IBDwAw
ggEKAoIBAQDKawGztSho6eYHtgOSrm5vVm3jhH0GGt3tZLySN5SHPTG0/ZcwOIfd
t/aj0vtJQHvBJsqxiLPQu8F4IrU6PxvKHDxtOcWUdMo7r3OUTeMd7e493Pb5NlGS
YSu/Q8mPrurxFZEG65mgv6Q3LgDeCkAXV9rScwgC1+j++1yVfzuNYALT8Dmshrsy
nHsmkhMaAbVsi/v2ouyXxGlPTU5zXg3BqMDSiNgF9FYyRWCEDrBCofoTD7uU9dlj
rUFYsAsde1EUx13Oir8T38C4JbNv1LhgbSeEFYaIjsW+ezj5lt+Ny5ygPw/tahRh
X74yVmNzvgPeCTwJUhV6aHSNPOQm2kaDAgMBAAGjggE1MIIBMTARBglghkgBhvhC
AQEEBAMCBkAwHQYDVR0OBBYEFCXwXPSHblXvgVNa0MM2zFkfszKTMIGwBgNVHSME
gagwgaWAFKcQb10Mn5yi9DmSo31cuMAlcb85oYGBpH8wfTEUMBIGA1UEAxQLUkFO
Q0hJQ0FfQ0ExCzAJBgNVBAYTAklOMQ8wDQYDVQQKEwZDSVRSSVgxDDAKBgNVBAsT
A0FORzELMAkGA1UECBMCS0ExLDAqBgkqhkiG9w0BCQEWHVJBTkNISUNBX0NBQFJB
TkNISUNBX21haWwuY29tggkA5wmkPRzHRbEwSgYIKwYBBQUHAQEEPjA8MDoGCCsG
AQUFBzABhi5odHRwOi8vUkFOQ0hJQ0Ffb25lLm9jc3B0ZXN0LmNvbS9yZXNwb25k
ZXJwYXRoMA0GCSqGSIb3DQEBCwUAA4IBAQCM08u++m8YA0ONydmjeZ694yPZwKXM
tG+VU+UijCdaF8T8XyP2Y30liYa0Q82DV1hGAURaVCZL+/2sPvIAQzQGotixCgfN
vwetMfbJsibHC2fr/4UDavR9iARFteLDh55etxYzxEn8drFyWHFWkZdGYJTWEG7O
eybbtjAVnSStBPOgR7FaBbdGYZmlfNGdFAm7Vx+bzgUK8z8B+FrWfeVfekccTqib
6J0RBEiIum0wauiGz2fup7EWAGNm5Kw4BkpvSV1+iJShC4oRkYtLh/B9Tsvry+Ys
iIHkOlz9l+JRwxXfNSbnv1AmE9wGU7pDMHPkJmi1Rgk7iyDnSh54qhXu
-----END CERTIFICATE-----
