Certificate:
    Data:
        Version: 3 (0x2)
        Serial Number: 11042563100204 (0xa0b0c0d0e2c)
    Signature Algorithm: sha256WithRSAEncryption
        Issuer: CN=RANCHICA_CA, C=IN, O=CITRIX, OU=ANG, ST=KA/emailAddress=RANCHICA_CA@RANCHICA_mail.com
        Validity
            Not Before: Jul  8 04:38:55 2016 GMT
            Not After : Jul  6 04:38:55 2026 GMT
        Subject: ST=KA, C=IN, CN=130_RANCHICA_server/emailAddress=130_RANCHICA@test_ca.com, O=CITRIX
        Subject Public Key Info:
            Public Key Algorithm: rsaEncryption
                Public-Key: (2048 bit)
                Modulus:
                    00:d9:7c:35:ce:a9:1e:56:b4:46:c4:94:83:f1:06:
                    c9:28:9e:f1:ae:6d:c0:ab:84:68:6a:42:98:2c:df:
                    76:5e:03:21:bc:f8:ca:c1:36:d1:4c:54:8c:13:7f:
                    90:8f:a7:a8:7a:91:cf:ec:5a:e5:1a:cc:ee:06:ae:
                    41:b3:db:70:6e:f0:71:22:5a:16:6a:1a:9b:a7:2f:
                    fe:44:5c:31:26:61:1f:6d:06:63:6d:f6:38:90:7e:
                    28:64:c6:e1:e0:09:58:58:b9:0e:11:19:17:13:5d:
                    8a:ee:59:2e:90:dd:18:4e:c0:71:84:e2:a6:1b:c9:
                    d5:d1:94:1b:01:f7:1a:91:7a:d9:5c:ed:1d:01:43:
                    26:b4:38:3a:d3:3e:b7:a6:95:69:b1:bb:b5:50:d0:
                    05:60:e8:af:9f:d7:87:7a:dc:82:49:aa:95:fa:4e:
                    d2:57:e7:68:4f:5f:67:d5:93:0b:0d:9c:89:5b:63:
                    8d:f0:ea:41:2f:90:56:7a:c0:c8:cb:13:23:68:cf:
                    42:70:cd:d9:3a:e2:75:ce:14:85:92:fd:80:28:b6:
                    bd:07:c7:8b:c3:36:84:f2:7b:82:16:51:06:ca:ac:
                    ca:44:ea:db:c1:e9:fe:10:61:92:9a:bc:92:ea:ef:
                    ec:ff:13:72:64:54:5d:47:cf:40:01:f1:59:83:84:
                    94:97
                Exponent: 65537 (0x10001)
        X509v3 extensions:
            Netscape Cert Type: 
                SSL Server
            X509v3 Subject Key Identifier: 
                E2:AB:64:97:4E:22:B5:34:1C:5C:E1:48:A0:64:80:FA:4F:19:EF:BB
            X509v3 Authority Key Identifier: 
                keyid:A7:10:6F:5D:0C:9F:9C:A2:F4:39:92:A3:7D:5C:B8:C0:25:71:BF:39
                DirName:/CN=RANCHICA_CA/C=IN/O=CITRIX/OU=ANG/ST=KA/emailAddress=RANCHICA_CA@RANCHICA_mail.com
                serial:E7:09:A4:3D:1C:C7:45:B1

            Authority Information Access: 
                OCSP - URI:http://172.27.10.1/responderpath

    Signature Algorithm: sha256WithRSAEncryption
         6c:18:25:0b:c4:ea:f3:78:ff:08:e6:d4:28:a1:52:da:79:e7:
         c5:07:36:c3:31:49:a7:d4:81:2d:df:8d:f1:57:4a:0c:55:ca:
         76:55:62:23:9b:d2:19:03:8d:42:5f:93:13:58:af:1e:15:47:
         68:1e:d9:56:ce:3b:2e:6c:ac:7c:97:61:e6:dd:c5:e4:91:d5:
         0c:99:06:fe:ef:10:7d:5c:a1:f3:28:63:f6:95:01:9d:27:f9:
         d8:d6:26:43:a3:92:1a:0a:d5:68:c4:a0:cd:8c:74:78:a5:a9:
         eb:3b:e0:4c:d1:83:9a:cf:2c:f0:bd:ee:ea:b7:dd:5d:40:42:
         ab:7c:9e:46:91:4e:9e:40:ed:d0:11:6a:a9:0d:c9:04:82:1b:
         49:4f:33:12:ba:da:1a:87:a3:bb:2a:7b:03:19:bb:1d:69:14:
         5d:8f:1f:ec:31:da:7b:c2:67:e8:64:e2:1f:2c:ed:1a:41:74:
         aa:09:15:cb:ce:f2:fb:31:c3:33:40:ef:c2:c4:52:e0:d9:3d:
         9b:d2:32:8a:54:b4:2b:11:b5:3c:31:62:46:b3:44:31:d2:da:
         6e:3a:04:83:cf:50:33:5f:91:41:46:2c:e1:e9:a0:60:42:99:
         ef:ee:9e:7e:f4:ad:c5:3c:8e:72:b0:88:8c:18:ed:c3:33:65:
         ea:63:7a:cf
-----BEGIN CERTIFICATE-----
MIIEmDCCA4CgAwIBAgIGCgsMDQ4sMA0GCSqGSIb3DQEBCwUAMH0xFDASBgNVBAMU
C1JBTkNISUNBX0NBMQswCQYDVQQGEwJJTjEPMA0GA1UEChMGQ0lUUklYMQwwCgYD
VQQLEwNBTkcxCzAJBgNVBAgTAktBMSwwKgYJKoZIhvcNAQkBFh1SQU5DSElDQV9D
QUBSQU5DSElDQV9tYWlsLmNvbTAeFw0xNjA3MDgwNDM4NTVaFw0yNjA3MDYwNDM4
NTVaMHIxCzAJBgNVBAgTAktBMQswCQYDVQQGEwJJTjEcMBoGA1UEAxQTMTMwX1JB
TkNISUNBX3NlcnZlcjEnMCUGCSqGSIb3DQEJARYYMTMwX1JBTkNISUNBQHRlc3Rf
Y2EuY29tMQ8wDQYDVQQKEwZDSVRSSVgwggEiMA0GCSqGSIb3DQEBAQUAA4IBDwAw
ggEKAoIBAQDZfDXOqR5WtEbElIPxBskonvGubcCrhGhqQpgs33ZeAyG8+MrBNtFM
VIwTf5CPp6h6kc/sWuUazO4GrkGz23Bu8HEiWhZqGpunL/5EXDEmYR9tBmNt9jiQ
fihkxuHgCVhYuQ4RGRcTXYruWS6Q3RhOwHGE4qYbydXRlBsB9xqRetlc7R0BQya0
ODrTPremlWmxu7VQ0AVg6K+f14d63IJJqpX6TtJX52hPX2fVkwsNnIlbY43w6kEv
kFZ6wMjLEyNoz0Jwzdk64nXOFIWS/YAotr0Hx4vDNoTye4IWUQbKrMpE6tvB6f4Q
YZKavJLq7+z/E3JkVF1Hz0AB8VmDhJSXAgMBAAGjggEnMIIBIzARBglghkgBhvhC
AQEEBAMCBkAwHQYDVR0OBBYEFOKrZJdOIrU0HFzhSKBkgPpPGe+7MIGwBgNVHSME
gagwgaWAFKcQb10Mn5yi9DmSo31cuMAlcb85oYGBpH8wfTEUMBIGA1UEAxQLUkFO
Q0hJQ0FfQ0ExCzAJBgNVBAYTAklOMQ8wDQYDVQQKEwZDSVRSSVgxDDAKBgNVBAsT
A0FORzELMAkGA1UECBMCS0ExLDAqBgkqhkiG9w0BCQEWHVJBTkNISUNBX0NBQFJB
TkNISUNBX21haWwuY29tggkA5wmkPRzHRbEwPAYIKwYBBQUHAQEEMDAuMCwGCCsG
AQUFBzABhiBodHRwOi8vMTcyLjI3LjEwLjEvcmVzcG9uZGVycGF0aDANBgkqhkiG
9w0BAQsFAAOCAQEAbBglC8Tq83j/CObUKKFS2nnnxQc2wzFJp9SBLd+N8VdKDFXK
dlViI5vSGQONQl+TE1ivHhVHaB7ZVs47LmysfJdh5t3F5JHVDJkG/u8QfVyh8yhj
9pUBnSf52NYmQ6OSGgrVaMSgzYx0eKWp6zvgTNGDms8s8L3u6rfdXUBCq3yeRpFO
nkDt0BFqqQ3JBIIbSU8zErraGoejuyp7Axm7HWkUXY8f7DHae8Jn6GTiHyztGkF0
qgkVy87y+zHDM0DvwsRS4Nk9m9IyilS0KxG1PDFiRrNEMdLabjoEg89QM1+RQUYs
4emgYEKZ7+6efvStxTyOcrCIjBjtwzNl6mN6zw==
-----END CERTIFICATE-----
