Certificate:
    Data:
        Version: 3 (0x2)
        Serial Number: 11042563100206 (0xa0b0c0d0e2e)
    Signature Algorithm: sha256WithRSAEncryption
        Issuer: CN=RANCHICA_CA, C=IN, O=CITRIX, OU=ANG, ST=KA/emailAddress=RANCHICA_CA@RANCHICA_mail.com
        Validity
            Not Before: Jul  8 04:38:55 2016 GMT
            Not After : Jul  6 04:38:55 2026 GMT
        Subject: ST=KA, C=IN, CN=132_RANCHICA_server/emailAddress=132_RANCHICA@test_ca.com, O=CITRIX
        Subject Public Key Info:
            Public Key Algorithm: rsaEncryption
                Public-Key: (2048 bit)
                Modulus:
                    00:ba:83:82:91:d6:fc:60:68:e6:ca:03:db:c3:40:
                    7c:66:95:fc:5c:3f:01:57:08:e1:76:8e:e6:3f:02:
                    c7:0d:3f:89:f2:5d:5b:d2:6d:12:ec:c8:58:09:bb:
                    d5:46:cc:7b:b1:b9:2f:cb:1b:e6:13:cb:15:62:ce:
                    52:c1:3c:39:74:05:fe:54:5b:85:71:9a:37:b9:8a:
                    60:3b:92:56:29:75:9f:8b:b3:b8:76:96:65:6b:a5:
                    c5:03:14:c7:3e:d6:33:c5:37:da:29:1e:1b:45:d6:
                    82:96:68:11:f4:f3:11:65:84:fe:33:79:b3:f5:3e:
                    04:1b:0e:5a:0a:eb:5b:72:44:94:b0:52:5f:7d:d2:
                    79:16:74:1b:f4:d7:18:b5:d1:4a:24:c0:11:b5:3d:
                    ad:ad:5b:d0:78:03:31:85:6a:d4:9b:2a:af:58:1a:
                    08:9b:5d:21:4e:45:e7:f4:02:97:fb:d7:38:06:42:
                    cf:95:ef:e8:ee:51:ec:5a:8a:68:aa:b8:b8:2e:6f:
                    93:05:51:68:7b:d5:ac:fc:ec:e9:46:ae:bd:dc:03:
                    47:07:4d:65:23:68:38:e8:33:96:1f:bf:88:f1:40:
                    4d:a5:52:a5:88:00:a6:76:eb:51:8b:5f:ef:65:96:
                    9a:bd:28:18:3b:30:2e:bb:81:e8:78:00:61:77:7c:
                    e7:9b
                Exponent: 65537 (0x10001)
        X509v3 extensions:
            Netscape Cert Type: 
                SSL Server
            X509v3 Subject Key Identifier: 
                4B:33:8E:E5:06:BA:89:56:22:56:BF:76:15:86:56:B0:87:12:81:BC
            X509v3 Authority Key Identifier: 
                keyid:A7:10:6F:5D:0C:9F:9C:A2:F4:39:92:A3:7D:5C:B8:C0:25:71:BF:39
                DirName:/CN=RANCHICA_CA/C=IN/O=CITRIX/OU=ANG/ST=KA/emailAddress=RANCHICA_CA@RANCHICA_mail.com
                serial:E7:09:A4:3D:1C:C7:45:B1

            Authority Information Access: 
                OCSP - URI:http://172.27.20.1/responderpath

    Signature Algorithm: sha256WithRSAEncryption
         29:a3:85:66:71:19:75:be:3b:a7:6f:d0:12:99:2f:f8:fc:6e:
         ce:34:1a:5b:55:67:e5:6e:2a:b7:95:b7:38:ba:51:7d:71:74:
         23:2e:3e:b6:69:95:fe:c3:3a:c1:62:60:07:ee:51:88:eb:bb:
         a3:89:d8:9f:91:11:96:f2:5e:66:c4:c4:db:c4:90:c6:89:25:
         5a:03:27:df:b8:bf:55:44:f4:82:10:cf:22:f8:7f:ef:0c:e9:
         6d:7f:3d:8e:a5:35:45:2a:f2:f7:92:49:f7:39:f3:15:51:fe:
         44:bc:78:a6:e5:0c:43:38:5c:93:14:46:e3:09:b9:fb:36:ab:
         31:f6:cd:c0:40:a0:b3:38:11:db:e2:7c:8e:c4:f9:d9:ad:9c:
         53:68:81:fc:1e:43:29:79:6e:74:9b:e8:5e:4f:48:85:04:f2:
         30:31:6a:ec:42:2b:ae:f6:15:8f:22:3a:78:ad:a9:bb:d0:69:
         31:2c:46:5a:a8:a4:34:1c:c2:ea:0d:11:c8:71:64:b9:ec:bd:
         ed:90:81:5f:da:40:1e:38:7a:97:43:d1:9b:a1:83:34:27:69:
         14:90:75:1a:df:5d:1e:0b:60:7e:13:01:06:d4:24:38:80:2c:
         21:9d:ba:78:df:14:f0:db:30:c4:57:5b:1e:d8:45:40:9b:85:
         3d:0c:10:aa
-----BEGIN CERTIFICATE-----
MIIEmDCCA4CgAwIBAgIGCgsMDQ4uMA0GCSqGSIb3DQEBCwUAMH0xFDASBgNVBAMU
C1JBTkNISUNBX0NBMQswCQYDVQQGEwJJTjEPMA0GA1UEChMGQ0lUUklYMQwwCgYD
VQQLEwNBTkcxCzAJBgNVBAgTAktBMSwwKgYJKoZIhvcNAQkBFh1SQU5DSElDQV9D
QUBSQU5DSElDQV9tYWlsLmNvbTAeFw0xNjA3MDgwNDM4NTVaFw0yNjA3MDYwNDM4
NTVaMHIxCzAJBgNVBAgTAktBMQswCQYDVQQGEwJJTjEcMBoGA1UEAxQTMTMyX1JB
TkNISUNBX3NlcnZlcjEnMCUGCSqGSIb3DQEJARYYMTMyX1JBTkNISUNBQHRlc3Rf
Y2EuY29tMQ8wDQYDVQQKEwZDSVRSSVgwggEiMA0GCSqGSIb3DQEBAQUAA4IBDwAw
ggEKAoIBAQC6g4KR1vxgaObKA9vDQHxmlfxcPwFXCOF2juY/AscNP4nyXVvSbRLs
yFgJu9VGzHuxuS/LG+YTyxVizlLBPDl0Bf5UW4Vxmje5imA7klYpdZ+Ls7h2lmVr
pcUDFMc+1jPFN9opHhtF1oKWaBH08xFlhP4zebP1PgQbDloK61tyRJSwUl990nkW
dBv01xi10UokwBG1Pa2tW9B4AzGFatSbKq9YGgibXSFORef0Apf71zgGQs+V7+ju
UexaimiquLgub5MFUWh71az87OlGrr3cA0cHTWUjaDjoM5Yfv4jxQE2lUqWIAKZ2
61GLX+9llpq9KBg7MC67geh4AGF3fOebAgMBAAGjggEnMIIBIzARBglghkgBhvhC
AQEEBAMCBkAwHQYDVR0OBBYEFEszjuUGuolWIla/dhWGVrCHEoG8MIGwBgNVHSME
gagwgaWAFKcQb10Mn5yi9DmSo31cuMAlcb85oYGBpH8wfTEUMBIGA1UEAxQLUkFO
Q0hJQ0FfQ0ExCzAJBgNVBAYTAklOMQ8wDQYDVQQKEwZDSVRSSVgxDDAKBgNVBAsT
A0FORzELMAkGA1UECBMCS0ExLDAqBgkqhkiG9w0BCQEWHVJBTkNISUNBX0NBQFJB
TkNISUNBX21haWwuY29tggkA5wmkPRzHRbEwPAYIKwYBBQUHAQEEMDAuMCwGCCsG
AQUFBzABhiBodHRwOi8vMTcyLjI3LjIwLjEvcmVzcG9uZGVycGF0aDANBgkqhkiG
9w0BAQsFAAOCAQEAKaOFZnEZdb47p2/QEpkv+PxuzjQaW1Vn5W4qt5W3OLpRfXF0
Iy4+tmmV/sM6wWJgB+5RiOu7o4nYn5ERlvJeZsTE28SQxoklWgMn37i/VUT0ghDP
Ivh/7wzpbX89jqU1RSry95JJ9znzFVH+RLx4puUMQzhckxRG4wm5+zarMfbNwECg
szgR2+J8jsT52a2cU2iB/B5DKXludJvoXk9IhQTyMDFq7EIrrvYVjyI6eK2pu9Bp
MSxGWqikNBzC6g0RyHFkuey97ZCBX9pAHjh6l0PRm6GDNCdpFJB1Gt9dHgtgfhMB
BtQkOIAsIZ26eN8U8NswxFdbHthFQJuFPQwQqg==
-----END CERTIFICATE-----
