Certificate:
    Data:
        Version: 3 (0x2)
        Serial Number: 11042563100191 (0xa0b0c0d0e1f)
    Signature Algorithm: sha256WithRSAEncryption
        Issuer: CN=RANCHICA_CA, C=IN, O=CITRIX, OU=ANG, ST=KA/emailAddress=RANCHICA_CA@RANCHICA_mail.com
        Validity
            Not Before: Jul  8 04:38:51 2016 GMT
            Not After : Jul  6 04:38:51 2026 GMT
        Subject: ST=KA, C=IN, CN=117_RANCHICA_server/emailAddress=117_RANCHICA@test_ca.com, O=CITRIX
        Subject Public Key Info:
            Public Key Algorithm: rsaEncryption
                Public-Key: (2048 bit)
                Modulus:
                    00:db:e3:94:e0:1f:23:93:92:b8:06:2d:c9:9f:a2:
                    35:af:ec:c4:7f:10:1d:24:04:6f:36:3c:3d:7e:d8:
                    2a:bc:a9:66:02:7c:b7:cc:c7:e3:f9:e6:25:ad:d8:
                    10:b8:8c:44:d3:33:aa:52:97:f3:d1:b7:66:20:86:
                    88:5e:b6:2c:5a:69:c8:06:d8:70:00:cf:ce:8f:c5:
                    49:63:de:82:2a:66:ec:74:6a:25:65:1c:99:7a:d9:
                    8a:e4:a3:6a:0e:82:35:44:1e:e4:ca:8b:42:1e:e3:
                    9a:cf:eb:ac:63:0d:2a:c0:d8:5f:28:c8:c6:94:0f:
                    70:67:ef:d2:41:cd:f3:8d:cc:a0:ad:36:bb:21:91:
                    a2:52:7d:98:b3:16:49:ed:72:3b:69:4b:07:8e:68:
                    a6:7c:ab:cb:09:c4:dd:9d:11:37:41:8e:8a:71:84:
                    8a:e5:ec:9b:90:3f:81:33:fa:07:4f:3f:70:41:f1:
                    08:3e:e3:3c:a5:0c:ab:ba:d7:da:d4:66:a1:50:d4:
                    da:9e:0f:52:93:b3:32:e5:d6:9e:0c:06:b7:d2:21:
                    93:14:2a:04:a1:60:1c:6c:21:ed:1c:8a:95:01:07:
                    6e:0b:b6:0d:6b:1d:59:9c:39:59:c1:55:a7:44:c1:
                    72:07:a9:d2:9b:71:79:f0:c5:0f:d7:a0:7c:a1:14:
                    51:53
                Exponent: 65537 (0x10001)
        X509v3 extensions:
            Netscape Cert Type: 
                SSL Server
            X509v3 Subject Key Identifier: 
                09:D8:E1:BA:E0:CC:B4:15:B0:0A:D0:32:CF:52:E9:8D:46:7B:B7:19
            X509v3 Authority Key Identifier: 
                keyid:A7:10:6F:5D:0C:9F:9C:A2:F4:39:92:A3:7D:5C:B8:C0:25:71:BF:39
                DirName:/CN=RANCHICA_CA/C=IN/O=CITRIX/OU=ANG/ST=KA/emailAddress=RANCHICA_CA@RANCHICA_mail.com
                serial:E7:09:A4:3D:1C:C7:45:B1

            Authority Information Access: 
                OCSP - URI:http://RANCHICA_two.ocsptest.com/responderpath

    Signature Algorithm: sha256WithRSAEncryption
         3e:0e:42:00:f4:29:c0:be:f1:7c:ec:7f:44:83:0f:8c:d2:cd:
         e7:61:7b:7f:25:c2:a7:2a:a0:b0:4d:2b:df:87:a3:64:47:43:
         86:c0:a7:27:15:a0:c6:73:02:09:3d:d8:00:c7:12:ba:fd:d8:
         7a:04:92:0e:78:fa:f8:0f:2f:95:3f:c3:92:33:ff:0a:9a:98:
         08:cc:f5:29:47:d4:90:de:b5:c2:c6:4a:74:f7:c7:d1:65:c9:
         43:83:e7:64:50:23:ff:3d:5b:66:23:65:60:32:67:85:d6:20:
         4c:c8:d5:87:2f:78:e9:87:d2:63:c8:d2:21:c2:02:12:9e:2f:
         a2:6e:0b:18:a4:e0:56:a1:0e:c5:a9:0d:9d:d0:c0:aa:39:8f:
         77:53:d0:e5:d3:48:a2:bc:25:1b:19:4d:3b:9f:58:62:d2:b0:
         db:55:70:b2:b7:02:1b:cc:4a:b5:bf:cb:02:23:4d:66:6d:5e:
         8e:95:77:2a:40:d2:0f:b5:b9:dd:f1:18:17:ff:ea:3a:71:42:
         d0:ec:bf:50:00:d3:94:37:eb:a1:5a:b9:ec:e7:1e:eb:9b:ca:
         08:64:c5:cd:70:c2:94:85:af:8d:d2:81:2c:2f:b0:6e:b6:f1:
         fd:0d:4e:e7:71:13:43:77:96:ab:cb:dc:95:db:e9:ee:2d:2f:
         df:c9:01:5e
-----BEGIN CERTIFICATE-----
MIIEpjCCA46gAwIBAgIGCgsMDQ4fMA0GCSqGSIb3DQEBCwUAMH0xFDASBgNVBAMU
C1JBTkNISUNBX0NBMQswCQYDVQQGEwJJTjEPMA0GA1UEChMGQ0lUUklYMQwwCgYD
VQQLEwNBTkcxCzAJBgNVBAgTAktBMSwwKgYJKoZIhvcNAQkBFh1SQU5DSElDQV9D
QUBSQU5DSElDQV9tYWlsLmNvbTAeFw0xNjA3MDgwNDM4NTFaFw0yNjA3MDYwNDM4
NTFaMHIxCzAJBgNVBAgTAktBMQswCQYDVQQGEwJJTjEcMBoGA1UEAxQTMTE3X1JB
TkNISUNBX3NlcnZlcjEnMCUGCSqGSIb3DQEJARYYMTE3X1JBTkNISUNBQHRlc3Rf
Y2EuY29tMQ8wDQYDVQQKEwZDSVRSSVgwggEiMA0GCSqGSIb3DQEBAQUAA4IBDwAw
ggEKAoIBAQDb45TgHyOTkrgGLcmfojWv7MR/EB0kBG82PD1+2Cq8qWYCfLfMx+P5
5iWt2BC4jETTM6pSl/PRt2YghohetixaacgG2HAAz86PxUlj3oIqZux0aiVlHJl6
2Yrko2oOgjVEHuTKi0Ie45rP66xjDSrA2F8oyMaUD3Bn79JBzfONzKCtNrshkaJS
fZizFkntcjtpSweOaKZ8q8sJxN2dETdBjopxhIrl7JuQP4Ez+gdPP3BB8Qg+4zyl
DKu619rUZqFQ1NqeD1KTszLl1p4MBrfSIZMUKgShYBxsIe0cipUBB24Ltg1rHVmc
OVnBVadEwXIHqdKbcXnwxQ/XoHyhFFFTAgMBAAGjggE1MIIBMTARBglghkgBhvhC
AQEEBAMCBkAwHQYDVR0OBBYEFAnY4brgzLQVsArQMs9S6Y1Ge7cZMIGwBgNVHSME
gagwgaWAFKcQb10Mn5yi9DmSo31cuMAlcb85oYGBpH8wfTEUMBIGA1UEAxQLUkFO
Q0hJQ0FfQ0ExCzAJBgNVBAYTAklOMQ8wDQYDVQQKEwZDSVRSSVgxDDAKBgNVBAsT
A0FORzELMAkGA1UECBMCS0ExLDAqBgkqhkiG9w0BCQEWHVJBTkNISUNBX0NBQFJB
TkNISUNBX21haWwuY29tggkA5wmkPRzHRbEwSgYIKwYBBQUHAQEEPjA8MDoGCCsG
AQUFBzABhi5odHRwOi8vUkFOQ0hJQ0FfdHdvLm9jc3B0ZXN0LmNvbS9yZXNwb25k
ZXJwYXRoMA0GCSqGSIb3DQEBCwUAA4IBAQA+DkIA9CnAvvF87H9Egw+M0s3nYXt/
JcKnKqCwTSvfh6NkR0OGwKcnFaDGcwIJPdgAxxK6/dh6BJIOePr4Dy+VP8OSM/8K
mpgIzPUpR9SQ3rXCxkp098fRZclDg+dkUCP/PVtmI2VgMmeF1iBMyNWHL3jph9Jj
yNIhwgISni+ibgsYpOBWoQ7FqQ2d0MCqOY93U9Dl00iivCUbGU07n1hi0rDbVXCy
twIbzEq1v8sCI01mbV6OlXcqQNIPtbnd8RgX/+o6cULQ7L9QANOUN+uhWrns5x7r
m8oIZMXNcMKUha+N0oEsL7ButvH9DU7ncRNDd5ary9yV2+nuLS/fyQFe
-----END CERTIFICATE-----
