Certificate:
    Data:
        Version: 3 (0x2)
        Serial Number: 11042563100199 (0xa0b0c0d0e27)
    Signature Algorithm: sha256WithRSAEncryption
        Issuer: CN=RANCHICA_CA, C=IN, O=CITRIX, OU=ANG, ST=KA/emailAddress=RANCHICA_CA@RANCHICA_mail.com
        Validity
            Not Before: Jul  8 04:38:54 2016 GMT
            Not After : Jul  6 04:38:54 2026 GMT
        Subject: ST=KA, C=IN, CN=125_RANCHICA_server/emailAddress=125_RANCHICA@test_ca.com, O=CITRIX
        Subject Public Key Info:
            Public Key Algorithm: rsaEncryption
                Public-Key: (2048 bit)
                Modulus:
                    00:ad:a3:d6:1b:13:f3:d2:48:96:04:de:f1:cd:1e:
                    16:46:fa:28:b4:e0:e1:ee:4c:77:ec:5e:3a:c3:2b:
                    1f:72:a3:3c:b0:08:77:e1:90:1a:3b:73:00:6d:58:
                    86:bb:5a:97:b4:a7:3e:68:a3:80:64:5a:1a:0b:5c:
                    b1:21:3a:0d:aa:d4:62:5e:93:29:fc:1f:65:b0:28:
                    dc:e5:71:cc:05:7b:b1:4e:45:40:91:d4:4c:13:a5:
                    57:6a:dc:a2:f1:a9:0b:69:4b:2b:af:d3:25:5b:4a:
                    24:e7:1f:56:7f:14:29:f4:32:85:ae:fd:44:76:b2:
                    6e:46:58:32:eb:3c:49:69:43:08:91:5c:58:3d:d4:
                    77:2d:36:bd:3a:6b:66:f5:43:d7:96:6d:c4:fd:eb:
                    29:75:1d:71:86:97:bc:91:41:bb:d0:09:d9:f7:a9:
                    f3:b2:9f:1d:e1:60:be:8b:d7:d1:71:4b:d5:42:a4:
                    21:d7:51:6f:41:5d:57:e7:4a:0f:7b:69:9c:d7:c1:
                    09:f0:e8:d6:66:80:e7:6a:71:33:0a:2c:68:3e:7e:
                    6a:7b:ea:69:24:14:63:b0:23:19:89:63:e8:c8:cd:
                    6a:9d:5c:ab:8a:ad:f9:08:0d:55:76:b7:20:2c:f0:
                    be:ec:85:9d:c2:8f:19:48:ec:67:66:f5:7b:8f:77:
                    96:d3
                Exponent: 65537 (0x10001)
        X509v3 extensions:
            Netscape Cert Type: 
                SSL Server
            X509v3 Subject Key Identifier: 
                03:5C:0C:32:30:EA:33:61:92:5E:72:AA:3C:89:DC:DE:68:97:4C:E5
            X509v3 Authority Key Identifier: 
                keyid:A7:10:6F:5D:0C:9F:9C:A2:F4:39:92:A3:7D:5C:B8:C0:25:71:BF:39
                DirName:/CN=RANCHICA_CA/C=IN/O=CITRIX/OU=ANG/ST=KA/emailAddress=RANCHICA_CA@RANCHICA_mail.com
                serial:E7:09:A4:3D:1C:C7:45:B1

            Authority Information Access: 
                OCSP - URI:http://172.27.10.1/responderpath

    Signature Algorithm: sha256WithRSAEncryption
         70:8f:87:42:5e:ed:81:a5:9c:da:92:a9:43:1c:8a:56:50:60:
         55:48:0e:d8:62:82:85:94:0f:8c:84:90:c1:f1:2a:09:59:0e:
         d8:95:48:21:db:c0:4d:b3:fa:14:97:3d:48:01:7b:8f:a8:94:
         f5:cf:77:d8:05:70:fa:9f:43:a8:9c:f4:55:a1:80:2d:58:28:
         fc:57:46:da:7b:bd:42:4c:2d:40:d5:70:9b:25:b1:85:74:3f:
         60:f3:85:30:31:f1:99:1f:ee:85:3b:12:c7:f9:b5:b6:8a:58:
         9a:fe:df:ff:c7:02:0e:25:c0:c3:eb:89:d2:bf:98:7b:4d:01:
         f7:bf:0c:39:88:96:0d:26:c6:5b:00:fd:0c:64:9d:ac:a2:32:
         50:59:62:34:0c:c5:37:a8:68:b1:98:b1:ee:a9:03:58:8f:b2:
         3f:50:a0:39:56:22:75:c1:de:b9:02:18:ba:e3:07:74:45:de:
         66:69:d3:16:a0:20:0a:3e:21:f1:45:51:11:20:31:40:b9:92:
         ec:bc:57:f9:eb:ad:6a:91:d9:42:0b:d5:ee:f5:a6:93:a8:ca:
         31:cf:9e:e6:3e:69:df:31:b6:27:f3:5d:4d:00:a5:4a:ff:e1:
         48:2b:4c:6b:ea:6f:ea:4d:2d:e5:b2:47:cf:87:6d:9a:41:9b:
         22:de:92:ae
-----BEGIN CERTIFICATE-----
MIIEmDCCA4CgAwIBAgIGCgsMDQ4nMA0GCSqGSIb3DQEBCwUAMH0xFDASBgNVBAMU
C1JBTkNISUNBX0NBMQswCQYDVQQGEwJJTjEPMA0GA1UEChMGQ0lUUklYMQwwCgYD
VQQLEwNBTkcxCzAJBgNVBAgTAktBMSwwKgYJKoZIhvcNAQkBFh1SQU5DSElDQV9D
QUBSQU5DSElDQV9tYWlsLmNvbTAeFw0xNjA3MDgwNDM4NTRaFw0yNjA3MDYwNDM4
NTRaMHIxCzAJBgNVBAgTAktBMQswCQYDVQQGEwJJTjEcMBoGA1UEAxQTMTI1X1JB
TkNISUNBX3NlcnZlcjEnMCUGCSqGSIb3DQEJARYYMTI1X1JBTkNISUNBQHRlc3Rf
Y2EuY29tMQ8wDQYDVQQKEwZDSVRSSVgwggEiMA0GCSqGSIb3DQEBAQUAA4IBDwAw
ggEKAoIBAQCto9YbE/PSSJYE3vHNHhZG+ii04OHuTHfsXjrDKx9yozywCHfhkBo7
cwBtWIa7Wpe0pz5oo4BkWhoLXLEhOg2q1GJekyn8H2WwKNzlccwFe7FORUCR1EwT
pVdq3KLxqQtpSyuv0yVbSiTnH1Z/FCn0MoWu/UR2sm5GWDLrPElpQwiRXFg91Hct
Nr06a2b1Q9eWbcT96yl1HXGGl7yRQbvQCdn3qfOynx3hYL6L19FxS9VCpCHXUW9B
XVfnSg97aZzXwQnw6NZmgOdqcTMKLGg+fmp76mkkFGOwIxmJY+jIzWqdXKuKrfkI
DVV2tyAs8L7shZ3CjxlI7Gdm9XuPd5bTAgMBAAGjggEnMIIBIzARBglghkgBhvhC
AQEEBAMCBkAwHQYDVR0OBBYEFANcDDIw6jNhkl5yqjyJ3N5ol0zlMIGwBgNVHSME
gagwgaWAFKcQb10Mn5yi9DmSo31cuMAlcb85oYGBpH8wfTEUMBIGA1UEAxQLUkFO
Q0hJQ0FfQ0ExCzAJBgNVBAYTAklOMQ8wDQYDVQQKEwZDSVRSSVgxDDAKBgNVBAsT
A0FORzELMAkGA1UECBMCS0ExLDAqBgkqhkiG9w0BCQEWHVJBTkNISUNBX0NBQFJB
TkNISUNBX21haWwuY29tggkA5wmkPRzHRbEwPAYIKwYBBQUHAQEEMDAuMCwGCCsG
AQUFBzABhiBodHRwOi8vMTcyLjI3LjEwLjEvcmVzcG9uZGVycGF0aDANBgkqhkiG
9w0BAQsFAAOCAQEAcI+HQl7tgaWc2pKpQxyKVlBgVUgO2GKChZQPjISQwfEqCVkO
2JVIIdvATbP6FJc9SAF7j6iU9c932AVw+p9DqJz0VaGALVgo/FdG2nu9QkwtQNVw
myWxhXQ/YPOFMDHxmR/uhTsSx/m1topYmv7f/8cCDiXAw+uJ0r+Ye00B978MOYiW
DSbGWwD9DGSdrKIyUFliNAzFN6hosZix7qkDWI+yP1CgOVYidcHeuQIYuuMHdEXe
ZmnTFqAgCj4h8UVRESAxQLmS7LxX+eutapHZQgvV7vWmk6jKMc+e5j5p3zG2J/Nd
TQClSv/hSCtMa+pv6k0t5bJHz4dtmkGbIt6Srg==
-----END CERTIFICATE-----
