Certificate:
    Data:
        Version: 3 (0x2)
        Serial Number: 11042563100196 (0xa0b0c0d0e24)
    Signature Algorithm: sha256WithRSAEncryption
        Issuer: CN=RANCHICA_CA, C=IN, O=CITRIX, OU=ANG, ST=KA/emailAddress=RANCHICA_CA@RANCHICA_mail.com
        Validity
            Not Before: Jul  8 04:38:53 2016 GMT
            Not After : Jul  6 04:38:53 2026 GMT
        Subject: ST=KA, C=IN, CN=122_RANCHICA_server/emailAddress=122_RANCHICA@test_ca.com, O=CITRIX
        Subject Public Key Info:
            Public Key Algorithm: rsaEncryption
                Public-Key: (2048 bit)
                Modulus:
                    00:e9:26:b4:52:e7:75:bd:c3:8b:2e:2f:9a:32:57:
                    18:8a:5e:a4:a2:df:3f:5a:83:f3:31:0c:ab:a3:51:
                    05:e4:02:1d:e3:f0:16:45:16:f2:8b:33:27:15:e8:
                    01:8d:5d:e2:a9:94:b9:30:00:19:e9:f8:d5:9a:5b:
                    75:1e:da:4d:38:7f:2d:b5:d8:17:75:3d:62:37:14:
                    15:29:93:03:f8:16:1d:00:27:15:2e:4a:f7:ef:de:
                    ee:9e:da:9b:6d:6f:97:64:39:bc:4b:ff:af:8d:d5:
                    8b:75:a8:09:65:17:b7:d7:72:b1:4d:70:8b:d6:3e:
                    ee:a4:6e:bf:9b:7c:67:4b:b4:12:68:25:aa:4d:29:
                    d2:35:68:71:86:f5:3b:ba:70:6a:7e:99:55:fa:dc:
                    8b:4d:d6:92:5d:94:23:2c:f1:3e:d2:e5:f6:7f:16:
                    98:15:3d:2c:5c:ad:4b:b1:3b:ca:12:96:d4:a4:73:
                    5b:9c:52:fa:e6:d6:2a:6e:ad:c1:78:d1:e4:6c:88:
                    7d:a3:a5:75:19:94:61:13:dd:2f:db:32:04:59:88:
                    43:65:2f:c0:f4:78:a0:14:f7:2e:77:53:9b:6a:6c:
                    94:cf:dc:49:29:de:c5:5f:12:c1:07:ff:a8:b7:4a:
                    e6:1f:96:c2:a8:7d:74:0c:ad:71:94:e2:1d:9d:5f:
                    31:8f
                Exponent: 65537 (0x10001)
        X509v3 extensions:
            Netscape Cert Type: 
                SSL Server
            X509v3 Subject Key Identifier: 
                13:E3:7F:A2:7E:18:30:41:51:22:82:56:73:63:39:57:88:07:5A:9D
            X509v3 Authority Key Identifier: 
                keyid:A7:10:6F:5D:0C:9F:9C:A2:F4:39:92:A3:7D:5C:B8:C0:25:71:BF:39
                DirName:/CN=RANCHICA_CA/C=IN/O=CITRIX/OU=ANG/ST=KA/emailAddress=RANCHICA_CA@RANCHICA_mail.com
                serial:E7:09:A4:3D:1C:C7:45:B1

            Authority Information Access: 
                OCSP - URI:http://172.27.10.1/responderpath

    Signature Algorithm: sha256WithRSAEncryption
         0d:57:2a:f6:6a:0d:e3:f6:97:3f:5e:01:b3:ba:bc:5b:63:ac:
         53:56:5d:1e:a1:7e:31:72:31:b0:7b:d6:dd:02:5e:73:67:6b:
         ed:40:f7:2d:37:84:39:6a:ed:3f:c1:35:99:82:50:e3:8f:5d:
         6e:8f:88:20:e7:2d:72:c6:39:94:88:97:8e:5e:0a:58:c5:a5:
         e1:61:50:56:66:9d:bb:3c:2e:c6:2b:41:57:c1:e7:ef:ef:66:
         1f:1b:4f:6b:16:21:42:48:7a:f3:6d:70:65:aa:83:06:5c:fc:
         36:4d:a2:83:94:97:d7:b5:b4:fe:07:16:3f:d0:3c:2c:b2:36:
         97:38:ab:fa:fa:d2:c6:10:c4:99:66:cc:41:ca:58:35:a1:94:
         d7:f3:9d:4c:33:e0:4a:de:ca:dc:27:57:6d:bb:70:d5:a0:94:
         67:d0:62:ed:85:ed:f0:a6:ca:a1:04:e7:08:76:0b:b4:20:4d:
         b6:d1:1d:45:89:dc:d2:6f:9c:9c:4e:31:16:44:85:4c:c0:c2:
         db:e3:43:b6:d7:fa:3b:78:0d:17:1a:05:0c:14:2c:42:21:4c:
         ab:4e:b0:ca:c5:16:c0:e2:8a:a7:f7:07:b5:70:0f:b4:72:16:
         52:c4:e7:0f:38:21:37:9d:12:53:90:d4:c2:ea:51:36:a6:8a:
         7d:16:95:5d
-----BEGIN CERTIFICATE-----
MIIEmDCCA4CgAwIBAgIGCgsMDQ4kMA0GCSqGSIb3DQEBCwUAMH0xFDASBgNVBAMU
C1JBTkNISUNBX0NBMQswCQYDVQQGEwJJTjEPMA0GA1UEChMGQ0lUUklYMQwwCgYD
VQQLEwNBTkcxCzAJBgNVBAgTAktBMSwwKgYJKoZIhvcNAQkBFh1SQU5DSElDQV9D
QUBSQU5DSElDQV9tYWlsLmNvbTAeFw0xNjA3MDgwNDM4NTNaFw0yNjA3MDYwNDM4
NTNaMHIxCzAJBgNVBAgTAktBMQswCQYDVQQGEwJJTjEcMBoGA1UEAxQTMTIyX1JB
TkNISUNBX3NlcnZlcjEnMCUGCSqGSIb3DQEJARYYMTIyX1JBTkNISUNBQHRlc3Rf
Y2EuY29tMQ8wDQYDVQQKEwZDSVRSSVgwggEiMA0GCSqGSIb3DQEBAQUAA4IBDwAw
ggEKAoIBAQDpJrRS53W9w4suL5oyVxiKXqSi3z9ag/MxDKujUQXkAh3j8BZFFvKL
MycV6AGNXeKplLkwABnp+NWaW3Ue2k04fy212Bd1PWI3FBUpkwP4Fh0AJxUuSvfv
3u6e2pttb5dkObxL/6+N1Yt1qAllF7fXcrFNcIvWPu6kbr+bfGdLtBJoJapNKdI1
aHGG9Tu6cGp+mVX63ItN1pJdlCMs8T7S5fZ/FpgVPSxcrUuxO8oSltSkc1ucUvrm
1ipurcF40eRsiH2jpXUZlGET3S/bMgRZiENlL8D0eKAU9y53U5tqbJTP3Ekp3sVf
EsEH/6i3SuYflsKofXQMrXGU4h2dXzGPAgMBAAGjggEnMIIBIzARBglghkgBhvhC
AQEEBAMCBkAwHQYDVR0OBBYEFBPjf6J+GDBBUSKCVnNjOVeIB1qdMIGwBgNVHSME
gagwgaWAFKcQb10Mn5yi9DmSo31cuMAlcb85oYGBpH8wfTEUMBIGA1UEAxQLUkFO
Q0hJQ0FfQ0ExCzAJBgNVBAYTAklOMQ8wDQYDVQQKEwZDSVRSSVgxDDAKBgNVBAsT
A0FORzELMAkGA1UECBMCS0ExLDAqBgkqhkiG9w0BCQEWHVJBTkNISUNBX0NBQFJB
TkNISUNBX21haWwuY29tggkA5wmkPRzHRbEwPAYIKwYBBQUHAQEEMDAuMCwGCCsG
AQUFBzABhiBodHRwOi8vMTcyLjI3LjEwLjEvcmVzcG9uZGVycGF0aDANBgkqhkiG
9w0BAQsFAAOCAQEADVcq9moN4/aXP14Bs7q8W2OsU1ZdHqF+MXIxsHvW3QJec2dr
7UD3LTeEOWrtP8E1mYJQ449dbo+IIOctcsY5lIiXjl4KWMWl4WFQVmaduzwuxitB
V8Hn7+9mHxtPaxYhQkh6821wZaqDBlz8Nk2ig5SX17W0/gcWP9A8LLI2lzir+vrS
xhDEmWbMQcpYNaGU1/OdTDPgSt7K3CdXbbtw1aCUZ9Bi7YXt8KbKoQTnCHYLtCBN
ttEdRYnc0m+cnE4xFkSFTMDC2+NDttf6O3gNFxoFDBQsQiFMq06wysUWwOKKp/cH
tXAPtHIWUsTnDzghN50SU5DUwupRNqaKfRaVXQ==
-----END CERTIFICATE-----
