Certificate:
    Data:
        Version: 3 (0x2)
        Serial Number: 11042563100197 (0xa0b0c0d0e25)
    Signature Algorithm: sha256WithRSAEncryption
        Issuer: CN=RANCHICA_CA, C=IN, O=CITRIX, OU=ANG, ST=KA/emailAddress=RANCHICA_CA@RANCHICA_mail.com
        Validity
            Not Before: Jul  8 04:38:53 2016 GMT
            Not After : Jul  6 04:38:53 2026 GMT
        Subject: ST=KA, C=IN, CN=123_RANCHICA_server/emailAddress=123_RANCHICA@test_ca.com, O=CITRIX
        Subject Public Key Info:
            Public Key Algorithm: rsaEncryption
                Public-Key: (2048 bit)
                Modulus:
                    00:d0:e5:53:3c:72:1b:61:4c:5c:e5:69:d2:e7:6a:
                    29:a7:e8:83:64:f1:98:d8:b5:fa:48:50:97:69:fd:
                    f3:78:53:60:55:7b:28:40:3d:f3:77:6f:0a:fa:e5:
                    d6:12:0f:fc:84:29:a1:86:36:fc:e1:5f:62:97:97:
                    cd:dd:39:d4:45:69:9f:e4:f8:b7:b1:4c:47:fe:9a:
                    14:5f:4d:0d:0f:0d:ab:58:75:5a:da:45:45:83:0f:
                    c9:80:f7:76:42:92:c5:b0:05:ab:65:9e:cd:5f:c4:
                    f1:b0:79:4f:6c:38:82:cd:f5:b1:e3:72:8f:67:4c:
                    6d:17:9f:de:ba:45:8a:bf:7f:2e:13:a1:20:63:6c:
                    39:bb:2b:f7:3e:21:e7:d1:ce:b6:a7:2c:67:2e:4c:
                    4f:28:d8:fe:12:05:0f:58:fa:94:4d:fb:82:a2:06:
                    62:46:c2:ab:3c:18:64:8e:48:94:5a:6f:ea:2d:7c:
                    c3:97:d6:40:0d:5c:6c:e7:f8:8c:af:70:b3:f2:79:
                    20:f5:8e:54:10:81:30:7e:9e:5d:18:3a:ce:1e:25:
                    19:24:14:12:a2:14:c4:2f:cb:25:15:34:7a:9b:c1:
                    5d:ca:f4:ae:e6:af:fa:5f:a1:01:66:16:86:da:be:
                    12:c0:49:ef:33:7e:2a:79:1c:70:0e:fb:3c:c7:cd:
                    d6:49
                Exponent: 65537 (0x10001)
        X509v3 extensions:
            Netscape Cert Type: 
                SSL Server
            X509v3 Subject Key Identifier: 
                7F:14:A0:61:1E:6E:0E:46:D8:67:E8:9B:BA:7E:6D:AC:7A:8E:E1:9F
            X509v3 Authority Key Identifier: 
                keyid:A7:10:6F:5D:0C:9F:9C:A2:F4:39:92:A3:7D:5C:B8:C0:25:71:BF:39
                DirName:/CN=RANCHICA_CA/C=IN/O=CITRIX/OU=ANG/ST=KA/emailAddress=RANCHICA_CA@RANCHICA_mail.com
                serial:E7:09:A4:3D:1C:C7:45:B1

            Authority Information Access: 
                OCSP - URI:http://172.27.10.1/responderpath

    Signature Algorithm: sha256WithRSAEncryption
         02:63:92:04:ce:50:01:fd:e0:38:3a:31:7a:9e:44:5d:63:38:
         7e:c4:f3:f3:d0:f6:e7:35:28:31:e6:69:f5:ef:9a:49:38:8e:
         fd:24:d5:6b:42:6c:b7:a9:71:bd:ed:c3:4f:78:d7:a5:35:10:
         97:a6:43:a3:24:1a:58:3f:b3:54:cb:23:c4:eb:2d:bb:97:66:
         3e:b4:d4:d7:e3:d9:11:b3:b0:bf:66:b5:64:7e:d3:ca:b4:ce:
         b0:91:07:6d:f0:27:71:a0:83:40:bb:6a:97:06:ad:4d:08:de:
         78:ec:22:dd:f5:57:59:db:21:8c:f4:a1:e0:c3:18:b2:d6:79:
         b1:46:d7:21:f3:78:67:94:21:40:21:18:8f:e6:e4:68:fc:4a:
         b5:4c:72:31:00:43:3e:bb:e0:3d:ce:f9:3d:f5:f4:fd:3a:19:
         4d:58:6f:cc:5c:d2:2a:98:00:1b:d6:01:71:21:94:d5:b6:cd:
         fa:80:54:6f:be:64:9d:9d:c5:19:17:e4:e9:2f:61:22:48:23:
         41:e4:16:8d:40:d1:38:0d:7f:9b:78:e2:22:a4:a9:72:60:a0:
         01:d0:34:2a:65:4a:a7:35:69:7b:da:3c:8b:87:d5:d5:ea:9f:
         73:8d:68:a3:95:b6:ab:c4:1c:56:16:2f:4a:43:20:62:7d:fa:
         6b:a9:a0:b5
-----BEGIN CERTIFICATE-----
MIIEmDCCA4CgAwIBAgIGCgsMDQ4lMA0GCSqGSIb3DQEBCwUAMH0xFDASBgNVBAMU
C1JBTkNISUNBX0NBMQswCQYDVQQGEwJJTjEPMA0GA1UEChMGQ0lUUklYMQwwCgYD
VQQLEwNBTkcxCzAJBgNVBAgTAktBMSwwKgYJKoZIhvcNAQkBFh1SQU5DSElDQV9D
QUBSQU5DSElDQV9tYWlsLmNvbTAeFw0xNjA3MDgwNDM4NTNaFw0yNjA3MDYwNDM4
NTNaMHIxCzAJBgNVBAgTAktBMQswCQYDVQQGEwJJTjEcMBoGA1UEAxQTMTIzX1JB
TkNISUNBX3NlcnZlcjEnMCUGCSqGSIb3DQEJARYYMTIzX1JBTkNISUNBQHRlc3Rf
Y2EuY29tMQ8wDQYDVQQKEwZDSVRSSVgwggEiMA0GCSqGSIb3DQEBAQUAA4IBDwAw
ggEKAoIBAQDQ5VM8chthTFzladLnaimn6INk8ZjYtfpIUJdp/fN4U2BVeyhAPfN3
bwr65dYSD/yEKaGGNvzhX2KXl83dOdRFaZ/k+LexTEf+mhRfTQ0PDatYdVraRUWD
D8mA93ZCksWwBatlns1fxPGweU9sOILN9bHjco9nTG0Xn966RYq/fy4ToSBjbDm7
K/c+IefRzranLGcuTE8o2P4SBQ9Y+pRN+4KiBmJGwqs8GGSOSJRab+otfMOX1kAN
XGzn+IyvcLPyeSD1jlQQgTB+nl0YOs4eJRkkFBKiFMQvyyUVNHqbwV3K9K7mr/pf
oQFmFobavhLASe8zfip5HHAO+zzHzdZJAgMBAAGjggEnMIIBIzARBglghkgBhvhC
AQEEBAMCBkAwHQYDVR0OBBYEFH8UoGEebg5G2Gfom7p+bax6juGfMIGwBgNVHSME
gagwgaWAFKcQb10Mn5yi9DmSo31cuMAlcb85oYGBpH8wfTEUMBIGA1UEAxQLUkFO
Q0hJQ0FfQ0ExCzAJBgNVBAYTAklOMQ8wDQYDVQQKEwZDSVRSSVgxDDAKBgNVBAsT
A0FORzELMAkGA1UECBMCS0ExLDAqBgkqhkiG9w0BCQEWHVJBTkNISUNBX0NBQFJB
TkNISUNBX21haWwuY29tggkA5wmkPRzHRbEwPAYIKwYBBQUHAQEEMDAuMCwGCCsG
AQUFBzABhiBodHRwOi8vMTcyLjI3LjEwLjEvcmVzcG9uZGVycGF0aDANBgkqhkiG
9w0BAQsFAAOCAQEAAmOSBM5QAf3gODoxep5EXWM4fsTz89D25zUoMeZp9e+aSTiO
/STVa0Jst6lxve3DT3jXpTUQl6ZDoyQaWD+zVMsjxOstu5dmPrTU1+PZEbOwv2a1
ZH7TyrTOsJEHbfAncaCDQLtqlwatTQjeeOwi3fVXWdshjPSh4MMYstZ5sUbXIfN4
Z5QhQCEYj+bkaPxKtUxyMQBDPrvgPc75PfX0/ToZTVhvzFzSKpgAG9YBcSGU1bbN
+oBUb75knZ3FGRfk6S9hIkgjQeQWjUDROA1/m3jiIqSpcmCgAdA0KmVKpzVpe9o8
i4fV1eqfc41oo5W2q8QcVhYvSkMgYn36a6mgtQ==
-----END CERTIFICATE-----
