Certificate:
    Data:
        Version: 3 (0x2)
        Serial Number: 11042563100192 (0xa0b0c0d0e20)
    Signature Algorithm: sha256WithRSAEncryption
        Issuer: CN=RANCHICA_CA, C=IN, O=CITRIX, OU=ANG, ST=KA/emailAddress=RANCHICA_CA@RANCHICA_mail.com
        Validity
            Not Before: Jul  8 04:38:52 2016 GMT
            Not After : Jul  6 04:38:52 2026 GMT
        Subject: ST=KA, C=IN, CN=118_RANCHICA_server/emailAddress=118_RANCHICA@test_ca.com, O=CITRIX
        Subject Public Key Info:
            Public Key Algorithm: rsaEncryption
                Public-Key: (2048 bit)
                Modulus:
                    00:d9:3d:96:6f:4e:b3:1a:99:21:11:ca:6a:e2:b6:
                    90:86:0c:d9:6f:bc:1f:18:33:8e:6e:fb:a6:90:50:
                    69:34:e7:2f:34:75:eb:0e:7a:3e:4f:cb:86:33:57:
                    6d:c8:a6:8e:4a:35:70:f5:e9:46:47:57:6a:51:15:
                    39:c6:02:e9:de:8d:fa:36:28:81:c9:97:3f:9f:cf:
                    98:9e:6e:4c:b1:3a:c9:22:f1:f2:31:3b:91:4b:2c:
                    ff:1a:b0:89:92:77:2c:66:04:2d:4c:91:d3:de:ab:
                    e7:d1:43:e6:5e:b1:99:bc:46:18:52:4e:61:9d:8f:
                    99:52:ce:d0:34:bb:12:e9:bf:08:89:b4:2a:9e:40:
                    a0:ab:4e:b1:b6:6b:5b:8c:6b:d1:1d:f9:cb:c8:7f:
                    e9:35:fe:48:d9:a0:b9:99:20:77:d7:24:ba:64:62:
                    1c:57:23:68:73:86:f5:a5:9a:b5:19:87:f9:54:5f:
                    07:10:fb:f4:64:04:f1:c2:17:47:04:0c:a5:17:b8:
                    0a:bf:5b:ae:62:e2:d7:79:08:3f:24:4c:f4:77:e8:
                    0b:c7:6c:a9:40:b4:45:56:97:87:38:42:1c:45:25:
                    d4:43:92:0a:3e:1c:97:13:6c:b8:52:60:3c:7b:5a:
                    05:fd:f4:55:29:64:f5:80:83:4e:db:1c:d8:93:23:
                    3c:d7
                Exponent: 65537 (0x10001)
        X509v3 extensions:
            Netscape Cert Type: 
                SSL Server
            X509v3 Subject Key Identifier: 
                CC:29:BB:83:CE:B5:F0:BB:5C:B4:E1:2E:90:41:10:06:DC:35:98:21
            X509v3 Authority Key Identifier: 
                keyid:A7:10:6F:5D:0C:9F:9C:A2:F4:39:92:A3:7D:5C:B8:C0:25:71:BF:39
                DirName:/CN=RANCHICA_CA/C=IN/O=CITRIX/OU=ANG/ST=KA/emailAddress=RANCHICA_CA@RANCHICA_mail.com
                serial:E7:09:A4:3D:1C:C7:45:B1

            Authority Information Access: 
                OCSP - URI:http://RANCHICA_two.ocsptest.com/responderpath

    Signature Algorithm: sha256WithRSAEncryption
         58:1b:18:b2:7a:02:22:a0:9d:f3:f9:4c:7f:57:e0:47:fd:e6:
         ad:a4:59:df:05:ee:44:e8:b0:84:8c:cc:64:3f:18:5b:90:cc:
         d2:4d:c1:15:67:52:ac:02:7a:56:5f:74:36:a6:52:38:55:fc:
         a6:0f:51:6b:d7:d6:b8:a7:03:a8:63:f1:e1:42:45:a6:fe:11:
         60:cc:b8:70:6a:b9:ea:5e:79:62:42:79:8c:4f:ae:0c:12:a7:
         1e:20:73:6f:13:d9:e4:bb:7e:6c:4d:48:9c:3f:22:b4:71:f4:
         82:55:73:95:6a:52:48:2f:97:34:e0:f3:91:52:ab:27:57:f6:
         a1:03:89:72:15:55:64:97:07:a5:68:b1:07:c3:9c:7b:28:85:
         a0:b1:5a:d1:80:ad:fa:14:47:b4:78:6b:53:52:2d:e9:35:96:
         e7:62:33:bd:f8:21:63:68:98:82:25:3f:f8:40:93:4f:1b:98:
         54:4a:1c:1c:c9:d0:6c:09:b0:b2:84:0a:0e:d2:24:30:2c:eb:
         20:74:04:a0:ae:88:61:f6:5f:53:79:2c:da:88:9a:a1:ce:e9:
         3b:ff:e7:d0:6d:cd:a8:2f:0e:67:41:ba:7e:5c:f5:94:fb:3d:
         1d:55:86:a5:15:6c:c6:1e:70:e8:7d:a9:52:ab:ac:c3:95:35:
         07:a3:87:33
-----BEGIN CERTIFICATE-----
MIIEpjCCA46gAwIBAgIGCgsMDQ4gMA0GCSqGSIb3DQEBCwUAMH0xFDASBgNVBAMU
C1JBTkNISUNBX0NBMQswCQYDVQQGEwJJTjEPMA0GA1UEChMGQ0lUUklYMQwwCgYD
VQQLEwNBTkcxCzAJBgNVBAgTAktBMSwwKgYJKoZIhvcNAQkBFh1SQU5DSElDQV9D
QUBSQU5DSElDQV9tYWlsLmNvbTAeFw0xNjA3MDgwNDM4NTJaFw0yNjA3MDYwNDM4
NTJaMHIxCzAJBgNVBAgTAktBMQswCQYDVQQGEwJJTjEcMBoGA1UEAxQTMTE4X1JB
TkNISUNBX3NlcnZlcjEnMCUGCSqGSIb3DQEJARYYMTE4X1JBTkNISUNBQHRlc3Rf
Y2EuY29tMQ8wDQYDVQQKEwZDSVRSSVgwggEiMA0GCSqGSIb3DQEBAQUAA4IBDwAw
ggEKAoIBAQDZPZZvTrMamSERymritpCGDNlvvB8YM45u+6aQUGk05y80desOej5P
y4YzV23Ipo5KNXD16UZHV2pRFTnGAunejfo2KIHJlz+fz5iebkyxOski8fIxO5FL
LP8asImSdyxmBC1MkdPeq+fRQ+ZesZm8RhhSTmGdj5lSztA0uxLpvwiJtCqeQKCr
TrG2a1uMa9Ed+cvIf+k1/kjZoLmZIHfXJLpkYhxXI2hzhvWlmrUZh/lUXwcQ+/Rk
BPHCF0cEDKUXuAq/W65i4td5CD8kTPR36AvHbKlAtEVWl4c4QhxFJdRDkgo+HJcT
bLhSYDx7WgX99FUpZPWAg07bHNiTIzzXAgMBAAGjggE1MIIBMTARBglghkgBhvhC
AQEEBAMCBkAwHQYDVR0OBBYEFMwpu4POtfC7XLThLpBBEAbcNZghMIGwBgNVHSME
gagwgaWAFKcQb10Mn5yi9DmSo31cuMAlcb85oYGBpH8wfTEUMBIGA1UEAxQLUkFO
Q0hJQ0FfQ0ExCzAJBgNVBAYTAklOMQ8wDQYDVQQKEwZDSVRSSVgxDDAKBgNVBAsT
A0FORzELMAkGA1UECBMCS0ExLDAqBgkqhkiG9w0BCQEWHVJBTkNISUNBX0NBQFJB
TkNISUNBX21haWwuY29tggkA5wmkPRzHRbEwSgYIKwYBBQUHAQEEPjA8MDoGCCsG
AQUFBzABhi5odHRwOi8vUkFOQ0hJQ0FfdHdvLm9jc3B0ZXN0LmNvbS9yZXNwb25k
ZXJwYXRoMA0GCSqGSIb3DQEBCwUAA4IBAQBYGxiyegIioJ3z+Ux/V+BH/eatpFnf
Be5E6LCEjMxkPxhbkMzSTcEVZ1KsAnpWX3Q2plI4VfymD1Fr19a4pwOoY/HhQkWm
/hFgzLhwarnqXnliQnmMT64MEqceIHNvE9nku35sTUicPyK0cfSCVXOValJIL5c0
4PORUqsnV/ahA4lyFVVklwelaLEHw5x7KIWgsVrRgK36FEe0eGtTUi3pNZbnYjO9
+CFjaJiCJT/4QJNPG5hUShwcydBsCbCyhAoO0iQwLOsgdASgrohh9l9TeSzaiJqh
zuk7/+fQbc2oLw5nQbp+XPWU+z0dVYalFWzGHnDofalSq6zDlTUHo4cz
-----END CERTIFICATE-----
