Certificate:
    Data:
        Version: 3 (0x2)
        Serial Number: 11042563100193 (0xa0b0c0d0e21)
    Signature Algorithm: sha256WithRSAEncryption
        Issuer: CN=RANCHICA_CA, C=IN, O=CITRIX, OU=ANG, ST=KA/emailAddress=RANCHICA_CA@RANCHICA_mail.com
        Validity
            Not Before: Jul  8 04:38:52 2016 GMT
            Not After : Jul  6 04:38:52 2026 GMT
        Subject: ST=KA, C=IN, CN=119_RANCHICA_server/emailAddress=119_RANCHICA@test_ca.com, O=CITRIX
        Subject Public Key Info:
            Public Key Algorithm: rsaEncryption
                Public-Key: (2048 bit)
                Modulus:
                    00:96:e9:7f:48:b2:c0:76:7a:8a:d8:35:58:1b:cb:
                    a3:df:ab:fa:74:bf:35:cc:6b:94:8d:1e:06:94:d8:
                    cb:19:cb:82:a4:ff:33:60:ff:49:ac:2d:ce:f2:58:
                    e5:d5:d6:7a:d9:89:48:5b:40:fc:62:0a:c4:1f:cb:
                    20:6b:34:ee:c2:88:3a:42:53:cf:62:96:a5:52:6a:
                    08:93:22:3c:03:39:2b:8c:2e:f0:8e:73:cd:20:ab:
                    a2:24:46:dd:42:af:8b:ad:0b:c1:19:0d:6e:35:aa:
                    d4:2f:90:88:e0:09:b8:8f:58:43:c6:62:3a:90:a2:
                    d9:a0:f4:9f:6d:3b:90:af:4d:00:bb:c0:db:6c:84:
                    41:4c:00:a1:a7:0f:47:14:71:9d:9b:03:fe:00:fb:
                    71:2a:34:01:17:26:30:9a:6c:a0:84:51:bc:d4:b7:
                    c1:af:ec:84:cf:db:4b:76:e2:ef:90:9a:13:7d:08:
                    d2:41:a5:62:e1:ce:75:1c:bc:f8:23:a0:41:9e:f5:
                    0f:7e:7a:51:9c:29:2c:4f:d6:5a:57:cc:55:9c:2b:
                    f6:f1:d7:67:21:18:44:d5:0f:ce:60:2f:dd:8a:08:
                    10:2c:75:85:8b:68:a4:3b:49:0a:20:73:61:ca:fe:
                    d4:bf:d7:1a:db:9b:f9:6b:8b:99:ce:fc:b4:64:8c:
                    e5:cd
                Exponent: 65537 (0x10001)
        X509v3 extensions:
            Netscape Cert Type: 
                SSL Server
            X509v3 Subject Key Identifier: 
                72:F5:7E:10:85:04:B3:82:B6:1C:F3:06:2D:E9:1B:11:EF:65:8C:8D
            X509v3 Authority Key Identifier: 
                keyid:A7:10:6F:5D:0C:9F:9C:A2:F4:39:92:A3:7D:5C:B8:C0:25:71:BF:39
                DirName:/CN=RANCHICA_CA/C=IN/O=CITRIX/OU=ANG/ST=KA/emailAddress=RANCHICA_CA@RANCHICA_mail.com
                serial:E7:09:A4:3D:1C:C7:45:B1

            Authority Information Access: 
                OCSP - URI:http://RANCHICA_two.ocsptest.com/responderpath

    Signature Algorithm: sha256WithRSAEncryption
         48:fd:62:34:d5:bd:bc:8a:ab:94:5d:81:40:5c:cf:8b:9e:fe:
         96:fb:ac:40:92:2f:81:4a:36:5e:89:9f:9a:6b:ce:4e:14:86:
         9b:0b:b0:ad:9c:a7:f3:ef:3f:fe:c0:c8:3c:68:7f:b8:3c:90:
         65:a1:79:2c:8f:2b:3c:77:43:3a:e6:9e:c9:04:9c:a3:dc:be:
         17:a3:ae:50:45:81:1e:3d:f2:f5:d3:d5:9b:53:3b:e4:32:f4:
         8d:30:a9:4a:e7:b4:dc:20:66:57:31:4b:dc:bd:87:00:92:94:
         6b:b3:9f:e4:ee:ed:c6:c3:dd:e6:da:2c:9f:48:d3:21:aa:26:
         1c:5b:c5:0f:2e:9a:8a:f4:77:b6:44:52:ec:b7:88:1a:8b:41:
         96:ed:e4:59:e7:9c:32:da:90:89:57:59:53:b5:aa:6f:df:a2:
         dc:d6:c7:bc:7a:10:a1:f1:19:e9:1a:24:8c:53:c5:8e:e0:54:
         04:18:70:54:37:b6:55:d8:a9:f2:fd:1a:85:9e:d3:4d:8a:e1:
         53:03:11:1e:34:7c:3a:10:19:9c:50:98:07:2d:58:12:11:90:
         d4:7e:87:1c:ec:13:90:47:77:1a:96:20:2d:4d:1a:3b:5f:46:
         db:46:19:16:6e:5c:c3:d1:bf:24:97:3c:38:4a:03:e2:b4:e4:
         76:3f:19:07
-----BEGIN CERTIFICATE-----
MIIEpjCCA46gAwIBAgIGCgsMDQ4hMA0GCSqGSIb3DQEBCwUAMH0xFDASBgNVBAMU
C1JBTkNISUNBX0NBMQswCQYDVQQGEwJJTjEPMA0GA1UEChMGQ0lUUklYMQwwCgYD
VQQLEwNBTkcxCzAJBgNVBAgTAktBMSwwKgYJKoZIhvcNAQkBFh1SQU5DSElDQV9D
QUBSQU5DSElDQV9tYWlsLmNvbTAeFw0xNjA3MDgwNDM4NTJaFw0yNjA3MDYwNDM4
NTJaMHIxCzAJBgNVBAgTAktBMQswCQYDVQQGEwJJTjEcMBoGA1UEAxQTMTE5X1JB
TkNISUNBX3NlcnZlcjEnMCUGCSqGSIb3DQEJARYYMTE5X1JBTkNISUNBQHRlc3Rf
Y2EuY29tMQ8wDQYDVQQKEwZDSVRSSVgwggEiMA0GCSqGSIb3DQEBAQUAA4IBDwAw
ggEKAoIBAQCW6X9IssB2eorYNVgby6Pfq/p0vzXMa5SNHgaU2MsZy4Kk/zNg/0ms
Lc7yWOXV1nrZiUhbQPxiCsQfyyBrNO7CiDpCU89ilqVSagiTIjwDOSuMLvCOc80g
q6IkRt1Cr4utC8EZDW41qtQvkIjgCbiPWEPGYjqQotmg9J9tO5CvTQC7wNtshEFM
AKGnD0cUcZ2bA/4A+3EqNAEXJjCabKCEUbzUt8Gv7ITP20t24u+QmhN9CNJBpWLh
znUcvPgjoEGe9Q9+elGcKSxP1lpXzFWcK/bx12chGETVD85gL92KCBAsdYWLaKQ7
SQogc2HK/tS/1xrbm/lri5nO/LRkjOXNAgMBAAGjggE1MIIBMTARBglghkgBhvhC
AQEEBAMCBkAwHQYDVR0OBBYEFHL1fhCFBLOCthzzBi3pGxHvZYyNMIGwBgNVHSME
gagwgaWAFKcQb10Mn5yi9DmSo31cuMAlcb85oYGBpH8wfTEUMBIGA1UEAxQLUkFO
Q0hJQ0FfQ0ExCzAJBgNVBAYTAklOMQ8wDQYDVQQKEwZDSVRSSVgxDDAKBgNVBAsT
A0FORzELMAkGA1UECBMCS0ExLDAqBgkqhkiG9w0BCQEWHVJBTkNISUNBX0NBQFJB
TkNISUNBX21haWwuY29tggkA5wmkPRzHRbEwSgYIKwYBBQUHAQEEPjA8MDoGCCsG
AQUFBzABhi5odHRwOi8vUkFOQ0hJQ0FfdHdvLm9jc3B0ZXN0LmNvbS9yZXNwb25k
ZXJwYXRoMA0GCSqGSIb3DQEBCwUAA4IBAQBI/WI01b28iquUXYFAXM+Lnv6W+6xA
ki+BSjZeiZ+aa85OFIabC7CtnKfz7z/+wMg8aH+4PJBloXksjys8d0M65p7JBJyj
3L4Xo65QRYEePfL109WbUzvkMvSNMKlK57TcIGZXMUvcvYcAkpRrs5/k7u3Gw93m
2iyfSNMhqiYcW8UPLpqK9He2RFLst4gai0GW7eRZ55wy2pCJV1lTtapv36Lc1se8
ehCh8RnpGiSMU8WO4FQEGHBUN7ZV2Kny/RqFntNNiuFTAxEeNHw6EBmcUJgHLVgS
EZDUfocc7BOQR3caliAtTRo7X0bbRhkWblzD0b8klzw4SgPitOR2PxkH
-----END CERTIFICATE-----
