Certificate:
    Data:
        Version: 3 (0x2)
        Serial Number: 11042563100208 (0xa0b0c0d0e30)
    Signature Algorithm: sha256WithRSAEncryption
        Issuer: CN=RANCHICA_CA, C=IN, O=CITRIX, OU=ANG, ST=KA/emailAddress=RANCHICA_CA@RANCHICA_mail.com
        Validity
            Not Before: Jul  8 04:38:56 2016 GMT
            Not After : Jul  6 04:38:56 2026 GMT
        Subject: ST=KA, C=IN, CN=134_RANCHICA_server/emailAddress=134_RANCHICA@test_ca.com, O=CITRIX
        Subject Public Key Info:
            Public Key Algorithm: rsaEncryption
                Public-Key: (2048 bit)
                Modulus:
                    00:ba:7e:be:53:e8:8d:33:0c:68:52:8e:26:79:03:
                    94:04:c4:03:1d:2b:16:b9:b9:1c:04:bc:b7:6f:7d:
                    14:50:ff:ef:3b:37:08:de:65:57:c0:a8:68:1b:57:
                    fd:1d:4e:49:20:28:9a:94:34:25:8a:10:11:4d:66:
                    aa:8a:e1:b6:c1:a0:24:79:bf:e2:02:78:d5:dc:40:
                    4d:99:92:4d:c2:1c:d8:96:05:4e:ad:8e:a9:cc:9a:
                    78:94:47:e9:4a:b5:a6:51:82:80:0f:b7:14:eb:e2:
                    d4:33:7c:2b:36:0b:35:db:bf:94:d2:eb:27:26:70:
                    20:36:a6:ca:64:b2:75:a5:e3:95:e3:9a:31:9d:22:
                    f9:08:07:fc:18:4e:6f:5a:4b:96:f7:95:0f:30:ae:
                    ec:3a:25:34:44:fb:e9:df:a3:30:5c:28:8d:02:e9:
                    c7:68:49:76:31:2f:a4:6e:fa:1b:90:6a:2d:4b:47:
                    b1:92:62:5b:c2:5c:1a:a4:36:df:66:68:ff:20:ca:
                    08:68:7c:c8:40:60:d5:cb:eb:6a:1a:e7:2f:95:14:
                    73:b3:2d:b3:f5:cb:6b:2d:b3:74:f3:c9:ec:06:6a:
                    ba:e8:8c:1a:13:f2:89:fa:96:72:2b:14:ac:2e:73:
                    9f:5e:7e:f7:5f:b5:ad:67:f6:e2:58:50:0d:f1:9f:
                    dc:43
                Exponent: 65537 (0x10001)
        X509v3 extensions:
            Netscape Cert Type: 
                SSL Server
            X509v3 Subject Key Identifier: 
                83:06:61:EF:52:6A:DC:00:DD:74:88:72:68:93:24:22:00:43:C7:42
            X509v3 Authority Key Identifier: 
                keyid:A7:10:6F:5D:0C:9F:9C:A2:F4:39:92:A3:7D:5C:B8:C0:25:71:BF:39
                DirName:/CN=RANCHICA_CA/C=IN/O=CITRIX/OU=ANG/ST=KA/emailAddress=RANCHICA_CA@RANCHICA_mail.com
                serial:E7:09:A4:3D:1C:C7:45:B1

            Authority Information Access: 
                OCSP - URI:http://172.27.20.1/responderpath

    Signature Algorithm: sha256WithRSAEncryption
         5a:fa:67:5f:39:37:e6:bc:90:05:18:a2:56:9c:4b:d3:2e:51:
         ad:b9:05:70:92:4a:b7:88:6a:60:b9:e5:ad:3b:25:58:0d:2b:
         d5:c4:62:cb:48:5f:7f:91:d5:36:74:b0:d2:72:f4:79:cb:a3:
         d2:4c:da:f1:09:73:6b:61:79:cf:b4:31:36:f1:d9:9a:80:1b:
         2c:dd:64:46:d0:c9:08:1c:9d:79:73:6e:3c:6e:34:9c:70:e0:
         3d:53:9f:1f:1e:e4:7b:7b:a4:5c:8b:f6:c8:ad:0c:0e:c1:39:
         e7:ee:54:59:da:27:fb:70:44:da:75:3d:cb:b3:82:01:f7:ca:
         83:ce:6a:59:ab:2f:0b:09:a2:60:a0:56:d9:2b:ed:c9:9e:02:
         9c:b0:70:91:27:c1:83:db:6d:be:6f:8e:e3:f2:ba:9b:40:00:
         d5:6e:5a:1a:cc:62:28:1b:d2:7d:ce:d5:c7:42:12:84:b4:d4:
         5a:e5:5a:f8:e9:27:4f:d9:55:5f:fc:4f:bd:9b:b5:f1:a7:41:
         95:ad:a0:a9:de:26:5a:b6:ce:10:9c:12:48:e8:68:25:60:a6:
         60:09:08:f6:24:64:e4:9b:60:e7:2f:21:72:dd:ce:9d:56:c9:
         cf:f7:0d:90:e2:47:e4:b9:f3:0a:06:42:4a:bb:38:6e:65:dc:
         8d:9d:bd:f5
-----BEGIN CERTIFICATE-----
MIIEmDCCA4CgAwIBAgIGCgsMDQ4wMA0GCSqGSIb3DQEBCwUAMH0xFDASBgNVBAMU
C1JBTkNISUNBX0NBMQswCQYDVQQGEwJJTjEPMA0GA1UEChMGQ0lUUklYMQwwCgYD
VQQLEwNBTkcxCzAJBgNVBAgTAktBMSwwKgYJKoZIhvcNAQkBFh1SQU5DSElDQV9D
QUBSQU5DSElDQV9tYWlsLmNvbTAeFw0xNjA3MDgwNDM4NTZaFw0yNjA3MDYwNDM4
NTZaMHIxCzAJBgNVBAgTAktBMQswCQYDVQQGEwJJTjEcMBoGA1UEAxQTMTM0X1JB
TkNISUNBX3NlcnZlcjEnMCUGCSqGSIb3DQEJARYYMTM0X1JBTkNISUNBQHRlc3Rf
Y2EuY29tMQ8wDQYDVQQKEwZDSVRSSVgwggEiMA0GCSqGSIb3DQEBAQUAA4IBDwAw
ggEKAoIBAQC6fr5T6I0zDGhSjiZ5A5QExAMdKxa5uRwEvLdvfRRQ/+87NwjeZVfA
qGgbV/0dTkkgKJqUNCWKEBFNZqqK4bbBoCR5v+ICeNXcQE2Zkk3CHNiWBU6tjqnM
mniUR+lKtaZRgoAPtxTr4tQzfCs2CzXbv5TS6ycmcCA2pspksnWl45XjmjGdIvkI
B/wYTm9aS5b3lQ8wruw6JTRE++nfozBcKI0C6cdoSXYxL6Ru+huQai1LR7GSYlvC
XBqkNt9maP8gyghofMhAYNXL62oa5y+VFHOzLbP1y2sts3TzyewGarrojBoT8on6
lnIrFKwuc59efvdfta1n9uJYUA3xn9xDAgMBAAGjggEnMIIBIzARBglghkgBhvhC
AQEEBAMCBkAwHQYDVR0OBBYEFIMGYe9SatwA3XSIcmiTJCIAQ8dCMIGwBgNVHSME
gagwgaWAFKcQb10Mn5yi9DmSo31cuMAlcb85oYGBpH8wfTEUMBIGA1UEAxQLUkFO
Q0hJQ0FfQ0ExCzAJBgNVBAYTAklOMQ8wDQYDVQQKEwZDSVRSSVgxDDAKBgNVBAsT
A0FORzELMAkGA1UECBMCS0ExLDAqBgkqhkiG9w0BCQEWHVJBTkNISUNBX0NBQFJB
TkNISUNBX21haWwuY29tggkA5wmkPRzHRbEwPAYIKwYBBQUHAQEEMDAuMCwGCCsG
AQUFBzABhiBodHRwOi8vMTcyLjI3LjIwLjEvcmVzcG9uZGVycGF0aDANBgkqhkiG
9w0BAQsFAAOCAQEAWvpnXzk35ryQBRiiVpxL0y5RrbkFcJJKt4hqYLnlrTslWA0r
1cRiy0hff5HVNnSw0nL0ecuj0kza8Qlza2F5z7QxNvHZmoAbLN1kRtDJCBydeXNu
PG40nHDgPVOfHx7ke3ukXIv2yK0MDsE55+5UWdon+3BE2nU9y7OCAffKg85qWasv
CwmiYKBW2SvtyZ4CnLBwkSfBg9ttvm+O4/K6m0AA1W5aGsxiKBvSfc7Vx0IShLTU
WuVa+OknT9lVX/xPvZu18adBla2gqd4mWrbOEJwSSOhoJWCmYAkI9iRk5Jtg5y8h
ct3OnVbJz/cNkOJH5LnzCgZCSrs4bmXcjZ299Q==
-----END CERTIFICATE-----
