Certificate:
    Data:
        Version: 3 (0x2)
        Serial Number: 11042563100175 (0xa0b0c0d0e0f)
    Signature Algorithm: sha256WithRSAEncryption
        Issuer: CN=RANCHICA_CA, C=IN, O=CITRIX, OU=ANG, ST=KA/emailAddress=RANCHICA_CA@RANCHICA_mail.com
        Validity
            Not Before: Jul  8 04:38:48 2016 GMT
            Not After : Jul  6 04:38:48 2026 GMT
        Subject: ST=KA, C=IN, CN=101_RANCHICA_server/emailAddress=101_RANCHICA@test_ca.com, O=CITRIX
        Subject Public Key Info:
            Public Key Algorithm: rsaEncryption
                Public-Key: (2048 bit)
                Modulus:
                    00:cf:fb:93:fd:82:80:9e:23:ca:ea:24:e8:f8:e2:
                    17:68:9e:35:8c:1e:d2:f8:1f:b3:ca:b1:1a:02:13:
                    12:f9:43:6c:03:b5:57:cb:d7:bf:7d:f3:24:5c:dd:
                    45:de:f2:7d:79:42:9d:99:92:43:9a:57:3b:26:86:
                    1d:08:1b:e7:c6:a9:53:b4:0c:86:44:4b:36:f3:74:
                    81:af:88:41:0b:55:f2:2c:67:c2:d2:da:6e:12:f3:
                    b6:b8:59:7d:e1:90:e7:3a:be:2a:9d:f6:ed:9d:58:
                    49:55:4e:f0:df:12:67:44:2e:a1:17:d6:ab:9b:59:
                    b7:14:0f:8c:62:2f:92:bd:96:90:5c:79:e7:50:56:
                    bf:0e:fb:8b:71:60:57:e9:59:dc:e2:31:8c:7e:c4:
                    01:32:e6:08:6b:85:4c:f6:62:f4:6e:f7:b5:6a:c4:
                    73:de:1b:0b:50:d3:3e:df:6a:07:18:c1:2f:13:7c:
                    13:80:e6:10:2e:eb:06:e5:bb:7d:f6:57:13:27:d5:
                    37:69:eb:24:82:59:35:70:86:a6:c6:2a:04:66:98:
                    9e:47:94:d1:f7:c6:1a:c0:b5:69:05:e8:dd:46:ea:
                    50:43:66:1d:a5:49:7e:db:ff:dc:83:90:6a:bb:cf:
                    8d:80:55:7d:af:7d:ea:15:f6:78:1f:4d:ae:8d:b1:
                    0f:d1
                Exponent: 65537 (0x10001)
        X509v3 extensions:
            Netscape Cert Type: 
                SSL Server
            X509v3 Subject Key Identifier: 
                15:38:25:8E:92:23:4B:EB:4C:4B:27:D8:58:6E:1D:FC:07:A7:8E:06
            X509v3 Authority Key Identifier: 
                keyid:A7:10:6F:5D:0C:9F:9C:A2:F4:39:92:A3:7D:5C:B8:C0:25:71:BF:39
                DirName:/CN=RANCHICA_CA/C=IN/O=CITRIX/OU=ANG/ST=KA/emailAddress=RANCHICA_CA@RANCHICA_mail.com
                serial:E7:09:A4:3D:1C:C7:45:B1

            Authority Information Access: 
                OCSP - URI:http://RANCHICA_one.ocsptest.com/responderpath

    Signature Algorithm: sha256WithRSAEncryption
         49:5e:cf:5f:50:20:e6:4f:a9:0a:5b:90:e3:87:6e:e5:fd:a6:
         4a:31:9d:98:cf:b0:71:a2:89:82:ad:0f:6a:e2:6f:8f:bf:bf:
         f5:0a:86:f9:35:2d:8a:8d:3a:99:82:0a:b6:fd:14:ac:f0:96:
         48:d6:ad:94:0d:7f:17:d1:3a:db:d4:06:73:55:f3:fa:34:25:
         fe:01:45:d3:ec:e1:85:aa:50:1b:b8:ed:b4:24:26:75:06:cc:
         b9:ee:f5:ad:da:9e:fa:37:5d:04:1c:da:02:1c:3f:3b:40:79:
         0d:eb:ae:e2:c6:b6:69:62:62:b4:13:48:20:4d:5c:30:ac:39:
         0b:43:04:23:7f:e4:37:72:0b:66:c9:a3:98:ce:45:0c:57:8e:
         e9:78:ae:e5:60:ff:ed:eb:18:77:8d:39:20:42:73:18:87:f1:
         9c:49:7d:c9:a5:63:69:5d:81:b8:c5:f7:6e:55:f2:a8:2a:54:
         a7:42:ec:3e:f0:6b:9e:2a:c8:1f:0a:93:17:cc:71:5a:af:84:
         1d:75:33:7b:95:2b:03:0e:53:17:0a:d4:75:e1:8a:20:db:8c:
         cb:d0:8d:fb:6c:6e:e2:ac:c8:f3:ce:ae:de:dd:4c:62:9c:a4:
         cd:f5:18:55:44:57:e2:9c:42:5d:8e:7e:cb:cc:9b:b9:f0:62:
         4e:47:22:34
-----BEGIN CERTIFICATE-----
MIIEpjCCA46gAwIBAgIGCgsMDQ4PMA0GCSqGSIb3DQEBCwUAMH0xFDASBgNVBAMU
C1JBTkNISUNBX0NBMQswCQYDVQQGEwJJTjEPMA0GA1UEChMGQ0lUUklYMQwwCgYD
VQQLEwNBTkcxCzAJBgNVBAgTAktBMSwwKgYJKoZIhvcNAQkBFh1SQU5DSElDQV9D
QUBSQU5DSElDQV9tYWlsLmNvbTAeFw0xNjA3MDgwNDM4NDhaFw0yNjA3MDYwNDM4
NDhaMHIxCzAJBgNVBAgTAktBMQswCQYDVQQGEwJJTjEcMBoGA1UEAxQTMTAxX1JB
TkNISUNBX3NlcnZlcjEnMCUGCSqGSIb3DQEJARYYMTAxX1JBTkNISUNBQHRlc3Rf
Y2EuY29tMQ8wDQYDVQQKEwZDSVRSSVgwggEiMA0GCSqGSIb3DQEBAQUAA4IBDwAw
ggEKAoIBAQDP+5P9goCeI8rqJOj44hdonjWMHtL4H7PKsRoCExL5Q2wDtVfL1799
8yRc3UXe8n15Qp2ZkkOaVzsmhh0IG+fGqVO0DIZESzbzdIGviEELVfIsZ8LS2m4S
87a4WX3hkOc6viqd9u2dWElVTvDfEmdELqEX1qubWbcUD4xiL5K9lpBceedQVr8O
+4txYFfpWdziMYx+xAEy5ghrhUz2YvRu97VqxHPeGwtQ0z7fagcYwS8TfBOA5hAu
6wblu332VxMn1Tdp6ySCWTVwhqbGKgRmmJ5HlNH3xhrAtWkF6N1G6lBDZh2lSX7b
/9yDkGq7z42AVX2vfeoV9ngfTa6NsQ/RAgMBAAGjggE1MIIBMTARBglghkgBhvhC
AQEEBAMCBkAwHQYDVR0OBBYEFBU4JY6SI0vrTEsn2FhuHfwHp44GMIGwBgNVHSME
gagwgaWAFKcQb10Mn5yi9DmSo31cuMAlcb85oYGBpH8wfTEUMBIGA1UEAxQLUkFO
Q0hJQ0FfQ0ExCzAJBgNVBAYTAklOMQ8wDQYDVQQKEwZDSVRSSVgxDDAKBgNVBAsT
A0FORzELMAkGA1UECBMCS0ExLDAqBgkqhkiG9w0BCQEWHVJBTkNISUNBX0NBQFJB
TkNISUNBX21haWwuY29tggkA5wmkPRzHRbEwSgYIKwYBBQUHAQEEPjA8MDoGCCsG
AQUFBzABhi5odHRwOi8vUkFOQ0hJQ0Ffb25lLm9jc3B0ZXN0LmNvbS9yZXNwb25k
ZXJwYXRoMA0GCSqGSIb3DQEBCwUAA4IBAQBJXs9fUCDmT6kKW5Djh27l/aZKMZ2Y
z7BxoomCrQ9q4m+Pv7/1Cob5NS2KjTqZggq2/RSs8JZI1q2UDX8X0Trb1AZzVfP6
NCX+AUXT7OGFqlAbuO20JCZ1Bsy57vWt2p76N10EHNoCHD87QHkN667ixrZpYmK0
E0ggTVwwrDkLQwQjf+Q3cgtmyaOYzkUMV47peK7lYP/t6xh3jTkgQnMYh/GcSX3J
pWNpXYG4xfduVfKoKlSnQuw+8GueKsgfCpMXzHFar4QddTN7lSsDDlMXCtR14Yog
24zL0I37bG7irMjzzq7e3UxinKTN9RhVRFfinEJdjn7LzJu58GJORyI0
-----END CERTIFICATE-----
