Certificate:
    Data:
        Version: 3 (0x2)
        Serial Number: 11042563100178 (0xa0b0c0d0e12)
    Signature Algorithm: sha256WithRSAEncryption
        Issuer: CN=RANCHICA_CA, C=IN, O=CITRIX, OU=ANG, ST=KA/emailAddress=RANCHICA_CA@RANCHICA_mail.com
        Validity
            Not Before: Jul  8 04:38:48 2016 GMT
            Not After : Jul  6 04:38:48 2026 GMT
        Subject: ST=KA, C=IN, CN=104_RANCHICA_server/emailAddress=104_RANCHICA@test_ca.com, O=CITRIX
        Subject Public Key Info:
            Public Key Algorithm: rsaEncryption
                Public-Key: (2048 bit)
                Modulus:
                    00:cb:ff:97:aa:3f:e7:00:5d:c4:6c:ff:09:37:98:
                    4b:12:c2:ee:4b:47:a4:e3:08:22:b2:49:62:e5:9d:
                    82:fd:06:8e:8c:2e:8a:c5:4e:fc:27:c5:33:64:57:
                    81:90:c0:e8:3b:b0:10:f8:db:99:38:94:57:a9:07:
                    4c:e6:6c:0d:a3:fc:13:08:17:3c:31:7e:0e:c6:0b:
                    07:41:d4:f6:53:d9:d1:be:34:35:76:4a:18:9d:88:
                    8b:c1:48:59:2e:95:7a:96:4a:2f:04:64:ba:8f:25:
                    62:66:01:c8:7a:ad:fb:12:f5:26:09:8f:a8:4a:3f:
                    8a:8b:e8:f9:4b:01:85:fd:1a:93:b6:6e:95:b4:bd:
                    31:94:21:32:95:73:48:a8:09:22:83:50:a8:f6:2a:
                    31:ea:48:1c:c0:cd:b0:10:88:17:30:3a:e5:c4:c2:
                    f3:d2:12:8d:3a:dd:d9:f8:78:cb:9d:81:3c:88:f6:
                    1a:de:a9:5f:d9:42:e1:3b:22:6e:20:0f:a1:9c:d8:
                    33:7e:f4:13:59:a0:8f:72:05:ec:f3:34:e8:0d:a4:
                    2e:76:59:a6:c2:85:b3:fd:e6:cf:2a:67:da:3f:55:
                    ee:15:1c:e0:c1:d7:bd:6d:11:a3:ed:d1:0f:80:8e:
                    38:e6:7a:54:8a:b8:c0:54:4c:d6:d2:25:d4:46:1f:
                    59:59
                Exponent: 65537 (0x10001)
        X509v3 extensions:
            Netscape Cert Type: 
                SSL Server
            X509v3 Subject Key Identifier: 
                AD:BE:88:6C:45:3F:20:30:F8:9E:F2:17:A6:F4:67:EB:6E:08:07:1B
            X509v3 Authority Key Identifier: 
                keyid:A7:10:6F:5D:0C:9F:9C:A2:F4:39:92:A3:7D:5C:B8:C0:25:71:BF:39
                DirName:/CN=RANCHICA_CA/C=IN/O=CITRIX/OU=ANG/ST=KA/emailAddress=RANCHICA_CA@RANCHICA_mail.com
                serial:E7:09:A4:3D:1C:C7:45:B1

            Authority Information Access: 
                OCSP - URI:http://RANCHICA_one.ocsptest.com/responderpath

    Signature Algorithm: sha256WithRSAEncryption
         6d:dc:64:8d:c6:14:d9:86:d5:13:e2:2e:90:c7:88:af:38:da:
         e1:d6:9a:d0:74:8d:25:c9:89:9e:ac:97:62:1a:b3:54:0e:c6:
         eb:e2:64:53:97:e0:b2:68:d2:35:ea:8b:bd:89:84:8d:95:df:
         3c:09:bc:40:3f:41:d0:12:71:a2:30:a8:6d:95:cd:21:fe:3d:
         3c:25:8d:fc:79:81:b0:64:19:59:48:49:f0:e6:72:fb:7e:30:
         28:c9:74:36:5c:8c:da:73:26:f1:42:83:ed:d3:7f:fc:88:94:
         9b:57:19:9e:c2:53:e9:76:d3:d2:89:ef:e5:b5:a0:54:c0:57:
         8c:ba:e7:44:97:0c:6a:bb:89:c6:ef:6f:40:00:b4:8b:79:35:
         40:98:cb:3b:29:a5:58:6d:7c:83:9c:76:83:5d:d3:53:aa:ba:
         00:82:7b:b6:83:0f:ea:2e:f7:9b:71:7a:b9:26:5b:b7:91:d2:
         cb:8b:2f:87:e9:95:20:7a:46:fa:0e:61:47:c5:9c:ca:57:23:
         56:93:90:eb:5f:e4:7b:47:2e:d7:22:25:40:f2:36:39:9d:c0:
         c1:27:a1:0c:71:c0:8e:95:0e:7c:db:da:7b:19:c8:48:b7:80:
         e8:7f:23:11:ea:c5:1c:a6:d1:53:d6:1b:23:ce:53:eb:d4:57:
         1a:dc:02:77
-----BEGIN CERTIFICATE-----
MIIEpjCCA46gAwIBAgIGCgsMDQ4SMA0GCSqGSIb3DQEBCwUAMH0xFDASBgNVBAMU
C1JBTkNISUNBX0NBMQswCQYDVQQGEwJJTjEPMA0GA1UEChMGQ0lUUklYMQwwCgYD
VQQLEwNBTkcxCzAJBgNVBAgTAktBMSwwKgYJKoZIhvcNAQkBFh1SQU5DSElDQV9D
QUBSQU5DSElDQV9tYWlsLmNvbTAeFw0xNjA3MDgwNDM4NDhaFw0yNjA3MDYwNDM4
NDhaMHIxCzAJBgNVBAgTAktBMQswCQYDVQQGEwJJTjEcMBoGA1UEAxQTMTA0X1JB
TkNISUNBX3NlcnZlcjEnMCUGCSqGSIb3DQEJARYYMTA0X1JBTkNISUNBQHRlc3Rf
Y2EuY29tMQ8wDQYDVQQKEwZDSVRSSVgwggEiMA0GCSqGSIb3DQEBAQUAA4IBDwAw
ggEKAoIBAQDL/5eqP+cAXcRs/wk3mEsSwu5LR6TjCCKySWLlnYL9Bo6MLorFTvwn
xTNkV4GQwOg7sBD425k4lFepB0zmbA2j/BMIFzwxfg7GCwdB1PZT2dG+NDV2Shid
iIvBSFkulXqWSi8EZLqPJWJmAch6rfsS9SYJj6hKP4qL6PlLAYX9GpO2bpW0vTGU
ITKVc0ioCSKDUKj2KjHqSBzAzbAQiBcwOuXEwvPSEo063dn4eMudgTyI9hreqV/Z
QuE7Im4gD6Gc2DN+9BNZoI9yBezzNOgNpC52WabChbP95s8qZ9o/Ve4VHODB171t
EaPt0Q+AjjjmelSKuMBUTNbSJdRGH1lZAgMBAAGjggE1MIIBMTARBglghkgBhvhC
AQEEBAMCBkAwHQYDVR0OBBYEFK2+iGxFPyAw+J7yF6b0Z+tuCAcbMIGwBgNVHSME
gagwgaWAFKcQb10Mn5yi9DmSo31cuMAlcb85oYGBpH8wfTEUMBIGA1UEAxQLUkFO
Q0hJQ0FfQ0ExCzAJBgNVBAYTAklOMQ8wDQYDVQQKEwZDSVRSSVgxDDAKBgNVBAsT
A0FORzELMAkGA1UECBMCS0ExLDAqBgkqhkiG9w0BCQEWHVJBTkNISUNBX0NBQFJB
TkNISUNBX21haWwuY29tggkA5wmkPRzHRbEwSgYIKwYBBQUHAQEEPjA8MDoGCCsG
AQUFBzABhi5odHRwOi8vUkFOQ0hJQ0Ffb25lLm9jc3B0ZXN0LmNvbS9yZXNwb25k
ZXJwYXRoMA0GCSqGSIb3DQEBCwUAA4IBAQBt3GSNxhTZhtUT4i6Qx4ivONrh1prQ
dI0lyYmerJdiGrNUDsbr4mRTl+CyaNI16ou9iYSNld88CbxAP0HQEnGiMKhtlc0h
/j08JY38eYGwZBlZSEnw5nL7fjAoyXQ2XIzacybxQoPt03/8iJSbVxmewlPpdtPS
ie/ltaBUwFeMuudElwxqu4nG729AALSLeTVAmMs7KaVYbXyDnHaDXdNTqroAgnu2
gw/qLvebcXq5Jlu3kdLLiy+H6ZUgekb6DmFHxZzKVyNWk5DrX+R7Ry7XIiVA8jY5
ncDBJ6EMccCOlQ5829p7GchIt4DofyMR6sUcptFT1hsjzlPr1Fca3AJ3
-----END CERTIFICATE-----
