Certificate:
    Data:
        Version: 3 (0x2)
        Serial Number: 11042563100210 (0xa0b0c0d0e32)
    Signature Algorithm: sha256WithRSAEncryption
        Issuer: CN=RANCHICA_CA, C=IN, O=CITRIX, OU=ANG, ST=KA/emailAddress=RANCHICA_CA@RANCHICA_mail.com
        Validity
            Not Before: Jul  8 04:38:57 2016 GMT
            Not After : Jul  6 04:38:57 2026 GMT
        Subject: ST=KA, C=IN, CN=136_RANCHICA_server/emailAddress=136_RANCHICA@test_ca.com, O=CITRIX
        Subject Public Key Info:
            Public Key Algorithm: rsaEncryption
                Public-Key: (2048 bit)
                Modulus:
                    00:c9:43:2b:df:9c:6f:f3:b9:52:72:e1:3f:b6:d9:
                    3b:35:3a:a2:35:0d:4a:8e:23:5c:a1:df:d2:ec:4c:
                    ec:b8:2e:fd:ed:8f:dd:a3:cb:50:4b:c4:7f:79:9a:
                    d9:46:d4:75:93:04:04:17:b5:3a:5a:85:47:de:a3:
                    cc:14:9f:1f:68:1c:52:79:78:cf:a8:16:ef:62:67:
                    f3:a7:5f:79:79:f3:28:c7:d6:50:3d:5e:3f:73:3b:
                    cd:6d:2d:5f:b6:bf:a9:e2:6f:61:bc:03:9c:ac:3b:
                    d7:92:3a:7b:60:87:9f:b1:c5:a0:71:e7:79:e8:c1:
                    c3:89:02:7a:ba:ca:44:6b:1f:c3:61:8a:4d:5b:9c:
                    d7:33:16:67:97:fe:32:20:b7:35:0a:61:71:97:be:
                    40:85:22:79:99:b3:5c:cb:2f:74:24:b9:68:48:ac:
                    24:d7:9e:60:2d:b3:ac:c5:1b:4f:91:01:30:9d:8c:
                    5b:cc:0d:4a:f5:40:fa:7a:b7:cf:43:34:18:bd:70:
                    e5:63:66:0e:c7:49:d7:ac:cf:47:d0:7d:50:cc:fd:
                    aa:4f:48:21:c5:68:14:0c:cb:57:7d:4e:44:bf:e4:
                    a7:6f:0e:e2:fc:ab:e5:09:2c:51:67:dc:6e:d5:a3:
                    2a:e4:a7:95:b0:93:58:4d:52:36:6b:32:70:ef:52:
                    fa:c9
                Exponent: 65537 (0x10001)
        X509v3 extensions:
            Netscape Cert Type: 
                SSL Server
            X509v3 Subject Key Identifier: 
                2D:E9:E7:0F:E5:89:99:5D:60:BB:0B:52:0F:A4:8F:C3:1E:4C:0F:44
            X509v3 Authority Key Identifier: 
                keyid:A7:10:6F:5D:0C:9F:9C:A2:F4:39:92:A3:7D:5C:B8:C0:25:71:BF:39
                DirName:/CN=RANCHICA_CA/C=IN/O=CITRIX/OU=ANG/ST=KA/emailAddress=RANCHICA_CA@RANCHICA_mail.com
                serial:E7:09:A4:3D:1C:C7:45:B1

            Authority Information Access: 
                OCSP - URI:http://172.27.20.1/responderpath

    Signature Algorithm: sha256WithRSAEncryption
         23:80:a2:58:2d:cf:5b:8c:87:cc:88:9b:62:f9:f2:67:0e:ea:
         e0:92:16:f9:49:b4:8d:a5:6c:9d:0a:88:52:9a:89:f5:43:32:
         e6:fa:0f:a9:ea:d1:22:91:6a:53:ae:09:44:27:d8:cc:a6:01:
         1f:43:e2:f3:25:12:d4:e8:07:41:a6:27:1a:1a:74:f0:41:92:
         65:0d:ca:a3:9a:e1:44:a8:19:5c:ea:83:08:60:65:51:4d:59:
         1a:9b:90:94:a6:d9:ab:46:07:34:e9:fe:4d:a6:11:ae:d2:ce:
         3b:7d:e0:00:d0:82:b3:8b:17:1d:0d:8a:7c:b9:c2:80:3a:8d:
         03:34:10:4b:30:fb:50:f5:6a:33:92:38:7d:9d:b3:99:20:84:
         30:bd:14:e7:51:11:83:64:c4:63:d5:e9:d5:3d:24:f5:8c:0c:
         5b:34:34:a4:f9:6e:22:a3:d2:cc:12:c3:97:20:cb:45:cf:f9:
         e3:90:8a:7d:90:4f:cf:24:66:14:66:4c:27:c0:62:61:91:87:
         4a:9c:7a:dc:49:b4:3d:14:1b:d0:88:92:ce:df:ab:33:48:d6:
         eb:7c:39:9f:b2:88:55:59:5a:0c:ba:00:d6:80:73:97:59:c3:
         6f:c5:9d:28:c2:89:f9:de:c1:91:29:93:8a:6f:81:30:29:4b:
         ff:9f:14:d9
-----BEGIN CERTIFICATE-----
MIIEmDCCA4CgAwIBAgIGCgsMDQ4yMA0GCSqGSIb3DQEBCwUAMH0xFDASBgNVBAMU
C1JBTkNISUNBX0NBMQswCQYDVQQGEwJJTjEPMA0GA1UEChMGQ0lUUklYMQwwCgYD
VQQLEwNBTkcxCzAJBgNVBAgTAktBMSwwKgYJKoZIhvcNAQkBFh1SQU5DSElDQV9D
QUBSQU5DSElDQV9tYWlsLmNvbTAeFw0xNjA3MDgwNDM4NTdaFw0yNjA3MDYwNDM4
NTdaMHIxCzAJBgNVBAgTAktBMQswCQYDVQQGEwJJTjEcMBoGA1UEAxQTMTM2X1JB
TkNISUNBX3NlcnZlcjEnMCUGCSqGSIb3DQEJARYYMTM2X1JBTkNISUNBQHRlc3Rf
Y2EuY29tMQ8wDQYDVQQKEwZDSVRSSVgwggEiMA0GCSqGSIb3DQEBAQUAA4IBDwAw
ggEKAoIBAQDJQyvfnG/zuVJy4T+22Ts1OqI1DUqOI1yh39LsTOy4Lv3tj92jy1BL
xH95mtlG1HWTBAQXtTpahUfeo8wUnx9oHFJ5eM+oFu9iZ/OnX3l58yjH1lA9Xj9z
O81tLV+2v6nib2G8A5ysO9eSOntgh5+xxaBx53nowcOJAnq6ykRrH8Nhik1bnNcz
FmeX/jIgtzUKYXGXvkCFInmZs1zLL3QkuWhIrCTXnmAts6zFG0+RATCdjFvMDUr1
QPp6t89DNBi9cOVjZg7HSdesz0fQfVDM/apPSCHFaBQMy1d9TkS/5KdvDuL8q+UJ
LFFn3G7Voyrkp5Wwk1hNUjZrMnDvUvrJAgMBAAGjggEnMIIBIzARBglghkgBhvhC
AQEEBAMCBkAwHQYDVR0OBBYEFC3p5w/liZldYLsLUg+kj8MeTA9EMIGwBgNVHSME
gagwgaWAFKcQb10Mn5yi9DmSo31cuMAlcb85oYGBpH8wfTEUMBIGA1UEAxQLUkFO
Q0hJQ0FfQ0ExCzAJBgNVBAYTAklOMQ8wDQYDVQQKEwZDSVRSSVgxDDAKBgNVBAsT
A0FORzELMAkGA1UECBMCS0ExLDAqBgkqhkiG9w0BCQEWHVJBTkNISUNBX0NBQFJB
TkNISUNBX21haWwuY29tggkA5wmkPRzHRbEwPAYIKwYBBQUHAQEEMDAuMCwGCCsG
AQUFBzABhiBodHRwOi8vMTcyLjI3LjIwLjEvcmVzcG9uZGVycGF0aDANBgkqhkiG
9w0BAQsFAAOCAQEAI4CiWC3PW4yHzIibYvnyZw7q4JIW+Um0jaVsnQqIUpqJ9UMy
5voPqerRIpFqU64JRCfYzKYBH0Pi8yUS1OgHQaYnGhp08EGSZQ3Ko5rhRKgZXOqD
CGBlUU1ZGpuQlKbZq0YHNOn+TaYRrtLOO33gANCCs4sXHQ2KfLnCgDqNAzQQSzD7
UPVqM5I4fZ2zmSCEML0U51ERg2TEY9Xp1T0k9YwMWzQ0pPluIqPSzBLDlyDLRc/5
45CKfZBPzyRmFGZMJ8BiYZGHSpx63Em0PRQb0IiSzt+rM0jW63w5n7KIVVlaDLoA
1oBzl1nDb8WdKMKJ+d7BkSmTim+BMClL/58U2Q==
-----END CERTIFICATE-----
