Certificate:
    Data:
        Version: 3 (0x2)
        Serial Number: 11042563100182 (0xa0b0c0d0e16)
    Signature Algorithm: sha256WithRSAEncryption
        Issuer: CN=RANCHICA_CA, C=IN, O=CITRIX, OU=ANG, ST=KA/emailAddress=RANCHICA_CA@RANCHICA_mail.com
        Validity
            Not Before: Jul  8 04:38:49 2016 GMT
            Not After : Jul  6 04:38:49 2026 GMT
        Subject: ST=KA, C=IN, CN=108_RANCHICA_server/emailAddress=108_RANCHICA@test_ca.com, O=CITRIX
        Subject Public Key Info:
            Public Key Algorithm: rsaEncryption
                Public-Key: (2048 bit)
                Modulus:
                    00:bc:a7:ba:73:fb:f6:54:63:69:f9:34:e0:e5:13:
                    b8:31:b1:dc:fb:d1:88:16:b3:b0:e4:82:81:f4:4c:
                    15:f2:bd:00:8a:c1:87:61:b5:83:b4:1b:af:a5:bf:
                    ec:42:15:d3:5b:12:d9:7e:0e:2a:6d:ba:e7:1c:f2:
                    de:53:55:9c:79:91:bd:63:af:61:6c:a5:12:ae:1a:
                    fb:54:7d:09:c5:99:9a:68:47:0a:73:31:46:16:03:
                    2c:83:88:48:00:02:8a:10:59:f3:d0:17:42:18:dc:
                    59:c3:ea:0c:3a:97:6b:2e:48:a2:96:08:4f:c8:12:
                    63:9f:2f:19:65:b9:ec:eb:66:11:da:9c:ad:e1:94:
                    73:3e:49:04:fe:b8:3c:11:d2:2e:05:ca:ac:95:61:
                    b8:d6:19:2d:5e:88:bf:b5:7b:d2:96:ea:0a:08:7a:
                    b7:0a:a4:31:9e:c2:41:d6:2f:27:61:4c:83:84:bb:
                    1e:52:10:0c:64:75:a1:eb:9e:52:32:e1:b1:cd:7d:
                    0b:a6:6c:71:bd:5a:cf:7c:95:4d:37:15:87:d1:85:
                    f6:d1:20:a1:60:6b:9d:80:fb:ce:66:d8:2f:3f:5b:
                    e0:70:ed:89:af:63:aa:70:be:86:c2:98:4a:f9:28:
                    34:5f:0f:38:e6:ab:b9:10:5e:cc:e1:f7:ec:fd:fa:
                    03:21
                Exponent: 65537 (0x10001)
        X509v3 extensions:
            Netscape Cert Type: 
                SSL Server
            X509v3 Subject Key Identifier: 
                A5:64:9E:44:14:8A:5F:BA:9E:B7:DD:D8:2D:BA:6B:F4:A8:13:DF:68
            X509v3 Authority Key Identifier: 
                keyid:A7:10:6F:5D:0C:9F:9C:A2:F4:39:92:A3:7D:5C:B8:C0:25:71:BF:39
                DirName:/CN=RANCHICA_CA/C=IN/O=CITRIX/OU=ANG/ST=KA/emailAddress=RANCHICA_CA@RANCHICA_mail.com
                serial:E7:09:A4:3D:1C:C7:45:B1

            Authority Information Access: 
                OCSP - URI:http://RANCHICA_one.ocsptest.com/responderpath

    Signature Algorithm: sha256WithRSAEncryption
         04:45:fd:b7:f4:43:35:e1:cc:b4:4d:5b:05:d2:e3:36:90:cf:
         6e:a4:ba:d7:29:36:41:81:41:bc:38:d0:df:1e:05:d2:ba:ed:
         e1:cc:d8:a1:93:5f:2d:68:77:8a:0d:d3:71:94:75:14:02:90:
         a9:78:03:78:c4:ed:37:32:75:cf:23:29:8c:f8:3f:7e:d3:9e:
         5a:67:a2:a7:1e:ae:40:f0:44:e4:21:c7:43:da:a5:10:18:2a:
         e9:a3:e7:18:d2:4b:2b:57:8e:1d:a1:1c:8f:a6:16:3c:90:c5:
         4e:09:40:5a:bc:51:3d:5b:04:48:d6:4f:bf:1e:e7:99:aa:51:
         85:e5:36:01:5b:13:9f:15:30:e3:14:f8:41:fc:1c:c3:b7:49:
         93:08:bc:37:86:0a:ff:2b:63:02:ab:86:c9:ed:e2:d0:b2:b0:
         da:cd:e3:4c:2a:6e:c9:c4:52:cd:98:a1:8a:5b:b7:72:c3:f7:
         41:9b:3b:4a:fb:fb:da:4c:e5:2e:aa:91:e4:58:fd:ee:1b:c1:
         90:8a:32:09:5c:c9:04:d5:a1:e3:7e:2c:79:f5:d8:ca:be:67:
         e2:81:71:fd:fa:f6:49:a2:e1:24:fe:8f:c0:0b:f1:20:23:36:
         f8:8b:2d:36:94:92:48:c9:c1:d6:4b:8d:2f:b5:78:06:e7:7d:
         0e:5a:a8:4f
-----BEGIN CERTIFICATE-----
MIIEpjCCA46gAwIBAgIGCgsMDQ4WMA0GCSqGSIb3DQEBCwUAMH0xFDASBgNVBAMU
C1JBTkNISUNBX0NBMQswCQYDVQQGEwJJTjEPMA0GA1UEChMGQ0lUUklYMQwwCgYD
VQQLEwNBTkcxCzAJBgNVBAgTAktBMSwwKgYJKoZIhvcNAQkBFh1SQU5DSElDQV9D
QUBSQU5DSElDQV9tYWlsLmNvbTAeFw0xNjA3MDgwNDM4NDlaFw0yNjA3MDYwNDM4
NDlaMHIxCzAJBgNVBAgTAktBMQswCQYDVQQGEwJJTjEcMBoGA1UEAxQTMTA4X1JB
TkNISUNBX3NlcnZlcjEnMCUGCSqGSIb3DQEJARYYMTA4X1JBTkNISUNBQHRlc3Rf
Y2EuY29tMQ8wDQYDVQQKEwZDSVRSSVgwggEiMA0GCSqGSIb3DQEBAQUAA4IBDwAw
ggEKAoIBAQC8p7pz+/ZUY2n5NODlE7gxsdz70YgWs7DkgoH0TBXyvQCKwYdhtYO0
G6+lv+xCFdNbEtl+Diptuucc8t5TVZx5kb1jr2FspRKuGvtUfQnFmZpoRwpzMUYW
AyyDiEgAAooQWfPQF0IY3FnD6gw6l2suSKKWCE/IEmOfLxlluezrZhHanK3hlHM+
SQT+uDwR0i4FyqyVYbjWGS1eiL+1e9KW6goIercKpDGewkHWLydhTIOEux5SEAxk
daHrnlIy4bHNfQumbHG9Ws98lU03FYfRhfbRIKFga52A+85m2C8/W+Bw7YmvY6pw
vobCmEr5KDRfDzjmq7kQXszh9+z9+gMhAgMBAAGjggE1MIIBMTARBglghkgBhvhC
AQEEBAMCBkAwHQYDVR0OBBYEFKVknkQUil+6nrfd2C26a/SoE99oMIGwBgNVHSME
gagwgaWAFKcQb10Mn5yi9DmSo31cuMAlcb85oYGBpH8wfTEUMBIGA1UEAxQLUkFO
Q0hJQ0FfQ0ExCzAJBgNVBAYTAklOMQ8wDQYDVQQKEwZDSVRSSVgxDDAKBgNVBAsT
A0FORzELMAkGA1UECBMCS0ExLDAqBgkqhkiG9w0BCQEWHVJBTkNISUNBX0NBQFJB
TkNISUNBX21haWwuY29tggkA5wmkPRzHRbEwSgYIKwYBBQUHAQEEPjA8MDoGCCsG
AQUFBzABhi5odHRwOi8vUkFOQ0hJQ0Ffb25lLm9jc3B0ZXN0LmNvbS9yZXNwb25k
ZXJwYXRoMA0GCSqGSIb3DQEBCwUAA4IBAQAERf239EM14cy0TVsF0uM2kM9upLrX
KTZBgUG8ONDfHgXSuu3hzNihk18taHeKDdNxlHUUApCpeAN4xO03MnXPIymM+D9+
055aZ6KnHq5A8ETkIcdD2qUQGCrpo+cY0ksrV44doRyPphY8kMVOCUBavFE9WwRI
1k+/HueZqlGF5TYBWxOfFTDjFPhB/BzDt0mTCLw3hgr/K2MCq4bJ7eLQsrDazeNM
Km7JxFLNmKGKW7dyw/dBmztK+/vaTOUuqpHkWP3uG8GQijIJXMkE1aHjfix59djK
vmfigXH9+vZJouEk/o/AC/EgIzb4iy02lJJIycHWS40vtXgG530OWqhP
-----END CERTIFICATE-----
