Certificate:
    Data:
        Version: 3 (0x2)
        Serial Number: 11042563100177 (0xa0b0c0d0e11)
    Signature Algorithm: sha256WithRSAEncryption
        Issuer: CN=RANCHICA_CA, C=IN, O=CITRIX, OU=ANG, ST=KA/emailAddress=RANCHICA_CA@RANCHICA_mail.com
        Validity
            Not Before: Jul  8 04:38:48 2016 GMT
            Not After : Jul  6 04:38:48 2026 GMT
        Subject: ST=KA, C=IN, CN=103_RANCHICA_server/emailAddress=103_RANCHICA@test_ca.com, O=CITRIX
        Subject Public Key Info:
            Public Key Algorithm: rsaEncryption
                Public-Key: (2048 bit)
                Modulus:
                    00:dd:6a:22:e0:2d:6e:4c:19:d0:b8:dc:2f:3e:d9:
                    44:89:2c:c1:34:1c:6b:21:56:2d:39:f2:15:5f:e2:
                    1f:33:f3:c9:ba:64:d5:44:25:b3:df:45:06:9a:95:
                    77:91:1d:ec:c5:cb:8f:bb:02:61:8b:7e:dc:0b:53:
                    30:f0:c0:49:b1:95:5f:f2:27:fa:05:2b:b6:e0:28:
                    df:57:d1:54:05:a8:a2:48:f8:8f:89:9d:f5:82:ec:
                    3c:d9:e1:0d:b9:8c:9a:35:4e:e2:60:62:ea:b0:b4:
                    3b:79:38:64:ad:dc:a4:02:c2:4d:9e:80:93:8c:9f:
                    99:a8:26:b4:cb:04:c2:ad:5c:13:dc:ec:77:ab:80:
                    04:94:7e:27:64:af:f5:29:6d:dd:b5:f0:e3:b9:86:
                    ad:df:0d:6c:80:35:e1:b1:7c:c9:81:64:2c:c9:8b:
                    03:cd:24:61:3a:e4:8d:ec:f0:1b:9e:46:0c:90:4a:
                    e8:36:f9:e6:5b:f5:81:8c:87:10:eb:c3:5f:ce:e4:
                    2d:91:da:d0:38:be:1a:e7:04:8c:e6:63:a3:0d:ed:
                    9d:56:47:ca:5b:24:eb:10:10:97:dd:8e:02:19:c7:
                    e2:96:bc:cd:91:8f:e8:c8:81:3a:df:93:5e:d3:26:
                    c9:39:34:8c:03:12:c4:23:d4:cc:61:32:bb:77:9b:
                    96:21
                Exponent: 65537 (0x10001)
        X509v3 extensions:
            Netscape Cert Type: 
                SSL Server
            X509v3 Subject Key Identifier: 
                EF:28:C6:07:2C:EC:36:E3:3C:88:A0:2A:E5:AC:D0:D8:AB:0F:6E:CD
            X509v3 Authority Key Identifier: 
                keyid:A7:10:6F:5D:0C:9F:9C:A2:F4:39:92:A3:7D:5C:B8:C0:25:71:BF:39
                DirName:/CN=RANCHICA_CA/C=IN/O=CITRIX/OU=ANG/ST=KA/emailAddress=RANCHICA_CA@RANCHICA_mail.com
                serial:E7:09:A4:3D:1C:C7:45:B1

            Authority Information Access: 
                OCSP - URI:http://RANCHICA_one.ocsptest.com/responderpath

    Signature Algorithm: sha256WithRSAEncryption
         07:6b:a0:3c:73:ff:68:3c:c6:cc:1a:1a:26:37:c4:85:40:05:
         8c:a9:c8:0b:04:28:b4:b5:11:31:74:45:67:2c:1a:38:de:f1:
         1e:56:2a:02:04:f1:7a:9a:3b:a3:15:64:50:f2:28:da:ba:6d:
         fe:04:24:a0:d3:74:8a:c5:7f:ea:67:75:a3:6e:97:34:19:52:
         66:62:13:53:d6:ff:dd:98:e6:4d:86:7f:69:81:d8:0c:c5:37:
         2b:1c:a2:22:86:9e:ef:eb:ce:9c:78:10:3e:6f:99:58:7d:dc:
         3e:28:69:6e:b0:56:82:16:6a:bd:54:b8:d8:78:65:b6:28:6b:
         52:95:f3:54:6b:23:b9:9e:13:84:98:c3:90:58:af:29:ce:f4:
         ca:6b:46:60:e1:64:d3:d2:06:6f:17:9f:4a:9d:cc:69:8b:89:
         49:66:13:0f:ad:23:d3:36:56:d2:91:81:55:6f:98:8e:d8:ec:
         df:33:ba:64:30:3c:c5:3c:5e:a0:ca:3c:f3:5f:52:5e:e2:b1:
         d5:16:f4:47:53:83:98:10:88:b2:39:80:54:6c:23:7f:52:3b:
         f5:66:2e:42:a5:b7:2b:72:68:8c:c6:bc:64:fc:5e:ed:10:a6:
         10:aa:bc:a7:1a:80:e7:6c:6b:69:d5:1e:26:29:0a:da:06:5f:
         9e:f2:69:a2
-----BEGIN CERTIFICATE-----
MIIEpjCCA46gAwIBAgIGCgsMDQ4RMA0GCSqGSIb3DQEBCwUAMH0xFDASBgNVBAMU
C1JBTkNISUNBX0NBMQswCQYDVQQGEwJJTjEPMA0GA1UEChMGQ0lUUklYMQwwCgYD
VQQLEwNBTkcxCzAJBgNVBAgTAktBMSwwKgYJKoZIhvcNAQkBFh1SQU5DSElDQV9D
QUBSQU5DSElDQV9tYWlsLmNvbTAeFw0xNjA3MDgwNDM4NDhaFw0yNjA3MDYwNDM4
NDhaMHIxCzAJBgNVBAgTAktBMQswCQYDVQQGEwJJTjEcMBoGA1UEAxQTMTAzX1JB
TkNISUNBX3NlcnZlcjEnMCUGCSqGSIb3DQEJARYYMTAzX1JBTkNISUNBQHRlc3Rf
Y2EuY29tMQ8wDQYDVQQKEwZDSVRSSVgwggEiMA0GCSqGSIb3DQEBAQUAA4IBDwAw
ggEKAoIBAQDdaiLgLW5MGdC43C8+2USJLME0HGshVi058hVf4h8z88m6ZNVEJbPf
RQaalXeRHezFy4+7AmGLftwLUzDwwEmxlV/yJ/oFK7bgKN9X0VQFqKJI+I+JnfWC
7DzZ4Q25jJo1TuJgYuqwtDt5OGSt3KQCwk2egJOMn5moJrTLBMKtXBPc7HergASU
fidkr/Upbd218OO5hq3fDWyANeGxfMmBZCzJiwPNJGE65I3s8BueRgyQSug2+eZb
9YGMhxDrw1/O5C2R2tA4vhrnBIzmY6MN7Z1WR8pbJOsQEJfdjgIZx+KWvM2Rj+jI
gTrfk17TJsk5NIwDEsQj1MxhMrt3m5YhAgMBAAGjggE1MIIBMTARBglghkgBhvhC
AQEEBAMCBkAwHQYDVR0OBBYEFO8oxgcs7DbjPIigKuWs0NirD27NMIGwBgNVHSME
gagwgaWAFKcQb10Mn5yi9DmSo31cuMAlcb85oYGBpH8wfTEUMBIGA1UEAxQLUkFO
Q0hJQ0FfQ0ExCzAJBgNVBAYTAklOMQ8wDQYDVQQKEwZDSVRSSVgxDDAKBgNVBAsT
A0FORzELMAkGA1UECBMCS0ExLDAqBgkqhkiG9w0BCQEWHVJBTkNISUNBX0NBQFJB
TkNISUNBX21haWwuY29tggkA5wmkPRzHRbEwSgYIKwYBBQUHAQEEPjA8MDoGCCsG
AQUFBzABhi5odHRwOi8vUkFOQ0hJQ0Ffb25lLm9jc3B0ZXN0LmNvbS9yZXNwb25k
ZXJwYXRoMA0GCSqGSIb3DQEBCwUAA4IBAQAHa6A8c/9oPMbMGhomN8SFQAWMqcgL
BCi0tRExdEVnLBo43vEeVioCBPF6mjujFWRQ8ijaum3+BCSg03SKxX/qZ3Wjbpc0
GVJmYhNT1v/dmOZNhn9pgdgMxTcrHKIihp7v686ceBA+b5lYfdw+KGlusFaCFmq9
VLjYeGW2KGtSlfNUayO5nhOEmMOQWK8pzvTKa0Zg4WTT0gZvF59Kncxpi4lJZhMP
rSPTNlbSkYFVb5iO2OzfM7pkMDzFPF6gyjzzX1Je4rHVFvRHU4OYEIiyOYBUbCN/
Ujv1Zi5CpbcrcmiMxrxk/F7tEKYQqrynGoDnbGtp1R4mKQraBl+e8mmi
-----END CERTIFICATE-----
