Certificate:
    Data:
        Version: 3 (0x2)
        Serial Number: 11042563100179 (0xa0b0c0d0e13)
    Signature Algorithm: sha256WithRSAEncryption
        Issuer: CN=RANCHICA_CA, C=IN, O=CITRIX, OU=ANG, ST=KA/emailAddress=RANCHICA_CA@RANCHICA_mail.com
        Validity
            Not Before: Jul  8 04:38:48 2016 GMT
            Not After : Jul  6 04:38:48 2026 GMT
        Subject: ST=KA, C=IN, CN=105_RANCHICA_server/emailAddress=105_RANCHICA@test_ca.com, O=CITRIX
        Subject Public Key Info:
            Public Key Algorithm: rsaEncryption
                Public-Key: (2048 bit)
                Modulus:
                    00:bb:64:0b:da:4c:18:a3:b3:ea:8b:d1:29:27:c1:
                    64:c6:42:df:de:2c:ef:7e:7d:e8:54:33:68:42:d4:
                    e9:c2:45:a5:e4:fe:2b:fd:75:ab:0e:be:6d:ee:c8:
                    dd:80:99:78:51:88:ff:53:b0:f7:ec:ef:79:b1:3f:
                    8d:28:8f:8d:a5:69:14:ff:50:39:41:e0:b3:f5:d4:
                    26:36:bd:8e:8f:70:9d:35:8c:19:f2:05:c1:2c:e9:
                    8d:88:19:bc:5f:6d:06:b1:9b:d3:2e:8f:a3:63:6c:
                    a9:a7:44:ea:37:00:52:d5:20:72:00:2d:1c:31:22:
                    60:6a:1f:19:90:04:6e:1a:ae:f2:be:51:36:41:a9:
                    a4:60:9d:ca:00:5b:36:9d:64:a2:4d:d9:55:60:89:
                    76:ff:9e:8b:7d:b6:38:ed:1e:d4:39:59:f5:4c:1b:
                    de:7a:76:43:68:4b:75:44:ea:01:fa:1d:05:c1:1e:
                    c8:32:34:b4:bd:7e:e0:f5:9f:73:16:f8:ac:dc:b5:
                    76:bc:20:66:84:0d:eb:1e:5c:f3:71:08:53:f5:bd:
                    5e:29:2a:44:52:98:98:af:f8:22:11:9e:12:38:83:
                    26:a3:91:48:fe:32:c5:49:f1:0e:9a:02:e2:57:d5:
                    c9:2f:92:78:f7:51:a3:39:f3:4c:fc:f9:68:11:f8:
                    98:af
                Exponent: 65537 (0x10001)
        X509v3 extensions:
            Netscape Cert Type: 
                SSL Server
            X509v3 Subject Key Identifier: 
                56:CE:5A:75:58:EC:1E:12:21:75:F2:F3:0A:62:6A:C9:A1:01:41:0F
            X509v3 Authority Key Identifier: 
                keyid:A7:10:6F:5D:0C:9F:9C:A2:F4:39:92:A3:7D:5C:B8:C0:25:71:BF:39
                DirName:/CN=RANCHICA_CA/C=IN/O=CITRIX/OU=ANG/ST=KA/emailAddress=RANCHICA_CA@RANCHICA_mail.com
                serial:E7:09:A4:3D:1C:C7:45:B1

            Authority Information Access: 
                OCSP - URI:http://RANCHICA_one.ocsptest.com/responderpath

    Signature Algorithm: sha256WithRSAEncryption
         36:41:4c:0c:6e:bc:b8:33:30:22:25:47:c1:1c:06:38:43:d6:
         eb:bb:13:8f:81:3c:a2:62:e0:8d:4b:14:d6:33:1f:70:db:73:
         f7:73:e2:c1:ca:42:e8:de:74:d6:03:34:4f:98:8e:0b:f3:2f:
         b3:15:f3:40:cd:4e:cc:71:ce:19:01:fe:b7:6d:e7:f0:ce:33:
         16:11:7a:2f:5f:ae:dc:8b:51:27:67:ca:30:0a:74:77:fd:29:
         e5:9d:0a:51:55:18:42:33:11:db:37:05:61:31:0e:01:84:d4:
         86:00:ce:28:11:7c:93:a3:82:78:bf:ee:f8:9c:09:1d:07:db:
         4d:79:40:8e:4c:52:5c:10:6e:79:fb:e1:69:f4:31:de:63:e5:
         25:d1:17:ff:d1:5a:67:41:b3:9a:a4:03:31:8c:6a:b1:6f:13:
         db:13:99:c8:26:79:e8:27:37:00:56:0a:2a:5e:66:a3:49:89:
         eb:46:1d:da:ab:ae:64:82:db:33:f6:b7:b0:76:72:b6:26:39:
         f4:29:a7:2b:d0:e3:6b:cc:e5:6f:f6:0c:71:0d:d7:61:4b:06:
         78:f8:fa:67:d8:bb:4d:f6:f0:17:f4:b8:0e:4b:e2:a9:53:05:
         a1:32:a0:3d:a2:f9:ac:11:6f:3d:78:c1:f5:7b:a1:cc:aa:07:
         c8:3e:84:e4
-----BEGIN CERTIFICATE-----
MIIEpjCCA46gAwIBAgIGCgsMDQ4TMA0GCSqGSIb3DQEBCwUAMH0xFDASBgNVBAMU
C1JBTkNISUNBX0NBMQswCQYDVQQGEwJJTjEPMA0GA1UEChMGQ0lUUklYMQwwCgYD
VQQLEwNBTkcxCzAJBgNVBAgTAktBMSwwKgYJKoZIhvcNAQkBFh1SQU5DSElDQV9D
QUBSQU5DSElDQV9tYWlsLmNvbTAeFw0xNjA3MDgwNDM4NDhaFw0yNjA3MDYwNDM4
NDhaMHIxCzAJBgNVBAgTAktBMQswCQYDVQQGEwJJTjEcMBoGA1UEAxQTMTA1X1JB
TkNISUNBX3NlcnZlcjEnMCUGCSqGSIb3DQEJARYYMTA1X1JBTkNISUNBQHRlc3Rf
Y2EuY29tMQ8wDQYDVQQKEwZDSVRSSVgwggEiMA0GCSqGSIb3DQEBAQUAA4IBDwAw
ggEKAoIBAQC7ZAvaTBijs+qL0SknwWTGQt/eLO9+fehUM2hC1OnCRaXk/iv9dasO
vm3uyN2AmXhRiP9TsPfs73mxP40oj42laRT/UDlB4LP11CY2vY6PcJ01jBnyBcEs
6Y2IGbxfbQaxm9Muj6NjbKmnROo3AFLVIHIALRwxImBqHxmQBG4arvK+UTZBqaRg
ncoAWzadZKJN2VVgiXb/not9tjjtHtQ5WfVMG956dkNoS3VE6gH6HQXBHsgyNLS9
fuD1n3MW+KzctXa8IGaEDeseXPNxCFP1vV4pKkRSmJiv+CIRnhI4gyajkUj+MsVJ
8Q6aAuJX1ckvknj3UaM580z8+WgR+JivAgMBAAGjggE1MIIBMTARBglghkgBhvhC
AQEEBAMCBkAwHQYDVR0OBBYEFFbOWnVY7B4SIXXy8wpiasmhAUEPMIGwBgNVHSME
gagwgaWAFKcQb10Mn5yi9DmSo31cuMAlcb85oYGBpH8wfTEUMBIGA1UEAxQLUkFO
Q0hJQ0FfQ0ExCzAJBgNVBAYTAklOMQ8wDQYDVQQKEwZDSVRSSVgxDDAKBgNVBAsT
A0FORzELMAkGA1UECBMCS0ExLDAqBgkqhkiG9w0BCQEWHVJBTkNISUNBX0NBQFJB
TkNISUNBX21haWwuY29tggkA5wmkPRzHRbEwSgYIKwYBBQUHAQEEPjA8MDoGCCsG
AQUFBzABhi5odHRwOi8vUkFOQ0hJQ0Ffb25lLm9jc3B0ZXN0LmNvbS9yZXNwb25k
ZXJwYXRoMA0GCSqGSIb3DQEBCwUAA4IBAQA2QUwMbry4MzAiJUfBHAY4Q9bruxOP
gTyiYuCNSxTWMx9w23P3c+LBykLo3nTWAzRPmI4L8y+zFfNAzU7Mcc4ZAf63befw
zjMWEXovX67ci1EnZ8owCnR3/SnlnQpRVRhCMxHbNwVhMQ4BhNSGAM4oEXyTo4J4
v+74nAkdB9tNeUCOTFJcEG55++Fp9DHeY+Ul0Rf/0VpnQbOapAMxjGqxbxPbE5nI
JnnoJzcAVgoqXmajSYnrRh3aq65kgtsz9rewdnK2Jjn0Kacr0ONrzOVv9gxxDddh
SwZ4+Ppn2LtN9vAX9LgOS+KpUwWhMqA9ovmsEW89eMH1e6HMqgfIPoTk
-----END CERTIFICATE-----
