Certificate:
    Data:
        Version: 3 (0x2)
        Serial Number: 11042563100180 (0xa0b0c0d0e14)
    Signature Algorithm: sha256WithRSAEncryption
        Issuer: CN=RANCHICA_CA, C=IN, O=CITRIX, OU=ANG, ST=KA/emailAddress=RANCHICA_CA@RANCHICA_mail.com
        Validity
            Not Before: Jul  8 04:38:49 2016 GMT
            Not After : Jul  6 04:38:49 2026 GMT
        Subject: ST=KA, C=IN, CN=106_RANCHICA_server/emailAddress=106_RANCHICA@test_ca.com, O=CITRIX
        Subject Public Key Info:
            Public Key Algorithm: rsaEncryption
                Public-Key: (2048 bit)
                Modulus:
                    00:a4:a0:a7:40:8f:c5:3e:80:4c:a5:07:dd:3a:a2:
                    56:17:d3:e6:bd:e0:dc:cb:2c:29:cb:82:e3:9f:92:
                    4c:d5:05:23:b9:83:6e:fa:2b:45:4a:23:76:85:7a:
                    d5:4e:b9:44:42:bd:dd:ef:cd:b9:cb:ed:f5:1c:4f:
                    63:31:45:b3:12:9e:0e:ef:33:ee:78:b8:c2:8d:c8:
                    a4:e0:88:e6:7c:e5:b7:a0:b3:5a:59:63:42:13:4e:
                    df:5d:eb:ee:72:47:96:55:03:70:e7:1e:fb:bb:47:
                    b8:44:88:a2:51:fa:de:8f:ad:47:48:03:9d:5a:73:
                    b9:d8:a6:7f:3d:1e:09:79:9d:d4:fe:bf:17:2a:30:
                    f0:76:8c:3f:0e:e7:f2:09:c4:20:75:10:80:9c:ac:
                    6d:eb:de:62:cb:aa:26:0b:b1:98:ac:9f:fe:8d:61:
                    cd:0d:7c:3e:c6:d6:c4:13:33:4e:b7:22:32:c5:ab:
                    3b:bf:0f:4d:b9:c9:8d:89:e7:24:2b:c5:33:4e:ef:
                    54:f0:bb:0d:5a:1b:67:aa:c4:5c:5f:af:7d:30:20:
                    c5:04:33:75:1c:14:c7:be:21:77:9b:4b:98:aa:12:
                    fe:d0:ed:0a:3c:30:d4:42:b8:70:45:6d:06:ef:a2:
                    0e:c5:20:12:aa:2f:da:f3:48:19:27:93:0b:c5:25:
                    49:57
                Exponent: 65537 (0x10001)
        X509v3 extensions:
            Netscape Cert Type: 
                SSL Server
            X509v3 Subject Key Identifier: 
                D5:97:D3:7B:BE:3D:FB:E4:F8:50:3A:08:4D:CD:5F:FE:A8:AF:55:72
            X509v3 Authority Key Identifier: 
                keyid:A7:10:6F:5D:0C:9F:9C:A2:F4:39:92:A3:7D:5C:B8:C0:25:71:BF:39
                DirName:/CN=RANCHICA_CA/C=IN/O=CITRIX/OU=ANG/ST=KA/emailAddress=RANCHICA_CA@RANCHICA_mail.com
                serial:E7:09:A4:3D:1C:C7:45:B1

            Authority Information Access: 
                OCSP - URI:http://RANCHICA_one.ocsptest.com/responderpath

    Signature Algorithm: sha256WithRSAEncryption
         30:24:1c:fc:2d:49:0b:8d:e3:51:49:8d:6e:2e:17:3f:c9:4b:
         03:90:43:58:c4:c3:e3:76:be:27:bd:27:2a:8c:2d:dc:30:a5:
         6e:17:9b:84:30:f2:a5:87:a9:6e:9b:36:2f:23:4d:91:db:46:
         3a:ca:82:65:24:0c:06:8e:83:a2:6b:6c:5b:35:62:94:3c:fa:
         6b:3a:b0:6b:af:96:7a:7f:61:d4:97:02:0a:c2:d0:1b:b2:b9:
         b5:cf:91:49:75:1f:67:35:8f:37:6e:1f:73:24:b3:10:2c:22:
         95:7e:00:20:fd:68:89:e2:bd:c4:d6:ad:02:72:11:50:80:86:
         17:41:41:35:12:ba:8e:dc:0b:7f:b5:57:13:13:db:ef:3e:48:
         86:89:4b:4a:b8:2b:79:39:e3:6c:f9:c2:a6:8f:4d:04:22:2a:
         0a:b0:9c:23:a4:e5:1a:78:ad:b9:0c:34:29:dd:e1:72:4c:ad:
         fb:37:b3:54:23:ed:31:26:28:91:ee:79:99:22:4f:1c:2d:3c:
         f2:a0:3e:39:87:a1:2c:b9:98:cb:c6:b3:a3:90:93:74:93:9c:
         da:5f:37:03:ed:db:8b:58:6f:c5:0a:b0:1b:ea:b4:9b:f3:e7:
         3a:ec:13:08:4b:22:fb:87:05:98:98:da:38:e3:77:bf:49:a8:
         56:bb:0b:e6
-----BEGIN CERTIFICATE-----
MIIEpjCCA46gAwIBAgIGCgsMDQ4UMA0GCSqGSIb3DQEBCwUAMH0xFDASBgNVBAMU
C1JBTkNISUNBX0NBMQswCQYDVQQGEwJJTjEPMA0GA1UEChMGQ0lUUklYMQwwCgYD
VQQLEwNBTkcxCzAJBgNVBAgTAktBMSwwKgYJKoZIhvcNAQkBFh1SQU5DSElDQV9D
QUBSQU5DSElDQV9tYWlsLmNvbTAeFw0xNjA3MDgwNDM4NDlaFw0yNjA3MDYwNDM4
NDlaMHIxCzAJBgNVBAgTAktBMQswCQYDVQQGEwJJTjEcMBoGA1UEAxQTMTA2X1JB
TkNISUNBX3NlcnZlcjEnMCUGCSqGSIb3DQEJARYYMTA2X1JBTkNISUNBQHRlc3Rf
Y2EuY29tMQ8wDQYDVQQKEwZDSVRSSVgwggEiMA0GCSqGSIb3DQEBAQUAA4IBDwAw
ggEKAoIBAQCkoKdAj8U+gEylB906olYX0+a94NzLLCnLguOfkkzVBSO5g276K0VK
I3aFetVOuURCvd3vzbnL7fUcT2MxRbMSng7vM+54uMKNyKTgiOZ85begs1pZY0IT
Tt9d6+5yR5ZVA3DnHvu7R7hEiKJR+t6PrUdIA51ac7nYpn89Hgl5ndT+vxcqMPB2
jD8O5/IJxCB1EICcrG3r3mLLqiYLsZisn/6NYc0NfD7G1sQTM063IjLFqzu/D025
yY2J5yQrxTNO71Twuw1aG2eqxFxfr30wIMUEM3UcFMe+IXebS5iqEv7Q7Qo8MNRC
uHBFbQbvog7FIBKqL9rzSBknkwvFJUlXAgMBAAGjggE1MIIBMTARBglghkgBhvhC
AQEEBAMCBkAwHQYDVR0OBBYEFNWX03u+Pfvk+FA6CE3NX/6or1VyMIGwBgNVHSME
gagwgaWAFKcQb10Mn5yi9DmSo31cuMAlcb85oYGBpH8wfTEUMBIGA1UEAxQLUkFO
Q0hJQ0FfQ0ExCzAJBgNVBAYTAklOMQ8wDQYDVQQKEwZDSVRSSVgxDDAKBgNVBAsT
A0FORzELMAkGA1UECBMCS0ExLDAqBgkqhkiG9w0BCQEWHVJBTkNISUNBX0NBQFJB
TkNISUNBX21haWwuY29tggkA5wmkPRzHRbEwSgYIKwYBBQUHAQEEPjA8MDoGCCsG
AQUFBzABhi5odHRwOi8vUkFOQ0hJQ0Ffb25lLm9jc3B0ZXN0LmNvbS9yZXNwb25k
ZXJwYXRoMA0GCSqGSIb3DQEBCwUAA4IBAQAwJBz8LUkLjeNRSY1uLhc/yUsDkENY
xMPjdr4nvScqjC3cMKVuF5uEMPKlh6lumzYvI02R20Y6yoJlJAwGjoOia2xbNWKU
PPprOrBrr5Z6f2HUlwIKwtAbsrm1z5FJdR9nNY83bh9zJLMQLCKVfgAg/WiJ4r3E
1q0CchFQgIYXQUE1ErqO3At/tVcTE9vvPkiGiUtKuCt5OeNs+cKmj00EIioKsJwj
pOUaeK25DDQp3eFyTK37N7NUI+0xJiiR7nmZIk8cLTzyoD45h6EsuZjLxrOjkJN0
k5zaXzcD7duLWG/FCrAb6rSb8+c67BMISyL7hwWYmNo443e/SahWuwvm
-----END CERTIFICATE-----
