Certificate:
    Data:
        Version: 3 (0x2)
        Serial Number: 11042563100181 (0xa0b0c0d0e15)
    Signature Algorithm: sha256WithRSAEncryption
        Issuer: CN=RANCHICA_CA, C=IN, O=CITRIX, OU=ANG, ST=KA/emailAddress=RANCHICA_CA@RANCHICA_mail.com
        Validity
            Not Before: Jul  8 04:38:49 2016 GMT
            Not After : Jul  6 04:38:49 2026 GMT
        Subject: ST=KA, C=IN, CN=107_RANCHICA_server/emailAddress=107_RANCHICA@test_ca.com, O=CITRIX
        Subject Public Key Info:
            Public Key Algorithm: rsaEncryption
                Public-Key: (2048 bit)
                Modulus:
                    00:a7:e7:45:c3:e9:be:4c:ce:2f:31:4e:44:0c:2e:
                    e2:e7:6a:f5:74:90:09:3c:82:43:b6:47:ee:bf:af:
                    67:2a:ee:1d:dc:5a:2b:c3:36:cd:2c:e4:54:b3:bf:
                    46:93:90:3c:c6:6f:6a:03:f4:a0:48:38:4c:5c:8d:
                    8b:26:02:68:c5:3f:98:42:da:88:eb:57:24:f6:fe:
                    65:df:62:69:b3:c4:22:5c:4d:aa:2a:16:4b:48:ec:
                    4f:43:48:e8:db:99:e1:48:11:89:26:6e:a5:0e:81:
                    f5:ed:5b:31:90:f7:17:4e:7a:f3:74:ef:4f:55:3e:
                    8e:d9:ba:26:49:b2:dd:26:8c:b7:b7:b0:c5:40:a6:
                    78:3f:4d:75:8a:bb:17:09:bf:8a:65:b8:69:cf:a6:
                    6f:58:98:26:a6:19:15:cc:66:bb:39:fc:62:d1:d1:
                    94:d6:7c:30:11:4a:de:79:2a:1e:fa:8a:96:58:09:
                    6c:3b:60:9b:dc:39:a9:7b:aa:ad:e6:76:f9:5f:17:
                    c2:30:3d:ca:ab:5a:90:0b:2e:a6:21:ed:57:99:8d:
                    24:88:ba:af:78:77:dc:af:27:37:17:b7:bb:d0:b4:
                    a5:1c:4f:9a:38:0e:3c:c6:c9:eb:0f:64:41:7f:3e:
                    c6:e1:4c:90:c7:8b:8b:ce:37:2a:0d:fe:f3:b3:ae:
                    99:5d
                Exponent: 65537 (0x10001)
        X509v3 extensions:
            Netscape Cert Type: 
                SSL Server
            X509v3 Subject Key Identifier: 
                CC:58:A4:37:CD:33:9C:DD:C5:F4:8A:DE:97:8F:49:93:3D:A8:0D:CD
            X509v3 Authority Key Identifier: 
                keyid:A7:10:6F:5D:0C:9F:9C:A2:F4:39:92:A3:7D:5C:B8:C0:25:71:BF:39
                DirName:/CN=RANCHICA_CA/C=IN/O=CITRIX/OU=ANG/ST=KA/emailAddress=RANCHICA_CA@RANCHICA_mail.com
                serial:E7:09:A4:3D:1C:C7:45:B1

            Authority Information Access: 
                OCSP - URI:http://RANCHICA_one.ocsptest.com/responderpath

    Signature Algorithm: sha256WithRSAEncryption
         6e:9d:b1:1a:0f:cc:84:fd:39:a6:77:26:84:6f:2a:49:62:8d:
         57:a8:9d:30:8f:a9:59:47:91:d1:e3:08:b0:d4:02:58:d6:3a:
         2f:0b:f2:62:80:81:29:78:66:bd:1e:34:ba:86:b7:23:db:fe:
         05:29:6b:b9:04:5e:81:c6:82:be:f1:4b:aa:29:2b:96:ed:02:
         72:bf:a7:00:89:61:39:fd:a2:68:6e:f9:c4:f8:b9:6d:e1:2f:
         ee:80:d5:4c:8e:c2:fe:5e:6d:7b:a6:ff:0e:18:bc:dd:17:1e:
         61:18:d6:e3:19:0b:40:55:e4:b7:0f:8e:2e:5b:3e:5f:1b:30:
         9b:97:e6:2c:59:33:13:ec:44:64:f1:dc:67:c7:da:f5:e9:60:
         5d:6c:9b:80:b1:57:45:58:81:2b:68:af:c8:06:ac:2b:db:13:
         19:14:de:7d:55:b0:2f:7f:b9:26:37:04:81:b2:2b:8b:f7:cb:
         2c:54:ec:a0:f1:8c:6b:30:a9:b7:ca:ba:33:e1:70:3a:f2:34:
         05:c5:1c:ec:38:7d:bf:81:14:c9:02:ca:be:30:33:ae:54:62:
         ba:61:64:01:01:b7:d2:02:a1:a9:44:ff:d9:7a:03:03:cc:86:
         fb:04:36:7a:dd:8e:ad:33:47:54:3b:d1:c8:50:19:ab:ad:de:
         a6:5a:dd:fd
-----BEGIN CERTIFICATE-----
MIIEpjCCA46gAwIBAgIGCgsMDQ4VMA0GCSqGSIb3DQEBCwUAMH0xFDASBgNVBAMU
C1JBTkNISUNBX0NBMQswCQYDVQQGEwJJTjEPMA0GA1UEChMGQ0lUUklYMQwwCgYD
VQQLEwNBTkcxCzAJBgNVBAgTAktBMSwwKgYJKoZIhvcNAQkBFh1SQU5DSElDQV9D
QUBSQU5DSElDQV9tYWlsLmNvbTAeFw0xNjA3MDgwNDM4NDlaFw0yNjA3MDYwNDM4
NDlaMHIxCzAJBgNVBAgTAktBMQswCQYDVQQGEwJJTjEcMBoGA1UEAxQTMTA3X1JB
TkNISUNBX3NlcnZlcjEnMCUGCSqGSIb3DQEJARYYMTA3X1JBTkNISUNBQHRlc3Rf
Y2EuY29tMQ8wDQYDVQQKEwZDSVRSSVgwggEiMA0GCSqGSIb3DQEBAQUAA4IBDwAw
ggEKAoIBAQCn50XD6b5Mzi8xTkQMLuLnavV0kAk8gkO2R+6/r2cq7h3cWivDNs0s
5FSzv0aTkDzGb2oD9KBIOExcjYsmAmjFP5hC2ojrVyT2/mXfYmmzxCJcTaoqFktI
7E9DSOjbmeFIEYkmbqUOgfXtWzGQ9xdOevN0709VPo7ZuiZJst0mjLe3sMVApng/
TXWKuxcJv4pluGnPpm9YmCamGRXMZrs5/GLR0ZTWfDARSt55Kh76ipZYCWw7YJvc
Oal7qq3mdvlfF8IwPcqrWpALLqYh7VeZjSSIuq94d9yvJzcXt7vQtKUcT5o4DjzG
yesPZEF/PsbhTJDHi4vONyoN/vOzrpldAgMBAAGjggE1MIIBMTARBglghkgBhvhC
AQEEBAMCBkAwHQYDVR0OBBYEFMxYpDfNM5zdxfSK3pePSZM9qA3NMIGwBgNVHSME
gagwgaWAFKcQb10Mn5yi9DmSo31cuMAlcb85oYGBpH8wfTEUMBIGA1UEAxQLUkFO
Q0hJQ0FfQ0ExCzAJBgNVBAYTAklOMQ8wDQYDVQQKEwZDSVRSSVgxDDAKBgNVBAsT
A0FORzELMAkGA1UECBMCS0ExLDAqBgkqhkiG9w0BCQEWHVJBTkNISUNBX0NBQFJB
TkNISUNBX21haWwuY29tggkA5wmkPRzHRbEwSgYIKwYBBQUHAQEEPjA8MDoGCCsG
AQUFBzABhi5odHRwOi8vUkFOQ0hJQ0Ffb25lLm9jc3B0ZXN0LmNvbS9yZXNwb25k
ZXJwYXRoMA0GCSqGSIb3DQEBCwUAA4IBAQBunbEaD8yE/TmmdyaEbypJYo1XqJ0w
j6lZR5HR4wiw1AJY1jovC/JigIEpeGa9HjS6hrcj2/4FKWu5BF6BxoK+8UuqKSuW
7QJyv6cAiWE5/aJobvnE+Llt4S/ugNVMjsL+Xm17pv8OGLzdFx5hGNbjGQtAVeS3
D44uWz5fGzCbl+YsWTMT7ERk8dxnx9r16WBdbJuAsVdFWIEraK/IBqwr2xMZFN59
VbAvf7kmNwSBsiuL98ssVOyg8YxrMKm3yroz4XA68jQFxRzsOH2/gRTJAsq+MDOu
VGK6YWQBAbfSAqGpRP/ZegMDzIb7BDZ63Y6tM0dUO9HIUBmrrd6mWt39
-----END CERTIFICATE-----
