Certificate:
    Data:
        Version: 3 (0x2)
        Serial Number: 11042563100183 (0xa0b0c0d0e17)
    Signature Algorithm: sha256WithRSAEncryption
        Issuer: CN=RANCHICA_CA, C=IN, O=CITRIX, OU=ANG, ST=KA/emailAddress=RANCHICA_CA@RANCHICA_mail.com
        Validity
            Not Before: Jul  8 04:38:49 2016 GMT
            Not After : Jul  6 04:38:49 2026 GMT
        Subject: ST=KA, C=IN, CN=109_RANCHICA_server/emailAddress=109_RANCHICA@test_ca.com, O=CITRIX
        Subject Public Key Info:
            Public Key Algorithm: rsaEncryption
                Public-Key: (2048 bit)
                Modulus:
                    00:cf:06:c5:69:53:89:36:d3:f9:56:a0:d4:e9:02:
                    2e:20:7c:90:98:02:ea:82:10:b1:9e:7b:87:11:c4:
                    72:ab:0a:84:54:f7:39:78:ba:aa:20:d2:49:69:c1:
                    ac:d6:3c:b6:0c:d2:92:a5:b3:58:f8:64:01:1d:69:
                    a6:bd:92:94:ca:d9:3b:11:63:e0:d2:f6:f1:8b:58:
                    04:d8:27:e7:e8:ad:a5:d9:77:ef:f3:0f:75:d5:c9:
                    d7:4e:91:c7:4e:d0:fb:9e:6b:7a:2d:0e:0a:52:87:
                    92:87:0c:27:70:f4:1b:bc:65:d0:aa:dc:3c:02:60:
                    9c:a7:1d:d1:92:82:b6:17:5d:dc:13:64:f1:d5:f2:
                    24:13:5e:ee:b2:11:4a:0a:7c:14:4c:8b:78:d4:5a:
                    47:44:52:28:21:80:e6:22:26:ac:56:aa:78:6c:a5:
                    de:f2:ef:dc:87:6c:ad:ef:2b:14:4d:12:97:e1:14:
                    01:a6:42:c0:57:31:92:8c:15:c4:6f:f2:32:66:d5:
                    50:47:23:d4:71:09:f3:d6:71:e5:c9:fe:68:8e:49:
                    e3:c5:26:a9:12:de:b7:89:d8:c6:56:dc:96:f2:dd:
                    89:2a:23:3d:e4:75:fc:30:fc:45:e0:ab:27:68:3c:
                    85:54:c1:78:ab:5a:26:1a:b2:25:9c:87:ce:ea:03:
                    be:57
                Exponent: 65537 (0x10001)
        X509v3 extensions:
            Netscape Cert Type: 
                SSL Server
            X509v3 Subject Key Identifier: 
                AE:C6:8B:78:C0:1B:7E:63:6D:97:00:27:4E:9B:5A:C7:94:B5:6F:E7
            X509v3 Authority Key Identifier: 
                keyid:A7:10:6F:5D:0C:9F:9C:A2:F4:39:92:A3:7D:5C:B8:C0:25:71:BF:39
                DirName:/CN=RANCHICA_CA/C=IN/O=CITRIX/OU=ANG/ST=KA/emailAddress=RANCHICA_CA@RANCHICA_mail.com
                serial:E7:09:A4:3D:1C:C7:45:B1

            Authority Information Access: 
                OCSP - URI:http://RANCHICA_one.ocsptest.com/responderpath

    Signature Algorithm: sha256WithRSAEncryption
         0a:01:95:ce:46:a9:ef:b6:f9:a4:5c:74:79:f2:b3:f6:92:a7:
         9d:d0:ec:ce:50:b6:a3:26:6f:0d:8a:b5:d2:1b:79:3e:77:55:
         c3:10:cb:07:40:76:9a:2f:5c:99:8e:f0:4c:aa:26:13:a1:0f:
         4b:cf:ec:67:60:a2:c4:52:33:e0:2a:e8:a5:aa:8d:6d:22:dc:
         51:44:35:a3:b0:f3:00:4b:82:a1:db:2e:31:ef:ec:86:2d:97:
         4c:80:f6:ae:47:cc:86:96:9d:29:20:95:84:b1:47:5e:1d:51:
         48:2e:cf:cb:bf:47:a5:95:02:85:5c:46:62:55:b8:01:1c:7c:
         ce:0e:3c:2e:4f:66:1c:04:56:cf:6b:b0:d8:b8:09:4a:df:6e:
         62:d8:99:cd:43:c3:cf:c1:c4:22:23:60:22:55:28:fd:4f:2e:
         21:32:f6:f1:2c:91:a3:21:a5:67:6c:04:8e:76:59:27:98:d9:
         12:2a:64:3b:88:06:e5:7e:75:ba:79:47:57:dc:fa:8c:fd:40:
         e7:3d:c7:41:eb:f9:a8:20:3e:1f:58:32:ae:5d:9f:d9:4b:16:
         12:7d:97:52:b5:d5:da:1c:2f:48:c5:44:57:2d:90:d8:a6:81:
         45:73:6b:ab:f8:3d:5b:fb:86:dd:a1:52:2a:8c:09:04:67:79:
         7c:a7:b1:80
-----BEGIN CERTIFICATE-----
MIIEpjCCA46gAwIBAgIGCgsMDQ4XMA0GCSqGSIb3DQEBCwUAMH0xFDASBgNVBAMU
C1JBTkNISUNBX0NBMQswCQYDVQQGEwJJTjEPMA0GA1UEChMGQ0lUUklYMQwwCgYD
VQQLEwNBTkcxCzAJBgNVBAgTAktBMSwwKgYJKoZIhvcNAQkBFh1SQU5DSElDQV9D
QUBSQU5DSElDQV9tYWlsLmNvbTAeFw0xNjA3MDgwNDM4NDlaFw0yNjA3MDYwNDM4
NDlaMHIxCzAJBgNVBAgTAktBMQswCQYDVQQGEwJJTjEcMBoGA1UEAxQTMTA5X1JB
TkNISUNBX3NlcnZlcjEnMCUGCSqGSIb3DQEJARYYMTA5X1JBTkNISUNBQHRlc3Rf
Y2EuY29tMQ8wDQYDVQQKEwZDSVRSSVgwggEiMA0GCSqGSIb3DQEBAQUAA4IBDwAw
ggEKAoIBAQDPBsVpU4k20/lWoNTpAi4gfJCYAuqCELGee4cRxHKrCoRU9zl4uqog
0klpwazWPLYM0pKls1j4ZAEdaaa9kpTK2TsRY+DS9vGLWATYJ+foraXZd+/zD3XV
yddOkcdO0Puea3otDgpSh5KHDCdw9Bu8ZdCq3DwCYJynHdGSgrYXXdwTZPHV8iQT
Xu6yEUoKfBRMi3jUWkdEUighgOYiJqxWqnhspd7y79yHbK3vKxRNEpfhFAGmQsBX
MZKMFcRv8jJm1VBHI9RxCfPWceXJ/miOSePFJqkS3reJ2MZW3Jby3YkqIz3kdfww
/EXgqydoPIVUwXirWiYasiWch87qA75XAgMBAAGjggE1MIIBMTARBglghkgBhvhC
AQEEBAMCBkAwHQYDVR0OBBYEFK7Gi3jAG35jbZcAJ06bWseUtW/nMIGwBgNVHSME
gagwgaWAFKcQb10Mn5yi9DmSo31cuMAlcb85oYGBpH8wfTEUMBIGA1UEAxQLUkFO
Q0hJQ0FfQ0ExCzAJBgNVBAYTAklOMQ8wDQYDVQQKEwZDSVRSSVgxDDAKBgNVBAsT
A0FORzELMAkGA1UECBMCS0ExLDAqBgkqhkiG9w0BCQEWHVJBTkNISUNBX0NBQFJB
TkNISUNBX21haWwuY29tggkA5wmkPRzHRbEwSgYIKwYBBQUHAQEEPjA8MDoGCCsG
AQUFBzABhi5odHRwOi8vUkFOQ0hJQ0Ffb25lLm9jc3B0ZXN0LmNvbS9yZXNwb25k
ZXJwYXRoMA0GCSqGSIb3DQEBCwUAA4IBAQAKAZXORqnvtvmkXHR58rP2kqed0OzO
ULajJm8NirXSG3k+d1XDEMsHQHaaL1yZjvBMqiYToQ9Lz+xnYKLEUjPgKuilqo1t
ItxRRDWjsPMAS4Kh2y4x7+yGLZdMgPauR8yGlp0pIJWEsUdeHVFILs/Lv0ellQKF
XEZiVbgBHHzODjwuT2YcBFbPa7DYuAlK325i2JnNQ8PPwcQiI2AiVSj9Ty4hMvbx
LJGjIaVnbASOdlknmNkSKmQ7iAblfnW6eUdX3PqM/UDnPcdB6/moID4fWDKuXZ/Z
SxYSfZdStdXaHC9IxURXLZDYpoFFc2ur+D1b+4bdoVIqjAkEZ3l8p7GA
-----END CERTIFICATE-----
