Certificate:
    Data:
        Version: 3 (0x2)
        Serial Number: 11042563100185 (0xa0b0c0d0e19)
    Signature Algorithm: sha256WithRSAEncryption
        Issuer: CN=RANCHICA_CA, C=IN, O=CITRIX, OU=ANG, ST=KA/emailAddress=RANCHICA_CA@RANCHICA_mail.com
        Validity
            Not Before: Jul  8 04:38:50 2016 GMT
            Not After : Jul  6 04:38:50 2026 GMT
        Subject: ST=KA, C=IN, CN=111_RANCHICA_server/emailAddress=111_RANCHICA@test_ca.com, O=CITRIX
        Subject Public Key Info:
            Public Key Algorithm: rsaEncryption
                Public-Key: (2048 bit)
                Modulus:
                    00:c2:5a:85:ba:8a:dc:b7:a7:b5:a7:b2:78:58:e7:
                    fc:7b:5e:6f:70:02:41:60:e6:d0:3f:2b:4a:03:33:
                    02:ec:8a:65:77:14:25:6d:e3:a9:60:a9:ba:5e:14:
                    7f:a7:a1:75:4a:9b:a5:eb:84:26:d4:8e:30:c6:3f:
                    51:9d:1a:67:d4:c7:3b:17:d3:1c:e2:be:bb:1f:1c:
                    c4:17:90:25:01:c8:9b:ee:40:37:6a:c4:41:88:61:
                    bc:9b:23:f2:dc:bb:a6:81:4f:63:9e:0f:4f:73:77:
                    62:71:16:35:a9:21:62:9e:9e:3a:54:da:6d:45:ff:
                    b7:86:99:08:07:5a:5d:58:67:a2:ce:58:7e:2d:30:
                    74:d4:8b:e3:92:7f:57:ca:21:e7:ef:d7:9b:02:d6:
                    54:46:58:99:90:d7:03:0e:67:42:e2:af:96:1e:05:
                    da:da:38:79:78:a7:4e:f1:6c:3a:be:06:dc:4f:b7:
                    de:ed:a5:ee:05:b0:28:dd:90:4f:ef:08:4a:71:9d:
                    b3:8b:fe:c4:53:c8:42:b5:57:bd:c9:29:22:63:6e:
                    71:d2:7e:d3:5f:81:04:3b:0e:85:c2:86:86:4f:18:
                    e2:88:1d:58:0a:3b:c1:de:a9:e8:94:50:e7:bb:a9:
                    13:30:1b:bb:2e:33:fc:9b:4d:f7:c4:c5:8a:e2:87:
                    0f:31
                Exponent: 65537 (0x10001)
        X509v3 extensions:
            Netscape Cert Type: 
                SSL Server
            X509v3 Subject Key Identifier: 
                03:E0:F6:44:DC:59:6B:7F:3F:E1:DE:74:BA:36:56:65:7D:38:AD:21
            X509v3 Authority Key Identifier: 
                keyid:A7:10:6F:5D:0C:9F:9C:A2:F4:39:92:A3:7D:5C:B8:C0:25:71:BF:39
                DirName:/CN=RANCHICA_CA/C=IN/O=CITRIX/OU=ANG/ST=KA/emailAddress=RANCHICA_CA@RANCHICA_mail.com
                serial:E7:09:A4:3D:1C:C7:45:B1

            Authority Information Access: 
                OCSP - URI:http://RANCHICA_two.ocsptest.com/responderpath

    Signature Algorithm: sha256WithRSAEncryption
         7b:96:df:f6:97:23:f3:fc:e7:0b:a7:49:ee:5b:5a:6f:bd:d6:
         07:bf:40:4a:a8:c0:35:06:83:48:6d:b3:08:a7:5c:0d:be:7a:
         68:6e:d1:cf:be:2a:17:dc:23:53:b1:c7:23:80:b9:1f:0b:0c:
         50:a5:73:19:6c:b5:6a:e7:a1:cf:11:81:c5:16:c3:97:f7:b7:
         3c:8b:2e:2b:fa:91:09:11:4a:a3:a1:ca:18:7c:39:65:c8:f4:
         b8:dd:83:fb:8b:1a:84:22:3b:7d:b3:53:c8:d4:e5:e3:22:9a:
         2a:de:94:52:18:02:80:6e:5f:ec:1b:87:df:53:b4:30:e2:00:
         75:be:45:e8:8b:ee:f6:e1:4d:a4:08:ea:e0:eb:54:e6:de:e4:
         0b:d2:31:1f:9c:77:cb:21:68:e6:39:06:f3:d7:61:df:7c:e3:
         d4:d7:51:b7:3a:b7:64:61:23:c3:c8:5a:f6:4b:4e:af:dc:6d:
         f9:49:6c:ae:47:e2:b7:97:fb:25:a4:9d:77:88:66:b1:08:a1:
         34:96:8e:93:60:d9:95:6b:54:e6:83:b0:00:61:d2:39:06:c7:
         a7:05:0d:e9:89:4f:c0:f3:05:0a:eb:34:83:44:cb:16:57:73:
         8b:c1:4f:9d:e1:00:c2:5b:04:c7:03:fd:02:c9:ad:9d:78:71:
         8d:26:c1:ca
-----BEGIN CERTIFICATE-----
MIIEpjCCA46gAwIBAgIGCgsMDQ4ZMA0GCSqGSIb3DQEBCwUAMH0xFDASBgNVBAMU
C1JBTkNISUNBX0NBMQswCQYDVQQGEwJJTjEPMA0GA1UEChMGQ0lUUklYMQwwCgYD
VQQLEwNBTkcxCzAJBgNVBAgTAktBMSwwKgYJKoZIhvcNAQkBFh1SQU5DSElDQV9D
QUBSQU5DSElDQV9tYWlsLmNvbTAeFw0xNjA3MDgwNDM4NTBaFw0yNjA3MDYwNDM4
NTBaMHIxCzAJBgNVBAgTAktBMQswCQYDVQQGEwJJTjEcMBoGA1UEAxQTMTExX1JB
TkNISUNBX3NlcnZlcjEnMCUGCSqGSIb3DQEJARYYMTExX1JBTkNISUNBQHRlc3Rf
Y2EuY29tMQ8wDQYDVQQKEwZDSVRSSVgwggEiMA0GCSqGSIb3DQEBAQUAA4IBDwAw
ggEKAoIBAQDCWoW6ity3p7WnsnhY5/x7Xm9wAkFg5tA/K0oDMwLsimV3FCVt46lg
qbpeFH+noXVKm6XrhCbUjjDGP1GdGmfUxzsX0xzivrsfHMQXkCUByJvuQDdqxEGI
YbybI/Lcu6aBT2OeD09zd2JxFjWpIWKenjpU2m1F/7eGmQgHWl1YZ6LOWH4tMHTU
i+OSf1fKIefv15sC1lRGWJmQ1wMOZ0Lir5YeBdraOHl4p07xbDq+BtxPt97tpe4F
sCjdkE/vCEpxnbOL/sRTyEK1V73JKSJjbnHSftNfgQQ7DoXChoZPGOKIHVgKO8He
qeiUUOe7qRMwG7suM/ybTffExYrihw8xAgMBAAGjggE1MIIBMTARBglghkgBhvhC
AQEEBAMCBkAwHQYDVR0OBBYEFAPg9kTcWWt/P+HedLo2VmV9OK0hMIGwBgNVHSME
gagwgaWAFKcQb10Mn5yi9DmSo31cuMAlcb85oYGBpH8wfTEUMBIGA1UEAxQLUkFO
Q0hJQ0FfQ0ExCzAJBgNVBAYTAklOMQ8wDQYDVQQKEwZDSVRSSVgxDDAKBgNVBAsT
A0FORzELMAkGA1UECBMCS0ExLDAqBgkqhkiG9w0BCQEWHVJBTkNISUNBX0NBQFJB
TkNISUNBX21haWwuY29tggkA5wmkPRzHRbEwSgYIKwYBBQUHAQEEPjA8MDoGCCsG
AQUFBzABhi5odHRwOi8vUkFOQ0hJQ0FfdHdvLm9jc3B0ZXN0LmNvbS9yZXNwb25k
ZXJwYXRoMA0GCSqGSIb3DQEBCwUAA4IBAQB7lt/2lyPz/OcLp0nuW1pvvdYHv0BK
qMA1BoNIbbMIp1wNvnpobtHPvioX3CNTsccjgLkfCwxQpXMZbLVq56HPEYHFFsOX
97c8iy4r+pEJEUqjocoYfDllyPS43YP7ixqEIjt9s1PI1OXjIpoq3pRSGAKAbl/s
G4ffU7Qw4gB1vkXoi+724U2kCOrg61Tm3uQL0jEfnHfLIWjmOQbz12HffOPU11G3
OrdkYSPDyFr2S06v3G35SWyuR+K3l/slpJ13iGaxCKE0lo6TYNmVa1Tmg7AAYdI5
BsenBQ3piU/A8wUK6zSDRMsWV3OLwU+d4QDCWwTHA/0Cya2deHGNJsHK
-----END CERTIFICATE-----
