Certificate:
    Data:
        Version: 3 (0x2)
        Serial Number: 11042563100189 (0xa0b0c0d0e1d)
    Signature Algorithm: sha256WithRSAEncryption
        Issuer: CN=RANCHICA_CA, C=IN, O=CITRIX, OU=ANG, ST=KA/emailAddress=RANCHICA_CA@RANCHICA_mail.com
        Validity
            Not Before: Jul  8 04:38:51 2016 GMT
            Not After : Jul  6 04:38:51 2026 GMT
        Subject: ST=KA, C=IN, CN=115_RANCHICA_server/emailAddress=115_RANCHICA@test_ca.com, O=CITRIX
        Subject Public Key Info:
            Public Key Algorithm: rsaEncryption
                Public-Key: (2048 bit)
                Modulus:
                    00:a3:20:84:25:91:e3:c8:6b:64:2d:a7:7c:37:ab:
                    59:4c:41:24:9e:83:93:67:65:b9:69:3e:d6:24:bf:
                    02:a4:a5:72:46:25:42:22:de:b5:19:e3:99:b8:70:
                    98:8a:e3:ad:1d:fb:c3:5a:37:f9:ff:cf:f5:aa:ee:
                    31:17:6d:70:fe:69:9c:f9:58:64:29:40:04:a4:29:
                    21:da:a3:6c:ee:0b:20:7a:56:5e:98:28:60:54:30:
                    eb:b2:18:f8:1f:86:6b:6a:43:08:c9:0a:75:e4:98:
                    60:d1:3a:47:f4:1d:49:53:00:97:9d:35:c8:19:a2:
                    6e:77:54:d4:22:16:88:8b:d1:87:0d:d5:5b:68:b4:
                    ab:35:d1:f0:e7:1e:a1:c2:f1:41:5f:3b:90:70:84:
                    01:47:00:a0:69:d8:30:2b:8c:c9:7d:a5:bd:9b:36:
                    b4:9b:c7:54:13:8e:11:78:0d:9e:bc:f0:5a:26:ff:
                    5b:35:16:d7:d7:02:5b:fe:a5:b2:bf:93:17:60:37:
                    77:34:b7:ab:b6:01:14:df:64:87:ef:14:c1:52:0e:
                    94:21:8e:2b:2a:d6:bb:3f:52:00:77:1e:9d:57:44:
                    f7:81:a8:be:23:6c:fd:14:94:83:9c:96:c2:31:6b:
                    17:9d:d7:5b:a9:65:e8:63:f8:1e:cf:60:48:3c:9d:
                    16:b1
                Exponent: 65537 (0x10001)
        X509v3 extensions:
            Netscape Cert Type: 
                SSL Server
            X509v3 Subject Key Identifier: 
                74:9A:A9:71:68:6F:90:60:41:64:61:75:5F:34:B7:5F:A9:EA:19:25
            X509v3 Authority Key Identifier: 
                keyid:A7:10:6F:5D:0C:9F:9C:A2:F4:39:92:A3:7D:5C:B8:C0:25:71:BF:39
                DirName:/CN=RANCHICA_CA/C=IN/O=CITRIX/OU=ANG/ST=KA/emailAddress=RANCHICA_CA@RANCHICA_mail.com
                serial:E7:09:A4:3D:1C:C7:45:B1

            Authority Information Access: 
                OCSP - URI:http://RANCHICA_two.ocsptest.com/responderpath

    Signature Algorithm: sha256WithRSAEncryption
         0b:69:ec:13:54:04:9b:c2:e1:93:bb:67:b4:bd:92:f2:d9:9f:
         26:59:c7:67:9f:7f:84:74:eb:08:b9:16:0e:2a:b9:f5:0f:f1:
         da:23:d8:23:27:01:a0:d3:8e:4f:b2:a1:f1:81:e7:46:db:a0:
         d5:d3:02:77:69:44:4d:00:ee:68:43:55:7c:ae:02:a9:2d:ee:
         74:68:f1:f3:32:df:40:14:28:82:b8:5d:69:a0:07:24:43:8d:
         9d:0d:e3:8f:ea:35:74:df:1b:cf:4b:ea:34:e4:a2:89:90:de:
         5a:32:3f:23:3f:0c:f2:f0:35:28:b0:04:88:fa:2b:73:d5:0b:
         22:29:20:b9:0d:2b:fa:dc:0d:ae:d4:03:f1:1c:66:ec:28:04:
         9c:52:e3:6a:1e:b5:2b:db:50:28:12:11:66:a1:b4:0b:61:e8:
         8c:cf:f6:e9:08:e6:1c:14:da:87:4f:14:cc:72:42:d4:35:85:
         1b:01:2f:c7:d7:50:be:e1:64:9a:d8:05:6e:3d:7d:51:18:d8:
         0b:ee:c8:3c:cb:d9:05:3e:31:72:e1:ab:c0:d7:bf:89:93:c8:
         1b:e6:19:f6:b0:90:28:28:6a:09:1c:87:91:ef:ed:0d:74:bc:
         bd:5c:63:34:22:bf:3f:a4:54:f1:67:eb:15:3c:74:4e:41:6a:
         60:a1:e0:e5
-----BEGIN CERTIFICATE-----
MIIEpjCCA46gAwIBAgIGCgsMDQ4dMA0GCSqGSIb3DQEBCwUAMH0xFDASBgNVBAMU
C1JBTkNISUNBX0NBMQswCQYDVQQGEwJJTjEPMA0GA1UEChMGQ0lUUklYMQwwCgYD
VQQLEwNBTkcxCzAJBgNVBAgTAktBMSwwKgYJKoZIhvcNAQkBFh1SQU5DSElDQV9D
QUBSQU5DSElDQV9tYWlsLmNvbTAeFw0xNjA3MDgwNDM4NTFaFw0yNjA3MDYwNDM4
NTFaMHIxCzAJBgNVBAgTAktBMQswCQYDVQQGEwJJTjEcMBoGA1UEAxQTMTE1X1JB
TkNISUNBX3NlcnZlcjEnMCUGCSqGSIb3DQEJARYYMTE1X1JBTkNISUNBQHRlc3Rf
Y2EuY29tMQ8wDQYDVQQKEwZDSVRSSVgwggEiMA0GCSqGSIb3DQEBAQUAA4IBDwAw
ggEKAoIBAQCjIIQlkePIa2Qtp3w3q1lMQSSeg5NnZblpPtYkvwKkpXJGJUIi3rUZ
45m4cJiK460d+8NaN/n/z/Wq7jEXbXD+aZz5WGQpQASkKSHao2zuCyB6Vl6YKGBU
MOuyGPgfhmtqQwjJCnXkmGDROkf0HUlTAJedNcgZom53VNQiFoiL0YcN1VtotKs1
0fDnHqHC8UFfO5BwhAFHAKBp2DArjMl9pb2bNrSbx1QTjhF4DZ688Fom/1s1FtfX
Alv+pbK/kxdgN3c0t6u2ARTfZIfvFMFSDpQhjisq1rs/UgB3Hp1XRPeBqL4jbP0U
lIOclsIxaxed11upZehj+B7PYEg8nRaxAgMBAAGjggE1MIIBMTARBglghkgBhvhC
AQEEBAMCBkAwHQYDVR0OBBYEFHSaqXFob5BgQWRhdV80t1+p6hklMIGwBgNVHSME
gagwgaWAFKcQb10Mn5yi9DmSo31cuMAlcb85oYGBpH8wfTEUMBIGA1UEAxQLUkFO
Q0hJQ0FfQ0ExCzAJBgNVBAYTAklOMQ8wDQYDVQQKEwZDSVRSSVgxDDAKBgNVBAsT
A0FORzELMAkGA1UECBMCS0ExLDAqBgkqhkiG9w0BCQEWHVJBTkNISUNBX0NBQFJB
TkNISUNBX21haWwuY29tggkA5wmkPRzHRbEwSgYIKwYBBQUHAQEEPjA8MDoGCCsG
AQUFBzABhi5odHRwOi8vUkFOQ0hJQ0FfdHdvLm9jc3B0ZXN0LmNvbS9yZXNwb25k
ZXJwYXRoMA0GCSqGSIb3DQEBCwUAA4IBAQALaewTVASbwuGTu2e0vZLy2Z8mWcdn
n3+EdOsIuRYOKrn1D/HaI9gjJwGg045PsqHxgedG26DV0wJ3aURNAO5oQ1V8rgKp
Le50aPHzMt9AFCiCuF1poAckQ42dDeOP6jV03xvPS+o05KKJkN5aMj8jPwzy8DUo
sASI+itz1QsiKSC5DSv63A2u1APxHGbsKAScUuNqHrUr21AoEhFmobQLYeiMz/bp
COYcFNqHTxTMckLUNYUbAS/H11C+4WSa2AVuPX1RGNgL7sg8y9kFPjFy4avA17+J
k8gb5hn2sJAoKGoJHIeR7+0NdLy9XGM0Ir8/pFTxZ+sVPHROQWpgoeDl
-----END CERTIFICATE-----
