Certificate:
    Data:
        Version: 3 (0x2)
        Serial Number: 11042563100190 (0xa0b0c0d0e1e)
    Signature Algorithm: sha256WithRSAEncryption
        Issuer: CN=RANCHICA_CA, C=IN, O=CITRIX, OU=ANG, ST=KA/emailAddress=RANCHICA_CA@RANCHICA_mail.com
        Validity
            Not Before: Jul  8 04:38:51 2016 GMT
            Not After : Jul  6 04:38:51 2026 GMT
        Subject: ST=KA, C=IN, CN=116_RANCHICA_server/emailAddress=116_RANCHICA@test_ca.com, O=CITRIX
        Subject Public Key Info:
            Public Key Algorithm: rsaEncryption
                Public-Key: (2048 bit)
                Modulus:
                    00:e1:04:3e:cf:5b:9d:dd:92:22:4c:90:c4:f6:48:
                    7e:a8:2e:95:cc:cb:ee:57:b1:ae:4a:09:27:ad:1b:
                    2f:4f:7e:38:14:31:23:ad:18:1e:ab:ce:81:de:fd:
                    d8:01:4f:42:e6:bc:fb:28:55:43:e8:20:19:d9:0a:
                    e2:bf:ce:4c:1b:11:f9:a8:cc:9c:d0:bb:ce:a2:b2:
                    7a:30:ac:4b:d9:0c:09:84:7c:d8:31:b9:67:ec:88:
                    ac:b6:a1:de:85:cd:1f:b2:a9:68:99:0f:9c:c1:93:
                    81:5e:13:e3:89:a5:a8:4e:86:94:cd:0d:c6:a4:05:
                    23:88:fb:e6:61:72:b4:45:f9:a4:bd:5f:9b:14:25:
                    dd:e4:19:a1:c4:9f:41:cf:39:4c:af:d1:58:2b:68:
                    7b:af:5b:0c:c7:a9:f7:b0:ff:38:21:0a:e6:37:c8:
                    b2:ac:ed:75:e6:6c:86:5e:f2:3b:09:8b:49:87:b3:
                    5b:84:59:58:1d:c8:9e:7b:48:95:6e:7b:ec:91:44:
                    0e:d6:3f:1a:38:96:97:97:9c:1e:68:5b:6e:52:4a:
                    a5:aa:26:52:b7:fe:67:6d:ea:89:ce:27:ed:46:86:
                    d2:b6:62:cc:3a:02:3e:22:17:08:6f:f4:31:44:5a:
                    9c:29:1b:83:3a:1f:da:fd:0b:d7:68:cc:98:17:a4:
                    53:a1
                Exponent: 65537 (0x10001)
        X509v3 extensions:
            Netscape Cert Type: 
                SSL Server
            X509v3 Subject Key Identifier: 
                6A:27:5E:9C:A2:C3:E0:E1:38:71:A8:7C:E7:54:1C:6F:04:DA:8B:BC
            X509v3 Authority Key Identifier: 
                keyid:A7:10:6F:5D:0C:9F:9C:A2:F4:39:92:A3:7D:5C:B8:C0:25:71:BF:39
                DirName:/CN=RANCHICA_CA/C=IN/O=CITRIX/OU=ANG/ST=KA/emailAddress=RANCHICA_CA@RANCHICA_mail.com
                serial:E7:09:A4:3D:1C:C7:45:B1

            Authority Information Access: 
                OCSP - URI:http://RANCHICA_two.ocsptest.com/responderpath

    Signature Algorithm: sha256WithRSAEncryption
         78:43:8c:c9:ba:65:de:ba:f1:df:12:d4:12:55:29:1c:57:d6:
         a4:53:75:7f:80:c6:ec:5f:e6:9d:a4:8c:6a:14:67:3d:88:c4:
         0c:fe:74:cf:57:b1:91:ba:dd:81:1c:9a:cf:47:45:c5:6b:90:
         65:26:4d:6a:b1:b8:aa:7a:51:5b:4c:80:ff:94:1b:db:77:70:
         87:1e:96:2b:56:93:d7:f5:58:b5:de:7a:f9:92:a0:c9:90:ba:
         e0:8e:87:87:dc:47:1d:a6:a8:ac:b5:5d:70:a1:e3:5d:e2:11:
         ac:fb:fd:a2:d6:81:8c:d4:f2:58:38:f1:28:c6:81:e7:6e:4a:
         a8:94:08:ac:c0:86:ae:ce:7f:4d:40:28:3f:97:17:21:7d:21:
         3b:98:4a:0c:64:f7:10:2c:c4:70:1c:20:74:6f:26:0d:59:9c:
         c4:fc:64:6b:6e:c0:c7:75:01:30:07:68:62:b9:f8:44:a6:1e:
         6e:89:9c:00:a2:97:ca:b0:90:87:79:03:d5:17:35:b7:ce:ca:
         11:06:25:0e:c0:d1:a9:1f:1f:c3:cf:38:33:0f:81:15:4b:2b:
         f8:c1:78:06:0a:21:30:b1:5c:4d:54:05:47:5b:29:03:53:3a:
         b5:07:80:c1:2c:e4:27:25:5b:2e:03:63:89:94:c5:e0:1e:a6:
         99:de:6a:27
-----BEGIN CERTIFICATE-----
MIIEpjCCA46gAwIBAgIGCgsMDQ4eMA0GCSqGSIb3DQEBCwUAMH0xFDASBgNVBAMU
C1JBTkNISUNBX0NBMQswCQYDVQQGEwJJTjEPMA0GA1UEChMGQ0lUUklYMQwwCgYD
VQQLEwNBTkcxCzAJBgNVBAgTAktBMSwwKgYJKoZIhvcNAQkBFh1SQU5DSElDQV9D
QUBSQU5DSElDQV9tYWlsLmNvbTAeFw0xNjA3MDgwNDM4NTFaFw0yNjA3MDYwNDM4
NTFaMHIxCzAJBgNVBAgTAktBMQswCQYDVQQGEwJJTjEcMBoGA1UEAxQTMTE2X1JB
TkNISUNBX3NlcnZlcjEnMCUGCSqGSIb3DQEJARYYMTE2X1JBTkNISUNBQHRlc3Rf
Y2EuY29tMQ8wDQYDVQQKEwZDSVRSSVgwggEiMA0GCSqGSIb3DQEBAQUAA4IBDwAw
ggEKAoIBAQDhBD7PW53dkiJMkMT2SH6oLpXMy+5Xsa5KCSetGy9PfjgUMSOtGB6r
zoHe/dgBT0LmvPsoVUPoIBnZCuK/zkwbEfmozJzQu86isnowrEvZDAmEfNgxuWfs
iKy2od6FzR+yqWiZD5zBk4FeE+OJpahOhpTNDcakBSOI++ZhcrRF+aS9X5sUJd3k
GaHEn0HPOUyv0VgraHuvWwzHqfew/zghCuY3yLKs7XXmbIZe8jsJi0mHs1uEWVgd
yJ57SJVue+yRRA7WPxo4lpeXnB5oW25SSqWqJlK3/mdt6onOJ+1GhtK2Ysw6Aj4i
Fwhv9DFEWpwpG4M6H9r9C9dozJgXpFOhAgMBAAGjggE1MIIBMTARBglghkgBhvhC
AQEEBAMCBkAwHQYDVR0OBBYEFGonXpyiw+DhOHGofOdUHG8E2ou8MIGwBgNVHSME
gagwgaWAFKcQb10Mn5yi9DmSo31cuMAlcb85oYGBpH8wfTEUMBIGA1UEAxQLUkFO
Q0hJQ0FfQ0ExCzAJBgNVBAYTAklOMQ8wDQYDVQQKEwZDSVRSSVgxDDAKBgNVBAsT
A0FORzELMAkGA1UECBMCS0ExLDAqBgkqhkiG9w0BCQEWHVJBTkNISUNBX0NBQFJB
TkNISUNBX21haWwuY29tggkA5wmkPRzHRbEwSgYIKwYBBQUHAQEEPjA8MDoGCCsG
AQUFBzABhi5odHRwOi8vUkFOQ0hJQ0FfdHdvLm9jc3B0ZXN0LmNvbS9yZXNwb25k
ZXJwYXRoMA0GCSqGSIb3DQEBCwUAA4IBAQB4Q4zJumXeuvHfEtQSVSkcV9akU3V/
gMbsX+adpIxqFGc9iMQM/nTPV7GRut2BHJrPR0XFa5BlJk1qsbiqelFbTID/lBvb
d3CHHpYrVpPX9Vi13nr5kqDJkLrgjoeH3EcdpqistV1woeNd4hGs+/2i1oGM1PJY
OPEoxoHnbkqolAiswIauzn9NQCg/lxchfSE7mEoMZPcQLMRwHCB0byYNWZzE/GRr
bsDHdQEwB2hiufhEph5uiZwAopfKsJCHeQPVFzW3zsoRBiUOwNGpHx/DzzgzD4EV
Syv4wXgGCiEwsVxNVAVHWykDUzq1B4DBLOQnJVsuA2OJlMXgHqaZ3mon
-----END CERTIFICATE-----
