Certificate:
    Data:
        Version: 3 (0x2)
        Serial Number: 11042563100194 (0xa0b0c0d0e22)
    Signature Algorithm: sha256WithRSAEncryption
        Issuer: CN=RANCHICA_CA, C=IN, O=CITRIX, OU=ANG, ST=KA/emailAddress=RANCHICA_CA@RANCHICA_mail.com
        Validity
            Not Before: Jul  8 04:38:52 2016 GMT
            Not After : Jul  6 04:38:52 2026 GMT
        Subject: ST=KA, C=IN, CN=120_RANCHICA_server/emailAddress=120_RANCHICA@test_ca.com, O=CITRIX
        Subject Public Key Info:
            Public Key Algorithm: rsaEncryption
                Public-Key: (2048 bit)
                Modulus:
                    00:e4:28:e7:82:27:0b:67:1e:cf:0f:f5:ba:f4:81:
                    04:be:e9:72:0c:b0:e8:00:23:44:17:61:25:19:bc:
                    55:b9:ce:6d:55:bf:3c:ef:be:21:3b:0c:10:1f:5d:
                    6f:66:c0:b1:4d:15:db:26:94:fe:aa:57:a7:05:db:
                    9b:ea:c0:92:7e:b7:8b:e5:a4:ab:cf:d4:e3:3a:3a:
                    09:78:c8:f3:7f:45:54:21:0c:92:a6:e2:cc:98:a1:
                    40:45:77:38:0e:f3:f0:bf:66:2e:64:25:d5:57:a3:
                    6b:0b:46:ce:d5:14:34:6e:0a:29:51:7b:92:0b:24:
                    1d:8f:3b:e6:a3:b7:d0:d6:9a:71:ed:2f:56:4c:46:
                    09:b7:5b:f1:cf:9b:37:71:a7:1a:e1:e6:57:21:1d:
                    25:e3:f7:d9:81:45:86:28:b0:f1:2d:1b:68:86:4e:
                    8e:24:15:04:d1:23:ba:c5:c5:4b:b6:66:19:93:54:
                    4d:57:1b:ce:63:fe:57:4b:5b:a5:55:23:00:5f:1f:
                    60:10:c4:cf:b2:f7:27:8c:20:38:20:bb:7e:be:22:
                    a4:3a:0f:ff:69:9c:77:36:4c:73:e8:f1:d6:83:cc:
                    28:68:3e:d2:f4:85:b6:03:bd:3e:5c:11:43:13:37:
                    8f:f4:12:3f:b0:eb:87:12:fd:68:61:d8:fc:db:66:
                    b1:cd
                Exponent: 65537 (0x10001)
        X509v3 extensions:
            Netscape Cert Type: 
                SSL Server
            X509v3 Subject Key Identifier: 
                9B:AD:BC:6F:17:96:57:68:37:C0:49:86:CF:E0:11:D2:ED:B6:FC:90
            X509v3 Authority Key Identifier: 
                keyid:A7:10:6F:5D:0C:9F:9C:A2:F4:39:92:A3:7D:5C:B8:C0:25:71:BF:39
                DirName:/CN=RANCHICA_CA/C=IN/O=CITRIX/OU=ANG/ST=KA/emailAddress=RANCHICA_CA@RANCHICA_mail.com
                serial:E7:09:A4:3D:1C:C7:45:B1

            Authority Information Access: 
                OCSP - URI:http://RANCHICA_two.ocsptest.com/responderpath

    Signature Algorithm: sha256WithRSAEncryption
         3a:70:19:70:23:e4:44:1d:8e:bc:77:4d:47:c4:b1:4f:4b:52:
         ab:b2:6a:7b:07:43:2b:26:41:c7:f3:f2:2c:8d:f2:17:60:6f:
         97:ab:e4:46:d8:34:b5:b1:74:bc:d5:52:39:cc:ba:e5:ef:50:
         ec:92:02:00:f4:2e:b6:9d:f7:1d:15:d5:79:fc:64:b8:5c:77:
         f9:48:28:67:e2:b7:28:04:69:be:53:9b:ee:f7:12:5d:d9:e2:
         92:3b:35:f1:ab:ce:f5:82:60:a4:49:2b:ae:e9:61:c4:64:92:
         b9:a5:17:86:36:df:b7:aa:e3:ac:d9:76:fb:44:40:81:0e:6b:
         67:89:0c:2c:f8:93:e4:19:38:69:4e:de:10:6e:89:c7:bc:3c:
         80:a6:5f:82:71:72:68:b8:d4:35:76:9b:50:df:46:2a:01:2c:
         5d:c5:9b:a9:00:70:42:a5:14:ea:62:af:d9:fd:5f:7b:9b:05:
         30:f8:ed:2e:12:dd:93:f6:18:36:96:d7:1d:f7:f6:a5:41:da:
         2f:b8:05:48:e0:89:02:8e:98:91:dd:51:f7:f0:a9:01:9d:64:
         b6:11:ca:d2:e8:97:8a:96:1d:ed:1a:b7:95:cc:06:4a:71:92:
         10:ea:f6:b4:33:a5:0e:c0:b7:21:24:27:88:1e:8d:30:6b:96:
         98:0b:26:00
-----BEGIN CERTIFICATE-----
MIIEpjCCA46gAwIBAgIGCgsMDQ4iMA0GCSqGSIb3DQEBCwUAMH0xFDASBgNVBAMU
C1JBTkNISUNBX0NBMQswCQYDVQQGEwJJTjEPMA0GA1UEChMGQ0lUUklYMQwwCgYD
VQQLEwNBTkcxCzAJBgNVBAgTAktBMSwwKgYJKoZIhvcNAQkBFh1SQU5DSElDQV9D
QUBSQU5DSElDQV9tYWlsLmNvbTAeFw0xNjA3MDgwNDM4NTJaFw0yNjA3MDYwNDM4
NTJaMHIxCzAJBgNVBAgTAktBMQswCQYDVQQGEwJJTjEcMBoGA1UEAxQTMTIwX1JB
TkNISUNBX3NlcnZlcjEnMCUGCSqGSIb3DQEJARYYMTIwX1JBTkNISUNBQHRlc3Rf
Y2EuY29tMQ8wDQYDVQQKEwZDSVRSSVgwggEiMA0GCSqGSIb3DQEBAQUAA4IBDwAw
ggEKAoIBAQDkKOeCJwtnHs8P9br0gQS+6XIMsOgAI0QXYSUZvFW5zm1VvzzvviE7
DBAfXW9mwLFNFdsmlP6qV6cF25vqwJJ+t4vlpKvP1OM6Ogl4yPN/RVQhDJKm4syY
oUBFdzgO8/C/Zi5kJdVXo2sLRs7VFDRuCilRe5ILJB2PO+ajt9DWmnHtL1ZMRgm3
W/HPmzdxpxrh5lchHSXj99mBRYYosPEtG2iGTo4kFQTRI7rFxUu2ZhmTVE1XG85j
/ldLW6VVIwBfH2AQxM+y9yeMIDggu36+IqQ6D/9pnHc2THPo8daDzChoPtL0hbYD
vT5cEUMTN4/0Ej+w64cS/Whh2PzbZrHNAgMBAAGjggE1MIIBMTARBglghkgBhvhC
AQEEBAMCBkAwHQYDVR0OBBYEFJutvG8XlldoN8BJhs/gEdLttvyQMIGwBgNVHSME
gagwgaWAFKcQb10Mn5yi9DmSo31cuMAlcb85oYGBpH8wfTEUMBIGA1UEAxQLUkFO
Q0hJQ0FfQ0ExCzAJBgNVBAYTAklOMQ8wDQYDVQQKEwZDSVRSSVgxDDAKBgNVBAsT
A0FORzELMAkGA1UECBMCS0ExLDAqBgkqhkiG9w0BCQEWHVJBTkNISUNBX0NBQFJB
TkNISUNBX21haWwuY29tggkA5wmkPRzHRbEwSgYIKwYBBQUHAQEEPjA8MDoGCCsG
AQUFBzABhi5odHRwOi8vUkFOQ0hJQ0FfdHdvLm9jc3B0ZXN0LmNvbS9yZXNwb25k
ZXJwYXRoMA0GCSqGSIb3DQEBCwUAA4IBAQA6cBlwI+REHY68d01HxLFPS1Krsmp7
B0MrJkHH8/IsjfIXYG+Xq+RG2DS1sXS81VI5zLrl71DskgIA9C62nfcdFdV5/GS4
XHf5SChn4rcoBGm+U5vu9xJd2eKSOzXxq871gmCkSSuu6WHEZJK5pReGNt+3quOs
2Xb7RECBDmtniQws+JPkGThpTt4QbonHvDyApl+CcXJouNQ1dptQ30YqASxdxZup
AHBCpRTqYq/Z/V97mwUw+O0uEt2T9hg2ltcd9/alQdovuAVI4IkCjpiR3VH38KkB
nWS2EcrS6JeKlh3tGreVzAZKcZIQ6va0M6UOwLchJCeIHo0wa5aYCyYA
-----END CERTIFICATE-----
