Certificate:
    Data:
        Version: 3 (0x2)
        Serial Number: 11042563100195 (0xa0b0c0d0e23)
    Signature Algorithm: sha256WithRSAEncryption
        Issuer: CN=RANCHICA_CA, C=IN, O=CITRIX, OU=ANG, ST=KA/emailAddress=RANCHICA_CA@RANCHICA_mail.com
        Validity
            Not Before: Jul  8 04:38:53 2016 GMT
            Not After : Jul  6 04:38:53 2026 GMT
        Subject: ST=KA, C=IN, CN=121_RANCHICA_server/emailAddress=121_RANCHICA@test_ca.com, O=CITRIX
        Subject Public Key Info:
            Public Key Algorithm: rsaEncryption
                Public-Key: (2048 bit)
                Modulus:
                    00:c7:5f:ba:7b:9c:ce:a5:3c:4f:e9:f2:b2:ba:e1:
                    7b:cc:46:7e:0e:af:2d:4a:54:25:bd:e4:8f:0e:b0:
                    53:e1:fc:c1:ff:0d:ed:ae:f0:1d:73:06:0b:08:7c:
                    d0:1f:b1:68:a0:2f:c0:82:63:f7:dd:35:4e:2a:30:
                    e2:31:c1:5c:9e:be:a9:44:3c:6d:55:c9:41:3c:ac:
                    57:b8:de:45:fa:97:c4:7d:26:db:90:03:f7:3a:de:
                    4c:f5:1f:2d:70:77:25:52:0f:01:23:ed:bb:ef:32:
                    c8:35:01:ea:d8:73:c7:7c:d8:de:5a:15:7c:39:c0:
                    90:79:dd:00:20:67:42:b3:c7:d6:80:54:b2:d5:d2:
                    b7:ff:47:f9:94:1f:52:52:16:9b:f6:e2:23:ee:67:
                    fd:82:06:b7:96:e2:4a:c7:59:66:63:f9:74:b8:98:
                    a1:a4:bf:e3:71:ad:70:4d:8e:18:bb:e9:c5:a4:b3:
                    89:3b:a0:73:0f:7a:6a:91:35:2e:d4:05:42:b5:cd:
                    c5:93:35:4c:0e:fc:d8:e8:25:9d:70:28:ba:e7:4d:
                    fb:b4:48:5e:ad:1e:6e:b2:b3:62:ed:72:82:27:46:
                    cb:2b:40:94:6f:ee:c9:c6:0f:6d:a3:a8:87:11:1b:
                    f8:bf:52:ff:62:e5:27:3a:c0:a6:f6:bd:8a:67:f7:
                    c8:73
                Exponent: 65537 (0x10001)
        X509v3 extensions:
            Netscape Cert Type: 
                SSL Server
            X509v3 Subject Key Identifier: 
                71:B5:F8:0E:81:16:A9:9E:24:ED:DE:B5:52:56:C3:0C:ED:D9:56:D2
            X509v3 Authority Key Identifier: 
                keyid:A7:10:6F:5D:0C:9F:9C:A2:F4:39:92:A3:7D:5C:B8:C0:25:71:BF:39
                DirName:/CN=RANCHICA_CA/C=IN/O=CITRIX/OU=ANG/ST=KA/emailAddress=RANCHICA_CA@RANCHICA_mail.com
                serial:E7:09:A4:3D:1C:C7:45:B1

            Authority Information Access: 
                OCSP - URI:http://172.27.10.1/responderpath

    Signature Algorithm: sha256WithRSAEncryption
         44:d6:44:73:d2:5c:d8:37:14:cd:81:d3:ba:9a:56:e7:da:02:
         dd:dd:32:3b:90:bc:d7:7d:11:20:7a:71:3c:b9:74:b6:84:ef:
         cd:31:62:20:6b:f7:86:eb:cb:a0:93:24:e1:0f:ff:7a:b9:64:
         1c:e6:61:1c:e7:6f:d1:54:4a:ac:76:a9:88:5e:43:45:81:4d:
         19:25:6b:ba:6c:f1:17:cf:fd:61:9a:d9:fa:01:67:e3:7f:e4:
         d7:e7:7f:2f:28:ed:39:78:2f:dc:ec:49:23:f9:ab:09:fe:08:
         dd:e2:94:8f:9f:88:35:8a:95:08:a5:44:ef:d7:25:b9:3b:cc:
         e0:d6:d3:e0:8f:9a:c0:fe:98:ef:d1:75:1b:60:5b:79:4a:27:
         17:2d:75:f4:4b:42:1c:4c:cc:e6:61:27:5c:0d:35:d9:d4:c4:
         74:48:bf:be:11:50:55:86:d7:18:11:94:fd:70:d2:f2:6f:48:
         55:59:66:ea:2a:21:bf:17:bd:5f:3e:64:18:b1:d4:f9:05:a0:
         ab:e7:95:a3:fa:67:d7:37:08:fd:b8:0e:cf:e5:f4:b5:c1:52:
         39:0a:bd:ec:45:b2:bb:ce:da:e6:bb:6b:35:93:e8:74:50:c9:
         74:9f:c6:c0:6b:53:87:86:62:f9:1d:1f:6c:95:74:1c:94:3f:
         38:ea:bd:b7
-----BEGIN CERTIFICATE-----
MIIEmDCCA4CgAwIBAgIGCgsMDQ4jMA0GCSqGSIb3DQEBCwUAMH0xFDASBgNVBAMU
C1JBTkNISUNBX0NBMQswCQYDVQQGEwJJTjEPMA0GA1UEChMGQ0lUUklYMQwwCgYD
VQQLEwNBTkcxCzAJBgNVBAgTAktBMSwwKgYJKoZIhvcNAQkBFh1SQU5DSElDQV9D
QUBSQU5DSElDQV9tYWlsLmNvbTAeFw0xNjA3MDgwNDM4NTNaFw0yNjA3MDYwNDM4
NTNaMHIxCzAJBgNVBAgTAktBMQswCQYDVQQGEwJJTjEcMBoGA1UEAxQTMTIxX1JB
TkNISUNBX3NlcnZlcjEnMCUGCSqGSIb3DQEJARYYMTIxX1JBTkNISUNBQHRlc3Rf
Y2EuY29tMQ8wDQYDVQQKEwZDSVRSSVgwggEiMA0GCSqGSIb3DQEBAQUAA4IBDwAw
ggEKAoIBAQDHX7p7nM6lPE/p8rK64XvMRn4Ory1KVCW95I8OsFPh/MH/De2u8B1z
BgsIfNAfsWigL8CCY/fdNU4qMOIxwVyevqlEPG1VyUE8rFe43kX6l8R9JtuQA/c6
3kz1Hy1wdyVSDwEj7bvvMsg1AerYc8d82N5aFXw5wJB53QAgZ0Kzx9aAVLLV0rf/
R/mUH1JSFpv24iPuZ/2CBreW4krHWWZj+XS4mKGkv+NxrXBNjhi76cWks4k7oHMP
emqRNS7UBUK1zcWTNUwO/NjoJZ1wKLrnTfu0SF6tHm6ys2LtcoInRssrQJRv7snG
D22jqIcRG/i/Uv9i5Sc6wKb2vYpn98hzAgMBAAGjggEnMIIBIzARBglghkgBhvhC
AQEEBAMCBkAwHQYDVR0OBBYEFHG1+A6BFqmeJO3etVJWwwzt2VbSMIGwBgNVHSME
gagwgaWAFKcQb10Mn5yi9DmSo31cuMAlcb85oYGBpH8wfTEUMBIGA1UEAxQLUkFO
Q0hJQ0FfQ0ExCzAJBgNVBAYTAklOMQ8wDQYDVQQKEwZDSVRSSVgxDDAKBgNVBAsT
A0FORzELMAkGA1UECBMCS0ExLDAqBgkqhkiG9w0BCQEWHVJBTkNISUNBX0NBQFJB
TkNISUNBX21haWwuY29tggkA5wmkPRzHRbEwPAYIKwYBBQUHAQEEMDAuMCwGCCsG
AQUFBzABhiBodHRwOi8vMTcyLjI3LjEwLjEvcmVzcG9uZGVycGF0aDANBgkqhkiG
9w0BAQsFAAOCAQEARNZEc9Jc2DcUzYHTuppW59oC3d0yO5C8130RIHpxPLl0toTv
zTFiIGv3huvLoJMk4Q//erlkHOZhHOdv0VRKrHapiF5DRYFNGSVrumzxF8/9YZrZ
+gFn43/k1+d/LyjtOXgv3OxJI/mrCf4I3eKUj5+INYqVCKVE79cluTvM4NbT4I+a
wP6Y79F1G2BbeUonFy119EtCHEzM5mEnXA012dTEdEi/vhFQVYbXGBGU/XDS8m9I
VVlm6iohvxe9Xz5kGLHU+QWgq+eVo/pn1zcI/bgOz+X0tcFSOQq97EWyu87a5rtr
NZPodFDJdJ/GwGtTh4Zi+R0fbJV0HJQ/OOq9tw==
-----END CERTIFICATE-----
