Certificate:
    Data:
        Version: 3 (0x2)
        Serial Number: 11042563100203 (0xa0b0c0d0e2b)
    Signature Algorithm: sha256WithRSAEncryption
        Issuer: CN=RANCHICA_CA, C=IN, O=CITRIX, OU=ANG, ST=KA/emailAddress=RANCHICA_CA@RANCHICA_mail.com
        Validity
            Not Before: Jul  8 04:38:55 2016 GMT
            Not After : Jul  6 04:38:55 2026 GMT
        Subject: ST=KA, C=IN, CN=129_RANCHICA_server/emailAddress=129_RANCHICA@test_ca.com, O=CITRIX
        Subject Public Key Info:
            Public Key Algorithm: rsaEncryption
                Public-Key: (2048 bit)
                Modulus:
                    00:d0:32:ed:c4:49:2e:91:57:ac:7e:f5:2f:78:73:
                    b9:70:be:21:5c:7f:c8:55:00:58:5e:a5:10:5a:11:
                    65:90:ab:78:76:ae:6b:6a:d2:44:ea:d2:fc:42:3f:
                    64:b2:13:85:a4:ec:9a:07:37:e7:f3:bd:68:41:53:
                    f1:5a:98:12:16:20:0e:73:ba:c9:45:c3:29:a7:66:
                    ac:d1:2c:44:a9:5c:3c:45:73:90:79:84:73:00:b6:
                    e3:01:de:2c:7c:38:8c:f3:8f:af:40:3e:b0:df:58:
                    ea:6e:74:e3:06:7a:13:94:e4:27:58:7a:5e:37:e7:
                    b1:e7:cd:e2:65:f1:2d:c6:ae:a5:9c:f8:8e:51:76:
                    4c:c2:5e:32:8b:0f:a6:44:05:92:03:fc:25:cf:a3:
                    30:d9:23:c5:1e:cb:6f:c8:26:4d:ec:14:b1:c9:0d:
                    06:74:0e:06:57:0d:83:d0:c4:e3:4e:66:13:dd:b7:
                    56:a7:d1:52:13:1f:42:34:f6:57:2e:5f:b1:13:0f:
                    af:9e:db:4a:57:31:0d:d0:a1:eb:a1:a2:ea:93:4f:
                    f5:0a:58:b8:de:28:34:43:b7:8e:33:c8:13:bf:e8:
                    47:c9:3c:4e:c8:0a:2e:8c:cb:66:46:c6:32:71:9c:
                    50:f2:a5:b2:65:cf:ba:82:7f:cc:d3:6e:e4:da:bb:
                    d0:f3
                Exponent: 65537 (0x10001)
        X509v3 extensions:
            Netscape Cert Type: 
                SSL Server
            X509v3 Subject Key Identifier: 
                54:4F:DB:64:EF:66:08:CC:6D:BC:E2:88:A7:18:C9:AA:0A:07:7F:8A
            X509v3 Authority Key Identifier: 
                keyid:A7:10:6F:5D:0C:9F:9C:A2:F4:39:92:A3:7D:5C:B8:C0:25:71:BF:39
                DirName:/CN=RANCHICA_CA/C=IN/O=CITRIX/OU=ANG/ST=KA/emailAddress=RANCHICA_CA@RANCHICA_mail.com
                serial:E7:09:A4:3D:1C:C7:45:B1

            Authority Information Access: 
                OCSP - URI:http://172.27.10.1/responderpath

    Signature Algorithm: sha256WithRSAEncryption
         7e:ff:4d:84:c1:7a:a6:84:81:54:04:a0:cf:56:cf:14:45:00:
         7f:1f:e8:f7:87:e4:bd:ec:6a:22:16:86:7b:17:d8:f8:02:87:
         09:8a:1c:cf:78:a1:c5:01:79:34:a6:4d:51:68:e5:12:c8:ac:
         95:25:db:c6:d8:e9:38:58:d4:d0:00:71:14:b4:54:e7:bc:50:
         d2:af:11:29:38:7b:13:20:4c:d3:d8:5b:30:19:a6:0c:32:90:
         63:67:4e:6e:36:c7:be:80:11:07:d9:2e:b5:7c:0a:2c:41:85:
         cc:00:21:06:76:23:7f:dc:73:be:90:e5:46:35:b6:52:7d:7b:
         7f:67:b1:18:d3:86:22:09:46:71:3f:40:7b:00:03:bf:70:88:
         84:15:45:ed:80:e0:07:1a:95:ca:b0:93:28:7f:bc:ab:d0:02:
         c0:88:51:04:e9:3e:52:0c:c4:19:16:e2:4f:bc:c5:f4:7e:a6:
         44:1e:a5:bc:7e:43:42:84:ea:3d:e9:d3:02:ae:ae:fc:91:e2:
         86:a7:0f:9e:08:34:c8:38:b6:f4:36:ed:f6:e7:23:25:b1:56:
         71:c1:3d:b2:aa:10:65:41:79:53:f6:f1:e1:7e:b4:15:5c:e9:
         f1:a6:83:3d:d3:36:98:66:cb:40:c7:3c:15:7e:c5:8e:51:25:
         43:71:44:8d
-----BEGIN CERTIFICATE-----
MIIEmDCCA4CgAwIBAgIGCgsMDQ4rMA0GCSqGSIb3DQEBCwUAMH0xFDASBgNVBAMU
C1JBTkNISUNBX0NBMQswCQYDVQQGEwJJTjEPMA0GA1UEChMGQ0lUUklYMQwwCgYD
VQQLEwNBTkcxCzAJBgNVBAgTAktBMSwwKgYJKoZIhvcNAQkBFh1SQU5DSElDQV9D
QUBSQU5DSElDQV9tYWlsLmNvbTAeFw0xNjA3MDgwNDM4NTVaFw0yNjA3MDYwNDM4
NTVaMHIxCzAJBgNVBAgTAktBMQswCQYDVQQGEwJJTjEcMBoGA1UEAxQTMTI5X1JB
TkNISUNBX3NlcnZlcjEnMCUGCSqGSIb3DQEJARYYMTI5X1JBTkNISUNBQHRlc3Rf
Y2EuY29tMQ8wDQYDVQQKEwZDSVRSSVgwggEiMA0GCSqGSIb3DQEBAQUAA4IBDwAw
ggEKAoIBAQDQMu3ESS6RV6x+9S94c7lwviFcf8hVAFhepRBaEWWQq3h2rmtq0kTq
0vxCP2SyE4Wk7JoHN+fzvWhBU/FamBIWIA5zuslFwymnZqzRLESpXDxFc5B5hHMA
tuMB3ix8OIzzj69APrDfWOpudOMGehOU5CdYel4357HnzeJl8S3GrqWc+I5RdkzC
XjKLD6ZEBZID/CXPozDZI8Uey2/IJk3sFLHJDQZ0DgZXDYPQxONOZhPdt1an0VIT
H0I09lcuX7ETD6+e20pXMQ3QoeuhouqTT/UKWLjeKDRDt44zyBO/6EfJPE7ICi6M
y2ZGxjJxnFDypbJlz7qCf8zTbuTau9DzAgMBAAGjggEnMIIBIzARBglghkgBhvhC
AQEEBAMCBkAwHQYDVR0OBBYEFFRP22TvZgjMbbziiKcYyaoKB3+KMIGwBgNVHSME
gagwgaWAFKcQb10Mn5yi9DmSo31cuMAlcb85oYGBpH8wfTEUMBIGA1UEAxQLUkFO
Q0hJQ0FfQ0ExCzAJBgNVBAYTAklOMQ8wDQYDVQQKEwZDSVRSSVgxDDAKBgNVBAsT
A0FORzELMAkGA1UECBMCS0ExLDAqBgkqhkiG9w0BCQEWHVJBTkNISUNBX0NBQFJB
TkNISUNBX21haWwuY29tggkA5wmkPRzHRbEwPAYIKwYBBQUHAQEEMDAuMCwGCCsG
AQUFBzABhiBodHRwOi8vMTcyLjI3LjEwLjEvcmVzcG9uZGVycGF0aDANBgkqhkiG
9w0BAQsFAAOCAQEAfv9NhMF6poSBVASgz1bPFEUAfx/o94fkvexqIhaGexfY+AKH
CYocz3ihxQF5NKZNUWjlEsislSXbxtjpOFjU0ABxFLRU57xQ0q8RKTh7EyBM09hb
MBmmDDKQY2dObjbHvoARB9kutXwKLEGFzAAhBnYjf9xzvpDlRjW2Un17f2exGNOG
IglGcT9AewADv3CIhBVF7YDgBxqVyrCTKH+8q9ACwIhRBOk+UgzEGRbiT7zF9H6m
RB6lvH5DQoTqPenTAq6u/JHihqcPngg0yDi29Dbt9ucjJbFWccE9sqoQZUF5U/bx
4X60FVzp8aaDPdM2mGbLQMc8FX7FjlElQ3FEjQ==
-----END CERTIFICATE-----
