Certificate:
    Data:
        Version: 3 (0x2)
        Serial Number: 11042563100211 (0xa0b0c0d0e33)
    Signature Algorithm: sha256WithRSAEncryption
        Issuer: CN=RANCHICA_CA, C=IN, O=CITRIX, OU=ANG, ST=KA/emailAddress=RANCHICA_CA@RANCHICA_mail.com
        Validity
            Not Before: Jul  8 04:38:57 2016 GMT
            Not After : Jul  6 04:38:57 2026 GMT
        Subject: ST=KA, C=IN, CN=137_RANCHICA_server/emailAddress=137_RANCHICA@test_ca.com, O=CITRIX
        Subject Public Key Info:
            Public Key Algorithm: rsaEncryption
                Public-Key: (2048 bit)
                Modulus:
                    00:e3:40:12:ab:16:57:1d:3a:01:75:e2:45:dd:7b:
                    46:77:4b:cb:17:53:ce:62:7e:b0:36:ec:07:16:83:
                    6e:a0:69:e4:68:e2:7f:84:81:d7:74:2b:54:a6:4d:
                    74:ef:d5:f8:d0:e4:43:d0:31:f6:dd:64:d2:40:db:
                    71:4e:89:d3:a5:7a:1f:f8:b0:32:cb:f9:bf:e1:8a:
                    b7:e1:f0:82:64:7a:c4:65:5b:a0:ec:85:fb:90:be:
                    c3:c2:94:9d:d9:13:28:84:58:d8:c2:2b:3f:58:00:
                    fb:d9:2c:7d:d5:b0:17:b4:47:eb:0f:32:aa:19:b4:
                    bf:4c:79:82:0e:40:64:bd:94:4d:9d:f7:80:94:3c:
                    c6:f4:a5:52:a4:86:31:38:fb:31:20:bb:9b:0c:d5:
                    25:34:7e:5e:76:9b:56:79:aa:d2:f3:70:08:90:85:
                    d0:d4:18:f4:9d:cf:0a:33:e4:72:b9:f5:c3:09:f9:
                    00:38:5b:30:69:3c:c3:c3:ea:2c:94:59:93:ac:fb:
                    23:ac:ef:e4:6e:b7:14:d2:19:56:c8:15:18:7d:b6:
                    2a:60:5a:4c:fb:5d:7a:c2:bc:32:a1:8d:72:64:33:
                    5d:5a:e5:76:f6:15:b9:a4:ed:af:2a:1b:12:e0:19:
                    f4:2c:6f:d8:4c:ca:99:a7:a6:c3:87:2f:0e:c5:19:
                    c5:d1
                Exponent: 65537 (0x10001)
        X509v3 extensions:
            Netscape Cert Type: 
                SSL Server
            X509v3 Subject Key Identifier: 
                51:99:98:BA:0B:24:79:EA:BE:FD:9C:A7:58:A2:4A:09:3D:7D:6D:29
            X509v3 Authority Key Identifier: 
                keyid:A7:10:6F:5D:0C:9F:9C:A2:F4:39:92:A3:7D:5C:B8:C0:25:71:BF:39
                DirName:/CN=RANCHICA_CA/C=IN/O=CITRIX/OU=ANG/ST=KA/emailAddress=RANCHICA_CA@RANCHICA_mail.com
                serial:E7:09:A4:3D:1C:C7:45:B1

            Authority Information Access: 
                OCSP - URI:http://172.27.20.1/responderpath

    Signature Algorithm: sha256WithRSAEncryption
         50:79:fa:bc:95:a5:84:fc:a0:4e:07:a1:d8:b4:e9:69:ed:9e:
         b7:d6:e3:da:c2:6a:c4:c9:a5:50:b1:5f:3b:fb:bf:a7:91:0c:
         44:62:65:8b:7f:61:67:41:df:af:3c:75:37:a4:a1:84:01:2e:
         17:9e:d3:1c:34:ae:b2:ed:08:eb:55:f3:24:51:6a:14:6c:21:
         e1:f6:9b:e9:c0:2d:07:35:bc:83:d0:e3:5f:91:a7:38:6b:48:
         15:c8:e5:46:0d:5e:33:c8:01:fc:be:54:b6:0d:9a:55:5f:ae:
         7c:8e:22:c5:e1:76:a9:23:f3:05:3c:b0:8b:7c:44:3e:f9:c2:
         64:db:1b:cf:62:e3:01:62:85:d7:42:18:24:df:98:c2:68:d8:
         b2:50:bc:96:61:74:1a:9c:6f:8d:c7:2a:db:b0:d3:26:27:66:
         1d:d1:f7:0c:73:4f:c8:aa:2d:2a:e5:e4:6f:52:79:0a:0a:d8:
         aa:43:72:9d:64:bc:5d:2d:1f:95:2b:18:c4:eb:b0:a0:9b:36:
         68:10:aa:29:4f:8e:69:c6:bb:b2:19:22:54:c5:2e:49:29:f0:
         75:7b:86:65:e2:cf:3b:b1:b5:34:40:2e:68:c9:d8:ca:67:be:
         d1:5a:a0:29:46:9c:2c:04:49:49:fd:4e:2c:86:3e:65:5f:bc:
         3d:27:74:37
-----BEGIN CERTIFICATE-----
MIIEmDCCA4CgAwIBAgIGCgsMDQ4zMA0GCSqGSIb3DQEBCwUAMH0xFDASBgNVBAMU
C1JBTkNISUNBX0NBMQswCQYDVQQGEwJJTjEPMA0GA1UEChMGQ0lUUklYMQwwCgYD
VQQLEwNBTkcxCzAJBgNVBAgTAktBMSwwKgYJKoZIhvcNAQkBFh1SQU5DSElDQV9D
QUBSQU5DSElDQV9tYWlsLmNvbTAeFw0xNjA3MDgwNDM4NTdaFw0yNjA3MDYwNDM4
NTdaMHIxCzAJBgNVBAgTAktBMQswCQYDVQQGEwJJTjEcMBoGA1UEAxQTMTM3X1JB
TkNISUNBX3NlcnZlcjEnMCUGCSqGSIb3DQEJARYYMTM3X1JBTkNISUNBQHRlc3Rf
Y2EuY29tMQ8wDQYDVQQKEwZDSVRSSVgwggEiMA0GCSqGSIb3DQEBAQUAA4IBDwAw
ggEKAoIBAQDjQBKrFlcdOgF14kXde0Z3S8sXU85ifrA27AcWg26gaeRo4n+Egdd0
K1SmTXTv1fjQ5EPQMfbdZNJA23FOidOleh/4sDLL+b/hirfh8IJkesRlW6DshfuQ
vsPClJ3ZEyiEWNjCKz9YAPvZLH3VsBe0R+sPMqoZtL9MeYIOQGS9lE2d94CUPMb0
pVKkhjE4+zEgu5sM1SU0fl52m1Z5qtLzcAiQhdDUGPSdzwoz5HK59cMJ+QA4WzBp
PMPD6iyUWZOs+yOs7+RutxTSGVbIFRh9tipgWkz7XXrCvDKhjXJkM11a5Xb2Fbmk
7a8qGxLgGfQsb9hMypmnpsOHLw7FGcXRAgMBAAGjggEnMIIBIzARBglghkgBhvhC
AQEEBAMCBkAwHQYDVR0OBBYEFFGZmLoLJHnqvv2cp1iiSgk9fW0pMIGwBgNVHSME
gagwgaWAFKcQb10Mn5yi9DmSo31cuMAlcb85oYGBpH8wfTEUMBIGA1UEAxQLUkFO
Q0hJQ0FfQ0ExCzAJBgNVBAYTAklOMQ8wDQYDVQQKEwZDSVRSSVgxDDAKBgNVBAsT
A0FORzELMAkGA1UECBMCS0ExLDAqBgkqhkiG9w0BCQEWHVJBTkNISUNBX0NBQFJB
TkNISUNBX21haWwuY29tggkA5wmkPRzHRbEwPAYIKwYBBQUHAQEEMDAuMCwGCCsG
AQUFBzABhiBodHRwOi8vMTcyLjI3LjIwLjEvcmVzcG9uZGVycGF0aDANBgkqhkiG
9w0BAQsFAAOCAQEAUHn6vJWlhPygTgeh2LTpae2et9bj2sJqxMmlULFfO/u/p5EM
RGJli39hZ0Hfrzx1N6ShhAEuF57THDSusu0I61XzJFFqFGwh4fab6cAtBzW8g9Dj
X5GnOGtIFcjlRg1eM8gB/L5Utg2aVV+ufI4ixeF2qSPzBTywi3xEPvnCZNsbz2Lj
AWKF10IYJN+YwmjYslC8lmF0Gpxvjccq27DTJidmHdH3DHNPyKotKuXkb1J5CgrY
qkNynWS8XS0flSsYxOuwoJs2aBCqKU+Oaca7shkiVMUuSSnwdXuGZeLPO7G1NEAu
aMnYyme+0VqgKUacLARJSf1OLIY+ZV+8PSd0Nw==
-----END CERTIFICATE-----
