Certificate:
    Data:
        Version: 3 (0x2)
        Serial Number: 11042563100213 (0xa0b0c0d0e35)
    Signature Algorithm: sha256WithRSAEncryption
        Issuer: CN=RANCHICA_CA, C=IN, O=CITRIX, OU=ANG, ST=KA/emailAddress=RANCHICA_CA@RANCHICA_mail.com
        Validity
            Not Before: Jul  8 04:38:57 2016 GMT
            Not After : Jul  6 04:38:57 2026 GMT
        Subject: ST=KA, C=IN, CN=139_RANCHICA_server/emailAddress=139_RANCHICA@test_ca.com, O=CITRIX
        Subject Public Key Info:
            Public Key Algorithm: rsaEncryption
                Public-Key: (2048 bit)
                Modulus:
                    00:b2:f7:da:40:46:6a:c6:35:7e:28:42:57:41:5e:
                    4b:6d:6c:c5:30:47:50:a7:42:93:90:41:12:89:fc:
                    46:42:f5:3a:11:b8:4f:9f:45:49:e4:f1:0c:d7:32:
                    2a:e3:74:73:03:33:a6:06:17:52:34:d1:dc:47:fc:
                    44:84:36:28:28:d7:d1:7a:20:2d:32:eb:a6:d8:d4:
                    2c:2e:db:db:7c:fa:d6:e5:e9:54:3b:cf:87:02:58:
                    43:c0:7b:78:39:fe:a0:5e:9f:e3:4f:92:d5:17:e1:
                    ab:b1:e0:9f:f0:06:71:a5:96:bd:36:10:7c:e9:97:
                    5c:b7:30:64:5a:d6:af:05:b6:a9:a8:eb:59:72:51:
                    bf:fe:47:c0:58:e2:92:d2:ef:b6:62:fb:47:33:57:
                    e2:a8:ca:9c:18:ff:c6:49:87:3a:35:a9:49:40:ca:
                    b8:ae:25:a4:e5:11:c9:fb:67:65:e0:ad:b2:25:fe:
                    cb:9e:87:4f:f8:c3:cb:75:40:42:13:86:59:9d:db:
                    18:ca:0b:fc:f6:76:2d:a7:b8:f0:49:d0:d1:4f:b0:
                    7d:99:c8:93:cb:74:27:bb:be:1c:76:3f:26:10:61:
                    d3:82:5e:92:c3:9d:48:4b:1d:33:6d:16:6f:e6:cd:
                    02:71:38:19:f6:f2:b3:e4:54:27:ae:e0:23:66:8b:
                    c3:97
                Exponent: 65537 (0x10001)
        X509v3 extensions:
            Netscape Cert Type: 
                SSL Server
            X509v3 Subject Key Identifier: 
                14:D1:78:1F:8D:80:4B:CF:96:11:DF:81:24:E2:F1:22:EC:49:27:D8
            X509v3 Authority Key Identifier: 
                keyid:A7:10:6F:5D:0C:9F:9C:A2:F4:39:92:A3:7D:5C:B8:C0:25:71:BF:39
                DirName:/CN=RANCHICA_CA/C=IN/O=CITRIX/OU=ANG/ST=KA/emailAddress=RANCHICA_CA@RANCHICA_mail.com
                serial:E7:09:A4:3D:1C:C7:45:B1

            Authority Information Access: 
                OCSP - URI:http://172.27.20.1/responderpath

    Signature Algorithm: sha256WithRSAEncryption
         3a:6d:ee:cc:93:46:8f:b2:25:b9:b7:5d:3b:42:41:59:30:64:
         73:5d:c8:65:b2:64:70:12:ae:b3:6b:40:b7:f1:9c:3e:65:ca:
         48:e3:ea:fe:cb:a3:39:51:fc:f8:65:76:1d:13:80:22:14:96:
         b7:eb:58:88:55:b8:5a:2e:58:a9:52:57:21:a9:3e:c7:90:c6:
         86:6f:57:c5:8d:53:9c:50:33:f8:4e:ae:23:76:57:45:42:1b:
         be:18:9b:4e:f1:df:fd:74:ad:41:8b:cc:3c:52:cc:7f:80:a7:
         f8:6e:90:1b:f4:be:a3:c8:d0:12:13:b7:f1:86:bc:5d:b8:e2:
         46:32:f5:10:98:9d:2a:a8:e2:3e:9e:f3:e5:d7:1d:d7:60:5b:
         63:1b:4e:ad:37:02:aa:d6:35:76:11:3a:15:8f:52:83:c0:7a:
         65:24:5a:ea:d4:09:f8:4d:9b:06:ea:ff:da:c2:12:ca:97:45:
         85:6b:e9:e8:43:4e:70:de:9a:d9:8d:29:0d:ae:4c:d5:ef:fb:
         79:a6:aa:b9:f4:53:da:e0:76:e4:79:37:ac:d4:00:27:e9:74:
         c4:63:5a:b1:46:bf:35:12:1f:98:a2:8b:9a:57:d7:a6:80:46:
         06:85:ed:e1:fd:88:d8:c5:22:09:03:66:3e:51:67:a3:42:a4:
         77:23:26:89
-----BEGIN CERTIFICATE-----
MIIEmDCCA4CgAwIBAgIGCgsMDQ41MA0GCSqGSIb3DQEBCwUAMH0xFDASBgNVBAMU
C1JBTkNISUNBX0NBMQswCQYDVQQGEwJJTjEPMA0GA1UEChMGQ0lUUklYMQwwCgYD
VQQLEwNBTkcxCzAJBgNVBAgTAktBMSwwKgYJKoZIhvcNAQkBFh1SQU5DSElDQV9D
QUBSQU5DSElDQV9tYWlsLmNvbTAeFw0xNjA3MDgwNDM4NTdaFw0yNjA3MDYwNDM4
NTdaMHIxCzAJBgNVBAgTAktBMQswCQYDVQQGEwJJTjEcMBoGA1UEAxQTMTM5X1JB
TkNISUNBX3NlcnZlcjEnMCUGCSqGSIb3DQEJARYYMTM5X1JBTkNISUNBQHRlc3Rf
Y2EuY29tMQ8wDQYDVQQKEwZDSVRSSVgwggEiMA0GCSqGSIb3DQEBAQUAA4IBDwAw
ggEKAoIBAQCy99pARmrGNX4oQldBXkttbMUwR1CnQpOQQRKJ/EZC9ToRuE+fRUnk
8QzXMirjdHMDM6YGF1I00dxH/ESENigo19F6IC0y66bY1Cwu29t8+tbl6VQ7z4cC
WEPAe3g5/qBen+NPktUX4aux4J/wBnGllr02EHzpl1y3MGRa1q8Ftqmo61lyUb/+
R8BY4pLS77Zi+0czV+KoypwY/8ZJhzo1qUlAyriuJaTlEcn7Z2XgrbIl/sueh0/4
w8t1QEIThlmd2xjKC/z2di2nuPBJ0NFPsH2ZyJPLdCe7vhx2PyYQYdOCXpLDnUhL
HTNtFm/mzQJxOBn28rPkVCeu4CNmi8OXAgMBAAGjggEnMIIBIzARBglghkgBhvhC
AQEEBAMCBkAwHQYDVR0OBBYEFBTReB+NgEvPlhHfgSTi8SLsSSfYMIGwBgNVHSME
gagwgaWAFKcQb10Mn5yi9DmSo31cuMAlcb85oYGBpH8wfTEUMBIGA1UEAxQLUkFO
Q0hJQ0FfQ0ExCzAJBgNVBAYTAklOMQ8wDQYDVQQKEwZDSVRSSVgxDDAKBgNVBAsT
A0FORzELMAkGA1UECBMCS0ExLDAqBgkqhkiG9w0BCQEWHVJBTkNISUNBX0NBQFJB
TkNISUNBX21haWwuY29tggkA5wmkPRzHRbEwPAYIKwYBBQUHAQEEMDAuMCwGCCsG
AQUFBzABhiBodHRwOi8vMTcyLjI3LjIwLjEvcmVzcG9uZGVycGF0aDANBgkqhkiG
9w0BAQsFAAOCAQEAOm3uzJNGj7IlubddO0JBWTBkc13IZbJkcBKus2tAt/GcPmXK
SOPq/sujOVH8+GV2HROAIhSWt+tYiFW4Wi5YqVJXIak+x5DGhm9XxY1TnFAz+E6u
I3ZXRUIbvhibTvHf/XStQYvMPFLMf4Cn+G6QG/S+o8jQEhO38Ya8XbjiRjL1EJid
KqjiPp7z5dcd12BbYxtOrTcCqtY1dhE6FY9Sg8B6ZSRa6tQJ+E2bBur/2sISypdF
hWvp6ENOcN6a2Y0pDa5M1e/7eaaqufRT2uB25Hk3rNQAJ+l0xGNasUa/NRIfmKKL
mlfXpoBGBoXt4f2I2MUiCQNmPlFno0KkdyMmiQ==
-----END CERTIFICATE-----
