Certificate:
    Data:
        Version: 3 (0x2)
        Serial Number: 11042563100214 (0xa0b0c0d0e36)
    Signature Algorithm: sha256WithRSAEncryption
        Issuer: CN=RANCHICA_CA, C=IN, O=CITRIX, OU=ANG, ST=KA/emailAddress=RANCHICA_CA@RANCHICA_mail.com
        Validity
            Not Before: Jul  8 04:38:58 2016 GMT
            Not After : Jul  6 04:38:58 2026 GMT
        Subject: ST=KA, C=IN, CN=140_RANCHICA_server/emailAddress=140_RANCHICA@test_ca.com, O=CITRIX
        Subject Public Key Info:
            Public Key Algorithm: rsaEncryption
                Public-Key: (2048 bit)
                Modulus:
                    00:d2:a7:7b:28:d8:71:64:f2:8f:09:6e:a4:a4:64:
                    29:35:93:20:6f:ea:04:92:36:f5:13:4e:fa:6e:36:
                    d5:7b:5d:e8:f1:c2:9f:42:92:5a:5c:58:c0:5e:da:
                    0e:c3:ae:87:85:61:c4:9c:bf:db:5c:07:0b:4f:b3:
                    ec:f0:b1:cc:43:30:32:30:c0:cd:b5:25:61:ef:17:
                    af:8f:4e:08:56:40:0c:77:0b:a6:a8:2e:82:e8:c2:
                    5a:68:e4:77:e1:d4:32:95:bb:87:58:6e:91:ef:81:
                    dd:c2:3c:63:27:46:ba:c6:67:f5:a4:58:26:29:5a:
                    67:c4:cc:6c:f8:8d:2a:8b:ad:36:85:04:2c:e8:59:
                    f7:4f:d7:06:0b:41:ae:5a:e4:68:95:f3:60:7d:2c:
                    d2:74:71:8e:3d:ab:0d:4e:fb:13:5d:d2:da:34:d6:
                    20:ef:21:8e:cd:ca:2b:71:26:58:72:da:68:5a:de:
                    f5:ca:9c:a6:8c:94:e2:3f:cb:25:59:5d:4e:9b:88:
                    20:e1:3d:2f:00:77:84:fa:d8:a5:e6:ba:23:30:03:
                    f8:aa:4b:b2:8b:d7:44:ef:a1:e9:e8:5b:4f:6f:8b:
                    3b:ec:74:0a:26:75:d0:33:5e:c0:0d:7f:7f:a7:e0:
                    9f:f0:fc:76:59:fa:f8:c3:82:50:0a:0b:4d:6f:2f:
                    86:19
                Exponent: 65537 (0x10001)
        X509v3 extensions:
            Netscape Cert Type: 
                SSL Server
            X509v3 Subject Key Identifier: 
                D2:87:DF:DA:88:35:10:6E:E7:85:FC:6C:6C:8B:F4:9D:0F:8D:35:E9
            X509v3 Authority Key Identifier: 
                keyid:A7:10:6F:5D:0C:9F:9C:A2:F4:39:92:A3:7D:5C:B8:C0:25:71:BF:39
                DirName:/CN=RANCHICA_CA/C=IN/O=CITRIX/OU=ANG/ST=KA/emailAddress=RANCHICA_CA@RANCHICA_mail.com
                serial:E7:09:A4:3D:1C:C7:45:B1

            Authority Information Access: 
                OCSP - URI:http://172.27.20.1/responderpath

    Signature Algorithm: sha256WithRSAEncryption
         69:95:54:b8:7d:dc:ce:2c:60:6a:86:c2:5e:4f:43:b0:3e:25:
         e5:f9:f1:90:99:bb:ba:33:83:bc:8b:7f:ef:f2:f5:c9:b2:e6:
         8a:65:93:32:58:2c:07:66:77:d8:9a:14:a8:ee:e6:ac:f4:4e:
         8f:68:bf:af:e0:4c:4e:18:b8:4f:74:a1:50:43:4e:ff:6e:67:
         57:ba:1c:ef:03:c5:34:f5:54:ea:1e:b3:84:8c:65:0b:2f:57:
         dc:bf:b3:af:b4:11:c7:62:63:eb:25:6e:d9:ef:60:13:0c:7a:
         8d:d9:0a:7c:6c:51:34:8f:12:e8:a8:4b:d8:eb:91:25:5b:51:
         96:bd:6f:a1:f7:f7:78:67:8f:dc:a9:03:c8:fb:30:37:7f:df:
         0f:dc:7b:dd:4b:c3:cc:35:e0:20:26:d6:0e:ad:8d:1c:2c:e2:
         58:ef:4d:c6:51:53:c1:1e:49:cf:99:16:44:9f:45:e0:f7:3f:
         d7:1b:34:24:ec:ae:ce:d3:fe:07:da:89:1e:fe:88:ae:10:48:
         46:f7:68:3a:fd:38:d3:4e:8f:9f:a3:73:f2:52:8d:74:fe:96:
         bb:98:aa:ae:f4:2e:4d:ce:78:f0:40:a8:89:2c:2d:b4:13:49:
         1f:ba:a3:73:01:11:4b:5e:4c:31:21:ab:cc:aa:ab:62:7a:4b:
         9c:60:32:85
-----BEGIN CERTIFICATE-----
MIIEmDCCA4CgAwIBAgIGCgsMDQ42MA0GCSqGSIb3DQEBCwUAMH0xFDASBgNVBAMU
C1JBTkNISUNBX0NBMQswCQYDVQQGEwJJTjEPMA0GA1UEChMGQ0lUUklYMQwwCgYD
VQQLEwNBTkcxCzAJBgNVBAgTAktBMSwwKgYJKoZIhvcNAQkBFh1SQU5DSElDQV9D
QUBSQU5DSElDQV9tYWlsLmNvbTAeFw0xNjA3MDgwNDM4NThaFw0yNjA3MDYwNDM4
NThaMHIxCzAJBgNVBAgTAktBMQswCQYDVQQGEwJJTjEcMBoGA1UEAxQTMTQwX1JB
TkNISUNBX3NlcnZlcjEnMCUGCSqGSIb3DQEJARYYMTQwX1JBTkNISUNBQHRlc3Rf
Y2EuY29tMQ8wDQYDVQQKEwZDSVRSSVgwggEiMA0GCSqGSIb3DQEBAQUAA4IBDwAw
ggEKAoIBAQDSp3so2HFk8o8JbqSkZCk1kyBv6gSSNvUTTvpuNtV7Xejxwp9Cklpc
WMBe2g7DroeFYcScv9tcBwtPs+zwscxDMDIwwM21JWHvF6+PTghWQAx3C6aoLoLo
wlpo5Hfh1DKVu4dYbpHvgd3CPGMnRrrGZ/WkWCYpWmfEzGz4jSqLrTaFBCzoWfdP
1wYLQa5a5GiV82B9LNJ0cY49qw1O+xNd0to01iDvIY7NyitxJlhy2mha3vXKnKaM
lOI/yyVZXU6biCDhPS8Ad4T62KXmuiMwA/iqS7KL10TvoenoW09vizvsdAomddAz
XsANf3+n4J/w/HZZ+vjDglAKC01vL4YZAgMBAAGjggEnMIIBIzARBglghkgBhvhC
AQEEBAMCBkAwHQYDVR0OBBYEFNKH39qINRBu54X8bGyL9J0PjTXpMIGwBgNVHSME
gagwgaWAFKcQb10Mn5yi9DmSo31cuMAlcb85oYGBpH8wfTEUMBIGA1UEAxQLUkFO
Q0hJQ0FfQ0ExCzAJBgNVBAYTAklOMQ8wDQYDVQQKEwZDSVRSSVgxDDAKBgNVBAsT
A0FORzELMAkGA1UECBMCS0ExLDAqBgkqhkiG9w0BCQEWHVJBTkNISUNBX0NBQFJB
TkNISUNBX21haWwuY29tggkA5wmkPRzHRbEwPAYIKwYBBQUHAQEEMDAuMCwGCCsG
AQUFBzABhiBodHRwOi8vMTcyLjI3LjIwLjEvcmVzcG9uZGVycGF0aDANBgkqhkiG
9w0BAQsFAAOCAQEAaZVUuH3czixgaobCXk9DsD4l5fnxkJm7ujODvIt/7/L1ybLm
imWTMlgsB2Z32JoUqO7mrPROj2i/r+BMThi4T3ShUENO/25nV7oc7wPFNPVU6h6z
hIxlCy9X3L+zr7QRx2Jj6yVu2e9gEwx6jdkKfGxRNI8S6KhL2OuRJVtRlr1voff3
eGeP3KkDyPswN3/fD9x73UvDzDXgICbWDq2NHCziWO9NxlFTwR5Jz5kWRJ9F4Pc/
1xs0JOyuztP+B9qJHv6IrhBIRvdoOv04006Pn6Nz8lKNdP6Wu5iqrvQuTc548ECo
iSwttBNJH7qjcwERS15MMSGrzKqrYnpLnGAyhQ==
-----END CERTIFICATE-----
