Certificate:
    Data:
        Version: 3 (0x2)
        Serial Number:
            01:0a:02:0b:03:0c:04:0d:05:0e:06:0f:00:00:01:02:03:04:07
    Signature Algorithm: sha1WithRSAEncryption
        Issuer: ST=KA, C=IN, CN=LevelTwoTestCA/emailAddress=LevelTwoTestCA@test_ca.com, O=CITRIX
        Validity
            Not Before: Feb 17 09:50:43 2016 GMT
            Not After : Feb 14 09:50:43 2026 GMT
        Subject: ST=KA, C=IN, CN=server_three_l2_client/emailAddress=server_three_l2@test_ca.com, O=CITRIX
        Subject Public Key Info:
            Public Key Algorithm: rsaEncryption
                Public-Key: (2048 bit)
                Modulus:
                    00:fd:58:9a:f7:0d:7a:f3:94:e2:7c:83:14:6d:0b:
                    da:f1:e3:63:0b:c5:97:bf:a7:99:f7:39:2f:a0:ee:
                    71:41:b8:8c:68:c1:cc:7e:1f:22:34:2d:19:ee:54:
                    05:45:12:ce:8d:a2:9f:fa:bc:cd:9f:28:10:23:61:
                    3a:ab:d0:ca:d0:06:c2:7f:c2:e4:07:83:7b:b0:35:
                    3d:af:f6:c6:03:d1:84:ab:ff:12:f8:25:e3:32:e4:
                    39:0b:9b:95:5b:d1:36:ac:56:06:20:d0:01:4d:84:
                    82:87:30:f8:05:ac:38:02:4b:db:a4:4e:a5:e8:c1:
                    d3:ca:78:66:0c:29:fa:5b:38:80:09:53:25:9b:51:
                    94:30:ad:3b:27:1b:54:ed:d8:cf:15:f9:5e:69:6f:
                    5a:12:2e:94:0e:10:1b:06:55:33:34:e8:15:44:ef:
                    55:a4:fd:b2:32:26:a9:04:d9:b7:d5:ba:18:6e:a8:
                    f6:57:54:63:10:7e:b2:9b:3d:82:dc:27:5a:63:7f:
                    aa:b9:81:d5:b5:03:f9:4f:15:20:25:80:cf:df:e7:
                    37:9d:84:28:f8:36:23:a7:db:1e:d4:d6:27:03:fd:
                    70:52:93:bc:0a:82:44:1d:c0:37:13:ee:dc:43:00:
                    73:f3:af:ea:93:94:96:80:e1:ba:93:14:f9:de:f3:
                    90:91
                Exponent: 65537 (0x10001)
        X509v3 extensions:
            X509v3 Basic Constraints: 
                CA:FALSE
            X509v3 Key Usage: 
                Digital Signature, Non Repudiation, Key Encipherment
            X509v3 Subject Alternative Name: 
                DNS:altname-2-1.myca.com, DNS:altname-2-2.myca.com, DNS:altname-2-3.myca.com, DNS:altname-2-4.myca.com, email:mail-2-1@myca.com, email:mail-2-2@myca.com
            Authority Information Access: 
                CA Issuers - URI:http://server.whatever.org/cert-path

            X509v3 Subject Key Identifier: 
                70:42:7A:18:96:89:BD:BA:7B:23:DD:15:CB:E7:1E:9A:0B:CE:DB:CE
            X509v3 Authority Key Identifier: 
                keyid:A5:DA:F5:FA:0A:E7:79:0E:74:46:A2:94:CE:9D:8A:5E:99:64:A3:9D
                DirName:/ST=KA/C=IN/CN=LevelOneTestCA/emailAddress=LevelOneTestCA@test_ca.com/O=CITRIX
                serial:05:07:09:0A

            X509v3 Certificate Policies: 
                Policy: 1.5.7.4
                Policy: 1.5.9.7.8

    Signature Algorithm: sha1WithRSAEncryption
         01:8f:d2:ec:cf:04:69:50:46:ae:9a:fb:c0:2b:dd:0d:4a:02:
         05:d4:34:54:40:42:37:aa:56:3b:8e:7f:26:c1:be:83:09:74:
         41:9e:aa:88:bb:8c:65:f1:37:e6:00:6c:d3:85:18:a6:19:2c:
         72:8f:b0:75:46:41:12:8b:3b:b6:00:aa:ee:68:6d:e3:64:4b:
         e4:ad:ce:bd:91:c9:a8:15:1e:a9:02:15:25:c2:ba:32:50:11:
         5c:ac:ef:a4:14:31:95:28:98:e2:28:2f:b6:55:a8:1a:6e:87:
         be:4c:f8:39:5f:25:b9:d4:b1:c9:3b:63:44:c7:38:ea:2c:c5:
         47:f3:db:c3:f2:cf:f0:32:c4:97:8f:be:8c:5a:7b:2a:04:2a:
         d5:5b:ca:41:61:2e:e3:f4:07:eb:21:ff:56:a8:8a:6c:5c:e5:
         9f:e6:aa:ae:34:fc:89:54:5c:60:24:8e:a8:56:1b:25:a3:7e:
         e0:5d:73:1d:76:99:79:80:c6:05:e0:5c:36:f1:91:70:80:6d:
         4a:49:1c:5d:7a:a4:7c:e1:3c:57:e3:6c:5c:0e:99:86:df:48:
         bc:6b:ed:82:28:ec:fb:75:16:51:3f:c6:1d:f9:0a:2b:ef:da:
         30:d5:47:ee:05:74:8d:75:18:e9:5c:f9:a3:ff:95:0e:9b:72:
         a7:49:99:5e
-----BEGIN CERTIFICATE-----
MIIFNzCCBB+gAwIBAgITAQoCCwMMBA0FDgYPAAABAgMEBzANBgkqhkiG9w0BAQUF
ADBvMQswCQYDVQQIEwJLQTELMAkGA1UEBhMCSU4xFzAVBgNVBAMTDkxldmVsVHdv
VGVzdENBMSkwJwYJKoZIhvcNAQkBFhpMZXZlbFR3b1Rlc3RDQUB0ZXN0X2NhLmNv
bTEPMA0GA1UEChMGQ0lUUklYMB4XDTE2MDIxNzA5NTA0M1oXDTI2MDIxNDA5NTA0
M1oweDELMAkGA1UECBMCS0ExCzAJBgNVBAYTAklOMR8wHQYDVQQDFBZzZXJ2ZXJf
dGhyZWVfbDJfY2xpZW50MSowKAYJKoZIhvcNAQkBFhtzZXJ2ZXJfdGhyZWVfbDJA
dGVzdF9jYS5jb20xDzANBgNVBAoTBkNJVFJJWDCCASIwDQYJKoZIhvcNAQEBBQAD
ggEPADCCAQoCggEBAP1YmvcNevOU4nyDFG0L2vHjYwvFl7+nmfc5L6DucUG4jGjB
zH4fIjQtGe5UBUUSzo2in/q8zZ8oECNhOqvQytAGwn/C5AeDe7A1Pa/2xgPRhKv/
Evgl4zLkOQublVvRNqxWBiDQAU2Egocw+AWsOAJL26ROpejB08p4Zgwp+ls4gAlT
JZtRlDCtOycbVO3YzxX5XmlvWhIulA4QGwZVMzToFUTvVaT9sjImqQTZt9W6GG6o
9ldUYxB+sps9gtwnWmN/qrmB1bUD+U8VICWAz9/nN52EKPg2I6fbHtTWJwP9cFKT
vAqCRB3ANxPu3EMAc/Ov6pOUloDhupMU+d7zkJECAwEAAaOCAcEwggG9MAkGA1Ud
EwQCMAAwCwYDVR0PBAQDAgXgMIGIBgNVHREEgYAwfoIUYWx0bmFtZS0yLTEubXlj
YS5jb22CFGFsdG5hbWUtMi0yLm15Y2EuY29tghRhbHRuYW1lLTItMy5teWNhLmNv
bYIUYWx0bmFtZS0yLTQubXljYS5jb22BEW1haWwtMi0xQG15Y2EuY29tgRFtYWls
LTItMkBteWNhLmNvbTBABggrBgEFBQcBAQQ0MDIwMAYIKwYBBQUHMAKGJGh0dHA6
Ly9zZXJ2ZXIud2hhdGV2ZXIub3JnL2NlcnQtcGF0aDAdBgNVHQ4EFgQUcEJ6GJaJ
vbp7I90Vy+cemgvO284wgZwGA1UdIwSBlDCBkYAUpdr1+grneQ50RqKUzp2KXplk
o52hc6RxMG8xCzAJBgNVBAgTAktBMQswCQYDVQQGEwJJTjEXMBUGA1UEAxMOTGV2
ZWxPbmVUZXN0Q0ExKTAnBgkqhkiG9w0BCQEWGkxldmVsT25lVGVzdENBQHRlc3Rf
Y2EuY29tMQ8wDQYDVQQKEwZDSVRSSViCBAUHCQowGAYDVR0gBBEwDzAFBgMtBwQw
BgYELQkHCDANBgkqhkiG9w0BAQUFAAOCAQEAAY/S7M8EaVBGrpr7wCvdDUoCBdQ0
VEBCN6pWO45/JsG+gwl0QZ6qiLuMZfE35gBs04UYphksco+wdUZBEos7tgCq7mht
42RL5K3OvZHJqBUeqQIVJcK6MlARXKzvpBQxlSiY4igvtlWoGm6Hvkz4OV8ludSx
yTtjRMc46izFR/Pbw/LP8DLEl4++jFp7KgQq1VvKQWEu4/QH6yH/VqiKbFzln+aq
rjT8iVRcYCSOqFYbJaN+4F1zHXaZeYDGBeBcNvGRcIBtSkkcXXqkfOE8V+NsXA6Z
ht9IvGvtgijs+3UWUT/GHfkKK+/aMNVH7gV0jXUY6Vz5o/+VDptyp0mZXg==
-----END CERTIFICATE-----
