Certificate:
    Data:
        Version: 3 (0x2)
        Serial Number: 11042563100175 (0xa0b0c0d0e0f)
    Signature Algorithm: sha256WithRSAEncryption
        Issuer: CN=MYSORECA_CA, C=IN, O=CITRIX, OU=ANG, ST=KA/emailAddress=MYSORECA_CA@MYSORECA_mail.com
        Validity
            Not Before: Jul  8 04:36:30 2016 GMT
            Not After : Jul  6 04:36:30 2026 GMT
        Subject: ST=KA, C=IN, CN=101_MYSORECA_server/emailAddress=101_MYSORECA@test_ca.com, O=CITRIX
        Subject Public Key Info:
            Public Key Algorithm: rsaEncryption
                Public-Key: (2048 bit)
                Modulus:
                    00:d3:6a:f3:9e:42:1d:4a:37:ba:8e:26:44:6a:28:
                    bb:dc:82:a9:79:49:69:23:3c:b0:5d:f7:b0:d2:a9:
                    26:28:04:d4:d8:be:07:40:2d:1c:e5:d8:25:9d:5f:
                    16:2a:3b:5d:04:b4:1e:16:13:ce:7a:9b:d3:9d:6b:
                    44:37:08:45:f1:8f:c9:d2:85:0f:89:6f:5e:ee:2a:
                    4b:b6:3c:52:36:38:e2:fa:56:62:ec:3c:51:46:b7:
                    22:35:33:04:56:65:60:6f:63:ae:64:b3:6f:38:3b:
                    da:14:8c:1e:30:80:9f:28:f4:c8:06:22:10:bc:c8:
                    f5:9a:06:4a:61:b6:7c:a3:80:07:0d:bb:d7:e8:21:
                    40:d1:71:06:4c:9f:04:11:40:6a:11:f4:f9:14:12:
                    3b:c7:fe:f5:d5:1d:8d:dc:64:37:f2:7e:ab:83:14:
                    75:90:45:43:0f:7d:b3:51:a1:24:c6:df:4d:d1:d7:
                    ff:fd:7d:04:38:bc:67:0b:3e:c1:a8:a9:cf:a8:91:
                    df:ba:2e:e1:76:46:d2:23:50:79:38:70:4f:ce:ce:
                    e1:31:e8:1e:44:48:c4:9a:37:b7:60:80:cf:ee:03:
                    59:45:fd:7b:f7:e8:20:b4:d1:5c:1e:9f:c3:b1:11:
                    df:ea:3a:e6:4b:93:ac:ca:67:3b:ab:f2:91:02:81:
                    43:79
                Exponent: 65537 (0x10001)
        X509v3 extensions:
            Netscape Cert Type: 
                SSL Server
            X509v3 Subject Key Identifier: 
                6A:4A:51:0C:42:A5:65:30:BF:73:3A:B3:92:56:22:14:79:91:9C:64
            X509v3 Authority Key Identifier: 
                keyid:C6:18:DA:E4:16:A1:1E:60:AE:18:00:F5:A7:DF:0A:8B:65:4D:36:95
                DirName:/CN=MYSORECA_CA/C=IN/O=CITRIX/OU=ANG/ST=KA/emailAddress=MYSORECA_CA@MYSORECA_mail.com
                serial:D5:74:54:E9:D5:CF:C9:F6

            Authority Information Access: 
                OCSP - URI:http://MYSORECA_one.ocsptest.com/responderpath

    Signature Algorithm: sha256WithRSAEncryption
         8c:d2:2a:4d:ed:5e:77:8b:ba:fc:70:79:ec:e0:d1:40:92:27:
         08:8d:8e:65:fb:99:91:df:ce:59:7c:59:67:89:e3:ea:7d:f9:
         bf:d6:61:5a:d7:f8:29:9d:35:c3:8c:6d:f7:e7:96:47:4a:ba:
         a6:5d:fc:ef:6d:45:f8:fd:3c:3f:14:59:ed:7b:6f:bc:dc:0f:
         7e:fa:4a:3f:ec:bd:f5:b1:f8:c6:d8:4a:8b:e4:37:c1:83:06:
         f7:92:92:ce:5e:ca:2b:d0:43:92:a8:64:64:36:98:45:17:55:
         5a:77:5c:43:c1:fe:fb:cf:e9:d8:42:57:92:9f:cb:6c:16:46:
         39:19:fb:34:bf:53:81:64:65:06:27:0b:e4:1c:ad:98:a6:56:
         1e:66:3f:de:73:af:8c:9f:fb:42:50:9d:b0:f3:a1:2c:5f:41:
         64:4a:d9:53:f1:0a:c8:86:99:82:db:7a:25:39:0e:f1:bc:47:
         00:00:eb:51:64:da:3e:83:91:47:70:9e:47:a6:ee:15:be:09:
         46:04:03:96:00:60:37:b7:9a:d6:0c:af:b9:da:0b:7c:c6:8d:
         d5:f7:e3:5c:ca:bf:da:c5:90:29:50:95:91:ca:b3:d0:25:b8:
         fd:31:df:1f:d6:80:6b:bf:b7:08:c5:2b:a5:01:75:b8:55:5d:
         3d:6b:5d:2f
-----BEGIN CERTIFICATE-----
MIIEpjCCA46gAwIBAgIGCgsMDQ4PMA0GCSqGSIb3DQEBCwUAMH0xFDASBgNVBAMU
C01ZU09SRUNBX0NBMQswCQYDVQQGEwJJTjEPMA0GA1UEChMGQ0lUUklYMQwwCgYD
VQQLEwNBTkcxCzAJBgNVBAgTAktBMSwwKgYJKoZIhvcNAQkBFh1NWVNPUkVDQV9D
QUBNWVNPUkVDQV9tYWlsLmNvbTAeFw0xNjA3MDgwNDM2MzBaFw0yNjA3MDYwNDM2
MzBaMHIxCzAJBgNVBAgTAktBMQswCQYDVQQGEwJJTjEcMBoGA1UEAxQTMTAxX01Z
U09SRUNBX3NlcnZlcjEnMCUGCSqGSIb3DQEJARYYMTAxX01ZU09SRUNBQHRlc3Rf
Y2EuY29tMQ8wDQYDVQQKEwZDSVRSSVgwggEiMA0GCSqGSIb3DQEBAQUAA4IBDwAw
ggEKAoIBAQDTavOeQh1KN7qOJkRqKLvcgql5SWkjPLBd97DSqSYoBNTYvgdALRzl
2CWdXxYqO10EtB4WE856m9Oda0Q3CEXxj8nShQ+Jb17uKku2PFI2OOL6VmLsPFFG
tyI1MwRWZWBvY65ks284O9oUjB4wgJ8o9MgGIhC8yPWaBkphtnyjgAcNu9foIUDR
cQZMnwQRQGoR9PkUEjvH/vXVHY3cZDfyfquDFHWQRUMPfbNRoSTG303R1//9fQQ4
vGcLPsGoqc+okd+6LuF2RtIjUHk4cE/OzuEx6B5ESMSaN7dggM/uA1lF/Xv36CC0
0Vwen8OxEd/qOuZLk6zKZzur8pECgUN5AgMBAAGjggE1MIIBMTARBglghkgBhvhC
AQEEBAMCBkAwHQYDVR0OBBYEFGpKUQxCpWUwv3M6s5JWIhR5kZxkMIGwBgNVHSME
gagwgaWAFMYY2uQWoR5grhgA9affCotlTTaVoYGBpH8wfTEUMBIGA1UEAxQLTVlT
T1JFQ0FfQ0ExCzAJBgNVBAYTAklOMQ8wDQYDVQQKEwZDSVRSSVgxDDAKBgNVBAsT
A0FORzELMAkGA1UECBMCS0ExLDAqBgkqhkiG9w0BCQEWHU1ZU09SRUNBX0NBQE1Z
U09SRUNBX21haWwuY29tggkA1XRU6dXPyfYwSgYIKwYBBQUHAQEEPjA8MDoGCCsG
AQUFBzABhi5odHRwOi8vTVlTT1JFQ0Ffb25lLm9jc3B0ZXN0LmNvbS9yZXNwb25k
ZXJwYXRoMA0GCSqGSIb3DQEBCwUAA4IBAQCM0ipN7V53i7r8cHns4NFAkicIjY5l
+5mR385ZfFlniePqffm/1mFa1/gpnTXDjG3355ZHSrqmXfzvbUX4/Tw/FFnte2+8
3A9++ko/7L31sfjG2EqL5DfBgwb3kpLOXsor0EOSqGRkNphFF1Vad1xDwf77z+nY
QleSn8tsFkY5Gfs0v1OBZGUGJwvkHK2YplYeZj/ec6+Mn/tCUJ2w86EsX0FkStlT
8QrIhpmC23olOQ7xvEcAAOtRZNo+g5FHcJ5Hpu4VvglGBAOWAGA3t5rWDK+52gt8
xo3V9+Ncyr/axZApUJWRyrPQJbj9Md8f1oBrv7cIxSulAXW4VV09a10v
-----END CERTIFICATE-----
