Certificate:
    Data:
        Version: 3 (0x2)
        Serial Number: 11042563100175 (0xa0b0c0d0e0f)
    Signature Algorithm: sha256WithRSAEncryption
        Issuer: CN=CHENNAICA_CA, C=IN, O=CITRIX, OU=ANG, ST=KA/emailAddress=CHENNAICA_CA@CHENNAICA_mail.com
        Validity
            Not Before: Jul  8 04:33:49 2016 GMT
            Not After : Jul  6 04:33:49 2026 GMT
        Subject: ST=KA, C=IN, CN=101_CHENNAICA_server/emailAddress=101_CHENNAICA@test_ca.com, O=CITRIX
        Subject Public Key Info:
            Public Key Algorithm: rsaEncryption
                Public-Key: (2048 bit)
                Modulus:
                    00:ad:5c:93:3c:b8:26:3e:c8:01:c3:7d:09:60:cc:
                    1e:57:e8:7f:fe:4f:08:99:34:79:cb:4b:52:75:c8:
                    9a:5f:7c:15:bd:a5:ed:9b:82:82:6a:06:32:5b:87:
                    0a:ba:e7:ee:0a:77:f0:aa:fe:b6:4a:27:d5:9e:b4:
                    91:31:63:a8:90:32:f0:16:28:fa:5e:9d:fd:e1:0e:
                    a9:68:e4:ba:26:47:97:6d:d4:78:04:13:0d:08:e8:
                    04:72:c1:a8:d9:7d:34:8b:4f:ab:e3:ed:c3:c9:d1:
                    8a:77:73:af:2a:d7:1a:a1:c5:3a:ab:72:89:77:f0:
                    5d:e8:6a:4f:51:dc:a2:5e:98:47:b1:3f:ef:b9:ba:
                    3e:3f:26:f9:73:d1:f2:12:ca:6a:15:5b:56:f4:33:
                    89:7a:6f:a2:2b:86:64:5c:26:cc:40:bb:8c:87:58:
                    6b:31:7e:02:90:8c:21:f0:81:58:d7:07:b1:a7:fe:
                    81:c3:d9:36:0e:dc:c9:b3:d0:ac:89:47:dd:81:47:
                    23:90:95:27:0e:77:6b:c8:c2:6b:b0:31:0e:26:19:
                    db:79:ca:9d:4e:14:c6:6e:ae:12:25:cf:20:42:5f:
                    a6:b3:b7:16:0a:a4:2a:d9:1d:2a:89:54:f2:9a:ec:
                    51:ac:a8:ff:60:e5:ba:fe:ea:34:7c:2c:51:0f:2e:
                    b0:57
                Exponent: 65537 (0x10001)
        X509v3 extensions:
            Netscape Cert Type: 
                SSL Server
            X509v3 Subject Key Identifier: 
                97:EC:D4:66:76:62:C3:1A:8A:39:9C:9E:1F:EF:9F:1A:29:1D:82:D6
            X509v3 Authority Key Identifier: 
                keyid:BE:CA:53:AC:65:89:18:02:1E:F6:53:A2:50:12:94:60:EC:CC:05:FA
                DirName:/CN=CHENNAICA_CA/C=IN/O=CITRIX/OU=ANG/ST=KA/emailAddress=CHENNAICA_CA@CHENNAICA_mail.com
                serial:87:FB:C4:D4:5E:46:56:70

            Authority Information Access: 
                OCSP - URI:http://CHENNAICA_one.ocsptest.com/responderpath

    Signature Algorithm: sha256WithRSAEncryption
         cd:59:10:bf:7d:64:40:6b:ff:91:b2:61:5f:47:31:de:71:f6:
         4d:51:69:fe:02:f1:00:ba:9b:49:6c:00:bd:d8:a0:5e:28:75:
         b0:d3:5b:97:ea:89:44:6f:43:d3:10:f2:80:21:bb:2c:4b:b0:
         af:90:a6:91:a0:df:42:25:00:3b:dd:ea:fb:f4:43:90:12:d0:
         b3:55:bd:35:df:28:fd:46:a1:1a:bf:b5:5d:e2:ed:ec:e4:f4:
         85:8a:d7:6c:42:e7:47:df:4d:c7:89:4e:73:b6:08:91:e2:28:
         0a:c4:1c:12:e7:1a:4e:9b:90:3b:cd:1d:ed:6d:e8:b5:48:29:
         67:70:fe:6a:d6:3b:8d:42:65:4a:8b:80:01:b7:88:be:24:34:
         9e:85:58:f5:ce:79:6c:34:f9:9d:4e:fc:f7:25:3a:d0:40:fd:
         da:a2:54:75:c2:6b:73:b3:4e:a1:10:bf:2a:62:62:19:70:2b:
         2e:1a:92:a6:af:20:c0:84:1c:78:52:c7:26:6e:3a:ca:0d:41:
         12:f7:0f:da:a7:92:54:40:3e:1c:83:59:4d:08:cd:61:29:b5:
         f1:3f:21:af:61:32:6f:ce:54:3d:93:54:34:ac:25:e3:3e:c6:
         2b:28:d8:bd:9e:3d:ae:04:2a:4c:b9:be:26:a3:80:9a:9b:c4:
         1b:b0:10:48
-----BEGIN CERTIFICATE-----
MIIEsjCCA5qgAwIBAgIGCgsMDQ4PMA0GCSqGSIb3DQEBCwUAMIGAMRUwEwYDVQQD
FAxDSEVOTkFJQ0FfQ0ExCzAJBgNVBAYTAklOMQ8wDQYDVQQKEwZDSVRSSVgxDDAK
BgNVBAsTA0FORzELMAkGA1UECBMCS0ExLjAsBgkqhkiG9w0BCQEWH0NIRU5OQUlD
QV9DQUBDSEVOTkFJQ0FfbWFpbC5jb20wHhcNMTYwNzA4MDQzMzQ5WhcNMjYwNzA2
MDQzMzQ5WjB0MQswCQYDVQQIEwJLQTELMAkGA1UEBhMCSU4xHTAbBgNVBAMUFDEw
MV9DSEVOTkFJQ0Ffc2VydmVyMSgwJgYJKoZIhvcNAQkBFhkxMDFfQ0hFTk5BSUNB
QHRlc3RfY2EuY29tMQ8wDQYDVQQKEwZDSVRSSVgwggEiMA0GCSqGSIb3DQEBAQUA
A4IBDwAwggEKAoIBAQCtXJM8uCY+yAHDfQlgzB5X6H/+TwiZNHnLS1J1yJpffBW9
pe2bgoJqBjJbhwq65+4Kd/Cq/rZKJ9WetJExY6iQMvAWKPpenf3hDqlo5LomR5dt
1HgEEw0I6ARywajZfTSLT6vj7cPJ0Yp3c68q1xqhxTqrcol38F3oak9R3KJemEex
P++5uj4/Jvlz0fISymoVW1b0M4l6b6IrhmRcJsxAu4yHWGsxfgKQjCHwgVjXB7Gn
/oHD2TYO3Mmz0KyJR92BRyOQlScOd2vIwmuwMQ4mGdt5yp1OFMZurhIlzyBCX6az
txYKpCrZHSqJVPKa7FGsqP9g5br+6jR8LFEPLrBXAgMBAAGjggE7MIIBNzARBglg
hkgBhvhCAQEEBAMCBkAwHQYDVR0OBBYEFJfs1GZ2YsMaijmcnh/vnxopHYLWMIG1
BgNVHSMEga0wgaqAFL7KU6xliRgCHvZTolASlGDszAX6oYGGpIGDMIGAMRUwEwYD
VQQDFAxDSEVOTkFJQ0FfQ0ExCzAJBgNVBAYTAklOMQ8wDQYDVQQKEwZDSVRSSVgx
DDAKBgNVBAsTA0FORzELMAkGA1UECBMCS0ExLjAsBgkqhkiG9w0BCQEWH0NIRU5O
QUlDQV9DQUBDSEVOTkFJQ0FfbWFpbC5jb22CCQCH+8TUXkZWcDBLBggrBgEFBQcB
AQQ/MD0wOwYIKwYBBQUHMAGGL2h0dHA6Ly9DSEVOTkFJQ0Ffb25lLm9jc3B0ZXN0
LmNvbS9yZXNwb25kZXJwYXRoMA0GCSqGSIb3DQEBCwUAA4IBAQDNWRC/fWRAa/+R
smFfRzHecfZNUWn+AvEAuptJbAC92KBeKHWw01uX6olEb0PTEPKAIbssS7CvkKaR
oN9CJQA73er79EOQEtCzVb013yj9RqEav7Vd4u3s5PSFitdsQudH303HiU5ztgiR
4igKxBwS5xpOm5A7zR3tbei1SClncP5q1juNQmVKi4ABt4i+JDSehVj1znlsNPmd
Tvz3JTrQQP3aolR1wmtzs06hEL8qYmIZcCsuGpKmryDAhBx4UscmbjrKDUES9w/a
p5JUQD4cg1lNCM1hKbXxPyGvYTJvzlQ9k1Q0rCXjPsYrKNi9nj2uBCpMub4mo4Ca
m8QbsBBI
-----END CERTIFICATE-----
