Certificate:
    Data:
        Version: 3 (0x2)
        Serial Number: 11042563100175 (0xa0b0c0d0e0f)
    Signature Algorithm: sha256WithRSAEncryption
        Issuer: CN=GOACA_CA, C=IN, O=CITRIX, OU=ANG, ST=KA/emailAddress=GOACA_CA@GOACA_mail.com
        Validity
            Not Before: Jul  8 04:34:53 2016 GMT
            Not After : Jul  6 04:34:53 2026 GMT
        Subject: ST=KA, C=IN, CN=101_GOACA_server/emailAddress=101_GOACA@test_ca.com, O=CITRIX
        Subject Public Key Info:
            Public Key Algorithm: rsaEncryption
                Public-Key: (2048 bit)
                Modulus:
                    00:c9:82:75:f3:c7:44:f9:4b:7d:d0:27:78:5b:ee:
                    d6:a8:28:ba:4b:86:69:3d:24:ea:f4:57:40:08:d7:
                    a2:63:0e:ae:a3:53:a2:e8:d6:59:da:92:a3:32:74:
                    e3:ac:c9:5a:9f:aa:1c:bb:28:1d:1d:0f:14:1c:31:
                    ef:81:91:3f:f2:c6:85:7a:61:89:85:e2:55:ae:b2:
                    c2:89:b4:54:f6:71:5f:c1:52:72:93:76:98:c5:d8:
                    cd:08:c8:67:13:38:ef:f0:fc:0a:9f:7f:a6:e8:09:
                    d7:a7:22:bd:ef:5c:85:78:e1:5c:38:c6:d8:30:e9:
                    47:10:a9:b5:2e:dc:b2:c5:21:49:0f:5b:69:a3:34:
                    45:47:b3:fd:3f:1e:bd:57:0f:bc:fb:25:d6:fd:c0:
                    11:4e:33:7a:ce:dc:14:c1:b5:26:7f:fb:66:4b:95:
                    db:f7:ff:fe:4e:75:4c:e3:7a:3a:38:7a:f9:2f:ea:
                    5c:68:07:41:88:b9:5e:c2:b0:d1:0f:83:3b:b6:67:
                    18:fb:83:94:28:5f:e9:f7:15:68:a9:fa:7f:c8:b5:
                    27:18:a1:08:ba:5c:a7:25:46:2c:b2:eb:0c:d6:4c:
                    c9:48:42:eb:5a:21:76:8a:20:9f:24:e4:56:06:84:
                    89:e5:41:97:36:1a:a5:e4:50:7a:67:de:b7:13:ea:
                    c8:31
                Exponent: 65537 (0x10001)
        X509v3 extensions:
            Netscape Cert Type: 
                SSL Server
            X509v3 Subject Key Identifier: 
                F3:7D:69:18:86:C7:96:F5:F1:9F:AE:0F:D2:34:34:4B:4F:C3:C5:EE
            X509v3 Authority Key Identifier: 
                keyid:81:03:00:D4:DC:70:D9:A7:03:08:1E:DC:9B:4C:AC:E6:59:CD:39:68
                DirName:/CN=GOACA_CA/C=IN/O=CITRIX/OU=ANG/ST=KA/emailAddress=GOACA_CA@GOACA_mail.com
                serial:FC:8B:0A:90:01:17:5F:1C

            Authority Information Access: 
                OCSP - URI:http://GOACA_one.ocsptest.com/responderpath

    Signature Algorithm: sha256WithRSAEncryption
         75:3a:0f:6d:c4:ea:19:66:d1:dc:94:2b:4b:b5:55:da:f8:5e:
         7f:bd:f0:38:f4:e4:a2:9f:d4:f5:10:fe:28:f2:a7:05:d3:26:
         40:fc:44:51:1e:86:55:34:0e:5c:92:c1:80:80:98:66:20:d5:
         91:b2:83:17:e0:b1:64:59:c5:e7:4f:24:4a:e6:09:70:82:3a:
         2b:41:47:af:85:56:de:5a:a2:97:4a:6f:9a:87:4e:a6:f4:1e:
         5f:a7:1d:30:77:8d:69:c9:cc:e3:9d:55:33:1e:09:6f:dc:bc:
         69:8f:af:17:d6:b8:80:43:ce:db:2c:dc:bc:1b:a4:a0:38:24:
         0b:38:71:14:98:08:57:c9:ed:e5:1c:d1:3a:98:37:4d:67:ef:
         ba:33:43:c7:76:07:38:28:58:c5:56:26:01:65:61:a4:fb:ba:
         59:51:a9:38:f6:5b:33:cf:64:b5:fa:7d:53:dc:ad:c5:6b:0d:
         4c:89:15:fd:6f:ae:00:1f:00:a4:8a:ab:37:95:41:ee:b8:d2:
         d2:ad:3f:7a:3f:76:41:e5:64:da:28:89:e2:d1:8a:0c:11:2a:
         d1:cd:41:85:c3:e6:35:5b:e2:0d:25:9f:9c:ef:64:d0:f8:d9:
         0e:40:72:76:bb:17:ec:43:9d:8f:60:9b:14:3c:ab:8e:e1:c7:
         28:30:f2:46
-----BEGIN CERTIFICATE-----
MIIEijCCA3KgAwIBAgIGCgsMDQ4PMA0GCSqGSIb3DQEBCwUAMHQxETAPBgNVBAMU
CEdPQUNBX0NBMQswCQYDVQQGEwJJTjEPMA0GA1UEChMGQ0lUUklYMQwwCgYDVQQL
EwNBTkcxCzAJBgNVBAgTAktBMSYwJAYJKoZIhvcNAQkBFhdHT0FDQV9DQUBHT0FD
QV9tYWlsLmNvbTAeFw0xNjA3MDgwNDM0NTNaFw0yNjA3MDYwNDM0NTNaMGwxCzAJ
BgNVBAgTAktBMQswCQYDVQQGEwJJTjEZMBcGA1UEAxQQMTAxX0dPQUNBX3NlcnZl
cjEkMCIGCSqGSIb3DQEJARYVMTAxX0dPQUNBQHRlc3RfY2EuY29tMQ8wDQYDVQQK
EwZDSVRSSVgwggEiMA0GCSqGSIb3DQEBAQUAA4IBDwAwggEKAoIBAQDJgnXzx0T5
S33QJ3hb7taoKLpLhmk9JOr0V0AI16JjDq6jU6Lo1lnakqMydOOsyVqfqhy7KB0d
DxQcMe+BkT/yxoV6YYmF4lWussKJtFT2cV/BUnKTdpjF2M0IyGcTOO/w/Aqff6bo
CdenIr3vXIV44Vw4xtgw6UcQqbUu3LLFIUkPW2mjNEVHs/0/Hr1XD7z7Jdb9wBFO
M3rO3BTBtSZ/+2ZLldv3//5OdUzjejo4evkv6lxoB0GIuV7CsNEPgzu2Zxj7g5Qo
X+n3FWip+n/ItScYoQi6XKclRiyy6wzWTMlIQutaIXaKIJ8k5FYGhInlQZc2GqXk
UHpn3rcT6sgxAgMBAAGjggEoMIIBJDARBglghkgBhvhCAQEEBAMCBkAwHQYDVR0O
BBYEFPN9aRiGx5b18Z+uD9I0NEtPw8XuMIGmBgNVHSMEgZ4wgZuAFIEDANTccNmn
Awge3JtMrOZZzTlooXikdjB0MREwDwYDVQQDFAhHT0FDQV9DQTELMAkGA1UEBhMC
SU4xDzANBgNVBAoTBkNJVFJJWDEMMAoGA1UECxMDQU5HMQswCQYDVQQIEwJLQTEm
MCQGCSqGSIb3DQEJARYXR09BQ0FfQ0FAR09BQ0FfbWFpbC5jb22CCQD8iwqQARdf
HDBHBggrBgEFBQcBAQQ7MDkwNwYIKwYBBQUHMAGGK2h0dHA6Ly9HT0FDQV9vbmUu
b2NzcHRlc3QuY29tL3Jlc3BvbmRlcnBhdGgwDQYJKoZIhvcNAQELBQADggEBAHU6
D23E6hlm0dyUK0u1Vdr4Xn+98Dj05KKf1PUQ/ijypwXTJkD8RFEehlU0DlySwYCA
mGYg1ZGygxfgsWRZxedPJErmCXCCOitBR6+FVt5aopdKb5qHTqb0Hl+nHTB3jWnJ
zOOdVTMeCW/cvGmPrxfWuIBDztss3LwbpKA4JAs4cRSYCFfJ7eUc0TqYN01n77oz
Q8d2BzgoWMVWJgFlYaT7ullRqTj2WzPPZLX6fVPcrcVrDUyJFf1vrgAfAKSKqzeV
Qe640tKtP3o/dkHlZNooieLRigwRKtHNQYXD5jVb4g0ln5zvZND42Q5Acna7F+xD
nY9gmxQ8q47hxygw8kY=
-----END CERTIFICATE-----
