Certificate:
    Data:
        Version: 3 (0x2)
        Serial Number: 11042563100175 (0xa0b0c0d0e0f)
    Signature Algorithm: sha256WithRSAEncryption
        Issuer: CN=SHILLONGCA_CA, C=IN, O=CITRIX, OU=ANG, ST=KA/emailAddress=SHILLONGCA_CA@SHILLONGCA_mail.com
        Validity
            Not Before: Jul  8 04:40:07 2016 GMT
            Not After : Jul  6 04:40:07 2026 GMT
        Subject: ST=KA, C=IN, CN=101_SHILLONGCA_server/emailAddress=101_SHILLONGCA@test_ca.com, O=CITRIX
        Subject Public Key Info:
            Public Key Algorithm: rsaEncryption
                Public-Key: (2048 bit)
                Modulus:
                    00:ab:14:d8:12:04:01:c9:57:6f:55:f7:40:a9:1a:
                    87:36:55:0b:bd:59:bd:16:3d:28:47:ab:5d:91:bd:
                    bb:6c:4d:2c:62:fa:14:57:c6:c6:63:a4:f5:c9:12:
                    d5:29:2c:63:54:03:a1:46:89:2c:1f:19:55:be:4c:
                    25:01:64:3f:c7:54:1d:31:5b:b4:0d:bb:aa:25:31:
                    6a:23:98:2a:28:ce:36:20:b0:60:c5:eb:9b:ff:a6:
                    6c:f8:14:77:30:a5:95:79:78:b3:36:5c:46:b8:ee:
                    9d:2c:d0:2f:e4:66:aa:80:e4:af:bf:2a:0f:17:b3:
                    ed:32:6d:33:51:10:bd:52:38:f7:69:49:f8:f6:ac:
                    07:94:04:9e:1c:11:fd:db:03:7f:1a:cd:10:27:89:
                    40:91:39:b2:d9:7b:9e:b1:11:70:4e:9c:12:25:59:
                    60:b2:dd:49:9a:eb:df:c1:6d:32:b8:11:be:0e:24:
                    e6:8a:25:43:cb:41:26:49:72:14:41:a6:29:c3:e4:
                    3b:97:19:bb:3f:b3:d4:a0:e3:50:63:52:2a:13:f4:
                    df:47:84:da:9c:dd:07:02:f1:30:3b:35:f0:14:8f:
                    be:96:b0:ff:4d:c0:2a:98:5a:bd:66:97:d7:e0:c4:
                    c0:40:bc:7f:ca:4d:f2:dd:4f:c3:89:71:94:6d:7d:
                    9a:eb
                Exponent: 65537 (0x10001)
        X509v3 extensions:
            Netscape Cert Type: 
                SSL Server
            X509v3 Subject Key Identifier: 
                E5:1D:33:10:98:E6:28:F7:90:CE:B1:22:23:FE:BA:DC:37:D6:46:C0
            X509v3 Authority Key Identifier: 
                keyid:FA:E9:1F:A5:AF:8B:4E:18:FF:EF:B7:EA:8F:FB:98:BC:59:23:81:DF
                DirName:/CN=SHILLONGCA_CA/C=IN/O=CITRIX/OU=ANG/ST=KA/emailAddress=SHILLONGCA_CA@SHILLONGCA_mail.com
                serial:FB:D0:92:FD:A2:7C:35:0C

            Authority Information Access: 
                OCSP - URI:http://SHILLONGCA_one.ocsptest.com/responderpath

    Signature Algorithm: sha256WithRSAEncryption
         16:67:09:73:c5:79:45:a0:64:21:87:81:b3:74:69:de:fa:00:
         80:0a:ca:96:a4:fc:9b:db:2d:e9:a2:71:51:78:06:0a:83:05:
         ff:f7:50:16:3b:9c:bd:78:9e:42:02:98:ce:c2:cb:2c:16:cd:
         76:b2:95:70:83:f6:e2:94:be:81:67:6b:d6:9b:05:62:c2:82:
         50:c1:e1:d9:76:ce:2f:a4:99:0e:a1:18:1a:10:48:c8:9e:8b:
         c2:72:3d:36:66:21:1c:ab:b9:5d:e4:12:93:3e:9f:ea:26:b2:
         ae:1d:f2:42:85:e4:af:93:7f:f3:9b:f5:36:59:69:9f:5a:9f:
         a3:6c:b0:e6:fb:06:c1:5d:e0:d2:bf:2d:df:22:a3:44:5b:09:
         12:f4:ee:87:ed:20:92:ed:82:2a:9b:e4:8e:6b:86:40:40:9f:
         77:7b:f8:87:c5:60:06:a2:35:91:97:e0:4b:4c:ef:7d:2a:89:
         f1:12:5e:d6:8a:ea:61:7d:51:97:1f:a6:0f:3d:18:3b:57:4b:
         08:67:2e:c4:80:56:f8:8a:50:ae:50:f8:1b:95:a6:8a:07:46:
         59:35:9f:c1:5a:ac:e0:5b:8d:d4:6a:57:ff:26:44:43:72:57:
         81:46:d3:e4:49:55:43:0a:68:93:e9:6b:03:cb:1f:f7:dc:c0:
         d2:d5:b8:64
-----BEGIN CERTIFICATE-----
MIIEuzCCA6OgAwIBAgIGCgsMDQ4PMA0GCSqGSIb3DQEBCwUAMIGDMRYwFAYDVQQD
FA1TSElMTE9OR0NBX0NBMQswCQYDVQQGEwJJTjEPMA0GA1UEChMGQ0lUUklYMQww
CgYDVQQLEwNBTkcxCzAJBgNVBAgTAktBMTAwLgYJKoZIhvcNAQkBFiFTSElMTE9O
R0NBX0NBQFNISUxMT05HQ0FfbWFpbC5jb20wHhcNMTYwNzA4MDQ0MDA3WhcNMjYw
NzA2MDQ0MDA3WjB2MQswCQYDVQQIEwJLQTELMAkGA1UEBhMCSU4xHjAcBgNVBAMU
FTEwMV9TSElMTE9OR0NBX3NlcnZlcjEpMCcGCSqGSIb3DQEJARYaMTAxX1NISUxM
T05HQ0FAdGVzdF9jYS5jb20xDzANBgNVBAoTBkNJVFJJWDCCASIwDQYJKoZIhvcN
AQEBBQADggEPADCCAQoCggEBAKsU2BIEAclXb1X3QKkahzZVC71ZvRY9KEerXZG9
u2xNLGL6FFfGxmOk9ckS1SksY1QDoUaJLB8ZVb5MJQFkP8dUHTFbtA27qiUxaiOY
KijONiCwYMXrm/+mbPgUdzCllXl4szZcRrjunSzQL+RmqoDkr78qDxez7TJtM1EQ
vVI492lJ+PasB5QEnhwR/dsDfxrNECeJQJE5stl7nrERcE6cEiVZYLLdSZrr38Ft
MrgRvg4k5oolQ8tBJklyFEGmKcPkO5cZuz+z1KDjUGNSKhP030eE2pzdBwLxMDs1
8BSPvpaw/03AKphavWaX1+DEwEC8f8pN8t1Pw4lxlG19musCAwEAAaOCAT8wggE7
MBEGCWCGSAGG+EIBAQQEAwIGQDAdBgNVHQ4EFgQU5R0zEJjmKPeQzrEiI/663DfW
RsAwgbgGA1UdIwSBsDCBrYAU+ukfpa+LThj/77fqj/uYvFkjgd+hgYmkgYYwgYMx
FjAUBgNVBAMUDVNISUxMT05HQ0FfQ0ExCzAJBgNVBAYTAklOMQ8wDQYDVQQKEwZD
SVRSSVgxDDAKBgNVBAsTA0FORzELMAkGA1UECBMCS0ExMDAuBgkqhkiG9w0BCQEW
IVNISUxMT05HQ0FfQ0FAU0hJTExPTkdDQV9tYWlsLmNvbYIJAPvQkv2ifDUMMEwG
CCsGAQUFBwEBBEAwPjA8BggrBgEFBQcwAYYwaHR0cDovL1NISUxMT05HQ0Ffb25l
Lm9jc3B0ZXN0LmNvbS9yZXNwb25kZXJwYXRoMA0GCSqGSIb3DQEBCwUAA4IBAQAW
ZwlzxXlFoGQhh4GzdGne+gCACsqWpPyb2y3ponFReAYKgwX/91AWO5y9eJ5CApjO
wsssFs12spVwg/bilL6BZ2vWmwViwoJQweHZds4vpJkOoRgaEEjInovCcj02ZiEc
q7ld5BKTPp/qJrKuHfJCheSvk3/zm/U2WWmfWp+jbLDm+wbBXeDSvy3fIqNEWwkS
9O6H7SCS7YIqm+SOa4ZAQJ93e/iHxWAGojWRl+BLTO99KonxEl7WiuphfVGXH6YP
PRg7V0sIZy7EgFb4ilCuUPgblaaKB0ZZNZ/BWqzgW43Ualf/JkRDcleBRtPkSVVD
CmiT6WsDyx/33MDS1bhk
-----END CERTIFICATE-----
