Certificate:
    Data:
        Version: 3 (0x2)
        Serial Number: 11042563100175 (0xa0b0c0d0e0f)
    Signature Algorithm: sha256WithRSAEncryption
        Issuer: CN=CALCUTTACA_CA, C=IN, O=CITRIX, OU=ANG, ST=KA/emailAddress=CALCUTTACA_CA@CALCUTTACA_mail.com
        Validity
            Not Before: Jul  8 04:33:03 2016 GMT
            Not After : Jul  6 04:33:03 2026 GMT
        Subject: ST=KA, C=IN, CN=101_CALCUTTACA_server/emailAddress=101_CALCUTTACA@test_ca.com, O=CITRIX
        Subject Public Key Info:
            Public Key Algorithm: rsaEncryption
                Public-Key: (2048 bit)
                Modulus:
                    00:a4:1b:14:20:9d:31:1c:ea:c4:fd:7f:a6:a0:55:
                    10:43:c9:2c:f2:50:c1:b4:20:38:d8:cc:1c:61:de:
                    22:46:14:17:a6:0c:6f:fe:50:2c:56:43:e0:71:06:
                    32:3f:06:8d:68:fd:85:2c:18:34:da:3e:60:98:9e:
                    c4:74:c5:bd:34:84:b2:7c:20:59:40:a9:64:9b:ee:
                    5a:bd:3b:f4:f4:e4:db:a1:25:14:87:fc:57:20:3c:
                    38:c0:d4:73:8f:94:19:a9:73:ce:e0:62:2b:9b:c4:
                    5f:6b:af:3f:92:69:e6:a1:a3:27:9d:43:9e:c4:38:
                    91:69:2a:24:ad:d5:a2:56:4f:d4:d8:5b:35:1f:3f:
                    8a:58:ed:d6:b7:45:3f:9e:4d:f5:f8:e0:a2:00:49:
                    41:da:bb:e4:6c:0d:92:0e:5b:59:5c:40:cd:6f:66:
                    c9:0c:a9:68:aa:a6:eb:1b:7e:65:5b:2e:d4:20:9b:
                    a2:69:76:b3:6b:a6:98:54:e2:53:e7:ba:c8:78:7c:
                    fa:74:44:91:5e:22:dc:ff:9a:e1:81:ad:ca:5d:b9:
                    4d:df:98:ba:7f:7d:e2:47:e1:1c:d3:37:0f:a4:de:
                    03:a7:90:54:92:94:d2:e6:bb:39:f4:ac:10:ed:c6:
                    b4:b6:c2:c5:46:72:0d:21:8a:ab:8c:e0:92:72:dc:
                    33:b3
                Exponent: 65537 (0x10001)
        X509v3 extensions:
            Netscape Cert Type: 
                SSL Server
            X509v3 Subject Key Identifier: 
                C6:28:E3:26:BB:AB:0C:07:C2:85:56:72:D0:4F:34:E6:8E:12:70:8B
            X509v3 Authority Key Identifier: 
                keyid:37:2E:7B:27:46:4B:CF:47:10:AC:2B:2E:BA:D0:F3:66:75:EB:52:75
                DirName:/CN=CALCUTTACA_CA/C=IN/O=CITRIX/OU=ANG/ST=KA/emailAddress=CALCUTTACA_CA@CALCUTTACA_mail.com
                serial:A5:C6:47:0E:E6:06:37:18

            Authority Information Access: 
                OCSP - URI:http://CALCUTTACA_one.ocsptest.com/responderpath

    Signature Algorithm: sha256WithRSAEncryption
         4f:94:d0:bf:53:60:90:fb:68:21:11:84:af:3e:b5:4d:81:be:
         bf:61:5e:30:2a:d1:8c:a8:19:43:9d:d0:7d:e8:a9:f2:b4:f0:
         43:1a:aa:a0:27:70:ef:4e:f5:e9:4e:a8:e7:ee:71:7c:a0:b4:
         99:8f:11:24:fc:c1:79:dc:c6:f3:9a:cf:20:cd:8a:d6:ad:a8:
         9f:bd:fc:dd:a4:29:39:78:05:f8:e8:aa:d9:81:f0:ee:ae:b0:
         91:c0:a8:c3:a1:b4:4b:dc:76:a3:f7:2b:f0:49:ed:26:2f:9d:
         e7:38:a8:88:e8:b9:2b:72:dd:58:0c:35:df:ea:fe:ff:d6:08:
         5e:67:5d:1f:0c:57:38:d6:a3:2d:e6:8c:14:94:f3:b6:58:9d:
         23:9f:81:38:09:4e:bd:23:b4:3c:cc:c2:af:54:16:ed:f7:71:
         b5:f3:b1:91:3b:e8:cc:10:7e:3c:52:1f:92:37:f1:4f:0e:11:
         de:2f:94:69:4d:3d:9a:90:06:1f:36:89:d7:d8:00:94:8d:d6:
         84:cc:c2:cb:d8:da:5e:25:42:8c:79:b6:a5:ca:62:a0:7f:0b:
         73:b2:87:85:d1:24:74:59:c9:d7:bb:2f:73:97:f0:21:da:c2:
         67:97:5c:ba:dc:7f:a5:7f:9e:61:02:81:13:f9:8e:64:76:80:
         4a:83:16:d2
-----BEGIN CERTIFICATE-----
MIIEuzCCA6OgAwIBAgIGCgsMDQ4PMA0GCSqGSIb3DQEBCwUAMIGDMRYwFAYDVQQD
FA1DQUxDVVRUQUNBX0NBMQswCQYDVQQGEwJJTjEPMA0GA1UEChMGQ0lUUklYMQww
CgYDVQQLEwNBTkcxCzAJBgNVBAgTAktBMTAwLgYJKoZIhvcNAQkBFiFDQUxDVVRU
QUNBX0NBQENBTENVVFRBQ0FfbWFpbC5jb20wHhcNMTYwNzA4MDQzMzAzWhcNMjYw
NzA2MDQzMzAzWjB2MQswCQYDVQQIEwJLQTELMAkGA1UEBhMCSU4xHjAcBgNVBAMU
FTEwMV9DQUxDVVRUQUNBX3NlcnZlcjEpMCcGCSqGSIb3DQEJARYaMTAxX0NBTENV
VFRBQ0FAdGVzdF9jYS5jb20xDzANBgNVBAoTBkNJVFJJWDCCASIwDQYJKoZIhvcN
AQEBBQADggEPADCCAQoCggEBAKQbFCCdMRzqxP1/pqBVEEPJLPJQwbQgONjMHGHe
IkYUF6YMb/5QLFZD4HEGMj8GjWj9hSwYNNo+YJiexHTFvTSEsnwgWUCpZJvuWr07
9PTk26ElFIf8VyA8OMDUc4+UGalzzuBiK5vEX2uvP5Jp5qGjJ51DnsQ4kWkqJK3V
olZP1NhbNR8/iljt1rdFP55N9fjgogBJQdq75GwNkg5bWVxAzW9myQypaKqm6xt+
ZVsu1CCboml2s2ummFTiU+e6yHh8+nREkV4i3P+a4YGtyl25Td+Yun994kfhHNM3
D6TeA6eQVJKU0ua7OfSsEO3GtLbCxUZyDSGKq4zgknLcM7MCAwEAAaOCAT8wggE7
MBEGCWCGSAGG+EIBAQQEAwIGQDAdBgNVHQ4EFgQUxijjJrurDAfChVZy0E805o4S
cIswgbgGA1UdIwSBsDCBrYAUNy57J0ZLz0cQrCsuutDzZnXrUnWhgYmkgYYwgYMx
FjAUBgNVBAMUDUNBTENVVFRBQ0FfQ0ExCzAJBgNVBAYTAklOMQ8wDQYDVQQKEwZD
SVRSSVgxDDAKBgNVBAsTA0FORzELMAkGA1UECBMCS0ExMDAuBgkqhkiG9w0BCQEW
IUNBTENVVFRBQ0FfQ0FAQ0FMQ1VUVEFDQV9tYWlsLmNvbYIJAKXGRw7mBjcYMEwG
CCsGAQUFBwEBBEAwPjA8BggrBgEFBQcwAYYwaHR0cDovL0NBTENVVFRBQ0Ffb25l
Lm9jc3B0ZXN0LmNvbS9yZXNwb25kZXJwYXRoMA0GCSqGSIb3DQEBCwUAA4IBAQBP
lNC/U2CQ+2ghEYSvPrVNgb6/YV4wKtGMqBlDndB96KnytPBDGqqgJ3DvTvXpTqjn
7nF8oLSZjxEk/MF53Mbzms8gzYrWraifvfzdpCk5eAX46KrZgfDurrCRwKjDobRL
3Haj9yvwSe0mL53nOKiI6Lkrct1YDDXf6v7/1gheZ10fDFc41qMt5owUlPO2WJ0j
n4E4CU69I7Q8zMKvVBbt93G187GRO+jMEH48Uh+SN/FPDhHeL5RpTT2akAYfNonX
2ACUjdaEzMLL2NpeJUKMebalymKgfwtzsoeF0SR0WcnXuy9zl/Ah2sJnl1y63H+l
f55hAoET+Y5kdoBKgxbS
-----END CERTIFICATE-----
