Certificate:
    Data:
        Version: 3 (0x2)
        Serial Number: 11042563100176 (0xa0b0c0d0e10)
    Signature Algorithm: sha256WithRSAEncryption
        Issuer: CN=RANCHICA_CA, C=IN, O=CITRIX, OU=ANG, ST=KA/emailAddress=RANCHICA_CA@RANCHICA_mail.com
        Validity
            Not Before: Jul  8 04:38:48 2016 GMT
            Not After : Jul  6 04:38:48 2026 GMT
        Subject: ST=KA, C=IN, CN=102_RANCHICA_server/emailAddress=102_RANCHICA@test_ca.com, O=CITRIX
        Subject Public Key Info:
            Public Key Algorithm: rsaEncryption
                Public-Key: (2048 bit)
                Modulus:
                    00:c9:5e:78:6e:1c:1d:a9:44:c8:0a:2f:54:48:fc:
                    de:22:7a:e1:d3:a2:e0:dd:6f:9d:c8:74:b9:d1:11:
                    41:d9:d3:1f:d9:ae:a3:2b:64:54:76:66:24:46:80:
                    8f:65:26:27:06:ea:03:94:08:ea:f3:99:df:cd:b9:
                    7c:45:22:a1:7a:f1:4d:6d:e3:aa:fa:31:be:58:70:
                    a0:ee:2c:6f:58:26:ab:1d:ee:7e:f1:b2:1f:b9:73:
                    ca:ad:e1:7e:9c:97:0a:7f:ad:a5:ff:b4:56:d3:4c:
                    32:41:e4:e4:f2:f5:86:ae:4b:63:fb:6a:6c:71:9c:
                    de:4d:c8:7c:89:8f:21:c4:b3:05:f3:78:df:39:89:
                    f3:68:9d:93:c5:6f:e3:90:64:51:7a:2a:14:90:67:
                    6a:53:90:3d:15:55:c0:48:fa:e9:57:35:74:cc:8f:
                    33:3d:38:71:ce:95:c5:18:b4:bb:45:36:12:58:47:
                    cf:cb:82:f5:e4:46:fd:2c:05:63:8e:ed:06:25:e5:
                    a1:f6:33:be:f0:84:bc:7c:ad:f3:c0:51:32:46:83:
                    80:5d:ee:c6:5c:6f:b4:36:4d:9c:53:3a:bf:54:b9:
                    a4:8e:ed:7c:d3:9a:d8:dd:fa:bd:1f:40:f3:10:77:
                    b2:72:df:bd:d5:44:c8:63:12:8c:ff:6a:87:fc:66:
                    82:ad
                Exponent: 65537 (0x10001)
        X509v3 extensions:
            Netscape Cert Type: 
                SSL Server
            X509v3 Subject Key Identifier: 
                AF:42:0C:0E:82:8A:19:B6:25:49:D7:71:A1:47:9B:E4:0D:45:C2:2E
            X509v3 Authority Key Identifier: 
                keyid:A7:10:6F:5D:0C:9F:9C:A2:F4:39:92:A3:7D:5C:B8:C0:25:71:BF:39
                DirName:/CN=RANCHICA_CA/C=IN/O=CITRIX/OU=ANG/ST=KA/emailAddress=RANCHICA_CA@RANCHICA_mail.com
                serial:E7:09:A4:3D:1C:C7:45:B1

            Authority Information Access: 
                OCSP - URI:http://RANCHICA_one.ocsptest.com/responderpath

    Signature Algorithm: sha256WithRSAEncryption
         0d:a8:b6:60:53:ec:c8:f4:c6:91:a9:a0:29:7d:f5:3f:e6:3e:
         8e:15:82:73:4d:74:55:94:4b:38:ed:84:a5:bb:b2:05:7f:1c:
         4c:0d:7b:b5:0c:2f:68:ef:4f:73:9b:ca:81:a0:75:2d:7f:3b:
         06:34:e0:d0:fe:e4:a9:91:19:a5:d8:4a:59:2a:23:47:57:4a:
         57:5f:1d:79:88:e2:40:16:dc:1a:b5:c8:b1:fd:5b:19:09:bc:
         fb:96:88:be:ff:36:be:a9:03:f5:3e:22:78:da:8e:55:8f:72:
         89:b4:b7:3f:1a:d2:51:ad:dd:41:e2:01:28:80:19:7d:a5:f6:
         f7:49:b9:34:84:5c:b1:1e:6f:1e:75:2b:14:30:77:3e:55:bf:
         99:41:3d:34:c5:93:14:e8:9a:5b:23:1f:ae:e8:1d:dc:f9:ed:
         66:c7:87:29:49:00:80:96:f8:a7:ba:02:8c:08:a2:02:bf:91:
         95:f2:da:ef:b0:d3:85:19:84:00:43:4a:ad:39:81:a3:8e:24:
         29:c4:96:4c:80:8a:c1:23:a0:a3:5f:a5:dc:da:32:77:c3:dd:
         35:03:64:61:b7:09:6e:8f:df:3d:38:45:0b:1d:61:aa:f9:ba:
         41:50:01:e6:c2:27:c0:46:07:60:5e:05:dc:bd:85:65:47:bd:
         7a:e2:b5:fd
-----BEGIN CERTIFICATE-----
MIIEpjCCA46gAwIBAgIGCgsMDQ4QMA0GCSqGSIb3DQEBCwUAMH0xFDASBgNVBAMU
C1JBTkNISUNBX0NBMQswCQYDVQQGEwJJTjEPMA0GA1UEChMGQ0lUUklYMQwwCgYD
VQQLEwNBTkcxCzAJBgNVBAgTAktBMSwwKgYJKoZIhvcNAQkBFh1SQU5DSElDQV9D
QUBSQU5DSElDQV9tYWlsLmNvbTAeFw0xNjA3MDgwNDM4NDhaFw0yNjA3MDYwNDM4
NDhaMHIxCzAJBgNVBAgTAktBMQswCQYDVQQGEwJJTjEcMBoGA1UEAxQTMTAyX1JB
TkNISUNBX3NlcnZlcjEnMCUGCSqGSIb3DQEJARYYMTAyX1JBTkNISUNBQHRlc3Rf
Y2EuY29tMQ8wDQYDVQQKEwZDSVRSSVgwggEiMA0GCSqGSIb3DQEBAQUAA4IBDwAw
ggEKAoIBAQDJXnhuHB2pRMgKL1RI/N4ieuHTouDdb53IdLnREUHZ0x/ZrqMrZFR2
ZiRGgI9lJicG6gOUCOrzmd/NuXxFIqF68U1t46r6Mb5YcKDuLG9YJqsd7n7xsh+5
c8qt4X6clwp/raX/tFbTTDJB5OTy9YauS2P7amxxnN5NyHyJjyHEswXzeN85ifNo
nZPFb+OQZFF6KhSQZ2pTkD0VVcBI+ulXNXTMjzM9OHHOlcUYtLtFNhJYR8/LgvXk
Rv0sBWOO7QYl5aH2M77whLx8rfPAUTJGg4Bd7sZcb7Q2TZxTOr9UuaSO7XzTmtjd
+r0fQPMQd7Jy373VRMhjEoz/aof8ZoKtAgMBAAGjggE1MIIBMTARBglghkgBhvhC
AQEEBAMCBkAwHQYDVR0OBBYEFK9CDA6Cihm2JUnXcaFHm+QNRcIuMIGwBgNVHSME
gagwgaWAFKcQb10Mn5yi9DmSo31cuMAlcb85oYGBpH8wfTEUMBIGA1UEAxQLUkFO
Q0hJQ0FfQ0ExCzAJBgNVBAYTAklOMQ8wDQYDVQQKEwZDSVRSSVgxDDAKBgNVBAsT
A0FORzELMAkGA1UECBMCS0ExLDAqBgkqhkiG9w0BCQEWHVJBTkNISUNBX0NBQFJB
TkNISUNBX21haWwuY29tggkA5wmkPRzHRbEwSgYIKwYBBQUHAQEEPjA8MDoGCCsG
AQUFBzABhi5odHRwOi8vUkFOQ0hJQ0Ffb25lLm9jc3B0ZXN0LmNvbS9yZXNwb25k
ZXJwYXRoMA0GCSqGSIb3DQEBCwUAA4IBAQANqLZgU+zI9MaRqaApffU/5j6OFYJz
TXRVlEs47YSlu7IFfxxMDXu1DC9o709zm8qBoHUtfzsGNODQ/uSpkRml2EpZKiNH
V0pXXx15iOJAFtwatcix/VsZCbz7loi+/za+qQP1PiJ42o5Vj3KJtLc/GtJRrd1B
4gEogBl9pfb3Sbk0hFyxHm8edSsUMHc+Vb+ZQT00xZMU6JpbIx+u6B3c+e1mx4cp
SQCAlvinugKMCKICv5GV8trvsNOFGYQAQ0qtOYGjjiQpxJZMgIrBI6CjX6Xc2jJ3
w901A2Rhtwluj989OEULHWGq+bpBUAHmwifARgdgXgXcvYVlR7164rX9
-----END CERTIFICATE-----
