Certificate:
    Data:
        Version: 3 (0x2)
        Serial Number: 11042563100176 (0xa0b0c0d0e10)
    Signature Algorithm: sha256WithRSAEncryption
        Issuer: CN=BANGALORECA_CA, C=IN, O=CITRIX, OU=ANG, ST=KA/emailAddress=BANGALORECA_CA@BANGALORECA_mail.com
        Validity
            Not Before: Jul  8 04:31:19 2016 GMT
            Not After : Jul  6 04:31:19 2026 GMT
        Subject: ST=KA, C=IN, CN=102_BANGALORECA_server/emailAddress=102_BANGALORECA@test_ca.com, O=CITRIX
        Subject Public Key Info:
            Public Key Algorithm: rsaEncryption
                Public-Key: (2048 bit)
                Modulus:
                    00:c7:27:a2:7e:cf:a8:d8:86:7f:37:2f:26:63:cb:
                    e0:a4:a7:4d:21:26:b4:92:92:68:af:e5:76:01:31:
                    14:2a:71:3f:2f:38:c2:32:93:01:e3:a9:e0:46:d4:
                    e0:8b:9b:1c:64:37:6b:cf:1d:ac:1a:bc:04:d3:51:
                    f1:48:b9:e8:73:4c:99:4b:a1:8a:26:94:d3:f0:58:
                    de:e0:52:42:d9:d9:57:94:59:2a:33:98:67:c9:4a:
                    3b:d7:81:34:7c:4b:78:26:98:09:a4:58:7a:01:8e:
                    ae:82:f8:43:4b:80:7d:7e:73:d5:e6:ee:ab:68:8e:
                    e3:7c:9b:e1:83:69:df:56:05:3d:5b:15:24:7c:d2:
                    85:34:50:74:97:73:85:d7:ea:73:4e:06:fa:82:2d:
                    5d:bd:e2:98:07:48:96:6f:f8:d9:e6:30:b6:c1:58:
                    4d:58:05:cf:86:d4:60:08:86:d4:f8:1d:60:a5:c5:
                    93:72:6f:ba:4a:0c:c0:75:20:a3:b2:bd:c0:89:41:
                    25:0f:5c:ee:08:cf:03:d8:68:0d:52:82:2c:8e:74:
                    4d:1a:37:73:cd:d9:00:59:13:b5:78:6b:03:23:d9:
                    69:b3:f8:a1:5a:57:a1:4a:ac:08:f4:0e:d0:68:d4:
                    bc:91:b3:31:91:6d:a8:f8:0b:a7:82:a6:b3:12:11:
                    04:7d
                Exponent: 65537 (0x10001)
        X509v3 extensions:
            Netscape Cert Type: 
                SSL Server
            X509v3 Subject Key Identifier: 
                D7:E2:5B:32:11:24:45:09:5D:E9:D7:1F:2C:50:BB:7D:AB:59:6B:0E
            X509v3 Authority Key Identifier: 
                keyid:3B:D6:D1:53:18:87:05:22:BB:EE:C3:0F:F5:CE:0F:6B:A2:93:A7:B8
                DirName:/CN=BANGALORECA_CA/C=IN/O=CITRIX/OU=ANG/ST=KA/emailAddress=BANGALORECA_CA@BANGALORECA_mail.com
                serial:A1:AC:B4:DA:46:53:58:40

            Authority Information Access: 
                OCSP - URI:http://BANGALORECA_one.ocsptest.com/responderpath

    Signature Algorithm: sha256WithRSAEncryption
         3d:6f:05:98:f1:d8:1e:ea:9a:c0:27:24:7d:d8:ae:88:1b:e0:
         30:6c:27:71:c3:5a:f1:f0:5c:60:ed:44:69:4b:37:0a:c0:f6:
         7e:0c:c2:f4:98:4c:00:aa:60:0d:13:10:86:ba:f5:be:4d:11:
         db:87:f9:d6:de:b7:80:1b:d5:c0:55:83:28:95:d9:9b:fd:5a:
         a7:e1:d4:8c:04:96:0c:a1:17:cf:9e:b7:37:3e:b6:51:e7:63:
         e3:bb:97:d9:67:32:83:1d:97:28:02:bf:ad:54:f0:3f:2d:a2:
         4e:60:5e:58:a9:c4:92:e4:09:44:b9:d2:fd:b7:80:3c:44:55:
         29:89:e9:d2:a9:24:27:40:cd:14:0b:15:ab:5b:09:9c:21:b9:
         c2:73:ee:2b:f5:a0:f6:67:49:10:f8:f9:de:f8:6a:cf:78:54:
         11:a2:9b:d3:6c:67:62:01:a2:65:aa:24:2e:26:92:8c:38:46:
         11:57:45:64:6e:67:b9:10:ac:a6:bb:4a:5a:c7:a0:89:64:a8:
         de:e0:4f:16:74:96:ab:ce:4c:e5:60:73:09:4b:5a:27:93:3e:
         fc:bc:4f:59:af:81:97:5b:48:d3:4a:50:74:6f:4d:70:be:d0:
         45:e2:a1:1f:71:58:e7:9e:03:9e:b4:12:bc:93:76:2d:25:8f:
         d9:53:8d:12
-----BEGIN CERTIFICATE-----
MIIExDCCA6ygAwIBAgIGCgsMDQ4QMA0GCSqGSIb3DQEBCwUAMIGGMRcwFQYDVQQD
FA5CQU5HQUxPUkVDQV9DQTELMAkGA1UEBhMCSU4xDzANBgNVBAoTBkNJVFJJWDEM
MAoGA1UECxMDQU5HMQswCQYDVQQIEwJLQTEyMDAGCSqGSIb3DQEJARYjQkFOR0FM
T1JFQ0FfQ0FAQkFOR0FMT1JFQ0FfbWFpbC5jb20wHhcNMTYwNzA4MDQzMTE5WhcN
MjYwNzA2MDQzMTE5WjB4MQswCQYDVQQIEwJLQTELMAkGA1UEBhMCSU4xHzAdBgNV
BAMUFjEwMl9CQU5HQUxPUkVDQV9zZXJ2ZXIxKjAoBgkqhkiG9w0BCQEWGzEwMl9C
QU5HQUxPUkVDQUB0ZXN0X2NhLmNvbTEPMA0GA1UEChMGQ0lUUklYMIIBIjANBgkq
hkiG9w0BAQEFAAOCAQ8AMIIBCgKCAQEAxyeifs+o2IZ/Ny8mY8vgpKdNISa0kpJo
r+V2ATEUKnE/LzjCMpMB46ngRtTgi5scZDdrzx2sGrwE01HxSLnoc0yZS6GKJpTT
8Fje4FJC2dlXlFkqM5hnyUo714E0fEt4JpgJpFh6AY6ugvhDS4B9fnPV5u6raI7j
fJvhg2nfVgU9WxUkfNKFNFB0l3OF1+pzTgb6gi1dveKYB0iWb/jZ5jC2wVhNWAXP
htRgCIbU+B1gpcWTcm+6SgzAdSCjsr3AiUElD1zuCM8D2GgNUoIsjnRNGjdzzdkA
WRO1eGsDI9lps/ihWlehSqwI9A7QaNS8kbMxkW2o+AungqazEhEEfQIDAQABo4IB
QzCCAT8wEQYJYIZIAYb4QgEBBAQDAgZAMB0GA1UdDgQWBBTX4lsyESRFCV3p1x8s
ULt9q1lrDjCBuwYDVR0jBIGzMIGwgBQ71tFTGIcFIrvuww/1zg9ropOnuKGBjKSB
iTCBhjEXMBUGA1UEAxQOQkFOR0FMT1JFQ0FfQ0ExCzAJBgNVBAYTAklOMQ8wDQYD
VQQKEwZDSVRSSVgxDDAKBgNVBAsTA0FORzELMAkGA1UECBMCS0ExMjAwBgkqhkiG
9w0BCQEWI0JBTkdBTE9SRUNBX0NBQEJBTkdBTE9SRUNBX21haWwuY29tggkAoay0
2kZTWEAwTQYIKwYBBQUHAQEEQTA/MD0GCCsGAQUFBzABhjFodHRwOi8vQkFOR0FM
T1JFQ0Ffb25lLm9jc3B0ZXN0LmNvbS9yZXNwb25kZXJwYXRoMA0GCSqGSIb3DQEB
CwUAA4IBAQA9bwWY8dge6prAJyR92K6IG+AwbCdxw1rx8Fxg7URpSzcKwPZ+DML0
mEwAqmANExCGuvW+TRHbh/nW3reAG9XAVYMoldmb/Vqn4dSMBJYMoRfPnrc3PrZR
52Pju5fZZzKDHZcoAr+tVPA/LaJOYF5YqcSS5AlEudL9t4A8RFUpienSqSQnQM0U
CxWrWwmcIbnCc+4r9aD2Z0kQ+Pne+GrPeFQRopvTbGdiAaJlqiQuJpKMOEYRV0Vk
bme5EKymu0pax6CJZKje4E8WdJarzkzlYHMJS1onkz78vE9Zr4GXW0jTSlB0b01w
vtBF4qEfcVjnngOetBK8k3YtJY/ZU40S
-----END CERTIFICATE-----
