Certificate:
    Data:
        Version: 3 (0x2)
        Serial Number: 11042563100176 (0xa0b0c0d0e10)
    Signature Algorithm: sha256WithRSAEncryption
        Issuer: CN=BHOPALCA_CA, C=IN, O=CITRIX, OU=ANG, ST=KA/emailAddress=BHOPALCA_CA@BHOPALCA_mail.com
        Validity
            Not Before: Jul  8 04:32:32 2016 GMT
            Not After : Jul  6 04:32:32 2026 GMT
        Subject: ST=KA, C=IN, CN=102_BHOPALCA_server/emailAddress=102_BHOPALCA@test_ca.com, O=CITRIX
        Subject Public Key Info:
            Public Key Algorithm: rsaEncryption
                Public-Key: (2048 bit)
                Modulus:
                    00:c4:ba:d1:d5:1c:00:96:7e:07:c7:de:9e:87:fa:
                    d2:c0:bc:53:5b:0d:4b:2e:b5:bc:53:7a:3b:81:00:
                    da:eb:7c:7a:d4:c2:bb:74:e3:e4:65:e6:2e:5d:c3:
                    ec:64:cb:3a:5e:8e:d0:8a:24:ea:67:13:87:61:e5:
                    de:4f:40:ff:3b:2c:c5:c2:10:b8:5b:7a:1b:6e:8f:
                    9d:af:ec:a8:65:f3:23:03:00:0b:31:af:0d:eb:66:
                    36:e7:cd:30:ef:05:60:80:e2:74:f0:68:9e:57:ee:
                    b1:69:66:64:24:8d:f5:19:3d:26:fb:22:19:40:3c:
                    cb:8d:7d:52:34:0d:2a:ca:49:f7:f3:bc:61:47:1e:
                    5c:4a:cb:2c:3f:8d:b2:51:cc:0d:83:0f:95:47:7a:
                    81:34:89:ef:a8:13:07:4a:d8:d7:10:db:cc:d8:94:
                    c7:39:fb:ef:da:4b:1b:d7:1d:61:8d:f1:c3:04:19:
                    4b:2a:aa:b3:75:bd:40:6b:cd:c7:7c:c4:9b:cc:7e:
                    67:0f:0e:a2:76:bb:53:0b:96:9f:b2:5c:72:89:52:
                    52:b0:fa:e9:0c:7e:3e:59:dd:33:55:0c:a9:6e:2e:
                    d7:24:60:3f:0c:20:c2:9e:eb:9e:92:2f:c4:ee:b9:
                    2a:70:53:fd:81:aa:ac:37:2d:6c:3a:5f:88:c2:59:
                    9a:23
                Exponent: 65537 (0x10001)
        X509v3 extensions:
            Netscape Cert Type: 
                SSL Server
            X509v3 Subject Key Identifier: 
                91:4B:3C:F6:EE:82:0E:98:15:79:88:BD:D1:97:39:F2:12:F0:46:DF
            X509v3 Authority Key Identifier: 
                keyid:A6:66:0E:59:0F:3C:5C:11:35:B2:B3:99:59:A9:D3:A6:B1:5E:95:D2
                DirName:/CN=BHOPALCA_CA/C=IN/O=CITRIX/OU=ANG/ST=KA/emailAddress=BHOPALCA_CA@BHOPALCA_mail.com
                serial:BE:89:55:F3:65:28:17:9A

            Authority Information Access: 
                OCSP - URI:http://BHOPALCA_one.ocsptest.com/responderpath

    Signature Algorithm: sha256WithRSAEncryption
         30:b7:1f:0a:d3:d0:a0:1a:60:d6:ca:e3:27:a9:e3:46:70:39:
         36:e0:13:72:d9:67:44:04:1e:77:07:22:80:8c:15:ea:98:c1:
         08:0f:9b:eb:fe:e2:9b:53:eb:54:4f:d2:21:c8:57:39:79:62:
         94:35:32:fc:ca:b1:22:85:f7:ef:e3:27:5f:8f:28:78:c6:22:
         16:88:1c:d1:5a:eb:18:7e:cf:0d:f1:4a:c5:81:dd:26:21:f2:
         5c:0f:3e:74:ac:28:9b:6c:e4:c5:12:ab:b9:96:05:0c:52:3b:
         d4:d7:65:49:9c:9d:ce:f5:ec:ab:2d:24:85:ed:fd:f7:ab:88:
         47:d7:ae:12:21:45:52:53:d9:e4:f1:03:e6:95:bf:13:43:77:
         6c:cc:5d:01:92:e5:9d:af:41:7d:97:fd:23:82:3f:50:69:3f:
         cf:bf:a5:2f:e1:71:e7:e8:44:6e:c2:48:c9:8f:26:e7:7a:2a:
         ee:3b:a7:f1:2f:48:6b:56:22:d6:59:04:07:f5:a4:2b:2d:4b:
         8f:50:a9:94:54:1a:c1:f1:b0:43:5b:e8:c2:c9:c9:57:bd:1d:
         ef:2c:d1:fb:64:59:07:f4:57:f0:02:35:b5:74:0b:4a:2a:da:
         a0:7e:71:21:48:a7:9f:64:46:5f:ff:99:0f:ee:49:65:04:f3:
         57:68:bd:3e
-----BEGIN CERTIFICATE-----
MIIEpjCCA46gAwIBAgIGCgsMDQ4QMA0GCSqGSIb3DQEBCwUAMH0xFDASBgNVBAMU
C0JIT1BBTENBX0NBMQswCQYDVQQGEwJJTjEPMA0GA1UEChMGQ0lUUklYMQwwCgYD
VQQLEwNBTkcxCzAJBgNVBAgTAktBMSwwKgYJKoZIhvcNAQkBFh1CSE9QQUxDQV9D
QUBCSE9QQUxDQV9tYWlsLmNvbTAeFw0xNjA3MDgwNDMyMzJaFw0yNjA3MDYwNDMy
MzJaMHIxCzAJBgNVBAgTAktBMQswCQYDVQQGEwJJTjEcMBoGA1UEAxQTMTAyX0JI
T1BBTENBX3NlcnZlcjEnMCUGCSqGSIb3DQEJARYYMTAyX0JIT1BBTENBQHRlc3Rf
Y2EuY29tMQ8wDQYDVQQKEwZDSVRSSVgwggEiMA0GCSqGSIb3DQEBAQUAA4IBDwAw
ggEKAoIBAQDEutHVHACWfgfH3p6H+tLAvFNbDUsutbxTejuBANrrfHrUwrt04+Rl
5i5dw+xkyzpejtCKJOpnE4dh5d5PQP87LMXCELhbehtuj52v7Khl8yMDAAsxrw3r
ZjbnzTDvBWCA4nTwaJ5X7rFpZmQkjfUZPSb7IhlAPMuNfVI0DSrKSffzvGFHHlxK
yyw/jbJRzA2DD5VHeoE0ie+oEwdK2NcQ28zYlMc5++/aSxvXHWGN8cMEGUsqqrN1
vUBrzcd8xJvMfmcPDqJ2u1MLlp+yXHKJUlKw+ukMfj5Z3TNVDKluLtckYD8MIMKe
656SL8TuuSpwU/2Bqqw3LWw6X4jCWZojAgMBAAGjggE1MIIBMTARBglghkgBhvhC
AQEEBAMCBkAwHQYDVR0OBBYEFJFLPPbugg6YFXmIvdGXOfIS8EbfMIGwBgNVHSME
gagwgaWAFKZmDlkPPFwRNbKzmVmp06axXpXSoYGBpH8wfTEUMBIGA1UEAxQLQkhP
UEFMQ0FfQ0ExCzAJBgNVBAYTAklOMQ8wDQYDVQQKEwZDSVRSSVgxDDAKBgNVBAsT
A0FORzELMAkGA1UECBMCS0ExLDAqBgkqhkiG9w0BCQEWHUJIT1BBTENBX0NBQEJI
T1BBTENBX21haWwuY29tggkAvolV82UoF5owSgYIKwYBBQUHAQEEPjA8MDoGCCsG
AQUFBzABhi5odHRwOi8vQkhPUEFMQ0Ffb25lLm9jc3B0ZXN0LmNvbS9yZXNwb25k
ZXJwYXRoMA0GCSqGSIb3DQEBCwUAA4IBAQAwtx8K09CgGmDWyuMnqeNGcDk24BNy
2WdEBB53ByKAjBXqmMEID5vr/uKbU+tUT9IhyFc5eWKUNTL8yrEihffv4ydfjyh4
xiIWiBzRWusYfs8N8UrFgd0mIfJcDz50rCibbOTFEqu5lgUMUjvU12VJnJ3O9eyr
LSSF7f33q4hH164SIUVSU9nk8QPmlb8TQ3dszF0BkuWdr0F9l/0jgj9QaT/Pv6Uv
4XHn6ERuwkjJjybneiruO6fxL0hrViLWWQQH9aQrLUuPUKmUVBrB8bBDW+jCyclX
vR3vLNH7ZFkH9FfwAjW1dAtKKtqgfnEhSKefZEZf/5kP7kllBPNXaL0+
-----END CERTIFICATE-----
