Certificate:
    Data:
        Version: 3 (0x2)
        Serial Number: 11042563100176 (0xa0b0c0d0e10)
    Signature Algorithm: sha256WithRSAEncryption
        Issuer: CN=OOTYCA_CA, C=IN, O=CITRIX, OU=ANG, ST=KA/emailAddress=OOTYCA_CA@OOTYCA_mail.com
        Validity
            Not Before: Jul  8 04:37:02 2016 GMT
            Not After : Jul  6 04:37:02 2026 GMT
        Subject: ST=KA, C=IN, CN=102_OOTYCA_server/emailAddress=102_OOTYCA@test_ca.com, O=CITRIX
        Subject Public Key Info:
            Public Key Algorithm: rsaEncryption
                Public-Key: (2048 bit)
                Modulus:
                    00:be:95:71:33:51:8c:15:e6:cc:ea:12:61:64:5e:
                    91:cf:f7:14:be:a9:02:c4:4d:99:94:da:24:a0:69:
                    09:dd:11:b9:0a:90:16:e9:5a:2e:89:58:34:42:47:
                    8c:8f:52:ee:42:01:85:fc:65:50:53:f2:77:e3:65:
                    85:81:2c:f9:e3:8b:19:50:54:87:1d:f9:3f:65:12:
                    43:96:3c:c1:98:8a:bb:4e:28:36:0a:1a:fd:68:60:
                    8f:0d:a3:5e:dd:be:43:c9:18:d3:f7:52:3c:a9:ce:
                    09:38:25:20:58:6d:c7:9f:fb:af:3c:9e:e9:c5:b2:
                    8c:c4:8e:13:21:05:9b:61:c5:84:83:8b:c0:f0:cb:
                    aa:74:40:68:bf:ad:49:10:f6:96:3b:5f:95:ab:0e:
                    d9:f3:75:b0:23:3c:bd:94:8c:8c:aa:52:e4:43:7b:
                    cf:9e:88:e8:83:1c:72:0c:c2:51:4e:f0:75:5c:7f:
                    f0:af:32:54:51:36:4d:b4:52:3f:3b:3f:af:20:f8:
                    ef:fa:66:22:7d:d1:53:5b:b3:38:43:78:ed:04:f9:
                    a5:b5:66:ba:7a:b6:e7:9c:b1:62:82:72:d6:d1:72:
                    f9:46:59:71:bf:67:9a:e3:4c:fb:df:07:85:31:aa:
                    35:59:76:3f:3b:fd:89:0a:3a:01:22:0e:fd:03:d7:
                    04:23
                Exponent: 65537 (0x10001)
        X509v3 extensions:
            Netscape Cert Type: 
                SSL Server
            X509v3 Subject Key Identifier: 
                8F:6A:9D:08:6E:1F:FD:AE:7D:55:8B:26:DA:7C:56:81:17:A9:57:B3
            X509v3 Authority Key Identifier: 
                keyid:9E:A0:B1:FE:A8:B8:21:30:13:39:F2:C3:C1:A8:43:CB:5D:73:FC:B5
                DirName:/CN=OOTYCA_CA/C=IN/O=CITRIX/OU=ANG/ST=KA/emailAddress=OOTYCA_CA@OOTYCA_mail.com
                serial:AA:C2:AB:74:21:09:60:FF

            Authority Information Access: 
                OCSP - URI:http://OOTYCA_one.ocsptest.com/responderpath

    Signature Algorithm: sha256WithRSAEncryption
         38:3e:7c:1b:a1:3b:7f:22:ce:92:5f:0a:30:1c:2d:20:d5:1f:
         35:42:3d:1e:5c:8b:f1:c5:af:3d:07:a6:92:7c:f0:22:06:77:
         8a:af:42:2d:21:e4:c3:45:5c:d7:ad:0d:71:44:fa:fa:43:82:
         5c:9b:14:c9:a2:72:0c:1d:82:8e:a3:51:4c:33:13:68:98:4f:
         0f:3b:00:ee:a7:dd:19:13:27:d8:b9:40:ee:2e:6b:cc:17:a0:
         1f:5c:4d:cd:00:03:d3:64:5e:ab:d3:db:de:ac:45:65:06:03:
         96:6f:c4:ed:24:20:c6:49:c6:c7:9c:cf:e4:d9:0d:66:b4:22:
         a2:87:73:dd:cb:1c:7d:c3:83:5f:c7:b2:43:db:0f:5c:6e:16:
         af:8e:55:ed:67:72:46:e8:ca:03:7a:15:ff:33:9f:9d:95:78:
         49:4a:19:91:a0:4c:a4:1f:91:4d:89:be:f9:e2:f7:23:ff:18:
         35:c9:ee:8f:05:f9:40:a9:2d:7e:bd:05:b7:c1:7b:ff:b9:2d:
         10:e4:7b:e9:4c:5c:b1:ff:0e:67:01:1b:e9:0b:12:be:b3:c5:
         6e:e5:8f:f4:1d:4f:1a:06:87:97:c6:fd:27:1a:98:45:37:7f:
         b8:a8:53:92:87:bf:9d:f0:5c:ef:f3:ed:eb:da:01:08:c5:72:
         f8:7d:c2:3e
-----BEGIN CERTIFICATE-----
MIIEkzCCA3ugAwIBAgIGCgsMDQ4QMA0GCSqGSIb3DQEBCwUAMHcxEjAQBgNVBAMU
CU9PVFlDQV9DQTELMAkGA1UEBhMCSU4xDzANBgNVBAoTBkNJVFJJWDEMMAoGA1UE
CxMDQU5HMQswCQYDVQQIEwJLQTEoMCYGCSqGSIb3DQEJARYZT09UWUNBX0NBQE9P
VFlDQV9tYWlsLmNvbTAeFw0xNjA3MDgwNDM3MDJaFw0yNjA3MDYwNDM3MDJaMG4x
CzAJBgNVBAgTAktBMQswCQYDVQQGEwJJTjEaMBgGA1UEAxQRMTAyX09PVFlDQV9z
ZXJ2ZXIxJTAjBgkqhkiG9w0BCQEWFjEwMl9PT1RZQ0FAdGVzdF9jYS5jb20xDzAN
BgNVBAoTBkNJVFJJWDCCASIwDQYJKoZIhvcNAQEBBQADggEPADCCAQoCggEBAL6V
cTNRjBXmzOoSYWRekc/3FL6pAsRNmZTaJKBpCd0RuQqQFulaLolYNEJHjI9S7kIB
hfxlUFPyd+NlhYEs+eOLGVBUhx35P2USQ5Y8wZiKu04oNgoa/Whgjw2jXt2+Q8kY
0/dSPKnOCTglIFhtx5/7rzye6cWyjMSOEyEFm2HFhIOLwPDLqnRAaL+tSRD2ljtf
lasO2fN1sCM8vZSMjKpS5EN7z56I6IMccgzCUU7wdVx/8K8yVFE2TbRSPzs/ryD4
7/pmIn3RU1uzOEN47QT5pbVmunq255yxYoJy1tFy+UZZcb9nmuNM+98HhTGqNVl2
Pzv9iQo6ASIO/QPXBCMCAwEAAaOCASwwggEoMBEGCWCGSAGG+EIBAQQEAwIGQDAd
BgNVHQ4EFgQUj2qdCG4f/a59VYsm2nxWgRepV7MwgakGA1UdIwSBoTCBnoAUnqCx
/qi4ITATOfLDwahDy11z/LWhe6R5MHcxEjAQBgNVBAMUCU9PVFlDQV9DQTELMAkG
A1UEBhMCSU4xDzANBgNVBAoTBkNJVFJJWDEMMAoGA1UECxMDQU5HMQswCQYDVQQI
EwJLQTEoMCYGCSqGSIb3DQEJARYZT09UWUNBX0NBQE9PVFlDQV9tYWlsLmNvbYIJ
AKrCq3QhCWD/MEgGCCsGAQUFBwEBBDwwOjA4BggrBgEFBQcwAYYsaHR0cDovL09P
VFlDQV9vbmUub2NzcHRlc3QuY29tL3Jlc3BvbmRlcnBhdGgwDQYJKoZIhvcNAQEL
BQADggEBADg+fBuhO38izpJfCjAcLSDVHzVCPR5ci/HFrz0HppJ88CIGd4qvQi0h
5MNFXNetDXFE+vpDglybFMmicgwdgo6jUUwzE2iYTw87AO6n3RkTJ9i5QO4ua8wX
oB9cTc0AA9NkXqvT296sRWUGA5ZvxO0kIMZJxsecz+TZDWa0IqKHc93LHH3Dg1/H
skPbD1xuFq+OVe1nckboygN6Ff8zn52VeElKGZGgTKQfkU2Jvvni9yP/GDXJ7o8F
+UCpLX69BbfBe/+5LRDke+lMXLH/DmcBG+kLEr6zxW7lj/QdTxoGh5fG/ScamEU3
f7ioU5KHv53wXO/z7evaAQjFcvh9wj4=
-----END CERTIFICATE-----
