Certificate:
    Data:
        Version: 3 (0x2)
        Serial Number: 11042563100176 (0xa0b0c0d0e10)
    Signature Algorithm: sha256WithRSAEncryption
        Issuer: CN=SHILLONGCA_CA, C=IN, O=CITRIX, OU=ANG, ST=KA/emailAddress=SHILLONGCA_CA@SHILLONGCA_mail.com
        Validity
            Not Before: Jul  8 04:40:07 2016 GMT
            Not After : Jul  6 04:40:07 2026 GMT
        Subject: ST=KA, C=IN, CN=102_SHILLONGCA_server/emailAddress=102_SHILLONGCA@test_ca.com, O=CITRIX
        Subject Public Key Info:
            Public Key Algorithm: rsaEncryption
                Public-Key: (2048 bit)
                Modulus:
                    00:db:69:6c:39:f2:19:44:a2:44:24:1d:3d:14:b9:
                    d2:74:ff:e6:c8:57:0e:99:d5:15:05:29:a0:b2:fa:
                    67:b0:0b:5b:50:4c:48:a0:51:12:ef:62:32:a3:23:
                    fd:47:41:d7:58:26:31:8b:ec:6f:a1:f8:bc:49:9f:
                    6e:a8:a9:ad:9e:41:e3:73:84:01:5a:cd:15:37:e1:
                    14:8a:5d:10:7e:65:42:50:f8:f7:64:86:94:c4:1b:
                    48:5d:9c:ca:6e:ca:1f:d2:1b:55:da:94:a0:20:fc:
                    19:33:25:7b:ec:95:c1:72:84:e1:53:13:0f:a5:ad:
                    41:fb:0a:dd:c9:5c:40:24:6e:ee:37:d3:76:9c:e0:
                    58:c8:a0:d0:76:69:eb:cf:ff:28:cf:9e:b0:9f:1b:
                    04:16:e2:4d:e7:54:c6:bc:b4:d3:63:1f:7a:61:23:
                    2a:61:c8:7c:87:93:4a:09:1b:1d:1e:2d:d8:3b:ad:
                    43:37:a5:f9:76:c4:53:ef:fc:c0:60:5d:5e:4f:b7:
                    18:47:90:52:ed:b4:77:54:d2:75:5e:61:d8:04:b8:
                    32:06:e0:42:00:cf:36:1c:bc:bc:77:c9:46:57:6b:
                    e9:ad:d3:4d:5f:b6:0b:a0:fe:fd:2d:60:d1:cc:77:
                    f2:79:60:07:c7:50:86:72:b5:bf:a7:f9:35:93:78:
                    92:23
                Exponent: 65537 (0x10001)
        X509v3 extensions:
            Netscape Cert Type: 
                SSL Server
            X509v3 Subject Key Identifier: 
                0C:F7:CD:02:4D:50:54:7B:AF:E4:F4:33:6F:C1:DB:12:74:59:57:63
            X509v3 Authority Key Identifier: 
                keyid:FA:E9:1F:A5:AF:8B:4E:18:FF:EF:B7:EA:8F:FB:98:BC:59:23:81:DF
                DirName:/CN=SHILLONGCA_CA/C=IN/O=CITRIX/OU=ANG/ST=KA/emailAddress=SHILLONGCA_CA@SHILLONGCA_mail.com
                serial:FB:D0:92:FD:A2:7C:35:0C

            Authority Information Access: 
                OCSP - URI:http://SHILLONGCA_one.ocsptest.com/responderpath

    Signature Algorithm: sha256WithRSAEncryption
         4c:4f:a1:e3:36:41:96:a2:06:2f:29:a1:66:50:3a:be:2f:17:
         95:c4:17:7b:65:2b:45:95:db:33:97:30:18:78:7e:1e:da:a0:
         ca:1d:2b:33:92:b3:c2:9d:35:53:3f:23:8b:c3:73:47:ce:41:
         35:67:18:4a:9d:f4:b9:2f:7a:72:33:48:fe:e4:1a:52:fe:07:
         58:26:fc:f8:b4:38:9d:02:64:ae:73:87:55:88:59:6f:18:6d:
         29:ff:38:ed:14:45:60:af:b6:36:42:90:91:97:fe:3c:44:68:
         33:cb:71:2b:92:52:de:f5:f1:7e:bb:d2:e8:a6:4c:3a:33:ef:
         b8:07:01:66:de:1d:e4:e0:73:0e:89:fb:28:eb:d4:79:cf:4d:
         c8:b8:a5:7b:7d:d8:15:02:90:27:80:36:ed:c7:56:8b:e4:e2:
         a5:31:55:05:0c:80:ff:be:ff:a0:08:8c:f3:63:18:dc:ec:0f:
         38:97:32:1a:7e:01:78:4e:58:57:c2:04:f5:aa:5c:db:1e:2a:
         cc:49:35:20:e6:4b:3b:9b:00:d0:af:79:7f:a3:25:82:23:bf:
         e9:ee:80:0b:33:53:bb:4c:34:aa:7a:a1:28:98:d1:74:a7:32:
         22:cd:16:5f:ca:bb:70:30:5e:69:c7:ea:54:18:77:1a:7a:ea:
         68:06:47:b8
-----BEGIN CERTIFICATE-----
MIIEuzCCA6OgAwIBAgIGCgsMDQ4QMA0GCSqGSIb3DQEBCwUAMIGDMRYwFAYDVQQD
FA1TSElMTE9OR0NBX0NBMQswCQYDVQQGEwJJTjEPMA0GA1UEChMGQ0lUUklYMQww
CgYDVQQLEwNBTkcxCzAJBgNVBAgTAktBMTAwLgYJKoZIhvcNAQkBFiFTSElMTE9O
R0NBX0NBQFNISUxMT05HQ0FfbWFpbC5jb20wHhcNMTYwNzA4MDQ0MDA3WhcNMjYw
NzA2MDQ0MDA3WjB2MQswCQYDVQQIEwJLQTELMAkGA1UEBhMCSU4xHjAcBgNVBAMU
FTEwMl9TSElMTE9OR0NBX3NlcnZlcjEpMCcGCSqGSIb3DQEJARYaMTAyX1NISUxM
T05HQ0FAdGVzdF9jYS5jb20xDzANBgNVBAoTBkNJVFJJWDCCASIwDQYJKoZIhvcN
AQEBBQADggEPADCCAQoCggEBANtpbDnyGUSiRCQdPRS50nT/5shXDpnVFQUpoLL6
Z7ALW1BMSKBREu9iMqMj/UdB11gmMYvsb6H4vEmfbqiprZ5B43OEAVrNFTfhFIpd
EH5lQlD492SGlMQbSF2cym7KH9IbVdqUoCD8GTMle+yVwXKE4VMTD6WtQfsK3clc
QCRu7jfTdpzgWMig0HZp68//KM+esJ8bBBbiTedUxry002MfemEjKmHIfIeTSgkb
HR4t2DutQzel+XbEU+/8wGBdXk+3GEeQUu20d1TSdV5h2AS4MgbgQgDPNhy8vHfJ
Rldr6a3TTV+2C6D+/S1g0cx38nlgB8dQhnK1v6f5NZN4kiMCAwEAAaOCAT8wggE7
MBEGCWCGSAGG+EIBAQQEAwIGQDAdBgNVHQ4EFgQUDPfNAk1QVHuv5PQzb8HbEnRZ
V2MwgbgGA1UdIwSBsDCBrYAU+ukfpa+LThj/77fqj/uYvFkjgd+hgYmkgYYwgYMx
FjAUBgNVBAMUDVNISUxMT05HQ0FfQ0ExCzAJBgNVBAYTAklOMQ8wDQYDVQQKEwZD
SVRSSVgxDDAKBgNVBAsTA0FORzELMAkGA1UECBMCS0ExMDAuBgkqhkiG9w0BCQEW
IVNISUxMT05HQ0FfQ0FAU0hJTExPTkdDQV9tYWlsLmNvbYIJAPvQkv2ifDUMMEwG
CCsGAQUFBwEBBEAwPjA8BggrBgEFBQcwAYYwaHR0cDovL1NISUxMT05HQ0Ffb25l
Lm9jc3B0ZXN0LmNvbS9yZXNwb25kZXJwYXRoMA0GCSqGSIb3DQEBCwUAA4IBAQBM
T6HjNkGWogYvKaFmUDq+LxeVxBd7ZStFldszlzAYeH4e2qDKHSszkrPCnTVTPyOL
w3NHzkE1ZxhKnfS5L3pyM0j+5BpS/gdYJvz4tDidAmSuc4dViFlvGG0p/zjtFEVg
r7Y2QpCRl/48RGgzy3ErklLe9fF+u9Lopkw6M++4BwFm3h3k4HMOifso69R5z03I
uKV7fdgVApAngDbtx1aL5OKlMVUFDID/vv+gCIzzYxjc7A84lzIafgF4TlhXwgT1
qlzbHirMSTUg5ks7mwDQr3l/oyWCI7/p7oALM1O7TDSqeqEomNF0pzIizRZfyrtw
MF5px+pUGHcaeupoBke4
-----END CERTIFICATE-----
