Certificate:
    Data:
        Version: 3 (0x2)
        Serial Number: 11042563100177 (0xa0b0c0d0e11)
    Signature Algorithm: sha256WithRSAEncryption
        Issuer: CN=KOCHICA_CA, C=IN, O=CITRIX, OU=ANG, ST=KA/emailAddress=KOCHICA_CA@KOCHICA_mail.com
        Validity
            Not Before: Jul  8 04:35:16 2016 GMT
            Not After : Jul  6 04:35:16 2026 GMT
        Subject: ST=KA, C=IN, CN=103_KOCHICA_server/emailAddress=103_KOCHICA@test_ca.com, O=CITRIX
        Subject Public Key Info:
            Public Key Algorithm: rsaEncryption
                Public-Key: (2048 bit)
                Modulus:
                    00:bd:a8:82:af:9f:ff:b4:30:5d:ef:d1:da:b5:1f:
                    0c:00:11:b0:bd:61:c4:70:2d:b6:8a:90:4f:4d:9d:
                    ed:26:7d:b7:46:0b:46:d8:a9:9a:cb:6c:1d:bd:6d:
                    cf:01:0d:a4:59:2a:ae:d0:b9:87:ea:22:fb:54:2e:
                    39:22:d4:33:65:ff:e9:cd:d2:c9:e9:03:3a:5c:44:
                    e6:8d:7e:27:b9:1e:aa:2d:13:3b:63:da:c4:99:c6:
                    51:62:b8:66:fa:6d:3f:63:e4:98:50:85:18:1b:d4:
                    3f:22:05:b3:c7:d9:23:6f:dc:36:3c:9e:6c:a3:2b:
                    52:43:ba:f1:ac:0d:2e:0c:82:55:08:21:25:6b:b9:
                    a3:dd:4c:1e:47:91:ff:b8:04:80:e1:c2:fa:f4:2d:
                    e3:98:77:6b:fa:8d:78:c4:ca:e8:c7:e3:da:ae:ee:
                    fd:7a:ce:36:69:91:f1:1d:3f:24:52:2c:28:aa:0c:
                    49:22:48:f3:1f:ec:db:e0:4c:db:1c:47:e3:f5:9f:
                    56:3a:90:0b:89:5f:0b:81:44:53:9b:21:ec:72:3a:
                    6a:bb:ee:67:ab:71:c1:89:c5:85:2a:e3:39:18:92:
                    58:e9:1d:39:28:3c:66:f0:d0:80:2c:2c:c1:4c:6d:
                    cd:81:10:55:07:38:01:2b:b4:62:87:2b:fb:7a:59:
                    1d:f3
                Exponent: 65537 (0x10001)
        X509v3 extensions:
            Netscape Cert Type: 
                SSL Server
            X509v3 Subject Key Identifier: 
                E1:1A:44:65:CD:9F:EB:E2:63:5F:EC:12:F4:A9:AB:24:F0:F3:11:F1
            X509v3 Authority Key Identifier: 
                keyid:BD:BB:95:76:5C:F9:2D:21:29:42:22:FD:91:AF:B8:39:24:AA:7E:37
                DirName:/CN=KOCHICA_CA/C=IN/O=CITRIX/OU=ANG/ST=KA/emailAddress=KOCHICA_CA@KOCHICA_mail.com
                serial:E1:10:ED:B2:3C:3D:E3:71

            Authority Information Access: 
                OCSP - URI:http://KOCHICA_one.ocsptest.com/responderpath

    Signature Algorithm: sha256WithRSAEncryption
         a6:a3:93:51:92:ce:10:58:74:73:8c:36:f7:08:15:e1:06:3f:
         14:ee:16:2b:59:bc:bf:cd:38:2f:43:7e:8b:c2:f9:a0:a8:c5:
         68:91:12:b1:79:5e:0b:7e:c3:61:60:34:8e:ab:de:87:4c:a2:
         1e:8e:c2:1c:a7:29:8d:69:ad:59:b3:58:74:63:33:2b:99:6e:
         c6:a7:01:1a:1e:e4:06:5a:b9:81:00:62:5f:a0:03:27:af:73:
         d0:30:95:43:4d:d1:8c:1c:ac:92:fc:ff:1c:0a:17:49:00:90:
         07:02:d6:90:54:a1:53:92:f6:ff:4f:f6:32:1e:f8:72:4b:af:
         1e:36:80:f1:3c:f5:b4:bc:1f:ae:14:d7:a5:77:af:9e:cf:a3:
         b8:31:1b:8c:3e:e8:e1:b8:0a:4e:57:6e:1a:8f:31:e0:d5:db:
         a5:63:f7:76:ca:7f:a1:3b:f0:6c:0f:ba:30:70:16:eb:70:6d:
         0a:6a:e9:8f:2b:c9:38:c1:be:e6:c6:07:f6:cf:b6:16:6c:c9:
         f4:46:0c:8f:9f:58:fe:cf:38:30:a3:10:c0:e3:dd:47:73:ee:
         3a:ef:dd:0d:6a:5f:ca:57:94:c6:38:f9:bc:da:2b:cd:ec:72:
         22:0e:dc:b6:99:72:89:63:d5:5d:76:03:30:1c:4a:15:c9:8e:
         01:95:c9:5e
-----BEGIN CERTIFICATE-----
MIIEnDCCA4SgAwIBAgIGCgsMDQ4RMA0GCSqGSIb3DQEBCwUAMHoxEzARBgNVBAMU
CktPQ0hJQ0FfQ0ExCzAJBgNVBAYTAklOMQ8wDQYDVQQKEwZDSVRSSVgxDDAKBgNV
BAsTA0FORzELMAkGA1UECBMCS0ExKjAoBgkqhkiG9w0BCQEWG0tPQ0hJQ0FfQ0FA
S09DSElDQV9tYWlsLmNvbTAeFw0xNjA3MDgwNDM1MTZaFw0yNjA3MDYwNDM1MTZa
MHAxCzAJBgNVBAgTAktBMQswCQYDVQQGEwJJTjEbMBkGA1UEAxQSMTAzX0tPQ0hJ
Q0Ffc2VydmVyMSYwJAYJKoZIhvcNAQkBFhcxMDNfS09DSElDQUB0ZXN0X2NhLmNv
bTEPMA0GA1UEChMGQ0lUUklYMIIBIjANBgkqhkiG9w0BAQEFAAOCAQ8AMIIBCgKC
AQEAvaiCr5//tDBd79HatR8MABGwvWHEcC22ipBPTZ3tJn23RgtG2Kmay2wdvW3P
AQ2kWSqu0LmH6iL7VC45ItQzZf/pzdLJ6QM6XETmjX4nuR6qLRM7Y9rEmcZRYrhm
+m0/Y+SYUIUYG9Q/IgWzx9kjb9w2PJ5soytSQ7rxrA0uDIJVCCEla7mj3UweR5H/
uASA4cL69C3jmHdr+o14xMrox+Paru79es42aZHxHT8kUiwoqgxJIkjzH+zb4Ezb
HEfj9Z9WOpALiV8LgURTmyHscjpqu+5nq3HBicWFKuM5GJJY6R05KDxm8NCALCzB
TG3NgRBVBzgBK7Rihyv7elkd8wIDAQABo4IBMDCCASwwEQYJYIZIAYb4QgEBBAQD
AgZAMB0GA1UdDgQWBBThGkRlzZ/r4mNf7BL0qask8PMR8TCBrAYDVR0jBIGkMIGh
gBS9u5V2XPktISlCIv2Rr7g5JKp+N6F+pHwwejETMBEGA1UEAxQKS09DSElDQV9D
QTELMAkGA1UEBhMCSU4xDzANBgNVBAoTBkNJVFJJWDEMMAoGA1UECxMDQU5HMQsw
CQYDVQQIEwJLQTEqMCgGCSqGSIb3DQEJARYbS09DSElDQV9DQUBLT0NISUNBX21h
aWwuY29tggkA4RDtsjw943EwSQYIKwYBBQUHAQEEPTA7MDkGCCsGAQUFBzABhi1o
dHRwOi8vS09DSElDQV9vbmUub2NzcHRlc3QuY29tL3Jlc3BvbmRlcnBhdGgwDQYJ
KoZIhvcNAQELBQADggEBAKajk1GSzhBYdHOMNvcIFeEGPxTuFitZvL/NOC9DfovC
+aCoxWiRErF5Xgt+w2FgNI6r3odMoh6OwhynKY1prVmzWHRjMyuZbsanARoe5AZa
uYEAYl+gAyevc9AwlUNN0YwcrJL8/xwKF0kAkAcC1pBUoVOS9v9P9jIe+HJLrx42
gPE89bS8H64U16V3r57Po7gxG4w+6OG4Ck5XbhqPMeDV26Vj93bKf6E78GwPujBw
FutwbQpq6Y8ryTjBvubGB/bPthZsyfRGDI+fWP7PODCjEMDj3Udz7jrv3Q1qX8pX
lMY4+bzaK83sciIO3LaZcolj1V12AzAcShXJjgGVyV4=
-----END CERTIFICATE-----
