Certificate:
    Data:
        Version: 3 (0x2)
        Serial Number: 11042563100177 (0xa0b0c0d0e11)
    Signature Algorithm: sha256WithRSAEncryption
        Issuer: CN=GOACA_CA, C=IN, O=CITRIX, OU=ANG, ST=KA/emailAddress=GOACA_CA@GOACA_mail.com
        Validity
            Not Before: Jul  8 04:34:53 2016 GMT
            Not After : Jul  6 04:34:53 2026 GMT
        Subject: ST=KA, C=IN, CN=103_GOACA_server/emailAddress=103_GOACA@test_ca.com, O=CITRIX
        Subject Public Key Info:
            Public Key Algorithm: rsaEncryption
                Public-Key: (2048 bit)
                Modulus:
                    00:b4:92:7b:91:fa:c4:52:f1:0f:16:ee:bd:8b:f9:
                    cf:c1:ae:e6:91:8d:a8:a9:ca:cb:12:5f:d1:c9:0a:
                    6f:1c:dc:7a:cf:82:85:58:ce:63:66:69:33:9b:85:
                    1d:01:8a:5f:e5:cb:89:12:2d:f9:a4:08:95:5f:17:
                    72:53:be:93:0c:da:f2:ba:38:86:68:8c:87:2a:1b:
                    18:70:fc:7b:ad:d7:38:be:49:ca:73:fe:b5:6b:2f:
                    0d:a3:48:8d:b1:ac:8a:db:6a:bb:63:8c:e9:04:a8:
                    2f:5a:a6:61:85:30:e0:a9:da:5a:7b:74:69:cc:90:
                    ab:7f:3d:da:ec:6c:20:5d:2d:94:ee:fd:e0:87:83:
                    d4:64:6f:cf:b5:ac:d2:de:a9:51:ed:40:e6:48:46:
                    2a:aa:93:12:f3:00:94:9d:51:f1:3e:c3:1a:44:91:
                    c0:4d:42:ba:8f:3a:0f:02:41:fb:ff:de:0c:94:5c:
                    45:8d:95:14:30:b2:7e:dc:a1:be:9e:b7:9c:32:bb:
                    ea:81:5f:5b:ed:09:91:2d:7c:a0:3d:15:1a:08:fb:
                    09:98:0e:0d:91:5d:7f:aa:db:1c:52:17:c3:cf:e7:
                    a3:6c:93:27:62:d2:65:19:80:e6:b7:84:0c:a7:8f:
                    47:c0:aa:e6:e9:fc:37:ee:e2:10:fe:08:b2:a5:0a:
                    8b:79
                Exponent: 65537 (0x10001)
        X509v3 extensions:
            Netscape Cert Type: 
                SSL Server
            X509v3 Subject Key Identifier: 
                43:B7:9B:9F:06:44:93:AA:70:14:9E:BA:ED:78:82:0B:D1:02:3D:BA
            X509v3 Authority Key Identifier: 
                keyid:81:03:00:D4:DC:70:D9:A7:03:08:1E:DC:9B:4C:AC:E6:59:CD:39:68
                DirName:/CN=GOACA_CA/C=IN/O=CITRIX/OU=ANG/ST=KA/emailAddress=GOACA_CA@GOACA_mail.com
                serial:FC:8B:0A:90:01:17:5F:1C

            Authority Information Access: 
                OCSP - URI:http://GOACA_one.ocsptest.com/responderpath

    Signature Algorithm: sha256WithRSAEncryption
         9e:37:4a:45:17:55:f8:de:9b:5a:53:e3:3f:a2:3f:cb:3e:97:
         60:01:b9:2f:11:01:fa:66:0e:b1:83:7e:4e:6e:07:00:1d:89:
         be:af:2d:3a:6d:84:c0:15:ec:1d:05:6d:72:a6:64:27:73:ef:
         4d:cb:05:b8:5c:f4:e8:61:d4:13:88:8d:02:cd:f9:25:68:0b:
         5b:f9:ee:4b:ea:c2:99:92:32:ec:57:80:e3:a9:36:de:af:9a:
         31:bd:2b:b3:a4:7c:66:ae:c0:71:68:44:ce:4b:dd:ff:fc:b5:
         75:72:14:6c:6f:0d:8e:88:f6:c2:58:18:c6:13:e4:cb:9b:8b:
         48:01:99:65:cb:e4:61:65:14:52:5b:1f:29:3e:45:e7:b6:15:
         2d:56:d6:0f:67:e4:b3:6d:5e:a3:5d:e6:46:f7:59:9a:1a:d4:
         52:e4:b7:70:dc:bc:87:d5:a5:f6:85:62:52:aa:fc:4f:90:d6:
         e9:1e:89:bc:98:a5:cc:d8:9f:ca:02:dd:1a:27:4c:46:ce:8e:
         ef:ed:79:d1:89:40:02:50:d2:ff:b7:a3:a1:48:d3:a7:14:bf:
         20:69:ec:0e:7a:df:4d:84:44:ac:78:76:d3:41:5f:c9:1a:57:
         4b:a2:b7:20:98:03:41:48:b4:ba:32:59:9f:16:b8:a8:d6:1a:
         21:a2:c6:63
-----BEGIN CERTIFICATE-----
MIIEijCCA3KgAwIBAgIGCgsMDQ4RMA0GCSqGSIb3DQEBCwUAMHQxETAPBgNVBAMU
CEdPQUNBX0NBMQswCQYDVQQGEwJJTjEPMA0GA1UEChMGQ0lUUklYMQwwCgYDVQQL
EwNBTkcxCzAJBgNVBAgTAktBMSYwJAYJKoZIhvcNAQkBFhdHT0FDQV9DQUBHT0FD
QV9tYWlsLmNvbTAeFw0xNjA3MDgwNDM0NTNaFw0yNjA3MDYwNDM0NTNaMGwxCzAJ
BgNVBAgTAktBMQswCQYDVQQGEwJJTjEZMBcGA1UEAxQQMTAzX0dPQUNBX3NlcnZl
cjEkMCIGCSqGSIb3DQEJARYVMTAzX0dPQUNBQHRlc3RfY2EuY29tMQ8wDQYDVQQK
EwZDSVRSSVgwggEiMA0GCSqGSIb3DQEBAQUAA4IBDwAwggEKAoIBAQC0knuR+sRS
8Q8W7r2L+c/BruaRjaipyssSX9HJCm8c3HrPgoVYzmNmaTObhR0Bil/ly4kSLfmk
CJVfF3JTvpMM2vK6OIZojIcqGxhw/Hut1zi+Scpz/rVrLw2jSI2xrIrbartjjOkE
qC9apmGFMOCp2lp7dGnMkKt/PdrsbCBdLZTu/eCHg9Rkb8+1rNLeqVHtQOZIRiqq
kxLzAJSdUfE+wxpEkcBNQrqPOg8CQfv/3gyUXEWNlRQwsn7cob6et5wyu+qBX1vt
CZEtfKA9FRoI+wmYDg2RXX+q2xxSF8PP56Nskydi0mUZgOa3hAynj0fAqubp/Dfu
4hD+CLKlCot5AgMBAAGjggEoMIIBJDARBglghkgBhvhCAQEEBAMCBkAwHQYDVR0O
BBYEFEO3m58GRJOqcBSeuu14ggvRAj26MIGmBgNVHSMEgZ4wgZuAFIEDANTccNmn
Awge3JtMrOZZzTlooXikdjB0MREwDwYDVQQDFAhHT0FDQV9DQTELMAkGA1UEBhMC
SU4xDzANBgNVBAoTBkNJVFJJWDEMMAoGA1UECxMDQU5HMQswCQYDVQQIEwJLQTEm
MCQGCSqGSIb3DQEJARYXR09BQ0FfQ0FAR09BQ0FfbWFpbC5jb22CCQD8iwqQARdf
HDBHBggrBgEFBQcBAQQ7MDkwNwYIKwYBBQUHMAGGK2h0dHA6Ly9HT0FDQV9vbmUu
b2NzcHRlc3QuY29tL3Jlc3BvbmRlcnBhdGgwDQYJKoZIhvcNAQELBQADggEBAJ43
SkUXVfjem1pT4z+iP8s+l2ABuS8RAfpmDrGDfk5uBwAdib6vLTpthMAV7B0FbXKm
ZCdz703LBbhc9Ohh1BOIjQLN+SVoC1v57kvqwpmSMuxXgOOpNt6vmjG9K7OkfGau
wHFoRM5L3f/8tXVyFGxvDY6I9sJYGMYT5Mubi0gBmWXL5GFlFFJbHyk+Ree2FS1W
1g9n5LNtXqNd5kb3WZoa1FLkt3DcvIfVpfaFYlKq/E+Q1ukeibyYpczYn8oC3Ron
TEbOju/tedGJQAJQ0v+3o6FI06cUvyBp7A56302ERKx4dtNBX8kaV0uityCYA0FI
tLoyWZ8WuKjWGiGixmM=
-----END CERTIFICATE-----
