Certificate:
    Data:
        Version: 3 (0x2)
        Serial Number: 11042563100177 (0xa0b0c0d0e11)
    Signature Algorithm: sha256WithRSAEncryption
        Issuer: CN=CALCUTTACA_CA, C=IN, O=CITRIX, OU=ANG, ST=KA/emailAddress=CALCUTTACA_CA@CALCUTTACA_mail.com
        Validity
            Not Before: Jul  8 04:33:03 2016 GMT
            Not After : Jul  6 04:33:03 2026 GMT
        Subject: ST=KA, C=IN, CN=103_CALCUTTACA_server/emailAddress=103_CALCUTTACA@test_ca.com, O=CITRIX
        Subject Public Key Info:
            Public Key Algorithm: rsaEncryption
                Public-Key: (2048 bit)
                Modulus:
                    00:97:80:25:8c:ab:c0:4a:4d:ca:de:c0:23:c3:2a:
                    69:0d:86:87:58:53:cf:ef:ae:d0:d1:d5:5e:44:af:
                    32:7a:1c:da:c1:61:6e:9b:48:42:47:ef:5b:c5:46:
                    88:d7:e4:6f:4c:9e:fc:93:64:2b:be:1b:31:d4:0d:
                    5a:a3:0b:73:44:d4:47:71:f0:bf:6a:ec:40:7a:77:
                    a0:d0:57:7d:85:1a:af:f9:24:fa:0b:b1:ae:f8:0f:
                    ae:55:df:a6:7d:6a:5f:cf:55:a8:68:9f:00:80:c6:
                    5d:70:be:b4:27:af:31:e0:d5:35:01:6d:17:d7:7e:
                    b0:1d:ef:3d:70:ce:70:88:b0:ab:39:bc:3e:b4:e5:
                    6c:a3:7e:4b:35:7d:d8:9d:35:68:34:90:dd:45:77:
                    69:c8:33:56:6f:20:24:3e:ee:4d:56:31:6b:fa:ad:
                    df:25:d6:31:7e:78:ff:ca:bd:c4:56:2a:42:d8:99:
                    b6:1d:21:29:bb:81:d2:46:b0:a6:33:41:00:86:c8:
                    69:12:5e:66:c9:cd:df:97:94:4e:9f:17:4b:33:8a:
                    a4:17:9b:bf:40:bc:cc:b7:48:a1:07:fa:3b:c9:8d:
                    eb:cb:3a:a5:6f:e9:1a:30:7d:20:3e:be:42:26:e9:
                    75:fa:5d:9f:bf:7d:a3:8a:9f:cd:b2:db:51:82:6e:
                    66:6f
                Exponent: 65537 (0x10001)
        X509v3 extensions:
            Netscape Cert Type: 
                SSL Server
            X509v3 Subject Key Identifier: 
                54:2A:84:35:0F:20:B8:DB:31:45:79:30:FB:B7:04:EC:DE:81:F3:B6
            X509v3 Authority Key Identifier: 
                keyid:37:2E:7B:27:46:4B:CF:47:10:AC:2B:2E:BA:D0:F3:66:75:EB:52:75
                DirName:/CN=CALCUTTACA_CA/C=IN/O=CITRIX/OU=ANG/ST=KA/emailAddress=CALCUTTACA_CA@CALCUTTACA_mail.com
                serial:A5:C6:47:0E:E6:06:37:18

            Authority Information Access: 
                OCSP - URI:http://CALCUTTACA_one.ocsptest.com/responderpath

    Signature Algorithm: sha256WithRSAEncryption
         31:4a:4e:34:ed:5a:59:50:5b:92:e0:13:65:fa:30:0d:73:b5:
         dc:50:44:4a:e5:79:d8:b9:3b:ca:3a:de:b2:78:ab:f9:0d:26:
         16:76:4b:46:4c:60:81:73:6a:10:ae:e7:d3:2f:b9:ee:2e:3c:
         3f:57:45:1d:5d:5d:10:e8:20:ee:08:f1:34:09:27:62:05:40:
         05:8f:23:65:9b:93:c1:90:ed:21:dd:d5:e9:4d:83:f9:91:12:
         8e:5e:bb:26:dd:d4:bd:5a:e2:ed:9d:a9:f3:6f:25:83:98:73:
         4d:93:e0:ef:09:6c:8d:39:0e:82:ad:40:0c:c4:6b:f9:77:40:
         3a:39:a7:14:97:e9:59:84:7c:bb:fe:5b:35:42:63:0a:4a:8a:
         12:12:43:f2:42:a1:46:4e:b2:83:92:4b:48:e9:e1:a6:a3:41:
         15:07:c2:4b:63:ca:96:ac:ae:c2:82:4f:28:3a:87:c8:23:85:
         bc:ab:ac:78:18:4e:f6:3f:3c:ca:7d:a4:48:82:b0:78:16:cf:
         2f:1e:9e:45:b4:a2:73:95:5d:4a:4c:76:b5:7a:f7:aa:2e:cc:
         51:7a:54:fd:8c:dc:51:94:ee:be:5c:43:3e:12:32:f7:39:89:
         c3:de:8c:c8:61:8b:c5:e5:ad:ff:23:e3:07:b0:f6:ad:67:a2:
         a6:78:25:5d
-----BEGIN CERTIFICATE-----
MIIEuzCCA6OgAwIBAgIGCgsMDQ4RMA0GCSqGSIb3DQEBCwUAMIGDMRYwFAYDVQQD
FA1DQUxDVVRUQUNBX0NBMQswCQYDVQQGEwJJTjEPMA0GA1UEChMGQ0lUUklYMQww
CgYDVQQLEwNBTkcxCzAJBgNVBAgTAktBMTAwLgYJKoZIhvcNAQkBFiFDQUxDVVRU
QUNBX0NBQENBTENVVFRBQ0FfbWFpbC5jb20wHhcNMTYwNzA4MDQzMzAzWhcNMjYw
NzA2MDQzMzAzWjB2MQswCQYDVQQIEwJLQTELMAkGA1UEBhMCSU4xHjAcBgNVBAMU
FTEwM19DQUxDVVRUQUNBX3NlcnZlcjEpMCcGCSqGSIb3DQEJARYaMTAzX0NBTENV
VFRBQ0FAdGVzdF9jYS5jb20xDzANBgNVBAoTBkNJVFJJWDCCASIwDQYJKoZIhvcN
AQEBBQADggEPADCCAQoCggEBAJeAJYyrwEpNyt7AI8MqaQ2Gh1hTz++u0NHVXkSv
Mnoc2sFhbptIQkfvW8VGiNfkb0ye/JNkK74bMdQNWqMLc0TUR3Hwv2rsQHp3oNBX
fYUar/kk+guxrvgPrlXfpn1qX89VqGifAIDGXXC+tCevMeDVNQFtF9d+sB3vPXDO
cIiwqzm8PrTlbKN+SzV92J01aDSQ3UV3acgzVm8gJD7uTVYxa/qt3yXWMX54/8q9
xFYqQtiZth0hKbuB0kawpjNBAIbIaRJeZsnN35eUTp8XSzOKpBebv0C8zLdIoQf6
O8mN68s6pW/pGjB9ID6+Qibpdfpdn799o4qfzbLbUYJuZm8CAwEAAaOCAT8wggE7
MBEGCWCGSAGG+EIBAQQEAwIGQDAdBgNVHQ4EFgQUVCqENQ8guNsxRXkw+7cE7N6B
87YwgbgGA1UdIwSBsDCBrYAUNy57J0ZLz0cQrCsuutDzZnXrUnWhgYmkgYYwgYMx
FjAUBgNVBAMUDUNBTENVVFRBQ0FfQ0ExCzAJBgNVBAYTAklOMQ8wDQYDVQQKEwZD
SVRSSVgxDDAKBgNVBAsTA0FORzELMAkGA1UECBMCS0ExMDAuBgkqhkiG9w0BCQEW
IUNBTENVVFRBQ0FfQ0FAQ0FMQ1VUVEFDQV9tYWlsLmNvbYIJAKXGRw7mBjcYMEwG
CCsGAQUFBwEBBEAwPjA8BggrBgEFBQcwAYYwaHR0cDovL0NBTENVVFRBQ0Ffb25l
Lm9jc3B0ZXN0LmNvbS9yZXNwb25kZXJwYXRoMA0GCSqGSIb3DQEBCwUAA4IBAQAx
Sk407VpZUFuS4BNl+jANc7XcUERK5XnYuTvKOt6yeKv5DSYWdktGTGCBc2oQrufT
L7nuLjw/V0UdXV0Q6CDuCPE0CSdiBUAFjyNlm5PBkO0h3dXpTYP5kRKOXrsm3dS9
WuLtnanzbyWDmHNNk+DvCWyNOQ6CrUAMxGv5d0A6OacUl+lZhHy7/ls1QmMKSooS
EkPyQqFGTrKDkktI6eGmo0EVB8JLY8qWrK7Cgk8oOofII4W8q6x4GE72PzzKfaRI
grB4Fs8vHp5FtKJzlV1KTHa1eveqLsxRelT9jNxRlO6+XEM+EjL3OYnD3ozIYYvF
5a3/I+MHsPatZ6KmeCVd
-----END CERTIFICATE-----
