Certificate:
    Data:
        Version: 3 (0x2)
        Serial Number: 11042563100177 (0xa0b0c0d0e11)
    Signature Algorithm: sha256WithRSAEncryption
        Issuer: CN=OOTYCA_CA, C=IN, O=CITRIX, OU=ANG, ST=KA/emailAddress=OOTYCA_CA@OOTYCA_mail.com
        Validity
            Not Before: Jul  8 04:37:03 2016 GMT
            Not After : Jul  6 04:37:03 2026 GMT
        Subject: ST=KA, C=IN, CN=103_OOTYCA_server/emailAddress=103_OOTYCA@test_ca.com, O=CITRIX
        Subject Public Key Info:
            Public Key Algorithm: rsaEncryption
                Public-Key: (2048 bit)
                Modulus:
                    00:fb:31:02:9e:6b:24:25:81:02:1a:de:88:3e:c6:
                    c6:d9:b1:ee:58:78:34:27:58:fb:9f:ab:8e:ea:87:
                    16:6e:71:22:33:e3:6c:f0:18:df:73:a2:2c:4f:d5:
                    24:db:11:71:2f:bc:90:c8:02:ce:39:04:3b:00:92:
                    51:90:02:aa:c7:83:6e:6a:4c:fb:a8:20:1e:04:0e:
                    01:eb:f1:65:9b:d0:14:ec:ef:5a:12:15:1d:b4:f6:
                    6b:93:32:f0:cb:18:ae:01:29:3f:db:69:1a:e3:72:
                    72:73:0a:58:b4:82:01:11:16:8c:ce:36:63:7f:96:
                    f5:43:6d:6f:1f:e5:8d:b9:37:1c:4c:0e:90:cd:48:
                    24:1f:43:02:54:05:7f:9f:bf:17:c3:ba:98:bc:78:
                    85:51:32:9e:73:08:54:9d:bc:7e:00:55:69:45:d6:
                    f3:6b:d6:a8:99:87:88:82:65:c8:c4:f8:3a:09:de:
                    52:1a:23:98:82:a1:0b:a8:a2:97:67:19:d9:e0:2d:
                    0a:6a:84:14:19:8d:0c:6b:da:0d:fd:4e:34:2d:49:
                    27:77:42:d3:18:69:08:4d:19:44:78:1d:29:b1:6f:
                    d3:a0:2a:89:73:44:5a:33:39:d4:67:dd:38:9e:b2:
                    ef:fe:4e:c1:f5:54:7a:7b:b3:72:5d:ad:96:5b:7b:
                    31:97
                Exponent: 65537 (0x10001)
        X509v3 extensions:
            Netscape Cert Type: 
                SSL Server
            X509v3 Subject Key Identifier: 
                2E:70:63:30:CE:A5:B5:79:5A:BE:61:C8:D4:C9:6A:B1:AA:2F:E2:76
            X509v3 Authority Key Identifier: 
                keyid:9E:A0:B1:FE:A8:B8:21:30:13:39:F2:C3:C1:A8:43:CB:5D:73:FC:B5
                DirName:/CN=OOTYCA_CA/C=IN/O=CITRIX/OU=ANG/ST=KA/emailAddress=OOTYCA_CA@OOTYCA_mail.com
                serial:AA:C2:AB:74:21:09:60:FF

            Authority Information Access: 
                OCSP - URI:http://OOTYCA_one.ocsptest.com/responderpath

    Signature Algorithm: sha256WithRSAEncryption
         95:be:5e:3d:75:a3:36:36:ea:44:e3:ed:2c:33:68:34:dc:b0:
         77:7d:e6:b3:b4:19:00:a1:23:d7:a7:c4:04:3e:a4:e9:48:bf:
         ae:98:30:79:ed:0e:19:7e:88:57:21:97:2d:90:84:da:ae:3e:
         b1:12:40:68:dc:7b:67:76:ca:9b:bb:e0:25:3e:4d:6c:86:cf:
         50:e0:98:1e:78:65:1a:6d:98:49:c3:93:cc:19:21:a0:c1:1f:
         a9:43:f5:14:60:1e:5a:be:cd:46:c9:8d:55:a3:97:22:1b:59:
         a0:54:b7:32:28:cb:c5:99:ff:05:8c:56:a3:e6:2c:04:84:b1:
         72:0b:32:2a:28:54:e4:7c:b7:ce:bd:06:e3:6a:25:2d:47:ca:
         5c:48:9f:ae:bd:41:10:84:5a:73:71:22:aa:99:0b:68:7b:01:
         bb:4c:8c:89:00:f5:71:c6:d7:8b:63:bc:97:42:9b:a6:6f:10:
         a5:33:27:7f:4f:57:e4:21:77:91:1a:b9:fe:e3:90:29:21:5e:
         7a:25:e9:4c:36:db:24:00:94:92:9f:4f:ba:65:17:cc:cb:fc:
         46:4b:19:18:63:d5:4e:95:31:85:54:5b:42:73:a0:00:30:f4:
         b6:41:97:53:5a:63:fd:43:07:cf:d4:d2:de:51:5b:cb:85:5a:
         8b:ce:6a:9a
-----BEGIN CERTIFICATE-----
MIIEkzCCA3ugAwIBAgIGCgsMDQ4RMA0GCSqGSIb3DQEBCwUAMHcxEjAQBgNVBAMU
CU9PVFlDQV9DQTELMAkGA1UEBhMCSU4xDzANBgNVBAoTBkNJVFJJWDEMMAoGA1UE
CxMDQU5HMQswCQYDVQQIEwJLQTEoMCYGCSqGSIb3DQEJARYZT09UWUNBX0NBQE9P
VFlDQV9tYWlsLmNvbTAeFw0xNjA3MDgwNDM3MDNaFw0yNjA3MDYwNDM3MDNaMG4x
CzAJBgNVBAgTAktBMQswCQYDVQQGEwJJTjEaMBgGA1UEAxQRMTAzX09PVFlDQV9z
ZXJ2ZXIxJTAjBgkqhkiG9w0BCQEWFjEwM19PT1RZQ0FAdGVzdF9jYS5jb20xDzAN
BgNVBAoTBkNJVFJJWDCCASIwDQYJKoZIhvcNAQEBBQADggEPADCCAQoCggEBAPsx
Ap5rJCWBAhreiD7Gxtmx7lh4NCdY+5+rjuqHFm5xIjPjbPAY33OiLE/VJNsRcS+8
kMgCzjkEOwCSUZACqseDbmpM+6ggHgQOAevxZZvQFOzvWhIVHbT2a5My8MsYrgEp
P9tpGuNycnMKWLSCAREWjM42Y3+W9UNtbx/ljbk3HEwOkM1IJB9DAlQFf5+/F8O6
mLx4hVEynnMIVJ28fgBVaUXW82vWqJmHiIJlyMT4OgneUhojmIKhC6iil2cZ2eAt
CmqEFBmNDGvaDf1ONC1JJ3dC0xhpCE0ZRHgdKbFv06AqiXNEWjM51GfdOJ6y7/5O
wfVUenuzcl2tllt7MZcCAwEAAaOCASwwggEoMBEGCWCGSAGG+EIBAQQEAwIGQDAd
BgNVHQ4EFgQULnBjMM6ltXlavmHI1Mlqsaov4nYwgakGA1UdIwSBoTCBnoAUnqCx
/qi4ITATOfLDwahDy11z/LWhe6R5MHcxEjAQBgNVBAMUCU9PVFlDQV9DQTELMAkG
A1UEBhMCSU4xDzANBgNVBAoTBkNJVFJJWDEMMAoGA1UECxMDQU5HMQswCQYDVQQI
EwJLQTEoMCYGCSqGSIb3DQEJARYZT09UWUNBX0NBQE9PVFlDQV9tYWlsLmNvbYIJ
AKrCq3QhCWD/MEgGCCsGAQUFBwEBBDwwOjA4BggrBgEFBQcwAYYsaHR0cDovL09P
VFlDQV9vbmUub2NzcHRlc3QuY29tL3Jlc3BvbmRlcnBhdGgwDQYJKoZIhvcNAQEL
BQADggEBAJW+Xj11ozY26kTj7SwzaDTcsHd95rO0GQChI9enxAQ+pOlIv66YMHnt
Dhl+iFchly2QhNquPrESQGjce2d2ypu74CU+TWyGz1DgmB54ZRptmEnDk8wZIaDB
H6lD9RRgHlq+zUbJjVWjlyIbWaBUtzIoy8WZ/wWMVqPmLASEsXILMiooVOR8t869
BuNqJS1HylxIn669QRCEWnNxIqqZC2h7AbtMjIkA9XHG14tjvJdCm6ZvEKUzJ39P
V+Qhd5Eauf7jkCkhXnol6Uw22yQAlJKfT7plF8zL/EZLGRhj1U6VMYVUW0JzoAAw
9LZBl1NaY/1DB8/U0t5RW8uFWovOapo=
-----END CERTIFICATE-----
