Certificate:
    Data:
        Version: 3 (0x2)
        Serial Number: 11042563100177 (0xa0b0c0d0e11)
    Signature Algorithm: sha256WithRSAEncryption
        Issuer: CN=BHOPALCA_CA, C=IN, O=CITRIX, OU=ANG, ST=KA/emailAddress=BHOPALCA_CA@BHOPALCA_mail.com
        Validity
            Not Before: Jul  8 04:32:33 2016 GMT
            Not After : Jul  6 04:32:33 2026 GMT
        Subject: ST=KA, C=IN, CN=103_BHOPALCA_server/emailAddress=103_BHOPALCA@test_ca.com, O=CITRIX
        Subject Public Key Info:
            Public Key Algorithm: rsaEncryption
                Public-Key: (2048 bit)
                Modulus:
                    00:c9:2d:b7:e2:65:fb:57:14:4e:c7:af:56:c1:20:
                    6e:00:95:55:dd:04:fc:99:ee:46:57:15:f2:87:60:
                    1f:e0:52:31:19:8f:a4:6b:f8:f2:66:10:73:95:9a:
                    3d:18:21:bc:94:46:7b:bf:55:02:df:4c:31:4c:9b:
                    04:81:a0:e1:c8:8e:cf:57:99:d2:c3:94:2a:3c:ae:
                    94:18:c6:66:5b:c6:40:bf:55:42:77:2e:44:7c:f2:
                    94:60:27:94:1a:99:40:de:76:77:ff:30:77:a9:cb:
                    7a:81:5f:b9:9a:96:af:77:4a:c9:6b:fb:61:15:f0:
                    f3:04:5c:18:33:82:be:06:08:92:3b:df:1d:f1:19:
                    29:d7:7c:41:fc:51:34:f8:d8:b6:b2:1b:aa:23:31:
                    2c:35:b9:1c:91:3c:28:03:82:0d:b9:cc:e0:4d:df:
                    83:0a:67:bb:24:ce:0f:46:8b:27:e6:10:d2:25:79:
                    50:31:7b:1b:82:0c:f6:41:b2:6e:20:d0:e9:67:2f:
                    eb:93:dc:db:f5:70:90:70:f2:03:bc:be:be:c1:7c:
                    8d:9d:f8:58:47:4e:7f:f7:9e:bc:60:fc:59:63:94:
                    e0:ca:19:15:a8:59:92:e0:31:c4:11:4d:f2:50:29:
                    50:e4:89:8c:d5:e1:e2:8c:71:e6:ff:d1:2c:cb:3c:
                    1b:d7
                Exponent: 65537 (0x10001)
        X509v3 extensions:
            Netscape Cert Type: 
                SSL Server
            X509v3 Subject Key Identifier: 
                E5:62:F7:54:E6:BC:A5:8E:31:5A:5A:56:9C:F2:72:81:10:3A:DB:B6
            X509v3 Authority Key Identifier: 
                keyid:A6:66:0E:59:0F:3C:5C:11:35:B2:B3:99:59:A9:D3:A6:B1:5E:95:D2
                DirName:/CN=BHOPALCA_CA/C=IN/O=CITRIX/OU=ANG/ST=KA/emailAddress=BHOPALCA_CA@BHOPALCA_mail.com
                serial:BE:89:55:F3:65:28:17:9A

            Authority Information Access: 
                OCSP - URI:http://BHOPALCA_one.ocsptest.com/responderpath

    Signature Algorithm: sha256WithRSAEncryption
         1c:4f:eb:79:8a:5e:35:1a:6a:b6:a9:be:e7:c5:d5:b5:a3:15:
         ca:fc:0e:ef:a1:01:25:31:2a:ed:8a:df:d6:7e:18:bf:b2:4e:
         a1:ac:ae:2b:71:5d:5b:72:fa:8a:6c:23:40:d1:8d:94:05:61:
         b9:ce:24:d6:46:8d:72:57:3f:5e:67:b6:59:97:ba:72:f4:01:
         5d:41:18:6b:00:74:08:1d:8d:77:74:d0:d8:b4:9f:3a:24:94:
         8f:df:03:e4:18:f5:84:b2:23:9e:ff:26:89:9f:c0:ff:12:d9:
         1d:43:55:be:25:75:10:50:2d:13:02:f1:53:bd:24:f5:60:56:
         85:8a:45:69:09:16:ef:6d:3a:f7:ff:41:4b:95:47:46:38:04:
         7a:a6:41:b5:7b:53:56:83:d9:d1:60:8a:7b:2b:7f:d0:5b:2d:
         ea:21:60:65:21:a0:2c:6c:6d:b8:ba:0a:a7:f4:2c:20:b4:4d:
         ae:0f:a8:ca:9c:01:07:68:8c:48:01:40:f5:13:98:88:eb:3e:
         5f:63:d9:db:67:3a:c6:b7:8e:43:0b:85:e4:17:c4:6b:19:3e:
         46:58:70:05:ba:8c:91:c2:3d:1e:ac:3c:14:5f:bb:bb:96:48:
         01:67:9f:db:cb:4b:16:be:5d:86:fe:08:f8:e3:c6:2c:e2:e4:
         4b:67:5a:e0
-----BEGIN CERTIFICATE-----
MIIEpjCCA46gAwIBAgIGCgsMDQ4RMA0GCSqGSIb3DQEBCwUAMH0xFDASBgNVBAMU
C0JIT1BBTENBX0NBMQswCQYDVQQGEwJJTjEPMA0GA1UEChMGQ0lUUklYMQwwCgYD
VQQLEwNBTkcxCzAJBgNVBAgTAktBMSwwKgYJKoZIhvcNAQkBFh1CSE9QQUxDQV9D
QUBCSE9QQUxDQV9tYWlsLmNvbTAeFw0xNjA3MDgwNDMyMzNaFw0yNjA3MDYwNDMy
MzNaMHIxCzAJBgNVBAgTAktBMQswCQYDVQQGEwJJTjEcMBoGA1UEAxQTMTAzX0JI
T1BBTENBX3NlcnZlcjEnMCUGCSqGSIb3DQEJARYYMTAzX0JIT1BBTENBQHRlc3Rf
Y2EuY29tMQ8wDQYDVQQKEwZDSVRSSVgwggEiMA0GCSqGSIb3DQEBAQUAA4IBDwAw
ggEKAoIBAQDJLbfiZftXFE7Hr1bBIG4AlVXdBPyZ7kZXFfKHYB/gUjEZj6Rr+PJm
EHOVmj0YIbyURnu/VQLfTDFMmwSBoOHIjs9XmdLDlCo8rpQYxmZbxkC/VUJ3LkR8
8pRgJ5QamUDednf/MHepy3qBX7malq93Sslr+2EV8PMEXBgzgr4GCJI73x3xGSnX
fEH8UTT42LayG6ojMSw1uRyRPCgDgg25zOBN34MKZ7skzg9GiyfmENIleVAxexuC
DPZBsm4g0OlnL+uT3Nv1cJBw8gO8vr7BfI2d+FhHTn/3nrxg/FljlODKGRWoWZLg
McQRTfJQKVDkiYzV4eKMceb/0SzLPBvXAgMBAAGjggE1MIIBMTARBglghkgBhvhC
AQEEBAMCBkAwHQYDVR0OBBYEFOVi91TmvKWOMVpaVpzycoEQOtu2MIGwBgNVHSME
gagwgaWAFKZmDlkPPFwRNbKzmVmp06axXpXSoYGBpH8wfTEUMBIGA1UEAxQLQkhP
UEFMQ0FfQ0ExCzAJBgNVBAYTAklOMQ8wDQYDVQQKEwZDSVRSSVgxDDAKBgNVBAsT
A0FORzELMAkGA1UECBMCS0ExLDAqBgkqhkiG9w0BCQEWHUJIT1BBTENBX0NBQEJI
T1BBTENBX21haWwuY29tggkAvolV82UoF5owSgYIKwYBBQUHAQEEPjA8MDoGCCsG
AQUFBzABhi5odHRwOi8vQkhPUEFMQ0Ffb25lLm9jc3B0ZXN0LmNvbS9yZXNwb25k
ZXJwYXRoMA0GCSqGSIb3DQEBCwUAA4IBAQAcT+t5il41Gmq2qb7nxdW1oxXK/A7v
oQElMSrtit/Wfhi/sk6hrK4rcV1bcvqKbCNA0Y2UBWG5ziTWRo1yVz9eZ7ZZl7py
9AFdQRhrAHQIHY13dNDYtJ86JJSP3wPkGPWEsiOe/yaJn8D/EtkdQ1W+JXUQUC0T
AvFTvST1YFaFikVpCRbvbTr3/0FLlUdGOAR6pkG1e1NWg9nRYIp7K3/QWy3qIWBl
IaAsbG24ugqn9CwgtE2uD6jKnAEHaIxIAUD1E5iI6z5fY9nbZzrGt45DC4XkF8Rr
GT5GWHAFuoyRwj0erDwUX7u7lkgBZ5/by0sWvl2G/gj448Ys4uRLZ1rg
-----END CERTIFICATE-----
