Certificate:
    Data:
        Version: 3 (0x2)
        Serial Number: 11042563100177 (0xa0b0c0d0e11)
    Signature Algorithm: sha256WithRSAEncryption
        Issuer: CN=BANGALORECA_CA, C=IN, O=CITRIX, OU=ANG, ST=KA/emailAddress=BANGALORECA_CA@BANGALORECA_mail.com
        Validity
            Not Before: Jul  8 04:31:20 2016 GMT
            Not After : Jul  6 04:31:20 2026 GMT
        Subject: ST=KA, C=IN, CN=103_BANGALORECA_server/emailAddress=103_BANGALORECA@test_ca.com, O=CITRIX
        Subject Public Key Info:
            Public Key Algorithm: rsaEncryption
                Public-Key: (2048 bit)
                Modulus:
                    00:df:f3:48:6a:78:4b:67:8a:e0:b2:6d:85:e5:d5:
                    34:82:95:f1:e3:1e:e6:1c:e1:36:12:7e:a9:3f:5d:
                    b6:06:e9:97:f9:75:e9:0e:26:32:80:14:cd:bd:a1:
                    82:66:fa:af:7c:2f:69:55:80:b3:1e:c7:ae:55:0c:
                    c0:36:be:9a:57:42:d2:9e:44:a7:47:43:a7:32:d7:
                    35:04:3b:08:dc:f1:d2:9d:4c:22:fe:2e:08:2c:ef:
                    da:c0:13:a0:61:31:af:10:8f:9f:7d:ff:ef:56:80:
                    a9:13:be:7b:84:da:62:0c:5c:e9:d3:54:57:94:31:
                    3e:50:d9:de:ab:5e:b0:01:6f:d9:94:82:d1:44:25:
                    76:78:d4:7b:ef:a1:32:b5:5f:63:37:8c:53:d3:ec:
                    18:aa:87:4a:d8:22:43:24:63:3e:98:58:43:7e:bf:
                    c7:c2:28:57:24:29:b4:20:00:e7:87:bb:bc:85:e3:
                    78:67:a2:a6:74:30:55:3f:f2:75:b5:14:4e:76:ba:
                    ca:37:99:4e:81:86:08:d3:b9:b5:a1:e6:9d:07:62:
                    5a:c1:84:71:75:8e:7b:4d:89:8f:08:2b:df:19:fc:
                    53:68:f7:6e:3e:e2:b8:d6:55:44:db:fd:ae:b5:d8:
                    e5:4c:4a:d3:87:f1:d0:0a:79:07:53:30:7d:e6:e1:
                    97:35
                Exponent: 65537 (0x10001)
        X509v3 extensions:
            Netscape Cert Type: 
                SSL Server
            X509v3 Subject Key Identifier: 
                AD:A7:4B:77:4E:5A:42:B1:5B:15:4E:B4:5C:B1:81:75:3A:A0:B0:65
            X509v3 Authority Key Identifier: 
                keyid:3B:D6:D1:53:18:87:05:22:BB:EE:C3:0F:F5:CE:0F:6B:A2:93:A7:B8
                DirName:/CN=BANGALORECA_CA/C=IN/O=CITRIX/OU=ANG/ST=KA/emailAddress=BANGALORECA_CA@BANGALORECA_mail.com
                serial:A1:AC:B4:DA:46:53:58:40

            Authority Information Access: 
                OCSP - URI:http://BANGALORECA_one.ocsptest.com/responderpath

    Signature Algorithm: sha256WithRSAEncryption
         49:96:7e:de:49:f2:c4:6a:5b:cd:b2:79:08:f7:72:17:4a:e9:
         d2:fc:d9:19:82:09:fe:50:34:63:a9:40:1a:53:20:1f:70:c4:
         8b:0e:17:fc:1a:85:13:f3:9d:83:fd:f1:dc:70:d3:ad:68:25:
         3f:6e:cc:ad:a9:ff:83:c2:2f:8d:f8:a2:69:d6:a2:fc:3a:bd:
         2f:37:38:ff:02:e9:1c:70:eb:93:00:18:35:53:76:2e:00:f9:
         7d:68:a6:76:fd:cc:5a:7b:2f:f5:a1:7f:54:6d:94:28:4a:8e:
         9c:44:08:3e:b6:0b:8c:1c:a1:6e:04:04:96:a4:e6:f1:ec:97:
         c0:33:e1:32:4a:bf:7e:f8:9b:84:fd:12:28:42:9d:23:34:6e:
         22:da:c1:b0:fe:46:3a:ec:92:f9:0e:3e:2d:46:c3:91:c9:22:
         c9:c5:9e:b5:25:e8:71:14:5f:73:89:31:ff:47:2b:3c:32:7a:
         54:f6:25:90:02:4a:a5:43:3c:27:be:fd:99:4f:dc:e3:48:4a:
         9b:99:af:33:58:42:c0:d7:c9:0f:a2:4c:a9:e7:3a:73:49:ed:
         bd:c9:4a:b1:a7:cc:42:b3:ed:8a:a2:a8:de:9d:93:e1:de:63:
         29:b8:79:d1:bd:e6:9c:51:2b:10:00:f5:68:63:7e:a0:e8:2f:
         6f:f1:32:6c
-----BEGIN CERTIFICATE-----
MIIExDCCA6ygAwIBAgIGCgsMDQ4RMA0GCSqGSIb3DQEBCwUAMIGGMRcwFQYDVQQD
FA5CQU5HQUxPUkVDQV9DQTELMAkGA1UEBhMCSU4xDzANBgNVBAoTBkNJVFJJWDEM
MAoGA1UECxMDQU5HMQswCQYDVQQIEwJLQTEyMDAGCSqGSIb3DQEJARYjQkFOR0FM
T1JFQ0FfQ0FAQkFOR0FMT1JFQ0FfbWFpbC5jb20wHhcNMTYwNzA4MDQzMTIwWhcN
MjYwNzA2MDQzMTIwWjB4MQswCQYDVQQIEwJLQTELMAkGA1UEBhMCSU4xHzAdBgNV
BAMUFjEwM19CQU5HQUxPUkVDQV9zZXJ2ZXIxKjAoBgkqhkiG9w0BCQEWGzEwM19C
QU5HQUxPUkVDQUB0ZXN0X2NhLmNvbTEPMA0GA1UEChMGQ0lUUklYMIIBIjANBgkq
hkiG9w0BAQEFAAOCAQ8AMIIBCgKCAQEA3/NIanhLZ4rgsm2F5dU0gpXx4x7mHOE2
En6pP122BumX+XXpDiYygBTNvaGCZvqvfC9pVYCzHseuVQzANr6aV0LSnkSnR0On
Mtc1BDsI3PHSnUwi/i4ILO/awBOgYTGvEI+fff/vVoCpE757hNpiDFzp01RXlDE+
UNneq16wAW/ZlILRRCV2eNR776EytV9jN4xT0+wYqodK2CJDJGM+mFhDfr/HwihX
JCm0IADnh7u8heN4Z6KmdDBVP/J1tRROdrrKN5lOgYYI07m1oeadB2JawYRxdY57
TYmPCCvfGfxTaPduPuK41lVE2/2utdjlTErTh/HQCnkHUzB95uGXNQIDAQABo4IB
QzCCAT8wEQYJYIZIAYb4QgEBBAQDAgZAMB0GA1UdDgQWBBStp0t3TlpCsVsVTrRc
sYF1OqCwZTCBuwYDVR0jBIGzMIGwgBQ71tFTGIcFIrvuww/1zg9ropOnuKGBjKSB
iTCBhjEXMBUGA1UEAxQOQkFOR0FMT1JFQ0FfQ0ExCzAJBgNVBAYTAklOMQ8wDQYD
VQQKEwZDSVRSSVgxDDAKBgNVBAsTA0FORzELMAkGA1UECBMCS0ExMjAwBgkqhkiG
9w0BCQEWI0JBTkdBTE9SRUNBX0NBQEJBTkdBTE9SRUNBX21haWwuY29tggkAoay0
2kZTWEAwTQYIKwYBBQUHAQEEQTA/MD0GCCsGAQUFBzABhjFodHRwOi8vQkFOR0FM
T1JFQ0Ffb25lLm9jc3B0ZXN0LmNvbS9yZXNwb25kZXJwYXRoMA0GCSqGSIb3DQEB
CwUAA4IBAQBJln7eSfLEalvNsnkI93IXSunS/NkZggn+UDRjqUAaUyAfcMSLDhf8
GoUT852D/fHccNOtaCU/bsytqf+Dwi+N+KJp1qL8Or0vNzj/AukccOuTABg1U3Yu
APl9aKZ2/cxaey/1oX9UbZQoSo6cRAg+tguMHKFuBASWpObx7JfAM+EySr9++JuE
/RIoQp0jNG4i2sGw/kY67JL5Dj4tRsORySLJxZ61JehxFF9ziTH/Rys8MnpU9iWQ
AkqlQzwnvv2ZT9zjSEqbma8zWELA18kPokyp5zpzSe29yUqxp8xCs+2KoqjenZPh
3mMpuHnRveacUSsQAPVoY36g6C9v8TJs
-----END CERTIFICATE-----
