Certificate:
    Data:
        Version: 3 (0x2)
        Serial Number: 11042563100178 (0xa0b0c0d0e12)
    Signature Algorithm: sha256WithRSAEncryption
        Issuer: CN=GOACA_CA, C=IN, O=CITRIX, OU=ANG, ST=KA/emailAddress=GOACA_CA@GOACA_mail.com
        Validity
            Not Before: Jul  8 04:34:54 2016 GMT
            Not After : Jul  6 04:34:54 2026 GMT
        Subject: ST=KA, C=IN, CN=104_GOACA_server/emailAddress=104_GOACA@test_ca.com, O=CITRIX
        Subject Public Key Info:
            Public Key Algorithm: rsaEncryption
                Public-Key: (2048 bit)
                Modulus:
                    00:c5:5b:4e:86:5c:c0:ee:60:b3:4b:4b:a2:65:9d:
                    96:e0:23:bd:0c:eb:a8:7d:d3:41:61:d9:98:88:d1:
                    44:0e:e7:fb:88:8a:db:55:69:3f:02:51:8f:5f:10:
                    3b:4a:b5:04:1d:23:ef:7d:1a:65:d8:79:3d:b0:9a:
                    48:fc:de:6b:d6:c1:ce:db:41:10:a0:d4:c2:16:d6:
                    d7:0d:2e:a6:7f:5c:b2:64:63:9c:e5:c3:18:85:65:
                    bd:55:b2:36:f9:a6:0f:a5:33:f7:ac:45:34:85:6c:
                    53:c9:b8:0c:0d:e1:43:ab:76:80:1e:e1:96:3e:4f:
                    11:30:22:7f:cf:44:2f:c3:48:b2:67:2e:cb:64:a0:
                    f9:61:a4:27:60:44:c8:b0:95:d9:50:00:48:a8:b0:
                    24:f8:52:24:30:87:ec:e1:a6:44:80:2d:09:c5:03:
                    b3:38:a6:63:6f:e0:85:69:a2:4b:ac:f0:fa:b4:67:
                    6a:ea:80:f0:8c:6a:80:9a:f6:df:69:5d:5a:b7:5f:
                    99:9b:21:8a:3f:e2:af:6e:28:6d:ae:c8:a9:61:43:
                    83:fe:19:60:f8:df:77:1b:8c:a1:84:9c:c5:fe:ad:
                    43:a8:6b:42:05:a2:a0:16:8c:cf:e2:af:07:1b:17:
                    dd:e5:e3:9a:c8:d7:21:3e:c4:a1:35:72:2e:f9:95:
                    e2:1b
                Exponent: 65537 (0x10001)
        X509v3 extensions:
            Netscape Cert Type: 
                SSL Server
            X509v3 Subject Key Identifier: 
                23:C0:65:63:12:B7:F9:F1:3A:37:E4:44:09:90:66:AD:0D:51:42:08
            X509v3 Authority Key Identifier: 
                keyid:81:03:00:D4:DC:70:D9:A7:03:08:1E:DC:9B:4C:AC:E6:59:CD:39:68
                DirName:/CN=GOACA_CA/C=IN/O=CITRIX/OU=ANG/ST=KA/emailAddress=GOACA_CA@GOACA_mail.com
                serial:FC:8B:0A:90:01:17:5F:1C

            Authority Information Access: 
                OCSP - URI:http://GOACA_one.ocsptest.com/responderpath

    Signature Algorithm: sha256WithRSAEncryption
         4e:23:2a:c9:4a:8e:ff:32:7c:be:45:30:eb:e4:3e:2f:22:ee:
         38:5a:ca:74:aa:23:df:fb:b5:d7:3e:c7:25:45:92:74:37:36:
         e9:db:bc:ba:9f:b5:76:c0:8b:0d:62:f3:c2:f7:94:27:d5:a3:
         8c:fb:1f:92:6b:49:6c:92:ac:04:29:6c:c9:cc:5b:30:f8:6e:
         f9:d8:54:ee:b9:22:49:cd:5f:43:30:7d:30:05:ef:d8:7a:be:
         b7:cd:ae:6c:6b:b1:7a:b6:cc:20:f8:95:99:de:a8:b1:4d:6b:
         7f:25:c1:fd:d9:8c:89:ab:23:ad:2e:6e:76:4a:28:06:e0:f1:
         41:ff:b2:6e:a9:c6:f1:62:f7:1e:38:04:bb:f1:3e:df:70:c4:
         8e:29:81:4a:34:97:a7:64:91:f9:3d:e6:d8:ce:8a:a5:1b:45:
         d3:03:f7:92:26:03:c7:24:52:8a:7c:7c:c6:df:03:27:a4:00:
         76:a2:f5:23:97:a3:1b:84:39:c6:13:a5:6d:aa:9d:bb:42:21:
         7e:c0:15:41:fb:26:b5:a7:39:36:86:96:88:a1:bd:b3:a2:30:
         68:4f:5a:8f:2c:69:f0:63:27:bc:fa:30:7d:c3:ce:9c:d6:df:
         f6:cd:30:14:8f:e3:c5:2b:af:74:b4:64:46:b7:be:66:7b:dc:
         dd:fc:ab:a8
-----BEGIN CERTIFICATE-----
MIIEijCCA3KgAwIBAgIGCgsMDQ4SMA0GCSqGSIb3DQEBCwUAMHQxETAPBgNVBAMU
CEdPQUNBX0NBMQswCQYDVQQGEwJJTjEPMA0GA1UEChMGQ0lUUklYMQwwCgYDVQQL
EwNBTkcxCzAJBgNVBAgTAktBMSYwJAYJKoZIhvcNAQkBFhdHT0FDQV9DQUBHT0FD
QV9tYWlsLmNvbTAeFw0xNjA3MDgwNDM0NTRaFw0yNjA3MDYwNDM0NTRaMGwxCzAJ
BgNVBAgTAktBMQswCQYDVQQGEwJJTjEZMBcGA1UEAxQQMTA0X0dPQUNBX3NlcnZl
cjEkMCIGCSqGSIb3DQEJARYVMTA0X0dPQUNBQHRlc3RfY2EuY29tMQ8wDQYDVQQK
EwZDSVRSSVgwggEiMA0GCSqGSIb3DQEBAQUAA4IBDwAwggEKAoIBAQDFW06GXMDu
YLNLS6JlnZbgI70M66h900Fh2ZiI0UQO5/uIittVaT8CUY9fEDtKtQQdI+99GmXY
eT2wmkj83mvWwc7bQRCg1MIW1tcNLqZ/XLJkY5zlwxiFZb1Vsjb5pg+lM/esRTSF
bFPJuAwN4UOrdoAe4ZY+TxEwIn/PRC/DSLJnLstkoPlhpCdgRMiwldlQAEiosCT4
UiQwh+zhpkSALQnFA7M4pmNv4IVpokus8Pq0Z2rqgPCMaoCa9t9pXVq3X5mbIYo/
4q9uKG2uyKlhQ4P+GWD433cbjKGEnMX+rUOoa0IFoqAWjM/irwcbF93l45rI1yE+
xKE1ci75leIbAgMBAAGjggEoMIIBJDARBglghkgBhvhCAQEEBAMCBkAwHQYDVR0O
BBYEFCPAZWMSt/nxOjfkRAmQZq0NUUIIMIGmBgNVHSMEgZ4wgZuAFIEDANTccNmn
Awge3JtMrOZZzTlooXikdjB0MREwDwYDVQQDFAhHT0FDQV9DQTELMAkGA1UEBhMC
SU4xDzANBgNVBAoTBkNJVFJJWDEMMAoGA1UECxMDQU5HMQswCQYDVQQIEwJLQTEm
MCQGCSqGSIb3DQEJARYXR09BQ0FfQ0FAR09BQ0FfbWFpbC5jb22CCQD8iwqQARdf
HDBHBggrBgEFBQcBAQQ7MDkwNwYIKwYBBQUHMAGGK2h0dHA6Ly9HT0FDQV9vbmUu
b2NzcHRlc3QuY29tL3Jlc3BvbmRlcnBhdGgwDQYJKoZIhvcNAQELBQADggEBAE4j
KslKjv8yfL5FMOvkPi8i7jhaynSqI9/7tdc+xyVFknQ3NunbvLqftXbAiw1i88L3
lCfVo4z7H5JrSWySrAQpbMnMWzD4bvnYVO65IknNX0MwfTAF79h6vrfNrmxrsXq2
zCD4lZneqLFNa38lwf3ZjImrI60ubnZKKAbg8UH/sm6pxvFi9x44BLvxPt9wxI4p
gUo0l6dkkfk95tjOiqUbRdMD95ImA8ckUop8fMbfAyekAHai9SOXoxuEOcYTpW2q
nbtCIX7AFUH7JrWnOTaGloihvbOiMGhPWo8safBjJ7z6MH3DzpzW3/bNMBSP48Ur
r3S0ZEa3vmZ73N38q6g=
-----END CERTIFICATE-----
