Certificate:
    Data:
        Version: 3 (0x2)
        Serial Number: 11042563100178 (0xa0b0c0d0e12)
    Signature Algorithm: sha256WithRSAEncryption
        Issuer: CN=MYSORECA_CA, C=IN, O=CITRIX, OU=ANG, ST=KA/emailAddress=MYSORECA_CA@MYSORECA_mail.com
        Validity
            Not Before: Jul  8 04:36:30 2016 GMT
            Not After : Jul  6 04:36:30 2026 GMT
        Subject: ST=KA, C=IN, CN=104_MYSORECA_server/emailAddress=104_MYSORECA@test_ca.com, O=CITRIX
        Subject Public Key Info:
            Public Key Algorithm: rsaEncryption
                Public-Key: (2048 bit)
                Modulus:
                    00:a7:d0:cf:96:d0:06:87:0f:92:5c:db:30:91:e5:
                    3e:b7:47:bf:29:d8:da:9b:d9:e8:28:79:17:af:72:
                    84:39:0b:92:d3:08:06:1c:5a:4e:5b:b8:88:3e:b2:
                    79:89:4d:49:73:a1:24:2d:45:dc:23:1c:ee:d4:38:
                    21:22:da:de:fc:10:25:a9:de:2d:3f:28:8b:1b:48:
                    de:0a:82:c6:a7:15:f9:50:cd:3b:1e:60:1e:fe:e4:
                    24:2b:57:72:0d:f7:96:70:e1:eb:fb:3c:e0:d9:a7:
                    76:9b:40:1f:be:e1:21:2a:30:45:ad:42:4f:a5:00:
                    47:f6:03:e5:be:14:01:ed:35:d0:9c:fb:6e:5c:26:
                    5d:8f:01:b1:08:ec:20:d1:9a:93:df:28:03:3b:09:
                    13:e8:77:36:14:3a:3d:55:75:9f:4a:4a:0d:0a:8a:
                    f6:92:4a:22:22:ac:f0:e2:52:e3:e8:8e:64:8d:04:
                    25:12:f7:78:a8:3c:51:bf:37:4d:71:3b:49:d2:26:
                    43:50:92:8b:68:d0:56:ae:14:43:31:22:4e:c4:95:
                    67:2f:d3:e0:ef:fd:3f:d0:c6:0e:19:72:73:1a:8e:
                    62:d6:73:5c:cc:07:bb:40:46:27:a9:d9:cf:a3:6e:
                    11:78:72:f4:99:78:1c:32:58:82:30:16:d8:fd:fd:
                    24:4b
                Exponent: 65537 (0x10001)
        X509v3 extensions:
            Netscape Cert Type: 
                SSL Server
            X509v3 Subject Key Identifier: 
                48:8E:4C:1E:E6:19:87:31:DD:37:80:CC:4C:D0:16:C5:B7:62:72:8F
            X509v3 Authority Key Identifier: 
                keyid:C6:18:DA:E4:16:A1:1E:60:AE:18:00:F5:A7:DF:0A:8B:65:4D:36:95
                DirName:/CN=MYSORECA_CA/C=IN/O=CITRIX/OU=ANG/ST=KA/emailAddress=MYSORECA_CA@MYSORECA_mail.com
                serial:D5:74:54:E9:D5:CF:C9:F6

            Authority Information Access: 
                OCSP - URI:http://MYSORECA_one.ocsptest.com/responderpath

    Signature Algorithm: sha256WithRSAEncryption
         2f:d0:04:f4:44:4f:56:f4:8d:4b:62:e0:34:7b:99:60:fc:c1:
         e4:5d:12:e3:64:21:e2:f6:d2:11:35:31:ac:da:57:87:ab:da:
         f2:b6:dc:b6:5a:b0:85:97:64:89:11:53:10:f1:a1:be:61:ff:
         84:04:30:b9:59:51:d8:56:7c:af:ee:af:a0:db:bf:6a:78:3c:
         1f:a4:ce:2a:67:23:6a:2a:eb:c5:5d:14:9d:23:ea:1c:9a:d8:
         46:aa:9d:ab:9c:0c:42:9b:b4:c8:43:27:ca:86:6f:ef:0d:26:
         7d:2c:fc:f9:30:0b:03:36:7c:92:23:ec:9e:1a:f0:f7:08:2c:
         4c:09:d9:7d:5a:e7:4b:a0:60:96:69:f5:65:6f:17:77:85:df:
         bf:01:e7:38:17:be:0d:1f:ee:f9:65:ec:b5:07:21:f0:8c:84:
         e2:11:95:c1:89:25:9a:cc:25:3a:a4:4a:c5:bb:44:71:d8:82:
         a0:da:4e:ed:b3:a7:cf:02:90:e0:95:41:5b:88:a0:9d:4b:4b:
         04:4b:ea:bf:da:24:14:f0:fc:a8:87:02:08:b7:4d:9a:69:18:
         1a:d2:54:16:5d:39:84:53:13:d8:44:f9:5a:49:ce:07:cb:93:
         4c:52:2e:5f:94:aa:24:4d:c2:52:35:c9:d9:43:8b:29:48:61:
         59:d0:85:57
-----BEGIN CERTIFICATE-----
MIIEpjCCA46gAwIBAgIGCgsMDQ4SMA0GCSqGSIb3DQEBCwUAMH0xFDASBgNVBAMU
C01ZU09SRUNBX0NBMQswCQYDVQQGEwJJTjEPMA0GA1UEChMGQ0lUUklYMQwwCgYD
VQQLEwNBTkcxCzAJBgNVBAgTAktBMSwwKgYJKoZIhvcNAQkBFh1NWVNPUkVDQV9D
QUBNWVNPUkVDQV9tYWlsLmNvbTAeFw0xNjA3MDgwNDM2MzBaFw0yNjA3MDYwNDM2
MzBaMHIxCzAJBgNVBAgTAktBMQswCQYDVQQGEwJJTjEcMBoGA1UEAxQTMTA0X01Z
U09SRUNBX3NlcnZlcjEnMCUGCSqGSIb3DQEJARYYMTA0X01ZU09SRUNBQHRlc3Rf
Y2EuY29tMQ8wDQYDVQQKEwZDSVRSSVgwggEiMA0GCSqGSIb3DQEBAQUAA4IBDwAw
ggEKAoIBAQCn0M+W0AaHD5Jc2zCR5T63R78p2Nqb2egoeRevcoQ5C5LTCAYcWk5b
uIg+snmJTUlzoSQtRdwjHO7UOCEi2t78ECWp3i0/KIsbSN4KgsanFflQzTseYB7+
5CQrV3IN95Zw4ev7PODZp3abQB++4SEqMEWtQk+lAEf2A+W+FAHtNdCc+25cJl2P
AbEI7CDRmpPfKAM7CRPodzYUOj1VdZ9KSg0KivaSSiIirPDiUuPojmSNBCUS93io
PFG/N01xO0nSJkNQkoto0FauFEMxIk7ElWcv0+Dv/T/Qxg4ZcnMajmLWc1zMB7tA
Riep2c+jbhF4cvSZeBwyWIIwFtj9/SRLAgMBAAGjggE1MIIBMTARBglghkgBhvhC
AQEEBAMCBkAwHQYDVR0OBBYEFEiOTB7mGYcx3TeAzEzQFsW3YnKPMIGwBgNVHSME
gagwgaWAFMYY2uQWoR5grhgA9affCotlTTaVoYGBpH8wfTEUMBIGA1UEAxQLTVlT
T1JFQ0FfQ0ExCzAJBgNVBAYTAklOMQ8wDQYDVQQKEwZDSVRSSVgxDDAKBgNVBAsT
A0FORzELMAkGA1UECBMCS0ExLDAqBgkqhkiG9w0BCQEWHU1ZU09SRUNBX0NBQE1Z
U09SRUNBX21haWwuY29tggkA1XRU6dXPyfYwSgYIKwYBBQUHAQEEPjA8MDoGCCsG
AQUFBzABhi5odHRwOi8vTVlTT1JFQ0Ffb25lLm9jc3B0ZXN0LmNvbS9yZXNwb25k
ZXJwYXRoMA0GCSqGSIb3DQEBCwUAA4IBAQAv0AT0RE9W9I1LYuA0e5lg/MHkXRLj
ZCHi9tIRNTGs2leHq9rytty2WrCFl2SJEVMQ8aG+Yf+EBDC5WVHYVnyv7q+g279q
eDwfpM4qZyNqKuvFXRSdI+ocmthGqp2rnAxCm7TIQyfKhm/vDSZ9LPz5MAsDNnyS
I+yeGvD3CCxMCdl9WudLoGCWafVlbxd3hd+/Aec4F74NH+75Zey1ByHwjITiEZXB
iSWazCU6pErFu0Rx2IKg2k7ts6fPApDglUFbiKCdS0sES+q/2iQU8PyohwIIt02a
aRga0lQWXTmEUxPYRPlaSc4Hy5NMUi5flKokTcJSNcnZQ4spSGFZ0IVX
-----END CERTIFICATE-----
