Certificate:
    Data:
        Version: 3 (0x2)
        Serial Number: 11042563100178 (0xa0b0c0d0e12)
    Signature Algorithm: sha256WithRSAEncryption
        Issuer: CN=CALCUTTACA_CA, C=IN, O=CITRIX, OU=ANG, ST=KA/emailAddress=CALCUTTACA_CA@CALCUTTACA_mail.com
        Validity
            Not Before: Jul  8 04:33:04 2016 GMT
            Not After : Jul  6 04:33:04 2026 GMT
        Subject: ST=KA, C=IN, CN=104_CALCUTTACA_server/emailAddress=104_CALCUTTACA@test_ca.com, O=CITRIX
        Subject Public Key Info:
            Public Key Algorithm: rsaEncryption
                Public-Key: (2048 bit)
                Modulus:
                    00:c5:0c:30:d6:51:9b:43:c9:d9:db:b8:fd:11:42:
                    7c:47:61:97:a2:6e:6d:d1:89:74:51:9b:18:c5:09:
                    f5:59:0d:ff:59:7d:23:e4:75:d8:b0:c0:9f:14:88:
                    7d:ff:70:c3:57:d8:af:70:07:57:69:96:73:fa:ae:
                    44:f4:ce:d7:7f:a4:af:3c:82:73:90:c4:d6:b6:05:
                    ee:18:19:b0:7f:f6:13:9a:5f:cb:de:78:a4:eb:09:
                    6c:e1:30:31:d0:89:43:cc:25:8a:86:81:21:5f:ab:
                    72:f3:9e:cf:7c:2c:a0:7a:df:c2:ec:bb:c4:c2:47:
                    5e:d6:9d:73:70:70:52:06:9c:31:17:00:d1:c4:47:
                    6f:a6:17:59:a4:a4:57:16:6f:e6:ca:1a:11:e7:2e:
                    c7:f2:ea:32:ab:c3:5b:5f:d3:af:8f:8c:11:b1:09:
                    9c:a0:5a:21:63:41:d8:52:58:c4:10:4b:38:22:75:
                    b8:2f:30:94:e6:8d:5e:35:84:12:31:31:2f:b3:84:
                    25:54:14:cd:9d:38:58:8d:74:de:af:e5:7a:73:09:
                    d1:17:0f:a4:2e:1e:a4:10:3f:f9:40:8d:12:2e:a8:
                    a6:a3:74:55:61:cb:54:0f:1b:bf:60:7f:df:50:ca:
                    af:b0:ac:c9:ed:16:df:bb:79:c7:32:13:18:32:b1:
                    ea:3b
                Exponent: 65537 (0x10001)
        X509v3 extensions:
            Netscape Cert Type: 
                SSL Server
            X509v3 Subject Key Identifier: 
                97:DE:1A:02:DD:A9:21:DC:28:35:7F:79:27:3F:FC:DC:00:E4:79:83
            X509v3 Authority Key Identifier: 
                keyid:37:2E:7B:27:46:4B:CF:47:10:AC:2B:2E:BA:D0:F3:66:75:EB:52:75
                DirName:/CN=CALCUTTACA_CA/C=IN/O=CITRIX/OU=ANG/ST=KA/emailAddress=CALCUTTACA_CA@CALCUTTACA_mail.com
                serial:A5:C6:47:0E:E6:06:37:18

            Authority Information Access: 
                OCSP - URI:http://CALCUTTACA_one.ocsptest.com/responderpath

    Signature Algorithm: sha256WithRSAEncryption
         54:21:b2:3e:36:4b:5d:72:f4:c2:bf:54:f6:a1:a7:e1:26:20:
         18:94:8c:d6:f8:9d:d9:73:9e:56:21:a5:f9:54:a3:1c:db:35:
         f1:c0:34:1c:85:35:9a:bd:bc:d2:af:1e:43:e5:ed:20:c1:79:
         a6:b4:fc:de:4f:4b:1e:f6:86:1e:64:a6:15:76:4a:12:71:5b:
         a8:24:2d:2f:bc:fd:6d:a1:ec:92:e0:f7:c6:a4:6d:2e:57:19:
         97:94:36:88:37:e0:e7:ac:1e:c4:10:a8:ce:e9:08:64:4e:e2:
         5e:25:df:6e:14:85:9d:22:a1:0e:2c:ea:9d:10:c9:0b:f3:71:
         fa:29:4d:80:a2:13:06:5a:b0:4b:28:9e:18:16:ee:62:bd:52:
         80:98:9c:81:ba:16:8c:af:00:4f:5b:ad:b0:a7:8d:90:8c:26:
         af:29:fc:f4:a8:ff:4e:78:ce:f0:48:31:57:ad:e9:b8:15:4f:
         2a:a0:16:51:1a:bc:4a:0d:cc:c1:ea:39:37:7c:60:08:53:20:
         55:31:ce:43:76:53:c2:da:8f:f7:9d:e9:30:77:b1:80:9b:e8:
         90:42:22:e8:34:d6:2b:cc:50:fe:75:c5:96:e0:18:f7:3b:20:
         cc:72:51:e0:fb:49:2a:5a:c2:2c:f0:13:02:4f:29:b8:55:86:
         7b:8a:54:2a
-----BEGIN CERTIFICATE-----
MIIEuzCCA6OgAwIBAgIGCgsMDQ4SMA0GCSqGSIb3DQEBCwUAMIGDMRYwFAYDVQQD
FA1DQUxDVVRUQUNBX0NBMQswCQYDVQQGEwJJTjEPMA0GA1UEChMGQ0lUUklYMQww
CgYDVQQLEwNBTkcxCzAJBgNVBAgTAktBMTAwLgYJKoZIhvcNAQkBFiFDQUxDVVRU
QUNBX0NBQENBTENVVFRBQ0FfbWFpbC5jb20wHhcNMTYwNzA4MDQzMzA0WhcNMjYw
NzA2MDQzMzA0WjB2MQswCQYDVQQIEwJLQTELMAkGA1UEBhMCSU4xHjAcBgNVBAMU
FTEwNF9DQUxDVVRUQUNBX3NlcnZlcjEpMCcGCSqGSIb3DQEJARYaMTA0X0NBTENV
VFRBQ0FAdGVzdF9jYS5jb20xDzANBgNVBAoTBkNJVFJJWDCCASIwDQYJKoZIhvcN
AQEBBQADggEPADCCAQoCggEBAMUMMNZRm0PJ2du4/RFCfEdhl6JubdGJdFGbGMUJ
9VkN/1l9I+R12LDAnxSIff9ww1fYr3AHV2mWc/quRPTO13+krzyCc5DE1rYF7hgZ
sH/2E5pfy954pOsJbOEwMdCJQ8wlioaBIV+rcvOez3wsoHrfwuy7xMJHXtadc3Bw
UgacMRcA0cRHb6YXWaSkVxZv5soaEecux/LqMqvDW1/Tr4+MEbEJnKBaIWNB2FJY
xBBLOCJ1uC8wlOaNXjWEEjExL7OEJVQUzZ04WI103q/lenMJ0RcPpC4epBA/+UCN
Ei6opqN0VWHLVA8bv2B/31DKr7Csye0W37t5xzITGDKx6jsCAwEAAaOCAT8wggE7
MBEGCWCGSAGG+EIBAQQEAwIGQDAdBgNVHQ4EFgQUl94aAt2pIdwoNX95Jz/83ADk
eYMwgbgGA1UdIwSBsDCBrYAUNy57J0ZLz0cQrCsuutDzZnXrUnWhgYmkgYYwgYMx
FjAUBgNVBAMUDUNBTENVVFRBQ0FfQ0ExCzAJBgNVBAYTAklOMQ8wDQYDVQQKEwZD
SVRSSVgxDDAKBgNVBAsTA0FORzELMAkGA1UECBMCS0ExMDAuBgkqhkiG9w0BCQEW
IUNBTENVVFRBQ0FfQ0FAQ0FMQ1VUVEFDQV9tYWlsLmNvbYIJAKXGRw7mBjcYMEwG
CCsGAQUFBwEBBEAwPjA8BggrBgEFBQcwAYYwaHR0cDovL0NBTENVVFRBQ0Ffb25l
Lm9jc3B0ZXN0LmNvbS9yZXNwb25kZXJwYXRoMA0GCSqGSIb3DQEBCwUAA4IBAQBU
IbI+NktdcvTCv1T2oafhJiAYlIzW+J3Zc55WIaX5VKMc2zXxwDQchTWavbzSrx5D
5e0gwXmmtPzeT0se9oYeZKYVdkoScVuoJC0vvP1toeyS4PfGpG0uVxmXlDaIN+Dn
rB7EEKjO6QhkTuJeJd9uFIWdIqEOLOqdEMkL83H6KU2AohMGWrBLKJ4YFu5ivVKA
mJyBuhaMrwBPW62wp42QjCavKfz0qP9OeM7wSDFXrem4FU8qoBZRGrxKDczB6jk3
fGAIUyBVMc5DdlPC2o/3nekwd7GAm+iQQiLoNNYrzFD+dcWW4Bj3OyDMclHg+0kq
WsIs8BMCTym4VYZ7ilQq
-----END CERTIFICATE-----
