Certificate:
    Data:
        Version: 3 (0x2)
        Serial Number: 11042563100179 (0xa0b0c0d0e13)
    Signature Algorithm: sha256WithRSAEncryption
        Issuer: CN=CALCUTTACA_CA, C=IN, O=CITRIX, OU=ANG, ST=KA/emailAddress=CALCUTTACA_CA@CALCUTTACA_mail.com
        Validity
            Not Before: Jul  8 04:33:04 2016 GMT
            Not After : Jul  6 04:33:04 2026 GMT
        Subject: ST=KA, C=IN, CN=105_CALCUTTACA_server/emailAddress=105_CALCUTTACA@test_ca.com, O=CITRIX
        Subject Public Key Info:
            Public Key Algorithm: rsaEncryption
                Public-Key: (2048 bit)
                Modulus:
                    00:c1:1b:47:3e:fd:6a:59:c2:f5:62:ea:53:2a:f2:
                    85:4d:3d:b2:e8:b6:7b:d2:f9:01:95:52:7a:b1:36:
                    28:f1:3f:4b:3c:0b:19:15:6d:9a:94:87:ca:60:c2:
                    05:e1:43:87:45:28:6d:25:da:c1:88:ad:91:8f:af:
                    06:43:b7:c5:94:3d:f4:40:61:4f:d3:57:06:bf:1c:
                    bf:f9:18:1c:80:d5:33:94:cc:f6:9e:78:02:dc:3a:
                    f4:d6:76:66:80:16:24:7f:5f:7e:28:10:f5:29:b4:
                    a2:74:e7:1e:9d:0b:2f:0b:21:30:e2:5f:a3:02:7d:
                    29:98:50:d3:ad:b5:8b:52:01:0d:bf:ad:fe:3a:21:
                    bc:84:25:23:2f:c2:3c:2b:8d:4d:a7:9f:7b:63:7a:
                    32:c2:2e:de:ae:77:32:26:d7:cf:15:46:5b:44:33:
                    42:b1:4b:3b:a5:44:cc:ee:ce:f4:0a:b8:a6:fe:44:
                    ee:e4:34:18:15:69:be:62:71:f3:e0:da:f2:89:78:
                    95:ec:8f:53:0d:6a:e7:0b:7e:8f:6d:92:95:4a:5a:
                    15:0c:c0:a5:df:51:7a:8d:03:a9:9b:f2:47:aa:d5:
                    b3:de:f4:81:6d:86:3a:96:2c:5c:a9:35:da:f3:63:
                    55:ca:04:9a:89:02:19:75:08:8b:79:20:a8:99:b5:
                    67:13
                Exponent: 65537 (0x10001)
        X509v3 extensions:
            Netscape Cert Type: 
                SSL Server
            X509v3 Subject Key Identifier: 
                03:B4:87:99:56:CB:77:83:87:B5:C8:93:6C:5B:55:92:B9:C2:3F:3A
            X509v3 Authority Key Identifier: 
                keyid:37:2E:7B:27:46:4B:CF:47:10:AC:2B:2E:BA:D0:F3:66:75:EB:52:75
                DirName:/CN=CALCUTTACA_CA/C=IN/O=CITRIX/OU=ANG/ST=KA/emailAddress=CALCUTTACA_CA@CALCUTTACA_mail.com
                serial:A5:C6:47:0E:E6:06:37:18

            Authority Information Access: 
                OCSP - URI:http://CALCUTTACA_one.ocsptest.com/responderpath

    Signature Algorithm: sha256WithRSAEncryption
         91:20:bb:80:05:0e:9b:fc:32:56:c6:98:e2:78:94:cc:7c:8e:
         19:82:fe:8c:fd:71:99:fc:37:27:08:d2:f0:df:cd:0e:79:be:
         a7:75:cb:05:fb:6f:21:f5:6e:fb:f2:31:fc:1b:d8:f5:c8:14:
         c5:bb:9a:2d:70:b6:66:e0:9b:c3:f3:68:56:47:e2:d0:73:00:
         d1:41:64:69:12:f1:3d:9b:9c:2b:e7:9f:63:64:bf:e1:c3:b6:
         64:cf:c1:97:b9:97:ad:f4:e9:39:d6:be:d6:97:d3:b9:59:01:
         4f:aa:a3:c8:bb:09:f8:e5:ff:fd:fc:1e:2f:0b:e4:1e:b5:a8:
         a6:54:d5:b1:15:7c:ce:91:40:c0:a3:66:42:b8:4b:98:2f:28:
         98:25:1a:45:ac:bf:70:81:8d:18:7c:65:be:29:3b:73:39:9c:
         29:75:be:18:c8:3b:92:7d:68:63:a9:ee:fb:09:c5:69:10:e9:
         31:c9:2a:3f:a4:15:19:c7:a8:b4:2b:7a:ce:0b:d5:dd:5a:30:
         e1:68:31:7d:2b:f7:45:02:94:dd:69:95:a8:cd:b4:d9:d9:11:
         df:d9:60:b0:be:04:16:73:03:38:2a:4e:a3:e7:e3:d7:17:e3:
         7f:ba:02:64:4f:ab:21:e3:7e:64:ee:da:1f:49:57:d5:00:67:
         11:c0:6d:c9
-----BEGIN CERTIFICATE-----
MIIEuzCCA6OgAwIBAgIGCgsMDQ4TMA0GCSqGSIb3DQEBCwUAMIGDMRYwFAYDVQQD
FA1DQUxDVVRUQUNBX0NBMQswCQYDVQQGEwJJTjEPMA0GA1UEChMGQ0lUUklYMQww
CgYDVQQLEwNBTkcxCzAJBgNVBAgTAktBMTAwLgYJKoZIhvcNAQkBFiFDQUxDVVRU
QUNBX0NBQENBTENVVFRBQ0FfbWFpbC5jb20wHhcNMTYwNzA4MDQzMzA0WhcNMjYw
NzA2MDQzMzA0WjB2MQswCQYDVQQIEwJLQTELMAkGA1UEBhMCSU4xHjAcBgNVBAMU
FTEwNV9DQUxDVVRUQUNBX3NlcnZlcjEpMCcGCSqGSIb3DQEJARYaMTA1X0NBTENV
VFRBQ0FAdGVzdF9jYS5jb20xDzANBgNVBAoTBkNJVFJJWDCCASIwDQYJKoZIhvcN
AQEBBQADggEPADCCAQoCggEBAMEbRz79alnC9WLqUyryhU09sui2e9L5AZVSerE2
KPE/SzwLGRVtmpSHymDCBeFDh0UobSXawYitkY+vBkO3xZQ99EBhT9NXBr8cv/kY
HIDVM5TM9p54Atw69NZ2ZoAWJH9ffigQ9Sm0onTnHp0LLwshMOJfowJ9KZhQ0621
i1IBDb+t/johvIQlIy/CPCuNTaefe2N6MsIu3q53MibXzxVGW0QzQrFLO6VEzO7O
9Aq4pv5E7uQ0GBVpvmJx8+Da8ol4leyPUw1q5wt+j22SlUpaFQzApd9Reo0DqZvy
R6rVs970gW2GOpYsXKk12vNjVcoEmokCGXUIi3kgqJm1ZxMCAwEAAaOCAT8wggE7
MBEGCWCGSAGG+EIBAQQEAwIGQDAdBgNVHQ4EFgQUA7SHmVbLd4OHtciTbFtVkrnC
PzowgbgGA1UdIwSBsDCBrYAUNy57J0ZLz0cQrCsuutDzZnXrUnWhgYmkgYYwgYMx
FjAUBgNVBAMUDUNBTENVVFRBQ0FfQ0ExCzAJBgNVBAYTAklOMQ8wDQYDVQQKEwZD
SVRSSVgxDDAKBgNVBAsTA0FORzELMAkGA1UECBMCS0ExMDAuBgkqhkiG9w0BCQEW
IUNBTENVVFRBQ0FfQ0FAQ0FMQ1VUVEFDQV9tYWlsLmNvbYIJAKXGRw7mBjcYMEwG
CCsGAQUFBwEBBEAwPjA8BggrBgEFBQcwAYYwaHR0cDovL0NBTENVVFRBQ0Ffb25l
Lm9jc3B0ZXN0LmNvbS9yZXNwb25kZXJwYXRoMA0GCSqGSIb3DQEBCwUAA4IBAQCR
ILuABQ6b/DJWxpjieJTMfI4Zgv6M/XGZ/DcnCNLw380Oeb6ndcsF+28h9W778jH8
G9j1yBTFu5otcLZm4JvD82hWR+LQcwDRQWRpEvE9m5wr559jZL/hw7Zkz8GXuZet
9Ok51r7Wl9O5WQFPqqPIuwn45f/9/B4vC+QetaimVNWxFXzOkUDAo2ZCuEuYLyiY
JRpFrL9wgY0YfGW+KTtzOZwpdb4YyDuSfWhjqe77CcVpEOkxySo/pBUZx6i0K3rO
C9XdWjDhaDF9K/dFApTdaZWozbTZ2RHf2WCwvgQWcwM4Kk6j5+PXF+N/ugJkT6sh
435k7tofSVfVAGcRwG3J
-----END CERTIFICATE-----
