Certificate:
    Data:
        Version: 3 (0x2)
        Serial Number: 11042563100179 (0xa0b0c0d0e13)
    Signature Algorithm: sha256WithRSAEncryption
        Issuer: CN=BHOPALCA_CA, C=IN, O=CITRIX, OU=ANG, ST=KA/emailAddress=BHOPALCA_CA@BHOPALCA_mail.com
        Validity
            Not Before: Jul  8 04:32:33 2016 GMT
            Not After : Jul  6 04:32:33 2026 GMT
        Subject: ST=KA, C=IN, CN=105_BHOPALCA_server/emailAddress=105_BHOPALCA@test_ca.com, O=CITRIX
        Subject Public Key Info:
            Public Key Algorithm: rsaEncryption
                Public-Key: (2048 bit)
                Modulus:
                    00:9b:54:f1:7f:9d:b5:f0:15:77:2d:a0:05:be:d6:
                    0a:14:1a:40:28:b3:3d:89:65:1e:08:77:c4:30:84:
                    3a:e0:c5:9e:61:2f:f9:1d:63:1b:2f:94:55:8b:4c:
                    96:9c:2b:41:b4:82:e6:42:ac:8c:ad:58:85:b6:f6:
                    1a:16:49:e1:ad:70:69:c2:fc:02:8f:ec:dd:d7:8b:
                    4c:17:7b:54:86:03:90:19:b6:6a:d6:bf:fb:5e:1d:
                    d1:7b:97:75:67:b5:59:ed:1a:0b:df:c5:e0:5f:0b:
                    a4:5f:35:51:26:02:c0:9c:ea:e0:2c:b5:9a:17:56:
                    9b:6f:b7:e3:d3:8c:26:e8:8f:63:ef:da:03:6c:8a:
                    91:0d:31:f2:8b:3d:30:b6:b9:3e:c6:3f:e3:d3:bf:
                    66:a1:a7:71:ae:6f:09:7d:96:3c:b0:a7:61:dc:7f:
                    88:12:be:41:f7:ad:79:38:7a:ea:4b:57:a8:07:5b:
                    e2:cd:5b:06:1c:3c:dc:7d:5d:27:51:70:20:e6:4a:
                    4b:40:66:17:81:a7:a9:7d:e2:2b:fe:dd:ef:f4:b2:
                    5b:8b:7d:b6:53:1b:cf:e2:3f:26:e0:32:10:24:dc:
                    0f:97:22:59:77:99:aa:f0:d1:ad:31:19:57:d1:81:
                    44:3b:a4:ea:0e:be:57:7a:6b:ad:79:05:f1:2b:d3:
                    6b:0b
                Exponent: 65537 (0x10001)
        X509v3 extensions:
            Netscape Cert Type: 
                SSL Server
            X509v3 Subject Key Identifier: 
                E2:DB:57:44:D7:4B:0B:47:8A:7D:99:83:A7:94:01:B7:B2:44:B0:37
            X509v3 Authority Key Identifier: 
                keyid:A6:66:0E:59:0F:3C:5C:11:35:B2:B3:99:59:A9:D3:A6:B1:5E:95:D2
                DirName:/CN=BHOPALCA_CA/C=IN/O=CITRIX/OU=ANG/ST=KA/emailAddress=BHOPALCA_CA@BHOPALCA_mail.com
                serial:BE:89:55:F3:65:28:17:9A

            Authority Information Access: 
                OCSP - URI:http://BHOPALCA_one.ocsptest.com/responderpath

    Signature Algorithm: sha256WithRSAEncryption
         7f:f1:cb:a9:ee:ee:d1:18:ab:f2:4d:6d:b5:5a:6a:50:cb:fc:
         8f:95:ab:71:f1:1d:f8:a6:f2:d8:10:30:7f:15:44:51:0a:9d:
         4d:ce:07:22:24:1a:78:95:97:4d:cd:3d:9c:bd:a3:56:1b:0f:
         28:52:61:5f:fc:be:79:dd:cb:21:92:58:0c:45:05:d4:c4:a7:
         6e:40:06:7b:ea:c1:83:8d:63:c9:ea:6f:15:f5:f2:ce:a7:c7:
         15:82:cd:eb:d4:50:02:e1:ca:b1:4f:68:f5:17:9b:43:6f:90:
         07:8b:69:2f:d2:4b:dc:86:d3:c6:47:58:8b:8c:ee:63:47:52:
         38:74:5c:6e:63:c0:78:34:ab:d4:7a:b7:54:42:6c:66:c2:1e:
         29:ec:f9:53:74:47:9c:88:90:8e:99:99:09:db:d4:0b:2a:4e:
         3d:47:79:88:9e:9e:58:fc:07:ed:f1:cb:08:a7:de:39:04:f9:
         42:4c:20:e7:a8:a6:f9:b0:20:6c:05:e3:13:d8:ee:d2:a0:7e:
         7d:c3:97:ac:59:de:0c:3c:35:7b:c2:46:03:fc:b3:d4:d1:e2:
         ef:6f:82:bd:e2:8c:c3:9f:32:4a:af:f8:c7:80:f3:1f:e2:c8:
         2c:fd:09:12:97:d5:3a:5d:83:56:31:28:8e:72:68:0d:0e:d7:
         87:83:e9:6f
-----BEGIN CERTIFICATE-----
MIIEpjCCA46gAwIBAgIGCgsMDQ4TMA0GCSqGSIb3DQEBCwUAMH0xFDASBgNVBAMU
C0JIT1BBTENBX0NBMQswCQYDVQQGEwJJTjEPMA0GA1UEChMGQ0lUUklYMQwwCgYD
VQQLEwNBTkcxCzAJBgNVBAgTAktBMSwwKgYJKoZIhvcNAQkBFh1CSE9QQUxDQV9D
QUBCSE9QQUxDQV9tYWlsLmNvbTAeFw0xNjA3MDgwNDMyMzNaFw0yNjA3MDYwNDMy
MzNaMHIxCzAJBgNVBAgTAktBMQswCQYDVQQGEwJJTjEcMBoGA1UEAxQTMTA1X0JI
T1BBTENBX3NlcnZlcjEnMCUGCSqGSIb3DQEJARYYMTA1X0JIT1BBTENBQHRlc3Rf
Y2EuY29tMQ8wDQYDVQQKEwZDSVRSSVgwggEiMA0GCSqGSIb3DQEBAQUAA4IBDwAw
ggEKAoIBAQCbVPF/nbXwFXctoAW+1goUGkAosz2JZR4Id8QwhDrgxZ5hL/kdYxsv
lFWLTJacK0G0guZCrIytWIW29hoWSeGtcGnC/AKP7N3Xi0wXe1SGA5AZtmrWv/te
HdF7l3VntVntGgvfxeBfC6RfNVEmAsCc6uAstZoXVptvt+PTjCboj2Pv2gNsipEN
MfKLPTC2uT7GP+PTv2ahp3Gubwl9ljywp2Hcf4gSvkH3rXk4eupLV6gHW+LNWwYc
PNx9XSdRcCDmSktAZheBp6l94iv+3e/0sluLfbZTG8/iPybgMhAk3A+XIll3marw
0a0xGVfRgUQ7pOoOvld6a615BfEr02sLAgMBAAGjggE1MIIBMTARBglghkgBhvhC
AQEEBAMCBkAwHQYDVR0OBBYEFOLbV0TXSwtHin2Zg6eUAbeyRLA3MIGwBgNVHSME
gagwgaWAFKZmDlkPPFwRNbKzmVmp06axXpXSoYGBpH8wfTEUMBIGA1UEAxQLQkhP
UEFMQ0FfQ0ExCzAJBgNVBAYTAklOMQ8wDQYDVQQKEwZDSVRSSVgxDDAKBgNVBAsT
A0FORzELMAkGA1UECBMCS0ExLDAqBgkqhkiG9w0BCQEWHUJIT1BBTENBX0NBQEJI
T1BBTENBX21haWwuY29tggkAvolV82UoF5owSgYIKwYBBQUHAQEEPjA8MDoGCCsG
AQUFBzABhi5odHRwOi8vQkhPUEFMQ0Ffb25lLm9jc3B0ZXN0LmNvbS9yZXNwb25k
ZXJwYXRoMA0GCSqGSIb3DQEBCwUAA4IBAQB/8cup7u7RGKvyTW21WmpQy/yPlatx
8R34pvLYEDB/FURRCp1NzgciJBp4lZdNzT2cvaNWGw8oUmFf/L553cshklgMRQXU
xKduQAZ76sGDjWPJ6m8V9fLOp8cVgs3r1FAC4cqxT2j1F5tDb5AHi2kv0kvchtPG
R1iLjO5jR1I4dFxuY8B4NKvUerdUQmxmwh4p7PlTdEeciJCOmZkJ29QLKk49R3mI
np5Y/Aft8csIp945BPlCTCDnqKb5sCBsBeMT2O7SoH59w5esWd4MPDV7wkYD/LPU
0eLvb4K94ozDnzJKr/jHgPMf4sgs/QkSl9U6XYNWMSiOcmgNDteHg+lv
-----END CERTIFICATE-----
