Certificate:
    Data:
        Version: 3 (0x2)
        Serial Number: 11042563100179 (0xa0b0c0d0e13)
    Signature Algorithm: sha256WithRSAEncryption
        Issuer: CN=BANGALORECA_CA, C=IN, O=CITRIX, OU=ANG, ST=KA/emailAddress=BANGALORECA_CA@BANGALORECA_mail.com
        Validity
            Not Before: Jul  8 04:31:20 2016 GMT
            Not After : Jul  6 04:31:20 2026 GMT
        Subject: ST=KA, C=IN, CN=105_BANGALORECA_server/emailAddress=105_BANGALORECA@test_ca.com, O=CITRIX
        Subject Public Key Info:
            Public Key Algorithm: rsaEncryption
                Public-Key: (2048 bit)
                Modulus:
                    00:c6:a8:af:e5:fb:0c:74:97:ec:51:3d:65:69:41:
                    d6:88:e6:82:60:1e:c5:7c:df:3b:6f:87:1d:39:2b:
                    b1:ac:15:87:3b:f0:2a:76:90:a1:13:8b:7b:aa:9e:
                    38:16:d3:04:1c:16:c0:b9:cf:d8:ef:8a:a7:d2:33:
                    2d:cc:92:36:0d:15:12:e9:a1:9a:5e:f1:c1:13:51:
                    de:b2:18:fb:77:bd:0c:25:f6:b3:d7:2b:a8:46:a0:
                    2a:90:a0:a2:ed:d1:f5:e3:2a:91:1f:3d:da:48:d3:
                    6d:4f:f5:dc:b7:7d:db:f3:f3:ed:b1:f0:06:86:af:
                    38:17:16:b5:4b:9c:7d:4b:73:60:cc:00:99:39:41:
                    d3:3c:ef:65:6b:f1:1c:ac:83:3a:27:74:36:de:2a:
                    de:bb:63:15:3e:1b:55:5f:e3:c4:aa:5c:4c:83:15:
                    ba:e0:c0:64:07:6a:d0:72:62:19:15:88:85:11:57:
                    b2:04:4b:3f:39:2b:25:2e:eb:dc:a5:05:3b:81:01:
                    88:0c:3e:22:9c:29:73:25:78:c8:9f:58:27:2d:ff:
                    f2:e4:f9:43:f2:66:bd:c0:aa:64:22:dc:ac:57:7a:
                    23:13:9c:25:00:53:68:30:0c:38:02:19:f4:31:2e:
                    df:1f:04:dd:b7:e3:ae:bb:c0:45:84:45:21:64:f9:
                    44:6d
                Exponent: 65537 (0x10001)
        X509v3 extensions:
            Netscape Cert Type: 
                SSL Server
            X509v3 Subject Key Identifier: 
                40:53:20:17:7B:32:DE:D7:48:FE:47:D9:8B:97:F7:DB:CA:09:DF:A3
            X509v3 Authority Key Identifier: 
                keyid:3B:D6:D1:53:18:87:05:22:BB:EE:C3:0F:F5:CE:0F:6B:A2:93:A7:B8
                DirName:/CN=BANGALORECA_CA/C=IN/O=CITRIX/OU=ANG/ST=KA/emailAddress=BANGALORECA_CA@BANGALORECA_mail.com
                serial:A1:AC:B4:DA:46:53:58:40

            Authority Information Access: 
                OCSP - URI:http://BANGALORECA_one.ocsptest.com/responderpath

    Signature Algorithm: sha256WithRSAEncryption
         7e:70:82:3e:1a:a8:79:ef:2a:a2:93:6c:94:7c:61:c3:d7:d8:
         8e:25:8d:87:f3:91:3e:ad:d9:f2:ec:0d:a8:86:50:04:0c:b6:
         b5:e5:32:b3:8f:40:a7:5c:fc:fe:93:25:2a:a3:4f:94:d0:c7:
         68:74:2b:7b:03:d4:ca:b8:7f:8b:e2:e1:77:92:ff:f3:91:97:
         d1:1a:6f:23:d2:99:95:c7:09:ad:ad:a0:97:ca:d4:7a:e3:7c:
         fd:56:22:20:8e:fc:51:89:8d:c3:28:e7:09:4f:a3:30:21:60:
         bf:44:83:6d:bf:d1:98:c6:ef:98:9a:85:5a:3a:c7:88:9f:ff:
         90:fc:1d:5c:c7:47:27:58:7d:27:ce:53:8c:5b:f5:b5:9c:1d:
         46:72:0e:b4:52:95:a0:03:53:6c:71:54:ac:cb:32:73:ce:a7:
         01:b9:33:f1:23:c8:12:95:ca:9e:db:69:7e:20:e3:91:9c:32:
         5d:6c:56:f9:3e:85:8d:09:f1:65:41:ed:7b:8e:0f:b3:b8:0f:
         92:9b:58:8c:70:fd:27:49:69:16:43:3e:62:1f:9a:e1:77:01:
         79:de:e6:0b:eb:ff:ac:66:e8:31:92:94:aa:1f:f2:77:32:bf:
         fb:ba:dc:e3:7c:07:35:6e:72:01:82:c1:59:89:f6:69:9c:12:
         53:41:0b:b0
-----BEGIN CERTIFICATE-----
MIIExDCCA6ygAwIBAgIGCgsMDQ4TMA0GCSqGSIb3DQEBCwUAMIGGMRcwFQYDVQQD
FA5CQU5HQUxPUkVDQV9DQTELMAkGA1UEBhMCSU4xDzANBgNVBAoTBkNJVFJJWDEM
MAoGA1UECxMDQU5HMQswCQYDVQQIEwJLQTEyMDAGCSqGSIb3DQEJARYjQkFOR0FM
T1JFQ0FfQ0FAQkFOR0FMT1JFQ0FfbWFpbC5jb20wHhcNMTYwNzA4MDQzMTIwWhcN
MjYwNzA2MDQzMTIwWjB4MQswCQYDVQQIEwJLQTELMAkGA1UEBhMCSU4xHzAdBgNV
BAMUFjEwNV9CQU5HQUxPUkVDQV9zZXJ2ZXIxKjAoBgkqhkiG9w0BCQEWGzEwNV9C
QU5HQUxPUkVDQUB0ZXN0X2NhLmNvbTEPMA0GA1UEChMGQ0lUUklYMIIBIjANBgkq
hkiG9w0BAQEFAAOCAQ8AMIIBCgKCAQEAxqiv5fsMdJfsUT1laUHWiOaCYB7FfN87
b4cdOSuxrBWHO/AqdpChE4t7qp44FtMEHBbAuc/Y74qn0jMtzJI2DRUS6aGaXvHB
E1Heshj7d70MJfaz1yuoRqAqkKCi7dH14yqRHz3aSNNtT/Xct33b8/PtsfAGhq84
Fxa1S5x9S3NgzACZOUHTPO9la/EcrIM6J3Q23ireu2MVPhtVX+PEqlxMgxW64MBk
B2rQcmIZFYiFEVeyBEs/OSslLuvcpQU7gQGIDD4inClzJXjIn1gnLf/y5PlD8ma9
wKpkItysV3ojE5wlAFNoMAw4Ahn0MS7fHwTdt+Ouu8BFhEUhZPlEbQIDAQABo4IB
QzCCAT8wEQYJYIZIAYb4QgEBBAQDAgZAMB0GA1UdDgQWBBRAUyAXezLe10j+R9mL
l/fbygnfozCBuwYDVR0jBIGzMIGwgBQ71tFTGIcFIrvuww/1zg9ropOnuKGBjKSB
iTCBhjEXMBUGA1UEAxQOQkFOR0FMT1JFQ0FfQ0ExCzAJBgNVBAYTAklOMQ8wDQYD
VQQKEwZDSVRSSVgxDDAKBgNVBAsTA0FORzELMAkGA1UECBMCS0ExMjAwBgkqhkiG
9w0BCQEWI0JBTkdBTE9SRUNBX0NBQEJBTkdBTE9SRUNBX21haWwuY29tggkAoay0
2kZTWEAwTQYIKwYBBQUHAQEEQTA/MD0GCCsGAQUFBzABhjFodHRwOi8vQkFOR0FM
T1JFQ0Ffb25lLm9jc3B0ZXN0LmNvbS9yZXNwb25kZXJwYXRoMA0GCSqGSIb3DQEB
CwUAA4IBAQB+cII+Gqh57yqik2yUfGHD19iOJY2H85E+rdny7A2ohlAEDLa15TKz
j0CnXPz+kyUqo0+U0MdodCt7A9TKuH+L4uF3kv/zkZfRGm8j0pmVxwmtraCXytR6
43z9ViIgjvxRiY3DKOcJT6MwIWC/RINtv9GYxu+YmoVaOseIn/+Q/B1cx0cnWH0n
zlOMW/W1nB1Gcg60UpWgA1NscVSsyzJzzqcBuTPxI8gSlcqe22l+IOORnDJdbFb5
PoWNCfFlQe17jg+zuA+Sm1iMcP0nSWkWQz5iH5rhdwF53uYL6/+sZugxkpSqH/J3
Mr/7utzjfAc1bnIBgsFZifZpnBJTQQuw
-----END CERTIFICATE-----
