Certificate:
    Data:
        Version: 3 (0x2)
        Serial Number: 11042563100180 (0xa0b0c0d0e14)
    Signature Algorithm: sha256WithRSAEncryption
        Issuer: CN=OOTYCA_CA, C=IN, O=CITRIX, OU=ANG, ST=KA/emailAddress=OOTYCA_CA@OOTYCA_mail.com
        Validity
            Not Before: Jul  8 04:37:03 2016 GMT
            Not After : Jul  6 04:37:03 2026 GMT
        Subject: ST=KA, C=IN, CN=106_OOTYCA_server/emailAddress=106_OOTYCA@test_ca.com, O=CITRIX
        Subject Public Key Info:
            Public Key Algorithm: rsaEncryption
                Public-Key: (2048 bit)
                Modulus:
                    00:d7:b5:6c:9d:58:32:fe:f7:0a:33:ab:0c:b7:50:
                    6d:91:65:bd:8f:4d:53:3c:c4:2f:bf:72:ce:50:7b:
                    f9:c2:0e:00:66:5e:9d:f8:7e:7f:5c:54:37:17:78:
                    b0:4c:c5:13:3b:7f:41:6e:e2:7e:5b:31:37:7a:60:
                    c1:30:07:cd:55:d3:d2:b4:1c:80:b6:9f:0f:8c:81:
                    e1:ba:2a:4b:1d:e7:62:f8:54:c4:6a:4d:90:37:bb:
                    e6:22:d9:2f:ce:c4:9a:ba:b6:9c:e0:8c:13:01:c2:
                    ec:97:c3:08:b3:a8:10:a1:8c:5b:ef:1f:42:bd:c4:
                    42:47:4b:65:7b:ec:7f:73:34:c8:6d:14:e7:75:4f:
                    13:3e:28:9e:45:e9:1d:48:62:88:8e:d2:28:db:6a:
                    7f:75:10:0f:56:61:59:23:c3:ab:42:55:33:c8:08:
                    e9:f1:aa:4a:b3:4e:21:da:b7:d6:ba:38:c9:a3:20:
                    54:f8:a5:59:15:25:12:1e:b5:51:09:f4:fd:fd:cb:
                    ef:32:59:68:73:ea:6a:84:22:77:96:9d:41:de:ab:
                    35:31:f7:ef:9b:de:4d:28:ab:87:6b:aa:e8:12:c4:
                    72:f8:40:02:18:a1:3e:0f:58:25:e2:92:7e:60:1c:
                    8d:b2:17:5e:43:42:27:09:da:82:cf:c3:f6:77:10:
                    d9:03
                Exponent: 65537 (0x10001)
        X509v3 extensions:
            Netscape Cert Type: 
                SSL Server
            X509v3 Subject Key Identifier: 
                E7:AA:8A:AF:C6:59:26:DA:83:E9:82:DE:A3:60:0B:C7:52:D4:F0:CB
            X509v3 Authority Key Identifier: 
                keyid:9E:A0:B1:FE:A8:B8:21:30:13:39:F2:C3:C1:A8:43:CB:5D:73:FC:B5
                DirName:/CN=OOTYCA_CA/C=IN/O=CITRIX/OU=ANG/ST=KA/emailAddress=OOTYCA_CA@OOTYCA_mail.com
                serial:AA:C2:AB:74:21:09:60:FF

            Authority Information Access: 
                OCSP - URI:http://OOTYCA_one.ocsptest.com/responderpath

    Signature Algorithm: sha256WithRSAEncryption
         71:bc:66:34:9f:c0:e3:96:b2:42:8d:ce:6b:c2:47:f0:00:96:
         a3:32:d5:ff:1f:40:1d:f8:5a:a8:d4:76:de:9e:64:0f:e8:4b:
         26:24:d1:20:3c:2a:d0:a6:1a:44:f9:18:4b:a6:ae:77:be:18:
         9d:d6:3b:30:af:3e:61:e8:d8:7d:16:7c:c0:09:d4:09:8a:57:
         0a:10:c6:ab:eb:97:36:8d:d7:ab:71:5b:a0:d4:49:b8:8e:e5:
         79:d4:a5:b3:d0:7b:fc:63:80:78:b9:d5:91:b1:ff:3d:de:ec:
         4f:9e:89:1c:48:3b:06:67:3b:bd:6f:8a:42:d0:5d:02:08:c1:
         c1:31:16:fc:e5:0c:25:58:ea:17:40:61:51:03:df:71:cc:a8:
         86:ce:0a:83:68:14:87:ae:05:c1:54:e6:ef:3d:3d:6a:3b:63:
         c2:a9:c9:64:b4:37:82:8b:1b:84:82:96:fd:cc:da:a4:ea:0e:
         42:3a:07:47:e6:14:e1:89:b5:3e:e7:f2:68:ad:70:cb:42:e6:
         f6:3e:68:20:a3:a2:78:6c:4e:af:bf:eb:e5:46:4c:a0:e9:0a:
         6e:fe:7f:00:16:f6:dc:6c:20:37:7d:01:a1:d5:ae:d1:fa:5f:
         6b:c7:e9:e3:80:f7:2a:82:3c:8d:b4:f4:66:85:29:da:8d:81:
         70:4d:91:ea
-----BEGIN CERTIFICATE-----
MIIEkzCCA3ugAwIBAgIGCgsMDQ4UMA0GCSqGSIb3DQEBCwUAMHcxEjAQBgNVBAMU
CU9PVFlDQV9DQTELMAkGA1UEBhMCSU4xDzANBgNVBAoTBkNJVFJJWDEMMAoGA1UE
CxMDQU5HMQswCQYDVQQIEwJLQTEoMCYGCSqGSIb3DQEJARYZT09UWUNBX0NBQE9P
VFlDQV9tYWlsLmNvbTAeFw0xNjA3MDgwNDM3MDNaFw0yNjA3MDYwNDM3MDNaMG4x
CzAJBgNVBAgTAktBMQswCQYDVQQGEwJJTjEaMBgGA1UEAxQRMTA2X09PVFlDQV9z
ZXJ2ZXIxJTAjBgkqhkiG9w0BCQEWFjEwNl9PT1RZQ0FAdGVzdF9jYS5jb20xDzAN
BgNVBAoTBkNJVFJJWDCCASIwDQYJKoZIhvcNAQEBBQADggEPADCCAQoCggEBANe1
bJ1YMv73CjOrDLdQbZFlvY9NUzzEL79yzlB7+cIOAGZenfh+f1xUNxd4sEzFEzt/
QW7iflsxN3pgwTAHzVXT0rQcgLafD4yB4boqSx3nYvhUxGpNkDe75iLZL87Emrq2
nOCMEwHC7JfDCLOoEKGMW+8fQr3EQkdLZXvsf3M0yG0U53VPEz4onkXpHUhiiI7S
KNtqf3UQD1ZhWSPDq0JVM8gI6fGqSrNOIdq31ro4yaMgVPilWRUlEh61UQn0/f3L
7zJZaHPqaoQid5adQd6rNTH375veTSirh2uq6BLEcvhAAhihPg9YJeKSfmAcjbIX
XkNCJwnags/D9ncQ2QMCAwEAAaOCASwwggEoMBEGCWCGSAGG+EIBAQQEAwIGQDAd
BgNVHQ4EFgQU56qKr8ZZJtqD6YLeo2ALx1LU8MswgakGA1UdIwSBoTCBnoAUnqCx
/qi4ITATOfLDwahDy11z/LWhe6R5MHcxEjAQBgNVBAMUCU9PVFlDQV9DQTELMAkG
A1UEBhMCSU4xDzANBgNVBAoTBkNJVFJJWDEMMAoGA1UECxMDQU5HMQswCQYDVQQI
EwJLQTEoMCYGCSqGSIb3DQEJARYZT09UWUNBX0NBQE9PVFlDQV9tYWlsLmNvbYIJ
AKrCq3QhCWD/MEgGCCsGAQUFBwEBBDwwOjA4BggrBgEFBQcwAYYsaHR0cDovL09P
VFlDQV9vbmUub2NzcHRlc3QuY29tL3Jlc3BvbmRlcnBhdGgwDQYJKoZIhvcNAQEL
BQADggEBAHG8ZjSfwOOWskKNzmvCR/AAlqMy1f8fQB34WqjUdt6eZA/oSyYk0SA8
KtCmGkT5GEumrne+GJ3WOzCvPmHo2H0WfMAJ1AmKVwoQxqvrlzaN16txW6DUSbiO
5XnUpbPQe/xjgHi51ZGx/z3e7E+eiRxIOwZnO71vikLQXQIIwcExFvzlDCVY6hdA
YVED33HMqIbOCoNoFIeuBcFU5u89PWo7Y8KpyWS0N4KLG4SClv3M2qTqDkI6B0fm
FOGJtT7n8mitcMtC5vY+aCCjonhsTq+/6+VGTKDpCm7+fwAW9txsIDd9AaHVrtH6
X2vH6eOA9yqCPI209GaFKdqNgXBNkeo=
-----END CERTIFICATE-----
