Certificate:
    Data:
        Version: 3 (0x2)
        Serial Number: 11042563100180 (0xa0b0c0d0e14)
    Signature Algorithm: sha256WithRSAEncryption
        Issuer: CN=CHENNAICA_CA, C=IN, O=CITRIX, OU=ANG, ST=KA/emailAddress=CHENNAICA_CA@CHENNAICA_mail.com
        Validity
            Not Before: Jul  8 04:33:50 2016 GMT
            Not After : Jul  6 04:33:50 2026 GMT
        Subject: ST=KA, C=IN, CN=106_CHENNAICA_server/emailAddress=106_CHENNAICA@test_ca.com, O=CITRIX
        Subject Public Key Info:
            Public Key Algorithm: rsaEncryption
                Public-Key: (2048 bit)
                Modulus:
                    00:dc:dd:3a:0e:2c:63:3d:07:39:da:14:f7:6c:e8:
                    b7:7c:fe:74:b0:46:c2:fe:b5:66:c4:8f:ab:44:af:
                    6b:48:3e:e0:fa:19:37:a7:49:15:e9:81:be:c4:84:
                    05:cf:e7:e6:a3:f1:d2:0b:70:36:eb:82:3c:c6:4e:
                    d1:83:41:a0:13:7f:de:58:a7:8c:34:2f:c2:73:71:
                    85:78:38:ff:b3:e1:64:24:57:63:bb:b5:c0:2d:a1:
                    08:3c:ab:08:ae:c1:d6:32:39:b4:b8:02:1b:51:5d:
                    88:37:39:d7:b7:94:4e:66:fb:44:20:35:af:ee:56:
                    6c:04:89:fc:1e:69:9e:62:b9:12:e7:1e:40:6c:ec:
                    cf:3d:a8:5c:a1:bb:50:36:96:25:91:dc:c6:27:4b:
                    24:4f:30:f9:32:43:b5:d7:fb:69:ea:d7:dd:a0:a7:
                    07:a5:98:13:6f:8d:56:9a:c4:72:57:57:ad:0f:59:
                    e0:a0:0c:b3:2e:d8:cc:f4:28:74:43:09:7e:3c:8f:
                    d9:3e:94:79:38:9c:6c:a4:56:af:d5:a2:f3:6d:27:
                    36:1a:e5:b9:af:55:79:be:85:e6:88:42:ad:ae:a1:
                    f2:64:29:a5:3d:ed:b8:18:96:32:f4:3c:5d:c9:2f:
                    42:6b:68:e5:0b:d3:f6:af:9b:7d:eb:32:4c:fc:46:
                    9c:13
                Exponent: 65537 (0x10001)
        X509v3 extensions:
            Netscape Cert Type: 
                SSL Server
            X509v3 Subject Key Identifier: 
                A3:28:E8:13:62:7B:1B:6E:46:C3:97:1F:C1:69:18:86:42:8B:56:53
            X509v3 Authority Key Identifier: 
                keyid:BE:CA:53:AC:65:89:18:02:1E:F6:53:A2:50:12:94:60:EC:CC:05:FA
                DirName:/CN=CHENNAICA_CA/C=IN/O=CITRIX/OU=ANG/ST=KA/emailAddress=CHENNAICA_CA@CHENNAICA_mail.com
                serial:87:FB:C4:D4:5E:46:56:70

            Authority Information Access: 
                OCSP - URI:http://CHENNAICA_one.ocsptest.com/responderpath

    Signature Algorithm: sha256WithRSAEncryption
         33:7f:df:b0:ed:56:1b:13:61:f0:6c:d9:dc:e4:e7:4f:a4:44:
         2b:c3:a8:0a:cf:5e:d5:dd:d1:63:ad:17:58:89:b4:d2:34:6a:
         ac:93:6e:71:3c:58:4c:9f:b4:79:5c:f0:eb:a5:c5:04:60:32:
         6b:01:4c:f6:07:b2:6c:ab:6d:bc:5d:a5:66:f1:17:18:e8:5e:
         c0:79:fe:d3:0f:41:f0:87:9f:3a:c1:25:f3:e0:0f:73:89:32:
         79:d2:46:a3:e4:09:50:15:c8:dd:46:1d:cb:ec:92:a8:50:3e:
         9c:40:7a:f0:1f:6f:d3:02:bb:7e:41:ed:ff:a6:ea:68:93:26:
         16:32:54:db:ed:23:04:5a:4b:39:dc:b6:12:40:e7:3e:60:61:
         70:3e:61:37:cf:87:49:b8:30:6c:6f:f1:10:0b:fb:dc:4c:c9:
         37:1f:a6:79:0b:31:9d:80:67:0c:4b:a5:0b:0a:42:45:06:f3:
         27:f3:ba:9e:53:62:9c:50:f0:50:89:85:a0:d9:33:1d:45:11:
         00:dd:79:c6:a7:dd:ef:d3:9a:50:ae:c1:0e:bb:72:fe:b6:05:
         e3:77:48:1c:42:93:8d:eb:29:16:82:84:7e:73:2e:77:97:24:
         de:fe:99:e7:31:79:f2:ae:f0:28:87:f6:10:8e:dd:ae:97:bd:
         57:79:09:23
-----BEGIN CERTIFICATE-----
MIIEsjCCA5qgAwIBAgIGCgsMDQ4UMA0GCSqGSIb3DQEBCwUAMIGAMRUwEwYDVQQD
FAxDSEVOTkFJQ0FfQ0ExCzAJBgNVBAYTAklOMQ8wDQYDVQQKEwZDSVRSSVgxDDAK
BgNVBAsTA0FORzELMAkGA1UECBMCS0ExLjAsBgkqhkiG9w0BCQEWH0NIRU5OQUlD
QV9DQUBDSEVOTkFJQ0FfbWFpbC5jb20wHhcNMTYwNzA4MDQzMzUwWhcNMjYwNzA2
MDQzMzUwWjB0MQswCQYDVQQIEwJLQTELMAkGA1UEBhMCSU4xHTAbBgNVBAMUFDEw
Nl9DSEVOTkFJQ0Ffc2VydmVyMSgwJgYJKoZIhvcNAQkBFhkxMDZfQ0hFTk5BSUNB
QHRlc3RfY2EuY29tMQ8wDQYDVQQKEwZDSVRSSVgwggEiMA0GCSqGSIb3DQEBAQUA
A4IBDwAwggEKAoIBAQDc3ToOLGM9BznaFPds6Ld8/nSwRsL+tWbEj6tEr2tIPuD6
GTenSRXpgb7EhAXP5+aj8dILcDbrgjzGTtGDQaATf95Yp4w0L8JzcYV4OP+z4WQk
V2O7tcAtoQg8qwiuwdYyObS4AhtRXYg3Ode3lE5m+0QgNa/uVmwEifweaZ5iuRLn
HkBs7M89qFyhu1A2liWR3MYnSyRPMPkyQ7XX+2nq192gpwelmBNvjVaaxHJXV60P
WeCgDLMu2Mz0KHRDCX48j9k+lHk4nGykVq/VovNtJzYa5bmvVXm+heaIQq2uofJk
KaU97bgYljL0PF3JL0JraOUL0/avm33rMkz8RpwTAgMBAAGjggE7MIIBNzARBglg
hkgBhvhCAQEEBAMCBkAwHQYDVR0OBBYEFKMo6BNiextuRsOXH8FpGIZCi1ZTMIG1
BgNVHSMEga0wgaqAFL7KU6xliRgCHvZTolASlGDszAX6oYGGpIGDMIGAMRUwEwYD
VQQDFAxDSEVOTkFJQ0FfQ0ExCzAJBgNVBAYTAklOMQ8wDQYDVQQKEwZDSVRSSVgx
DDAKBgNVBAsTA0FORzELMAkGA1UECBMCS0ExLjAsBgkqhkiG9w0BCQEWH0NIRU5O
QUlDQV9DQUBDSEVOTkFJQ0FfbWFpbC5jb22CCQCH+8TUXkZWcDBLBggrBgEFBQcB
AQQ/MD0wOwYIKwYBBQUHMAGGL2h0dHA6Ly9DSEVOTkFJQ0Ffb25lLm9jc3B0ZXN0
LmNvbS9yZXNwb25kZXJwYXRoMA0GCSqGSIb3DQEBCwUAA4IBAQAzf9+w7VYbE2Hw
bNnc5OdPpEQrw6gKz17V3dFjrRdYibTSNGqsk25xPFhMn7R5XPDrpcUEYDJrAUz2
B7Jsq228XaVm8RcY6F7Aef7TD0Hwh586wSXz4A9ziTJ50kaj5AlQFcjdRh3L7JKo
UD6cQHrwH2/TArt+Qe3/pupokyYWMlTb7SMEWks53LYSQOc+YGFwPmE3z4dJuDBs
b/EQC/vcTMk3H6Z5CzGdgGcMS6ULCkJFBvMn87qeU2KcUPBQiYWg2TMdRREA3XnG
p93v05pQrsEOu3L+tgXjd0gcQpON6ykWgoR+cy53lyTe/pnnMXnyrvAoh/YQjt2u
l71XeQkj
-----END CERTIFICATE-----
