Certificate:
    Data:
        Version: 3 (0x2)
        Serial Number: 11042563100180 (0xa0b0c0d0e14)
    Signature Algorithm: sha256WithRSAEncryption
        Issuer: CN=DELHICA_CA, C=IN, O=CITRIX, OU=ANG, ST=KA/emailAddress=DELHICA_CA@DELHICA_mail.com
        Validity
            Not Before: Jul  8 04:34:23 2016 GMT
            Not After : Jul  6 04:34:23 2026 GMT
        Subject: ST=KA, C=IN, CN=106_DELHICA_server/emailAddress=106_DELHICA@test_ca.com, O=CITRIX
        Subject Public Key Info:
            Public Key Algorithm: rsaEncryption
                Public-Key: (2048 bit)
                Modulus:
                    00:ba:10:8b:4f:d6:92:c4:05:a1:78:1f:52:86:b1:
                    50:5e:f2:b2:00:d3:22:4f:6b:c0:f8:55:99:55:48:
                    fd:19:4f:dc:a3:f0:4c:ed:a0:65:e7:cd:b8:df:b6:
                    62:87:2d:af:4f:87:61:eb:70:c6:81:bc:82:cd:78:
                    9a:0f:ee:17:cd:78:39:1b:05:62:50:17:a1:ee:37:
                    a1:4e:cc:9f:02:58:9b:68:fa:f8:74:ef:3f:4c:d3:
                    a8:61:5d:79:5c:11:fe:a9:30:cb:26:ac:93:fc:92:
                    8b:1b:8e:17:a7:4c:50:1a:50:94:6b:57:85:5a:bc:
                    15:26:68:8a:30:ee:0c:43:da:f7:f6:ef:74:af:f3:
                    53:cf:75:09:2c:96:34:62:6c:c3:a3:c9:ab:4c:0c:
                    09:38:ab:60:ca:81:51:e8:0f:a9:33:1c:be:ef:81:
                    37:6f:df:e4:44:c9:ea:f2:c0:0f:24:9f:12:1b:6e:
                    f9:96:f1:4c:42:01:65:fc:a1:22:1f:13:af:7d:51:
                    e6:bf:7d:21:df:f5:48:ba:63:d2:69:cc:85:68:b1:
                    52:f8:84:7a:3a:b0:41:a7:a9:48:d4:da:11:d6:3a:
                    88:2c:6a:40:3a:d0:c7:23:77:14:fd:28:a5:bf:50:
                    c0:82:3b:f0:c6:7d:37:de:8f:59:39:84:bd:ff:1d:
                    b3:59
                Exponent: 65537 (0x10001)
        X509v3 extensions:
            Netscape Cert Type: 
                SSL Server
            X509v3 Subject Key Identifier: 
                E0:AA:05:29:DB:0C:39:E9:19:7B:92:7E:59:55:F8:F4:66:D3:FB:E6
            X509v3 Authority Key Identifier: 
                keyid:D7:37:52:01:DC:2C:7A:57:85:CA:30:39:30:F0:D5:5D:5A:31:03:02
                DirName:/CN=DELHICA_CA/C=IN/O=CITRIX/OU=ANG/ST=KA/emailAddress=DELHICA_CA@DELHICA_mail.com
                serial:94:59:DC:51:4E:A5:13:27

            Authority Information Access: 
                OCSP - URI:http://DELHICA_one.ocsptest.com/responderpath

    Signature Algorithm: sha256WithRSAEncryption
         51:12:8e:e6:20:d5:1f:ee:1e:e1:41:4e:48:c0:12:80:7d:50:
         ae:66:27:a7:a7:22:6b:b9:c5:22:88:1e:24:8c:38:62:6a:55:
         f2:c5:69:6b:50:f5:f2:4a:5f:6c:1b:ea:af:ab:ce:e7:d9:42:
         99:13:1f:71:de:f2:bd:79:46:fc:b7:cf:c5:4d:8f:65:2e:41:
         88:28:fc:94:bb:a8:a9:b6:cc:6b:7f:30:90:43:7e:36:3f:0a:
         12:63:8b:88:f1:93:93:a3:cb:29:e6:88:58:8d:61:b8:99:99:
         d3:da:a1:dd:3c:01:17:54:fb:6d:1b:41:a8:94:3e:4e:a4:73:
         82:f6:9e:63:2c:b9:f4:9e:80:76:5a:66:db:8d:2e:91:8a:e7:
         a3:40:b6:01:16:69:a4:68:4f:b2:d3:70:87:67:f1:f9:27:01:
         85:ee:0a:3e:34:f6:a2:8d:79:6e:00:30:71:c4:df:b7:11:70:
         25:4e:6f:da:ef:b4:74:12:59:38:f6:d6:92:7f:98:91:8b:3d:
         b2:5c:54:97:30:46:30:f9:db:c3:c3:1c:77:33:2f:5e:cc:c6:
         d4:4d:18:e0:e7:b0:90:86:34:e3:86:0b:dd:0f:a5:06:fe:58:
         45:29:2b:91:10:e7:f8:9d:38:f7:24:2b:32:c8:5b:0e:a3:ae:
         58:cb:a2:6f
-----BEGIN CERTIFICATE-----
MIIEnDCCA4SgAwIBAgIGCgsMDQ4UMA0GCSqGSIb3DQEBCwUAMHoxEzARBgNVBAMU
CkRFTEhJQ0FfQ0ExCzAJBgNVBAYTAklOMQ8wDQYDVQQKEwZDSVRSSVgxDDAKBgNV
BAsTA0FORzELMAkGA1UECBMCS0ExKjAoBgkqhkiG9w0BCQEWG0RFTEhJQ0FfQ0FA
REVMSElDQV9tYWlsLmNvbTAeFw0xNjA3MDgwNDM0MjNaFw0yNjA3MDYwNDM0MjNa
MHAxCzAJBgNVBAgTAktBMQswCQYDVQQGEwJJTjEbMBkGA1UEAxQSMTA2X0RFTEhJ
Q0Ffc2VydmVyMSYwJAYJKoZIhvcNAQkBFhcxMDZfREVMSElDQUB0ZXN0X2NhLmNv
bTEPMA0GA1UEChMGQ0lUUklYMIIBIjANBgkqhkiG9w0BAQEFAAOCAQ8AMIIBCgKC
AQEAuhCLT9aSxAWheB9ShrFQXvKyANMiT2vA+FWZVUj9GU/co/BM7aBl582437Zi
hy2vT4dh63DGgbyCzXiaD+4XzXg5GwViUBeh7jehTsyfAlibaPr4dO8/TNOoYV15
XBH+qTDLJqyT/JKLG44Xp0xQGlCUa1eFWrwVJmiKMO4MQ9r39u90r/NTz3UJLJY0
YmzDo8mrTAwJOKtgyoFR6A+pMxy+74E3b9/kRMnq8sAPJJ8SG275lvFMQgFl/KEi
HxOvfVHmv30h3/VIumPSacyFaLFS+IR6OrBBp6lI1NoR1jqILGpAOtDHI3cU/Sil
v1DAgjvwxn033o9ZOYS9/x2zWQIDAQABo4IBMDCCASwwEQYJYIZIAYb4QgEBBAQD
AgZAMB0GA1UdDgQWBBTgqgUp2ww56Rl7kn5ZVfj0ZtP75jCBrAYDVR0jBIGkMIGh
gBTXN1IB3Cx6V4XKMDkw8NVdWjEDAqF+pHwwejETMBEGA1UEAxQKREVMSElDQV9D
QTELMAkGA1UEBhMCSU4xDzANBgNVBAoTBkNJVFJJWDEMMAoGA1UECxMDQU5HMQsw
CQYDVQQIEwJLQTEqMCgGCSqGSIb3DQEJARYbREVMSElDQV9DQUBERUxISUNBX21h
aWwuY29tggkAlFncUU6lEycwSQYIKwYBBQUHAQEEPTA7MDkGCCsGAQUFBzABhi1o
dHRwOi8vREVMSElDQV9vbmUub2NzcHRlc3QuY29tL3Jlc3BvbmRlcnBhdGgwDQYJ
KoZIhvcNAQELBQADggEBAFESjuYg1R/uHuFBTkjAEoB9UK5mJ6enImu5xSKIHiSM
OGJqVfLFaWtQ9fJKX2wb6q+rzufZQpkTH3He8r15Rvy3z8VNj2UuQYgo/JS7qKm2
zGt/MJBDfjY/ChJji4jxk5OjyynmiFiNYbiZmdPaod08ARdU+20bQaiUPk6kc4L2
nmMsufSegHZaZtuNLpGK56NAtgEWaaRoT7LTcIdn8fknAYXuCj409qKNeW4AMHHE
37cRcCVOb9rvtHQSWTj21pJ/mJGLPbJcVJcwRjD528PDHHczL17MxtRNGODnsJCG
NOOGC90PpQb+WEUpK5EQ5/idOPckKzLIWw6jrljLom8=
-----END CERTIFICATE-----
