Certificate:
    Data:
        Version: 3 (0x2)
        Serial Number: 11042563100180 (0xa0b0c0d0e14)
    Signature Algorithm: sha256WithRSAEncryption
        Issuer: CN=BHOPALCA_CA, C=IN, O=CITRIX, OU=ANG, ST=KA/emailAddress=BHOPALCA_CA@BHOPALCA_mail.com
        Validity
            Not Before: Jul  8 04:32:33 2016 GMT
            Not After : Jul  6 04:32:33 2026 GMT
        Subject: ST=KA, C=IN, CN=106_BHOPALCA_server/emailAddress=106_BHOPALCA@test_ca.com, O=CITRIX
        Subject Public Key Info:
            Public Key Algorithm: rsaEncryption
                Public-Key: (2048 bit)
                Modulus:
                    00:9c:c2:87:84:7a:fb:44:bd:ef:cd:2b:ae:d3:cc:
                    22:1c:c6:6a:0c:ed:b6:b4:c7:15:01:d0:16:64:5e:
                    53:d8:6e:8b:72:43:ef:6a:43:80:01:85:4d:69:26:
                    bc:34:0d:0e:05:4b:86:4f:3b:4a:2f:e7:dc:c8:49:
                    07:b2:f4:cc:2d:48:04:26:96:4e:b9:48:71:c5:35:
                    23:9b:51:44:5e:72:54:7c:e0:af:12:ca:b8:c9:fd:
                    78:7b:ea:b0:42:19:e0:ef:d7:3c:20:40:ef:46:fe:
                    ec:07:a0:9f:99:76:97:34:38:45:7f:3d:31:3d:bf:
                    ce:55:b1:cf:52:45:94:9c:8c:de:47:b5:ff:15:ed:
                    b1:b9:44:21:14:74:4c:5a:2c:61:07:12:e2:95:08:
                    f0:36:2c:83:8c:de:5a:0e:e5:b8:96:b1:67:d5:8c:
                    4f:e3:c6:fa:7b:e0:4b:dd:7c:b8:34:80:8c:54:61:
                    3b:e3:ed:89:09:4d:80:9f:13:40:56:83:09:87:6f:
                    b1:9a:55:fb:c2:12:a3:47:af:28:2c:7f:24:80:4d:
                    b4:07:e9:50:aa:89:70:6d:11:3c:09:f0:e2:b4:ff:
                    6c:c1:6b:4a:9f:c2:5c:85:2d:2c:d8:33:e5:93:2d:
                    03:e1:2d:7c:36:83:1d:8e:b0:0b:c7:16:b6:5d:58:
                    39:ed
                Exponent: 65537 (0x10001)
        X509v3 extensions:
            Netscape Cert Type: 
                SSL Server
            X509v3 Subject Key Identifier: 
                96:CC:06:4F:BF:F0:40:2D:4D:B7:A9:40:CE:54:27:00:AC:2F:20:F3
            X509v3 Authority Key Identifier: 
                keyid:A6:66:0E:59:0F:3C:5C:11:35:B2:B3:99:59:A9:D3:A6:B1:5E:95:D2
                DirName:/CN=BHOPALCA_CA/C=IN/O=CITRIX/OU=ANG/ST=KA/emailAddress=BHOPALCA_CA@BHOPALCA_mail.com
                serial:BE:89:55:F3:65:28:17:9A

            Authority Information Access: 
                OCSP - URI:http://BHOPALCA_one.ocsptest.com/responderpath

    Signature Algorithm: sha256WithRSAEncryption
         7a:1e:8c:e0:ef:b7:87:63:e9:1c:0a:f9:57:2a:1c:8a:95:08:
         71:4c:28:20:f5:24:34:4d:fa:19:d4:d2:77:b3:51:b2:38:c4:
         78:68:18:27:40:52:36:83:a8:b0:cd:9e:8d:2c:db:0d:1e:6e:
         56:f4:1d:d5:84:19:8f:1b:c9:e4:2b:a5:c5:49:8b:95:b2:ff:
         c7:d0:b0:d1:29:a1:d6:ad:8b:4a:49:9a:00:21:d7:c8:5a:3b:
         f3:88:ec:1d:5e:a6:45:45:b1:15:f2:24:82:94:45:f6:c5:8b:
         ba:2e:60:97:82:b5:19:6c:95:b4:7b:2d:9d:58:5b:96:16:65:
         44:cb:19:a9:07:40:3d:85:2c:56:57:37:54:ca:03:13:42:9c:
         e0:91:23:c4:4c:68:9f:85:87:53:fc:5b:fe:2c:26:5d:b9:e9:
         d7:81:dd:6e:7d:ea:36:f3:dd:00:71:68:9d:99:d8:25:94:b3:
         30:bc:37:31:7b:7d:42:af:34:91:7d:7c:f5:c8:8b:ab:d8:03:
         15:1e:4e:98:01:99:89:f5:30:54:d9:1f:77:ad:a7:68:b4:19:
         66:46:10:76:4c:8f:d6:30:1c:3a:23:e4:de:2b:69:31:06:af:
         2a:3f:60:bf:db:cc:7c:76:90:20:57:e1:ed:14:4e:36:8a:b9:
         d5:c3:05:27
-----BEGIN CERTIFICATE-----
MIIEpjCCA46gAwIBAgIGCgsMDQ4UMA0GCSqGSIb3DQEBCwUAMH0xFDASBgNVBAMU
C0JIT1BBTENBX0NBMQswCQYDVQQGEwJJTjEPMA0GA1UEChMGQ0lUUklYMQwwCgYD
VQQLEwNBTkcxCzAJBgNVBAgTAktBMSwwKgYJKoZIhvcNAQkBFh1CSE9QQUxDQV9D
QUBCSE9QQUxDQV9tYWlsLmNvbTAeFw0xNjA3MDgwNDMyMzNaFw0yNjA3MDYwNDMy
MzNaMHIxCzAJBgNVBAgTAktBMQswCQYDVQQGEwJJTjEcMBoGA1UEAxQTMTA2X0JI
T1BBTENBX3NlcnZlcjEnMCUGCSqGSIb3DQEJARYYMTA2X0JIT1BBTENBQHRlc3Rf
Y2EuY29tMQ8wDQYDVQQKEwZDSVRSSVgwggEiMA0GCSqGSIb3DQEBAQUAA4IBDwAw
ggEKAoIBAQCcwoeEevtEve/NK67TzCIcxmoM7ba0xxUB0BZkXlPYbotyQ+9qQ4AB
hU1pJrw0DQ4FS4ZPO0ov59zISQey9MwtSAQmlk65SHHFNSObUUReclR84K8SyrjJ
/Xh76rBCGeDv1zwgQO9G/uwHoJ+Zdpc0OEV/PTE9v85Vsc9SRZScjN5Htf8V7bG5
RCEUdExaLGEHEuKVCPA2LIOM3loO5biWsWfVjE/jxvp74EvdfLg0gIxUYTvj7YkJ
TYCfE0BWgwmHb7GaVfvCEqNHrygsfySATbQH6VCqiXBtETwJ8OK0/2zBa0qfwlyF
LSzYM+WTLQPhLXw2gx2OsAvHFrZdWDntAgMBAAGjggE1MIIBMTARBglghkgBhvhC
AQEEBAMCBkAwHQYDVR0OBBYEFJbMBk+/8EAtTbepQM5UJwCsLyDzMIGwBgNVHSME
gagwgaWAFKZmDlkPPFwRNbKzmVmp06axXpXSoYGBpH8wfTEUMBIGA1UEAxQLQkhP
UEFMQ0FfQ0ExCzAJBgNVBAYTAklOMQ8wDQYDVQQKEwZDSVRSSVgxDDAKBgNVBAsT
A0FORzELMAkGA1UECBMCS0ExLDAqBgkqhkiG9w0BCQEWHUJIT1BBTENBX0NBQEJI
T1BBTENBX21haWwuY29tggkAvolV82UoF5owSgYIKwYBBQUHAQEEPjA8MDoGCCsG
AQUFBzABhi5odHRwOi8vQkhPUEFMQ0Ffb25lLm9jc3B0ZXN0LmNvbS9yZXNwb25k
ZXJwYXRoMA0GCSqGSIb3DQEBCwUAA4IBAQB6Hozg77eHY+kcCvlXKhyKlQhxTCgg
9SQ0TfoZ1NJ3s1GyOMR4aBgnQFI2g6iwzZ6NLNsNHm5W9B3VhBmPG8nkK6XFSYuV
sv/H0LDRKaHWrYtKSZoAIdfIWjvziOwdXqZFRbEV8iSClEX2xYu6LmCXgrUZbJW0
ey2dWFuWFmVEyxmpB0A9hSxWVzdUygMTQpzgkSPETGifhYdT/Fv+LCZduenXgd1u
feo2890AcWidmdgllLMwvDcxe31CrzSRfXz1yIur2AMVHk6YAZmJ9TBU2R93rado
tBlmRhB2TI/WMBw6I+TeK2kxBq8qP2C/28x8dpAgV+HtFE42irnVwwUn
-----END CERTIFICATE-----
