Certificate:
    Data:
        Version: 3 (0x2)
        Serial Number: 11042563100181 (0xa0b0c0d0e15)
    Signature Algorithm: sha256WithRSAEncryption
        Issuer: CN=DELHICA_CA, C=IN, O=CITRIX, OU=ANG, ST=KA/emailAddress=DELHICA_CA@DELHICA_mail.com
        Validity
            Not Before: Jul  8 04:34:23 2016 GMT
            Not After : Jul  6 04:34:23 2026 GMT
        Subject: ST=KA, C=IN, CN=107_DELHICA_server/emailAddress=107_DELHICA@test_ca.com, O=CITRIX
        Subject Public Key Info:
            Public Key Algorithm: rsaEncryption
                Public-Key: (2048 bit)
                Modulus:
                    00:ab:06:81:aa:4d:2d:f3:00:fc:e4:b0:66:d2:2b:
                    fc:3e:3e:3d:95:c0:d6:14:d1:0e:b1:06:28:9c:aa:
                    34:f4:35:70:18:46:96:d2:ae:a8:14:9e:c6:3f:90:
                    c0:28:a5:1c:47:9e:95:4a:dd:fb:03:40:2e:b5:3a:
                    8a:b1:fb:37:f2:26:cb:61:a5:ac:3c:28:de:f6:26:
                    20:ca:68:0e:39:b4:33:39:0d:2a:43:4e:3a:ea:13:
                    21:e2:76:85:46:41:55:5a:cd:fd:c8:72:bf:7e:e6:
                    81:79:09:d5:bd:f3:34:18:d8:42:24:0d:93:6c:61:
                    ca:71:4c:e7:56:67:4a:50:75:23:4f:12:20:d1:93:
                    91:8a:97:c8:4d:93:3a:a6:5b:12:4c:a6:32:72:07:
                    4c:1d:f3:11:ae:c6:5a:fc:7e:7f:e3:11:d6:d9:06:
                    c3:0c:0f:f5:3a:a3:c1:e8:40:7e:d5:4a:94:61:13:
                    07:e0:73:04:5d:77:f1:2e:cc:55:e4:63:e5:80:16:
                    db:26:b2:a0:b0:cb:bf:aa:f9:05:ea:6c:08:2b:8a:
                    e8:f2:f3:6e:ca:ed:dc:fd:1b:cc:bc:b6:4c:e8:2a:
                    fc:b9:ce:c3:65:f0:47:df:b8:3e:b4:f4:c7:74:7c:
                    67:e0:e6:c8:bb:ae:c8:da:61:9f:75:db:af:f1:bb:
                    ca:37
                Exponent: 65537 (0x10001)
        X509v3 extensions:
            Netscape Cert Type: 
                SSL Server
            X509v3 Subject Key Identifier: 
                2C:3B:99:0F:A8:07:8D:76:EC:2E:7C:CD:FF:52:BC:16:87:37:35:B5
            X509v3 Authority Key Identifier: 
                keyid:D7:37:52:01:DC:2C:7A:57:85:CA:30:39:30:F0:D5:5D:5A:31:03:02
                DirName:/CN=DELHICA_CA/C=IN/O=CITRIX/OU=ANG/ST=KA/emailAddress=DELHICA_CA@DELHICA_mail.com
                serial:94:59:DC:51:4E:A5:13:27

            Authority Information Access: 
                OCSP - URI:http://DELHICA_one.ocsptest.com/responderpath

    Signature Algorithm: sha256WithRSAEncryption
         8f:83:2f:4f:06:8e:18:0c:c3:c1:cd:38:04:f5:ea:16:09:a8:
         9e:5d:8d:b7:e1:9a:63:7f:6f:da:d5:c2:c7:59:5e:da:ea:60:
         57:cf:6c:18:49:a6:bb:f9:4a:2e:b7:0f:90:f7:e7:7c:b7:3f:
         cb:cf:dd:3f:b0:d3:e6:a0:bb:77:1c:46:ca:68:f1:a7:7d:94:
         80:a0:c6:20:22:4d:25:e4:86:52:f6:70:04:19:90:e1:dc:eb:
         41:59:08:b4:7a:1e:87:fb:bd:51:a0:df:3e:85:32:b5:1e:5d:
         c6:90:0d:c8:ac:10:80:74:40:89:99:2e:4d:4b:91:eb:18:ac:
         4a:9c:97:84:dd:86:18:8e:9f:66:67:0d:fe:ce:78:23:c0:14:
         1f:0e:33:6f:e6:c6:d1:04:9a:a8:5a:d6:72:7b:d4:b2:d3:50:
         27:2c:6b:58:15:4a:ab:d4:c0:98:2b:7e:c4:1f:ac:61:ea:2f:
         4d:ea:01:05:bb:fa:6a:88:3e:27:13:74:bf:97:48:5b:9f:fa:
         4d:1c:fd:da:ea:10:4c:84:df:6d:d2:df:05:37:40:b1:f6:72:
         3f:0a:03:b0:0e:da:c8:50:f5:ef:28:84:4a:b4:d7:ef:27:11:
         d3:d4:74:23:89:41:1c:71:a6:50:05:f6:8c:2b:f4:b8:27:94:
         dc:2b:22:1b
-----BEGIN CERTIFICATE-----
MIIEnDCCA4SgAwIBAgIGCgsMDQ4VMA0GCSqGSIb3DQEBCwUAMHoxEzARBgNVBAMU
CkRFTEhJQ0FfQ0ExCzAJBgNVBAYTAklOMQ8wDQYDVQQKEwZDSVRSSVgxDDAKBgNV
BAsTA0FORzELMAkGA1UECBMCS0ExKjAoBgkqhkiG9w0BCQEWG0RFTEhJQ0FfQ0FA
REVMSElDQV9tYWlsLmNvbTAeFw0xNjA3MDgwNDM0MjNaFw0yNjA3MDYwNDM0MjNa
MHAxCzAJBgNVBAgTAktBMQswCQYDVQQGEwJJTjEbMBkGA1UEAxQSMTA3X0RFTEhJ
Q0Ffc2VydmVyMSYwJAYJKoZIhvcNAQkBFhcxMDdfREVMSElDQUB0ZXN0X2NhLmNv
bTEPMA0GA1UEChMGQ0lUUklYMIIBIjANBgkqhkiG9w0BAQEFAAOCAQ8AMIIBCgKC
AQEAqwaBqk0t8wD85LBm0iv8Pj49lcDWFNEOsQYonKo09DVwGEaW0q6oFJ7GP5DA
KKUcR56VSt37A0AutTqKsfs38ibLYaWsPCje9iYgymgOObQzOQ0qQ0466hMh4naF
RkFVWs39yHK/fuaBeQnVvfM0GNhCJA2TbGHKcUznVmdKUHUjTxIg0ZORipfITZM6
plsSTKYycgdMHfMRrsZa/H5/4xHW2QbDDA/1OqPB6EB+1UqUYRMH4HMEXXfxLsxV
5GPlgBbbJrKgsMu/qvkF6mwIK4ro8vNuyu3c/RvMvLZM6Cr8uc7DZfBH37g+tPTH
dHxn4ObIu67I2mGfdduv8bvKNwIDAQABo4IBMDCCASwwEQYJYIZIAYb4QgEBBAQD
AgZAMB0GA1UdDgQWBBQsO5kPqAeNduwufM3/UrwWhzc1tTCBrAYDVR0jBIGkMIGh
gBTXN1IB3Cx6V4XKMDkw8NVdWjEDAqF+pHwwejETMBEGA1UEAxQKREVMSElDQV9D
QTELMAkGA1UEBhMCSU4xDzANBgNVBAoTBkNJVFJJWDEMMAoGA1UECxMDQU5HMQsw
CQYDVQQIEwJLQTEqMCgGCSqGSIb3DQEJARYbREVMSElDQV9DQUBERUxISUNBX21h
aWwuY29tggkAlFncUU6lEycwSQYIKwYBBQUHAQEEPTA7MDkGCCsGAQUFBzABhi1o
dHRwOi8vREVMSElDQV9vbmUub2NzcHRlc3QuY29tL3Jlc3BvbmRlcnBhdGgwDQYJ
KoZIhvcNAQELBQADggEBAI+DL08GjhgMw8HNOAT16hYJqJ5djbfhmmN/b9rVwsdZ
XtrqYFfPbBhJprv5Si63D5D353y3P8vP3T+w0+agu3ccRspo8ad9lICgxiAiTSXk
hlL2cAQZkOHc60FZCLR6Hof7vVGg3z6FMrUeXcaQDcisEIB0QImZLk1LkesYrEqc
l4TdhhiOn2ZnDf7OeCPAFB8OM2/mxtEEmqha1nJ71LLTUCcsa1gVSqvUwJgrfsQf
rGHqL03qAQW7+mqIPicTdL+XSFuf+k0c/drqEEyE323S3wU3QLH2cj8KA7AO2shQ
9e8ohEq01+8nEdPUdCOJQRxxplAF9owr9LgnlNwrIhs=
-----END CERTIFICATE-----
