Certificate:
    Data:
        Version: 3 (0x2)
        Serial Number: 11042563100181 (0xa0b0c0d0e15)
    Signature Algorithm: sha256WithRSAEncryption
        Issuer: CN=MUMBAICA_CA, C=IN, O=CITRIX, OU=ANG, ST=KA/emailAddress=MUMBAICA_CA@MUMBAICA_mail.com
        Validity
            Not Before: Jul  8 04:35:48 2016 GMT
            Not After : Jul  6 04:35:48 2026 GMT
        Subject: ST=KA, C=IN, CN=107_MUMBAICA_server/emailAddress=107_MUMBAICA@test_ca.com, O=CITRIX
        Subject Public Key Info:
            Public Key Algorithm: rsaEncryption
                Public-Key: (2048 bit)
                Modulus:
                    00:c6:7b:06:09:4b:76:11:a7:4f:ce:3b:1c:c0:14:
                    58:8c:37:9a:fa:6d:ac:12:f8:55:08:50:cf:34:87:
                    66:2b:4e:7d:4f:3d:7b:e7:57:22:b1:d0:b9:53:ef:
                    b6:76:4d:d6:1e:ef:d9:fa:7a:84:52:2e:11:91:10:
                    f3:78:8a:4f:e4:71:98:c7:6e:a0:0d:f5:fa:6e:4b:
                    8d:20:73:46:1a:68:6c:eb:74:aa:91:38:5b:5e:0a:
                    4f:1a:a9:f8:bc:44:9f:98:e0:ce:61:2b:49:2c:36:
                    a5:88:c5:7e:e1:9c:a1:cb:c2:69:b8:79:9d:fe:cd:
                    50:58:ca:f2:12:b2:38:5d:9c:69:5f:24:00:3a:19:
                    2a:b9:93:c3:f1:c2:47:96:22:4b:cc:f5:18:11:23:
                    14:f8:7c:fb:d5:37:fd:9d:56:db:0c:e2:bf:c2:87:
                    db:fc:47:1f:15:1c:99:69:3a:e0:e1:89:bb:05:9b:
                    12:67:13:dc:42:f9:aa:6b:60:08:27:39:5d:43:e0:
                    75:b5:39:94:56:26:51:64:fe:29:ac:4c:0f:a0:81:
                    da:65:89:9b:81:fe:88:8c:7e:e7:ee:d5:44:12:40:
                    61:e5:20:62:af:7a:5d:3b:3e:ad:8a:93:e4:b1:5b:
                    5d:6a:50:4b:d8:88:13:64:70:60:50:e8:43:b3:07:
                    2c:47
                Exponent: 65537 (0x10001)
        X509v3 extensions:
            Netscape Cert Type: 
                SSL Server
            X509v3 Subject Key Identifier: 
                9B:25:DA:53:C4:F5:80:40:7B:FB:41:05:72:5F:15:2B:14:74:F8:D1
            X509v3 Authority Key Identifier: 
                keyid:37:79:BF:65:19:98:28:32:4E:EF:3E:44:14:19:A9:83:2B:AF:05:7A
                DirName:/CN=MUMBAICA_CA/C=IN/O=CITRIX/OU=ANG/ST=KA/emailAddress=MUMBAICA_CA@MUMBAICA_mail.com
                serial:EE:B1:37:EE:F6:D2:14:91

            Authority Information Access: 
                OCSP - URI:http://MUMBAICA_one.ocsptest.com/responderpath

    Signature Algorithm: sha256WithRSAEncryption
         cd:aa:be:6d:1c:6e:f3:7b:1f:4c:1b:0a:ac:2d:86:1a:db:1c:
         eb:05:e7:d5:8e:bd:29:65:4b:4b:dd:b4:7a:b1:a6:7a:a4:25:
         45:ce:35:7d:0a:95:9e:97:32:6c:fe:00:54:71:d7:d4:22:d3:
         c2:44:3e:5f:ad:88:b5:6f:6c:e1:ff:0a:53:a5:c6:50:2c:6a:
         f3:a7:4e:1f:86:15:27:e1:ec:24:cf:a1:1d:41:7b:bb:df:ca:
         b7:3e:e7:2e:b2:8c:a2:6d:d8:c0:aa:1c:71:a6:e1:a8:aa:f1:
         b8:ea:86:a1:a4:e2:9f:12:1f:64:c3:c7:48:ea:8e:97:91:c5:
         f0:61:28:f3:aa:14:93:1d:9e:77:18:58:a1:85:1c:9c:6a:c5:
         00:81:20:d4:e5:dd:f2:f8:46:fc:b8:bd:ba:3d:82:b7:1a:00:
         c0:96:e5:fb:d7:9d:af:7f:d9:2c:ca:be:cb:fd:06:d7:82:a4:
         ab:30:90:28:5f:59:61:ea:d0:8c:00:3b:4f:c9:f3:a0:70:9b:
         c3:5d:9f:bf:2e:2a:3d:ff:b2:a3:e1:96:41:aa:ef:a0:3c:74:
         58:d0:53:7f:9a:39:94:1d:d1:12:df:29:56:96:aa:8b:9e:01:
         a7:39:5b:43:4f:9e:79:aa:0b:ff:f0:50:ea:0a:91:37:c8:58:
         6e:29:cb:9b
-----BEGIN CERTIFICATE-----
MIIEpjCCA46gAwIBAgIGCgsMDQ4VMA0GCSqGSIb3DQEBCwUAMH0xFDASBgNVBAMU
C01VTUJBSUNBX0NBMQswCQYDVQQGEwJJTjEPMA0GA1UEChMGQ0lUUklYMQwwCgYD
VQQLEwNBTkcxCzAJBgNVBAgTAktBMSwwKgYJKoZIhvcNAQkBFh1NVU1CQUlDQV9D
QUBNVU1CQUlDQV9tYWlsLmNvbTAeFw0xNjA3MDgwNDM1NDhaFw0yNjA3MDYwNDM1
NDhaMHIxCzAJBgNVBAgTAktBMQswCQYDVQQGEwJJTjEcMBoGA1UEAxQTMTA3X01V
TUJBSUNBX3NlcnZlcjEnMCUGCSqGSIb3DQEJARYYMTA3X01VTUJBSUNBQHRlc3Rf
Y2EuY29tMQ8wDQYDVQQKEwZDSVRSSVgwggEiMA0GCSqGSIb3DQEBAQUAA4IBDwAw
ggEKAoIBAQDGewYJS3YRp0/OOxzAFFiMN5r6bawS+FUIUM80h2YrTn1PPXvnVyKx
0LlT77Z2TdYe79n6eoRSLhGREPN4ik/kcZjHbqAN9fpuS40gc0YaaGzrdKqROFte
Ck8aqfi8RJ+Y4M5hK0ksNqWIxX7hnKHLwmm4eZ3+zVBYyvISsjhdnGlfJAA6GSq5
k8PxwkeWIkvM9RgRIxT4fPvVN/2dVtsM4r/Ch9v8Rx8VHJlpOuDhibsFmxJnE9xC
+aprYAgnOV1D4HW1OZRWJlFk/imsTA+ggdpliZuB/oiMfufu1UQSQGHlIGKvel07
Pq2Kk+SxW11qUEvYiBNkcGBQ6EOzByxHAgMBAAGjggE1MIIBMTARBglghkgBhvhC
AQEEBAMCBkAwHQYDVR0OBBYEFJsl2lPE9YBAe/tBBXJfFSsUdPjRMIGwBgNVHSME
gagwgaWAFDd5v2UZmCgyTu8+RBQZqYMrrwV6oYGBpH8wfTEUMBIGA1UEAxQLTVVN
QkFJQ0FfQ0ExCzAJBgNVBAYTAklOMQ8wDQYDVQQKEwZDSVRSSVgxDDAKBgNVBAsT
A0FORzELMAkGA1UECBMCS0ExLDAqBgkqhkiG9w0BCQEWHU1VTUJBSUNBX0NBQE1V
TUJBSUNBX21haWwuY29tggkA7rE37vbSFJEwSgYIKwYBBQUHAQEEPjA8MDoGCCsG
AQUFBzABhi5odHRwOi8vTVVNQkFJQ0Ffb25lLm9jc3B0ZXN0LmNvbS9yZXNwb25k
ZXJwYXRoMA0GCSqGSIb3DQEBCwUAA4IBAQDNqr5tHG7zex9MGwqsLYYa2xzrBefV
jr0pZUtL3bR6saZ6pCVFzjV9CpWelzJs/gBUcdfUItPCRD5frYi1b2zh/wpTpcZQ
LGrzp04fhhUn4ewkz6EdQXu738q3PucusoyibdjAqhxxpuGoqvG46oahpOKfEh9k
w8dI6o6XkcXwYSjzqhSTHZ53GFihhRycasUAgSDU5d3y+Eb8uL26PYK3GgDAluX7
152vf9ksyr7L/QbXgqSrMJAoX1lh6tCMADtPyfOgcJvDXZ+/Lio9/7Kj4ZZBqu+g
PHRY0FN/mjmUHdES3ylWlqqLngGnOVtDT555qgv/8FDqCpE3yFhuKcub
-----END CERTIFICATE-----
