Certificate:
    Data:
        Version: 3 (0x2)
        Serial Number: 11042563100181 (0xa0b0c0d0e15)
    Signature Algorithm: sha256WithRSAEncryption
        Issuer: CN=BANGALORECA_CA, C=IN, O=CITRIX, OU=ANG, ST=KA/emailAddress=BANGALORECA_CA@BANGALORECA_mail.com
        Validity
            Not Before: Jul  8 04:31:21 2016 GMT
            Not After : Jul  6 04:31:21 2026 GMT
        Subject: ST=KA, C=IN, CN=107_BANGALORECA_server/emailAddress=107_BANGALORECA@test_ca.com, O=CITRIX
        Subject Public Key Info:
            Public Key Algorithm: rsaEncryption
                Public-Key: (2048 bit)
                Modulus:
                    00:96:b1:50:61:67:3f:12:26:33:c0:08:0e:cb:9f:
                    40:6e:b7:17:21:e2:e0:9b:a3:d9:71:e9:dd:30:8a:
                    f5:bd:aa:81:4c:0f:6f:c2:50:a9:65:21:79:0f:35:
                    4c:60:97:75:81:90:df:19:6a:ce:fc:30:20:05:e1:
                    dd:a7:df:8a:6d:dd:fb:53:3f:cb:ee:66:59:d6:a7:
                    0e:0d:22:03:1a:1f:aa:6a:33:d0:77:03:f2:58:7e:
                    cf:79:4c:67:db:b0:7c:9a:5a:9b:c0:be:63:a1:f3:
                    81:80:da:76:ac:4f:41:69:00:61:34:03:b6:d4:93:
                    f0:0a:d3:26:f2:0d:c2:fd:4e:8f:4d:42:cc:ba:e7:
                    c9:ed:f6:58:d2:93:37:76:f0:be:33:4f:65:ab:c2:
                    70:46:93:fc:15:ab:9a:85:c3:1e:cb:a4:b8:fb:33:
                    7d:7d:a1:f9:f9:f6:04:81:76:e3:4e:b3:4c:40:b9:
                    53:de:f0:c1:03:b1:e8:f6:d0:ef:8a:03:63:35:64:
                    8e:f7:bb:84:cb:a2:64:8d:81:43:14:2e:59:84:02:
                    be:73:08:b9:b4:0f:74:80:28:1b:91:4e:03:cc:ac:
                    fc:cf:2c:fd:ae:2a:99:08:b7:e8:50:e3:36:31:a7:
                    f5:72:04:ce:82:50:d4:a2:d0:2d:dc:6a:79:64:59:
                    2b:e5
                Exponent: 65537 (0x10001)
        X509v3 extensions:
            Netscape Cert Type: 
                SSL Server
            X509v3 Subject Key Identifier: 
                86:41:8D:FE:06:D5:14:2E:39:96:9B:31:62:5F:E5:87:7E:7D:20:81
            X509v3 Authority Key Identifier: 
                keyid:3B:D6:D1:53:18:87:05:22:BB:EE:C3:0F:F5:CE:0F:6B:A2:93:A7:B8
                DirName:/CN=BANGALORECA_CA/C=IN/O=CITRIX/OU=ANG/ST=KA/emailAddress=BANGALORECA_CA@BANGALORECA_mail.com
                serial:A1:AC:B4:DA:46:53:58:40

            Authority Information Access: 
                OCSP - URI:http://BANGALORECA_one.ocsptest.com/responderpath

    Signature Algorithm: sha256WithRSAEncryption
         34:a3:ca:86:8b:31:60:e1:34:b7:33:4d:9d:bb:32:af:49:73:
         2c:fd:47:85:46:83:ce:88:9d:db:ac:1e:b1:55:3a:9f:02:96:
         d5:cb:8f:fd:03:68:81:bf:db:68:3b:47:ea:4e:e2:af:ef:f2:
         0c:b6:98:29:7e:c3:7c:18:33:51:90:59:b8:54:2a:5c:b2:24:
         f5:75:47:09:ff:ce:3a:b4:e2:7a:81:18:86:41:83:9f:84:64:
         69:9e:cb:4b:02:51:8a:a1:e6:d5:ed:f3:bf:d1:7c:a4:a1:ce:
         81:9a:a6:74:f8:35:19:0c:b0:4d:98:f5:d4:0b:71:af:46:dc:
         5f:c0:50:98:5e:5f:ae:7d:ad:86:21:68:62:5d:4e:9b:80:b2:
         7b:53:d7:ad:37:f8:7e:02:dc:71:a5:c5:ae:80:da:ae:e7:df:
         09:ee:11:27:c9:f2:42:f6:d5:8a:05:83:4c:21:3f:db:7e:26:
         29:9c:5e:79:d9:56:07:2c:c5:f5:ed:c8:01:e2:3d:98:fe:fd:
         19:68:5d:17:5d:4f:f5:8a:12:4d:a2:9f:14:12:5a:2d:1e:20:
         0c:fb:bb:73:32:88:7a:1a:03:58:17:b1:b4:37:22:8d:2b:47:
         58:35:0c:b2:25:46:a9:34:61:b6:a8:99:4d:f3:24:82:09:28:
         25:73:62:d7
-----BEGIN CERTIFICATE-----
MIIExDCCA6ygAwIBAgIGCgsMDQ4VMA0GCSqGSIb3DQEBCwUAMIGGMRcwFQYDVQQD
FA5CQU5HQUxPUkVDQV9DQTELMAkGA1UEBhMCSU4xDzANBgNVBAoTBkNJVFJJWDEM
MAoGA1UECxMDQU5HMQswCQYDVQQIEwJLQTEyMDAGCSqGSIb3DQEJARYjQkFOR0FM
T1JFQ0FfQ0FAQkFOR0FMT1JFQ0FfbWFpbC5jb20wHhcNMTYwNzA4MDQzMTIxWhcN
MjYwNzA2MDQzMTIxWjB4MQswCQYDVQQIEwJLQTELMAkGA1UEBhMCSU4xHzAdBgNV
BAMUFjEwN19CQU5HQUxPUkVDQV9zZXJ2ZXIxKjAoBgkqhkiG9w0BCQEWGzEwN19C
QU5HQUxPUkVDQUB0ZXN0X2NhLmNvbTEPMA0GA1UEChMGQ0lUUklYMIIBIjANBgkq
hkiG9w0BAQEFAAOCAQ8AMIIBCgKCAQEAlrFQYWc/EiYzwAgOy59AbrcXIeLgm6PZ
cendMIr1vaqBTA9vwlCpZSF5DzVMYJd1gZDfGWrO/DAgBeHdp9+Kbd37Uz/L7mZZ
1qcODSIDGh+qajPQdwPyWH7PeUxn27B8mlqbwL5jofOBgNp2rE9BaQBhNAO21JPw
CtMm8g3C/U6PTULMuufJ7fZY0pM3dvC+M09lq8JwRpP8FauahcMey6S4+zN9faH5
+fYEgXbjTrNMQLlT3vDBA7Ho9tDvigNjNWSO97uEy6JkjYFDFC5ZhAK+cwi5tA90
gCgbkU4DzKz8zyz9riqZCLfoUOM2Maf1cgTOglDUotAt3Gp5ZFkr5QIDAQABo4IB
QzCCAT8wEQYJYIZIAYb4QgEBBAQDAgZAMB0GA1UdDgQWBBSGQY3+BtUULjmWmzFi
X+WHfn0ggTCBuwYDVR0jBIGzMIGwgBQ71tFTGIcFIrvuww/1zg9ropOnuKGBjKSB
iTCBhjEXMBUGA1UEAxQOQkFOR0FMT1JFQ0FfQ0ExCzAJBgNVBAYTAklOMQ8wDQYD
VQQKEwZDSVRSSVgxDDAKBgNVBAsTA0FORzELMAkGA1UECBMCS0ExMjAwBgkqhkiG
9w0BCQEWI0JBTkdBTE9SRUNBX0NBQEJBTkdBTE9SRUNBX21haWwuY29tggkAoay0
2kZTWEAwTQYIKwYBBQUHAQEEQTA/MD0GCCsGAQUFBzABhjFodHRwOi8vQkFOR0FM
T1JFQ0Ffb25lLm9jc3B0ZXN0LmNvbS9yZXNwb25kZXJwYXRoMA0GCSqGSIb3DQEB
CwUAA4IBAQA0o8qGizFg4TS3M02duzKvSXMs/UeFRoPOiJ3brB6xVTqfApbVy4/9
A2iBv9toO0fqTuKv7/IMtpgpfsN8GDNRkFm4VCpcsiT1dUcJ/846tOJ6gRiGQYOf
hGRpnstLAlGKoebV7fO/0Xykoc6BmqZ0+DUZDLBNmPXUC3GvRtxfwFCYXl+ufa2G
IWhiXU6bgLJ7U9etN/h+AtxxpcWugNqu598J7hEnyfJC9tWKBYNMIT/bfiYpnF55
2VYHLMX17cgB4j2Y/v0ZaF0XXU/1ihJNop8UElotHiAM+7tzMoh6GgNYF7G0NyKN
K0dYNQyyJUapNGG2qJlN8ySCCSglc2LX
-----END CERTIFICATE-----
