Certificate:
    Data:
        Version: 3 (0x2)
        Serial Number: 11042563100182 (0xa0b0c0d0e16)
    Signature Algorithm: sha256WithRSAEncryption
        Issuer: CN=DELHICA_CA, C=IN, O=CITRIX, OU=ANG, ST=KA/emailAddress=DELHICA_CA@DELHICA_mail.com
        Validity
            Not Before: Jul  8 04:34:23 2016 GMT
            Not After : Jul  6 04:34:23 2026 GMT
        Subject: ST=KA, C=IN, CN=108_DELHICA_server/emailAddress=108_DELHICA@test_ca.com, O=CITRIX
        Subject Public Key Info:
            Public Key Algorithm: rsaEncryption
                Public-Key: (2048 bit)
                Modulus:
                    00:b0:d9:47:1f:7e:cf:f3:e3:71:ce:09:71:51:e0:
                    0a:c3:a6:03:7b:00:64:97:ba:1e:69:21:dd:6d:f4:
                    24:7e:96:5b:8b:41:e1:b1:5c:e0:0b:d1:e2:de:9a:
                    0a:7f:27:7d:0a:e8:8d:f0:99:ce:20:4b:60:21:d8:
                    81:5f:36:b0:fa:5b:09:09:f8:f2:33:9a:6f:03:0f:
                    42:63:2f:bf:01:36:bf:74:d7:85:4c:2f:e1:57:a7:
                    88:9c:b8:10:e2:e2:cc:63:8a:61:bd:55:77:00:17:
                    83:35:03:a5:bd:7b:a3:71:e4:74:f6:08:6d:cc:01:
                    57:cd:7b:00:3d:24:cb:f5:e3:00:92:be:55:ba:62:
                    8f:88:ec:8e:99:d8:7d:2b:52:56:b8:4f:29:eb:46:
                    42:3a:b2:8a:30:38:76:18:2a:9c:ff:37:37:b5:3a:
                    85:0a:4d:a1:5a:d2:ba:a5:90:16:b6:a4:2b:b4:62:
                    65:67:7a:52:f9:ff:8f:64:f4:a1:d6:8c:ac:13:1e:
                    f8:14:39:3b:4d:7d:4c:ca:65:88:83:92:f7:4d:9b:
                    6f:00:9b:16:bd:03:4b:1b:4e:51:a4:55:00:4c:f9:
                    65:6f:2f:5e:1d:aa:fc:e7:b4:12:1c:09:b4:32:7d:
                    b2:21:e9:ae:ad:7a:34:bb:f4:c8:d1:8c:1b:7b:23:
                    21:cf
                Exponent: 65537 (0x10001)
        X509v3 extensions:
            Netscape Cert Type: 
                SSL Server
            X509v3 Subject Key Identifier: 
                11:8C:31:B2:34:D3:86:A9:8E:16:DF:59:91:CE:FE:3E:D8:DE:1F:67
            X509v3 Authority Key Identifier: 
                keyid:D7:37:52:01:DC:2C:7A:57:85:CA:30:39:30:F0:D5:5D:5A:31:03:02
                DirName:/CN=DELHICA_CA/C=IN/O=CITRIX/OU=ANG/ST=KA/emailAddress=DELHICA_CA@DELHICA_mail.com
                serial:94:59:DC:51:4E:A5:13:27

            Authority Information Access: 
                OCSP - URI:http://DELHICA_one.ocsptest.com/responderpath

    Signature Algorithm: sha256WithRSAEncryption
         1f:03:df:c6:3f:12:21:3b:e8:fd:84:42:76:31:42:55:67:f2:
         9a:08:84:0c:82:49:e2:a4:f1:f5:04:56:2a:e6:75:0b:9d:69:
         44:a2:85:89:ca:2a:59:6c:f5:e8:26:16:90:62:dc:71:77:48:
         45:60:35:e2:b4:54:9b:35:da:21:9f:90:23:54:66:88:7a:86:
         0f:1c:6d:63:85:b0:81:0d:f8:41:9c:aa:96:94:13:cd:70:b1:
         91:ac:74:e2:c1:1e:37:dd:e2:a8:52:b3:40:97:57:c0:34:c6:
         d4:79:32:80:d8:9f:e3:dc:20:24:37:60:22:12:34:6b:28:29:
         62:92:4f:6e:74:d0:df:ba:0a:33:e5:ca:1c:74:59:26:7a:80:
         d9:8e:fb:f8:98:38:58:0c:1a:df:e4:dd:ba:22:d1:f9:49:23:
         d7:99:a8:16:72:e0:3a:db:e9:65:f7:7e:f1:2a:1b:47:63:24:
         73:65:3a:4b:17:1f:89:70:b7:12:0b:d2:dd:55:8e:d2:37:b2:
         ad:6b:82:7c:2b:7c:2a:96:95:d6:fa:3d:98:49:64:31:ac:4a:
         1b:5e:6f:aa:ec:70:b8:e5:d1:e8:b2:5d:d6:e0:13:4e:af:3f:
         45:fb:cc:78:43:73:fc:5c:60:a5:63:ed:34:5f:bb:ac:fa:9b:
         3e:cd:c4:74
-----BEGIN CERTIFICATE-----
MIIEnDCCA4SgAwIBAgIGCgsMDQ4WMA0GCSqGSIb3DQEBCwUAMHoxEzARBgNVBAMU
CkRFTEhJQ0FfQ0ExCzAJBgNVBAYTAklOMQ8wDQYDVQQKEwZDSVRSSVgxDDAKBgNV
BAsTA0FORzELMAkGA1UECBMCS0ExKjAoBgkqhkiG9w0BCQEWG0RFTEhJQ0FfQ0FA
REVMSElDQV9tYWlsLmNvbTAeFw0xNjA3MDgwNDM0MjNaFw0yNjA3MDYwNDM0MjNa
MHAxCzAJBgNVBAgTAktBMQswCQYDVQQGEwJJTjEbMBkGA1UEAxQSMTA4X0RFTEhJ
Q0Ffc2VydmVyMSYwJAYJKoZIhvcNAQkBFhcxMDhfREVMSElDQUB0ZXN0X2NhLmNv
bTEPMA0GA1UEChMGQ0lUUklYMIIBIjANBgkqhkiG9w0BAQEFAAOCAQ8AMIIBCgKC
AQEAsNlHH37P8+NxzglxUeAKw6YDewBkl7oeaSHdbfQkfpZbi0HhsVzgC9Hi3poK
fyd9CuiN8JnOIEtgIdiBXzaw+lsJCfjyM5pvAw9CYy+/ATa/dNeFTC/hV6eInLgQ
4uLMY4phvVV3ABeDNQOlvXujceR09ghtzAFXzXsAPSTL9eMAkr5VumKPiOyOmdh9
K1JWuE8p60ZCOrKKMDh2GCqc/zc3tTqFCk2hWtK6pZAWtqQrtGJlZ3pS+f+PZPSh
1oysEx74FDk7TX1MymWIg5L3TZtvAJsWvQNLG05RpFUATPllby9eHar857QSHAm0
Mn2yIemurXo0u/TI0YwbeyMhzwIDAQABo4IBMDCCASwwEQYJYIZIAYb4QgEBBAQD
AgZAMB0GA1UdDgQWBBQRjDGyNNOGqY4W31mRzv4+2N4fZzCBrAYDVR0jBIGkMIGh
gBTXN1IB3Cx6V4XKMDkw8NVdWjEDAqF+pHwwejETMBEGA1UEAxQKREVMSElDQV9D
QTELMAkGA1UEBhMCSU4xDzANBgNVBAoTBkNJVFJJWDEMMAoGA1UECxMDQU5HMQsw
CQYDVQQIEwJLQTEqMCgGCSqGSIb3DQEJARYbREVMSElDQV9DQUBERUxISUNBX21h
aWwuY29tggkAlFncUU6lEycwSQYIKwYBBQUHAQEEPTA7MDkGCCsGAQUFBzABhi1o
dHRwOi8vREVMSElDQV9vbmUub2NzcHRlc3QuY29tL3Jlc3BvbmRlcnBhdGgwDQYJ
KoZIhvcNAQELBQADggEBAB8D38Y/EiE76P2EQnYxQlVn8poIhAyCSeKk8fUEVirm
dQudaUSihYnKKlls9egmFpBi3HF3SEVgNeK0VJs12iGfkCNUZoh6hg8cbWOFsIEN
+EGcqpaUE81wsZGsdOLBHjfd4qhSs0CXV8A0xtR5MoDYn+PcICQ3YCISNGsoKWKS
T2500N+6CjPlyhx0WSZ6gNmO+/iYOFgMGt/k3boi0flJI9eZqBZy4Drb6WX3fvEq
G0djJHNlOksXH4lwtxIL0t1VjtI3sq1rgnwrfCqWldb6PZhJZDGsShteb6rscLjl
0eiyXdbgE06vP0X7zHhDc/xcYKVj7TRfu6z6mz7NxHQ=
-----END CERTIFICATE-----
