Certificate:
    Data:
        Version: 3 (0x2)
        Serial Number: 11042563100182 (0xa0b0c0d0e16)
    Signature Algorithm: sha256WithRSAEncryption
        Issuer: CN=PATNACA_CA, C=IN, O=CITRIX, OU=ANG, ST=KA/emailAddress=PATNACA_CA@PATNACA_mail.com
        Validity
            Not Before: Jul  8 04:38:24 2016 GMT
            Not After : Jul  6 04:38:24 2026 GMT
        Subject: ST=KA, C=IN, CN=108_PATNACA_server/emailAddress=108_PATNACA@test_ca.com, O=CITRIX
        Subject Public Key Info:
            Public Key Algorithm: rsaEncryption
                Public-Key: (2048 bit)
                Modulus:
                    00:c9:15:c9:33:93:91:d2:04:5a:91:b3:51:52:64:
                    3f:8e:23:7a:41:74:74:46:8b:0c:46:a5:d1:51:57:
                    bc:e3:81:cb:3f:63:e3:16:1c:b9:38:2c:16:38:5f:
                    6f:44:71:b8:26:c6:bc:75:84:29:21:13:8a:49:f5:
                    78:b5:86:cc:7e:aa:84:b0:35:3a:aa:8a:1f:bf:10:
                    1d:db:b8:07:f3:bf:9b:67:f0:e6:dd:36:cd:14:36:
                    a2:c5:82:e4:10:7a:df:2c:90:1f:dc:5e:c4:7c:f3:
                    fe:74:1f:96:0a:a4:bb:3e:bc:98:cc:30:85:83:04:
                    cc:ee:43:4c:04:e0:e1:3f:10:de:88:73:7d:61:33:
                    9a:be:d4:93:1b:69:e0:04:10:b8:06:29:46:0c:3c:
                    48:9d:0a:cf:bc:a6:3f:07:cd:d9:a3:1e:2b:d9:fb:
                    5f:12:f4:06:f1:f0:64:c2:2e:c4:6e:1d:fb:60:e7:
                    6a:ed:3b:a0:7c:05:6e:c3:c5:4b:68:d2:a7:13:e6:
                    78:b3:9d:88:db:64:6c:e9:f5:6d:16:a1:ad:1b:c2:
                    43:60:4e:fa:55:8b:4b:47:1f:f3:67:a8:02:fa:5a:
                    b2:1a:be:31:19:d2:b1:73:09:6f:20:42:33:19:0a:
                    2f:68:df:0a:db:69:9d:f1:42:3d:c7:d4:09:aa:32:
                    5f:65
                Exponent: 65537 (0x10001)
        X509v3 extensions:
            Netscape Cert Type: 
                SSL Server
            X509v3 Subject Key Identifier: 
                19:B0:82:FE:7B:DD:1D:2B:1C:1D:DB:1E:7F:04:BB:76:50:88:71:A2
            X509v3 Authority Key Identifier: 
                keyid:FF:DF:C4:8D:AF:64:E1:E3:17:FA:96:EE:F1:75:A7:ED:A7:C3:91:B8
                DirName:/CN=PATNACA_CA/C=IN/O=CITRIX/OU=ANG/ST=KA/emailAddress=PATNACA_CA@PATNACA_mail.com
                serial:9F:2E:15:76:F0:BD:C1:6F

            Authority Information Access: 
                OCSP - URI:http://PATNACA_one.ocsptest.com/responderpath

    Signature Algorithm: sha256WithRSAEncryption
         1e:2b:86:86:91:af:d3:be:81:80:ab:55:3a:8d:45:ab:4c:20:
         86:74:55:db:70:d4:16:af:f5:70:8a:79:71:66:16:3f:a7:ec:
         3e:0d:31:29:f9:cb:9b:72:84:f9:1f:33:81:2d:29:d7:4f:19:
         7e:f6:5a:a9:f6:bf:f5:6f:a0:5c:c8:36:97:5a:e8:30:6f:a9:
         86:52:9e:a0:bc:b7:45:02:e4:6a:b6:94:12:ad:93:f5:b2:0e:
         b8:e4:d2:a3:67:72:c7:2b:d1:ae:32:2d:eb:5a:52:da:c0:1b:
         0d:62:a5:01:66:e4:98:16:d0:55:20:0a:ce:d6:43:b0:45:ca:
         bd:49:df:8e:ea:a9:a1:ce:68:2f:8e:31:6e:a5:d1:1e:6c:18:
         ac:5e:ff:42:71:d1:41:80:a1:c1:5e:2b:0a:cc:67:56:97:a8:
         15:19:0a:c1:70:40:d1:03:6c:53:c6:01:cb:5b:4a:89:ba:4e:
         1f:cd:2b:9c:30:b6:e2:61:c5:02:8d:bd:8e:fb:8b:dc:15:f8:
         91:32:44:2c:cb:1f:ee:24:f3:e0:1f:31:a2:2d:70:41:91:98:
         5a:6b:01:ae:1b:e5:6c:e2:71:c3:a1:78:38:4e:b5:8e:3e:ca:
         3e:4b:1f:77:44:b8:cc:fd:ab:5d:fd:72:4a:a9:65:cf:f0:83:
         d3:c2:97:e6
-----BEGIN CERTIFICATE-----
MIIEnDCCA4SgAwIBAgIGCgsMDQ4WMA0GCSqGSIb3DQEBCwUAMHoxEzARBgNVBAMU
ClBBVE5BQ0FfQ0ExCzAJBgNVBAYTAklOMQ8wDQYDVQQKEwZDSVRSSVgxDDAKBgNV
BAsTA0FORzELMAkGA1UECBMCS0ExKjAoBgkqhkiG9w0BCQEWG1BBVE5BQ0FfQ0FA
UEFUTkFDQV9tYWlsLmNvbTAeFw0xNjA3MDgwNDM4MjRaFw0yNjA3MDYwNDM4MjRa
MHAxCzAJBgNVBAgTAktBMQswCQYDVQQGEwJJTjEbMBkGA1UEAxQSMTA4X1BBVE5B
Q0Ffc2VydmVyMSYwJAYJKoZIhvcNAQkBFhcxMDhfUEFUTkFDQUB0ZXN0X2NhLmNv
bTEPMA0GA1UEChMGQ0lUUklYMIIBIjANBgkqhkiG9w0BAQEFAAOCAQ8AMIIBCgKC
AQEAyRXJM5OR0gRakbNRUmQ/jiN6QXR0RosMRqXRUVe844HLP2PjFhy5OCwWOF9v
RHG4Jsa8dYQpIROKSfV4tYbMfqqEsDU6qoofvxAd27gH87+bZ/Dm3TbNFDaixYLk
EHrfLJAf3F7EfPP+dB+WCqS7PryYzDCFgwTM7kNMBODhPxDeiHN9YTOavtSTG2ng
BBC4BilGDDxInQrPvKY/B83Zox4r2ftfEvQG8fBkwi7Ebh37YOdq7TugfAVuw8VL
aNKnE+Z4s52I22Rs6fVtFqGtG8JDYE76VYtLRx/zZ6gC+lqyGr4xGdKxcwlvIEIz
GQovaN8K22md8UI9x9QJqjJfZQIDAQABo4IBMDCCASwwEQYJYIZIAYb4QgEBBAQD
AgZAMB0GA1UdDgQWBBQZsIL+e90dKxwd2x5/BLt2UIhxojCBrAYDVR0jBIGkMIGh
gBT/38SNr2Th4xf6lu7xdaftp8ORuKF+pHwwejETMBEGA1UEAxQKUEFUTkFDQV9D
QTELMAkGA1UEBhMCSU4xDzANBgNVBAoTBkNJVFJJWDEMMAoGA1UECxMDQU5HMQsw
CQYDVQQIEwJLQTEqMCgGCSqGSIb3DQEJARYbUEFUTkFDQV9DQUBQQVROQUNBX21h
aWwuY29tggkAny4VdvC9wW8wSQYIKwYBBQUHAQEEPTA7MDkGCCsGAQUFBzABhi1o
dHRwOi8vUEFUTkFDQV9vbmUub2NzcHRlc3QuY29tL3Jlc3BvbmRlcnBhdGgwDQYJ
KoZIhvcNAQELBQADggEBAB4rhoaRr9O+gYCrVTqNRatMIIZ0Vdtw1Bav9XCKeXFm
Fj+n7D4NMSn5y5tyhPkfM4EtKddPGX72Wqn2v/VvoFzINpda6DBvqYZSnqC8t0UC
5Gq2lBKtk/WyDrjk0qNncscr0a4yLetaUtrAGw1ipQFm5JgW0FUgCs7WQ7BFyr1J
347qqaHOaC+OMW6l0R5sGKxe/0Jx0UGAocFeKwrMZ1aXqBUZCsFwQNEDbFPGActb
Som6Th/NK5wwtuJhxQKNvY77i9wV+JEyRCzLH+4k8+AfMaItcEGRmFprAa4b5Wzi
ccOheDhOtY4+yj5LH3dEuMz9q139ckqpZc/wg9PCl+Y=
-----END CERTIFICATE-----
