Certificate:
    Data:
        Version: 3 (0x2)
        Serial Number: 11042563100182 (0xa0b0c0d0e16)
    Signature Algorithm: sha256WithRSAEncryption
        Issuer: CN=OOTYCA_CA, C=IN, O=CITRIX, OU=ANG, ST=KA/emailAddress=OOTYCA_CA@OOTYCA_mail.com
        Validity
            Not Before: Jul  8 04:37:04 2016 GMT
            Not After : Jul  6 04:37:04 2026 GMT
        Subject: ST=KA, C=IN, CN=108_OOTYCA_server/emailAddress=108_OOTYCA@test_ca.com, O=CITRIX
        Subject Public Key Info:
            Public Key Algorithm: rsaEncryption
                Public-Key: (2048 bit)
                Modulus:
                    00:ac:11:ad:d0:3a:9d:2c:3d:d7:e4:f0:2b:a0:eb:
                    10:d7:ec:24:69:26:7d:40:20:94:25:c3:c6:17:8d:
                    c3:87:4f:0f:dc:71:40:9b:f0:bb:7f:25:ca:1b:ad:
                    c0:29:cf:e0:9b:39:9b:b2:c7:cf:1f:7e:0f:cc:9f:
                    64:7a:1e:84:40:0a:4c:95:bc:23:a7:15:82:a3:88:
                    ef:91:38:de:d1:f2:fc:99:31:51:d0:55:f8:7a:1f:
                    37:de:73:87:2c:37:b1:4d:cb:90:bb:3d:15:08:f1:
                    30:93:62:28:2b:bb:11:79:ab:11:e4:e7:06:d0:17:
                    56:45:81:8a:5b:0f:62:c5:14:10:2f:ba:59:01:d1:
                    c5:59:8c:18:e4:56:5f:20:92:2d:09:86:61:88:93:
                    4f:35:ce:c1:e8:b6:dd:7b:89:54:45:3d:26:92:8f:
                    f9:92:57:f6:c6:47:f7:a8:48:ee:9a:d6:63:d2:3c:
                    b5:22:5d:af:ad:aa:a4:85:95:3c:7f:d0:6a:1b:0c:
                    70:00:65:00:52:99:98:8d:18:f0:73:9c:8d:8d:c7:
                    28:20:4a:3a:74:34:8c:19:8f:7c:60:e6:ba:a3:dd:
                    48:71:ef:d8:cb:88:e6:bb:e2:21:b9:9a:40:31:6d:
                    05:f8:b5:6a:d1:40:5f:c6:ef:a3:0a:42:a4:d1:53:
                    bf:23
                Exponent: 65537 (0x10001)
        X509v3 extensions:
            Netscape Cert Type: 
                SSL Server
            X509v3 Subject Key Identifier: 
                39:89:9D:BF:2C:76:60:8D:AE:B3:32:46:9E:FA:82:5F:EF:45:53:9A
            X509v3 Authority Key Identifier: 
                keyid:9E:A0:B1:FE:A8:B8:21:30:13:39:F2:C3:C1:A8:43:CB:5D:73:FC:B5
                DirName:/CN=OOTYCA_CA/C=IN/O=CITRIX/OU=ANG/ST=KA/emailAddress=OOTYCA_CA@OOTYCA_mail.com
                serial:AA:C2:AB:74:21:09:60:FF

            Authority Information Access: 
                OCSP - URI:http://OOTYCA_one.ocsptest.com/responderpath

    Signature Algorithm: sha256WithRSAEncryption
         20:89:1e:59:d6:cc:fa:e0:98:1b:cb:8f:2e:f9:3a:65:e0:58:
         5d:3b:51:9d:3f:27:38:63:a8:b6:0c:a0:1a:9e:2c:79:36:bd:
         97:8f:60:93:b8:93:18:3e:dd:70:d5:ab:a6:31:5f:bf:cc:ca:
         d3:cd:df:4a:68:f1:2b:e3:00:f9:bb:f7:41:27:e4:b7:c8:4b:
         48:3e:d8:0e:e1:31:61:97:5b:83:a0:79:07:89:87:18:28:fe:
         56:98:e8:a9:0b:db:bc:3b:0d:01:9a:f2:67:2f:76:61:a4:7d:
         f9:20:13:31:41:77:42:35:e1:ad:ad:57:e4:dc:31:33:e6:8c:
         08:01:ed:74:1b:54:4a:a7:c9:c8:42:f2:ea:76:93:37:06:b9:
         3b:6e:94:41:60:79:8c:12:46:bd:f7:03:55:bb:42:31:25:4a:
         5a:7e:4c:0e:1b:d5:94:80:43:bd:50:d2:90:90:33:30:92:e6:
         49:65:1f:3f:cc:44:ce:c1:bd:e5:ab:9f:19:d8:bf:2f:0c:3a:
         92:ab:40:f8:6e:d3:6f:07:4e:25:65:7e:cd:33:c2:1b:12:4d:
         90:5c:10:d1:29:f1:25:0a:18:a8:b0:fa:42:71:4b:f7:c5:11:
         e8:74:b7:7a:05:67:b5:62:9b:81:ee:65:2b:87:6d:53:a2:bd:
         1c:9e:44:00
-----BEGIN CERTIFICATE-----
MIIEkzCCA3ugAwIBAgIGCgsMDQ4WMA0GCSqGSIb3DQEBCwUAMHcxEjAQBgNVBAMU
CU9PVFlDQV9DQTELMAkGA1UEBhMCSU4xDzANBgNVBAoTBkNJVFJJWDEMMAoGA1UE
CxMDQU5HMQswCQYDVQQIEwJLQTEoMCYGCSqGSIb3DQEJARYZT09UWUNBX0NBQE9P
VFlDQV9tYWlsLmNvbTAeFw0xNjA3MDgwNDM3MDRaFw0yNjA3MDYwNDM3MDRaMG4x
CzAJBgNVBAgTAktBMQswCQYDVQQGEwJJTjEaMBgGA1UEAxQRMTA4X09PVFlDQV9z
ZXJ2ZXIxJTAjBgkqhkiG9w0BCQEWFjEwOF9PT1RZQ0FAdGVzdF9jYS5jb20xDzAN
BgNVBAoTBkNJVFJJWDCCASIwDQYJKoZIhvcNAQEBBQADggEPADCCAQoCggEBAKwR
rdA6nSw91+TwK6DrENfsJGkmfUAglCXDxheNw4dPD9xxQJvwu38lyhutwCnP4Js5
m7LHzx9+D8yfZHoehEAKTJW8I6cVgqOI75E43tHy/JkxUdBV+HofN95zhyw3sU3L
kLs9FQjxMJNiKCu7EXmrEeTnBtAXVkWBilsPYsUUEC+6WQHRxVmMGORWXyCSLQmG
YYiTTzXOwei23XuJVEU9JpKP+ZJX9sZH96hI7prWY9I8tSJdr62qpIWVPH/QahsM
cABlAFKZmI0Y8HOcjY3HKCBKOnQ0jBmPfGDmuqPdSHHv2MuI5rviIbmaQDFtBfi1
atFAX8bvowpCpNFTvyMCAwEAAaOCASwwggEoMBEGCWCGSAGG+EIBAQQEAwIGQDAd
BgNVHQ4EFgQUOYmdvyx2YI2uszJGnvqCX+9FU5owgakGA1UdIwSBoTCBnoAUnqCx
/qi4ITATOfLDwahDy11z/LWhe6R5MHcxEjAQBgNVBAMUCU9PVFlDQV9DQTELMAkG
A1UEBhMCSU4xDzANBgNVBAoTBkNJVFJJWDEMMAoGA1UECxMDQU5HMQswCQYDVQQI
EwJLQTEoMCYGCSqGSIb3DQEJARYZT09UWUNBX0NBQE9PVFlDQV9tYWlsLmNvbYIJ
AKrCq3QhCWD/MEgGCCsGAQUFBwEBBDwwOjA4BggrBgEFBQcwAYYsaHR0cDovL09P
VFlDQV9vbmUub2NzcHRlc3QuY29tL3Jlc3BvbmRlcnBhdGgwDQYJKoZIhvcNAQEL
BQADggEBACCJHlnWzPrgmBvLjy75OmXgWF07UZ0/JzhjqLYMoBqeLHk2vZePYJO4
kxg+3XDVq6YxX7/MytPN30po8SvjAPm790En5LfIS0g+2A7hMWGXW4OgeQeJhxgo
/laY6KkL27w7DQGa8mcvdmGkffkgEzFBd0I14a2tV+TcMTPmjAgB7XQbVEqnychC
8up2kzcGuTtulEFgeYwSRr33A1W7QjElSlp+TA4b1ZSAQ71Q0pCQMzCS5kllHz/M
RM7BveWrnxnYvy8MOpKrQPhu028HTiVlfs0zwhsSTZBcENEp8SUKGKiw+kJxS/fF
Eeh0t3oFZ7Vim4HuZSuHbVOivRyeRAA=
-----END CERTIFICATE-----
