Certificate:
    Data:
        Version: 3 (0x2)
        Serial Number: 11042563100182 (0xa0b0c0d0e16)
    Signature Algorithm: sha256WithRSAEncryption
        Issuer: CN=MUMBAICA_CA, C=IN, O=CITRIX, OU=ANG, ST=KA/emailAddress=MUMBAICA_CA@MUMBAICA_mail.com
        Validity
            Not Before: Jul  8 04:35:48 2016 GMT
            Not After : Jul  6 04:35:48 2026 GMT
        Subject: ST=KA, C=IN, CN=108_MUMBAICA_server/emailAddress=108_MUMBAICA@test_ca.com, O=CITRIX
        Subject Public Key Info:
            Public Key Algorithm: rsaEncryption
                Public-Key: (2048 bit)
                Modulus:
                    00:b2:35:97:c3:9c:ec:5f:09:49:4e:4b:48:79:1c:
                    9c:b9:49:a5:31:5f:3a:ad:23:da:db:ec:3b:e1:4a:
                    7b:b7:92:71:bb:d1:b4:65:21:d5:c7:98:21:1f:46:
                    b4:63:e5:69:0f:1e:21:f3:68:42:06:5d:97:17:cb:
                    80:7e:d4:c9:9d:f4:34:a5:95:55:47:27:1a:e7:54:
                    7f:77:f0:2c:ba:63:ae:62:ab:4e:0c:a6:7d:25:d6:
                    27:86:ab:29:d3:dc:04:29:a9:2a:28:16:ba:00:1e:
                    42:e3:30:4c:49:a9:3f:d3:34:3e:f0:72:62:e9:b1:
                    bb:8b:6f:46:85:0d:b1:25:3c:07:fb:bf:e5:be:c6:
                    99:01:3b:eb:ff:e6:85:9a:67:b9:dd:04:10:86:1c:
                    fa:b9:b0:7c:8e:01:78:c7:bd:af:6a:42:49:5f:33:
                    c9:07:79:41:21:94:8e:c0:07:4a:a0:a2:98:16:95:
                    34:75:5f:8a:28:18:b8:9f:a8:78:e8:fe:af:7c:8b:
                    9d:4a:f4:32:76:9e:73:33:f8:6e:4e:eb:67:99:44:
                    79:c2:5b:f7:0a:d5:8b:32:d7:6b:3f:ac:b0:99:a8:
                    5e:88:2e:6c:f8:8c:6f:d5:6e:37:ea:19:28:e7:22:
                    62:61:9b:31:54:5c:0a:d9:45:b8:10:58:6a:f9:4d:
                    a1:0b
                Exponent: 65537 (0x10001)
        X509v3 extensions:
            Netscape Cert Type: 
                SSL Server
            X509v3 Subject Key Identifier: 
                9E:18:3F:99:C6:77:F2:D1:40:2C:72:C1:5B:0A:06:47:6C:90:BD:A1
            X509v3 Authority Key Identifier: 
                keyid:37:79:BF:65:19:98:28:32:4E:EF:3E:44:14:19:A9:83:2B:AF:05:7A
                DirName:/CN=MUMBAICA_CA/C=IN/O=CITRIX/OU=ANG/ST=KA/emailAddress=MUMBAICA_CA@MUMBAICA_mail.com
                serial:EE:B1:37:EE:F6:D2:14:91

            Authority Information Access: 
                OCSP - URI:http://MUMBAICA_one.ocsptest.com/responderpath

    Signature Algorithm: sha256WithRSAEncryption
         69:75:5a:80:f1:35:87:5a:0a:3d:4f:f1:f0:53:54:59:9b:b5:
         51:c8:b7:ee:79:c7:b9:38:28:84:3a:2f:b5:ce:2a:59:9e:77:
         ce:2a:59:08:bb:6f:a2:c0:63:84:e0:88:cb:5d:59:ab:e7:c0:
         52:04:0a:b5:60:b2:4b:90:bb:f3:73:e0:a9:2d:19:54:81:6b:
         82:e2:24:d0:06:86:bf:74:5f:e7:26:65:a9:92:db:47:54:da:
         b4:51:2e:d1:2f:c4:30:48:5e:1c:0e:74:58:57:87:6f:8b:cf:
         ae:e4:1c:56:8f:0e:55:8b:d7:fd:fc:79:99:ca:63:4e:ef:bc:
         27:5f:21:39:11:56:c9:d8:29:5e:98:0d:e5:5c:29:1a:c8:ed:
         ab:5a:6f:2c:26:06:40:c5:7b:d1:53:ca:6c:3b:85:31:67:23:
         6e:01:66:5b:7c:f4:95:bf:33:99:b5:56:c2:7c:58:4e:63:9c:
         ec:6f:cd:97:21:68:a7:2f:fc:72:e1:f5:e6:ff:c7:1b:f2:3b:
         1a:71:6f:20:f9:6b:0b:6e:38:43:32:cc:40:41:15:f2:9a:43:
         c0:bc:e7:42:61:6b:b0:1e:ca:76:49:a0:9b:4a:b8:b7:a4:8f:
         46:1e:a7:8d:ad:b2:c9:e2:d7:83:d8:fa:fb:e3:d2:d7:3c:49:
         08:21:c5:a8
-----BEGIN CERTIFICATE-----
MIIEpjCCA46gAwIBAgIGCgsMDQ4WMA0GCSqGSIb3DQEBCwUAMH0xFDASBgNVBAMU
C01VTUJBSUNBX0NBMQswCQYDVQQGEwJJTjEPMA0GA1UEChMGQ0lUUklYMQwwCgYD
VQQLEwNBTkcxCzAJBgNVBAgTAktBMSwwKgYJKoZIhvcNAQkBFh1NVU1CQUlDQV9D
QUBNVU1CQUlDQV9tYWlsLmNvbTAeFw0xNjA3MDgwNDM1NDhaFw0yNjA3MDYwNDM1
NDhaMHIxCzAJBgNVBAgTAktBMQswCQYDVQQGEwJJTjEcMBoGA1UEAxQTMTA4X01V
TUJBSUNBX3NlcnZlcjEnMCUGCSqGSIb3DQEJARYYMTA4X01VTUJBSUNBQHRlc3Rf
Y2EuY29tMQ8wDQYDVQQKEwZDSVRSSVgwggEiMA0GCSqGSIb3DQEBAQUAA4IBDwAw
ggEKAoIBAQCyNZfDnOxfCUlOS0h5HJy5SaUxXzqtI9rb7DvhSnu3knG70bRlIdXH
mCEfRrRj5WkPHiHzaEIGXZcXy4B+1Mmd9DSllVVHJxrnVH938Cy6Y65iq04Mpn0l
1ieGqynT3AQpqSooFroAHkLjMExJqT/TND7wcmLpsbuLb0aFDbElPAf7v+W+xpkB
O+v/5oWaZ7ndBBCGHPq5sHyOAXjHva9qQklfM8kHeUEhlI7AB0qgopgWlTR1X4oo
GLifqHjo/q98i51K9DJ2nnMz+G5O62eZRHnCW/cK1Ysy12s/rLCZqF6ILmz4jG/V
bjfqGSjnImJhmzFUXArZRbgQWGr5TaELAgMBAAGjggE1MIIBMTARBglghkgBhvhC
AQEEBAMCBkAwHQYDVR0OBBYEFJ4YP5nGd/LRQCxywVsKBkdskL2hMIGwBgNVHSME
gagwgaWAFDd5v2UZmCgyTu8+RBQZqYMrrwV6oYGBpH8wfTEUMBIGA1UEAxQLTVVN
QkFJQ0FfQ0ExCzAJBgNVBAYTAklOMQ8wDQYDVQQKEwZDSVRSSVgxDDAKBgNVBAsT
A0FORzELMAkGA1UECBMCS0ExLDAqBgkqhkiG9w0BCQEWHU1VTUJBSUNBX0NBQE1V
TUJBSUNBX21haWwuY29tggkA7rE37vbSFJEwSgYIKwYBBQUHAQEEPjA8MDoGCCsG
AQUFBzABhi5odHRwOi8vTVVNQkFJQ0Ffb25lLm9jc3B0ZXN0LmNvbS9yZXNwb25k
ZXJwYXRoMA0GCSqGSIb3DQEBCwUAA4IBAQBpdVqA8TWHWgo9T/HwU1RZm7VRyLfu
ece5OCiEOi+1zipZnnfOKlkIu2+iwGOE4IjLXVmr58BSBAq1YLJLkLvzc+CpLRlU
gWuC4iTQBoa/dF/nJmWpkttHVNq0US7RL8QwSF4cDnRYV4dvi8+u5BxWjw5Vi9f9
/HmZymNO77wnXyE5EVbJ2ClemA3lXCkayO2rWm8sJgZAxXvRU8psO4UxZyNuAWZb
fPSVvzOZtVbCfFhOY5zsb82XIWinL/xy4fXm/8cb8jsacW8g+WsLbjhDMsxAQRXy
mkPAvOdCYWuwHsp2SaCbSri3pI9GHqeNrbLJ4teD2Pr749LXPEkIIcWo
-----END CERTIFICATE-----
