Certificate:
    Data:
        Version: 3 (0x2)
        Serial Number: 11042563100183 (0xa0b0c0d0e17)
    Signature Algorithm: sha256WithRSAEncryption
        Issuer: CN=SHILLONGCA_CA, C=IN, O=CITRIX, OU=ANG, ST=KA/emailAddress=SHILLONGCA_CA@SHILLONGCA_mail.com
        Validity
            Not Before: Jul  8 04:40:09 2016 GMT
            Not After : Jul  6 04:40:09 2026 GMT
        Subject: ST=KA, C=IN, CN=109_SHILLONGCA_server/emailAddress=109_SHILLONGCA@test_ca.com, O=CITRIX
        Subject Public Key Info:
            Public Key Algorithm: rsaEncryption
                Public-Key: (2048 bit)
                Modulus:
                    00:c6:b9:7e:10:37:b6:18:21:3d:74:30:2b:67:71:
                    27:80:1d:05:22:66:f4:5e:10:ca:af:41:cd:3d:70:
                    1c:77:25:c6:5b:01:db:f8:21:20:33:76:07:27:3c:
                    00:f9:02:ca:1b:b3:01:cd:e7:a8:9e:19:66:68:eb:
                    33:0c:42:3f:4f:b7:4b:96:f2:a4:42:46:23:2e:1b:
                    52:35:7d:fc:ed:89:b6:f9:fb:4a:5b:e8:5a:9a:54:
                    91:93:7b:1d:b3:ed:92:0c:be:ce:56:3d:9c:c8:8d:
                    55:ea:ed:18:4b:a9:40:f5:69:88:7c:01:75:70:18:
                    21:52:8a:02:ae:11:a2:61:bd:47:2f:b4:9b:8c:1d:
                    9a:51:8f:9e:3c:74:d9:19:e2:bf:4e:8a:20:49:85:
                    b6:a4:0b:9a:2b:0c:10:41:df:62:fd:e7:df:0c:9e:
                    15:a8:df:f7:cb:28:0c:05:0b:a2:db:8b:a6:5d:1c:
                    69:82:77:93:9e:62:5e:6c:e9:6e:fe:22:83:61:cf:
                    13:f3:c9:b6:cb:e8:18:ce:ff:d0:22:01:3c:73:b3:
                    a4:2b:af:e0:10:e5:73:16:9f:67:64:a6:00:8c:1f:
                    6e:c7:c2:52:bc:ac:39:4e:a6:53:cf:b1:20:7d:0b:
                    37:b1:f2:18:69:a5:08:41:a3:e8:40:8b:7d:f0:07:
                    e1:f7
                Exponent: 65537 (0x10001)
        X509v3 extensions:
            Netscape Cert Type: 
                SSL Server
            X509v3 Subject Key Identifier: 
                54:D5:9E:9C:BF:DD:9E:47:61:F3:B2:9E:C7:49:A7:27:72:EC:D3:F3
            X509v3 Authority Key Identifier: 
                keyid:FA:E9:1F:A5:AF:8B:4E:18:FF:EF:B7:EA:8F:FB:98:BC:59:23:81:DF
                DirName:/CN=SHILLONGCA_CA/C=IN/O=CITRIX/OU=ANG/ST=KA/emailAddress=SHILLONGCA_CA@SHILLONGCA_mail.com
                serial:FB:D0:92:FD:A2:7C:35:0C

            Authority Information Access: 
                OCSP - URI:http://SHILLONGCA_one.ocsptest.com/responderpath

    Signature Algorithm: sha256WithRSAEncryption
         8e:1c:3e:b8:1c:34:f5:57:96:9a:fc:60:2d:5a:55:3d:50:57:
         03:20:57:f5:06:e6:70:18:15:58:f9:a9:19:5e:6e:a9:78:ba:
         0c:c3:83:0f:7d:08:e6:1f:64:e4:dc:a5:6b:b6:25:58:0b:95:
         f2:62:fc:7e:0d:91:60:73:2e:1f:91:52:f8:77:40:94:62:dc:
         2d:9a:76:f9:5f:cc:ef:8c:12:f7:6c:49:b1:a5:e9:9c:bd:74:
         79:4c:cd:a5:8e:ef:49:3d:64:fd:c4:c8:c6:11:71:49:23:40:
         65:04:e3:68:d9:95:f6:c7:d2:f1:f8:bf:04:69:b0:9e:b7:f9:
         76:22:a0:41:65:2e:59:a0:85:0e:41:56:cb:83:fc:4d:44:39:
         72:23:b5:ff:8d:55:1a:8d:19:51:86:65:1e:10:33:31:d4:57:
         88:2e:b2:23:15:ca:d5:de:9b:34:f3:22:73:17:fd:75:4a:90:
         e0:9a:63:18:b5:01:ac:99:ee:00:65:27:9c:53:87:0a:84:94:
         60:1e:64:12:79:ad:9e:eb:d9:f6:ab:5f:d5:4c:ca:07:cf:16:
         2c:0a:76:8d:25:bb:b1:ff:17:e0:4c:44:b9:01:84:00:bf:98:
         98:62:bb:2f:00:29:d1:09:1d:46:6a:52:86:3b:7a:6e:92:da:
         46:4a:87:79
-----BEGIN CERTIFICATE-----
MIIEuzCCA6OgAwIBAgIGCgsMDQ4XMA0GCSqGSIb3DQEBCwUAMIGDMRYwFAYDVQQD
FA1TSElMTE9OR0NBX0NBMQswCQYDVQQGEwJJTjEPMA0GA1UEChMGQ0lUUklYMQww
CgYDVQQLEwNBTkcxCzAJBgNVBAgTAktBMTAwLgYJKoZIhvcNAQkBFiFTSElMTE9O
R0NBX0NBQFNISUxMT05HQ0FfbWFpbC5jb20wHhcNMTYwNzA4MDQ0MDA5WhcNMjYw
NzA2MDQ0MDA5WjB2MQswCQYDVQQIEwJLQTELMAkGA1UEBhMCSU4xHjAcBgNVBAMU
FTEwOV9TSElMTE9OR0NBX3NlcnZlcjEpMCcGCSqGSIb3DQEJARYaMTA5X1NISUxM
T05HQ0FAdGVzdF9jYS5jb20xDzANBgNVBAoTBkNJVFJJWDCCASIwDQYJKoZIhvcN
AQEBBQADggEPADCCAQoCggEBAMa5fhA3thghPXQwK2dxJ4AdBSJm9F4Qyq9BzT1w
HHclxlsB2/ghIDN2Byc8APkCyhuzAc3nqJ4ZZmjrMwxCP0+3S5bypEJGIy4bUjV9
/O2Jtvn7SlvoWppUkZN7HbPtkgy+zlY9nMiNVertGEupQPVpiHwBdXAYIVKKAq4R
omG9Ry+0m4wdmlGPnjx02Rniv06KIEmFtqQLmisMEEHfYv3n3wyeFajf98soDAUL
otuLpl0caYJ3k55iXmzpbv4ig2HPE/PJtsvoGM7/0CIBPHOzpCuv4BDlcxafZ2Sm
AIwfbsfCUrysOU6mU8+xIH0LN7HyGGmlCEGj6ECLffAH4fcCAwEAAaOCAT8wggE7
MBEGCWCGSAGG+EIBAQQEAwIGQDAdBgNVHQ4EFgQUVNWenL/dnkdh87Kex0mnJ3Ls
0/MwgbgGA1UdIwSBsDCBrYAU+ukfpa+LThj/77fqj/uYvFkjgd+hgYmkgYYwgYMx
FjAUBgNVBAMUDVNISUxMT05HQ0FfQ0ExCzAJBgNVBAYTAklOMQ8wDQYDVQQKEwZD
SVRSSVgxDDAKBgNVBAsTA0FORzELMAkGA1UECBMCS0ExMDAuBgkqhkiG9w0BCQEW
IVNISUxMT05HQ0FfQ0FAU0hJTExPTkdDQV9tYWlsLmNvbYIJAPvQkv2ifDUMMEwG
CCsGAQUFBwEBBEAwPjA8BggrBgEFBQcwAYYwaHR0cDovL1NISUxMT05HQ0Ffb25l
Lm9jc3B0ZXN0LmNvbS9yZXNwb25kZXJwYXRoMA0GCSqGSIb3DQEBCwUAA4IBAQCO
HD64HDT1V5aa/GAtWlU9UFcDIFf1BuZwGBVY+akZXm6peLoMw4MPfQjmH2Tk3KVr
tiVYC5XyYvx+DZFgcy4fkVL4d0CUYtwtmnb5X8zvjBL3bEmxpemcvXR5TM2lju9J
PWT9xMjGEXFJI0BlBONo2ZX2x9Lx+L8EabCet/l2IqBBZS5ZoIUOQVbLg/xNRDly
I7X/jVUajRlRhmUeEDMx1FeILrIjFcrV3ps08yJzF/11SpDgmmMYtQGsme4AZSec
U4cKhJRgHmQSea2e69n2q1/VTMoHzxYsCnaNJbux/xfgTES5AYQAv5iYYrsvACnR
CR1GalKGO3puktpGSod5
-----END CERTIFICATE-----
