Certificate:
    Data:
        Version: 3 (0x2)
        Serial Number: 11042563100183 (0xa0b0c0d0e17)
    Signature Algorithm: sha256WithRSAEncryption
        Issuer: CN=BHOPALCA_CA, C=IN, O=CITRIX, OU=ANG, ST=KA/emailAddress=BHOPALCA_CA@BHOPALCA_mail.com
        Validity
            Not Before: Jul  8 04:32:34 2016 GMT
            Not After : Jul  6 04:32:34 2026 GMT
        Subject: ST=KA, C=IN, CN=109_BHOPALCA_server/emailAddress=109_BHOPALCA@test_ca.com, O=CITRIX
        Subject Public Key Info:
            Public Key Algorithm: rsaEncryption
                Public-Key: (2048 bit)
                Modulus:
                    00:e0:04:9d:6a:64:68:83:a0:c9:1b:7a:c1:38:f2:
                    59:de:09:79:88:0a:c4:0a:89:75:33:d1:8e:2d:5e:
                    56:f8:d5:01:5d:e3:94:20:42:9d:bf:37:f6:4e:23:
                    9f:ec:f5:2d:b2:a7:97:5a:f3:3b:6b:89:82:ef:9e:
                    87:40:2a:7a:c0:f3:77:ce:ce:93:4b:a7:b7:ed:af:
                    28:3c:fd:32:b8:5a:c9:14:ac:7f:4f:f3:38:c5:00:
                    65:b8:dc:c2:92:58:91:2c:ff:8f:c3:e8:f0:45:e2:
                    27:77:93:84:72:f5:38:26:b1:d9:9f:ab:1d:df:d0:
                    4d:ba:54:cf:c4:4d:b2:ff:40:18:65:81:9f:fd:9a:
                    94:f8:f6:54:91:e7:43:51:12:d3:60:04:c9:fc:ba:
                    85:13:30:44:d2:f9:81:12:cf:e5:d4:a0:55:b6:36:
                    0b:ed:96:08:84:75:de:42:5f:4d:5f:11:a4:6d:1e:
                    64:a2:f2:fa:f5:ec:da:c2:f9:c6:e0:18:0b:bd:2f:
                    ca:3c:85:0b:6e:ee:d9:7d:79:63:6b:93:27:ff:b0:
                    97:5e:ae:d3:89:8c:2d:1e:c7:df:57:33:4a:28:66:
                    db:5e:e7:08:84:6e:d4:e1:52:95:96:77:a0:86:b7:
                    dc:97:b8:f0:95:d6:d5:8d:66:71:94:da:e1:f6:80:
                    4b:51
                Exponent: 65537 (0x10001)
        X509v3 extensions:
            Netscape Cert Type: 
                SSL Server
            X509v3 Subject Key Identifier: 
                67:96:63:74:58:4F:1F:9A:37:A2:25:50:D8:4F:70:DF:66:22:65:DF
            X509v3 Authority Key Identifier: 
                keyid:A6:66:0E:59:0F:3C:5C:11:35:B2:B3:99:59:A9:D3:A6:B1:5E:95:D2
                DirName:/CN=BHOPALCA_CA/C=IN/O=CITRIX/OU=ANG/ST=KA/emailAddress=BHOPALCA_CA@BHOPALCA_mail.com
                serial:BE:89:55:F3:65:28:17:9A

            Authority Information Access: 
                OCSP - URI:http://BHOPALCA_one.ocsptest.com/responderpath

    Signature Algorithm: sha256WithRSAEncryption
         38:c4:69:bd:db:5d:4e:44:69:65:4f:5f:15:96:0f:53:5b:c6:
         e8:e8:28:06:97:97:29:60:e6:cf:57:a7:03:d0:ee:7d:2c:71:
         ef:81:06:de:18:2e:d8:1c:de:d2:13:7e:06:5f:74:56:b1:5f:
         23:d6:f4:ec:b1:ea:9b:96:b2:9d:a5:2b:90:47:15:ba:dc:87:
         f0:b6:71:15:4c:f6:6d:21:6b:67:44:1b:3a:b4:7e:48:83:6a:
         2c:23:60:cc:29:0a:37:81:d8:8f:e8:97:28:09:21:e8:52:ab:
         32:15:65:bb:b2:2d:6a:8d:fa:2f:c8:96:89:ae:0a:c5:29:31:
         ea:ec:59:dc:08:5a:50:42:76:e4:da:b5:aa:c1:d9:61:96:0c:
         8d:74:7a:fb:28:9e:70:56:80:dd:ee:3a:a5:ef:05:71:90:58:
         29:77:ee:33:9d:40:c2:17:40:0e:1e:35:63:55:d5:ea:06:f3:
         98:2f:f2:a9:8f:2d:97:d3:26:c9:15:c6:9c:22:35:c2:06:a4:
         9f:d5:f7:22:b9:6b:0a:20:54:54:3f:4f:82:d3:86:10:d8:6d:
         1b:d7:09:37:19:19:9e:60:68:2f:cb:13:db:ec:9b:de:8d:07:
         6c:24:98:31:a8:ea:17:54:56:3a:2b:83:71:10:e9:52:f6:7a:
         97:79:cb:74
-----BEGIN CERTIFICATE-----
MIIEpjCCA46gAwIBAgIGCgsMDQ4XMA0GCSqGSIb3DQEBCwUAMH0xFDASBgNVBAMU
C0JIT1BBTENBX0NBMQswCQYDVQQGEwJJTjEPMA0GA1UEChMGQ0lUUklYMQwwCgYD
VQQLEwNBTkcxCzAJBgNVBAgTAktBMSwwKgYJKoZIhvcNAQkBFh1CSE9QQUxDQV9D
QUBCSE9QQUxDQV9tYWlsLmNvbTAeFw0xNjA3MDgwNDMyMzRaFw0yNjA3MDYwNDMy
MzRaMHIxCzAJBgNVBAgTAktBMQswCQYDVQQGEwJJTjEcMBoGA1UEAxQTMTA5X0JI
T1BBTENBX3NlcnZlcjEnMCUGCSqGSIb3DQEJARYYMTA5X0JIT1BBTENBQHRlc3Rf
Y2EuY29tMQ8wDQYDVQQKEwZDSVRSSVgwggEiMA0GCSqGSIb3DQEBAQUAA4IBDwAw
ggEKAoIBAQDgBJ1qZGiDoMkbesE48lneCXmICsQKiXUz0Y4tXlb41QFd45QgQp2/
N/ZOI5/s9S2yp5da8ztriYLvnodAKnrA83fOzpNLp7ftryg8/TK4WskUrH9P8zjF
AGW43MKSWJEs/4/D6PBF4id3k4Ry9Tgmsdmfqx3f0E26VM/ETbL/QBhlgZ/9mpT4
9lSR50NREtNgBMn8uoUTMETS+YESz+XUoFW2NgvtlgiEdd5CX01fEaRtHmSi8vr1
7NrC+cbgGAu9L8o8hQtu7tl9eWNrkyf/sJdertOJjC0ex99XM0ooZtte5wiEbtTh
UpWWd6CGt9yXuPCV1tWNZnGU2uH2gEtRAgMBAAGjggE1MIIBMTARBglghkgBhvhC
AQEEBAMCBkAwHQYDVR0OBBYEFGeWY3RYTx+aN6IlUNhPcN9mImXfMIGwBgNVHSME
gagwgaWAFKZmDlkPPFwRNbKzmVmp06axXpXSoYGBpH8wfTEUMBIGA1UEAxQLQkhP
UEFMQ0FfQ0ExCzAJBgNVBAYTAklOMQ8wDQYDVQQKEwZDSVRSSVgxDDAKBgNVBAsT
A0FORzELMAkGA1UECBMCS0ExLDAqBgkqhkiG9w0BCQEWHUJIT1BBTENBX0NBQEJI
T1BBTENBX21haWwuY29tggkAvolV82UoF5owSgYIKwYBBQUHAQEEPjA8MDoGCCsG
AQUFBzABhi5odHRwOi8vQkhPUEFMQ0Ffb25lLm9jc3B0ZXN0LmNvbS9yZXNwb25k
ZXJwYXRoMA0GCSqGSIb3DQEBCwUAA4IBAQA4xGm9211ORGllT18Vlg9TW8bo6CgG
l5cpYObPV6cD0O59LHHvgQbeGC7YHN7SE34GX3RWsV8j1vTsseqblrKdpSuQRxW6
3IfwtnEVTPZtIWtnRBs6tH5Ig2osI2DMKQo3gdiP6JcoCSHoUqsyFWW7si1qjfov
yJaJrgrFKTHq7FncCFpQQnbk2rWqwdlhlgyNdHr7KJ5wVoDd7jql7wVxkFgpd+4z
nUDCF0AOHjVjVdXqBvOYL/Kpjy2X0ybJFcacIjXCBqSf1fciuWsKIFRUP0+C04YQ
2G0b1wk3GRmeYGgvyxPb7JvejQdsJJgxqOoXVFY6K4NxEOlS9nqXect0
-----END CERTIFICATE-----
