Certificate:
    Data:
        Version: 3 (0x2)
        Serial Number: 11042563100183 (0xa0b0c0d0e17)
    Signature Algorithm: sha256WithRSAEncryption
        Issuer: CN=MYSORECA_CA, C=IN, O=CITRIX, OU=ANG, ST=KA/emailAddress=MYSORECA_CA@MYSORECA_mail.com
        Validity
            Not Before: Jul  8 04:36:32 2016 GMT
            Not After : Jul  6 04:36:32 2026 GMT
        Subject: ST=KA, C=IN, CN=109_MYSORECA_server/emailAddress=109_MYSORECA@test_ca.com, O=CITRIX
        Subject Public Key Info:
            Public Key Algorithm: rsaEncryption
                Public-Key: (2048 bit)
                Modulus:
                    00:b3:78:35:f9:d9:93:4d:40:5b:de:ba:ad:5b:d6:
                    e2:a5:cd:9e:fd:d1:22:e5:b5:fc:bf:d4:d3:5a:9a:
                    b9:f3:26:ba:1b:06:a1:cb:60:5c:aa:21:5b:ab:fd:
                    5f:2a:31:20:44:de:1f:41:bc:b5:7c:b2:ee:06:34:
                    ca:82:d5:90:d9:e1:60:83:7d:2f:40:a7:b6:fc:2a:
                    ee:9e:c3:5f:15:a9:55:d2:fb:b4:86:65:4e:a7:5e:
                    99:7b:50:94:be:c2:06:a9:7b:c6:11:7f:42:fd:a0:
                    50:29:9e:22:49:6c:6c:2a:26:ca:dd:1a:32:2c:fe:
                    4d:59:b3:e9:ff:b1:84:ba:62:f0:1b:50:48:bf:a2:
                    45:e4:ca:b8:76:ea:73:90:35:ea:b3:4b:2f:91:4a:
                    64:fe:99:8f:02:a6:3e:64:30:f3:60:ba:70:a1:37:
                    8e:18:59:a2:b0:cd:57:61:32:1b:0a:27:d2:e2:bc:
                    6d:95:79:13:33:ba:60:b3:e5:c1:6a:53:18:cc:11:
                    c5:e7:0a:0e:67:9b:60:12:08:8c:4f:9d:fc:83:a1:
                    76:85:02:cb:3b:5b:aa:ac:8c:87:1c:e2:88:be:21:
                    3d:f8:50:fc:c2:0b:1c:13:af:23:ad:42:7c:a7:38:
                    2d:eb:50:02:be:96:36:9e:0b:51:8d:91:ac:74:99:
                    fb:bd
                Exponent: 65537 (0x10001)
        X509v3 extensions:
            Netscape Cert Type: 
                SSL Server
            X509v3 Subject Key Identifier: 
                12:E7:B8:CA:5C:69:E6:87:C2:F3:60:04:FE:1A:72:7F:3F:F0:E1:90
            X509v3 Authority Key Identifier: 
                keyid:C6:18:DA:E4:16:A1:1E:60:AE:18:00:F5:A7:DF:0A:8B:65:4D:36:95
                DirName:/CN=MYSORECA_CA/C=IN/O=CITRIX/OU=ANG/ST=KA/emailAddress=MYSORECA_CA@MYSORECA_mail.com
                serial:D5:74:54:E9:D5:CF:C9:F6

            Authority Information Access: 
                OCSP - URI:http://MYSORECA_one.ocsptest.com/responderpath

    Signature Algorithm: sha256WithRSAEncryption
         4c:67:ca:1f:61:0a:fa:dd:b3:c8:ed:db:52:fd:77:76:c7:16:
         5a:57:c5:80:af:50:8b:ef:41:c7:11:43:9d:a9:49:f0:03:e3:
         a3:2f:7b:28:a2:a3:66:db:ad:4c:52:1f:c2:c5:7b:9e:96:59:
         6a:c2:69:99:f0:44:53:6e:d5:1f:93:46:e9:19:4c:83:80:d4:
         c4:c4:02:82:0e:1a:02:93:79:78:74:f1:36:60:68:83:86:1c:
         ae:30:17:6b:ba:4f:b6:94:d0:6a:8d:2c:ff:81:6a:e0:89:1b:
         08:55:9e:0a:33:5c:40:5d:51:aa:31:9d:61:91:29:5a:5b:5a:
         c7:58:a3:33:14:cd:ba:a2:f7:79:46:2e:49:6b:1e:38:3b:13:
         37:5f:b3:d9:1a:21:63:d9:3a:48:00:6b:21:fd:1d:e7:33:6d:
         4f:48:df:6d:85:b3:a0:f7:2f:75:19:6c:74:bc:80:ea:67:63:
         08:62:a7:aa:55:47:f3:44:7a:f8:43:ad:43:c1:a4:9c:23:02:
         2e:35:34:e3:33:bb:1f:83:c8:22:2d:be:c3:b5:1d:02:f6:59:
         24:08:dd:53:60:05:59:20:1c:84:92:3c:56:a3:c9:7c:e2:5a:
         ce:90:e1:c9:5b:49:ba:16:10:aa:5b:4a:e7:eb:dc:55:65:e5:
         38:64:9a:0b
-----BEGIN CERTIFICATE-----
MIIEpjCCA46gAwIBAgIGCgsMDQ4XMA0GCSqGSIb3DQEBCwUAMH0xFDASBgNVBAMU
C01ZU09SRUNBX0NBMQswCQYDVQQGEwJJTjEPMA0GA1UEChMGQ0lUUklYMQwwCgYD
VQQLEwNBTkcxCzAJBgNVBAgTAktBMSwwKgYJKoZIhvcNAQkBFh1NWVNPUkVDQV9D
QUBNWVNPUkVDQV9tYWlsLmNvbTAeFw0xNjA3MDgwNDM2MzJaFw0yNjA3MDYwNDM2
MzJaMHIxCzAJBgNVBAgTAktBMQswCQYDVQQGEwJJTjEcMBoGA1UEAxQTMTA5X01Z
U09SRUNBX3NlcnZlcjEnMCUGCSqGSIb3DQEJARYYMTA5X01ZU09SRUNBQHRlc3Rf
Y2EuY29tMQ8wDQYDVQQKEwZDSVRSSVgwggEiMA0GCSqGSIb3DQEBAQUAA4IBDwAw
ggEKAoIBAQCzeDX52ZNNQFveuq1b1uKlzZ790SLltfy/1NNamrnzJrobBqHLYFyq
IVur/V8qMSBE3h9BvLV8su4GNMqC1ZDZ4WCDfS9Ap7b8Ku6ew18VqVXS+7SGZU6n
Xpl7UJS+wgape8YRf0L9oFApniJJbGwqJsrdGjIs/k1Zs+n/sYS6YvAbUEi/okXk
yrh26nOQNeqzSy+RSmT+mY8Cpj5kMPNgunChN44YWaKwzVdhMhsKJ9LivG2VeRMz
umCz5cFqUxjMEcXnCg5nm2ASCIxPnfyDoXaFAss7W6qsjIcc4oi+IT34UPzCCxwT
ryOtQnynOC3rUAK+ljaeC1GNkax0mfu9AgMBAAGjggE1MIIBMTARBglghkgBhvhC
AQEEBAMCBkAwHQYDVR0OBBYEFBLnuMpcaeaHwvNgBP4acn8/8OGQMIGwBgNVHSME
gagwgaWAFMYY2uQWoR5grhgA9affCotlTTaVoYGBpH8wfTEUMBIGA1UEAxQLTVlT
T1JFQ0FfQ0ExCzAJBgNVBAYTAklOMQ8wDQYDVQQKEwZDSVRSSVgxDDAKBgNVBAsT
A0FORzELMAkGA1UECBMCS0ExLDAqBgkqhkiG9w0BCQEWHU1ZU09SRUNBX0NBQE1Z
U09SRUNBX21haWwuY29tggkA1XRU6dXPyfYwSgYIKwYBBQUHAQEEPjA8MDoGCCsG
AQUFBzABhi5odHRwOi8vTVlTT1JFQ0Ffb25lLm9jc3B0ZXN0LmNvbS9yZXNwb25k
ZXJwYXRoMA0GCSqGSIb3DQEBCwUAA4IBAQBMZ8ofYQr63bPI7dtS/Xd2xxZaV8WA
r1CL70HHEUOdqUnwA+OjL3sooqNm261MUh/CxXuelllqwmmZ8ERTbtUfk0bpGUyD
gNTExAKCDhoCk3l4dPE2YGiDhhyuMBdruk+2lNBqjSz/gWrgiRsIVZ4KM1xAXVGq
MZ1hkSlaW1rHWKMzFM26ovd5Ri5Jax44OxM3X7PZGiFj2TpIAGsh/R3nM21PSN9t
hbOg9y91GWx0vIDqZ2MIYqeqVUfzRHr4Q61DwaScIwIuNTTjM7sfg8giLb7DtR0C
9lkkCN1TYAVZIByEkjxWo8l84lrOkOHJW0m6FhCqW0rn69xVZeU4ZJoL
-----END CERTIFICATE-----
