Certificate:
    Data:
        Version: 3 (0x2)
        Serial Number: 11042563100183 (0xa0b0c0d0e17)
    Signature Algorithm: sha256WithRSAEncryption
        Issuer: CN=BANGALORECA_CA, C=IN, O=CITRIX, OU=ANG, ST=KA/emailAddress=BANGALORECA_CA@BANGALORECA_mail.com
        Validity
            Not Before: Jul  8 04:31:22 2016 GMT
            Not After : Jul  6 04:31:22 2026 GMT
        Subject: ST=KA, C=IN, CN=109_BANGALORECA_server/emailAddress=109_BANGALORECA@test_ca.com, O=CITRIX
        Subject Public Key Info:
            Public Key Algorithm: rsaEncryption
                Public-Key: (2048 bit)
                Modulus:
                    00:da:b5:98:be:10:76:fb:44:33:40:fa:11:72:bd:
                    65:3b:40:30:40:be:78:77:bc:e9:08:48:ba:32:56:
                    9b:f5:30:0e:c8:2d:7f:16:c9:c7:7c:5e:9b:6e:62:
                    1f:a7:14:50:33:6c:25:02:bf:e9:22:fb:dc:2f:25:
                    f0:ce:1b:91:b4:1d:32:a3:16:15:a6:55:a0:b9:bb:
                    ae:10:ca:0f:af:2c:fa:bc:ff:22:2f:5d:47:cd:b1:
                    7e:88:6d:da:17:0b:43:36:d6:52:24:2a:aa:4d:04:
                    95:02:0f:db:cc:a3:b0:e6:61:47:5e:ad:6a:96:90:
                    41:92:67:59:59:ba:eb:4d:48:11:90:f6:bd:dd:3b:
                    56:8b:1c:ac:02:3e:a5:71:53:29:71:7c:8e:cd:10:
                    2b:e6:46:d1:6c:4c:43:18:a7:4f:48:b5:af:e0:c9:
                    ed:1e:76:cf:eb:58:66:a0:c7:6d:fb:26:9c:b9:77:
                    1a:2c:95:c9:fa:60:03:67:31:a7:87:86:67:e7:1f:
                    43:db:90:6d:a8:ca:cc:b9:dc:9a:38:f9:87:02:ff:
                    0d:b2:f1:09:04:1a:8b:e2:a6:b4:84:43:5e:52:c1:
                    29:ca:58:bb:35:7d:59:45:7f:da:74:85:cd:97:a8:
                    6b:ef:1b:af:64:5c:8c:9e:06:76:14:c6:b5:06:d8:
                    16:19
                Exponent: 65537 (0x10001)
        X509v3 extensions:
            Netscape Cert Type: 
                SSL Server
            X509v3 Subject Key Identifier: 
                0D:6D:90:ED:AD:53:EF:44:D1:83:44:19:F2:CF:1D:51:AE:4F:70:85
            X509v3 Authority Key Identifier: 
                keyid:3B:D6:D1:53:18:87:05:22:BB:EE:C3:0F:F5:CE:0F:6B:A2:93:A7:B8
                DirName:/CN=BANGALORECA_CA/C=IN/O=CITRIX/OU=ANG/ST=KA/emailAddress=BANGALORECA_CA@BANGALORECA_mail.com
                serial:A1:AC:B4:DA:46:53:58:40

            Authority Information Access: 
                OCSP - URI:http://BANGALORECA_one.ocsptest.com/responderpath

    Signature Algorithm: sha256WithRSAEncryption
         74:d4:77:06:b8:58:14:a6:eb:85:e0:33:b1:58:81:f0:eb:fa:
         1f:43:b0:33:96:2b:f5:b6:db:33:78:46:c3:23:05:9b:7f:75:
         bd:99:2e:c8:09:b8:3f:39:88:c0:8f:5d:67:57:66:79:10:5a:
         91:ff:b2:23:4c:23:55:d3:ff:4b:b2:51:26:7e:3a:05:64:11:
         ae:bd:d1:e0:8d:8b:9b:75:bb:95:6d:d2:e0:11:4c:93:a5:bb:
         9d:78:b5:27:5e:bc:e3:b8:a3:ca:6c:25:ce:ec:a9:f8:81:57:
         f7:b6:c6:db:a0:a6:a3:c2:c0:47:2f:31:98:e1:eb:2d:34:31:
         39:e0:58:bf:44:c3:4e:d1:0b:fa:41:df:82:a9:0b:ef:0c:9f:
         0e:69:bf:00:e1:eb:ca:89:0f:76:8c:85:58:10:e9:54:70:4b:
         60:3d:d9:1a:37:c3:f3:1d:0d:45:0f:21:59:33:ba:df:8d:77:
         48:06:68:f5:d6:b0:d9:3c:5a:8a:ee:40:0f:e6:1b:7f:d8:20:
         3a:cf:06:bd:68:f2:fd:56:30:dd:63:10:ad:24:d6:60:fb:28:
         31:55:bb:cd:22:99:21:46:67:7e:8c:81:a9:6b:8f:75:c0:31:
         72:42:f4:42:be:f6:7c:3a:20:8e:83:e7:31:16:56:51:ed:5d:
         1d:15:42:23
-----BEGIN CERTIFICATE-----
MIIExDCCA6ygAwIBAgIGCgsMDQ4XMA0GCSqGSIb3DQEBCwUAMIGGMRcwFQYDVQQD
FA5CQU5HQUxPUkVDQV9DQTELMAkGA1UEBhMCSU4xDzANBgNVBAoTBkNJVFJJWDEM
MAoGA1UECxMDQU5HMQswCQYDVQQIEwJLQTEyMDAGCSqGSIb3DQEJARYjQkFOR0FM
T1JFQ0FfQ0FAQkFOR0FMT1JFQ0FfbWFpbC5jb20wHhcNMTYwNzA4MDQzMTIyWhcN
MjYwNzA2MDQzMTIyWjB4MQswCQYDVQQIEwJLQTELMAkGA1UEBhMCSU4xHzAdBgNV
BAMUFjEwOV9CQU5HQUxPUkVDQV9zZXJ2ZXIxKjAoBgkqhkiG9w0BCQEWGzEwOV9C
QU5HQUxPUkVDQUB0ZXN0X2NhLmNvbTEPMA0GA1UEChMGQ0lUUklYMIIBIjANBgkq
hkiG9w0BAQEFAAOCAQ8AMIIBCgKCAQEA2rWYvhB2+0QzQPoRcr1lO0AwQL54d7zp
CEi6Mlab9TAOyC1/FsnHfF6bbmIfpxRQM2wlAr/pIvvcLyXwzhuRtB0yoxYVplWg
ubuuEMoPryz6vP8iL11HzbF+iG3aFwtDNtZSJCqqTQSVAg/bzKOw5mFHXq1qlpBB
kmdZWbrrTUgRkPa93TtWixysAj6lcVMpcXyOzRAr5kbRbExDGKdPSLWv4MntHnbP
61hmoMdt+yacuXcaLJXJ+mADZzGnh4Zn5x9D25BtqMrMudyaOPmHAv8NsvEJBBqL
4qa0hENeUsEpyli7NX1ZRX/adIXNl6hr7xuvZFyMngZ2FMa1BtgWGQIDAQABo4IB
QzCCAT8wEQYJYIZIAYb4QgEBBAQDAgZAMB0GA1UdDgQWBBQNbZDtrVPvRNGDRBny
zx1Rrk9whTCBuwYDVR0jBIGzMIGwgBQ71tFTGIcFIrvuww/1zg9ropOnuKGBjKSB
iTCBhjEXMBUGA1UEAxQOQkFOR0FMT1JFQ0FfQ0ExCzAJBgNVBAYTAklOMQ8wDQYD
VQQKEwZDSVRSSVgxDDAKBgNVBAsTA0FORzELMAkGA1UECBMCS0ExMjAwBgkqhkiG
9w0BCQEWI0JBTkdBTE9SRUNBX0NBQEJBTkdBTE9SRUNBX21haWwuY29tggkAoay0
2kZTWEAwTQYIKwYBBQUHAQEEQTA/MD0GCCsGAQUFBzABhjFodHRwOi8vQkFOR0FM
T1JFQ0Ffb25lLm9jc3B0ZXN0LmNvbS9yZXNwb25kZXJwYXRoMA0GCSqGSIb3DQEB
CwUAA4IBAQB01HcGuFgUpuuF4DOxWIHw6/ofQ7Azliv1ttszeEbDIwWbf3W9mS7I
Cbg/OYjAj11nV2Z5EFqR/7IjTCNV0/9LslEmfjoFZBGuvdHgjYubdbuVbdLgEUyT
pbudeLUnXrzjuKPKbCXO7Kn4gVf3tsbboKajwsBHLzGY4estNDE54Fi/RMNO0Qv6
Qd+CqQvvDJ8Oab8A4evKiQ92jIVYEOlUcEtgPdkaN8PzHQ1FDyFZM7rfjXdIBmj1
1rDZPFqK7kAP5ht/2CA6zwa9aPL9VjDdYxCtJNZg+ygxVbvNIpkhRmd+jIGpa491
wDFyQvRCvvZ8OiCOg+cxFlZR7V0dFUIj
-----END CERTIFICATE-----
