Certificate:
    Data:
        Version: 3 (0x2)
        Serial Number: 11042563100183 (0xa0b0c0d0e17)
    Signature Algorithm: sha256WithRSAEncryption
        Issuer: CN=DELHICA_CA, C=IN, O=CITRIX, OU=ANG, ST=KA/emailAddress=DELHICA_CA@DELHICA_mail.com
        Validity
            Not Before: Jul  8 04:34:24 2016 GMT
            Not After : Jul  6 04:34:24 2026 GMT
        Subject: ST=KA, C=IN, CN=109_DELHICA_server/emailAddress=109_DELHICA@test_ca.com, O=CITRIX
        Subject Public Key Info:
            Public Key Algorithm: rsaEncryption
                Public-Key: (2048 bit)
                Modulus:
                    00:c2:2f:46:1e:f5:80:cd:70:4a:67:78:5d:26:af:
                    3b:79:1c:af:47:4c:52:6a:ea:cc:34:99:67:4c:ca:
                    3c:2e:07:37:10:5b:53:2e:38:c0:7d:42:8c:50:41:
                    1d:5e:73:05:ed:d1:a8:26:45:cc:f3:1a:51:eb:29:
                    4b:36:07:00:0c:7a:af:de:e3:12:c6:3a:90:fa:d6:
                    e6:a1:9f:32:82:a7:74:0b:ac:10:36:5c:52:13:48:
                    3e:1e:b8:79:f1:b2:a7:74:be:b7:de:2c:85:9d:9d:
                    7c:29:85:72:49:19:d7:bc:1e:3b:a4:de:dd:d0:ec:
                    6d:ef:d6:fb:cb:9f:98:1d:7d:67:7e:fc:9f:fc:e5:
                    76:eb:ab:5f:e8:3c:8e:31:8e:a3:6d:bd:ca:ad:b3:
                    25:a3:83:c3:ae:f9:d8:13:59:f0:be:09:68:0c:e9:
                    ad:df:42:79:14:27:ed:f3:e4:c2:2f:38:2c:2d:3f:
                    a1:c8:8b:80:e0:98:0e:f8:b6:a2:dd:cb:df:cc:2c:
                    3c:13:22:f6:f2:99:57:f2:93:5e:1c:da:ef:3b:f5:
                    66:56:60:53:19:00:74:f9:18:17:c2:fa:0c:77:25:
                    10:b8:2e:c7:9f:41:4e:c1:5f:19:a9:de:0f:53:f5:
                    35:8d:de:99:19:30:73:c4:7e:56:ec:2f:17:10:bc:
                    90:bb
                Exponent: 65537 (0x10001)
        X509v3 extensions:
            Netscape Cert Type: 
                SSL Server
            X509v3 Subject Key Identifier: 
                AA:12:09:2B:2E:3E:6C:A6:45:E6:CA:38:03:A5:2B:5A:FF:35:70:FD
            X509v3 Authority Key Identifier: 
                keyid:D7:37:52:01:DC:2C:7A:57:85:CA:30:39:30:F0:D5:5D:5A:31:03:02
                DirName:/CN=DELHICA_CA/C=IN/O=CITRIX/OU=ANG/ST=KA/emailAddress=DELHICA_CA@DELHICA_mail.com
                serial:94:59:DC:51:4E:A5:13:27

            Authority Information Access: 
                OCSP - URI:http://DELHICA_one.ocsptest.com/responderpath

    Signature Algorithm: sha256WithRSAEncryption
         54:d6:f9:7f:01:e6:57:cb:93:15:77:0d:0c:f9:6c:fb:97:60:
         23:4e:c6:ec:83:f0:2c:b5:07:ee:ed:49:f8:bb:ae:79:ef:d1:
         ac:f6:45:61:b0:75:f2:3f:6f:84:00:bd:01:58:28:a4:dd:2a:
         38:e4:3b:e5:03:cf:81:4e:36:52:6e:bc:7e:8c:0b:ad:05:01:
         ca:82:b0:9d:f2:bb:f5:ef:e4:42:5b:56:66:20:4f:91:03:2f:
         b9:12:44:2b:55:7b:e2:32:ae:c9:51:72:83:64:a3:b1:cc:1a:
         27:e2:ce:e5:0c:7e:78:8e:6a:a9:42:1c:8f:89:3c:e4:d1:54:
         be:86:eb:a3:c3:4f:a1:ca:90:a2:4b:27:c2:96:49:aa:8f:85:
         58:ec:bd:29:af:e5:40:45:35:78:a3:cd:82:b7:75:f9:ab:59:
         48:6d:9b:cd:b0:44:70:1b:c1:f3:c8:be:ff:2f:5d:0c:25:db:
         85:06:f1:3d:70:cc:7d:f0:5d:69:22:c5:de:db:6b:8e:0e:9d:
         24:e9:a1:7e:22:88:70:dd:5e:a2:8a:a7:a0:cc:b7:ca:ef:0d:
         39:b5:93:6f:30:77:85:c0:c6:c4:26:9b:69:9c:f7:14:9f:2f:
         25:2c:4b:24:47:3c:b7:0d:b7:72:3c:b7:86:d4:84:44:b7:33:
         4f:a4:0c:1b
-----BEGIN CERTIFICATE-----
MIIEnDCCA4SgAwIBAgIGCgsMDQ4XMA0GCSqGSIb3DQEBCwUAMHoxEzARBgNVBAMU
CkRFTEhJQ0FfQ0ExCzAJBgNVBAYTAklOMQ8wDQYDVQQKEwZDSVRSSVgxDDAKBgNV
BAsTA0FORzELMAkGA1UECBMCS0ExKjAoBgkqhkiG9w0BCQEWG0RFTEhJQ0FfQ0FA
REVMSElDQV9tYWlsLmNvbTAeFw0xNjA3MDgwNDM0MjRaFw0yNjA3MDYwNDM0MjRa
MHAxCzAJBgNVBAgTAktBMQswCQYDVQQGEwJJTjEbMBkGA1UEAxQSMTA5X0RFTEhJ
Q0Ffc2VydmVyMSYwJAYJKoZIhvcNAQkBFhcxMDlfREVMSElDQUB0ZXN0X2NhLmNv
bTEPMA0GA1UEChMGQ0lUUklYMIIBIjANBgkqhkiG9w0BAQEFAAOCAQ8AMIIBCgKC
AQEAwi9GHvWAzXBKZ3hdJq87eRyvR0xSaurMNJlnTMo8Lgc3EFtTLjjAfUKMUEEd
XnMF7dGoJkXM8xpR6ylLNgcADHqv3uMSxjqQ+tbmoZ8ygqd0C6wQNlxSE0g+Hrh5
8bKndL633iyFnZ18KYVySRnXvB47pN7d0Oxt79b7y5+YHX1nfvyf/OV266tf6DyO
MY6jbb3KrbMlo4PDrvnYE1nwvgloDOmt30J5FCft8+TCLzgsLT+hyIuA4JgO+Lai
3cvfzCw8EyL28plX8pNeHNrvO/VmVmBTGQB0+RgXwvoMdyUQuC7Hn0FOwV8Zqd4P
U/U1jd6ZGTBzxH5W7C8XELyQuwIDAQABo4IBMDCCASwwEQYJYIZIAYb4QgEBBAQD
AgZAMB0GA1UdDgQWBBSqEgkrLj5spkXmyjgDpSta/zVw/TCBrAYDVR0jBIGkMIGh
gBTXN1IB3Cx6V4XKMDkw8NVdWjEDAqF+pHwwejETMBEGA1UEAxQKREVMSElDQV9D
QTELMAkGA1UEBhMCSU4xDzANBgNVBAoTBkNJVFJJWDEMMAoGA1UECxMDQU5HMQsw
CQYDVQQIEwJLQTEqMCgGCSqGSIb3DQEJARYbREVMSElDQV9DQUBERUxISUNBX21h
aWwuY29tggkAlFncUU6lEycwSQYIKwYBBQUHAQEEPTA7MDkGCCsGAQUFBzABhi1o
dHRwOi8vREVMSElDQV9vbmUub2NzcHRlc3QuY29tL3Jlc3BvbmRlcnBhdGgwDQYJ
KoZIhvcNAQELBQADggEBAFTW+X8B5lfLkxV3DQz5bPuXYCNOxuyD8Cy1B+7tSfi7
rnnv0az2RWGwdfI/b4QAvQFYKKTdKjjkO+UDz4FONlJuvH6MC60FAcqCsJ3yu/Xv
5EJbVmYgT5EDL7kSRCtVe+IyrslRcoNko7HMGifizuUMfniOaqlCHI+JPOTRVL6G
66PDT6HKkKJLJ8KWSaqPhVjsvSmv5UBFNXijzYK3dfmrWUhtm82wRHAbwfPIvv8v
XQwl24UG8T1wzH3wXWkixd7ba44OnSTpoX4iiHDdXqKKp6DMt8rvDTm1k28wd4XA
xsQmm2mc9xSfLyUsSyRHPLcNt3I8t4bUhES3M0+kDBs=
-----END CERTIFICATE-----
