Certificate:
    Data:
        Version: 3 (0x2)
        Serial Number: 11042563100184 (0xa0b0c0d0e18)
    Signature Algorithm: sha256WithRSAEncryption
        Issuer: CN=CALCUTTACA_CA, C=IN, O=CITRIX, OU=ANG, ST=KA/emailAddress=CALCUTTACA_CA@CALCUTTACA_mail.com
        Validity
            Not Before: Jul  8 04:33:05 2016 GMT
            Not After : Jul  6 04:33:05 2026 GMT
        Subject: ST=KA, C=IN, CN=110_CALCUTTACA_server/emailAddress=110_CALCUTTACA@test_ca.com, O=CITRIX
        Subject Public Key Info:
            Public Key Algorithm: rsaEncryption
                Public-Key: (2048 bit)
                Modulus:
                    00:bf:22:55:bd:9a:94:a8:61:95:e8:71:48:a4:89:
                    4d:3b:d0:ef:8c:2f:c5:bd:5b:af:c6:9e:35:83:4f:
                    af:62:2a:ee:7d:96:ad:66:8c:16:9e:88:e8:9e:c9:
                    a1:e7:56:56:59:f0:d4:5b:c2:e1:53:32:b9:20:25:
                    ba:a5:54:37:45:56:f3:3b:a5:e2:34:48:af:03:68:
                    ed:a3:c1:b0:ce:a2:3a:0e:c4:86:23:09:bd:1a:0a:
                    9d:4b:22:34:ea:b3:5a:a8:cf:87:63:90:c5:c7:77:
                    5e:17:e1:76:92:1d:db:42:71:60:fa:a2:6a:35:da:
                    c3:5a:ac:94:fe:69:63:68:8c:16:c9:72:05:73:19:
                    57:d5:6b:fd:34:ca:59:c8:79:b9:6b:46:bb:1d:24:
                    e1:ca:d7:08:f2:51:ea:48:a7:bd:70:22:51:d2:a8:
                    8c:2e:d7:75:0e:9e:c8:90:d0:f5:ca:e0:95:c4:58:
                    bb:45:30:8f:ab:90:08:86:11:17:f9:d7:53:ce:b2:
                    04:ea:eb:d0:3b:98:c6:f5:f1:e5:1c:26:72:9c:38:
                    66:32:00:23:45:b8:ad:d6:d2:42:a7:24:94:a5:ca:
                    8b:11:14:83:7d:27:3b:28:1d:a1:74:9f:a9:63:17:
                    4b:77:1c:b3:64:85:22:68:62:f3:1f:a4:30:7d:2e:
                    13:1f
                Exponent: 65537 (0x10001)
        X509v3 extensions:
            Netscape Cert Type: 
                SSL Server
            X509v3 Subject Key Identifier: 
                57:B4:D8:A4:47:D0:21:31:3F:4B:77:F9:B7:7D:B5:50:F0:45:9C:DE
            X509v3 Authority Key Identifier: 
                keyid:37:2E:7B:27:46:4B:CF:47:10:AC:2B:2E:BA:D0:F3:66:75:EB:52:75
                DirName:/CN=CALCUTTACA_CA/C=IN/O=CITRIX/OU=ANG/ST=KA/emailAddress=CALCUTTACA_CA@CALCUTTACA_mail.com
                serial:A5:C6:47:0E:E6:06:37:18

            Authority Information Access: 
                OCSP - URI:http://CALCUTTACA_one.ocsptest.com/responderpath

    Signature Algorithm: sha256WithRSAEncryption
         a2:c3:38:d0:0e:46:ae:60:83:b4:31:d8:92:49:8e:89:58:75:
         15:e2:ad:41:d2:22:2b:ef:9b:b6:9d:9e:21:10:9e:5a:4e:ca:
         0a:8f:95:ce:9c:46:47:71:5d:9a:51:13:1c:76:0f:2b:58:da:
         27:1b:73:f6:fb:55:88:eb:4c:49:8f:4d:b0:00:ea:e5:e0:41:
         e2:c1:51:58:06:61:a5:fc:f8:e5:5e:b7:f9:ed:5f:03:9a:e3:
         1e:05:98:54:13:3f:5b:48:68:03:77:30:f8:b2:d9:99:aa:38:
         74:2e:53:d3:e9:57:f5:43:62:68:55:62:c3:a2:bb:27:c2:98:
         05:84:d2:cb:a3:71:15:4e:11:7d:9b:6d:a2:16:1c:2e:a5:67:
         44:1b:34:55:21:08:21:10:61:2e:1e:5b:f3:79:25:1a:89:d8:
         47:df:06:3a:83:3f:ee:e4:ba:f1:f5:d5:8d:9a:dc:dc:56:96:
         dd:55:f1:d7:e1:96:c0:1e:14:cd:49:ea:8a:ba:13:a1:f0:31:
         e9:7a:f3:b1:79:94:cd:16:ba:7f:00:f8:d4:15:a4:46:9c:0a:
         a1:65:58:4a:a6:f4:ad:27:03:64:01:f6:e7:12:5c:5a:06:89:
         93:0d:a4:c8:28:9e:9e:75:b5:0d:1b:30:95:1f:d4:64:72:63:
         b3:47:ca:ba
-----BEGIN CERTIFICATE-----
MIIEuzCCA6OgAwIBAgIGCgsMDQ4YMA0GCSqGSIb3DQEBCwUAMIGDMRYwFAYDVQQD
FA1DQUxDVVRUQUNBX0NBMQswCQYDVQQGEwJJTjEPMA0GA1UEChMGQ0lUUklYMQww
CgYDVQQLEwNBTkcxCzAJBgNVBAgTAktBMTAwLgYJKoZIhvcNAQkBFiFDQUxDVVRU
QUNBX0NBQENBTENVVFRBQ0FfbWFpbC5jb20wHhcNMTYwNzA4MDQzMzA1WhcNMjYw
NzA2MDQzMzA1WjB2MQswCQYDVQQIEwJLQTELMAkGA1UEBhMCSU4xHjAcBgNVBAMU
FTExMF9DQUxDVVRUQUNBX3NlcnZlcjEpMCcGCSqGSIb3DQEJARYaMTEwX0NBTENV
VFRBQ0FAdGVzdF9jYS5jb20xDzANBgNVBAoTBkNJVFJJWDCCASIwDQYJKoZIhvcN
AQEBBQADggEPADCCAQoCggEBAL8iVb2alKhhlehxSKSJTTvQ74wvxb1br8aeNYNP
r2Iq7n2WrWaMFp6I6J7JoedWVlnw1FvC4VMyuSAluqVUN0VW8zul4jRIrwNo7aPB
sM6iOg7EhiMJvRoKnUsiNOqzWqjPh2OQxcd3XhfhdpId20JxYPqiajXaw1qslP5p
Y2iMFslyBXMZV9Vr/TTKWch5uWtGux0k4crXCPJR6kinvXAiUdKojC7XdQ6eyJDQ
9crglcRYu0Uwj6uQCIYRF/nXU86yBOrr0DuYxvXx5Rwmcpw4ZjIAI0W4rdbSQqck
lKXKixEUg30nOygdoXSfqWMXS3ccs2SFImhi8x+kMH0uEx8CAwEAAaOCAT8wggE7
MBEGCWCGSAGG+EIBAQQEAwIGQDAdBgNVHQ4EFgQUV7TYpEfQITE/S3f5t321UPBF
nN4wgbgGA1UdIwSBsDCBrYAUNy57J0ZLz0cQrCsuutDzZnXrUnWhgYmkgYYwgYMx
FjAUBgNVBAMUDUNBTENVVFRBQ0FfQ0ExCzAJBgNVBAYTAklOMQ8wDQYDVQQKEwZD
SVRSSVgxDDAKBgNVBAsTA0FORzELMAkGA1UECBMCS0ExMDAuBgkqhkiG9w0BCQEW
IUNBTENVVFRBQ0FfQ0FAQ0FMQ1VUVEFDQV9tYWlsLmNvbYIJAKXGRw7mBjcYMEwG
CCsGAQUFBwEBBEAwPjA8BggrBgEFBQcwAYYwaHR0cDovL0NBTENVVFRBQ0Ffb25l
Lm9jc3B0ZXN0LmNvbS9yZXNwb25kZXJwYXRoMA0GCSqGSIb3DQEBCwUAA4IBAQCi
wzjQDkauYIO0MdiSSY6JWHUV4q1B0iIr75u2nZ4hEJ5aTsoKj5XOnEZHcV2aURMc
dg8rWNonG3P2+1WI60xJj02wAOrl4EHiwVFYBmGl/PjlXrf57V8DmuMeBZhUEz9b
SGgDdzD4stmZqjh0LlPT6Vf1Q2JoVWLDorsnwpgFhNLLo3EVThF9m22iFhwupWdE
GzRVIQghEGEuHlvzeSUaidhH3wY6gz/u5Lrx9dWNmtzcVpbdVfHX4ZbAHhTNSeqK
uhOh8DHpevOxeZTNFrp/APjUFaRGnAqhZVhKpvStJwNkAfbnElxaBomTDaTIKJ6e
dbUNGzCVH9RkcmOzR8q6
-----END CERTIFICATE-----
