Certificate:
    Data:
        Version: 3 (0x2)
        Serial Number: 11042563100184 (0xa0b0c0d0e18)
    Signature Algorithm: sha256WithRSAEncryption
        Issuer: CN=DELHICA_CA, C=IN, O=CITRIX, OU=ANG, ST=KA/emailAddress=DELHICA_CA@DELHICA_mail.com
        Validity
            Not Before: Jul  8 04:34:24 2016 GMT
            Not After : Jul  6 04:34:24 2026 GMT
        Subject: ST=KA, C=IN, CN=110_DELHICA_server/emailAddress=110_DELHICA@test_ca.com, O=CITRIX
        Subject Public Key Info:
            Public Key Algorithm: rsaEncryption
                Public-Key: (2048 bit)
                Modulus:
                    00:eb:ed:7f:3c:6e:c3:c6:38:85:1a:bf:19:7c:b9:
                    95:0c:8b:70:f1:57:0d:8f:a1:d2:20:fd:75:d8:5d:
                    56:b3:14:19:6e:1b:ac:ca:99:fe:02:46:2b:c1:e8:
                    37:ce:f1:5b:ec:f3:14:93:6f:f0:60:bf:0d:0d:6a:
                    f2:b2:b3:7d:c9:75:f0:ce:93:1f:9f:fd:4d:0c:56:
                    34:6e:65:14:0b:f7:14:d6:a8:ee:00:57:8c:00:27:
                    c5:42:b5:e0:4b:ba:4d:f9:e1:67:78:cf:e7:ea:51:
                    42:24:b2:4f:f0:40:07:f9:83:d7:40:c9:5b:b6:53:
                    76:41:2a:cd:39:28:42:57:c8:84:2c:86:2e:74:9e:
                    db:a8:82:6a:ac:1b:c8:37:17:5b:35:9b:8d:d5:34:
                    00:23:98:19:1a:54:19:11:ad:bf:e1:62:d5:c8:61:
                    b5:3f:df:81:95:b3:4e:18:2f:af:bb:a7:e5:94:de:
                    72:ec:cb:c0:98:c7:e1:29:3f:86:90:f9:6c:50:92:
                    5c:ee:91:76:74:75:68:3b:5f:87:ab:c2:2e:70:31:
                    0c:a7:1d:72:8b:b7:41:6e:9e:57:2f:c9:3d:8b:a3:
                    86:a0:58:95:de:f8:e7:58:b1:47:d5:e8:af:c4:bf:
                    04:8c:91:92:4c:64:2b:16:67:7c:8c:c8:66:4a:c2:
                    f0:b7
                Exponent: 65537 (0x10001)
        X509v3 extensions:
            Netscape Cert Type: 
                SSL Server
            X509v3 Subject Key Identifier: 
                04:C7:46:80:ED:0E:C6:58:ED:1E:36:99:6A:DE:BB:C4:76:25:C0:6F
            X509v3 Authority Key Identifier: 
                keyid:D7:37:52:01:DC:2C:7A:57:85:CA:30:39:30:F0:D5:5D:5A:31:03:02
                DirName:/CN=DELHICA_CA/C=IN/O=CITRIX/OU=ANG/ST=KA/emailAddress=DELHICA_CA@DELHICA_mail.com
                serial:94:59:DC:51:4E:A5:13:27

            Authority Information Access: 
                OCSP - URI:http://DELHICA_one.ocsptest.com/responderpath

    Signature Algorithm: sha256WithRSAEncryption
         b8:2d:c7:de:ad:39:a8:66:49:60:80:c8:72:35:91:02:36:05:
         40:b2:32:1b:c8:88:bb:71:7e:78:7b:18:84:12:a5:7b:b8:88:
         4b:01:b1:ea:51:2c:96:ac:c1:3f:9c:86:df:11:f6:99:0f:bf:
         5d:13:0a:c4:d5:dd:d3:80:bb:27:9d:d1:c6:c7:04:66:ab:dd:
         53:62:5c:0f:c3:3c:79:73:6f:07:f7:f3:2a:9d:e8:5d:c8:71:
         cd:fc:b5:ef:ed:db:c0:d3:36:65:21:1b:03:f0:1e:51:98:7a:
         cd:ba:58:ea:41:a7:e7:12:27:db:a7:4f:83:3a:3f:c6:0a:24:
         a2:e5:51:ab:ea:71:a5:0f:3f:23:49:07:28:72:8d:6b:b7:be:
         40:f4:5e:25:81:0b:bd:75:c2:e0:61:08:91:4e:6d:99:3d:a7:
         43:11:b0:09:5e:bf:de:f8:8e:bc:b1:9c:58:1a:2f:40:c0:5f:
         47:65:4f:15:5b:7f:94:5a:e1:a0:36:bd:dd:08:93:c3:3c:1a:
         d7:51:c6:50:e3:5b:50:cd:f1:89:08:e4:fe:36:34:83:11:0d:
         2f:b8:99:95:c6:3a:82:b1:6a:6c:7d:be:05:0f:3a:7b:a9:bc:
         4e:ed:64:29:0a:64:7a:c9:db:5a:e7:c7:38:1f:3e:3e:e1:f0:
         98:b5:3f:05
-----BEGIN CERTIFICATE-----
MIIEnDCCA4SgAwIBAgIGCgsMDQ4YMA0GCSqGSIb3DQEBCwUAMHoxEzARBgNVBAMU
CkRFTEhJQ0FfQ0ExCzAJBgNVBAYTAklOMQ8wDQYDVQQKEwZDSVRSSVgxDDAKBgNV
BAsTA0FORzELMAkGA1UECBMCS0ExKjAoBgkqhkiG9w0BCQEWG0RFTEhJQ0FfQ0FA
REVMSElDQV9tYWlsLmNvbTAeFw0xNjA3MDgwNDM0MjRaFw0yNjA3MDYwNDM0MjRa
MHAxCzAJBgNVBAgTAktBMQswCQYDVQQGEwJJTjEbMBkGA1UEAxQSMTEwX0RFTEhJ
Q0Ffc2VydmVyMSYwJAYJKoZIhvcNAQkBFhcxMTBfREVMSElDQUB0ZXN0X2NhLmNv
bTEPMA0GA1UEChMGQ0lUUklYMIIBIjANBgkqhkiG9w0BAQEFAAOCAQ8AMIIBCgKC
AQEA6+1/PG7DxjiFGr8ZfLmVDItw8VcNj6HSIP112F1WsxQZbhusypn+AkYrweg3
zvFb7PMUk2/wYL8NDWrysrN9yXXwzpMfn/1NDFY0bmUUC/cU1qjuAFeMACfFQrXg
S7pN+eFneM/n6lFCJLJP8EAH+YPXQMlbtlN2QSrNOShCV8iELIYudJ7bqIJqrBvI
NxdbNZuN1TQAI5gZGlQZEa2/4WLVyGG1P9+BlbNOGC+vu6fllN5y7MvAmMfhKT+G
kPlsUJJc7pF2dHVoO1+Hq8IucDEMpx1yi7dBbp5XL8k9i6OGoFiV3vjnWLFH1eiv
xL8EjJGSTGQrFmd8jMhmSsLwtwIDAQABo4IBMDCCASwwEQYJYIZIAYb4QgEBBAQD
AgZAMB0GA1UdDgQWBBQEx0aA7Q7GWO0eNplq3rvEdiXAbzCBrAYDVR0jBIGkMIGh
gBTXN1IB3Cx6V4XKMDkw8NVdWjEDAqF+pHwwejETMBEGA1UEAxQKREVMSElDQV9D
QTELMAkGA1UEBhMCSU4xDzANBgNVBAoTBkNJVFJJWDEMMAoGA1UECxMDQU5HMQsw
CQYDVQQIEwJLQTEqMCgGCSqGSIb3DQEJARYbREVMSElDQV9DQUBERUxISUNBX21h
aWwuY29tggkAlFncUU6lEycwSQYIKwYBBQUHAQEEPTA7MDkGCCsGAQUFBzABhi1o
dHRwOi8vREVMSElDQV9vbmUub2NzcHRlc3QuY29tL3Jlc3BvbmRlcnBhdGgwDQYJ
KoZIhvcNAQELBQADggEBALgtx96tOahmSWCAyHI1kQI2BUCyMhvIiLtxfnh7GIQS
pXu4iEsBsepRLJaswT+cht8R9pkPv10TCsTV3dOAuyed0cbHBGar3VNiXA/DPHlz
bwf38yqd6F3Icc38te/t28DTNmUhGwPwHlGYes26WOpBp+cSJ9unT4M6P8YKJKLl
UavqcaUPPyNJByhyjWu3vkD0XiWBC711wuBhCJFObZk9p0MRsAlev974jryxnFga
L0DAX0dlTxVbf5Ra4aA2vd0Ik8M8GtdRxlDjW1DN8YkI5P42NIMRDS+4mZXGOoKx
amx9vgUPOnupvE7tZCkKZHrJ21rnxzgfPj7h8Ji1PwU=
-----END CERTIFICATE-----
