Certificate:
    Data:
        Version: 3 (0x2)
        Serial Number: 11042563100184 (0xa0b0c0d0e18)
    Signature Algorithm: sha256WithRSAEncryption
        Issuer: CN=BHOPALCA_CA, C=IN, O=CITRIX, OU=ANG, ST=KA/emailAddress=BHOPALCA_CA@BHOPALCA_mail.com
        Validity
            Not Before: Jul  8 04:32:34 2016 GMT
            Not After : Jul  6 04:32:34 2026 GMT
        Subject: ST=KA, C=IN, CN=110_BHOPALCA_server/emailAddress=110_BHOPALCA@test_ca.com, O=CITRIX
        Subject Public Key Info:
            Public Key Algorithm: rsaEncryption
                Public-Key: (2048 bit)
                Modulus:
                    00:af:3b:c0:20:12:45:9c:f7:77:ae:75:b9:c0:89:
                    a6:f8:41:a8:16:bd:e0:d9:9d:e1:50:37:4b:81:13:
                    95:23:e7:37:9c:e9:93:37:28:ec:a7:fd:fe:52:0c:
                    30:93:31:68:55:ca:58:e9:3a:61:44:90:d9:b0:2f:
                    67:23:37:f5:75:56:4e:7e:09:d0:0c:a3:84:18:90:
                    9b:17:c5:06:37:b4:4d:4c:e3:11:00:1c:4e:69:c9:
                    d4:af:b3:df:e2:49:eb:c2:4d:7a:fe:a5:21:7d:58:
                    c8:52:e8:96:22:a9:29:e9:18:07:c2:dd:39:4a:52:
                    72:7a:63:c1:6f:e0:37:39:96:d8:96:06:23:8a:2f:
                    18:58:b4:64:70:0d:fd:ca:77:56:58:cc:ba:c1:b0:
                    3c:4d:45:86:b0:90:ba:cb:cc:d3:ff:ee:43:95:58:
                    8c:61:37:f2:b4:2e:53:d0:52:a5:f7:6e:ae:95:a5:
                    22:54:24:5d:f8:df:92:80:2c:9c:44:6a:75:cf:74:
                    57:af:fa:50:58:8b:a4:b6:51:78:58:be:2a:70:21:
                    4c:d4:7c:55:2a:e1:2a:6d:07:99:27:16:8d:1e:f0:
                    47:f7:17:ab:89:d1:59:1d:bb:77:16:e0:49:82:87:
                    d6:ad:9e:7b:dc:05:89:21:31:0b:1d:b8:a1:14:77:
                    51:f3
                Exponent: 65537 (0x10001)
        X509v3 extensions:
            Netscape Cert Type: 
                SSL Server
            X509v3 Subject Key Identifier: 
                AA:B4:75:7F:C5:BF:D6:C2:B1:F9:37:79:72:94:22:8F:21:99:BB:8F
            X509v3 Authority Key Identifier: 
                keyid:A6:66:0E:59:0F:3C:5C:11:35:B2:B3:99:59:A9:D3:A6:B1:5E:95:D2
                DirName:/CN=BHOPALCA_CA/C=IN/O=CITRIX/OU=ANG/ST=KA/emailAddress=BHOPALCA_CA@BHOPALCA_mail.com
                serial:BE:89:55:F3:65:28:17:9A

            Authority Information Access: 
                OCSP - URI:http://BHOPALCA_one.ocsptest.com/responderpath

    Signature Algorithm: sha256WithRSAEncryption
         92:f8:c0:dd:87:6b:f2:20:ca:a8:17:76:8d:ca:7c:50:40:7d:
         47:27:98:4b:b3:2b:d2:e3:16:4c:d2:0f:24:b4:1a:91:5f:0b:
         39:a0:db:b6:c9:8c:5f:f2:06:fc:25:ba:08:ce:fd:d6:2f:ce:
         c7:d2:2d:74:9b:c7:e4:77:ab:06:03:e6:04:ce:20:1a:15:e2:
         06:88:1c:d8:88:a9:da:89:fd:62:fe:e0:a5:52:01:07:76:a8:
         8f:c5:fd:8b:95:fc:92:b8:04:51:05:52:f8:3f:fe:bc:74:5a:
         79:b3:11:d6:5f:a8:66:a8:86:6b:28:13:3c:92:47:48:a3:11:
         76:65:c9:48:48:bf:e0:84:9e:eb:c7:7e:6d:84:fe:70:9a:7b:
         80:20:01:3a:4f:c7:52:18:d2:0a:61:42:aa:e6:54:7d:6f:54:
         fb:ea:cc:2d:43:be:3b:dd:5c:02:de:8a:fb:56:de:6e:5d:9d:
         a0:f7:84:5b:80:6f:36:25:df:e9:93:2e:6b:03:45:6b:48:e8:
         1c:b0:b4:54:7b:22:7a:8e:46:08:fe:46:49:86:6f:0a:65:f5:
         0d:f8:1b:c4:cf:94:20:57:f3:c7:72:4f:f7:c1:ea:42:e3:2a:
         52:c3:52:ae:c6:6f:54:b0:1a:08:ec:cc:66:66:e1:5d:84:9d:
         eb:4f:25:e8
-----BEGIN CERTIFICATE-----
MIIEpjCCA46gAwIBAgIGCgsMDQ4YMA0GCSqGSIb3DQEBCwUAMH0xFDASBgNVBAMU
C0JIT1BBTENBX0NBMQswCQYDVQQGEwJJTjEPMA0GA1UEChMGQ0lUUklYMQwwCgYD
VQQLEwNBTkcxCzAJBgNVBAgTAktBMSwwKgYJKoZIhvcNAQkBFh1CSE9QQUxDQV9D
QUBCSE9QQUxDQV9tYWlsLmNvbTAeFw0xNjA3MDgwNDMyMzRaFw0yNjA3MDYwNDMy
MzRaMHIxCzAJBgNVBAgTAktBMQswCQYDVQQGEwJJTjEcMBoGA1UEAxQTMTEwX0JI
T1BBTENBX3NlcnZlcjEnMCUGCSqGSIb3DQEJARYYMTEwX0JIT1BBTENBQHRlc3Rf
Y2EuY29tMQ8wDQYDVQQKEwZDSVRSSVgwggEiMA0GCSqGSIb3DQEBAQUAA4IBDwAw
ggEKAoIBAQCvO8AgEkWc93eudbnAiab4QagWveDZneFQN0uBE5Uj5zec6ZM3KOyn
/f5SDDCTMWhVyljpOmFEkNmwL2cjN/V1Vk5+CdAMo4QYkJsXxQY3tE1M4xEAHE5p
ydSvs9/iSevCTXr+pSF9WMhS6JYiqSnpGAfC3TlKUnJ6Y8Fv4Dc5ltiWBiOKLxhY
tGRwDf3Kd1ZYzLrBsDxNRYawkLrLzNP/7kOVWIxhN/K0LlPQUqX3bq6VpSJUJF34
35KALJxEanXPdFev+lBYi6S2UXhYvipwIUzUfFUq4SptB5knFo0e8Ef3F6uJ0Vkd
u3cW4EmCh9atnnvcBYkhMQsduKEUd1HzAgMBAAGjggE1MIIBMTARBglghkgBhvhC
AQEEBAMCBkAwHQYDVR0OBBYEFKq0dX/Fv9bCsfk3eXKUIo8hmbuPMIGwBgNVHSME
gagwgaWAFKZmDlkPPFwRNbKzmVmp06axXpXSoYGBpH8wfTEUMBIGA1UEAxQLQkhP
UEFMQ0FfQ0ExCzAJBgNVBAYTAklOMQ8wDQYDVQQKEwZDSVRSSVgxDDAKBgNVBAsT
A0FORzELMAkGA1UECBMCS0ExLDAqBgkqhkiG9w0BCQEWHUJIT1BBTENBX0NBQEJI
T1BBTENBX21haWwuY29tggkAvolV82UoF5owSgYIKwYBBQUHAQEEPjA8MDoGCCsG
AQUFBzABhi5odHRwOi8vQkhPUEFMQ0Ffb25lLm9jc3B0ZXN0LmNvbS9yZXNwb25k
ZXJwYXRoMA0GCSqGSIb3DQEBCwUAA4IBAQCS+MDdh2vyIMqoF3aNynxQQH1HJ5hL
syvS4xZM0g8ktBqRXws5oNu2yYxf8gb8JboIzv3WL87H0i10m8fkd6sGA+YEziAa
FeIGiBzYiKnaif1i/uClUgEHdqiPxf2LlfySuARRBVL4P/68dFp5sxHWX6hmqIZr
KBM8kkdIoxF2ZclISL/ghJ7rx35thP5wmnuAIAE6T8dSGNIKYUKq5lR9b1T76swt
Q7473VwC3or7Vt5uXZ2g94RbgG82Jd/pky5rA0VrSOgcsLRUeyJ6jkYI/kZJhm8K
ZfUN+BvEz5QgV/PHck/3wepC4ypSw1Kuxm9UsBoI7MxmZuFdhJ3rTyXo
-----END CERTIFICATE-----
