Certificate:
    Data:
        Version: 3 (0x2)
        Serial Number: 11042563100184 (0xa0b0c0d0e18)
    Signature Algorithm: sha256WithRSAEncryption
        Issuer: CN=KOCHICA_CA, C=IN, O=CITRIX, OU=ANG, ST=KA/emailAddress=KOCHICA_CA@KOCHICA_mail.com
        Validity
            Not Before: Jul  8 04:35:19 2016 GMT
            Not After : Jul  6 04:35:19 2026 GMT
        Subject: ST=KA, C=IN, CN=110_KOCHICA_server/emailAddress=110_KOCHICA@test_ca.com, O=CITRIX
        Subject Public Key Info:
            Public Key Algorithm: rsaEncryption
                Public-Key: (2048 bit)
                Modulus:
                    00:ce:9b:6d:a7:bb:45:bd:55:2e:97:e6:ad:24:ac:
                    49:2e:87:e1:2b:64:b1:17:be:8f:92:b4:e9:17:7f:
                    79:c0:04:c9:92:b6:4f:a0:75:60:bf:6c:71:5f:e4:
                    40:32:16:e8:c8:fe:3c:6e:a7:c7:3c:f5:54:0f:27:
                    4d:99:16:4d:eb:f4:49:25:b1:e0:ee:27:30:1d:2f:
                    af:eb:50:ad:78:57:84:da:bd:f2:f6:fc:02:34:64:
                    2a:88:7d:d0:0c:f3:3b:57:3e:67:cc:6e:30:07:5b:
                    cc:ac:da:a5:db:f8:00:a0:04:fc:8c:69:93:2d:99:
                    cd:77:ad:46:3d:a3:80:50:3d:2b:ed:22:f7:df:54:
                    71:ed:46:5e:54:bb:e3:9d:1b:7e:37:56:4a:5e:53:
                    c9:b4:f3:23:ce:79:a4:60:37:e9:a9:62:1b:57:38:
                    dd:44:c5:7e:e6:03:eb:5f:76:5c:f1:41:79:58:96:
                    97:d9:82:d3:84:09:dd:ee:35:8c:98:64:83:22:15:
                    35:72:54:23:cb:ff:0e:e6:f4:f8:23:b3:af:8b:8f:
                    f3:94:db:00:9e:46:bf:82:3a:e5:76:a4:f1:0c:3e:
                    23:34:71:d9:21:63:d8:ed:4b:b1:3c:b0:4d:24:a9:
                    7e:c9:e6:6d:ab:75:aa:72:9f:ed:9c:d9:b0:74:c7:
                    1e:1b
                Exponent: 65537 (0x10001)
        X509v3 extensions:
            Netscape Cert Type: 
                SSL Server
            X509v3 Subject Key Identifier: 
                28:A1:B3:D2:2D:73:02:34:D4:24:FA:FB:4D:BA:19:B4:55:5E:78:BA
            X509v3 Authority Key Identifier: 
                keyid:BD:BB:95:76:5C:F9:2D:21:29:42:22:FD:91:AF:B8:39:24:AA:7E:37
                DirName:/CN=KOCHICA_CA/C=IN/O=CITRIX/OU=ANG/ST=KA/emailAddress=KOCHICA_CA@KOCHICA_mail.com
                serial:E1:10:ED:B2:3C:3D:E3:71

            Authority Information Access: 
                OCSP - URI:http://KOCHICA_one.ocsptest.com/responderpath

    Signature Algorithm: sha256WithRSAEncryption
         b3:86:36:35:e7:a9:67:af:ef:d2:15:01:8f:ef:f7:f8:9e:fb:
         2b:a7:fa:5a:fe:fb:6a:45:fc:08:bc:16:fa:8c:d3:34:af:d4:
         19:a7:d9:07:e5:a7:77:ca:cf:ff:aa:4f:3c:b1:69:38:16:26:
         c4:fa:e7:2a:28:5e:bd:36:fb:5a:d8:8e:38:5d:ea:66:0f:58:
         42:d9:b1:9c:95:41:9a:1b:98:1b:83:9c:b5:7c:6a:37:6c:d6:
         d6:55:2a:25:82:40:18:d7:d7:ab:cd:a4:3c:5a:89:2d:b3:05:
         47:94:40:19:16:54:fa:e3:2e:68:83:e4:b5:68:4f:f1:9f:18:
         67:cc:b5:ce:d8:5c:0e:59:e9:8f:e8:a5:95:6e:73:6c:b0:04:
         f4:1b:0e:e6:d5:d1:b0:3f:f1:3d:ac:8e:16:21:78:6f:74:69:
         c3:14:48:18:9a:d9:ad:71:1c:38:57:5c:6b:f8:3d:6d:40:bd:
         88:99:c9:90:89:87:87:cb:da:ea:f5:b7:10:22:a6:8c:70:2d:
         81:11:21:5d:8f:ed:62:24:12:ac:40:6c:a8:d3:da:4f:53:1e:
         82:9b:2c:0d:46:ba:c0:8e:02:f0:eb:aa:77:0e:93:50:b6:32:
         6f:3a:58:4a:c0:c8:21:0d:17:6c:02:3d:23:78:48:78:a2:f5:
         fb:69:2e:03
-----BEGIN CERTIFICATE-----
MIIEnDCCA4SgAwIBAgIGCgsMDQ4YMA0GCSqGSIb3DQEBCwUAMHoxEzARBgNVBAMU
CktPQ0hJQ0FfQ0ExCzAJBgNVBAYTAklOMQ8wDQYDVQQKEwZDSVRSSVgxDDAKBgNV
BAsTA0FORzELMAkGA1UECBMCS0ExKjAoBgkqhkiG9w0BCQEWG0tPQ0hJQ0FfQ0FA
S09DSElDQV9tYWlsLmNvbTAeFw0xNjA3MDgwNDM1MTlaFw0yNjA3MDYwNDM1MTla
MHAxCzAJBgNVBAgTAktBMQswCQYDVQQGEwJJTjEbMBkGA1UEAxQSMTEwX0tPQ0hJ
Q0Ffc2VydmVyMSYwJAYJKoZIhvcNAQkBFhcxMTBfS09DSElDQUB0ZXN0X2NhLmNv
bTEPMA0GA1UEChMGQ0lUUklYMIIBIjANBgkqhkiG9w0BAQEFAAOCAQ8AMIIBCgKC
AQEAzpttp7tFvVUul+atJKxJLofhK2SxF76PkrTpF395wATJkrZPoHVgv2xxX+RA
MhboyP48bqfHPPVUDydNmRZN6/RJJbHg7icwHS+v61CteFeE2r3y9vwCNGQqiH3Q
DPM7Vz5nzG4wB1vMrNql2/gAoAT8jGmTLZnNd61GPaOAUD0r7SL331Rx7UZeVLvj
nRt+N1ZKXlPJtPMjznmkYDfpqWIbVzjdRMV+5gPrX3Zc8UF5WJaX2YLThAnd7jWM
mGSDIhU1clQjy/8O5vT4I7Ovi4/zlNsAnka/gjrldqTxDD4jNHHZIWPY7UuxPLBN
JKl+yeZtq3Wqcp/tnNmwdMceGwIDAQABo4IBMDCCASwwEQYJYIZIAYb4QgEBBAQD
AgZAMB0GA1UdDgQWBBQoobPSLXMCNNQk+vtNuhm0VV54ujCBrAYDVR0jBIGkMIGh
gBS9u5V2XPktISlCIv2Rr7g5JKp+N6F+pHwwejETMBEGA1UEAxQKS09DSElDQV9D
QTELMAkGA1UEBhMCSU4xDzANBgNVBAoTBkNJVFJJWDEMMAoGA1UECxMDQU5HMQsw
CQYDVQQIEwJLQTEqMCgGCSqGSIb3DQEJARYbS09DSElDQV9DQUBLT0NISUNBX21h
aWwuY29tggkA4RDtsjw943EwSQYIKwYBBQUHAQEEPTA7MDkGCCsGAQUFBzABhi1o
dHRwOi8vS09DSElDQV9vbmUub2NzcHRlc3QuY29tL3Jlc3BvbmRlcnBhdGgwDQYJ
KoZIhvcNAQELBQADggEBALOGNjXnqWev79IVAY/v9/ie+yun+lr++2pF/Ai8FvqM
0zSv1Bmn2Qflp3fKz/+qTzyxaTgWJsT65yooXr02+1rYjjhd6mYPWELZsZyVQZob
mBuDnLV8ajds1tZVKiWCQBjX16vNpDxaiS2zBUeUQBkWVPrjLmiD5LVoT/GfGGfM
tc7YXA5Z6Y/opZVuc2ywBPQbDubV0bA/8T2sjhYheG90acMUSBia2a1xHDhXXGv4
PW1AvYiZyZCJh4fL2ur1txAipoxwLYERIV2P7WIkEqxAbKjT2k9THoKbLA1GusCO
AvDrqncOk1C2Mm86WErAyCENF2wCPSN4SHii9ftpLgM=
-----END CERTIFICATE-----
