Certificate:
    Data:
        Version: 3 (0x2)
        Serial Number: 11042563100185 (0xa0b0c0d0e19)
    Signature Algorithm: sha256WithRSAEncryption
        Issuer: CN=MUMBAICA_CA, C=IN, O=CITRIX, OU=ANG, ST=KA/emailAddress=MUMBAICA_CA@MUMBAICA_mail.com
        Validity
            Not Before: Jul  8 04:35:49 2016 GMT
            Not After : Jul  6 04:35:49 2026 GMT
        Subject: ST=KA, C=IN, CN=111_MUMBAICA_server/emailAddress=111_MUMBAICA@test_ca.com, O=CITRIX
        Subject Public Key Info:
            Public Key Algorithm: rsaEncryption
                Public-Key: (2048 bit)
                Modulus:
                    00:f4:4e:ba:79:f5:02:0a:16:4d:4e:8c:76:21:47:
                    31:d7:cb:f4:46:ec:f5:1f:d3:c7:19:39:98:27:46:
                    d9:dd:3b:c0:26:ab:2f:da:22:22:4d:46:cc:f6:37:
                    43:1c:1d:60:dc:27:f0:4c:5f:f1:6b:35:c0:eb:19:
                    d1:ec:30:21:c6:30:1e:2a:4b:68:01:1e:0a:09:c4:
                    f2:46:1c:4c:46:ec:a6:54:c9:9f:5f:4d:b1:f2:1d:
                    cf:09:ba:ac:c8:1c:a9:17:95:b7:d0:b0:61:23:be:
                    27:f2:9a:a5:d7:9c:35:3b:b3:be:d1:5e:33:65:62:
                    ac:70:06:41:5c:c9:62:58:9a:7c:9d:81:ef:c6:46:
                    36:c1:6f:f0:a6:95:a9:96:e7:8f:82:6d:4c:c3:cb:
                    f5:46:c7:91:f7:8a:70:eb:e2:89:35:dc:3e:90:a8:
                    29:e8:45:90:22:a8:1d:6b:9b:6a:69:80:5f:85:d0:
                    6e:2e:92:fc:3d:72:49:08:17:8d:a9:3a:4a:21:72:
                    5d:e3:12:6b:39:f6:b6:b1:ba:64:89:a1:8d:09:b4:
                    b0:47:10:e8:08:e7:ac:b9:ad:e2:67:44:37:5d:59:
                    cc:bf:df:44:d6:23:1d:47:de:82:d8:c7:67:a5:1a:
                    96:78:35:f4:a0:9f:fe:44:09:4c:0d:87:a3:03:46:
                    07:81
                Exponent: 65537 (0x10001)
        X509v3 extensions:
            Netscape Cert Type: 
                SSL Server
            X509v3 Subject Key Identifier: 
                B9:F8:E9:86:67:EF:9A:10:20:37:20:48:F6:C4:B1:16:39:83:38:9C
            X509v3 Authority Key Identifier: 
                keyid:37:79:BF:65:19:98:28:32:4E:EF:3E:44:14:19:A9:83:2B:AF:05:7A
                DirName:/CN=MUMBAICA_CA/C=IN/O=CITRIX/OU=ANG/ST=KA/emailAddress=MUMBAICA_CA@MUMBAICA_mail.com
                serial:EE:B1:37:EE:F6:D2:14:91

            Authority Information Access: 
                OCSP - URI:http://MUMBAICA_two.ocsptest.com/responderpath

    Signature Algorithm: sha256WithRSAEncryption
         c4:b3:71:14:60:63:f5:59:3b:84:81:33:66:ab:22:65:fc:48:
         de:11:42:fa:ce:2e:ec:e9:d5:92:51:95:b2:96:f0:d6:cb:a4:
         1f:73:53:68:2e:c4:5e:3a:64:bc:e8:71:c4:40:d5:72:f5:80:
         05:33:51:81:35:fd:4c:cb:a3:20:da:24:08:88:9b:63:a1:79:
         a1:25:b0:f4:5b:2d:70:98:ab:5b:2b:8b:56:b8:6f:cc:d5:f1:
         95:f1:80:4f:bb:bf:b7:19:4a:1f:0d:41:6a:c0:d6:30:b0:9e:
         f4:f4:c2:14:43:09:ef:d5:07:2f:4d:5a:23:28:de:3b:06:1b:
         2e:58:63:73:2b:f8:d1:b1:b1:5f:9f:b6:9d:56:f4:cb:9d:f8:
         31:9d:bc:24:74:8c:8d:5d:08:9e:df:33:56:75:31:6e:fa:6a:
         af:e0:31:74:e8:f3:e6:c1:8b:0f:84:58:b0:63:3a:fb:48:16:
         ea:74:c2:f2:91:ef:5e:a8:1f:68:54:7e:13:f4:22:0c:86:e1:
         00:61:64:46:0e:3f:83:70:98:c2:50:39:64:ae:b4:ff:89:91:
         0d:bf:eb:e0:40:99:50:4a:60:0e:af:cd:65:64:f5:fc:ef:99:
         24:7f:71:18:03:08:0a:b1:13:d2:c0:19:bd:e6:6d:0b:f0:e7:
         32:19:23:81
-----BEGIN CERTIFICATE-----
MIIEpjCCA46gAwIBAgIGCgsMDQ4ZMA0GCSqGSIb3DQEBCwUAMH0xFDASBgNVBAMU
C01VTUJBSUNBX0NBMQswCQYDVQQGEwJJTjEPMA0GA1UEChMGQ0lUUklYMQwwCgYD
VQQLEwNBTkcxCzAJBgNVBAgTAktBMSwwKgYJKoZIhvcNAQkBFh1NVU1CQUlDQV9D
QUBNVU1CQUlDQV9tYWlsLmNvbTAeFw0xNjA3MDgwNDM1NDlaFw0yNjA3MDYwNDM1
NDlaMHIxCzAJBgNVBAgTAktBMQswCQYDVQQGEwJJTjEcMBoGA1UEAxQTMTExX01V
TUJBSUNBX3NlcnZlcjEnMCUGCSqGSIb3DQEJARYYMTExX01VTUJBSUNBQHRlc3Rf
Y2EuY29tMQ8wDQYDVQQKEwZDSVRSSVgwggEiMA0GCSqGSIb3DQEBAQUAA4IBDwAw
ggEKAoIBAQD0Trp59QIKFk1OjHYhRzHXy/RG7PUf08cZOZgnRtndO8Amqy/aIiJN
Rsz2N0McHWDcJ/BMX/FrNcDrGdHsMCHGMB4qS2gBHgoJxPJGHExG7KZUyZ9fTbHy
Hc8JuqzIHKkXlbfQsGEjvifymqXXnDU7s77RXjNlYqxwBkFcyWJYmnydge/GRjbB
b/CmlamW54+CbUzDy/VGx5H3inDr4ok13D6QqCnoRZAiqB1rm2ppgF+F0G4ukvw9
ckkIF42pOkohcl3jEms59raxumSJoY0JtLBHEOgI56y5reJnRDddWcy/30TWIx1H
3oLYx2elGpZ4NfSgn/5ECUwNh6MDRgeBAgMBAAGjggE1MIIBMTARBglghkgBhvhC
AQEEBAMCBkAwHQYDVR0OBBYEFLn46YZn75oQIDcgSPbEsRY5gzicMIGwBgNVHSME
gagwgaWAFDd5v2UZmCgyTu8+RBQZqYMrrwV6oYGBpH8wfTEUMBIGA1UEAxQLTVVN
QkFJQ0FfQ0ExCzAJBgNVBAYTAklOMQ8wDQYDVQQKEwZDSVRSSVgxDDAKBgNVBAsT
A0FORzELMAkGA1UECBMCS0ExLDAqBgkqhkiG9w0BCQEWHU1VTUJBSUNBX0NBQE1V
TUJBSUNBX21haWwuY29tggkA7rE37vbSFJEwSgYIKwYBBQUHAQEEPjA8MDoGCCsG
AQUFBzABhi5odHRwOi8vTVVNQkFJQ0FfdHdvLm9jc3B0ZXN0LmNvbS9yZXNwb25k
ZXJwYXRoMA0GCSqGSIb3DQEBCwUAA4IBAQDEs3EUYGP1WTuEgTNmqyJl/EjeEUL6
zi7s6dWSUZWylvDWy6Qfc1NoLsReOmS86HHEQNVy9YAFM1GBNf1My6Mg2iQIiJtj
oXmhJbD0Wy1wmKtbK4tWuG/M1fGV8YBPu7+3GUofDUFqwNYwsJ709MIUQwnv1Qcv
TVojKN47BhsuWGNzK/jRsbFfn7adVvTLnfgxnbwkdIyNXQie3zNWdTFu+mqv4DF0
6PPmwYsPhFiwYzr7SBbqdMLyke9eqB9oVH4T9CIMhuEAYWRGDj+DcJjCUDlkrrT/
iZENv+vgQJlQSmAOr81lZPX875kkf3EYAwgKsRPSwBm95m0L8OcyGSOB
-----END CERTIFICATE-----
