Certificate:
    Data:
        Version: 3 (0x2)
        Serial Number: 11042563100185 (0xa0b0c0d0e19)
    Signature Algorithm: sha256WithRSAEncryption
        Issuer: CN=SHILLONGCA_CA, C=IN, O=CITRIX, OU=ANG, ST=KA/emailAddress=SHILLONGCA_CA@SHILLONGCA_mail.com
        Validity
            Not Before: Jul  8 04:40:09 2016 GMT
            Not After : Jul  6 04:40:09 2026 GMT
        Subject: ST=KA, C=IN, CN=111_SHILLONGCA_server/emailAddress=111_SHILLONGCA@test_ca.com, O=CITRIX
        Subject Public Key Info:
            Public Key Algorithm: rsaEncryption
                Public-Key: (2048 bit)
                Modulus:
                    00:b9:0d:4a:00:02:e4:66:da:b3:e9:7d:2e:ec:69:
                    1a:38:21:10:05:3d:5b:ed:a8:32:86:cf:06:e7:27:
                    28:f9:a0:a2:c2:67:be:48:0f:56:74:5c:c6:1d:d7:
                    46:82:36:d1:7c:aa:37:6f:5f:4e:13:0f:e3:93:2f:
                    78:28:d7:41:dc:77:c6:dc:03:e3:af:57:97:c6:75:
                    92:ff:3c:1c:e2:a3:1b:00:66:c1:7d:a2:71:63:bd:
                    08:f9:2d:a7:b4:34:f5:47:d4:1f:bd:43:fc:c2:f8:
                    f6:2f:17:75:b3:2a:a8:a1:47:d7:a8:75:1a:f0:1e:
                    5a:16:34:de:ab:a1:53:de:cd:d7:b2:90:fb:69:1c:
                    97:3e:53:f3:c2:40:63:37:60:20:cd:16:7e:61:77:
                    b6:85:75:98:31:b2:94:74:1a:ec:27:20:92:5e:32:
                    7a:32:9f:ce:4c:e3:aa:3a:7b:1f:31:3f:0a:5c:42:
                    2a:73:14:f5:69:c2:75:bf:60:29:29:ea:8c:78:f4:
                    d9:f7:75:26:f9:48:17:35:d9:4c:1c:2e:9a:9a:7c:
                    20:b7:44:82:98:b8:af:25:1e:dc:71:07:b2:97:67:
                    9c:70:a2:ca:cd:ed:76:df:b2:66:56:34:30:ed:8e:
                    57:b1:7f:bd:91:22:1a:33:3f:d7:a7:ae:3a:fe:75:
                    7c:e3
                Exponent: 65537 (0x10001)
        X509v3 extensions:
            Netscape Cert Type: 
                SSL Server
            X509v3 Subject Key Identifier: 
                84:C1:8A:2D:BE:58:A6:BC:60:8D:1D:50:A2:20:B8:E2:32:AE:A9:7D
            X509v3 Authority Key Identifier: 
                keyid:FA:E9:1F:A5:AF:8B:4E:18:FF:EF:B7:EA:8F:FB:98:BC:59:23:81:DF
                DirName:/CN=SHILLONGCA_CA/C=IN/O=CITRIX/OU=ANG/ST=KA/emailAddress=SHILLONGCA_CA@SHILLONGCA_mail.com
                serial:FB:D0:92:FD:A2:7C:35:0C

            Authority Information Access: 
                OCSP - URI:http://SHILLONGCA_two.ocsptest.com/responderpath

    Signature Algorithm: sha256WithRSAEncryption
         5c:8a:e6:21:8f:c6:f9:de:00:3b:de:f0:05:6b:2f:f3:d5:83:
         f7:7b:8a:70:09:b0:f8:cf:cd:cc:75:8d:28:b8:ac:ce:c0:19:
         99:d2:9f:03:71:03:82:7e:ef:cd:6f:5e:61:b4:76:37:b4:70:
         6b:fd:c7:71:17:b6:e9:c5:c1:40:9d:04:96:9e:84:cc:14:ec:
         c0:29:f8:0f:89:fc:ed:50:54:fc:88:b8:ff:21:22:54:ac:28:
         a0:2f:e5:6c:ea:3a:49:84:f7:ac:60:8b:97:d1:09:c7:82:ea:
         19:3e:4f:89:60:cb:4c:ba:d5:99:d5:34:93:cc:b5:8e:44:d3:
         73:91:cb:35:32:b3:fc:b9:d9:53:53:80:c9:71:ea:2f:bd:bc:
         3b:99:19:b0:69:00:47:f9:73:0b:f4:35:64:76:b8:45:67:41:
         b5:1e:69:82:e7:35:3d:79:58:bd:32:74:ba:21:bf:94:26:fe:
         c2:41:72:5c:88:bd:2c:0c:5b:23:80:40:e1:42:75:36:b1:ec:
         8c:55:71:29:17:1a:90:a7:89:da:f9:48:5b:20:c1:09:b8:82:
         34:87:13:5a:08:1d:f0:ea:f8:0a:ac:85:c9:dc:d7:0b:fc:1c:
         a4:f1:03:a4:ae:a7:6e:2c:9e:ae:c2:88:28:7b:9b:90:3a:b0:
         d1:e4:00:69
-----BEGIN CERTIFICATE-----
MIIEuzCCA6OgAwIBAgIGCgsMDQ4ZMA0GCSqGSIb3DQEBCwUAMIGDMRYwFAYDVQQD
FA1TSElMTE9OR0NBX0NBMQswCQYDVQQGEwJJTjEPMA0GA1UEChMGQ0lUUklYMQww
CgYDVQQLEwNBTkcxCzAJBgNVBAgTAktBMTAwLgYJKoZIhvcNAQkBFiFTSElMTE9O
R0NBX0NBQFNISUxMT05HQ0FfbWFpbC5jb20wHhcNMTYwNzA4MDQ0MDA5WhcNMjYw
NzA2MDQ0MDA5WjB2MQswCQYDVQQIEwJLQTELMAkGA1UEBhMCSU4xHjAcBgNVBAMU
FTExMV9TSElMTE9OR0NBX3NlcnZlcjEpMCcGCSqGSIb3DQEJARYaMTExX1NISUxM
T05HQ0FAdGVzdF9jYS5jb20xDzANBgNVBAoTBkNJVFJJWDCCASIwDQYJKoZIhvcN
AQEBBQADggEPADCCAQoCggEBALkNSgAC5Gbas+l9LuxpGjghEAU9W+2oMobPBucn
KPmgosJnvkgPVnRcxh3XRoI20XyqN29fThMP45MveCjXQdx3xtwD469Xl8Z1kv88
HOKjGwBmwX2icWO9CPktp7Q09UfUH71D/ML49i8XdbMqqKFH16h1GvAeWhY03quh
U97N17KQ+2kclz5T88JAYzdgIM0WfmF3toV1mDGylHQa7Ccgkl4yejKfzkzjqjp7
HzE/ClxCKnMU9WnCdb9gKSnqjHj02fd1JvlIFzXZTBwumpp8ILdEgpi4ryUe3HEH
spdnnHCiys3tdt+yZlY0MO2OV7F/vZEiGjM/16euOv51fOMCAwEAAaOCAT8wggE7
MBEGCWCGSAGG+EIBAQQEAwIGQDAdBgNVHQ4EFgQUhMGKLb5YprxgjR1QoiC44jKu
qX0wgbgGA1UdIwSBsDCBrYAU+ukfpa+LThj/77fqj/uYvFkjgd+hgYmkgYYwgYMx
FjAUBgNVBAMUDVNISUxMT05HQ0FfQ0ExCzAJBgNVBAYTAklOMQ8wDQYDVQQKEwZD
SVRSSVgxDDAKBgNVBAsTA0FORzELMAkGA1UECBMCS0ExMDAuBgkqhkiG9w0BCQEW
IVNISUxMT05HQ0FfQ0FAU0hJTExPTkdDQV9tYWlsLmNvbYIJAPvQkv2ifDUMMEwG
CCsGAQUFBwEBBEAwPjA8BggrBgEFBQcwAYYwaHR0cDovL1NISUxMT05HQ0FfdHdv
Lm9jc3B0ZXN0LmNvbS9yZXNwb25kZXJwYXRoMA0GCSqGSIb3DQEBCwUAA4IBAQBc
iuYhj8b53gA73vAFay/z1YP3e4pwCbD4z83MdY0ouKzOwBmZ0p8DcQOCfu/Nb15h
tHY3tHBr/cdxF7bpxcFAnQSWnoTMFOzAKfgPifztUFT8iLj/ISJUrCigL+Vs6jpJ
hPesYIuX0QnHguoZPk+JYMtMutWZ1TSTzLWORNNzkcs1MrP8udlTU4DJceovvbw7
mRmwaQBH+XML9DVkdrhFZ0G1HmmC5zU9eVi9MnS6Ib+UJv7CQXJciL0sDFsjgEDh
QnU2seyMVXEpFxqQp4na+UhbIMEJuII0hxNaCB3w6vgKrIXJ3NcL/Byk8QOkrqdu
LJ6uwogoe5uQOrDR5ABp
-----END CERTIFICATE-----
