Certificate:
    Data:
        Version: 3 (0x2)
        Serial Number: 11042563100185 (0xa0b0c0d0e19)
    Signature Algorithm: sha256WithRSAEncryption
        Issuer: CN=BANGALORECA_CA, C=IN, O=CITRIX, OU=ANG, ST=KA/emailAddress=BANGALORECA_CA@BANGALORECA_mail.com
        Validity
            Not Before: Jul  8 04:31:23 2016 GMT
            Not After : Jul  6 04:31:23 2026 GMT
        Subject: ST=KA, C=IN, CN=111_BANGALORECA_server/emailAddress=111_BANGALORECA@test_ca.com, O=CITRIX
        Subject Public Key Info:
            Public Key Algorithm: rsaEncryption
                Public-Key: (2048 bit)
                Modulus:
                    00:ab:26:c5:47:2e:1b:c4:87:7b:5d:fc:56:1b:e6:
                    de:e3:d5:a7:3e:82:d6:a0:07:f6:f7:9d:73:c4:83:
                    bb:33:38:88:fc:34:a8:84:72:f1:05:b2:20:5c:09:
                    fd:29:d8:f2:8a:30:01:b2:26:71:bd:9c:4a:b1:01:
                    b6:04:d7:6d:1d:d8:d6:8a:f5:3b:ef:98:f6:80:3f:
                    58:9e:d3:23:8c:31:2d:66:33:dc:7c:78:5e:76:e9:
                    79:ab:b5:9d:9b:3d:4d:ab:be:90:58:9b:a4:27:a4:
                    78:c4:2c:99:68:74:8a:46:91:78:aa:3b:91:4e:6d:
                    e8:ac:75:ea:81:a9:0b:77:f2:26:04:77:2f:ee:64:
                    17:af:0c:0c:d4:21:dd:b4:8e:5f:ca:b6:60:8b:9d:
                    c1:19:32:b5:fc:71:5a:70:89:56:1b:64:a4:3d:e2:
                    12:35:9d:e0:4d:8f:e6:1d:e0:06:2e:08:6b:73:10:
                    e0:ad:17:64:12:38:22:8c:53:df:e1:69:0d:19:d0:
                    14:6a:c9:3a:64:1c:c7:2e:46:d2:f0:bb:e0:3e:57:
                    ad:99:f3:7a:8f:50:5f:ba:01:8d:8f:26:40:64:b5:
                    09:77:f0:e1:f5:0a:91:ea:80:b0:7e:46:7a:fc:dd:
                    ea:30:d5:f5:ad:c9:c2:16:92:f0:df:ee:db:ce:2e:
                    cc:75
                Exponent: 65537 (0x10001)
        X509v3 extensions:
            Netscape Cert Type: 
                SSL Server
            X509v3 Subject Key Identifier: 
                9B:22:D2:CA:5C:B9:E2:1A:5C:05:6B:5B:BD:2E:97:88:B2:2B:A5:E4
            X509v3 Authority Key Identifier: 
                keyid:3B:D6:D1:53:18:87:05:22:BB:EE:C3:0F:F5:CE:0F:6B:A2:93:A7:B8
                DirName:/CN=BANGALORECA_CA/C=IN/O=CITRIX/OU=ANG/ST=KA/emailAddress=BANGALORECA_CA@BANGALORECA_mail.com
                serial:A1:AC:B4:DA:46:53:58:40

            Authority Information Access: 
                OCSP - URI:http://BANGALORECA_two.ocsptest.com/responderpath

    Signature Algorithm: sha256WithRSAEncryption
         50:ff:73:1d:ef:4f:19:84:35:ed:f4:73:82:90:f5:92:61:bd:
         8e:e4:2f:eb:49:3c:58:7e:d6:cc:39:6c:04:dc:5f:e3:34:53:
         ff:7e:d1:f0:46:db:47:6f:78:1e:25:b0:4f:2e:15:33:ee:03:
         6b:88:16:d7:8e:ee:76:d3:04:69:6a:00:ea:7f:28:3b:1d:2e:
         77:48:42:29:30:a6:b9:e9:a4:5c:be:f5:34:9b:1e:1c:dc:67:
         0b:80:97:ed:9c:3a:73:ca:65:27:0b:3f:79:89:ac:2c:67:e6:
         c5:34:47:08:95:eb:89:94:bc:f6:df:92:ea:78:b0:8e:73:c0:
         fc:46:14:07:36:5a:c1:93:c6:07:4f:96:61:7e:fe:35:02:1f:
         f6:ff:80:f9:07:bc:03:e7:0b:f0:ca:75:4e:6a:ca:f9:22:a4:
         c4:75:01:21:6d:a2:ab:64:25:85:ee:86:1c:cd:51:77:75:a4:
         c7:66:af:2d:8d:56:fa:9b:41:b0:62:8b:4a:ac:70:c4:45:d8:
         ef:81:06:5b:3e:07:1b:94:3b:ad:ea:31:eb:5e:fa:11:eb:9e:
         8d:46:14:26:77:06:33:d8:da:9f:3f:d2:07:ba:43:22:09:d3:
         84:90:f8:8e:e1:b8:92:5f:75:c9:b4:48:c0:8c:4c:43:f6:d1:
         58:23:42:8a
-----BEGIN CERTIFICATE-----
MIIExDCCA6ygAwIBAgIGCgsMDQ4ZMA0GCSqGSIb3DQEBCwUAMIGGMRcwFQYDVQQD
FA5CQU5HQUxPUkVDQV9DQTELMAkGA1UEBhMCSU4xDzANBgNVBAoTBkNJVFJJWDEM
MAoGA1UECxMDQU5HMQswCQYDVQQIEwJLQTEyMDAGCSqGSIb3DQEJARYjQkFOR0FM
T1JFQ0FfQ0FAQkFOR0FMT1JFQ0FfbWFpbC5jb20wHhcNMTYwNzA4MDQzMTIzWhcN
MjYwNzA2MDQzMTIzWjB4MQswCQYDVQQIEwJLQTELMAkGA1UEBhMCSU4xHzAdBgNV
BAMUFjExMV9CQU5HQUxPUkVDQV9zZXJ2ZXIxKjAoBgkqhkiG9w0BCQEWGzExMV9C
QU5HQUxPUkVDQUB0ZXN0X2NhLmNvbTEPMA0GA1UEChMGQ0lUUklYMIIBIjANBgkq
hkiG9w0BAQEFAAOCAQ8AMIIBCgKCAQEAqybFRy4bxId7XfxWG+be49WnPoLWoAf2
951zxIO7MziI/DSohHLxBbIgXAn9KdjyijABsiZxvZxKsQG2BNdtHdjWivU775j2
gD9YntMjjDEtZjPcfHhedul5q7Wdmz1Nq76QWJukJ6R4xCyZaHSKRpF4qjuRTm3o
rHXqgakLd/ImBHcv7mQXrwwM1CHdtI5fyrZgi53BGTK1/HFacIlWG2SkPeISNZ3g
TY/mHeAGLghrcxDgrRdkEjgijFPf4WkNGdAUask6ZBzHLkbS8LvgPletmfN6j1Bf
ugGNjyZAZLUJd/Dh9QqR6oCwfkZ6/N3qMNX1rcnCFpLw3+7bzi7MdQIDAQABo4IB
QzCCAT8wEQYJYIZIAYb4QgEBBAQDAgZAMB0GA1UdDgQWBBSbItLKXLniGlwFa1u9
LpeIsiul5DCBuwYDVR0jBIGzMIGwgBQ71tFTGIcFIrvuww/1zg9ropOnuKGBjKSB
iTCBhjEXMBUGA1UEAxQOQkFOR0FMT1JFQ0FfQ0ExCzAJBgNVBAYTAklOMQ8wDQYD
VQQKEwZDSVRSSVgxDDAKBgNVBAsTA0FORzELMAkGA1UECBMCS0ExMjAwBgkqhkiG
9w0BCQEWI0JBTkdBTE9SRUNBX0NBQEJBTkdBTE9SRUNBX21haWwuY29tggkAoay0
2kZTWEAwTQYIKwYBBQUHAQEEQTA/MD0GCCsGAQUFBzABhjFodHRwOi8vQkFOR0FM
T1JFQ0FfdHdvLm9jc3B0ZXN0LmNvbS9yZXNwb25kZXJwYXRoMA0GCSqGSIb3DQEB
CwUAA4IBAQBQ/3Md708ZhDXt9HOCkPWSYb2O5C/rSTxYftbMOWwE3F/jNFP/ftHw
RttHb3geJbBPLhUz7gNriBbXju520wRpagDqfyg7HS53SEIpMKa56aRcvvU0mx4c
3GcLgJftnDpzymUnCz95iawsZ+bFNEcIleuJlLz235LqeLCOc8D8RhQHNlrBk8YH
T5Zhfv41Ah/2/4D5B7wD5wvwynVOasr5IqTEdQEhbaKrZCWF7oYczVF3daTHZq8t
jVb6m0GwYotKrHDERdjvgQZbPgcblDut6jHrXvoR656NRhQmdwYz2NqfP9IHukMi
CdOEkPiO4biSX3XJtEjAjExD9tFYI0KK
-----END CERTIFICATE-----
