Certificate:
    Data:
        Version: 3 (0x2)
        Serial Number: 11042563100185 (0xa0b0c0d0e19)
    Signature Algorithm: sha256WithRSAEncryption
        Issuer: CN=DELHICA_CA, C=IN, O=CITRIX, OU=ANG, ST=KA/emailAddress=DELHICA_CA@DELHICA_mail.com
        Validity
            Not Before: Jul  8 04:34:24 2016 GMT
            Not After : Jul  6 04:34:24 2026 GMT
        Subject: ST=KA, C=IN, CN=111_DELHICA_server/emailAddress=111_DELHICA@test_ca.com, O=CITRIX
        Subject Public Key Info:
            Public Key Algorithm: rsaEncryption
                Public-Key: (2048 bit)
                Modulus:
                    00:ef:ea:74:2a:f0:81:a7:c1:ef:77:c2:ad:66:96:
                    48:fb:ab:d1:03:65:68:8b:99:17:47:bf:bb:ff:c6:
                    b4:9c:e5:5a:b1:7a:2a:b5:2d:34:3a:f5:ed:38:d0:
                    68:0f:a1:de:80:b7:0c:a0:5a:c9:46:5e:0b:02:eb:
                    cd:02:44:9f:ed:37:b6:a5:fb:b4:de:b0:50:53:21:
                    5f:4c:31:b3:b8:55:dc:f8:ac:50:11:4f:7f:51:93:
                    3e:c9:6c:6f:dd:71:3a:55:d4:e4:fb:6d:b5:ad:25:
                    30:69:05:c6:6c:bf:29:01:55:7a:c0:0f:0b:7b:fb:
                    58:99:ab:bf:cc:74:15:42:51:3b:9a:7c:29:fe:84:
                    b2:e5:73:28:0f:b6:26:31:77:aa:75:c6:d6:36:6e:
                    21:0f:29:1d:da:d0:5e:90:7c:ad:4b:9e:8c:50:ed:
                    5d:ef:bf:bc:7e:0b:55:10:07:6f:d8:69:b8:cb:c4:
                    ec:33:16:87:41:4e:9f:4a:e7:f0:9e:ad:d6:7e:f9:
                    d1:87:cc:09:91:23:95:89:86:f9:d2:da:3a:89:33:
                    be:03:83:db:c5:00:b6:ef:36:9e:f1:eb:8d:3b:ce:
                    98:90:8d:eb:d4:a3:0e:ac:12:30:43:a3:21:7c:c7:
                    5a:82:b1:83:c8:40:ae:77:0f:74:44:a2:87:c6:15:
                    b1:d3
                Exponent: 65537 (0x10001)
        X509v3 extensions:
            Netscape Cert Type: 
                SSL Server
            X509v3 Subject Key Identifier: 
                6B:80:54:3E:61:28:DA:98:C9:D0:39:3D:71:92:1D:8B:F8:F0:C4:D8
            X509v3 Authority Key Identifier: 
                keyid:D7:37:52:01:DC:2C:7A:57:85:CA:30:39:30:F0:D5:5D:5A:31:03:02
                DirName:/CN=DELHICA_CA/C=IN/O=CITRIX/OU=ANG/ST=KA/emailAddress=DELHICA_CA@DELHICA_mail.com
                serial:94:59:DC:51:4E:A5:13:27

            Authority Information Access: 
                OCSP - URI:http://DELHICA_two.ocsptest.com/responderpath

    Signature Algorithm: sha256WithRSAEncryption
         5e:38:31:2c:ae:6c:13:e8:f4:32:8d:63:1e:af:85:64:40:e6:
         28:b4:60:a7:58:d2:29:dd:e0:bd:24:38:9b:91:19:42:2e:4d:
         14:3e:78:d5:6f:27:dd:17:de:c1:bd:11:20:50:16:8f:b1:f7:
         43:40:a5:09:d3:94:ef:4d:e4:5b:33:d9:b4:74:24:c4:0c:7d:
         9e:fc:0e:47:1f:f0:cc:b2:38:3f:04:6d:9d:e3:5f:6e:d4:b8:
         c7:c4:6b:ca:e4:79:4b:22:13:5a:43:e7:7f:b2:c1:cb:85:5a:
         25:cd:54:4a:84:65:5d:63:8e:49:ec:eb:2f:fd:8d:ab:74:37:
         8d:40:98:cd:f6:13:6a:db:2f:99:6f:80:4c:e3:7e:ca:ae:3b:
         43:f6:c8:e8:a8:c5:f1:c6:f7:33:5a:e1:19:7d:78:c8:72:68:
         34:c8:20:02:83:48:af:27:36:2b:58:a2:11:7e:04:38:7d:49:
         6a:c3:f8:86:7c:9d:f4:1b:00:10:e0:a1:1f:ed:60:02:03:9b:
         d8:be:33:07:2a:b8:85:1c:75:2b:83:73:83:20:5d:8e:5f:83:
         70:60:c8:d8:f7:fa:c6:11:4a:41:25:b5:e6:14:ef:56:7e:47:
         69:5c:21:e0:80:e2:b3:f3:67:af:4d:ea:02:44:84:54:80:13:
         69:9e:f3:e6
-----BEGIN CERTIFICATE-----
MIIEnDCCA4SgAwIBAgIGCgsMDQ4ZMA0GCSqGSIb3DQEBCwUAMHoxEzARBgNVBAMU
CkRFTEhJQ0FfQ0ExCzAJBgNVBAYTAklOMQ8wDQYDVQQKEwZDSVRSSVgxDDAKBgNV
BAsTA0FORzELMAkGA1UECBMCS0ExKjAoBgkqhkiG9w0BCQEWG0RFTEhJQ0FfQ0FA
REVMSElDQV9tYWlsLmNvbTAeFw0xNjA3MDgwNDM0MjRaFw0yNjA3MDYwNDM0MjRa
MHAxCzAJBgNVBAgTAktBMQswCQYDVQQGEwJJTjEbMBkGA1UEAxQSMTExX0RFTEhJ
Q0Ffc2VydmVyMSYwJAYJKoZIhvcNAQkBFhcxMTFfREVMSElDQUB0ZXN0X2NhLmNv
bTEPMA0GA1UEChMGQ0lUUklYMIIBIjANBgkqhkiG9w0BAQEFAAOCAQ8AMIIBCgKC
AQEA7+p0KvCBp8Hvd8KtZpZI+6vRA2Voi5kXR7+7/8a0nOVasXoqtS00OvXtONBo
D6HegLcMoFrJRl4LAuvNAkSf7Te2pfu03rBQUyFfTDGzuFXc+KxQEU9/UZM+yWxv
3XE6VdTk+221rSUwaQXGbL8pAVV6wA8Le/tYmau/zHQVQlE7mnwp/oSy5XMoD7Ym
MXeqdcbWNm4hDykd2tBekHytS56MUO1d77+8fgtVEAdv2Gm4y8TsMxaHQU6fSufw
nq3WfvnRh8wJkSOViYb50to6iTO+A4PbxQC27zae8euNO86YkI3r1KMOrBIwQ6Mh
fMdagrGDyECudw90RKKHxhWx0wIDAQABo4IBMDCCASwwEQYJYIZIAYb4QgEBBAQD
AgZAMB0GA1UdDgQWBBRrgFQ+YSjamMnQOT1xkh2L+PDE2DCBrAYDVR0jBIGkMIGh
gBTXN1IB3Cx6V4XKMDkw8NVdWjEDAqF+pHwwejETMBEGA1UEAxQKREVMSElDQV9D
QTELMAkGA1UEBhMCSU4xDzANBgNVBAoTBkNJVFJJWDEMMAoGA1UECxMDQU5HMQsw
CQYDVQQIEwJLQTEqMCgGCSqGSIb3DQEJARYbREVMSElDQV9DQUBERUxISUNBX21h
aWwuY29tggkAlFncUU6lEycwSQYIKwYBBQUHAQEEPTA7MDkGCCsGAQUFBzABhi1o
dHRwOi8vREVMSElDQV90d28ub2NzcHRlc3QuY29tL3Jlc3BvbmRlcnBhdGgwDQYJ
KoZIhvcNAQELBQADggEBAF44MSyubBPo9DKNYx6vhWRA5ii0YKdY0ind4L0kOJuR
GUIuTRQ+eNVvJ90X3sG9ESBQFo+x90NApQnTlO9N5Fsz2bR0JMQMfZ78Dkcf8Myy
OD8EbZ3jX27UuMfEa8rkeUsiE1pD53+ywcuFWiXNVEqEZV1jjkns6y/9jat0N41A
mM32E2rbL5lvgEzjfsquO0P2yOioxfHG9zNa4Rl9eMhyaDTIIAKDSK8nNitYohF+
BDh9SWrD+IZ8nfQbABDgoR/tYAIDm9i+MwcquIUcdSuDc4MgXY5fg3BgyNj3+sYR
SkElteYU71Z+R2lcIeCA4rPzZ69N6gJEhFSAE2me8+Y=
-----END CERTIFICATE-----
