Certificate:
    Data:
        Version: 3 (0x2)
        Serial Number: 11042563100185 (0xa0b0c0d0e19)
    Signature Algorithm: sha256WithRSAEncryption
        Issuer: CN=BHOPALCA_CA, C=IN, O=CITRIX, OU=ANG, ST=KA/emailAddress=BHOPALCA_CA@BHOPALCA_mail.com
        Validity
            Not Before: Jul  8 04:32:35 2016 GMT
            Not After : Jul  6 04:32:35 2026 GMT
        Subject: ST=KA, C=IN, CN=111_BHOPALCA_server/emailAddress=111_BHOPALCA@test_ca.com, O=CITRIX
        Subject Public Key Info:
            Public Key Algorithm: rsaEncryption
                Public-Key: (2048 bit)
                Modulus:
                    00:e2:6f:ac:ff:79:9e:80:d2:c9:53:38:09:30:db:
                    8c:7a:37:d8:8f:31:8e:84:33:f0:b4:d8:ee:f3:74:
                    a7:0b:93:b3:41:79:71:97:3e:57:13:17:b6:6a:04:
                    19:1a:d1:d0:5b:66:ab:6e:b8:d7:1b:19:ae:ba:28:
                    c7:97:59:e5:69:6f:3a:72:5e:f8:4c:bc:4b:7d:8e:
                    62:e6:d6:ee:bf:c4:de:79:87:55:35:9d:c6:a2:69:
                    15:2c:d1:c4:76:26:e2:6e:fd:f9:12:91:3b:fd:ca:
                    41:8a:88:c3:bf:7b:87:e7:6c:42:c7:44:e8:58:cd:
                    9e:b3:34:27:ed:a7:93:a0:eb:45:67:34:5f:d8:ba:
                    de:23:33:14:2a:79:31:26:1e:1d:3b:ac:7a:6d:e3:
                    05:5d:c5:f0:55:90:8f:c1:eb:31:98:0c:de:de:c4:
                    72:32:f5:f4:42:8d:8d:c3:8a:a0:45:af:42:9b:97:
                    72:a7:f8:78:82:64:68:6a:f7:eb:cc:7a:22:89:7e:
                    32:f5:ad:7f:c8:ae:89:a9:e1:0b:31:62:51:09:82:
                    b7:8b:77:1c:15:d5:95:f9:03:7b:28:c2:97:b6:9c:
                    f4:2a:7d:7b:bc:29:72:ce:3f:72:94:ef:8f:66:06:
                    4c:55:d3:d9:60:da:fb:18:76:8c:71:aa:47:9d:26:
                    83:bf
                Exponent: 65537 (0x10001)
        X509v3 extensions:
            Netscape Cert Type: 
                SSL Server
            X509v3 Subject Key Identifier: 
                5C:B4:30:A5:DA:AC:09:F2:8C:83:BF:46:FF:80:43:9B:6E:0D:B3:CF
            X509v3 Authority Key Identifier: 
                keyid:A6:66:0E:59:0F:3C:5C:11:35:B2:B3:99:59:A9:D3:A6:B1:5E:95:D2
                DirName:/CN=BHOPALCA_CA/C=IN/O=CITRIX/OU=ANG/ST=KA/emailAddress=BHOPALCA_CA@BHOPALCA_mail.com
                serial:BE:89:55:F3:65:28:17:9A

            Authority Information Access: 
                OCSP - URI:http://BHOPALCA_two.ocsptest.com/responderpath

    Signature Algorithm: sha256WithRSAEncryption
         75:92:2f:e7:82:f4:9e:c0:24:af:67:43:76:4a:b9:91:27:70:
         57:4b:94:38:ff:bf:6c:5e:5c:2a:25:5c:bc:32:d3:05:ea:cc:
         1f:44:06:fa:a2:21:54:75:d5:a5:35:c0:64:1f:70:ff:0c:48:
         c9:2c:83:8b:24:ad:3b:3a:7e:5b:ae:48:eb:7b:11:34:40:8c:
         e6:17:56:ec:66:db:29:08:1a:97:d7:b1:31:94:36:07:99:ce:
         2e:a3:51:8b:b7:8b:84:88:00:04:f3:97:d7:3d:25:f7:62:62:
         c1:c0:a5:36:72:63:39:e5:be:7b:e6:d0:ca:f8:2f:cd:1c:23:
         09:0e:25:3e:3c:4f:f7:65:60:6c:3e:01:9e:ba:da:bd:ac:fc:
         40:35:54:b2:00:d6:67:0c:2b:e1:09:d2:a4:16:b2:ed:03:f1:
         09:a8:1d:91:e9:f2:d9:ce:dd:85:de:4f:da:ca:4a:f9:94:88:
         47:6f:65:4f:33:40:ff:73:30:18:86:bc:46:2e:b0:0e:98:86:
         89:cf:bc:a7:f0:74:07:e8:e8:b8:ad:9b:58:e7:f9:c0:a1:ff:
         8f:a1:a3:bc:af:1e:5b:1a:3e:80:76:52:33:71:ef:7b:14:99:
         cc:75:cc:a4:65:51:d7:51:7b:c2:50:97:6e:b7:78:c3:31:0e:
         8c:ae:95:f6
-----BEGIN CERTIFICATE-----
MIIEpjCCA46gAwIBAgIGCgsMDQ4ZMA0GCSqGSIb3DQEBCwUAMH0xFDASBgNVBAMU
C0JIT1BBTENBX0NBMQswCQYDVQQGEwJJTjEPMA0GA1UEChMGQ0lUUklYMQwwCgYD
VQQLEwNBTkcxCzAJBgNVBAgTAktBMSwwKgYJKoZIhvcNAQkBFh1CSE9QQUxDQV9D
QUBCSE9QQUxDQV9tYWlsLmNvbTAeFw0xNjA3MDgwNDMyMzVaFw0yNjA3MDYwNDMy
MzVaMHIxCzAJBgNVBAgTAktBMQswCQYDVQQGEwJJTjEcMBoGA1UEAxQTMTExX0JI
T1BBTENBX3NlcnZlcjEnMCUGCSqGSIb3DQEJARYYMTExX0JIT1BBTENBQHRlc3Rf
Y2EuY29tMQ8wDQYDVQQKEwZDSVRSSVgwggEiMA0GCSqGSIb3DQEBAQUAA4IBDwAw
ggEKAoIBAQDib6z/eZ6A0slTOAkw24x6N9iPMY6EM/C02O7zdKcLk7NBeXGXPlcT
F7ZqBBka0dBbZqtuuNcbGa66KMeXWeVpbzpyXvhMvEt9jmLm1u6/xN55h1U1ncai
aRUs0cR2JuJu/fkSkTv9ykGKiMO/e4fnbELHROhYzZ6zNCftp5Og60VnNF/Yut4j
MxQqeTEmHh07rHpt4wVdxfBVkI/B6zGYDN7exHIy9fRCjY3DiqBFr0Kbl3Kn+HiC
ZGhq9+vMeiKJfjL1rX/Iromp4QsxYlEJgreLdxwV1ZX5A3sowpe2nPQqfXu8KXLO
P3KU749mBkxV09lg2vsYdoxxqkedJoO/AgMBAAGjggE1MIIBMTARBglghkgBhvhC
AQEEBAMCBkAwHQYDVR0OBBYEFFy0MKXarAnyjIO/Rv+AQ5tuDbPPMIGwBgNVHSME
gagwgaWAFKZmDlkPPFwRNbKzmVmp06axXpXSoYGBpH8wfTEUMBIGA1UEAxQLQkhP
UEFMQ0FfQ0ExCzAJBgNVBAYTAklOMQ8wDQYDVQQKEwZDSVRSSVgxDDAKBgNVBAsT
A0FORzELMAkGA1UECBMCS0ExLDAqBgkqhkiG9w0BCQEWHUJIT1BBTENBX0NBQEJI
T1BBTENBX21haWwuY29tggkAvolV82UoF5owSgYIKwYBBQUHAQEEPjA8MDoGCCsG
AQUFBzABhi5odHRwOi8vQkhPUEFMQ0FfdHdvLm9jc3B0ZXN0LmNvbS9yZXNwb25k
ZXJwYXRoMA0GCSqGSIb3DQEBCwUAA4IBAQB1ki/ngvSewCSvZ0N2SrmRJ3BXS5Q4
/79sXlwqJVy8MtMF6swfRAb6oiFUddWlNcBkH3D/DEjJLIOLJK07On5brkjrexE0
QIzmF1bsZtspCBqX17ExlDYHmc4uo1GLt4uEiAAE85fXPSX3YmLBwKU2cmM55b57
5tDK+C/NHCMJDiU+PE/3ZWBsPgGeutq9rPxANVSyANZnDCvhCdKkFrLtA/EJqB2R
6fLZzt2F3k/aykr5lIhHb2VPM0D/czAYhrxGLrAOmIaJz7yn8HQH6Oi4rZtY5/nA
of+PoaO8rx5bGj6AdlIzce97FJnMdcykZVHXUXvCUJdut3jDMQ6MrpX2
-----END CERTIFICATE-----
