Certificate:
    Data:
        Version: 3 (0x2)
        Serial Number: 11042563100185 (0xa0b0c0d0e19)
    Signature Algorithm: sha256WithRSAEncryption
        Issuer: CN=MYSORECA_CA, C=IN, O=CITRIX, OU=ANG, ST=KA/emailAddress=MYSORECA_CA@MYSORECA_mail.com
        Validity
            Not Before: Jul  8 04:36:32 2016 GMT
            Not After : Jul  6 04:36:32 2026 GMT
        Subject: ST=KA, C=IN, CN=111_MYSORECA_server/emailAddress=111_MYSORECA@test_ca.com, O=CITRIX
        Subject Public Key Info:
            Public Key Algorithm: rsaEncryption
                Public-Key: (2048 bit)
                Modulus:
                    00:9f:c1:23:82:6c:5d:4b:ff:35:72:56:83:cc:03:
                    d3:db:49:74:2b:6b:25:5c:70:4a:19:c7:0e:b3:64:
                    36:43:74:08:b6:5a:82:57:4c:3b:b8:4a:b0:f9:7e:
                    33:5b:5f:e8:b9:30:8d:c3:6e:88:3d:54:dd:b0:51:
                    39:d6:cc:d0:a1:47:be:d4:49:fe:75:b5:86:11:ca:
                    3d:95:de:5e:0d:f5:29:be:ec:d4:a5:75:36:fe:d5:
                    82:0d:9c:a7:56:0b:e3:1e:9a:22:33:0a:5c:32:e6:
                    9a:0e:2b:ba:a0:5d:1f:b0:ac:de:75:b7:5b:dc:75:
                    d9:c1:5b:7d:85:9f:d5:82:a7:c1:85:a1:f7:58:76:
                    47:93:00:54:2a:75:80:bb:34:93:8f:e6:b9:b7:4c:
                    f4:f3:a2:6b:ab:94:af:31:c4:08:cc:14:45:4a:1c:
                    9b:9a:ec:99:02:d4:a1:ef:81:8e:b3:8a:ba:a4:56:
                    26:87:12:3d:44:95:31:53:d6:09:9e:6e:eb:d6:2f:
                    27:e1:c5:60:f6:40:22:0d:b7:31:7c:a3:ee:b7:40:
                    24:79:eb:cd:18:df:f8:b8:e1:c6:85:1f:2e:1a:ae:
                    1e:25:08:81:f8:7b:6d:77:f4:cc:e3:ae:79:f7:3d:
                    bc:67:ed:99:7c:00:ac:8c:66:3e:e2:91:c7:47:70:
                    8e:13
                Exponent: 65537 (0x10001)
        X509v3 extensions:
            Netscape Cert Type: 
                SSL Server
            X509v3 Subject Key Identifier: 
                39:3C:D5:2D:70:47:AC:24:BC:70:DA:D0:DD:42:11:52:5E:89:D9:EF
            X509v3 Authority Key Identifier: 
                keyid:C6:18:DA:E4:16:A1:1E:60:AE:18:00:F5:A7:DF:0A:8B:65:4D:36:95
                DirName:/CN=MYSORECA_CA/C=IN/O=CITRIX/OU=ANG/ST=KA/emailAddress=MYSORECA_CA@MYSORECA_mail.com
                serial:D5:74:54:E9:D5:CF:C9:F6

            Authority Information Access: 
                OCSP - URI:http://MYSORECA_two.ocsptest.com/responderpath

    Signature Algorithm: sha256WithRSAEncryption
         a3:d1:84:fe:89:8a:78:eb:32:3f:b0:0a:45:88:6d:0a:5f:77:
         10:ee:6c:dc:8c:34:15:f3:1f:29:00:cf:9f:c3:48:c6:48:79:
         67:71:bf:6f:a9:0e:7c:09:98:c9:b0:37:c6:a8:ac:17:8d:27:
         90:0a:89:a5:f2:b4:ef:d9:82:d2:8b:3a:77:0d:8d:94:6b:9f:
         a4:31:7c:7d:3c:dc:2d:12:02:bd:21:e4:1f:77:8e:3a:e3:7d:
         2a:6b:38:45:54:0c:f2:d5:05:15:16:fb:fb:a5:c2:9b:72:b0:
         ab:ee:8c:d1:ca:01:68:53:ce:70:b6:f0:64:a9:fb:90:5d:4b:
         ce:b4:cc:6b:92:d1:20:55:42:ec:9c:b5:11:ba:0b:54:3c:60:
         bb:f1:27:81:bd:0f:f9:53:62:0e:f7:1c:7c:a3:94:9d:1e:b2:
         92:e6:c4:19:ec:23:a5:d3:6b:90:15:01:23:d8:d7:59:74:33:
         24:99:b6:e5:86:e8:15:15:35:07:6e:9f:c5:50:eb:d8:9f:96:
         9c:9b:ee:47:ef:f1:04:70:66:7d:e4:87:70:67:22:82:5d:14:
         41:35:a6:15:c7:d0:d5:24:50:9c:a6:03:21:16:0a:c7:18:7c:
         d6:96:92:e5:42:91:a6:ed:e3:ff:3d:aa:d1:71:eb:ea:69:3d:
         c1:0d:02:79
-----BEGIN CERTIFICATE-----
MIIEpjCCA46gAwIBAgIGCgsMDQ4ZMA0GCSqGSIb3DQEBCwUAMH0xFDASBgNVBAMU
C01ZU09SRUNBX0NBMQswCQYDVQQGEwJJTjEPMA0GA1UEChMGQ0lUUklYMQwwCgYD
VQQLEwNBTkcxCzAJBgNVBAgTAktBMSwwKgYJKoZIhvcNAQkBFh1NWVNPUkVDQV9D
QUBNWVNPUkVDQV9tYWlsLmNvbTAeFw0xNjA3MDgwNDM2MzJaFw0yNjA3MDYwNDM2
MzJaMHIxCzAJBgNVBAgTAktBMQswCQYDVQQGEwJJTjEcMBoGA1UEAxQTMTExX01Z
U09SRUNBX3NlcnZlcjEnMCUGCSqGSIb3DQEJARYYMTExX01ZU09SRUNBQHRlc3Rf
Y2EuY29tMQ8wDQYDVQQKEwZDSVRSSVgwggEiMA0GCSqGSIb3DQEBAQUAA4IBDwAw
ggEKAoIBAQCfwSOCbF1L/zVyVoPMA9PbSXQrayVccEoZxw6zZDZDdAi2WoJXTDu4
SrD5fjNbX+i5MI3Dbog9VN2wUTnWzNChR77USf51tYYRyj2V3l4N9Sm+7NSldTb+
1YINnKdWC+MemiIzClwy5poOK7qgXR+wrN51t1vcddnBW32Fn9WCp8GFofdYdkeT
AFQqdYC7NJOP5rm3TPTzomurlK8xxAjMFEVKHJua7JkC1KHvgY6zirqkViaHEj1E
lTFT1gmebuvWLyfhxWD2QCINtzF8o+63QCR5680Y3/i44caFHy4arh4lCIH4e213
9Mzjrnn3Pbxn7Zl8AKyMZj7ikcdHcI4TAgMBAAGjggE1MIIBMTARBglghkgBhvhC
AQEEBAMCBkAwHQYDVR0OBBYEFDk81S1wR6wkvHDa0N1CEVJeidnvMIGwBgNVHSME
gagwgaWAFMYY2uQWoR5grhgA9affCotlTTaVoYGBpH8wfTEUMBIGA1UEAxQLTVlT
T1JFQ0FfQ0ExCzAJBgNVBAYTAklOMQ8wDQYDVQQKEwZDSVRSSVgxDDAKBgNVBAsT
A0FORzELMAkGA1UECBMCS0ExLDAqBgkqhkiG9w0BCQEWHU1ZU09SRUNBX0NBQE1Z
U09SRUNBX21haWwuY29tggkA1XRU6dXPyfYwSgYIKwYBBQUHAQEEPjA8MDoGCCsG
AQUFBzABhi5odHRwOi8vTVlTT1JFQ0FfdHdvLm9jc3B0ZXN0LmNvbS9yZXNwb25k
ZXJwYXRoMA0GCSqGSIb3DQEBCwUAA4IBAQCj0YT+iYp46zI/sApFiG0KX3cQ7mzc
jDQV8x8pAM+fw0jGSHlncb9vqQ58CZjJsDfGqKwXjSeQComl8rTv2YLSizp3DY2U
a5+kMXx9PNwtEgK9IeQfd446430qazhFVAzy1QUVFvv7pcKbcrCr7ozRygFoU85w
tvBkqfuQXUvOtMxrktEgVULsnLURugtUPGC78SeBvQ/5U2IO9xx8o5SdHrKS5sQZ
7COl02uQFQEj2NdZdDMkmbblhugVFTUHbp/FUOvYn5acm+5H7/EEcGZ95IdwZyKC
XRRBNaYVx9DVJFCcpgMhFgrHGHzWlpLlQpGm7eP/ParRcevqaT3BDQJ5
-----END CERTIFICATE-----
