Certificate:
    Data:
        Version: 3 (0x2)
        Serial Number: 11042563100186 (0xa0b0c0d0e1a)
    Signature Algorithm: sha256WithRSAEncryption
        Issuer: CN=DELHICA_CA, C=IN, O=CITRIX, OU=ANG, ST=KA/emailAddress=DELHICA_CA@DELHICA_mail.com
        Validity
            Not Before: Jul  8 04:34:24 2016 GMT
            Not After : Jul  6 04:34:24 2026 GMT
        Subject: ST=KA, C=IN, CN=112_DELHICA_server/emailAddress=112_DELHICA@test_ca.com, O=CITRIX
        Subject Public Key Info:
            Public Key Algorithm: rsaEncryption
                Public-Key: (2048 bit)
                Modulus:
                    00:db:ac:76:bc:9a:a9:59:85:39:c7:b7:9c:31:2e:
                    a9:31:42:8e:22:1d:b5:c7:b1:b7:0a:b6:f1:51:28:
                    67:46:11:63:f6:cc:e4:8b:b1:3c:71:b1:ae:e1:ea:
                    9e:dc:f3:64:7a:2c:1c:77:07:c2:9e:dd:42:7b:66:
                    96:9d:db:ed:14:93:c4:95:5a:53:bf:1d:e8:b3:e1:
                    c0:63:64:7d:6c:26:34:fd:3f:25:f6:a4:09:ba:17:
                    5c:26:36:85:f4:21:cf:be:05:f3:59:96:6e:be:15:
                    ac:e1:48:75:3d:9d:e6:e5:bd:cb:2f:92:c3:20:d0:
                    ba:23:5f:20:c1:bf:d3:4e:20:17:8d:ed:cf:60:c4:
                    68:69:65:14:ab:4b:4e:b4:ec:59:88:67:ab:22:b9:
                    b4:fe:23:3e:34:86:1c:c1:50:3f:ff:23:da:4e:a4:
                    38:a1:f1:05:b5:f7:1f:c9:4c:79:c0:f8:71:a9:58:
                    3b:99:c2:ee:94:17:31:4a:e6:e2:6d:fb:fe:aa:0a:
                    97:98:e0:e3:2b:43:b9:3e:e9:a7:f3:48:de:52:e7:
                    f4:39:1a:2b:ac:5c:fc:7b:f8:65:08:f9:61:03:64:
                    6c:f9:86:f0:b8:fb:4a:34:9a:e7:5c:0f:a5:d9:25:
                    2d:a9:5d:13:bb:a7:37:d4:12:43:5d:30:b5:c5:c4:
                    ca:8b
                Exponent: 65537 (0x10001)
        X509v3 extensions:
            Netscape Cert Type: 
                SSL Server
            X509v3 Subject Key Identifier: 
                1B:B4:ED:53:C9:55:A9:38:78:43:67:C5:D6:4D:5B:74:18:06:B8:FD
            X509v3 Authority Key Identifier: 
                keyid:D7:37:52:01:DC:2C:7A:57:85:CA:30:39:30:F0:D5:5D:5A:31:03:02
                DirName:/CN=DELHICA_CA/C=IN/O=CITRIX/OU=ANG/ST=KA/emailAddress=DELHICA_CA@DELHICA_mail.com
                serial:94:59:DC:51:4E:A5:13:27

            Authority Information Access: 
                OCSP - URI:http://DELHICA_two.ocsptest.com/responderpath

    Signature Algorithm: sha256WithRSAEncryption
         b9:15:e3:b9:07:59:9a:94:ff:9e:b5:32:4d:11:c0:92:36:a0:
         34:70:a2:46:de:a0:27:b4:d4:9b:21:d4:05:9a:07:e6:64:0e:
         b9:57:f8:fd:bb:b7:59:6e:e9:8a:5d:7e:b7:d2:19:51:c3:be:
         33:c9:5a:ba:2b:ec:4f:41:65:db:08:49:ee:11:52:54:8b:a7:
         43:b4:0b:e2:17:ba:46:ef:3a:77:8b:60:04:1e:60:c7:17:82:
         1f:e3:0c:21:77:b3:8b:3f:61:ad:53:42:cd:7b:f0:a4:3b:02:
         8d:2e:5d:a1:a3:c2:bd:23:dd:5f:f8:ae:6a:63:ef:82:77:2a:
         5b:56:b2:df:8e:02:f6:d1:43:28:69:78:ce:57:3c:11:b1:c6:
         1e:cb:f9:17:dd:6a:f6:71:58:ba:33:95:92:16:58:1b:ea:ef:
         d9:46:49:44:07:87:37:c4:99:c6:4f:22:9d:e6:3b:8c:d4:ad:
         f4:97:9f:24:7a:ce:a7:24:b1:1c:51:d3:c4:bf:31:32:67:a8:
         34:50:06:8f:1e:ca:91:16:9e:3f:8d:0b:5f:ec:25:2f:da:50:
         b3:ab:11:f7:2d:3f:9d:36:f8:ba:ea:c1:b4:e9:ea:79:ea:99:
         24:5a:f2:64:79:15:ca:61:be:19:6b:c0:da:48:5b:19:ff:20:
         ee:93:c6:6d
-----BEGIN CERTIFICATE-----
MIIEnDCCA4SgAwIBAgIGCgsMDQ4aMA0GCSqGSIb3DQEBCwUAMHoxEzARBgNVBAMU
CkRFTEhJQ0FfQ0ExCzAJBgNVBAYTAklOMQ8wDQYDVQQKEwZDSVRSSVgxDDAKBgNV
BAsTA0FORzELMAkGA1UECBMCS0ExKjAoBgkqhkiG9w0BCQEWG0RFTEhJQ0FfQ0FA
REVMSElDQV9tYWlsLmNvbTAeFw0xNjA3MDgwNDM0MjRaFw0yNjA3MDYwNDM0MjRa
MHAxCzAJBgNVBAgTAktBMQswCQYDVQQGEwJJTjEbMBkGA1UEAxQSMTEyX0RFTEhJ
Q0Ffc2VydmVyMSYwJAYJKoZIhvcNAQkBFhcxMTJfREVMSElDQUB0ZXN0X2NhLmNv
bTEPMA0GA1UEChMGQ0lUUklYMIIBIjANBgkqhkiG9w0BAQEFAAOCAQ8AMIIBCgKC
AQEA26x2vJqpWYU5x7ecMS6pMUKOIh21x7G3CrbxUShnRhFj9szki7E8cbGu4eqe
3PNkeiwcdwfCnt1Ce2aWndvtFJPElVpTvx3os+HAY2R9bCY0/T8l9qQJuhdcJjaF
9CHPvgXzWZZuvhWs4Uh1PZ3m5b3LL5LDINC6I18gwb/TTiAXje3PYMRoaWUUq0tO
tOxZiGerIrm0/iM+NIYcwVA//yPaTqQ4ofEFtfcfyUx5wPhxqVg7mcLulBcxSubi
bfv+qgqXmODjK0O5Pumn80jeUuf0ORorrFz8e/hlCPlhA2Rs+YbwuPtKNJrnXA+l
2SUtqV0Tu6c31BJDXTC1xcTKiwIDAQABo4IBMDCCASwwEQYJYIZIAYb4QgEBBAQD
AgZAMB0GA1UdDgQWBBQbtO1TyVWpOHhDZ8XWTVt0GAa4/TCBrAYDVR0jBIGkMIGh
gBTXN1IB3Cx6V4XKMDkw8NVdWjEDAqF+pHwwejETMBEGA1UEAxQKREVMSElDQV9D
QTELMAkGA1UEBhMCSU4xDzANBgNVBAoTBkNJVFJJWDEMMAoGA1UECxMDQU5HMQsw
CQYDVQQIEwJLQTEqMCgGCSqGSIb3DQEJARYbREVMSElDQV9DQUBERUxISUNBX21h
aWwuY29tggkAlFncUU6lEycwSQYIKwYBBQUHAQEEPTA7MDkGCCsGAQUFBzABhi1o
dHRwOi8vREVMSElDQV90d28ub2NzcHRlc3QuY29tL3Jlc3BvbmRlcnBhdGgwDQYJ
KoZIhvcNAQELBQADggEBALkV47kHWZqU/561Mk0RwJI2oDRwokbeoCe01Jsh1AWa
B+ZkDrlX+P27t1lu6YpdfrfSGVHDvjPJWror7E9BZdsISe4RUlSLp0O0C+IXukbv
OneLYAQeYMcXgh/jDCF3s4s/Ya1TQs178KQ7Ao0uXaGjwr0j3V/4rmpj74J3KltW
st+OAvbRQyhpeM5XPBGxxh7L+RfdavZxWLozlZIWWBvq79lGSUQHhzfEmcZPIp3m
O4zUrfSXnyR6zqcksRxR08S/MTJnqDRQBo8eypEWnj+NC1/sJS/aULOrEfctP502
+LrqwbTp6nnqmSRa8mR5FcphvhlrwNpIWxn/IO6Txm0=
-----END CERTIFICATE-----
