Certificate:
    Data:
        Version: 3 (0x2)
        Serial Number: 11042563100186 (0xa0b0c0d0e1a)
    Signature Algorithm: sha256WithRSAEncryption
        Issuer: CN=MYSORECA_CA, C=IN, O=CITRIX, OU=ANG, ST=KA/emailAddress=MYSORECA_CA@MYSORECA_mail.com
        Validity
            Not Before: Jul  8 04:36:32 2016 GMT
            Not After : Jul  6 04:36:32 2026 GMT
        Subject: ST=KA, C=IN, CN=112_MYSORECA_server/emailAddress=112_MYSORECA@test_ca.com, O=CITRIX
        Subject Public Key Info:
            Public Key Algorithm: rsaEncryption
                Public-Key: (2048 bit)
                Modulus:
                    00:c6:6d:63:fa:82:36:05:cb:14:de:97:c0:ce:e1:
                    01:08:f9:70:78:95:79:c6:4b:96:15:ba:4e:da:ff:
                    97:1c:ef:da:79:84:82:be:03:8f:3c:8a:cd:74:e1:
                    df:3f:e7:08:3f:df:de:dc:a3:1c:9c:47:91:93:4c:
                    45:87:00:35:49:03:81:c8:71:bb:bf:63:52:a8:da:
                    15:ab:a2:ab:1b:d9:86:1e:d0:ac:56:ca:2f:2a:e8:
                    d9:01:a9:30:27:22:10:3c:36:12:e9:8d:ad:a7:a0:
                    5f:51:53:bf:49:70:f2:62:11:02:42:b2:fa:a7:03:
                    9f:60:a6:a2:67:7b:54:b0:d2:68:5f:87:73:8e:25:
                    54:1b:3c:f4:36:35:0c:1d:10:5f:cb:12:65:e4:5d:
                    ef:3d:5a:3e:ba:58:7c:6c:7d:22:ff:6d:4f:f3:ac:
                    f4:f5:c3:c5:47:f7:43:d9:63:9f:2b:94:c8:f4:e4:
                    76:5f:a8:1b:7f:24:30:0f:20:40:49:02:c3:51:40:
                    99:b1:e8:0c:47:a6:9a:3e:39:38:b8:00:6f:b5:1b:
                    78:17:9b:cc:cc:a7:ff:ae:10:8e:80:93:97:79:7f:
                    c7:89:c2:35:7f:e6:f7:31:65:d1:26:39:7e:46:37:
                    09:ec:f5:56:40:b7:3c:5f:5e:37:4b:c0:24:ff:59:
                    a5:53
                Exponent: 65537 (0x10001)
        X509v3 extensions:
            Netscape Cert Type: 
                SSL Server
            X509v3 Subject Key Identifier: 
                4C:DF:F8:6E:A5:E7:00:54:CB:7C:D9:4B:79:22:11:99:F7:0E:8F:7E
            X509v3 Authority Key Identifier: 
                keyid:C6:18:DA:E4:16:A1:1E:60:AE:18:00:F5:A7:DF:0A:8B:65:4D:36:95
                DirName:/CN=MYSORECA_CA/C=IN/O=CITRIX/OU=ANG/ST=KA/emailAddress=MYSORECA_CA@MYSORECA_mail.com
                serial:D5:74:54:E9:D5:CF:C9:F6

            Authority Information Access: 
                OCSP - URI:http://MYSORECA_two.ocsptest.com/responderpath

    Signature Algorithm: sha256WithRSAEncryption
         54:7b:22:bf:b1:4a:84:84:8d:7c:e0:f4:52:52:6a:62:65:74:
         eb:d5:ec:14:d3:30:3b:37:3a:15:5a:2e:0f:01:74:0e:34:09:
         be:e6:c2:37:fc:32:f9:e5:0a:54:94:fe:86:0c:ab:bc:82:ee:
         01:6e:ec:8e:f0:f6:30:3b:5f:de:70:ae:bb:87:4b:06:72:6b:
         6f:59:6e:0b:1c:6d:ad:e7:af:f6:ea:59:20:cf:2c:88:8d:82:
         71:b1:40:81:e8:97:f8:75:78:cf:8a:bf:b4:21:a4:89:74:41:
         6e:23:47:39:f7:06:83:ee:03:c6:57:79:33:cd:77:05:b4:14:
         36:8f:f0:0e:6d:70:68:64:d4:08:e1:89:d7:c3:e3:31:67:05:
         2b:1d:85:2f:85:1d:12:ef:ee:55:92:2c:3b:a6:8b:18:e7:53:
         a4:55:74:49:15:f9:d6:8a:15:3f:da:dc:80:36:8c:6d:7d:69:
         18:8d:eb:f4:4d:0a:dc:f2:82:41:04:ab:bc:88:b3:19:fd:d3:
         5b:61:37:45:ce:c8:16:10:4e:b1:ea:6a:7b:51:91:52:f7:16:
         57:e4:d7:ee:dd:84:10:14:c8:62:6b:9e:3d:28:d6:d5:40:8f:
         c6:2c:c8:2b:7a:a0:8b:de:59:44:15:c8:4c:e5:48:95:aa:55:
         db:f1:21:49
-----BEGIN CERTIFICATE-----
MIIEpjCCA46gAwIBAgIGCgsMDQ4aMA0GCSqGSIb3DQEBCwUAMH0xFDASBgNVBAMU
C01ZU09SRUNBX0NBMQswCQYDVQQGEwJJTjEPMA0GA1UEChMGQ0lUUklYMQwwCgYD
VQQLEwNBTkcxCzAJBgNVBAgTAktBMSwwKgYJKoZIhvcNAQkBFh1NWVNPUkVDQV9D
QUBNWVNPUkVDQV9tYWlsLmNvbTAeFw0xNjA3MDgwNDM2MzJaFw0yNjA3MDYwNDM2
MzJaMHIxCzAJBgNVBAgTAktBMQswCQYDVQQGEwJJTjEcMBoGA1UEAxQTMTEyX01Z
U09SRUNBX3NlcnZlcjEnMCUGCSqGSIb3DQEJARYYMTEyX01ZU09SRUNBQHRlc3Rf
Y2EuY29tMQ8wDQYDVQQKEwZDSVRSSVgwggEiMA0GCSqGSIb3DQEBAQUAA4IBDwAw
ggEKAoIBAQDGbWP6gjYFyxTel8DO4QEI+XB4lXnGS5YVuk7a/5cc79p5hIK+A488
is104d8/5wg/397coxycR5GTTEWHADVJA4HIcbu/Y1Ko2hWroqsb2YYe0KxWyi8q
6NkBqTAnIhA8NhLpja2noF9RU79JcPJiEQJCsvqnA59gpqJne1Sw0mhfh3OOJVQb
PPQ2NQwdEF/LEmXkXe89Wj66WHxsfSL/bU/zrPT1w8VH90PZY58rlMj05HZfqBt/
JDAPIEBJAsNRQJmx6AxHppo+OTi4AG+1G3gXm8zMp/+uEI6Ak5d5f8eJwjV/5vcx
ZdEmOX5GNwns9VZAtzxfXjdLwCT/WaVTAgMBAAGjggE1MIIBMTARBglghkgBhvhC
AQEEBAMCBkAwHQYDVR0OBBYEFEzf+G6l5wBUy3zZS3kiEZn3Do9+MIGwBgNVHSME
gagwgaWAFMYY2uQWoR5grhgA9affCotlTTaVoYGBpH8wfTEUMBIGA1UEAxQLTVlT
T1JFQ0FfQ0ExCzAJBgNVBAYTAklOMQ8wDQYDVQQKEwZDSVRSSVgxDDAKBgNVBAsT
A0FORzELMAkGA1UECBMCS0ExLDAqBgkqhkiG9w0BCQEWHU1ZU09SRUNBX0NBQE1Z
U09SRUNBX21haWwuY29tggkA1XRU6dXPyfYwSgYIKwYBBQUHAQEEPjA8MDoGCCsG
AQUFBzABhi5odHRwOi8vTVlTT1JFQ0FfdHdvLm9jc3B0ZXN0LmNvbS9yZXNwb25k
ZXJwYXRoMA0GCSqGSIb3DQEBCwUAA4IBAQBUeyK/sUqEhI184PRSUmpiZXTr1ewU
0zA7NzoVWi4PAXQONAm+5sI3/DL55QpUlP6GDKu8gu4BbuyO8PYwO1/ecK67h0sG
cmtvWW4LHG2t56/26lkgzyyIjYJxsUCB6Jf4dXjPir+0IaSJdEFuI0c59waD7gPG
V3kzzXcFtBQ2j/AObXBoZNQI4YnXw+MxZwUrHYUvhR0S7+5Vkiw7posY51OkVXRJ
FfnWihU/2tyANoxtfWkYjev0TQrc8oJBBKu8iLMZ/dNbYTdFzsgWEE6x6mp7UZFS
9xZX5Nfu3YQQFMhia549KNbVQI/GLMgreqCL3llEFchM5UiVqlXb8SFJ
-----END CERTIFICATE-----
