Certificate:
    Data:
        Version: 3 (0x2)
        Serial Number: 11042563100186 (0xa0b0c0d0e1a)
    Signature Algorithm: sha256WithRSAEncryption
        Issuer: CN=SHILLONGCA_CA, C=IN, O=CITRIX, OU=ANG, ST=KA/emailAddress=SHILLONGCA_CA@SHILLONGCA_mail.com
        Validity
            Not Before: Jul  8 04:40:09 2016 GMT
            Not After : Jul  6 04:40:09 2026 GMT
        Subject: ST=KA, C=IN, CN=112_SHILLONGCA_server/emailAddress=112_SHILLONGCA@test_ca.com, O=CITRIX
        Subject Public Key Info:
            Public Key Algorithm: rsaEncryption
                Public-Key: (2048 bit)
                Modulus:
                    00:d4:a6:de:4e:c6:31:ea:d7:99:c7:65:d0:a1:c1:
                    79:00:26:6f:8c:aa:64:db:ea:74:f8:67:79:c2:16:
                    bd:e0:96:12:fd:f3:1e:93:8e:d5:c1:a6:d5:06:36:
                    95:9e:24:90:02:b0:7b:bb:96:70:73:6b:3e:58:85:
                    1e:c7:14:85:40:4e:2f:ce:f1:ff:be:0d:9a:1f:0e:
                    8d:dc:18:b7:d7:f6:7a:27:bf:9c:5a:ad:30:d7:45:
                    86:01:2a:f2:ea:58:27:bd:33:81:10:83:c8:83:b3:
                    e2:6d:86:1c:19:fc:0c:21:7c:88:1a:97:44:4b:a5:
                    36:b1:7c:68:87:43:34:f2:5e:35:5e:37:1d:c9:f2:
                    07:c1:f3:30:42:e1:a4:63:42:f9:25:ec:27:89:76:
                    29:ab:cc:85:43:b5:2f:a0:01:74:7e:fe:d6:89:56:
                    a0:62:ad:1b:c5:e7:6e:63:b5:14:48:81:6b:90:69:
                    62:16:f4:1e:de:cf:90:db:eb:39:d6:dd:51:2c:14:
                    f4:9a:22:e1:49:7f:9e:ba:20:04:3b:64:60:4d:d7:
                    8f:8d:d6:e9:36:52:ba:4e:99:0f:99:f6:56:5c:8b:
                    cc:c0:0e:19:e0:1e:f9:98:ff:58:e3:eb:8b:7e:a5:
                    9f:53:db:23:79:70:3e:25:5a:cd:ac:38:13:87:a5:
                    d5:e7
                Exponent: 65537 (0x10001)
        X509v3 extensions:
            Netscape Cert Type: 
                SSL Server
            X509v3 Subject Key Identifier: 
                50:72:D8:6E:C8:08:29:5A:0E:BF:85:D1:D1:1F:5F:6C:0B:7C:07:BB
            X509v3 Authority Key Identifier: 
                keyid:FA:E9:1F:A5:AF:8B:4E:18:FF:EF:B7:EA:8F:FB:98:BC:59:23:81:DF
                DirName:/CN=SHILLONGCA_CA/C=IN/O=CITRIX/OU=ANG/ST=KA/emailAddress=SHILLONGCA_CA@SHILLONGCA_mail.com
                serial:FB:D0:92:FD:A2:7C:35:0C

            Authority Information Access: 
                OCSP - URI:http://SHILLONGCA_two.ocsptest.com/responderpath

    Signature Algorithm: sha256WithRSAEncryption
         83:6d:d3:a0:ff:dd:88:cc:25:fc:4f:a7:9e:7a:e9:34:b9:69:
         5b:11:5c:9e:b0:7f:d9:a1:98:39:18:68:cd:3b:a9:0c:0a:ba:
         e6:f8:c7:9e:ba:c5:e2:50:9e:32:68:19:c9:bd:2f:ef:9e:be:
         df:05:0f:3c:39:fb:ff:42:3b:b1:03:7b:0e:b8:e9:c9:09:54:
         01:64:07:d2:e1:a2:27:8a:d1:6d:22:99:98:0f:59:23:96:7b:
         45:cb:7d:b5:58:6f:04:f9:78:5c:42:bb:24:0f:7e:94:01:f4:
         51:88:34:f0:7e:5d:3e:dd:b3:55:67:b9:79:32:c0:9d:9a:fb:
         93:a8:5e:a7:f8:97:82:e5:a9:ba:fd:13:01:ea:e5:98:59:c7:
         2b:ed:b0:08:89:39:33:96:34:c5:20:c8:13:c4:1d:f0:68:1b:
         00:c7:e0:e6:8f:63:9d:30:41:01:bf:42:c4:f3:8e:05:a5:49:
         c0:b4:df:a6:49:49:9b:02:eb:0b:e8:8f:91:99:52:e1:4f:d6:
         e4:b6:34:03:05:9e:2a:74:bc:f3:f1:69:2c:17:be:c3:f2:cb:
         fd:65:76:c2:59:02:89:a4:c2:3c:2b:c5:26:c1:75:1a:15:02:
         3b:d3:06:4d:24:27:f6:fe:f9:07:ba:f4:de:1e:33:9b:f7:cf:
         ff:76:da:ff
-----BEGIN CERTIFICATE-----
MIIEuzCCA6OgAwIBAgIGCgsMDQ4aMA0GCSqGSIb3DQEBCwUAMIGDMRYwFAYDVQQD
FA1TSElMTE9OR0NBX0NBMQswCQYDVQQGEwJJTjEPMA0GA1UEChMGQ0lUUklYMQww
CgYDVQQLEwNBTkcxCzAJBgNVBAgTAktBMTAwLgYJKoZIhvcNAQkBFiFTSElMTE9O
R0NBX0NBQFNISUxMT05HQ0FfbWFpbC5jb20wHhcNMTYwNzA4MDQ0MDA5WhcNMjYw
NzA2MDQ0MDA5WjB2MQswCQYDVQQIEwJLQTELMAkGA1UEBhMCSU4xHjAcBgNVBAMU
FTExMl9TSElMTE9OR0NBX3NlcnZlcjEpMCcGCSqGSIb3DQEJARYaMTEyX1NISUxM
T05HQ0FAdGVzdF9jYS5jb20xDzANBgNVBAoTBkNJVFJJWDCCASIwDQYJKoZIhvcN
AQEBBQADggEPADCCAQoCggEBANSm3k7GMerXmcdl0KHBeQAmb4yqZNvqdPhnecIW
veCWEv3zHpOO1cGm1QY2lZ4kkAKwe7uWcHNrPliFHscUhUBOL87x/74Nmh8OjdwY
t9f2eie/nFqtMNdFhgEq8upYJ70zgRCDyIOz4m2GHBn8DCF8iBqXREulNrF8aIdD
NPJeNV43HcnyB8HzMELhpGNC+SXsJ4l2KavMhUO1L6ABdH7+1olWoGKtG8XnbmO1
FEiBa5BpYhb0Ht7PkNvrOdbdUSwU9Joi4Ul/nrogBDtkYE3Xj43W6TZSuk6ZD5n2
VlyLzMAOGeAe+Zj/WOPri36ln1PbI3lwPiVazaw4E4el1ecCAwEAAaOCAT8wggE7
MBEGCWCGSAGG+EIBAQQEAwIGQDAdBgNVHQ4EFgQUUHLYbsgIKVoOv4XR0R9fbAt8
B7swgbgGA1UdIwSBsDCBrYAU+ukfpa+LThj/77fqj/uYvFkjgd+hgYmkgYYwgYMx
FjAUBgNVBAMUDVNISUxMT05HQ0FfQ0ExCzAJBgNVBAYTAklOMQ8wDQYDVQQKEwZD
SVRSSVgxDDAKBgNVBAsTA0FORzELMAkGA1UECBMCS0ExMDAuBgkqhkiG9w0BCQEW
IVNISUxMT05HQ0FfQ0FAU0hJTExPTkdDQV9tYWlsLmNvbYIJAPvQkv2ifDUMMEwG
CCsGAQUFBwEBBEAwPjA8BggrBgEFBQcwAYYwaHR0cDovL1NISUxMT05HQ0FfdHdv
Lm9jc3B0ZXN0LmNvbS9yZXNwb25kZXJwYXRoMA0GCSqGSIb3DQEBCwUAA4IBAQCD
bdOg/92IzCX8T6eeeuk0uWlbEVyesH/ZoZg5GGjNO6kMCrrm+MeeusXiUJ4yaBnJ
vS/vnr7fBQ88Ofv/QjuxA3sOuOnJCVQBZAfS4aInitFtIpmYD1kjlntFy321WG8E
+XhcQrskD36UAfRRiDTwfl0+3bNVZ7l5MsCdmvuTqF6n+JeC5am6/RMB6uWYWccr
7bAIiTkzljTFIMgTxB3waBsAx+Dmj2OdMEEBv0LE844FpUnAtN+mSUmbAusL6I+R
mVLhT9bktjQDBZ4qdLzz8WksF77D8sv9ZXbCWQKJpMI8K8UmwXUaFQI70wZNJCf2
/vkHuvTeHjOb98//dtr/
-----END CERTIFICATE-----
