Certificate:
    Data:
        Version: 3 (0x2)
        Serial Number: 11042563100186 (0xa0b0c0d0e1a)
    Signature Algorithm: sha256WithRSAEncryption
        Issuer: CN=OOTYCA_CA, C=IN, O=CITRIX, OU=ANG, ST=KA/emailAddress=OOTYCA_CA@OOTYCA_mail.com
        Validity
            Not Before: Jul  8 04:37:05 2016 GMT
            Not After : Jul  6 04:37:05 2026 GMT
        Subject: ST=KA, C=IN, CN=112_OOTYCA_server/emailAddress=112_OOTYCA@test_ca.com, O=CITRIX
        Subject Public Key Info:
            Public Key Algorithm: rsaEncryption
                Public-Key: (2048 bit)
                Modulus:
                    00:c1:55:46:f9:ba:c7:81:2d:96:57:fd:81:ee:41:
                    21:9f:d0:92:fe:c9:9d:98:9c:37:ce:57:ce:98:58:
                    57:93:a3:a5:b5:5f:88:58:90:d0:c1:b4:98:9b:59:
                    26:98:eb:6d:2d:3d:15:48:68:5b:d4:ea:34:a2:f0:
                    54:a4:33:90:87:a3:6a:84:34:b8:fc:3b:6c:e3:4c:
                    5c:dd:b5:ae:af:c2:0d:d8:24:41:71:6a:42:27:aa:
                    95:80:fb:29:f9:f5:73:e3:ff:7f:65:a3:27:fb:00:
                    76:7c:52:ae:2f:72:59:c2:1c:f5:24:24:e6:63:af:
                    60:e2:9a:7a:d3:f6:69:71:9d:de:b7:2f:34:74:a3:
                    82:06:bf:33:e6:e0:d1:08:c4:9d:a3:25:89:12:83:
                    4e:5e:45:1c:a5:8a:07:c3:24:32:d2:c7:99:c9:17:
                    eb:1c:5e:d8:7e:74:ce:c9:d4:c6:d0:ee:ed:4b:85:
                    13:84:42:06:7a:ad:dd:11:85:27:28:8e:38:bb:65:
                    ae:41:f1:b1:50:bc:4a:fe:c3:73:53:a5:cc:ea:c5:
                    ea:39:ac:3c:df:af:1b:76:47:9a:7b:ba:87:e3:40:
                    4a:f6:fe:e2:14:cc:86:89:59:a4:98:aa:99:56:4d:
                    c0:e9:3e:05:a9:23:94:ca:75:14:e7:19:fa:d5:3e:
                    da:c9
                Exponent: 65537 (0x10001)
        X509v3 extensions:
            Netscape Cert Type: 
                SSL Server
            X509v3 Subject Key Identifier: 
                4F:6A:8C:6A:10:91:14:76:1F:10:11:FB:AA:EC:AA:5F:FC:74:E5:03
            X509v3 Authority Key Identifier: 
                keyid:9E:A0:B1:FE:A8:B8:21:30:13:39:F2:C3:C1:A8:43:CB:5D:73:FC:B5
                DirName:/CN=OOTYCA_CA/C=IN/O=CITRIX/OU=ANG/ST=KA/emailAddress=OOTYCA_CA@OOTYCA_mail.com
                serial:AA:C2:AB:74:21:09:60:FF

            Authority Information Access: 
                OCSP - URI:http://OOTYCA_two.ocsptest.com/responderpath

    Signature Algorithm: sha256WithRSAEncryption
         43:bf:7a:35:f9:8b:fe:8c:6b:e9:81:2c:c0:49:7e:e3:85:47:
         9e:0d:34:b4:4c:da:90:f0:88:a5:22:ea:06:e7:3b:8b:bc:90:
         51:2c:22:fe:6a:07:c1:cc:2e:98:d3:7f:a7:e2:63:87:9e:0d:
         d6:a4:03:5c:91:6d:b9:5a:f3:a1:c4:19:d0:5a:f6:f1:2c:52:
         5a:a6:5d:68:4f:79:3c:aa:a6:89:e9:4a:e4:78:04:eb:ae:e0:
         5c:37:f1:78:56:96:3e:39:3e:e8:24:64:c9:70:f4:61:43:88:
         9a:59:93:c3:60:53:86:d6:45:29:63:83:9f:7d:75:04:8f:c7:
         a3:92:75:06:68:e1:bd:e3:0e:04:9e:65:75:1d:e1:cb:2b:05:
         3e:19:58:9c:c0:97:cc:e1:bd:d9:47:c5:55:b7:63:58:06:06:
         37:1c:b9:99:4a:13:2a:a8:c1:d0:83:ec:68:2c:b6:44:3f:bd:
         0b:34:94:81:20:41:e9:d5:7f:39:1d:9d:e9:e4:dc:07:b3:10:
         9f:3d:6b:ae:90:6a:a5:5e:ec:f9:62:4d:2c:fd:d8:1e:77:e5:
         16:6d:f1:42:e2:75:df:92:c4:c3:43:72:79:a4:42:f9:8f:8f:
         96:e9:c2:08:bb:2f:e8:ca:3d:16:7e:6f:35:3b:e6:bf:c6:ab:
         7c:9c:52:e0
-----BEGIN CERTIFICATE-----
MIIEkzCCA3ugAwIBAgIGCgsMDQ4aMA0GCSqGSIb3DQEBCwUAMHcxEjAQBgNVBAMU
CU9PVFlDQV9DQTELMAkGA1UEBhMCSU4xDzANBgNVBAoTBkNJVFJJWDEMMAoGA1UE
CxMDQU5HMQswCQYDVQQIEwJLQTEoMCYGCSqGSIb3DQEJARYZT09UWUNBX0NBQE9P
VFlDQV9tYWlsLmNvbTAeFw0xNjA3MDgwNDM3MDVaFw0yNjA3MDYwNDM3MDVaMG4x
CzAJBgNVBAgTAktBMQswCQYDVQQGEwJJTjEaMBgGA1UEAxQRMTEyX09PVFlDQV9z
ZXJ2ZXIxJTAjBgkqhkiG9w0BCQEWFjExMl9PT1RZQ0FAdGVzdF9jYS5jb20xDzAN
BgNVBAoTBkNJVFJJWDCCASIwDQYJKoZIhvcNAQEBBQADggEPADCCAQoCggEBAMFV
Rvm6x4Etllf9ge5BIZ/Qkv7JnZicN85XzphYV5OjpbVfiFiQ0MG0mJtZJpjrbS09
FUhoW9TqNKLwVKQzkIejaoQ0uPw7bONMXN21rq/CDdgkQXFqQieqlYD7Kfn1c+P/
f2WjJ/sAdnxSri9yWcIc9SQk5mOvYOKaetP2aXGd3rcvNHSjgga/M+bg0QjEnaMl
iRKDTl5FHKWKB8MkMtLHmckX6xxe2H50zsnUxtDu7UuFE4RCBnqt3RGFJyiOOLtl
rkHxsVC8Sv7Dc1OlzOrF6jmsPN+vG3ZHmnu6h+NASvb+4hTMholZpJiqmVZNwOk+
BakjlMp1FOcZ+tU+2skCAwEAAaOCASwwggEoMBEGCWCGSAGG+EIBAQQEAwIGQDAd
BgNVHQ4EFgQUT2qMahCRFHYfEBH7quyqX/x05QMwgakGA1UdIwSBoTCBnoAUnqCx
/qi4ITATOfLDwahDy11z/LWhe6R5MHcxEjAQBgNVBAMUCU9PVFlDQV9DQTELMAkG
A1UEBhMCSU4xDzANBgNVBAoTBkNJVFJJWDEMMAoGA1UECxMDQU5HMQswCQYDVQQI
EwJLQTEoMCYGCSqGSIb3DQEJARYZT09UWUNBX0NBQE9PVFlDQV9tYWlsLmNvbYIJ
AKrCq3QhCWD/MEgGCCsGAQUFBwEBBDwwOjA4BggrBgEFBQcwAYYsaHR0cDovL09P
VFlDQV90d28ub2NzcHRlc3QuY29tL3Jlc3BvbmRlcnBhdGgwDQYJKoZIhvcNAQEL
BQADggEBAEO/ejX5i/6Ma+mBLMBJfuOFR54NNLRM2pDwiKUi6gbnO4u8kFEsIv5q
B8HMLpjTf6fiY4eeDdakA1yRbbla86HEGdBa9vEsUlqmXWhPeTyqponpSuR4BOuu
4Fw38XhWlj45PugkZMlw9GFDiJpZk8NgU4bWRSljg599dQSPx6OSdQZo4b3jDgSe
ZXUd4csrBT4ZWJzAl8zhvdlHxVW3Y1gGBjccuZlKEyqowdCD7GgstkQ/vQs0lIEg
QenVfzkdnenk3AezEJ89a66QaqVe7PliTSz92B535RZt8ULidd+SxMNDcnmkQvmP
j5bpwgi7L+jKPRZ+bzU75r/Gq3ycUuA=
-----END CERTIFICATE-----
