Certificate:
    Data:
        Version: 3 (0x2)
        Serial Number: 11042563100186 (0xa0b0c0d0e1a)
    Signature Algorithm: sha256WithRSAEncryption
        Issuer: CN=RANCHICA_CA, C=IN, O=CITRIX, OU=ANG, ST=KA/emailAddress=RANCHICA_CA@RANCHICA_mail.com
        Validity
            Not Before: Jul  8 04:38:50 2016 GMT
            Not After : Jul  6 04:38:50 2026 GMT
        Subject: ST=KA, C=IN, CN=112_RANCHICA_server/emailAddress=112_RANCHICA@test_ca.com, O=CITRIX
        Subject Public Key Info:
            Public Key Algorithm: rsaEncryption
                Public-Key: (2048 bit)
                Modulus:
                    00:bc:03:c6:c1:53:6f:c6:90:75:c2:99:d8:b7:ee:
                    c2:3c:74:e6:03:42:ac:cc:78:cc:1e:0b:a9:63:b7:
                    3f:38:87:87:ce:29:78:e4:b2:bc:a9:bd:c5:7b:01:
                    34:e3:eb:e0:54:ce:f2:70:c4:f9:58:02:11:ee:25:
                    68:e9:ce:37:d1:b8:87:3e:f6:8a:c5:48:25:f3:93:
                    f8:37:93:aa:66:40:d8:de:55:4b:e3:d6:c0:8e:ef:
                    6b:c9:d5:19:99:52:6c:c6:24:68:4a:a3:58:7f:f4:
                    54:7f:dc:fb:81:ed:71:c5:60:da:4c:1c:32:59:69:
                    0b:7d:39:9f:1a:ee:c4:35:73:c0:2a:4a:2f:98:71:
                    b8:bb:e8:56:02:b6:b1:3e:3d:50:53:e2:e6:21:60:
                    6e:3e:6b:27:10:e6:05:b1:7f:da:32:d3:52:03:ff:
                    fd:8b:ea:f8:4d:f2:d6:bc:51:21:b0:68:06:3c:3e:
                    f1:2a:a5:02:a0:76:62:83:1f:a2:78:ea:85:6e:1b:
                    96:7f:fe:c3:5a:4b:8f:77:c2:82:d5:be:55:a3:1e:
                    c5:54:b7:f0:a8:3a:82:31:d6:e8:05:35:2c:98:1a:
                    af:97:80:de:0d:d9:46:e6:65:7d:fc:aa:17:5d:28:
                    0a:51:39:0e:e7:6e:77:d7:4c:f4:f6:59:1e:e5:3a:
                    5f:f5
                Exponent: 65537 (0x10001)
        X509v3 extensions:
            Netscape Cert Type: 
                SSL Server
            X509v3 Subject Key Identifier: 
                CA:6E:5D:54:A8:2D:19:F5:DF:E6:9A:07:30:28:4A:AF:34:69:E8:15
            X509v3 Authority Key Identifier: 
                keyid:A7:10:6F:5D:0C:9F:9C:A2:F4:39:92:A3:7D:5C:B8:C0:25:71:BF:39
                DirName:/CN=RANCHICA_CA/C=IN/O=CITRIX/OU=ANG/ST=KA/emailAddress=RANCHICA_CA@RANCHICA_mail.com
                serial:E7:09:A4:3D:1C:C7:45:B1

            Authority Information Access: 
                OCSP - URI:http://RANCHICA_two.ocsptest.com/responderpath

    Signature Algorithm: sha256WithRSAEncryption
         46:ab:24:e8:7a:d8:70:c2:f7:1f:af:58:4f:6a:24:a1:26:d2:
         da:36:b5:75:8f:9d:4d:24:cc:bf:5e:d2:4a:b4:6c:bf:b1:79:
         23:85:26:63:15:85:e9:71:35:29:2c:fc:41:da:78:ff:1c:d6:
         dc:5c:20:af:59:3d:e8:66:8a:ff:0c:5f:4c:79:46:6a:1f:4f:
         c7:3b:6b:92:a7:76:21:7e:0e:03:99:e3:ed:1b:59:3b:7d:eb:
         5c:07:a5:1b:1f:0b:6b:1d:57:88:09:16:f1:f4:b6:86:e2:95:
         4b:bb:f1:26:62:4f:28:f6:fe:c9:02:7d:aa:38:ab:36:33:e1:
         61:f2:7b:4b:19:1a:aa:16:21:b7:ae:3c:48:53:fd:dc:03:16:
         74:38:5e:1d:65:23:64:50:94:b5:3f:f9:7f:75:cb:65:71:ea:
         8c:db:de:c1:03:54:39:be:66:9c:65:ed:36:9f:aa:85:59:33:
         dc:34:52:5d:67:cb:5b:f7:e6:66:28:09:08:a6:ff:41:5e:17:
         df:1f:f5:c0:b2:9b:d4:ec:cc:3e:75:99:be:07:06:a0:e3:e0:
         8a:32:f3:39:f0:30:b7:02:74:e9:ea:2d:d3:ae:99:a4:01:c4:
         f9:6e:2c:db:c2:ab:d6:4c:f4:9a:2c:e9:39:1d:dd:1f:23:c0:
         ff:b1:9d:3b
-----BEGIN CERTIFICATE-----
MIIEpjCCA46gAwIBAgIGCgsMDQ4aMA0GCSqGSIb3DQEBCwUAMH0xFDASBgNVBAMU
C1JBTkNISUNBX0NBMQswCQYDVQQGEwJJTjEPMA0GA1UEChMGQ0lUUklYMQwwCgYD
VQQLEwNBTkcxCzAJBgNVBAgTAktBMSwwKgYJKoZIhvcNAQkBFh1SQU5DSElDQV9D
QUBSQU5DSElDQV9tYWlsLmNvbTAeFw0xNjA3MDgwNDM4NTBaFw0yNjA3MDYwNDM4
NTBaMHIxCzAJBgNVBAgTAktBMQswCQYDVQQGEwJJTjEcMBoGA1UEAxQTMTEyX1JB
TkNISUNBX3NlcnZlcjEnMCUGCSqGSIb3DQEJARYYMTEyX1JBTkNISUNBQHRlc3Rf
Y2EuY29tMQ8wDQYDVQQKEwZDSVRSSVgwggEiMA0GCSqGSIb3DQEBAQUAA4IBDwAw
ggEKAoIBAQC8A8bBU2/GkHXCmdi37sI8dOYDQqzMeMweC6ljtz84h4fOKXjksryp
vcV7ATTj6+BUzvJwxPlYAhHuJWjpzjfRuIc+9orFSCXzk/g3k6pmQNjeVUvj1sCO
72vJ1RmZUmzGJGhKo1h/9FR/3PuB7XHFYNpMHDJZaQt9OZ8a7sQ1c8AqSi+Ycbi7
6FYCtrE+PVBT4uYhYG4+aycQ5gWxf9oy01ID//2L6vhN8ta8USGwaAY8PvEqpQKg
dmKDH6J46oVuG5Z//sNaS493woLVvlWjHsVUt/CoOoIx1ugFNSyYGq+XgN4N2Ubm
ZX38qhddKApROQ7nbnfXTPT2WR7lOl/1AgMBAAGjggE1MIIBMTARBglghkgBhvhC
AQEEBAMCBkAwHQYDVR0OBBYEFMpuXVSoLRn13+aaBzAoSq80aegVMIGwBgNVHSME
gagwgaWAFKcQb10Mn5yi9DmSo31cuMAlcb85oYGBpH8wfTEUMBIGA1UEAxQLUkFO
Q0hJQ0FfQ0ExCzAJBgNVBAYTAklOMQ8wDQYDVQQKEwZDSVRSSVgxDDAKBgNVBAsT
A0FORzELMAkGA1UECBMCS0ExLDAqBgkqhkiG9w0BCQEWHVJBTkNISUNBX0NBQFJB
TkNISUNBX21haWwuY29tggkA5wmkPRzHRbEwSgYIKwYBBQUHAQEEPjA8MDoGCCsG
AQUFBzABhi5odHRwOi8vUkFOQ0hJQ0FfdHdvLm9jc3B0ZXN0LmNvbS9yZXNwb25k
ZXJwYXRoMA0GCSqGSIb3DQEBCwUAA4IBAQBGqyToethwwvcfr1hPaiShJtLaNrV1
j51NJMy/XtJKtGy/sXkjhSZjFYXpcTUpLPxB2nj/HNbcXCCvWT3oZor/DF9MeUZq
H0/HO2uSp3Yhfg4DmePtG1k7fetcB6UbHwtrHVeICRbx9LaG4pVLu/EmYk8o9v7J
An2qOKs2M+Fh8ntLGRqqFiG3rjxIU/3cAxZ0OF4dZSNkUJS1P/l/dctlceqM297B
A1Q5vmacZe02n6qFWTPcNFJdZ8tb9+ZmKAkIpv9BXhffH/XAspvU7Mw+dZm+Bwag
4+CKMvM58DC3AnTp6i3TrpmkAcT5bizbwqvWTPSaLOk5Hd0fI8D/sZ07
-----END CERTIFICATE-----
