Certificate:
    Data:
        Version: 3 (0x2)
        Serial Number: 11042563100186 (0xa0b0c0d0e1a)
    Signature Algorithm: sha256WithRSAEncryption
        Issuer: CN=CALCUTTACA_CA, C=IN, O=CITRIX, OU=ANG, ST=KA/emailAddress=CALCUTTACA_CA@CALCUTTACA_mail.com
        Validity
            Not Before: Jul  8 04:33:06 2016 GMT
            Not After : Jul  6 04:33:06 2026 GMT
        Subject: ST=KA, C=IN, CN=112_CALCUTTACA_server/emailAddress=112_CALCUTTACA@test_ca.com, O=CITRIX
        Subject Public Key Info:
            Public Key Algorithm: rsaEncryption
                Public-Key: (2048 bit)
                Modulus:
                    00:de:46:ec:56:31:fd:22:3b:b0:df:8f:82:c0:b9:
                    f1:c5:eb:df:70:2a:83:e1:61:86:cf:04:89:ea:37:
                    e9:b6:a6:6b:c1:1f:57:90:b9:74:ad:8e:3c:db:13:
                    7d:54:80:dc:7b:b1:e1:28:53:a0:99:e4:c4:26:ce:
                    12:4a:2b:c6:78:5a:03:8d:94:7f:4e:ae:51:a9:be:
                    46:d3:29:37:a2:74:80:5e:bb:16:96:93:fe:5f:f5:
                    d4:4e:c1:c2:ba:80:e9:58:a5:18:fd:12:28:09:ba:
                    c1:b1:4b:c8:91:f5:ab:68:ad:2d:c7:83:6f:0f:17:
                    31:2e:47:cf:f7:c0:de:16:ee:5c:44:31:62:d1:66:
                    75:30:5d:58:58:31:db:dc:a9:55:63:0a:ec:0d:90:
                    7e:fd:8e:68:0f:b2:7b:69:dd:b9:31:5a:10:e7:9d:
                    4d:49:04:b0:51:eb:20:01:ec:4d:6b:70:0f:b1:19:
                    99:01:89:57:47:c3:22:df:e4:24:ed:11:80:1e:af:
                    93:42:c8:c5:16:79:dd:ac:66:3a:17:c9:35:31:5b:
                    c2:6b:2f:38:57:53:70:bd:ec:71:f3:9a:b6:70:c5:
                    7b:ac:ca:7f:14:4e:bd:34:c5:c5:e5:a0:54:67:cb:
                    72:91:3a:9c:fb:31:cb:03:e2:47:cd:9d:8c:50:26:
                    4d:e1
                Exponent: 65537 (0x10001)
        X509v3 extensions:
            Netscape Cert Type: 
                SSL Server
            X509v3 Subject Key Identifier: 
                B7:3C:DF:EE:CD:75:44:A0:4D:EE:4B:BC:6F:ED:05:5E:9E:86:CE:3B
            X509v3 Authority Key Identifier: 
                keyid:37:2E:7B:27:46:4B:CF:47:10:AC:2B:2E:BA:D0:F3:66:75:EB:52:75
                DirName:/CN=CALCUTTACA_CA/C=IN/O=CITRIX/OU=ANG/ST=KA/emailAddress=CALCUTTACA_CA@CALCUTTACA_mail.com
                serial:A5:C6:47:0E:E6:06:37:18

            Authority Information Access: 
                OCSP - URI:http://CALCUTTACA_two.ocsptest.com/responderpath

    Signature Algorithm: sha256WithRSAEncryption
         8d:fc:b6:28:59:cb:e5:ad:f5:9a:61:c4:f2:82:9d:30:ec:80:
         e8:58:9d:a5:29:84:ae:2c:b7:99:eb:2c:4b:b3:23:ec:52:5c:
         51:d9:2e:37:f1:9f:ff:6e:1a:c4:c9:da:ac:74:fd:6a:06:d5:
         ea:05:9a:10:71:aa:a4:04:2d:37:d4:2f:3e:58:89:de:42:4c:
         0c:29:f9:bd:a5:57:5d:c9:a8:89:9c:5e:34:60:07:99:81:85:
         3d:02:ea:4f:e1:ca:0e:51:0d:ae:55:ac:49:f7:db:1a:26:ad:
         9e:17:0a:45:5f:48:66:13:c1:be:95:92:ee:59:f5:43:6e:a8:
         eb:fd:ab:24:04:62:f2:02:66:95:49:e7:a4:4b:4f:80:48:86:
         a5:ce:16:f8:65:be:b9:83:66:2c:76:f1:e7:04:b2:21:80:8b:
         0c:7f:cb:f2:88:13:7d:6d:a8:77:b3:9f:ff:2c:3c:da:35:99:
         8c:4c:82:32:61:f1:91:e5:93:ca:32:68:a0:07:74:75:d9:04:
         6c:29:d8:6b:e6:83:0e:f5:36:b9:0a:d5:d5:c4:a4:74:51:1a:
         35:63:3e:31:b0:04:c2:e0:73:c5:4b:94:41:9a:7e:dc:ad:d7:
         ae:58:0b:6a:a5:46:1c:2c:bd:3a:57:11:97:f2:13:ba:df:34:
         e8:79:7a:1d
-----BEGIN CERTIFICATE-----
MIIEuzCCA6OgAwIBAgIGCgsMDQ4aMA0GCSqGSIb3DQEBCwUAMIGDMRYwFAYDVQQD
FA1DQUxDVVRUQUNBX0NBMQswCQYDVQQGEwJJTjEPMA0GA1UEChMGQ0lUUklYMQww
CgYDVQQLEwNBTkcxCzAJBgNVBAgTAktBMTAwLgYJKoZIhvcNAQkBFiFDQUxDVVRU
QUNBX0NBQENBTENVVFRBQ0FfbWFpbC5jb20wHhcNMTYwNzA4MDQzMzA2WhcNMjYw
NzA2MDQzMzA2WjB2MQswCQYDVQQIEwJLQTELMAkGA1UEBhMCSU4xHjAcBgNVBAMU
FTExMl9DQUxDVVRUQUNBX3NlcnZlcjEpMCcGCSqGSIb3DQEJARYaMTEyX0NBTENV
VFRBQ0FAdGVzdF9jYS5jb20xDzANBgNVBAoTBkNJVFJJWDCCASIwDQYJKoZIhvcN
AQEBBQADggEPADCCAQoCggEBAN5G7FYx/SI7sN+PgsC58cXr33Aqg+Fhhs8Eieo3
6bama8EfV5C5dK2OPNsTfVSA3Hux4ShToJnkxCbOEkorxnhaA42Uf06uUam+RtMp
N6J0gF67FpaT/l/11E7BwrqA6VilGP0SKAm6wbFLyJH1q2itLceDbw8XMS5Hz/fA
3hbuXEQxYtFmdTBdWFgx29ypVWMK7A2Qfv2OaA+ye2nduTFaEOedTUkEsFHrIAHs
TWtwD7EZmQGJV0fDIt/kJO0RgB6vk0LIxRZ53axmOhfJNTFbwmsvOFdTcL3scfOa
tnDFe6zKfxROvTTFxeWgVGfLcpE6nPsxywPiR82djFAmTeECAwEAAaOCAT8wggE7
MBEGCWCGSAGG+EIBAQQEAwIGQDAdBgNVHQ4EFgQUtzzf7s11RKBN7ku8b+0FXp6G
zjswgbgGA1UdIwSBsDCBrYAUNy57J0ZLz0cQrCsuutDzZnXrUnWhgYmkgYYwgYMx
FjAUBgNVBAMUDUNBTENVVFRBQ0FfQ0ExCzAJBgNVBAYTAklOMQ8wDQYDVQQKEwZD
SVRSSVgxDDAKBgNVBAsTA0FORzELMAkGA1UECBMCS0ExMDAuBgkqhkiG9w0BCQEW
IUNBTENVVFRBQ0FfQ0FAQ0FMQ1VUVEFDQV9tYWlsLmNvbYIJAKXGRw7mBjcYMEwG
CCsGAQUFBwEBBEAwPjA8BggrBgEFBQcwAYYwaHR0cDovL0NBTENVVFRBQ0FfdHdv
Lm9jc3B0ZXN0LmNvbS9yZXNwb25kZXJwYXRoMA0GCSqGSIb3DQEBCwUAA4IBAQCN
/LYoWcvlrfWaYcTygp0w7IDoWJ2lKYSuLLeZ6yxLsyPsUlxR2S438Z//bhrEydqs
dP1qBtXqBZoQcaqkBC031C8+WIneQkwMKfm9pVddyaiJnF40YAeZgYU9AupP4coO
UQ2uVaxJ99saJq2eFwpFX0hmE8G+lZLuWfVDbqjr/askBGLyAmaVSeekS0+ASIal
zhb4Zb65g2YsdvHnBLIhgIsMf8vyiBN9bah3s5//LDzaNZmMTIIyYfGR5ZPKMmig
B3R12QRsKdhr5oMO9Ta5CtXVxKR0URo1Yz4xsATC4HPFS5RBmn7crdeuWAtqpUYc
LL06VxGX8hO63zToeXod
-----END CERTIFICATE-----
