Certificate:
    Data:
        Version: 3 (0x2)
        Serial Number: 11042563100186 (0xa0b0c0d0e1a)
    Signature Algorithm: sha256WithRSAEncryption
        Issuer: CN=BANGALORECA_CA, C=IN, O=CITRIX, OU=ANG, ST=KA/emailAddress=BANGALORECA_CA@BANGALORECA_mail.com
        Validity
            Not Before: Jul  8 04:31:23 2016 GMT
            Not After : Jul  6 04:31:23 2026 GMT
        Subject: ST=KA, C=IN, CN=112_BANGALORECA_server/emailAddress=112_BANGALORECA@test_ca.com, O=CITRIX
        Subject Public Key Info:
            Public Key Algorithm: rsaEncryption
                Public-Key: (2048 bit)
                Modulus:
                    00:cc:ec:5f:cf:23:05:b8:d5:e8:38:7e:09:91:ca:
                    34:66:63:1e:61:71:7a:2a:6a:84:31:c4:72:a4:aa:
                    1b:ce:03:cd:ed:1d:d8:d7:10:5e:25:76:a5:38:88:
                    d9:eb:8e:0c:62:72:2a:dc:e4:7e:f8:22:37:92:69:
                    c8:12:33:85:54:57:9b:04:d6:cf:26:00:27:c7:32:
                    af:97:1a:87:6d:4b:90:d7:0d:56:e4:51:9b:b1:d7:
                    df:88:49:ec:12:21:5f:0c:f7:8d:8b:00:a9:9c:1f:
                    0a:3b:95:34:e5:fe:81:08:94:9b:89:bf:e4:2e:44:
                    18:64:d5:5d:3f:7c:36:59:4c:67:37:5b:b3:bd:79:
                    33:bd:bf:5d:df:3b:60:76:ef:c3:ce:1e:e8:10:20:
                    29:57:ec:19:0b:9c:95:3b:05:55:14:ee:36:e2:12:
                    54:7f:5e:19:f4:2e:3f:d6:4f:63:e1:9f:48:4e:07:
                    cc:dc:ab:d7:b4:59:cd:a5:68:34:09:c9:64:1f:f1:
                    06:20:e1:92:28:89:f6:8d:ef:28:1c:20:14:c2:1e:
                    70:e9:6c:75:7e:6c:46:f2:58:c3:89:75:e5:ef:1c:
                    84:7f:15:87:d5:5c:34:ba:a9:e5:34:c8:6c:32:be:
                    7f:9f:6e:df:9b:d0:a5:78:ad:e5:9d:e5:6d:b7:ff:
                    21:9f
                Exponent: 65537 (0x10001)
        X509v3 extensions:
            Netscape Cert Type: 
                SSL Server
            X509v3 Subject Key Identifier: 
                D2:0C:DD:A9:51:FB:6C:64:B2:9F:8D:74:35:A8:59:91:A9:77:C2:FA
            X509v3 Authority Key Identifier: 
                keyid:3B:D6:D1:53:18:87:05:22:BB:EE:C3:0F:F5:CE:0F:6B:A2:93:A7:B8
                DirName:/CN=BANGALORECA_CA/C=IN/O=CITRIX/OU=ANG/ST=KA/emailAddress=BANGALORECA_CA@BANGALORECA_mail.com
                serial:A1:AC:B4:DA:46:53:58:40

            Authority Information Access: 
                OCSP - URI:http://BANGALORECA_two.ocsptest.com/responderpath

    Signature Algorithm: sha256WithRSAEncryption
         73:f1:a5:0e:f5:48:df:a7:b1:31:1f:86:ec:de:b1:32:06:2f:
         ba:08:8a:8f:2b:e4:83:44:73:43:a7:61:78:35:24:1c:4d:ee:
         a1:12:2f:b8:4f:91:74:36:fc:32:40:c7:4f:14:0d:10:33:f0:
         51:16:86:e0:03:4a:d1:62:6a:61:bb:1c:7a:37:d8:15:b7:6d:
         a2:34:5c:c2:94:a8:a2:04:01:54:02:9d:fa:47:0d:ea:52:10:
         e1:c9:11:9f:fe:91:de:63:fe:42:d3:98:3b:7d:e5:35:d7:4e:
         63:cb:34:e9:71:0d:44:ad:7d:41:e9:b6:6a:b6:39:dc:cd:85:
         e5:77:84:fb:b7:58:ec:ed:08:00:0a:00:70:fb:9b:db:18:6b:
         70:54:38:29:1a:0e:8b:a4:65:c6:be:3a:20:e1:8b:e3:d5:ac:
         19:dd:a8:4b:04:01:dd:0a:c5:9b:73:bd:3a:30:cf:36:a4:95:
         fd:6d:18:00:68:ef:47:91:40:96:78:18:b0:af:44:cd:bc:2e:
         1a:10:34:63:ad:8c:4c:83:6f:31:ad:04:10:f9:5d:6b:09:2e:
         1a:df:89:2f:23:ff:91:bb:86:43:9f:f2:72:36:63:c3:5d:35:
         2f:08:02:a7:09:07:25:f7:c5:48:58:2a:9d:c0:db:83:bb:b2:
         71:56:38:5a
-----BEGIN CERTIFICATE-----
MIIExDCCA6ygAwIBAgIGCgsMDQ4aMA0GCSqGSIb3DQEBCwUAMIGGMRcwFQYDVQQD
FA5CQU5HQUxPUkVDQV9DQTELMAkGA1UEBhMCSU4xDzANBgNVBAoTBkNJVFJJWDEM
MAoGA1UECxMDQU5HMQswCQYDVQQIEwJLQTEyMDAGCSqGSIb3DQEJARYjQkFOR0FM
T1JFQ0FfQ0FAQkFOR0FMT1JFQ0FfbWFpbC5jb20wHhcNMTYwNzA4MDQzMTIzWhcN
MjYwNzA2MDQzMTIzWjB4MQswCQYDVQQIEwJLQTELMAkGA1UEBhMCSU4xHzAdBgNV
BAMUFjExMl9CQU5HQUxPUkVDQV9zZXJ2ZXIxKjAoBgkqhkiG9w0BCQEWGzExMl9C
QU5HQUxPUkVDQUB0ZXN0X2NhLmNvbTEPMA0GA1UEChMGQ0lUUklYMIIBIjANBgkq
hkiG9w0BAQEFAAOCAQ8AMIIBCgKCAQEAzOxfzyMFuNXoOH4Jkco0ZmMeYXF6KmqE
McRypKobzgPN7R3Y1xBeJXalOIjZ644MYnIq3OR++CI3kmnIEjOFVFebBNbPJgAn
xzKvlxqHbUuQ1w1W5FGbsdffiEnsEiFfDPeNiwCpnB8KO5U05f6BCJSbib/kLkQY
ZNVdP3w2WUxnN1uzvXkzvb9d3ztgdu/Dzh7oECApV+wZC5yVOwVVFO424hJUf14Z
9C4/1k9j4Z9ITgfM3KvXtFnNpWg0CclkH/EGIOGSKIn2je8oHCAUwh5w6Wx1fmxG
8ljDiXXl7xyEfxWH1Vw0uqnlNMhsMr5/n27fm9CleK3lneVtt/8hnwIDAQABo4IB
QzCCAT8wEQYJYIZIAYb4QgEBBAQDAgZAMB0GA1UdDgQWBBTSDN2pUftsZLKfjXQ1
qFmRqXfC+jCBuwYDVR0jBIGzMIGwgBQ71tFTGIcFIrvuww/1zg9ropOnuKGBjKSB
iTCBhjEXMBUGA1UEAxQOQkFOR0FMT1JFQ0FfQ0ExCzAJBgNVBAYTAklOMQ8wDQYD
VQQKEwZDSVRSSVgxDDAKBgNVBAsTA0FORzELMAkGA1UECBMCS0ExMjAwBgkqhkiG
9w0BCQEWI0JBTkdBTE9SRUNBX0NBQEJBTkdBTE9SRUNBX21haWwuY29tggkAoay0
2kZTWEAwTQYIKwYBBQUHAQEEQTA/MD0GCCsGAQUFBzABhjFodHRwOi8vQkFOR0FM
T1JFQ0FfdHdvLm9jc3B0ZXN0LmNvbS9yZXNwb25kZXJwYXRoMA0GCSqGSIb3DQEB
CwUAA4IBAQBz8aUO9Ujfp7ExH4bs3rEyBi+6CIqPK+SDRHNDp2F4NSQcTe6hEi+4
T5F0NvwyQMdPFA0QM/BRFobgA0rRYmphuxx6N9gVt22iNFzClKiiBAFUAp36Rw3q
UhDhyRGf/pHeY/5C05g7feU1105jyzTpcQ1ErX1B6bZqtjnczYXld4T7t1js7QgA
CgBw+5vbGGtwVDgpGg6LpGXGvjog4Yvj1awZ3ahLBAHdCsWbc706MM82pJX9bRgA
aO9HkUCWeBiwr0TNvC4aEDRjrYxMg28xrQQQ+V1rCS4a34kvI/+Ru4ZDn/JyNmPD
XTUvCAKnCQcl98VIWCqdwNuDu7JxVjha
-----END CERTIFICATE-----
