Certificate:
    Data:
        Version: 3 (0x2)
        Serial Number: 11042563100187 (0xa0b0c0d0e1b)
    Signature Algorithm: sha256WithRSAEncryption
        Issuer: CN=CALCUTTACA_CA, C=IN, O=CITRIX, OU=ANG, ST=KA/emailAddress=CALCUTTACA_CA@CALCUTTACA_mail.com
        Validity
            Not Before: Jul  8 04:33:06 2016 GMT
            Not After : Jul  6 04:33:06 2026 GMT
        Subject: ST=KA, C=IN, CN=113_CALCUTTACA_server/emailAddress=113_CALCUTTACA@test_ca.com, O=CITRIX
        Subject Public Key Info:
            Public Key Algorithm: rsaEncryption
                Public-Key: (2048 bit)
                Modulus:
                    00:d6:0b:43:56:91:cd:ac:90:da:b3:14:ea:f5:1e:
                    d8:db:63:37:08:be:37:17:71:c1:e0:9e:b6:79:99:
                    c6:1c:1b:7c:95:1c:d7:4e:9f:1a:9e:79:16:c4:af:
                    c3:41:13:8e:6f:38:a0:0b:2e:9c:95:1b:bf:8e:96:
                    bc:59:1c:c0:99:e8:77:f4:df:3e:73:3a:ce:92:53:
                    40:af:aa:73:b3:2e:56:47:f5:47:01:42:7b:82:c0:
                    bf:34:7d:6f:cd:98:5d:c9:04:9b:06:08:2a:90:01:
                    ee:67:63:8c:0e:fd:d6:12:e8:fd:ee:18:28:3c:99:
                    88:9b:b7:38:3d:de:c3:8d:5d:64:30:5e:dc:7f:3b:
                    5c:90:71:62:40:27:b1:38:36:fc:bd:b5:82:c7:26:
                    d6:18:57:ed:3c:4f:30:d2:80:0c:5a:18:14:70:4d:
                    84:4c:e9:c2:fb:66:7e:20:7b:8b:6d:4e:13:c9:df:
                    bf:8f:37:fa:2b:a6:31:3e:c9:ca:ab:f1:18:b4:d5:
                    c3:1e:1f:2f:74:83:41:5e:1a:41:d9:94:0d:d5:a0:
                    95:d9:07:61:3c:a6:de:01:21:d3:c0:6b:79:0b:c4:
                    cb:f2:3d:5d:dd:d9:d4:44:fb:8b:12:93:89:de:11:
                    44:76:cd:8c:5a:71:87:55:15:d7:2c:3e:48:62:08:
                    e7:15
                Exponent: 65537 (0x10001)
        X509v3 extensions:
            Netscape Cert Type: 
                SSL Server
            X509v3 Subject Key Identifier: 
                D9:2D:54:9B:F0:0A:96:4F:B8:D3:B1:E6:64:72:16:8E:C5:1E:13:B5
            X509v3 Authority Key Identifier: 
                keyid:37:2E:7B:27:46:4B:CF:47:10:AC:2B:2E:BA:D0:F3:66:75:EB:52:75
                DirName:/CN=CALCUTTACA_CA/C=IN/O=CITRIX/OU=ANG/ST=KA/emailAddress=CALCUTTACA_CA@CALCUTTACA_mail.com
                serial:A5:C6:47:0E:E6:06:37:18

            Authority Information Access: 
                OCSP - URI:http://CALCUTTACA_two.ocsptest.com/responderpath

    Signature Algorithm: sha256WithRSAEncryption
         bc:f3:cd:1c:d8:73:07:75:66:f2:cb:60:b9:0b:4c:ec:64:c2:
         d6:94:a9:97:67:6c:92:6a:2d:78:d0:46:46:b8:fa:c9:b6:2c:
         ca:50:9f:58:47:09:74:a7:de:98:eb:1c:d6:2a:ef:dd:03:d2:
         23:db:91:68:54:be:00:11:bf:c0:17:b9:45:5b:11:c6:42:b9:
         bb:5a:aa:50:e9:e7:bb:6b:1e:d6:1e:9d:ca:e4:58:03:c9:37:
         1e:92:a1:3c:d6:ce:af:d6:c0:bf:d6:48:13:09:55:83:8b:2d:
         2d:2f:97:62:76:0a:5f:f2:55:c2:a8:12:b6:1b:ff:ce:cc:14:
         a9:4f:ad:7e:dc:bf:79:42:6c:49:3c:70:10:52:95:de:d4:6d:
         e9:7f:eb:c9:74:28:f6:42:86:ab:0f:62:a2:68:81:70:bc:ad:
         f3:95:6e:d0:05:c7:fc:80:23:19:ad:b2:69:97:3f:29:dc:67:
         9b:d2:1f:da:b2:57:1b:74:e4:04:56:04:4f:be:1c:6b:87:e4:
         9a:7d:ed:42:62:c7:a8:40:5d:15:32:e9:8a:0a:87:5a:33:81:
         72:e9:61:36:65:71:46:53:20:08:67:2f:07:d4:ab:6b:1d:59:
         97:b6:a5:f4:53:d6:1b:ab:ea:c6:66:02:e4:3d:e6:95:f2:26:
         34:84:5d:3d
-----BEGIN CERTIFICATE-----
MIIEuzCCA6OgAwIBAgIGCgsMDQ4bMA0GCSqGSIb3DQEBCwUAMIGDMRYwFAYDVQQD
FA1DQUxDVVRUQUNBX0NBMQswCQYDVQQGEwJJTjEPMA0GA1UEChMGQ0lUUklYMQww
CgYDVQQLEwNBTkcxCzAJBgNVBAgTAktBMTAwLgYJKoZIhvcNAQkBFiFDQUxDVVRU
QUNBX0NBQENBTENVVFRBQ0FfbWFpbC5jb20wHhcNMTYwNzA4MDQzMzA2WhcNMjYw
NzA2MDQzMzA2WjB2MQswCQYDVQQIEwJLQTELMAkGA1UEBhMCSU4xHjAcBgNVBAMU
FTExM19DQUxDVVRUQUNBX3NlcnZlcjEpMCcGCSqGSIb3DQEJARYaMTEzX0NBTENV
VFRBQ0FAdGVzdF9jYS5jb20xDzANBgNVBAoTBkNJVFJJWDCCASIwDQYJKoZIhvcN
AQEBBQADggEPADCCAQoCggEBANYLQ1aRzayQ2rMU6vUe2NtjNwi+NxdxweCetnmZ
xhwbfJUc106fGp55FsSvw0ETjm84oAsunJUbv46WvFkcwJnod/TfPnM6zpJTQK+q
c7MuVkf1RwFCe4LAvzR9b82YXckEmwYIKpAB7mdjjA791hLo/e4YKDyZiJu3OD3e
w41dZDBe3H87XJBxYkAnsTg2/L21gscm1hhX7TxPMNKADFoYFHBNhEzpwvtmfiB7
i21OE8nfv483+iumMT7JyqvxGLTVwx4fL3SDQV4aQdmUDdWgldkHYTym3gEh08Br
eQvEy/I9Xd3Z1ET7ixKTid4RRHbNjFpxh1UV1yw+SGII5xUCAwEAAaOCAT8wggE7
MBEGCWCGSAGG+EIBAQQEAwIGQDAdBgNVHQ4EFgQU2S1Um/AKlk+407HmZHIWjsUe
E7UwgbgGA1UdIwSBsDCBrYAUNy57J0ZLz0cQrCsuutDzZnXrUnWhgYmkgYYwgYMx
FjAUBgNVBAMUDUNBTENVVFRBQ0FfQ0ExCzAJBgNVBAYTAklOMQ8wDQYDVQQKEwZD
SVRSSVgxDDAKBgNVBAsTA0FORzELMAkGA1UECBMCS0ExMDAuBgkqhkiG9w0BCQEW
IUNBTENVVFRBQ0FfQ0FAQ0FMQ1VUVEFDQV9tYWlsLmNvbYIJAKXGRw7mBjcYMEwG
CCsGAQUFBwEBBEAwPjA8BggrBgEFBQcwAYYwaHR0cDovL0NBTENVVFRBQ0FfdHdv
Lm9jc3B0ZXN0LmNvbS9yZXNwb25kZXJwYXRoMA0GCSqGSIb3DQEBCwUAA4IBAQC8
880c2HMHdWbyy2C5C0zsZMLWlKmXZ2ySai140EZGuPrJtizKUJ9YRwl0p96Y6xzW
Ku/dA9Ij25FoVL4AEb/AF7lFWxHGQrm7WqpQ6ee7ax7WHp3K5FgDyTcekqE81s6v
1sC/1kgTCVWDiy0tL5didgpf8lXCqBK2G//OzBSpT61+3L95QmxJPHAQUpXe1G3p
f+vJdCj2QoarD2KiaIFwvK3zlW7QBcf8gCMZrbJplz8p3Geb0h/aslcbdOQEVgRP
vhxrh+Safe1CYseoQF0VMumKCodaM4Fy6WE2ZXFGUyAIZy8H1KtrHVmXtqX0U9Yb
q+rGZgLkPeaV8iY0hF09
-----END CERTIFICATE-----
