Certificate:
    Data:
        Version: 3 (0x2)
        Serial Number: 11042563100187 (0xa0b0c0d0e1b)
    Signature Algorithm: sha256WithRSAEncryption
        Issuer: CN=BHOPALCA_CA, C=IN, O=CITRIX, OU=ANG, ST=KA/emailAddress=BHOPALCA_CA@BHOPALCA_mail.com
        Validity
            Not Before: Jul  8 04:32:35 2016 GMT
            Not After : Jul  6 04:32:35 2026 GMT
        Subject: ST=KA, C=IN, CN=113_BHOPALCA_server/emailAddress=113_BHOPALCA@test_ca.com, O=CITRIX
        Subject Public Key Info:
            Public Key Algorithm: rsaEncryption
                Public-Key: (2048 bit)
                Modulus:
                    00:ca:2f:ea:fc:ce:d2:e3:55:b0:d3:48:90:45:cd:
                    cb:36:5e:21:2a:75:e1:5c:f6:4f:1e:c3:78:19:7c:
                    7d:11:03:99:6b:75:bf:22:b2:08:dd:9b:63:df:40:
                    52:92:2e:d7:81:ac:66:89:08:50:da:14:c8:1f:c2:
                    4b:5c:03:04:a5:03:69:9d:3d:2c:72:be:93:54:08:
                    c6:64:fe:70:51:53:31:c9:16:35:ed:0f:21:a0:5e:
                    09:a6:66:3a:10:be:ef:1f:be:4b:6b:b0:ee:84:fc:
                    08:02:fe:ee:b7:23:5f:4f:58:c1:cf:f2:45:da:a0:
                    28:a6:a1:95:73:28:62:9e:d9:e5:6f:e2:74:35:14:
                    6f:ac:91:df:fe:95:17:90:d4:58:f0:21:1b:ac:d9:
                    1f:0e:24:d2:ee:b4:4b:70:04:49:f6:6f:0a:bf:70:
                    a0:b7:a2:ad:25:df:3c:57:d5:3d:62:2b:fe:5a:9e:
                    89:69:ab:8c:b3:86:55:96:7f:e1:2a:ae:88:3d:70:
                    7b:46:9c:c6:04:8f:8f:d5:91:d1:91:1a:ee:30:10:
                    20:fc:00:66:68:ff:e0:0b:9c:e8:fd:11:30:96:2d:
                    d0:41:0c:23:63:67:a1:b0:f6:f9:85:49:08:fe:9c:
                    6f:75:4e:2d:51:48:1d:e6:59:ba:58:74:03:47:2c:
                    87:6f
                Exponent: 65537 (0x10001)
        X509v3 extensions:
            Netscape Cert Type: 
                SSL Server
            X509v3 Subject Key Identifier: 
                90:AC:BA:2D:7D:69:E9:1C:5B:60:F6:47:D1:7A:B6:1B:A0:6F:04:9D
            X509v3 Authority Key Identifier: 
                keyid:A6:66:0E:59:0F:3C:5C:11:35:B2:B3:99:59:A9:D3:A6:B1:5E:95:D2
                DirName:/CN=BHOPALCA_CA/C=IN/O=CITRIX/OU=ANG/ST=KA/emailAddress=BHOPALCA_CA@BHOPALCA_mail.com
                serial:BE:89:55:F3:65:28:17:9A

            Authority Information Access: 
                OCSP - URI:http://BHOPALCA_two.ocsptest.com/responderpath

    Signature Algorithm: sha256WithRSAEncryption
         1c:b9:ad:ac:4b:2e:9d:c6:9b:46:71:4c:5a:bd:86:92:52:ea:
         18:23:63:fe:dd:24:48:dd:b3:9c:81:26:9f:4c:d0:7f:80:29:
         e6:0a:b6:c6:22:bc:58:47:8a:2b:06:60:7b:3f:10:04:93:71:
         b7:79:e5:43:6f:d9:a9:b3:96:04:ce:71:38:8c:8b:6f:21:a9:
         28:5b:d5:9a:a6:35:c3:f2:90:74:4a:5b:2c:ac:35:1d:bc:28:
         ba:34:a2:1b:3b:48:76:2d:c2:89:0f:95:4a:12:a8:db:2f:a1:
         2b:ab:c2:3d:58:ab:aa:cd:5d:d9:d0:17:9a:65:b6:2f:3f:db:
         64:96:dd:e0:e7:dd:47:e9:7c:9b:21:db:be:56:ce:84:85:cd:
         a3:14:db:32:77:92:c6:24:02:1c:6b:5a:16:57:87:50:a0:05:
         0f:9c:e8:08:37:a2:5a:50:58:fb:fa:de:e9:96:32:f8:00:9e:
         5c:d1:59:02:cf:98:60:7a:83:0b:1e:19:d4:6d:7a:6b:fa:1b:
         d5:84:6e:40:32:ab:4d:83:d5:49:34:b5:84:15:6b:37:c4:4e:
         f4:87:4a:98:12:3e:1c:9c:ed:2f:70:40:66:40:58:1b:bd:d3:
         24:8c:3c:94:f5:9b:10:52:74:50:35:32:bf:6b:4f:fb:07:56:
         a5:b0:38:c0
-----BEGIN CERTIFICATE-----
MIIEpjCCA46gAwIBAgIGCgsMDQ4bMA0GCSqGSIb3DQEBCwUAMH0xFDASBgNVBAMU
C0JIT1BBTENBX0NBMQswCQYDVQQGEwJJTjEPMA0GA1UEChMGQ0lUUklYMQwwCgYD
VQQLEwNBTkcxCzAJBgNVBAgTAktBMSwwKgYJKoZIhvcNAQkBFh1CSE9QQUxDQV9D
QUBCSE9QQUxDQV9tYWlsLmNvbTAeFw0xNjA3MDgwNDMyMzVaFw0yNjA3MDYwNDMy
MzVaMHIxCzAJBgNVBAgTAktBMQswCQYDVQQGEwJJTjEcMBoGA1UEAxQTMTEzX0JI
T1BBTENBX3NlcnZlcjEnMCUGCSqGSIb3DQEJARYYMTEzX0JIT1BBTENBQHRlc3Rf
Y2EuY29tMQ8wDQYDVQQKEwZDSVRSSVgwggEiMA0GCSqGSIb3DQEBAQUAA4IBDwAw
ggEKAoIBAQDKL+r8ztLjVbDTSJBFzcs2XiEqdeFc9k8ew3gZfH0RA5lrdb8isgjd
m2PfQFKSLteBrGaJCFDaFMgfwktcAwSlA2mdPSxyvpNUCMZk/nBRUzHJFjXtDyGg
XgmmZjoQvu8fvktrsO6E/AgC/u63I19PWMHP8kXaoCimoZVzKGKe2eVv4nQ1FG+s
kd/+lReQ1FjwIRus2R8OJNLutEtwBEn2bwq/cKC3oq0l3zxX1T1iK/5anolpq4yz
hlWWf+Eqrog9cHtGnMYEj4/VkdGRGu4wECD8AGZo/+ALnOj9ETCWLdBBDCNjZ6Gw
9vmFSQj+nG91Ti1RSB3mWbpYdANHLIdvAgMBAAGjggE1MIIBMTARBglghkgBhvhC
AQEEBAMCBkAwHQYDVR0OBBYEFJCsui19aekcW2D2R9F6thugbwSdMIGwBgNVHSME
gagwgaWAFKZmDlkPPFwRNbKzmVmp06axXpXSoYGBpH8wfTEUMBIGA1UEAxQLQkhP
UEFMQ0FfQ0ExCzAJBgNVBAYTAklOMQ8wDQYDVQQKEwZDSVRSSVgxDDAKBgNVBAsT
A0FORzELMAkGA1UECBMCS0ExLDAqBgkqhkiG9w0BCQEWHUJIT1BBTENBX0NBQEJI
T1BBTENBX21haWwuY29tggkAvolV82UoF5owSgYIKwYBBQUHAQEEPjA8MDoGCCsG
AQUFBzABhi5odHRwOi8vQkhPUEFMQ0FfdHdvLm9jc3B0ZXN0LmNvbS9yZXNwb25k
ZXJwYXRoMA0GCSqGSIb3DQEBCwUAA4IBAQAcua2sSy6dxptGcUxavYaSUuoYI2P+
3SRI3bOcgSafTNB/gCnmCrbGIrxYR4orBmB7PxAEk3G3eeVDb9mps5YEznE4jItv
IakoW9WapjXD8pB0SlssrDUdvCi6NKIbO0h2LcKJD5VKEqjbL6Erq8I9WKuqzV3Z
0BeaZbYvP9tklt3g591H6XybIdu+Vs6Ehc2jFNsyd5LGJAIca1oWV4dQoAUPnOgI
N6JaUFj7+t7pljL4AJ5c0VkCz5hgeoMLHhnUbXpr+hvVhG5AMqtNg9VJNLWEFWs3
xE70h0qYEj4cnO0vcEBmQFgbvdMkjDyU9ZsQUnRQNTK/a0/7B1alsDjA
-----END CERTIFICATE-----
