Certificate:
    Data:
        Version: 3 (0x2)
        Serial Number: 11042563100187 (0xa0b0c0d0e1b)
    Signature Algorithm: sha256WithRSAEncryption
        Issuer: CN=KOCHICA_CA, C=IN, O=CITRIX, OU=ANG, ST=KA/emailAddress=KOCHICA_CA@KOCHICA_mail.com
        Validity
            Not Before: Jul  8 04:35:20 2016 GMT
            Not After : Jul  6 04:35:20 2026 GMT
        Subject: ST=KA, C=IN, CN=113_KOCHICA_server/emailAddress=113_KOCHICA@test_ca.com, O=CITRIX
        Subject Public Key Info:
            Public Key Algorithm: rsaEncryption
                Public-Key: (2048 bit)
                Modulus:
                    00:bc:d3:7c:d5:59:51:ed:7b:35:9c:00:2a:37:2c:
                    ac:d3:7e:8b:51:c1:08:3e:3c:da:4e:2a:44:65:e7:
                    11:d9:3f:dd:67:40:57:dc:4b:46:27:5b:26:73:3f:
                    e0:41:80:d2:78:1f:04:35:b2:34:28:0b:51:18:36:
                    f6:65:b4:1e:56:e6:a2:5b:45:d0:ce:27:23:d1:4d:
                    db:0f:33:ad:71:9f:67:ea:2c:af:27:dc:2d:dc:46:
                    3a:b0:17:5f:b6:cd:02:fc:72:c8:fd:c4:73:f0:2e:
                    4c:54:25:c4:20:c6:9d:57:a5:c9:f0:c8:12:cb:0d:
                    bf:b4:ef:b2:7a:b1:ec:d5:38:51:2a:82:fe:ea:00:
                    cc:89:87:52:e9:ce:6c:49:5a:06:2f:60:63:ac:4d:
                    0c:5a:14:9a:1d:ef:75:44:4a:e1:da:80:89:31:a4:
                    19:13:5f:70:f7:69:c3:8c:6b:84:e4:7a:b5:2d:03:
                    94:26:fc:58:df:d8:b5:93:f2:8d:6d:b1:fb:c7:2c:
                    1f:be:59:80:84:1e:df:02:01:78:6e:10:5a:15:d6:
                    91:40:91:24:95:4e:0c:34:35:24:c2:89:38:3d:07:
                    c5:80:c0:ce:54:2a:1f:0f:f8:a3:42:2a:b8:9d:02:
                    6a:7e:6f:51:97:cc:19:cc:71:13:de:9e:cd:da:88:
                    c9:cb
                Exponent: 65537 (0x10001)
        X509v3 extensions:
            Netscape Cert Type: 
                SSL Server
            X509v3 Subject Key Identifier: 
                11:03:6E:96:30:4C:F3:F8:83:DA:6A:CD:26:19:5C:91:36:20:5F:5E
            X509v3 Authority Key Identifier: 
                keyid:BD:BB:95:76:5C:F9:2D:21:29:42:22:FD:91:AF:B8:39:24:AA:7E:37
                DirName:/CN=KOCHICA_CA/C=IN/O=CITRIX/OU=ANG/ST=KA/emailAddress=KOCHICA_CA@KOCHICA_mail.com
                serial:E1:10:ED:B2:3C:3D:E3:71

            Authority Information Access: 
                OCSP - URI:http://KOCHICA_two.ocsptest.com/responderpath

    Signature Algorithm: sha256WithRSAEncryption
         ba:d4:ad:1f:6d:73:05:d5:c4:59:31:3a:e6:7c:9c:da:14:f0:
         0b:59:d3:c6:76:51:2a:8a:1e:73:fb:b2:10:8f:f2:ef:b6:f0:
         07:b6:a7:b5:9c:ec:5c:6a:70:9d:ce:ce:c0:39:54:b8:45:06:
         7f:41:93:aa:41:1e:74:ef:a6:e9:9e:cf:d3:f9:4b:1e:96:63:
         02:7c:f7:fc:b2:c4:c2:c3:bd:1d:aa:e0:7c:d3:56:53:cd:7a:
         f4:f8:84:87:94:3b:9a:e0:6f:3b:a5:8c:ba:9e:17:46:90:d1:
         3f:cb:33:33:7a:20:74:4f:52:2e:ab:28:4f:6a:63:75:08:f0:
         16:6a:fd:36:c7:2b:6d:80:46:73:89:a6:2f:af:e8:89:92:87:
         8a:f4:9e:55:5d:7c:c7:57:a4:ae:bf:ff:70:4d:d7:0c:a0:80:
         a1:bf:f5:0e:66:fa:fa:ad:75:7a:41:08:62:8b:fd:8c:fe:e5:
         f9:44:f6:9b:64:96:f1:53:33:45:cb:94:82:b3:d5:7a:e3:3a:
         6d:55:b9:19:8c:4b:93:1d:c3:4a:3f:db:6e:1e:5c:34:2c:92:
         17:e7:bb:23:fa:b8:47:35:b5:2c:41:c0:4e:7c:10:32:9e:0e:
         2d:3b:92:22:14:97:d9:4b:5a:44:bd:75:84:34:ed:90:1f:c1:
         61:48:56:ef
-----BEGIN CERTIFICATE-----
MIIEnDCCA4SgAwIBAgIGCgsMDQ4bMA0GCSqGSIb3DQEBCwUAMHoxEzARBgNVBAMU
CktPQ0hJQ0FfQ0ExCzAJBgNVBAYTAklOMQ8wDQYDVQQKEwZDSVRSSVgxDDAKBgNV
BAsTA0FORzELMAkGA1UECBMCS0ExKjAoBgkqhkiG9w0BCQEWG0tPQ0hJQ0FfQ0FA
S09DSElDQV9tYWlsLmNvbTAeFw0xNjA3MDgwNDM1MjBaFw0yNjA3MDYwNDM1MjBa
MHAxCzAJBgNVBAgTAktBMQswCQYDVQQGEwJJTjEbMBkGA1UEAxQSMTEzX0tPQ0hJ
Q0Ffc2VydmVyMSYwJAYJKoZIhvcNAQkBFhcxMTNfS09DSElDQUB0ZXN0X2NhLmNv
bTEPMA0GA1UEChMGQ0lUUklYMIIBIjANBgkqhkiG9w0BAQEFAAOCAQ8AMIIBCgKC
AQEAvNN81VlR7Xs1nAAqNyys036LUcEIPjzaTipEZecR2T/dZ0BX3EtGJ1smcz/g
QYDSeB8ENbI0KAtRGDb2ZbQeVuaiW0XQzicj0U3bDzOtcZ9n6iyvJ9wt3EY6sBdf
ts0C/HLI/cRz8C5MVCXEIMadV6XJ8MgSyw2/tO+yerHs1ThRKoL+6gDMiYdS6c5s
SVoGL2BjrE0MWhSaHe91RErh2oCJMaQZE19w92nDjGuE5Hq1LQOUJvxY39i1k/KN
bbH7xywfvlmAhB7fAgF4bhBaFdaRQJEklU4MNDUkwok4PQfFgMDOVCofD/ijQiq4
nQJqfm9Rl8wZzHET3p7N2ojJywIDAQABo4IBMDCCASwwEQYJYIZIAYb4QgEBBAQD
AgZAMB0GA1UdDgQWBBQRA26WMEzz+IPaas0mGVyRNiBfXjCBrAYDVR0jBIGkMIGh
gBS9u5V2XPktISlCIv2Rr7g5JKp+N6F+pHwwejETMBEGA1UEAxQKS09DSElDQV9D
QTELMAkGA1UEBhMCSU4xDzANBgNVBAoTBkNJVFJJWDEMMAoGA1UECxMDQU5HMQsw
CQYDVQQIEwJLQTEqMCgGCSqGSIb3DQEJARYbS09DSElDQV9DQUBLT0NISUNBX21h
aWwuY29tggkA4RDtsjw943EwSQYIKwYBBQUHAQEEPTA7MDkGCCsGAQUFBzABhi1o
dHRwOi8vS09DSElDQV90d28ub2NzcHRlc3QuY29tL3Jlc3BvbmRlcnBhdGgwDQYJ
KoZIhvcNAQELBQADggEBALrUrR9tcwXVxFkxOuZ8nNoU8AtZ08Z2USqKHnP7shCP
8u+28Ae2p7Wc7FxqcJ3OzsA5VLhFBn9Bk6pBHnTvpumez9P5Sx6WYwJ89/yyxMLD
vR2q4HzTVlPNevT4hIeUO5rgbzuljLqeF0aQ0T/LMzN6IHRPUi6rKE9qY3UI8BZq
/TbHK22ARnOJpi+v6ImSh4r0nlVdfMdXpK6//3BN1wyggKG/9Q5m+vqtdXpBCGKL
/Yz+5flE9ptklvFTM0XLlIKz1XrjOm1VuRmMS5Mdw0o/224eXDQskhfnuyP6uEc1
tSxBwE58EDKeDi07kiIUl9lLWkS9dYQ07ZAfwWFIVu8=
-----END CERTIFICATE-----
