Certificate:
    Data:
        Version: 3 (0x2)
        Serial Number: 11042563100187 (0xa0b0c0d0e1b)
    Signature Algorithm: sha256WithRSAEncryption
        Issuer: CN=GOACA_CA, C=IN, O=CITRIX, OU=ANG, ST=KA/emailAddress=GOACA_CA@GOACA_mail.com
        Validity
            Not Before: Jul  8 04:34:56 2016 GMT
            Not After : Jul  6 04:34:56 2026 GMT
        Subject: ST=KA, C=IN, CN=113_GOACA_server/emailAddress=113_GOACA@test_ca.com, O=CITRIX
        Subject Public Key Info:
            Public Key Algorithm: rsaEncryption
                Public-Key: (2048 bit)
                Modulus:
                    00:ae:cc:16:44:57:a4:39:b8:a8:8d:3b:bb:9f:24:
                    20:c0:a6:84:9c:84:05:91:85:af:22:57:da:6e:37:
                    b3:e8:d4:87:eb:9e:db:50:89:70:d7:c0:9e:2b:91:
                    f5:58:a6:c2:89:c0:0f:01:bb:13:51:54:47:6c:3d:
                    64:17:56:00:ac:4e:b8:b1:53:e9:d0:83:15:e8:cb:
                    29:36:f7:18:0c:55:84:c2:6e:1b:80:73:fc:d0:23:
                    4d:f1:8a:13:e4:99:db:7d:d0:0a:5c:1e:44:ce:ff:
                    03:0d:43:4f:25:59:66:b0:3e:d3:e4:af:70:40:62:
                    ff:dc:51:54:2f:ad:4d:d4:ed:c3:86:5a:25:01:d2:
                    e2:31:ab:12:b0:6f:e5:24:8d:14:7b:98:3d:79:a9:
                    30:76:b2:20:c1:8e:64:1f:ae:da:8f:67:e8:5f:f8:
                    2e:c2:6a:9f:a2:37:26:2b:a4:ab:0a:2a:1b:32:26:
                    6a:dd:27:60:d6:8c:66:e8:68:c8:82:66:31:3d:61:
                    b9:e0:30:ce:fc:10:18:93:ea:f8:9d:54:d8:78:12:
                    54:bc:97:c6:34:78:b0:88:8f:e0:fb:b1:4a:71:96:
                    2d:3d:60:70:37:dd:32:82:b2:94:20:2e:5b:d0:c8:
                    1d:bd:10:0a:1e:79:94:e0:95:87:7e:94:36:3f:70:
                    04:cf
                Exponent: 65537 (0x10001)
        X509v3 extensions:
            Netscape Cert Type: 
                SSL Server
            X509v3 Subject Key Identifier: 
                98:15:D1:86:FA:EB:78:15:49:53:C6:A9:7A:12:DB:86:1F:04:51:00
            X509v3 Authority Key Identifier: 
                keyid:81:03:00:D4:DC:70:D9:A7:03:08:1E:DC:9B:4C:AC:E6:59:CD:39:68
                DirName:/CN=GOACA_CA/C=IN/O=CITRIX/OU=ANG/ST=KA/emailAddress=GOACA_CA@GOACA_mail.com
                serial:FC:8B:0A:90:01:17:5F:1C

            Authority Information Access: 
                OCSP - URI:http://GOACA_two.ocsptest.com/responderpath

    Signature Algorithm: sha256WithRSAEncryption
         26:f3:f7:87:39:2c:6a:8e:50:de:1f:dc:9a:dd:75:4f:3f:61:
         d9:5e:2c:3c:58:86:4d:9d:30:fa:45:93:75:c7:b1:4c:ad:2f:
         48:89:57:aa:68:6c:50:d0:cd:1f:77:2f:1f:3a:31:fb:59:b8:
         6e:1b:a9:e2:f3:85:13:b6:8f:6c:aa:5b:5c:e5:94:b7:35:65:
         f5:78:4a:f1:74:42:4e:71:c7:ff:30:6f:96:76:59:d8:98:36:
         33:b4:8b:6e:81:15:a3:73:98:ce:bc:ba:d1:dd:c7:a7:05:f1:
         99:3d:1b:b2:1b:d3:30:56:83:ac:7e:95:e4:4e:89:35:d1:99:
         31:64:84:35:f7:4b:cf:cf:c5:06:f8:2e:76:e0:97:6a:1c:37:
         74:27:fc:18:30:e8:ff:29:2b:bb:73:fd:d5:be:c8:54:73:92:
         54:cb:fa:24:61:a0:dc:8c:20:84:20:10:09:89:06:98:31:e4:
         ce:4b:ba:02:db:b9:a3:47:50:4e:ac:b6:17:1a:db:db:7d:b5:
         77:22:28:13:78:8c:0f:5f:f1:d2:82:6b:a5:88:36:77:53:4c:
         8d:c0:a7:43:58:b9:df:d3:28:26:c4:36:9a:ae:e2:31:9a:75:
         7e:44:81:79:56:23:a3:6e:4b:84:94:0a:2b:08:01:ab:6c:58:
         bd:9c:5b:76
-----BEGIN CERTIFICATE-----
MIIEijCCA3KgAwIBAgIGCgsMDQ4bMA0GCSqGSIb3DQEBCwUAMHQxETAPBgNVBAMU
CEdPQUNBX0NBMQswCQYDVQQGEwJJTjEPMA0GA1UEChMGQ0lUUklYMQwwCgYDVQQL
EwNBTkcxCzAJBgNVBAgTAktBMSYwJAYJKoZIhvcNAQkBFhdHT0FDQV9DQUBHT0FD
QV9tYWlsLmNvbTAeFw0xNjA3MDgwNDM0NTZaFw0yNjA3MDYwNDM0NTZaMGwxCzAJ
BgNVBAgTAktBMQswCQYDVQQGEwJJTjEZMBcGA1UEAxQQMTEzX0dPQUNBX3NlcnZl
cjEkMCIGCSqGSIb3DQEJARYVMTEzX0dPQUNBQHRlc3RfY2EuY29tMQ8wDQYDVQQK
EwZDSVRSSVgwggEiMA0GCSqGSIb3DQEBAQUAA4IBDwAwggEKAoIBAQCuzBZEV6Q5
uKiNO7ufJCDApoSchAWRha8iV9puN7Po1IfrnttQiXDXwJ4rkfVYpsKJwA8BuxNR
VEdsPWQXVgCsTrixU+nQgxXoyyk29xgMVYTCbhuAc/zQI03xihPkmdt90ApcHkTO
/wMNQ08lWWawPtPkr3BAYv/cUVQvrU3U7cOGWiUB0uIxqxKwb+UkjRR7mD15qTB2
siDBjmQfrtqPZ+hf+C7Cap+iNyYrpKsKKhsyJmrdJ2DWjGboaMiCZjE9YbngMM78
EBiT6vidVNh4ElS8l8Y0eLCIj+D7sUpxli09YHA33TKCspQgLlvQyB29EAoeeZTg
lYd+lDY/cATPAgMBAAGjggEoMIIBJDARBglghkgBhvhCAQEEBAMCBkAwHQYDVR0O
BBYEFJgV0Yb663gVSVPGqXoS24YfBFEAMIGmBgNVHSMEgZ4wgZuAFIEDANTccNmn
Awge3JtMrOZZzTlooXikdjB0MREwDwYDVQQDFAhHT0FDQV9DQTELMAkGA1UEBhMC
SU4xDzANBgNVBAoTBkNJVFJJWDEMMAoGA1UECxMDQU5HMQswCQYDVQQIEwJLQTEm
MCQGCSqGSIb3DQEJARYXR09BQ0FfQ0FAR09BQ0FfbWFpbC5jb22CCQD8iwqQARdf
HDBHBggrBgEFBQcBAQQ7MDkwNwYIKwYBBQUHMAGGK2h0dHA6Ly9HT0FDQV90d28u
b2NzcHRlc3QuY29tL3Jlc3BvbmRlcnBhdGgwDQYJKoZIhvcNAQELBQADggEBACbz
94c5LGqOUN4f3JrddU8/YdleLDxYhk2dMPpFk3XHsUytL0iJV6pobFDQzR93Lx86
MftZuG4bqeLzhRO2j2yqW1zllLc1ZfV4SvF0Qk5xx/8wb5Z2WdiYNjO0i26BFaNz
mM68utHdx6cF8Zk9G7Ib0zBWg6x+leROiTXRmTFkhDX3S8/PxQb4Lnbgl2ocN3Qn
/Bgw6P8pK7tz/dW+yFRzklTL+iRhoNyMIIQgEAmJBpgx5M5LugLbuaNHUE6sthca
29t9tXciKBN4jA9f8dKCa6WINndTTI3Ap0NYud/TKCbENpqu4jGadX5EgXlWI6Nu
S4SUCisIAatsWL2cW3Y=
-----END CERTIFICATE-----
