Certificate:
    Data:
        Version: 3 (0x2)
        Serial Number: 11042563100187 (0xa0b0c0d0e1b)
    Signature Algorithm: sha256WithRSAEncryption
        Issuer: CN=RANCHICA_CA, C=IN, O=CITRIX, OU=ANG, ST=KA/emailAddress=RANCHICA_CA@RANCHICA_mail.com
        Validity
            Not Before: Jul  8 04:38:51 2016 GMT
            Not After : Jul  6 04:38:51 2026 GMT
        Subject: ST=KA, C=IN, CN=113_RANCHICA_server/emailAddress=113_RANCHICA@test_ca.com, O=CITRIX
        Subject Public Key Info:
            Public Key Algorithm: rsaEncryption
                Public-Key: (2048 bit)
                Modulus:
                    00:d0:a2:b8:44:a3:54:f8:0b:ae:80:9b:0e:dd:f5:
                    5f:d7:27:6d:f2:91:96:6f:53:bb:11:95:47:80:11:
                    4b:fa:d2:d4:f9:86:17:e9:84:da:a0:0a:72:46:d0:
                    df:4b:76:7c:e6:7e:b8:74:4c:cc:db:97:71:9d:aa:
                    59:bf:61:6e:d4:1c:d6:cb:5b:e9:e1:9a:6f:56:5f:
                    e2:c7:ab:e7:22:35:2e:be:0f:09:f8:9b:38:d5:7d:
                    04:49:51:5e:5f:fc:1a:48:f0:bd:86:dd:2c:05:9d:
                    e9:72:37:cf:98:bc:3d:02:59:c2:85:31:30:80:49:
                    0d:b8:ee:71:3d:73:21:25:08:b7:6c:31:6e:c0:04:
                    c9:a3:86:f3:86:5d:0c:ae:4f:6f:b4:9e:ae:48:3e:
                    61:2b:51:72:7c:ab:a5:c9:5c:08:74:dc:e5:d7:50:
                    fc:18:21:c9:36:40:87:69:ab:dd:e9:75:d3:17:ac:
                    97:ad:6d:37:5c:12:02:9b:35:be:1e:63:62:87:d2:
                    f5:f0:58:58:a6:a4:33:a3:4a:48:50:a6:81:29:64:
                    ec:22:41:9c:0a:8a:e3:75:3b:bc:d6:12:76:af:c8:
                    ef:d9:35:93:99:81:a8:fb:1f:11:15:9f:05:6f:4a:
                    bb:54:9b:a1:4e:94:1e:17:f6:0c:c4:08:8b:01:55:
                    2c:b1
                Exponent: 65537 (0x10001)
        X509v3 extensions:
            Netscape Cert Type: 
                SSL Server
            X509v3 Subject Key Identifier: 
                52:7D:52:CA:88:2D:0C:FC:3E:97:97:C2:82:6C:5D:AB:0D:DC:BF:DB
            X509v3 Authority Key Identifier: 
                keyid:A7:10:6F:5D:0C:9F:9C:A2:F4:39:92:A3:7D:5C:B8:C0:25:71:BF:39
                DirName:/CN=RANCHICA_CA/C=IN/O=CITRIX/OU=ANG/ST=KA/emailAddress=RANCHICA_CA@RANCHICA_mail.com
                serial:E7:09:A4:3D:1C:C7:45:B1

            Authority Information Access: 
                OCSP - URI:http://RANCHICA_two.ocsptest.com/responderpath

    Signature Algorithm: sha256WithRSAEncryption
         7e:bf:09:42:eb:c3:ca:a5:f6:99:cc:9f:0e:bf:c6:06:f1:4d:
         99:a2:24:cb:2b:e3:2d:4d:e0:be:8d:fd:48:be:ad:e6:84:f3:
         8b:89:23:c5:9e:56:79:a7:1c:24:4c:c9:97:fe:98:aa:c4:25:
         1c:37:cc:ee:7c:1e:61:8f:2d:69:25:7e:b3:ff:82:96:5c:23:
         72:a5:ae:56:2e:29:04:f7:c7:64:a6:43:32:1a:0b:df:2f:cc:
         e5:1c:00:0c:1e:71:ac:fa:a1:22:9c:b9:f8:35:78:b1:9c:35:
         33:fb:81:f2:91:82:4b:81:0a:98:89:93:13:a6:fb:7e:26:84:
         69:9f:f7:5c:8c:ed:c2:b7:1f:ff:f0:11:0b:9c:10:8a:85:54:
         04:6a:37:d5:c4:42:d8:0b:c7:e1:4f:d5:99:e7:44:10:06:7d:
         eb:13:e0:ab:44:92:9d:75:83:98:b5:87:9c:9d:8c:e6:9d:44:
         55:81:6d:89:fd:46:0d:a5:36:31:dd:f3:48:9d:fd:15:5b:ce:
         4a:ef:26:41:88:0e:e9:2a:1d:50:63:02:34:c7:ba:93:fd:eb:
         22:2b:de:b4:ed:d1:da:81:5c:5f:5f:72:e0:62:f3:ed:9d:01:
         4d:1c:b4:5e:1c:72:ba:9b:71:4f:bc:50:23:cf:d8:6a:21:58:
         19:3e:2c:8e
-----BEGIN CERTIFICATE-----
MIIEpjCCA46gAwIBAgIGCgsMDQ4bMA0GCSqGSIb3DQEBCwUAMH0xFDASBgNVBAMU
C1JBTkNISUNBX0NBMQswCQYDVQQGEwJJTjEPMA0GA1UEChMGQ0lUUklYMQwwCgYD
VQQLEwNBTkcxCzAJBgNVBAgTAktBMSwwKgYJKoZIhvcNAQkBFh1SQU5DSElDQV9D
QUBSQU5DSElDQV9tYWlsLmNvbTAeFw0xNjA3MDgwNDM4NTFaFw0yNjA3MDYwNDM4
NTFaMHIxCzAJBgNVBAgTAktBMQswCQYDVQQGEwJJTjEcMBoGA1UEAxQTMTEzX1JB
TkNISUNBX3NlcnZlcjEnMCUGCSqGSIb3DQEJARYYMTEzX1JBTkNISUNBQHRlc3Rf
Y2EuY29tMQ8wDQYDVQQKEwZDSVRSSVgwggEiMA0GCSqGSIb3DQEBAQUAA4IBDwAw
ggEKAoIBAQDQorhEo1T4C66Amw7d9V/XJ23ykZZvU7sRlUeAEUv60tT5hhfphNqg
CnJG0N9Ldnzmfrh0TMzbl3Gdqlm/YW7UHNbLW+nhmm9WX+LHq+ciNS6+Dwn4mzjV
fQRJUV5f/BpI8L2G3SwFnelyN8+YvD0CWcKFMTCASQ247nE9cyElCLdsMW7ABMmj
hvOGXQyuT2+0nq5IPmErUXJ8q6XJXAh03OXXUPwYIck2QIdpq93pddMXrJetbTdc
EgKbNb4eY2KH0vXwWFimpDOjSkhQpoEpZOwiQZwKiuN1O7zWEnavyO/ZNZOZgaj7
HxEVnwVvSrtUm6FOlB4X9gzECIsBVSyxAgMBAAGjggE1MIIBMTARBglghkgBhvhC
AQEEBAMCBkAwHQYDVR0OBBYEFFJ9UsqILQz8PpeXwoJsXasN3L/bMIGwBgNVHSME
gagwgaWAFKcQb10Mn5yi9DmSo31cuMAlcb85oYGBpH8wfTEUMBIGA1UEAxQLUkFO
Q0hJQ0FfQ0ExCzAJBgNVBAYTAklOMQ8wDQYDVQQKEwZDSVRSSVgxDDAKBgNVBAsT
A0FORzELMAkGA1UECBMCS0ExLDAqBgkqhkiG9w0BCQEWHVJBTkNISUNBX0NBQFJB
TkNISUNBX21haWwuY29tggkA5wmkPRzHRbEwSgYIKwYBBQUHAQEEPjA8MDoGCCsG
AQUFBzABhi5odHRwOi8vUkFOQ0hJQ0FfdHdvLm9jc3B0ZXN0LmNvbS9yZXNwb25k
ZXJwYXRoMA0GCSqGSIb3DQEBCwUAA4IBAQB+vwlC68PKpfaZzJ8Ov8YG8U2ZoiTL
K+MtTeC+jf1Ivq3mhPOLiSPFnlZ5pxwkTMmX/piqxCUcN8zufB5hjy1pJX6z/4KW
XCNypa5WLikE98dkpkMyGgvfL8zlHAAMHnGs+qEinLn4NXixnDUz+4HykYJLgQqY
iZMTpvt+JoRpn/dcjO3Ctx//8BELnBCKhVQEajfVxELYC8fhT9WZ50QQBn3rE+Cr
RJKddYOYtYecnYzmnURVgW2J/UYNpTYx3fNInf0VW85K7yZBiA7pKh1QYwI0x7qT
/esiK9607dHagVxfX3LgYvPtnQFNHLReHHK6m3FPvFAjz9hqIVgZPiyO
-----END CERTIFICATE-----
