Certificate:
    Data:
        Version: 3 (0x2)
        Serial Number: 11042563100188 (0xa0b0c0d0e1c)
    Signature Algorithm: sha256WithRSAEncryption
        Issuer: CN=RANCHICA_CA, C=IN, O=CITRIX, OU=ANG, ST=KA/emailAddress=RANCHICA_CA@RANCHICA_mail.com
        Validity
            Not Before: Jul  8 04:38:51 2016 GMT
            Not After : Jul  6 04:38:51 2026 GMT
        Subject: ST=KA, C=IN, CN=114_RANCHICA_server/emailAddress=114_RANCHICA@test_ca.com, O=CITRIX
        Subject Public Key Info:
            Public Key Algorithm: rsaEncryption
                Public-Key: (2048 bit)
                Modulus:
                    00:a0:5c:17:89:e2:ec:89:c9:76:15:ff:e6:f5:ce:
                    49:9b:2f:f6:1d:48:ae:90:d2:02:20:c5:e1:92:fa:
                    d0:35:e1:65:04:85:05:dc:70:90:22:99:86:b4:d8:
                    fb:8b:b8:4d:87:76:9f:7b:6b:9d:86:e8:97:7e:8b:
                    30:45:19:21:0d:8d:40:27:cf:b5:17:3e:12:33:e4:
                    90:f2:04:0d:52:f6:d3:5d:67:dd:79:8c:b0:ef:a0:
                    2f:c7:40:f9:91:1b:3d:b6:79:5d:62:4e:bc:ac:86:
                    8a:ac:95:1d:19:53:9f:b0:07:b2:a8:24:22:6e:0e:
                    18:3f:71:47:2d:9d:97:80:03:0c:25:50:3e:07:cb:
                    41:4a:15:f9:d0:55:77:26:d7:f2:be:0e:e8:98:6e:
                    1d:32:e3:c2:0c:60:a8:f3:39:13:6b:9c:2d:47:e4:
                    81:33:f9:ad:9b:d0:f9:80:71:c8:a5:d5:c5:a3:4d:
                    c7:a1:f9:27:b6:6f:16:42:b7:fc:fd:06:c2:79:d0:
                    2c:a0:06:cc:93:79:58:2f:b7:40:b1:49:c0:07:ac:
                    5d:9b:ae:a7:ed:f2:5c:95:5e:d9:e2:1c:52:7e:39:
                    c4:89:55:0e:1c:dc:44:56:e8:67:a9:5a:29:93:ef:
                    f4:4f:7f:2c:4a:a9:90:ec:be:ee:c3:21:0b:0d:ba:
                    81:1d
                Exponent: 65537 (0x10001)
        X509v3 extensions:
            Netscape Cert Type: 
                SSL Server
            X509v3 Subject Key Identifier: 
                B5:87:86:22:10:D0:DB:74:8B:0C:C9:AC:40:0E:B2:D7:6F:F0:67:9B
            X509v3 Authority Key Identifier: 
                keyid:A7:10:6F:5D:0C:9F:9C:A2:F4:39:92:A3:7D:5C:B8:C0:25:71:BF:39
                DirName:/CN=RANCHICA_CA/C=IN/O=CITRIX/OU=ANG/ST=KA/emailAddress=RANCHICA_CA@RANCHICA_mail.com
                serial:E7:09:A4:3D:1C:C7:45:B1

            Authority Information Access: 
                OCSP - URI:http://RANCHICA_two.ocsptest.com/responderpath

    Signature Algorithm: sha256WithRSAEncryption
         43:6a:ab:47:61:c6:41:b4:e2:df:1f:f6:04:69:85:f5:4d:88:
         63:af:35:d1:ac:49:3d:e3:73:43:1d:9c:aa:12:ae:dd:40:e0:
         e7:01:08:d6:2f:32:b8:9e:32:fd:c3:85:9e:58:2e:f0:31:c8:
         25:ef:28:0a:d3:30:bb:92:5c:35:f7:b5:f0:26:8c:e2:05:c2:
         6d:a7:ff:62:8e:34:53:76:e4:cb:3e:3d:78:b8:d5:fe:73:cc:
         ee:03:21:ff:4a:89:6b:24:95:12:14:44:87:ec:4d:c9:20:a4:
         c0:d1:1f:62:a3:a3:ac:8b:57:ac:82:f4:0b:3e:f7:5e:22:19:
         f6:f7:d0:5f:a1:b0:c8:7d:74:80:21:35:af:9d:47:36:3f:1e:
         86:76:e9:19:4f:32:d2:02:62:87:41:ab:e8:17:a8:28:85:7a:
         51:0b:2f:10:f3:46:75:8f:b8:b8:c4:7d:92:78:4f:73:03:1e:
         e0:33:c8:93:cc:b2:26:8b:85:15:bf:0b:a0:61:35:4c:f9:18:
         2a:20:e4:c8:9f:6f:08:85:b6:3b:82:78:ca:fd:bf:2e:b3:57:
         b3:b0:02:50:93:8d:c2:ef:25:3a:b9:d2:51:f6:56:c0:ac:78:
         d6:da:72:c9:c2:96:f2:d7:7c:fe:36:41:65:6c:39:ad:1d:26:
         4c:bc:2c:8f
-----BEGIN CERTIFICATE-----
MIIEpjCCA46gAwIBAgIGCgsMDQ4cMA0GCSqGSIb3DQEBCwUAMH0xFDASBgNVBAMU
C1JBTkNISUNBX0NBMQswCQYDVQQGEwJJTjEPMA0GA1UEChMGQ0lUUklYMQwwCgYD
VQQLEwNBTkcxCzAJBgNVBAgTAktBMSwwKgYJKoZIhvcNAQkBFh1SQU5DSElDQV9D
QUBSQU5DSElDQV9tYWlsLmNvbTAeFw0xNjA3MDgwNDM4NTFaFw0yNjA3MDYwNDM4
NTFaMHIxCzAJBgNVBAgTAktBMQswCQYDVQQGEwJJTjEcMBoGA1UEAxQTMTE0X1JB
TkNISUNBX3NlcnZlcjEnMCUGCSqGSIb3DQEJARYYMTE0X1JBTkNISUNBQHRlc3Rf
Y2EuY29tMQ8wDQYDVQQKEwZDSVRSSVgwggEiMA0GCSqGSIb3DQEBAQUAA4IBDwAw
ggEKAoIBAQCgXBeJ4uyJyXYV/+b1zkmbL/YdSK6Q0gIgxeGS+tA14WUEhQXccJAi
mYa02PuLuE2Hdp97a52G6Jd+izBFGSENjUAnz7UXPhIz5JDyBA1S9tNdZ915jLDv
oC/HQPmRGz22eV1iTryshoqslR0ZU5+wB7KoJCJuDhg/cUctnZeAAwwlUD4Hy0FK
FfnQVXcm1/K+DuiYbh0y48IMYKjzORNrnC1H5IEz+a2b0PmAccil1cWjTceh+Se2
bxZCt/z9BsJ50CygBsyTeVgvt0CxScAHrF2brqft8lyVXtniHFJ+OcSJVQ4c3ERW
6GepWimT7/RPfyxKqZDsvu7DIQsNuoEdAgMBAAGjggE1MIIBMTARBglghkgBhvhC
AQEEBAMCBkAwHQYDVR0OBBYEFLWHhiIQ0Nt0iwzJrEAOstdv8GebMIGwBgNVHSME
gagwgaWAFKcQb10Mn5yi9DmSo31cuMAlcb85oYGBpH8wfTEUMBIGA1UEAxQLUkFO
Q0hJQ0FfQ0ExCzAJBgNVBAYTAklOMQ8wDQYDVQQKEwZDSVRSSVgxDDAKBgNVBAsT
A0FORzELMAkGA1UECBMCS0ExLDAqBgkqhkiG9w0BCQEWHVJBTkNISUNBX0NBQFJB
TkNISUNBX21haWwuY29tggkA5wmkPRzHRbEwSgYIKwYBBQUHAQEEPjA8MDoGCCsG
AQUFBzABhi5odHRwOi8vUkFOQ0hJQ0FfdHdvLm9jc3B0ZXN0LmNvbS9yZXNwb25k
ZXJwYXRoMA0GCSqGSIb3DQEBCwUAA4IBAQBDaqtHYcZBtOLfH/YEaYX1TYhjrzXR
rEk943NDHZyqEq7dQODnAQjWLzK4njL9w4WeWC7wMcgl7ygK0zC7klw197XwJozi
BcJtp/9ijjRTduTLPj14uNX+c8zuAyH/SolrJJUSFESH7E3JIKTA0R9io6Osi1es
gvQLPvdeIhn299BfobDIfXSAITWvnUc2Px6GdukZTzLSAmKHQavoF6gohXpRCy8Q
80Z1j7i4xH2SeE9zAx7gM8iTzLImi4UVvwugYTVM+RgqIOTIn28IhbY7gnjK/b8u
s1ezsAJQk43C7yU6udJR9lbArHjW2nLJwpby13z+NkFlbDmtHSZMvCyP
-----END CERTIFICATE-----
