Certificate:
    Data:
        Version: 3 (0x2)
        Serial Number: 11042563100188 (0xa0b0c0d0e1c)
    Signature Algorithm: sha256WithRSAEncryption
        Issuer: CN=BHOPALCA_CA, C=IN, O=CITRIX, OU=ANG, ST=KA/emailAddress=BHOPALCA_CA@BHOPALCA_mail.com
        Validity
            Not Before: Jul  8 04:32:36 2016 GMT
            Not After : Jul  6 04:32:36 2026 GMT
        Subject: ST=KA, C=IN, CN=114_BHOPALCA_server/emailAddress=114_BHOPALCA@test_ca.com, O=CITRIX
        Subject Public Key Info:
            Public Key Algorithm: rsaEncryption
                Public-Key: (2048 bit)
                Modulus:
                    00:d5:f4:c7:26:62:60:ba:e7:eb:58:44:36:95:62:
                    72:b2:8a:2a:35:e7:0c:bf:16:30:e9:34:56:57:e0:
                    8a:18:ce:7a:f0:f2:f4:ef:52:fb:9b:47:5f:7d:9e:
                    98:03:ff:2d:d1:c7:c5:ba:1f:70:74:c1:08:b7:da:
                    26:08:5b:44:a5:8c:97:4a:92:d5:89:bd:da:97:44:
                    66:1f:66:83:fb:91:cf:ac:85:ad:36:30:b5:d7:a9:
                    5f:f7:53:c8:ce:ad:9f:42:09:3f:b5:a1:2e:af:e5:
                    53:d5:7f:09:3d:35:3c:72:b7:56:ff:cf:aa:04:00:
                    2d:1d:01:d6:7b:a8:e8:83:2c:5d:9a:ce:34:89:a9:
                    aa:29:c0:5c:23:74:3a:78:a8:a8:28:55:f3:5b:53:
                    bb:c5:17:f3:c0:e6:99:c6:5a:3c:29:df:e4:c5:1a:
                    3c:60:de:d2:82:03:d5:cd:b2:b9:0b:d5:d9:aa:fd:
                    18:ae:f2:a1:20:42:dc:fb:a7:ca:4e:92:8f:52:fb:
                    07:12:c4:4a:38:40:44:a0:40:72:6d:6b:8f:00:c8:
                    48:0c:05:7c:1c:34:8b:1c:10:52:c8:eb:1c:62:6f:
                    2e:ea:c2:62:aa:a9:1e:22:4e:68:b8:fc:4f:c2:12:
                    68:fc:a8:86:66:fa:c6:bb:26:60:ce:b0:12:e7:26:
                    41:69
                Exponent: 65537 (0x10001)
        X509v3 extensions:
            Netscape Cert Type: 
                SSL Server
            X509v3 Subject Key Identifier: 
                D0:82:1E:0C:57:6E:F9:06:77:FA:7A:6F:ED:92:91:77:97:FE:6C:1F
            X509v3 Authority Key Identifier: 
                keyid:A6:66:0E:59:0F:3C:5C:11:35:B2:B3:99:59:A9:D3:A6:B1:5E:95:D2
                DirName:/CN=BHOPALCA_CA/C=IN/O=CITRIX/OU=ANG/ST=KA/emailAddress=BHOPALCA_CA@BHOPALCA_mail.com
                serial:BE:89:55:F3:65:28:17:9A

            Authority Information Access: 
                OCSP - URI:http://BHOPALCA_two.ocsptest.com/responderpath

    Signature Algorithm: sha256WithRSAEncryption
         3b:7f:f2:47:8f:99:5b:b1:4a:be:6b:72:99:b1:2d:f7:b1:cf:
         f4:c5:b8:51:22:9d:6e:83:18:ca:53:12:83:51:d1:cd:e3:e8:
         3a:a3:50:30:cd:28:24:02:b3:0e:65:6d:7a:93:98:5b:87:50:
         c9:d8:d2:78:3a:b9:ae:22:11:f0:0b:19:ae:af:16:45:6b:08:
         25:7d:c5:fd:f9:4a:1d:16:a4:d5:4c:6b:e5:d3:51:ee:dd:8c:
         14:f5:07:2a:dd:71:e9:39:9b:90:c4:e9:2a:1f:ff:7b:ca:bc:
         56:dd:54:2e:80:59:6e:65:80:ed:f5:f4:0e:b1:17:93:36:cf:
         67:7c:96:a6:dd:4b:b3:b1:08:43:c4:49:1a:4a:94:92:98:9d:
         44:1b:ff:14:10:27:41:61:f7:48:ef:9b:a4:76:b4:a8:ac:f6:
         30:04:3e:1b:90:1b:03:08:a6:4e:0d:9d:7d:c4:f1:4d:ee:1f:
         8d:fd:74:c2:e5:22:0e:a4:45:95:f2:60:38:63:8c:96:47:43:
         f5:ab:62:fc:bc:8d:37:0a:ee:67:34:cf:b6:24:e7:91:0a:e8:
         d2:c9:41:8f:e9:2d:5b:be:c5:fc:72:c3:b2:fd:b2:25:7b:9a:
         1a:dc:bd:b1:4c:59:d3:7c:79:7d:c5:da:48:e7:19:6c:94:c7:
         65:e2:70:cd
-----BEGIN CERTIFICATE-----
MIIEpjCCA46gAwIBAgIGCgsMDQ4cMA0GCSqGSIb3DQEBCwUAMH0xFDASBgNVBAMU
C0JIT1BBTENBX0NBMQswCQYDVQQGEwJJTjEPMA0GA1UEChMGQ0lUUklYMQwwCgYD
VQQLEwNBTkcxCzAJBgNVBAgTAktBMSwwKgYJKoZIhvcNAQkBFh1CSE9QQUxDQV9D
QUBCSE9QQUxDQV9tYWlsLmNvbTAeFw0xNjA3MDgwNDMyMzZaFw0yNjA3MDYwNDMy
MzZaMHIxCzAJBgNVBAgTAktBMQswCQYDVQQGEwJJTjEcMBoGA1UEAxQTMTE0X0JI
T1BBTENBX3NlcnZlcjEnMCUGCSqGSIb3DQEJARYYMTE0X0JIT1BBTENBQHRlc3Rf
Y2EuY29tMQ8wDQYDVQQKEwZDSVRSSVgwggEiMA0GCSqGSIb3DQEBAQUAA4IBDwAw
ggEKAoIBAQDV9McmYmC65+tYRDaVYnKyiio15wy/FjDpNFZX4IoYznrw8vTvUvub
R199npgD/y3Rx8W6H3B0wQi32iYIW0SljJdKktWJvdqXRGYfZoP7kc+sha02MLXX
qV/3U8jOrZ9CCT+1oS6v5VPVfwk9NTxyt1b/z6oEAC0dAdZ7qOiDLF2azjSJqaop
wFwjdDp4qKgoVfNbU7vFF/PA5pnGWjwp3+TFGjxg3tKCA9XNsrkL1dmq/Riu8qEg
Qtz7p8pOko9S+wcSxEo4QESgQHJta48AyEgMBXwcNIscEFLI6xxiby7qwmKqqR4i
Tmi4/E/CEmj8qIZm+sa7JmDOsBLnJkFpAgMBAAGjggE1MIIBMTARBglghkgBhvhC
AQEEBAMCBkAwHQYDVR0OBBYEFNCCHgxXbvkGd/p6b+2SkXeX/mwfMIGwBgNVHSME
gagwgaWAFKZmDlkPPFwRNbKzmVmp06axXpXSoYGBpH8wfTEUMBIGA1UEAxQLQkhP
UEFMQ0FfQ0ExCzAJBgNVBAYTAklOMQ8wDQYDVQQKEwZDSVRSSVgxDDAKBgNVBAsT
A0FORzELMAkGA1UECBMCS0ExLDAqBgkqhkiG9w0BCQEWHUJIT1BBTENBX0NBQEJI
T1BBTENBX21haWwuY29tggkAvolV82UoF5owSgYIKwYBBQUHAQEEPjA8MDoGCCsG
AQUFBzABhi5odHRwOi8vQkhPUEFMQ0FfdHdvLm9jc3B0ZXN0LmNvbS9yZXNwb25k
ZXJwYXRoMA0GCSqGSIb3DQEBCwUAA4IBAQA7f/JHj5lbsUq+a3KZsS33sc/0xbhR
Ip1ugxjKUxKDUdHN4+g6o1AwzSgkArMOZW16k5hbh1DJ2NJ4OrmuIhHwCxmurxZF
awglfcX9+UodFqTVTGvl01Hu3YwU9Qcq3XHpOZuQxOkqH/97yrxW3VQugFluZYDt
9fQOsReTNs9nfJam3UuzsQhDxEkaSpSSmJ1EG/8UECdBYfdI75ukdrSorPYwBD4b
kBsDCKZODZ19xPFN7h+N/XTC5SIOpEWV8mA4Y4yWR0P1q2L8vI03Cu5nNM+2JOeR
CujSyUGP6S1bvsX8csOy/bIle5oa3L2xTFnTfHl9xdpI5xlslMdl4nDN
-----END CERTIFICATE-----
