Certificate:
    Data:
        Version: 3 (0x2)
        Serial Number: 11042563100188 (0xa0b0c0d0e1c)
    Signature Algorithm: sha256WithRSAEncryption
        Issuer: CN=DELHICA_CA, C=IN, O=CITRIX, OU=ANG, ST=KA/emailAddress=DELHICA_CA@DELHICA_mail.com
        Validity
            Not Before: Jul  8 04:34:25 2016 GMT
            Not After : Jul  6 04:34:25 2026 GMT
        Subject: ST=KA, C=IN, CN=114_DELHICA_server/emailAddress=114_DELHICA@test_ca.com, O=CITRIX
        Subject Public Key Info:
            Public Key Algorithm: rsaEncryption
                Public-Key: (2048 bit)
                Modulus:
                    00:b3:c0:ae:6e:c3:23:b2:8d:d8:04:44:00:97:d1:
                    41:4b:28:60:31:dd:8c:ac:5e:3b:7f:e9:fb:dc:de:
                    5d:e5:24:2e:13:f2:38:ba:68:f4:3e:89:01:d1:41:
                    68:a9:6f:1a:3a:11:3d:45:fe:12:5f:f4:ff:43:e0:
                    69:66:5d:0d:f5:cb:16:bb:92:90:c4:58:f7:ea:45:
                    69:83:3f:e4:e5:b4:cc:d9:ee:b5:bb:c4:87:fd:eb:
                    57:22:8f:fe:54:51:cf:a0:96:7b:cc:28:ca:6c:ad:
                    fd:5c:e9:39:aa:24:c6:1c:96:26:0b:84:0c:69:75:
                    da:2f:9d:b0:3f:5a:24:e1:26:2d:73:f7:32:61:c1:
                    d3:2c:17:96:dd:e7:8d:11:a4:44:29:0f:38:20:23:
                    b1:46:74:da:24:e5:9b:ea:cb:2a:d5:d2:65:c3:0a:
                    a5:bf:70:59:25:24:16:52:66:14:22:07:a4:ce:cf:
                    6a:a0:03:04:2e:a6:3c:4b:9e:a7:ad:78:33:3d:91:
                    ca:07:41:2f:30:0d:b1:74:05:3d:69:a1:93:60:e4:
                    8c:98:4d:2a:29:86:1e:25:6f:82:cb:60:a0:c0:e7:
                    5a:3b:fe:76:74:e6:f2:e4:04:06:50:51:3c:ba:09:
                    2c:e0:86:49:50:8f:e4:50:1b:17:01:bd:1f:1d:e7:
                    08:cf
                Exponent: 65537 (0x10001)
        X509v3 extensions:
            Netscape Cert Type: 
                SSL Server
            X509v3 Subject Key Identifier: 
                C1:A0:85:95:22:32:FF:8C:0B:5D:28:D4:90:34:D5:8C:67:01:41:F8
            X509v3 Authority Key Identifier: 
                keyid:D7:37:52:01:DC:2C:7A:57:85:CA:30:39:30:F0:D5:5D:5A:31:03:02
                DirName:/CN=DELHICA_CA/C=IN/O=CITRIX/OU=ANG/ST=KA/emailAddress=DELHICA_CA@DELHICA_mail.com
                serial:94:59:DC:51:4E:A5:13:27

            Authority Information Access: 
                OCSP - URI:http://DELHICA_two.ocsptest.com/responderpath

    Signature Algorithm: sha256WithRSAEncryption
         60:54:09:d2:b8:f9:43:bd:86:01:b2:d4:07:16:a9:60:ef:61:
         04:17:30:6e:3e:45:08:ec:5e:b5:8e:3a:a4:11:be:ac:18:d9:
         7a:98:b4:28:6e:06:54:24:c8:e5:db:ff:0a:fa:8d:b9:6b:25:
         e8:a9:3a:0b:0e:98:8b:b4:7d:1c:ee:a6:c7:1e:29:46:64:d9:
         24:0e:3c:39:3a:d9:11:03:66:52:ab:13:a9:0d:b9:c1:3e:2f:
         9a:ff:5d:df:f6:af:c8:e0:09:fd:5a:fd:65:9f:a1:c4:4b:c0:
         2b:42:21:41:cc:ca:85:e0:b4:68:73:37:5c:b1:6c:dc:4a:b9:
         f9:a7:ad:12:dc:07:85:d1:9a:bf:4a:df:27:21:39:73:3e:ad:
         b4:27:b1:3b:f5:ee:9c:a3:d1:7e:c2:f9:22:0d:30:cc:da:c7:
         cf:b2:41:cc:09:40:4a:6c:b5:92:80:3f:8e:b5:c0:be:24:3c:
         46:e8:f8:4c:9f:02:29:12:61:4b:db:60:23:d0:84:be:a8:f3:
         85:9b:37:f6:c9:93:1f:40:ff:b4:a3:44:0e:db:31:32:dd:08:
         2f:a1:6b:f3:80:51:0c:1d:5a:12:40:f2:0b:d3:c9:cb:bb:69:
         32:a6:8f:d4:9e:88:8b:a4:5b:58:fc:6b:77:15:ef:35:59:58:
         02:17:b5:c1
-----BEGIN CERTIFICATE-----
MIIEnDCCA4SgAwIBAgIGCgsMDQ4cMA0GCSqGSIb3DQEBCwUAMHoxEzARBgNVBAMU
CkRFTEhJQ0FfQ0ExCzAJBgNVBAYTAklOMQ8wDQYDVQQKEwZDSVRSSVgxDDAKBgNV
BAsTA0FORzELMAkGA1UECBMCS0ExKjAoBgkqhkiG9w0BCQEWG0RFTEhJQ0FfQ0FA
REVMSElDQV9tYWlsLmNvbTAeFw0xNjA3MDgwNDM0MjVaFw0yNjA3MDYwNDM0MjVa
MHAxCzAJBgNVBAgTAktBMQswCQYDVQQGEwJJTjEbMBkGA1UEAxQSMTE0X0RFTEhJ
Q0Ffc2VydmVyMSYwJAYJKoZIhvcNAQkBFhcxMTRfREVMSElDQUB0ZXN0X2NhLmNv
bTEPMA0GA1UEChMGQ0lUUklYMIIBIjANBgkqhkiG9w0BAQEFAAOCAQ8AMIIBCgKC
AQEAs8CubsMjso3YBEQAl9FBSyhgMd2MrF47f+n73N5d5SQuE/I4umj0PokB0UFo
qW8aOhE9Rf4SX/T/Q+BpZl0N9csWu5KQxFj36kVpgz/k5bTM2e61u8SH/etXIo/+
VFHPoJZ7zCjKbK39XOk5qiTGHJYmC4QMaXXaL52wP1ok4SYtc/cyYcHTLBeW3eeN
EaREKQ84ICOxRnTaJOWb6ssq1dJlwwqlv3BZJSQWUmYUIgekzs9qoAMELqY8S56n
rXgzPZHKB0EvMA2xdAU9aaGTYOSMmE0qKYYeJW+Cy2CgwOdaO/52dOby5AQGUFE8
ugks4IZJUI/kUBsXAb0fHecIzwIDAQABo4IBMDCCASwwEQYJYIZIAYb4QgEBBAQD
AgZAMB0GA1UdDgQWBBTBoIWVIjL/jAtdKNSQNNWMZwFB+DCBrAYDVR0jBIGkMIGh
gBTXN1IB3Cx6V4XKMDkw8NVdWjEDAqF+pHwwejETMBEGA1UEAxQKREVMSElDQV9D
QTELMAkGA1UEBhMCSU4xDzANBgNVBAoTBkNJVFJJWDEMMAoGA1UECxMDQU5HMQsw
CQYDVQQIEwJLQTEqMCgGCSqGSIb3DQEJARYbREVMSElDQV9DQUBERUxISUNBX21h
aWwuY29tggkAlFncUU6lEycwSQYIKwYBBQUHAQEEPTA7MDkGCCsGAQUFBzABhi1o
dHRwOi8vREVMSElDQV90d28ub2NzcHRlc3QuY29tL3Jlc3BvbmRlcnBhdGgwDQYJ
KoZIhvcNAQELBQADggEBAGBUCdK4+UO9hgGy1AcWqWDvYQQXMG4+RQjsXrWOOqQR
vqwY2XqYtChuBlQkyOXb/wr6jblrJeipOgsOmIu0fRzupsceKUZk2SQOPDk62RED
ZlKrE6kNucE+L5r/Xd/2r8jgCf1a/WWfocRLwCtCIUHMyoXgtGhzN1yxbNxKufmn
rRLcB4XRmr9K3ychOXM+rbQnsTv17pyj0X7C+SINMMzax8+yQcwJQEpstZKAP461
wL4kPEbo+EyfAikSYUvbYCPQhL6o84WbN/bJkx9A/7SjRA7bMTLdCC+ha/OAUQwd
WhJA8gvTycu7aTKmj9SeiIukW1j8a3cV7zVZWAIXtcE=
-----END CERTIFICATE-----
