Certificate:
    Data:
        Version: 3 (0x2)
        Serial Number: 11042563100188 (0xa0b0c0d0e1c)
    Signature Algorithm: sha256WithRSAEncryption
        Issuer: CN=MYSORECA_CA, C=IN, O=CITRIX, OU=ANG, ST=KA/emailAddress=MYSORECA_CA@MYSORECA_mail.com
        Validity
            Not Before: Jul  8 04:36:33 2016 GMT
            Not After : Jul  6 04:36:33 2026 GMT
        Subject: ST=KA, C=IN, CN=114_MYSORECA_server/emailAddress=114_MYSORECA@test_ca.com, O=CITRIX
        Subject Public Key Info:
            Public Key Algorithm: rsaEncryption
                Public-Key: (2048 bit)
                Modulus:
                    00:b1:2e:c8:41:92:41:95:dc:d3:c3:8b:de:09:13:
                    78:85:10:95:a4:b8:16:bc:c8:13:13:e1:01:89:15:
                    6c:97:22:e1:36:2f:be:b4:b1:f8:89:51:fc:f0:fc:
                    de:27:d4:1e:e7:fa:83:ff:7a:9e:04:8b:81:cb:9c:
                    3e:89:73:13:f8:81:86:59:68:f0:68:db:6e:3a:e8:
                    7e:8e:b9:65:b7:42:42:56:ce:df:7d:14:93:80:0d:
                    65:41:f7:2f:83:ca:3a:89:fa:11:4d:9f:67:56:28:
                    ae:b3:6e:df:4b:ea:c2:2d:8f:e8:c6:55:e8:d0:2d:
                    ae:7f:ad:cc:f5:bd:41:8c:b3:b6:1c:9c:3b:3c:f1:
                    d9:5b:39:f5:f0:17:6e:04:da:93:b4:f4:01:8e:75:
                    de:a1:60:68:63:fb:2a:57:f7:a6:ca:ea:63:ec:35:
                    3b:05:af:e8:18:8d:de:25:06:87:23:bf:dd:fe:23:
                    0b:e7:1b:20:ca:00:7f:a7:28:b4:88:f3:af:56:f4:
                    e9:c4:21:c9:36:70:7e:db:39:6a:ed:96:73:c3:e4:
                    4b:06:7d:6c:ff:e5:7f:be:a8:ee:11:a2:63:d1:46:
                    35:11:49:8b:63:e1:27:66:79:17:fb:70:a6:16:73:
                    90:c2:18:39:c8:0a:1c:e8:16:3a:ba:a8:2f:fa:76:
                    2f:59
                Exponent: 65537 (0x10001)
        X509v3 extensions:
            Netscape Cert Type: 
                SSL Server
            X509v3 Subject Key Identifier: 
                F7:E4:EF:2C:37:9A:34:B0:A2:50:19:D0:80:BC:33:85:D9:4C:83:1C
            X509v3 Authority Key Identifier: 
                keyid:C6:18:DA:E4:16:A1:1E:60:AE:18:00:F5:A7:DF:0A:8B:65:4D:36:95
                DirName:/CN=MYSORECA_CA/C=IN/O=CITRIX/OU=ANG/ST=KA/emailAddress=MYSORECA_CA@MYSORECA_mail.com
                serial:D5:74:54:E9:D5:CF:C9:F6

            Authority Information Access: 
                OCSP - URI:http://MYSORECA_two.ocsptest.com/responderpath

    Signature Algorithm: sha256WithRSAEncryption
         10:8f:0d:b4:6f:e3:e9:42:93:7a:cf:dd:d0:27:61:bf:f7:af:
         44:2e:c7:e5:35:ec:59:6b:2a:d8:92:35:8d:be:26:be:3c:57:
         79:b3:86:07:72:6c:75:52:b8:b9:1e:2e:a9:04:b3:06:77:5a:
         3a:96:1c:7e:7f:29:08:cb:22:cb:16:3d:73:06:0d:de:bd:2a:
         1d:9e:95:b9:7c:be:f1:07:52:a3:6c:fb:e9:53:d5:c9:ab:35:
         f2:bb:03:b2:54:8d:b0:f1:2a:4e:c7:18:86:09:ea:39:a7:29:
         a8:51:7c:a7:dc:a2:d2:0b:17:e0:f1:04:50:3f:9a:3e:96:70:
         52:e8:72:eb:63:1e:00:f1:5c:fa:7a:f6:e5:88:57:95:3a:9c:
         ba:a2:c1:09:3c:36:70:93:1c:a3:42:9f:94:ec:2d:1f:89:47:
         1e:21:d0:83:81:ae:0d:0f:fd:75:e5:4c:01:a4:2c:81:6b:86:
         84:87:c0:e8:4a:30:68:4b:35:e3:56:8e:c5:ad:ac:21:64:b7:
         6f:4e:a7:fe:7d:f7:6d:80:ed:de:2d:a4:d8:c0:37:f6:cb:65:
         82:b6:7a:9f:8e:6c:e0:bb:a0:0e:d6:62:c6:b9:60:bf:59:d4:
         16:24:2b:7f:46:47:06:a6:f7:ef:fd:9c:d2:1a:d3:be:7e:d1:
         27:fc:b0:9a
-----BEGIN CERTIFICATE-----
MIIEpjCCA46gAwIBAgIGCgsMDQ4cMA0GCSqGSIb3DQEBCwUAMH0xFDASBgNVBAMU
C01ZU09SRUNBX0NBMQswCQYDVQQGEwJJTjEPMA0GA1UEChMGQ0lUUklYMQwwCgYD
VQQLEwNBTkcxCzAJBgNVBAgTAktBMSwwKgYJKoZIhvcNAQkBFh1NWVNPUkVDQV9D
QUBNWVNPUkVDQV9tYWlsLmNvbTAeFw0xNjA3MDgwNDM2MzNaFw0yNjA3MDYwNDM2
MzNaMHIxCzAJBgNVBAgTAktBMQswCQYDVQQGEwJJTjEcMBoGA1UEAxQTMTE0X01Z
U09SRUNBX3NlcnZlcjEnMCUGCSqGSIb3DQEJARYYMTE0X01ZU09SRUNBQHRlc3Rf
Y2EuY29tMQ8wDQYDVQQKEwZDSVRSSVgwggEiMA0GCSqGSIb3DQEBAQUAA4IBDwAw
ggEKAoIBAQCxLshBkkGV3NPDi94JE3iFEJWkuBa8yBMT4QGJFWyXIuE2L760sfiJ
Ufzw/N4n1B7n+oP/ep4Ei4HLnD6JcxP4gYZZaPBo22466H6OuWW3QkJWzt99FJOA
DWVB9y+DyjqJ+hFNn2dWKK6zbt9L6sItj+jGVejQLa5/rcz1vUGMs7YcnDs88dlb
OfXwF24E2pO09AGOdd6hYGhj+ypX96bK6mPsNTsFr+gYjd4lBocjv93+IwvnGyDK
AH+nKLSI869W9OnEIck2cH7bOWrtlnPD5EsGfWz/5X++qO4RomPRRjURSYtj4Sdm
eRf7cKYWc5DCGDnIChzoFjq6qC/6di9ZAgMBAAGjggE1MIIBMTARBglghkgBhvhC
AQEEBAMCBkAwHQYDVR0OBBYEFPfk7yw3mjSwolAZ0IC8M4XZTIMcMIGwBgNVHSME
gagwgaWAFMYY2uQWoR5grhgA9affCotlTTaVoYGBpH8wfTEUMBIGA1UEAxQLTVlT
T1JFQ0FfQ0ExCzAJBgNVBAYTAklOMQ8wDQYDVQQKEwZDSVRSSVgxDDAKBgNVBAsT
A0FORzELMAkGA1UECBMCS0ExLDAqBgkqhkiG9w0BCQEWHU1ZU09SRUNBX0NBQE1Z
U09SRUNBX21haWwuY29tggkA1XRU6dXPyfYwSgYIKwYBBQUHAQEEPjA8MDoGCCsG
AQUFBzABhi5odHRwOi8vTVlTT1JFQ0FfdHdvLm9jc3B0ZXN0LmNvbS9yZXNwb25k
ZXJwYXRoMA0GCSqGSIb3DQEBCwUAA4IBAQAQjw20b+PpQpN6z93QJ2G/969ELsfl
NexZayrYkjWNvia+PFd5s4YHcmx1Uri5Hi6pBLMGd1o6lhx+fykIyyLLFj1zBg3e
vSodnpW5fL7xB1KjbPvpU9XJqzXyuwOyVI2w8SpOxxiGCeo5pymoUXyn3KLSCxfg
8QRQP5o+lnBS6HLrYx4A8Vz6evbliFeVOpy6osEJPDZwkxyjQp+U7C0fiUceIdCD
ga4ND/115UwBpCyBa4aEh8DoSjBoSzXjVo7FrawhZLdvTqf+ffdtgO3eLaTYwDf2
y2WCtnqfjmzgu6AO1mLGuWC/WdQWJCt/RkcGpvfv/ZzSGtO+ftEn/LCa
-----END CERTIFICATE-----
