Certificate:
    Data:
        Version: 3 (0x2)
        Serial Number: 11042563100188 (0xa0b0c0d0e1c)
    Signature Algorithm: sha256WithRSAEncryption
        Issuer: CN=CALCUTTACA_CA, C=IN, O=CITRIX, OU=ANG, ST=KA/emailAddress=CALCUTTACA_CA@CALCUTTACA_mail.com
        Validity
            Not Before: Jul  8 04:33:06 2016 GMT
            Not After : Jul  6 04:33:06 2026 GMT
        Subject: ST=KA, C=IN, CN=114_CALCUTTACA_server/emailAddress=114_CALCUTTACA@test_ca.com, O=CITRIX
        Subject Public Key Info:
            Public Key Algorithm: rsaEncryption
                Public-Key: (2048 bit)
                Modulus:
                    00:c1:40:39:b4:bb:17:ac:77:02:75:4a:aa:1b:3f:
                    03:7f:de:6c:1b:bd:91:9f:34:d4:57:61:b4:b9:f1:
                    32:84:5c:f9:e3:99:5e:5b:5e:73:87:30:68:1e:7c:
                    5e:9d:5b:2a:5a:17:60:24:8f:87:a2:6e:3a:fc:98:
                    15:28:68:c9:20:72:94:45:21:15:ae:15:c0:d6:75:
                    13:97:7d:4d:1e:a7:5a:e1:95:c2:d1:76:00:f2:09:
                    d6:65:9d:bd:ba:61:39:59:a7:10:47:96:c3:1e:f9:
                    73:8f:ea:a3:25:05:5d:bd:17:be:a0:6c:02:65:40:
                    df:cc:47:b2:97:8e:a3:2f:fe:01:67:bb:2f:78:fd:
                    87:28:ba:a9:5d:8d:ce:b5:f9:a9:40:ba:fe:d8:5b:
                    e6:32:d9:86:0c:b6:13:40:cd:e0:d5:12:6d:f7:0d:
                    20:65:0c:a3:f1:fc:39:09:31:1a:c3:1f:08:6b:d9:
                    d0:64:bc:c2:cf:05:17:15:36:49:3e:e8:3b:d8:63:
                    7c:81:02:6e:7b:dc:81:47:91:c0:3b:3f:4d:c1:e1:
                    10:cf:08:be:a9:ae:ad:7b:d5:3e:f2:59:b9:d7:97:
                    52:9f:24:bd:64:25:40:40:e7:56:dc:69:4f:da:ff:
                    5d:21:9b:7a:81:c8:98:1c:57:f2:c7:02:0d:6a:0e:
                    d4:3f
                Exponent: 65537 (0x10001)
        X509v3 extensions:
            Netscape Cert Type: 
                SSL Server
            X509v3 Subject Key Identifier: 
                7F:DF:B4:4A:5F:23:89:A1:15:CD:DE:87:81:69:78:83:28:B4:3B:2D
            X509v3 Authority Key Identifier: 
                keyid:37:2E:7B:27:46:4B:CF:47:10:AC:2B:2E:BA:D0:F3:66:75:EB:52:75
                DirName:/CN=CALCUTTACA_CA/C=IN/O=CITRIX/OU=ANG/ST=KA/emailAddress=CALCUTTACA_CA@CALCUTTACA_mail.com
                serial:A5:C6:47:0E:E6:06:37:18

            Authority Information Access: 
                OCSP - URI:http://CALCUTTACA_two.ocsptest.com/responderpath

    Signature Algorithm: sha256WithRSAEncryption
         3d:0c:41:53:6a:91:0d:5a:84:5c:11:46:71:58:4c:48:13:eb:
         e1:48:0e:16:44:ef:39:28:53:c2:a5:b7:44:da:45:68:97:24:
         11:2f:01:8b:c9:2f:6b:de:ef:93:76:8c:db:ea:cd:ee:5b:3f:
         da:f1:b6:d2:d8:83:ee:bb:15:5b:f3:df:60:bf:da:96:6b:5e:
         6b:74:b8:32:6b:14:02:b5:34:6c:8b:6f:8e:e0:77:49:04:ee:
         c6:20:a4:61:63:f9:9d:b7:26:d7:38:7f:d2:13:a4:05:5b:20:
         5a:9b:de:e8:d5:af:4a:aa:41:75:8c:1c:84:ff:e1:31:97:3e:
         36:29:ce:ee:a8:32:fa:b5:12:4d:9c:c4:b0:0a:42:83:4f:3c:
         27:3f:66:d3:0b:d8:87:2d:28:bc:68:00:d8:29:7a:75:d5:0f:
         52:fd:8f:ea:ba:ca:55:d2:2c:cf:e4:e0:17:f1:dd:51:b8:b1:
         9a:98:06:7f:be:4e:a4:d7:80:89:44:7e:2c:bf:cd:c5:d2:1b:
         13:a8:0b:b5:f0:9e:d4:3d:08:78:24:63:bb:43:30:14:c7:39:
         2c:ee:d0:33:8c:2e:6e:82:1b:b4:27:23:86:95:a5:8e:00:26:
         6c:8f:af:67:61:9e:3d:95:58:9a:b2:85:29:ff:99:d4:bb:45:
         64:8b:a9:0c
-----BEGIN CERTIFICATE-----
MIIEuzCCA6OgAwIBAgIGCgsMDQ4cMA0GCSqGSIb3DQEBCwUAMIGDMRYwFAYDVQQD
FA1DQUxDVVRUQUNBX0NBMQswCQYDVQQGEwJJTjEPMA0GA1UEChMGQ0lUUklYMQww
CgYDVQQLEwNBTkcxCzAJBgNVBAgTAktBMTAwLgYJKoZIhvcNAQkBFiFDQUxDVVRU
QUNBX0NBQENBTENVVFRBQ0FfbWFpbC5jb20wHhcNMTYwNzA4MDQzMzA2WhcNMjYw
NzA2MDQzMzA2WjB2MQswCQYDVQQIEwJLQTELMAkGA1UEBhMCSU4xHjAcBgNVBAMU
FTExNF9DQUxDVVRUQUNBX3NlcnZlcjEpMCcGCSqGSIb3DQEJARYaMTE0X0NBTENV
VFRBQ0FAdGVzdF9jYS5jb20xDzANBgNVBAoTBkNJVFJJWDCCASIwDQYJKoZIhvcN
AQEBBQADggEPADCCAQoCggEBAMFAObS7F6x3AnVKqhs/A3/ebBu9kZ801FdhtLnx
MoRc+eOZXltec4cwaB58Xp1bKloXYCSPh6JuOvyYFShoySBylEUhFa4VwNZ1E5d9
TR6nWuGVwtF2APIJ1mWdvbphOVmnEEeWwx75c4/qoyUFXb0XvqBsAmVA38xHspeO
oy/+AWe7L3j9hyi6qV2NzrX5qUC6/thb5jLZhgy2E0DN4NUSbfcNIGUMo/H8OQkx
GsMfCGvZ0GS8ws8FFxU2ST7oO9hjfIECbnvcgUeRwDs/TcHhEM8IvqmurXvVPvJZ
udeXUp8kvWQlQEDnVtxpT9r/XSGbeoHImBxX8scCDWoO1D8CAwEAAaOCAT8wggE7
MBEGCWCGSAGG+EIBAQQEAwIGQDAdBgNVHQ4EFgQUf9+0Sl8jiaEVzd6HgWl4gyi0
Oy0wgbgGA1UdIwSBsDCBrYAUNy57J0ZLz0cQrCsuutDzZnXrUnWhgYmkgYYwgYMx
FjAUBgNVBAMUDUNBTENVVFRBQ0FfQ0ExCzAJBgNVBAYTAklOMQ8wDQYDVQQKEwZD
SVRSSVgxDDAKBgNVBAsTA0FORzELMAkGA1UECBMCS0ExMDAuBgkqhkiG9w0BCQEW
IUNBTENVVFRBQ0FfQ0FAQ0FMQ1VUVEFDQV9tYWlsLmNvbYIJAKXGRw7mBjcYMEwG
CCsGAQUFBwEBBEAwPjA8BggrBgEFBQcwAYYwaHR0cDovL0NBTENVVFRBQ0FfdHdv
Lm9jc3B0ZXN0LmNvbS9yZXNwb25kZXJwYXRoMA0GCSqGSIb3DQEBCwUAA4IBAQA9
DEFTapENWoRcEUZxWExIE+vhSA4WRO85KFPCpbdE2kVolyQRLwGLyS9r3u+Tdozb
6s3uWz/a8bbS2IPuuxVb899gv9qWa15rdLgyaxQCtTRsi2+O4HdJBO7GIKRhY/md
tybXOH/SE6QFWyBam97o1a9KqkF1jByE/+Exlz42Kc7uqDL6tRJNnMSwCkKDTzwn
P2bTC9iHLSi8aADYKXp11Q9S/Y/quspV0izP5OAX8d1RuLGamAZ/vk6k14CJRH4s
v83F0hsTqAu18J7UPQh4JGO7QzAUxzks7tAzjC5ughu0JyOGlaWOACZsj69nYZ49
lViasoUp/5nUu0Vki6kM
-----END CERTIFICATE-----
