Certificate:
    Data:
        Version: 3 (0x2)
        Serial Number: 11042563100189 (0xa0b0c0d0e1d)
    Signature Algorithm: sha256WithRSAEncryption
        Issuer: CN=KOCHICA_CA, C=IN, O=CITRIX, OU=ANG, ST=KA/emailAddress=KOCHICA_CA@KOCHICA_mail.com
        Validity
            Not Before: Jul  8 04:35:20 2016 GMT
            Not After : Jul  6 04:35:20 2026 GMT
        Subject: ST=KA, C=IN, CN=115_KOCHICA_server/emailAddress=115_KOCHICA@test_ca.com, O=CITRIX
        Subject Public Key Info:
            Public Key Algorithm: rsaEncryption
                Public-Key: (2048 bit)
                Modulus:
                    00:c2:f0:83:86:93:9e:66:88:ee:ca:d9:f7:61:9f:
                    40:15:2f:61:6c:2c:b9:62:20:ec:4d:58:3c:af:76:
                    10:2a:bd:3c:2e:db:5c:d1:ab:3f:95:9c:19:83:62:
                    5b:3c:2a:d6:a0:7a:86:b0:ee:ff:19:79:11:75:34:
                    66:22:c6:b9:61:32:be:10:77:8d:55:86:2d:be:aa:
                    f0:f4:a3:9e:e3:7e:b1:72:95:4f:53:2b:20:74:ff:
                    e1:32:d2:f1:b0:ec:75:d0:7b:3c:50:1c:0c:67:7d:
                    5a:18:8b:64:f4:d1:4f:9d:42:b2:35:d2:4f:89:f7:
                    39:83:7b:3f:13:89:2b:ce:9b:ee:f0:d3:97:ec:07:
                    8a:43:26:7b:51:86:6e:04:09:8b:59:ab:b6:42:c4:
                    4c:1d:d2:1c:6f:a8:0a:54:3b:98:3e:d3:c4:b3:09:
                    a8:0a:74:85:ef:08:c8:29:0a:89:0f:b9:56:be:86:
                    01:3b:b6:55:3e:15:06:e4:4b:b1:39:e9:3e:6c:24:
                    84:17:b7:93:77:2c:0f:1b:54:6a:f5:b5:b0:35:83:
                    0b:e8:cb:a3:01:2e:13:cb:7a:ad:38:b0:dc:a5:c6:
                    9c:25:67:6f:6f:e1:86:13:20:c9:d2:5f:65:27:91:
                    c6:8f:3f:7f:fa:21:3b:a3:f8:17:31:b7:61:ad:f9:
                    0e:15
                Exponent: 65537 (0x10001)
        X509v3 extensions:
            Netscape Cert Type: 
                SSL Server
            X509v3 Subject Key Identifier: 
                BC:42:66:89:B5:2A:D6:F2:5D:31:8C:5E:CE:F1:3D:D8:28:CA:C1:CF
            X509v3 Authority Key Identifier: 
                keyid:BD:BB:95:76:5C:F9:2D:21:29:42:22:FD:91:AF:B8:39:24:AA:7E:37
                DirName:/CN=KOCHICA_CA/C=IN/O=CITRIX/OU=ANG/ST=KA/emailAddress=KOCHICA_CA@KOCHICA_mail.com
                serial:E1:10:ED:B2:3C:3D:E3:71

            Authority Information Access: 
                OCSP - URI:http://KOCHICA_two.ocsptest.com/responderpath

    Signature Algorithm: sha256WithRSAEncryption
         57:5e:f8:f2:06:51:db:68:d0:38:b1:77:29:65:89:64:e4:5d:
         0a:e9:fd:08:33:a1:2e:e4:b3:72:51:54:c4:8c:8b:05:17:43:
         99:f1:25:cd:73:41:88:61:65:fd:a9:b5:72:ea:df:1d:ea:ea:
         9d:ee:8c:65:61:4e:de:9d:fd:6f:5f:8f:f9:9c:91:8f:82:2f:
         91:6f:48:cc:c3:cb:af:d1:5d:d6:f1:77:b9:f5:12:ef:60:af:
         13:a4:89:b4:5e:84:7b:66:b4:ab:b7:c1:d3:30:3f:f8:7b:81:
         72:fd:cb:0d:42:4f:81:0a:9e:7b:6e:77:3d:86:f6:b5:be:32:
         0d:f0:74:55:6d:75:27:73:b0:fb:b1:86:85:2a:b1:64:13:29:
         08:4b:d1:e0:3d:07:00:ca:f8:21:b6:23:e0:f2:ed:ab:42:2c:
         0a:8a:4e:4c:74:e3:72:e2:04:24:5c:b8:3c:ca:e4:43:91:e4:
         fd:7a:8a:81:f9:5e:da:4b:77:78:4b:db:2f:14:d8:df:9d:2f:
         3f:f3:eb:e3:11:bf:0f:6b:94:af:32:ea:ab:59:18:95:f9:64:
         c3:2a:45:e8:eb:93:ff:65:5a:87:80:d0:51:f9:65:86:d1:cb:
         f8:d5:0c:e2:39:e5:fb:fe:07:83:bb:60:d3:a4:1f:98:86:c0:
         67:d9:a7:e5
-----BEGIN CERTIFICATE-----
MIIEnDCCA4SgAwIBAgIGCgsMDQ4dMA0GCSqGSIb3DQEBCwUAMHoxEzARBgNVBAMU
CktPQ0hJQ0FfQ0ExCzAJBgNVBAYTAklOMQ8wDQYDVQQKEwZDSVRSSVgxDDAKBgNV
BAsTA0FORzELMAkGA1UECBMCS0ExKjAoBgkqhkiG9w0BCQEWG0tPQ0hJQ0FfQ0FA
S09DSElDQV9tYWlsLmNvbTAeFw0xNjA3MDgwNDM1MjBaFw0yNjA3MDYwNDM1MjBa
MHAxCzAJBgNVBAgTAktBMQswCQYDVQQGEwJJTjEbMBkGA1UEAxQSMTE1X0tPQ0hJ
Q0Ffc2VydmVyMSYwJAYJKoZIhvcNAQkBFhcxMTVfS09DSElDQUB0ZXN0X2NhLmNv
bTEPMA0GA1UEChMGQ0lUUklYMIIBIjANBgkqhkiG9w0BAQEFAAOCAQ8AMIIBCgKC
AQEAwvCDhpOeZojuytn3YZ9AFS9hbCy5YiDsTVg8r3YQKr08Lttc0as/lZwZg2Jb
PCrWoHqGsO7/GXkRdTRmIsa5YTK+EHeNVYYtvqrw9KOe436xcpVPUysgdP/hMtLx
sOx10Hs8UBwMZ31aGItk9NFPnUKyNdJPifc5g3s/E4krzpvu8NOX7AeKQyZ7UYZu
BAmLWau2QsRMHdIcb6gKVDuYPtPEswmoCnSF7wjIKQqJD7lWvoYBO7ZVPhUG5Eux
Oek+bCSEF7eTdywPG1Rq9bWwNYML6MujAS4Ty3qtOLDcpcacJWdvb+GGEyDJ0l9l
J5HGjz9/+iE7o/gXMbdhrfkOFQIDAQABo4IBMDCCASwwEQYJYIZIAYb4QgEBBAQD
AgZAMB0GA1UdDgQWBBS8QmaJtSrW8l0xjF7O8T3YKMrBzzCBrAYDVR0jBIGkMIGh
gBS9u5V2XPktISlCIv2Rr7g5JKp+N6F+pHwwejETMBEGA1UEAxQKS09DSElDQV9D
QTELMAkGA1UEBhMCSU4xDzANBgNVBAoTBkNJVFJJWDEMMAoGA1UECxMDQU5HMQsw
CQYDVQQIEwJLQTEqMCgGCSqGSIb3DQEJARYbS09DSElDQV9DQUBLT0NISUNBX21h
aWwuY29tggkA4RDtsjw943EwSQYIKwYBBQUHAQEEPTA7MDkGCCsGAQUFBzABhi1o
dHRwOi8vS09DSElDQV90d28ub2NzcHRlc3QuY29tL3Jlc3BvbmRlcnBhdGgwDQYJ
KoZIhvcNAQELBQADggEBAFde+PIGUdto0DixdylliWTkXQrp/QgzoS7ks3JRVMSM
iwUXQ5nxJc1zQYhhZf2ptXLq3x3q6p3ujGVhTt6d/W9fj/mckY+CL5FvSMzDy6/R
Xdbxd7n1Eu9grxOkibRehHtmtKu3wdMwP/h7gXL9yw1CT4EKnntudz2G9rW+Mg3w
dFVtdSdzsPuxhoUqsWQTKQhL0eA9BwDK+CG2I+Dy7atCLAqKTkx043LiBCRcuDzK
5EOR5P16ioH5XtpLd3hL2y8U2N+dLz/z6+MRvw9rlK8y6qtZGJX5ZMMqRejrk/9l
WoeA0FH5ZYbRy/jVDOI55fv+B4O7YNOkH5iGwGfZp+U=
-----END CERTIFICATE-----
