Certificate:
    Data:
        Version: 3 (0x2)
        Serial Number: 11042563100189 (0xa0b0c0d0e1d)
    Signature Algorithm: sha256WithRSAEncryption
        Issuer: CN=PATNACA_CA, C=IN, O=CITRIX, OU=ANG, ST=KA/emailAddress=PATNACA_CA@PATNACA_mail.com
        Validity
            Not Before: Jul  8 04:38:26 2016 GMT
            Not After : Jul  6 04:38:26 2026 GMT
        Subject: ST=KA, C=IN, CN=115_PATNACA_server/emailAddress=115_PATNACA@test_ca.com, O=CITRIX
        Subject Public Key Info:
            Public Key Algorithm: rsaEncryption
                Public-Key: (2048 bit)
                Modulus:
                    00:9e:3d:f6:e9:7d:60:07:b3:dd:6e:62:e2:68:f8:
                    b8:3a:75:78:30:cb:01:59:f4:60:c5:dc:91:bd:14:
                    1a:1d:f9:86:12:26:7f:54:d2:a3:f0:47:f1:da:f3:
                    f5:df:78:47:3f:9d:c7:7a:c6:0f:21:4d:82:70:69:
                    cd:44:35:b9:49:a3:fe:b2:ce:3d:79:26:3a:92:54:
                    38:09:bd:10:89:32:33:55:5a:94:6d:02:58:b1:85:
                    97:15:70:8f:d5:65:80:1c:c4:99:67:27:2b:74:9d:
                    ba:3c:77:a2:d3:59:ff:34:66:a3:25:89:5a:da:9a:
                    8a:3a:d2:70:84:dd:e9:6b:6c:47:bc:5a:64:82:61:
                    0b:42:e4:c2:08:55:58:a2:2a:0f:ef:06:b0:f4:1e:
                    ed:36:a0:56:c1:2b:35:16:91:e7:a7:88:7f:65:7e:
                    2d:65:18:f6:14:d9:d0:d5:0e:53:e1:d4:16:6c:89:
                    73:5f:a6:88:b3:bf:39:24:99:b2:38:c4:27:85:50:
                    65:bb:79:cc:7d:3b:d2:89:f0:37:ab:ce:07:15:15:
                    91:bf:a8:7c:3f:fa:00:fc:41:88:72:3c:74:a8:4c:
                    40:c2:36:05:e2:d2:15:4e:f3:80:c2:7f:11:87:bb:
                    7e:f6:6b:2b:48:42:0d:cf:e8:91:f7:6f:23:e9:9a:
                    07:73
                Exponent: 65537 (0x10001)
        X509v3 extensions:
            Netscape Cert Type: 
                SSL Server
            X509v3 Subject Key Identifier: 
                A0:58:B0:D9:17:D6:BB:68:4F:01:E4:DF:0A:DB:47:6B:93:A2:20:33
            X509v3 Authority Key Identifier: 
                keyid:FF:DF:C4:8D:AF:64:E1:E3:17:FA:96:EE:F1:75:A7:ED:A7:C3:91:B8
                DirName:/CN=PATNACA_CA/C=IN/O=CITRIX/OU=ANG/ST=KA/emailAddress=PATNACA_CA@PATNACA_mail.com
                serial:9F:2E:15:76:F0:BD:C1:6F

            Authority Information Access: 
                OCSP - URI:http://PATNACA_two.ocsptest.com/responderpath

    Signature Algorithm: sha256WithRSAEncryption
         88:aa:98:6d:de:aa:90:7c:f9:79:43:83:ed:f9:5a:fa:15:62:
         e0:5b:ef:aa:71:49:ef:fe:d9:02:f0:99:0b:82:40:20:ab:74:
         19:f8:9e:55:b2:b5:91:56:9f:92:8e:0c:fc:2b:14:9a:5c:a2:
         4d:36:06:9d:61:f0:0d:d7:2b:40:86:d8:3a:b8:3f:56:81:bc:
         12:3a:bf:e1:24:bd:be:18:8d:a7:97:40:5a:bb:ab:b6:4c:d4:
         b3:81:c2:ab:51:7f:6c:83:d4:41:b8:4d:48:93:3c:a8:92:44:
         4f:cb:04:c6:73:03:4b:62:7f:f4:2d:56:44:7c:cb:4e:8e:6f:
         46:d2:b8:95:de:8b:61:6a:f2:2a:a9:65:b7:af:31:2d:0b:0a:
         90:03:3c:55:c7:05:ae:28:9f:2a:b6:fc:77:64:ad:55:d7:ca:
         ab:13:37:e8:af:b5:77:b2:d5:e3:a6:d0:0f:1c:5e:a2:8d:51:
         12:69:f5:7c:3a:57:17:ab:c7:9a:cf:5e:d7:3c:5c:2f:73:33:
         96:f7:38:a0:35:8d:3b:eb:70:b1:7f:d4:a1:38:ff:25:0d:94:
         f9:cd:2f:a4:2a:97:40:e4:e4:4a:4f:af:b6:d5:4b:72:c5:cc:
         05:30:6f:f6:3f:64:51:74:06:fc:a5:d2:30:cd:5f:de:f3:85:
         1e:8c:9e:c7
-----BEGIN CERTIFICATE-----
MIIEnDCCA4SgAwIBAgIGCgsMDQ4dMA0GCSqGSIb3DQEBCwUAMHoxEzARBgNVBAMU
ClBBVE5BQ0FfQ0ExCzAJBgNVBAYTAklOMQ8wDQYDVQQKEwZDSVRSSVgxDDAKBgNV
BAsTA0FORzELMAkGA1UECBMCS0ExKjAoBgkqhkiG9w0BCQEWG1BBVE5BQ0FfQ0FA
UEFUTkFDQV9tYWlsLmNvbTAeFw0xNjA3MDgwNDM4MjZaFw0yNjA3MDYwNDM4MjZa
MHAxCzAJBgNVBAgTAktBMQswCQYDVQQGEwJJTjEbMBkGA1UEAxQSMTE1X1BBVE5B
Q0Ffc2VydmVyMSYwJAYJKoZIhvcNAQkBFhcxMTVfUEFUTkFDQUB0ZXN0X2NhLmNv
bTEPMA0GA1UEChMGQ0lUUklYMIIBIjANBgkqhkiG9w0BAQEFAAOCAQ8AMIIBCgKC
AQEAnj326X1gB7PdbmLiaPi4OnV4MMsBWfRgxdyRvRQaHfmGEiZ/VNKj8Efx2vP1
33hHP53HesYPIU2CcGnNRDW5SaP+ss49eSY6klQ4Cb0QiTIzVVqUbQJYsYWXFXCP
1WWAHMSZZycrdJ26PHei01n/NGajJYla2pqKOtJwhN3pa2xHvFpkgmELQuTCCFVY
oioP7waw9B7tNqBWwSs1FpHnp4h/ZX4tZRj2FNnQ1Q5T4dQWbIlzX6aIs785JJmy
OMQnhVBlu3nMfTvSifA3q84HFRWRv6h8P/oA/EGIcjx0qExAwjYF4tIVTvOAwn8R
h7t+9msrSEINz+iR928j6ZoHcwIDAQABo4IBMDCCASwwEQYJYIZIAYb4QgEBBAQD
AgZAMB0GA1UdDgQWBBSgWLDZF9a7aE8B5N8K20drk6IgMzCBrAYDVR0jBIGkMIGh
gBT/38SNr2Th4xf6lu7xdaftp8ORuKF+pHwwejETMBEGA1UEAxQKUEFUTkFDQV9D
QTELMAkGA1UEBhMCSU4xDzANBgNVBAoTBkNJVFJJWDEMMAoGA1UECxMDQU5HMQsw
CQYDVQQIEwJLQTEqMCgGCSqGSIb3DQEJARYbUEFUTkFDQV9DQUBQQVROQUNBX21h
aWwuY29tggkAny4VdvC9wW8wSQYIKwYBBQUHAQEEPTA7MDkGCCsGAQUFBzABhi1o
dHRwOi8vUEFUTkFDQV90d28ub2NzcHRlc3QuY29tL3Jlc3BvbmRlcnBhdGgwDQYJ
KoZIhvcNAQELBQADggEBAIiqmG3eqpB8+XlDg+35WvoVYuBb76pxSe/+2QLwmQuC
QCCrdBn4nlWytZFWn5KODPwrFJpcok02Bp1h8A3XK0CG2Dq4P1aBvBI6v+Ekvb4Y
jaeXQFq7q7ZM1LOBwqtRf2yD1EG4TUiTPKiSRE/LBMZzA0tif/QtVkR8y06Ob0bS
uJXei2Fq8iqpZbevMS0LCpADPFXHBa4onyq2/HdkrVXXyqsTN+ivtXey1eOm0A8c
XqKNURJp9Xw6Vxerx5rPXtc8XC9zM5b3OKA1jTvrcLF/1KE4/yUNlPnNL6Qql0Dk
5EpPr7bVS3LFzAUwb/Y/ZFF0Bvyl0jDNX97zhR6Mnsc=
-----END CERTIFICATE-----
