Certificate:
    Data:
        Version: 3 (0x2)
        Serial Number: 11042563100189 (0xa0b0c0d0e1d)
    Signature Algorithm: sha256WithRSAEncryption
        Issuer: CN=GOACA_CA, C=IN, O=CITRIX, OU=ANG, ST=KA/emailAddress=GOACA_CA@GOACA_mail.com
        Validity
            Not Before: Jul  8 04:34:56 2016 GMT
            Not After : Jul  6 04:34:56 2026 GMT
        Subject: ST=KA, C=IN, CN=115_GOACA_server/emailAddress=115_GOACA@test_ca.com, O=CITRIX
        Subject Public Key Info:
            Public Key Algorithm: rsaEncryption
                Public-Key: (2048 bit)
                Modulus:
                    00:a4:88:38:44:ec:27:9d:cc:c9:dc:29:fd:a9:0c:
                    68:5a:ce:3b:9d:96:35:a7:5f:63:03:cd:5d:eb:7b:
                    ad:5d:e4:0d:5e:c1:73:40:7e:0d:d8:fa:d5:91:02:
                    9f:b6:c0:98:42:be:40:fa:22:52:9f:f6:3e:5e:06:
                    fc:e6:9e:58:7f:84:a7:2d:69:94:f3:5e:88:80:6a:
                    87:d9:31:1b:8e:4b:9b:1a:8f:02:64:92:2d:bb:e8:
                    13:79:b7:29:de:e0:b1:7f:fb:f4:8f:02:d9:d9:b7:
                    83:5e:28:34:9f:9f:fb:b2:10:31:81:4b:6c:0f:1c:
                    f3:df:9e:67:80:17:c1:c0:35:40:ae:7c:3c:ab:b2:
                    71:f1:24:5d:b2:94:a3:4b:da:3f:32:4a:ce:02:24:
                    49:b6:4b:8c:f3:f4:8b:75:06:62:ee:25:9f:84:32:
                    d8:4a:44:38:92:52:e6:b4:bf:0f:4a:1e:13:de:e8:
                    69:8b:35:14:d1:9e:19:5a:35:48:78:0c:7a:cb:05:
                    93:44:df:7c:8e:52:78:79:47:81:01:30:25:e3:79:
                    e7:7d:21:09:a0:73:58:57:11:05:4c:ca:16:ba:92:
                    6e:d0:db:6c:79:7c:58:17:97:57:0b:ee:0e:af:9f:
                    77:da:35:e2:2f:b9:90:44:b6:7d:7f:d6:de:2a:6d:
                    41:3b
                Exponent: 65537 (0x10001)
        X509v3 extensions:
            Netscape Cert Type: 
                SSL Server
            X509v3 Subject Key Identifier: 
                88:F2:9B:F9:26:04:03:64:A2:9D:0B:D6:2B:B5:CC:95:66:73:05:3A
            X509v3 Authority Key Identifier: 
                keyid:81:03:00:D4:DC:70:D9:A7:03:08:1E:DC:9B:4C:AC:E6:59:CD:39:68
                DirName:/CN=GOACA_CA/C=IN/O=CITRIX/OU=ANG/ST=KA/emailAddress=GOACA_CA@GOACA_mail.com
                serial:FC:8B:0A:90:01:17:5F:1C

            Authority Information Access: 
                OCSP - URI:http://GOACA_two.ocsptest.com/responderpath

    Signature Algorithm: sha256WithRSAEncryption
         98:a0:d8:ec:e4:e5:73:09:fd:5f:21:09:e5:11:d4:2a:01:f6:
         34:23:44:7f:0a:f6:d6:28:58:2f:08:69:df:3e:2b:96:d5:d2:
         48:97:e4:ca:08:3e:a8:35:85:ad:bc:ce:55:16:e3:e9:08:c4:
         e4:5d:c5:3b:da:47:b6:a7:b7:b9:5c:92:ba:ff:25:e1:8e:28:
         16:4b:ee:a0:c6:fd:7a:88:56:b7:94:0c:b6:fd:ee:ed:97:99:
         03:c1:dc:2d:98:03:c8:70:5c:26:eb:34:fa:db:86:7d:27:73:
         ea:f8:74:92:de:25:c8:61:8c:ca:dc:83:80:2c:7a:20:81:50:
         66:41:6a:c3:dd:40:43:00:93:3b:7c:95:5a:2b:81:3f:11:ef:
         f5:36:29:bb:f5:38:f6:aa:9f:d1:5e:bc:03:2d:37:2e:81:8a:
         4b:82:9c:cd:47:0a:70:6e:a1:aa:78:a5:b7:22:b3:2e:c0:2c:
         fe:a2:2f:9b:c9:a9:69:8a:f6:fa:dc:25:00:df:3d:e4:90:e8:
         76:34:02:89:c7:b9:d9:94:97:3c:0a:ae:e2:7d:a8:6c:5c:5e:
         58:4d:97:c4:77:18:9d:54:88:6b:04:93:fd:74:d5:a6:6a:b4:
         8d:5e:f9:9b:0e:19:64:d2:5e:e7:f7:73:f0:e1:a5:47:74:e8:
         6d:82:99:6e
-----BEGIN CERTIFICATE-----
MIIEijCCA3KgAwIBAgIGCgsMDQ4dMA0GCSqGSIb3DQEBCwUAMHQxETAPBgNVBAMU
CEdPQUNBX0NBMQswCQYDVQQGEwJJTjEPMA0GA1UEChMGQ0lUUklYMQwwCgYDVQQL
EwNBTkcxCzAJBgNVBAgTAktBMSYwJAYJKoZIhvcNAQkBFhdHT0FDQV9DQUBHT0FD
QV9tYWlsLmNvbTAeFw0xNjA3MDgwNDM0NTZaFw0yNjA3MDYwNDM0NTZaMGwxCzAJ
BgNVBAgTAktBMQswCQYDVQQGEwJJTjEZMBcGA1UEAxQQMTE1X0dPQUNBX3NlcnZl
cjEkMCIGCSqGSIb3DQEJARYVMTE1X0dPQUNBQHRlc3RfY2EuY29tMQ8wDQYDVQQK
EwZDSVRSSVgwggEiMA0GCSqGSIb3DQEBAQUAA4IBDwAwggEKAoIBAQCkiDhE7Ced
zMncKf2pDGhazjudljWnX2MDzV3re61d5A1ewXNAfg3Y+tWRAp+2wJhCvkD6IlKf
9j5eBvzmnlh/hKctaZTzXoiAaofZMRuOS5sajwJkki276BN5tyne4LF/+/SPAtnZ
t4NeKDSfn/uyEDGBS2wPHPPfnmeAF8HANUCufDyrsnHxJF2ylKNL2j8ySs4CJEm2
S4zz9It1BmLuJZ+EMthKRDiSUua0vw9KHhPe6GmLNRTRnhlaNUh4DHrLBZNE33yO
Unh5R4EBMCXjeed9IQmgc1hXEQVMyha6km7Q22x5fFgXl1cL7g6vn3faNeIvuZBE
tn1/1t4qbUE7AgMBAAGjggEoMIIBJDARBglghkgBhvhCAQEEBAMCBkAwHQYDVR0O
BBYEFIjym/kmBANkop0L1iu1zJVmcwU6MIGmBgNVHSMEgZ4wgZuAFIEDANTccNmn
Awge3JtMrOZZzTlooXikdjB0MREwDwYDVQQDFAhHT0FDQV9DQTELMAkGA1UEBhMC
SU4xDzANBgNVBAoTBkNJVFJJWDEMMAoGA1UECxMDQU5HMQswCQYDVQQIEwJLQTEm
MCQGCSqGSIb3DQEJARYXR09BQ0FfQ0FAR09BQ0FfbWFpbC5jb22CCQD8iwqQARdf
HDBHBggrBgEFBQcBAQQ7MDkwNwYIKwYBBQUHMAGGK2h0dHA6Ly9HT0FDQV90d28u
b2NzcHRlc3QuY29tL3Jlc3BvbmRlcnBhdGgwDQYJKoZIhvcNAQELBQADggEBAJig
2Ozk5XMJ/V8hCeUR1CoB9jQjRH8K9tYoWC8Iad8+K5bV0kiX5MoIPqg1ha28zlUW
4+kIxORdxTvaR7ant7lckrr/JeGOKBZL7qDG/XqIVreUDLb97u2XmQPB3C2YA8hw
XCbrNPrbhn0nc+r4dJLeJchhjMrcg4AseiCBUGZBasPdQEMAkzt8lVorgT8R7/U2
Kbv1OPaqn9FevAMtNy6BikuCnM1HCnBuoap4pbcisy7ALP6iL5vJqWmK9vrcJQDf
PeSQ6HY0AonHudmUlzwKruJ9qGxcXlhNl8R3GJ1UiGsEk/101aZqtI1e+ZsOGWTS
Xuf3c/DhpUd06G2CmW4=
-----END CERTIFICATE-----
