Certificate:
    Data:
        Version: 3 (0x2)
        Serial Number: 11042563100189 (0xa0b0c0d0e1d)
    Signature Algorithm: sha256WithRSAEncryption
        Issuer: CN=CHENNAICA_CA, C=IN, O=CITRIX, OU=ANG, ST=KA/emailAddress=CHENNAICA_CA@CHENNAICA_mail.com
        Validity
            Not Before: Jul  8 04:33:52 2016 GMT
            Not After : Jul  6 04:33:52 2026 GMT
        Subject: ST=KA, C=IN, CN=115_CHENNAICA_server/emailAddress=115_CHENNAICA@test_ca.com, O=CITRIX
        Subject Public Key Info:
            Public Key Algorithm: rsaEncryption
                Public-Key: (2048 bit)
                Modulus:
                    00:c5:ba:3f:9c:a8:3c:f1:9e:99:8e:e6:e1:64:87:
                    90:76:cf:44:d1:c5:ef:fd:de:3b:47:91:a0:cd:6e:
                    ab:df:22:cb:bf:5d:d6:8f:d3:ce:ba:6c:cb:eb:de:
                    56:b9:01:cb:b9:4d:47:b6:6d:4b:90:ab:d9:3f:2f:
                    9f:25:0f:ba:9a:fb:8d:ce:a9:f3:e2:3a:c5:06:05:
                    ee:22:3f:15:8d:10:bb:28:3a:7d:24:17:8f:ae:8d:
                    f2:3d:a3:5c:95:4a:00:81:a3:de:39:fd:e1:bf:a4:
                    e3:be:f9:fc:a4:ac:e0:81:96:48:2d:c5:c1:25:33:
                    b8:20:74:b0:df:ec:9d:e2:52:a2:75:12:b4:b2:80:
                    13:9e:02:4b:aa:b9:2b:01:59:ee:a2:62:68:f9:30:
                    65:92:2d:28:e8:51:9a:19:61:2d:47:51:01:d9:37:
                    42:3d:63:d5:94:11:3a:17:55:8f:54:64:1c:d8:64:
                    a9:97:39:ba:d8:5b:48:12:a6:a7:b4:84:81:0b:60:
                    1a:4d:02:9f:5c:bd:55:d7:89:d3:5a:c5:8a:72:97:
                    8d:48:0c:fb:fe:82:16:37:72:c3:eb:4c:28:47:c5:
                    9b:d9:34:c9:c0:2d:4b:a6:8e:1e:25:83:be:94:ec:
                    5d:56:ba:77:f4:0a:59:c7:d0:e5:3c:62:a8:a5:1c:
                    b1:95
                Exponent: 65537 (0x10001)
        X509v3 extensions:
            Netscape Cert Type: 
                SSL Server
            X509v3 Subject Key Identifier: 
                B6:61:42:CB:3D:1A:63:6A:A2:C5:3A:BB:4E:E8:FC:F7:32:ED:77:B5
            X509v3 Authority Key Identifier: 
                keyid:BE:CA:53:AC:65:89:18:02:1E:F6:53:A2:50:12:94:60:EC:CC:05:FA
                DirName:/CN=CHENNAICA_CA/C=IN/O=CITRIX/OU=ANG/ST=KA/emailAddress=CHENNAICA_CA@CHENNAICA_mail.com
                serial:87:FB:C4:D4:5E:46:56:70

            Authority Information Access: 
                OCSP - URI:http://CHENNAICA_two.ocsptest.com/responderpath

    Signature Algorithm: sha256WithRSAEncryption
         76:47:14:9c:e8:18:64:80:ea:18:d1:bb:73:f0:4f:70:b9:32:
         31:56:cb:cc:28:e7:63:68:de:f8:d6:22:a1:a5:0d:b2:b4:2c:
         6f:1b:a2:e3:12:de:b3:fa:ec:3b:aa:21:7b:19:da:16:f5:9c:
         ae:e0:a7:a1:d2:6a:53:30:f6:8e:cd:13:c7:a0:09:a2:8e:07:
         08:fb:4c:95:f4:41:ae:30:f4:ef:6b:a9:1e:37:e7:0a:46:fb:
         a9:62:84:2c:ca:6b:b9:7f:9b:94:be:c0:4e:ec:48:bc:5d:56:
         c8:04:2d:2a:32:67:ca:58:53:96:25:cd:70:23:e1:f7:d7:08:
         1d:7c:a3:93:3d:6c:4e:aa:61:bf:65:e5:4d:8c:59:5e:25:2b:
         02:9f:50:37:51:13:cc:eb:b9:3a:22:72:68:a7:fe:e9:7f:32:
         e7:a6:c1:bf:ae:f2:bb:29:dd:90:e0:a7:b4:31:d6:93:bc:41:
         7c:f5:af:0b:de:9c:13:14:4d:c1:ac:92:00:e7:1a:13:bf:69:
         6b:11:8d:fe:1f:54:ee:59:04:78:c7:54:6c:f2:2b:4a:4e:20:
         33:a6:e9:93:38:90:fb:00:28:2d:62:b2:7f:f7:b3:b8:79:1e:
         67:a1:79:ab:87:67:37:dc:62:9e:3c:52:92:bc:19:4b:7e:7d:
         db:f0:e6:bb
-----BEGIN CERTIFICATE-----
MIIEsjCCA5qgAwIBAgIGCgsMDQ4dMA0GCSqGSIb3DQEBCwUAMIGAMRUwEwYDVQQD
FAxDSEVOTkFJQ0FfQ0ExCzAJBgNVBAYTAklOMQ8wDQYDVQQKEwZDSVRSSVgxDDAK
BgNVBAsTA0FORzELMAkGA1UECBMCS0ExLjAsBgkqhkiG9w0BCQEWH0NIRU5OQUlD
QV9DQUBDSEVOTkFJQ0FfbWFpbC5jb20wHhcNMTYwNzA4MDQzMzUyWhcNMjYwNzA2
MDQzMzUyWjB0MQswCQYDVQQIEwJLQTELMAkGA1UEBhMCSU4xHTAbBgNVBAMUFDEx
NV9DSEVOTkFJQ0Ffc2VydmVyMSgwJgYJKoZIhvcNAQkBFhkxMTVfQ0hFTk5BSUNB
QHRlc3RfY2EuY29tMQ8wDQYDVQQKEwZDSVRSSVgwggEiMA0GCSqGSIb3DQEBAQUA
A4IBDwAwggEKAoIBAQDFuj+cqDzxnpmO5uFkh5B2z0TRxe/93jtHkaDNbqvfIsu/
XdaP0866bMvr3la5Acu5TUe2bUuQq9k/L58lD7qa+43OqfPiOsUGBe4iPxWNELso
On0kF4+ujfI9o1yVSgCBo945/eG/pOO++fykrOCBlkgtxcElM7ggdLDf7J3iUqJ1
ErSygBOeAkuquSsBWe6iYmj5MGWSLSjoUZoZYS1HUQHZN0I9Y9WUEToXVY9UZBzY
ZKmXObrYW0gSpqe0hIELYBpNAp9cvVXXidNaxYpyl41IDPv+ghY3csPrTChHxZvZ
NMnALUumjh4lg76U7F1Wunf0ClnH0OU8YqilHLGVAgMBAAGjggE7MIIBNzARBglg
hkgBhvhCAQEEBAMCBkAwHQYDVR0OBBYEFLZhQss9GmNqosU6u07o/Pcy7Xe1MIG1
BgNVHSMEga0wgaqAFL7KU6xliRgCHvZTolASlGDszAX6oYGGpIGDMIGAMRUwEwYD
VQQDFAxDSEVOTkFJQ0FfQ0ExCzAJBgNVBAYTAklOMQ8wDQYDVQQKEwZDSVRSSVgx
DDAKBgNVBAsTA0FORzELMAkGA1UECBMCS0ExLjAsBgkqhkiG9w0BCQEWH0NIRU5O
QUlDQV9DQUBDSEVOTkFJQ0FfbWFpbC5jb22CCQCH+8TUXkZWcDBLBggrBgEFBQcB
AQQ/MD0wOwYIKwYBBQUHMAGGL2h0dHA6Ly9DSEVOTkFJQ0FfdHdvLm9jc3B0ZXN0
LmNvbS9yZXNwb25kZXJwYXRoMA0GCSqGSIb3DQEBCwUAA4IBAQB2RxSc6BhkgOoY
0btz8E9wuTIxVsvMKOdjaN741iKhpQ2ytCxvG6LjEt6z+uw7qiF7GdoW9Zyu4Keh
0mpTMPaOzRPHoAmijgcI+0yV9EGuMPTva6keN+cKRvupYoQsymu5f5uUvsBO7Ei8
XVbIBC0qMmfKWFOWJc1wI+H31wgdfKOTPWxOqmG/ZeVNjFleJSsCn1A3URPM67k6
InJop/7pfzLnpsG/rvK7Kd2Q4Ke0MdaTvEF89a8L3pwTFE3BrJIA5xoTv2lrEY3+
H1TuWQR4x1Rs8itKTiAzpumTOJD7ACgtYrJ/97O4eR5noXmrh2c33GKePFKSvBlL
fn3b8Oa7
-----END CERTIFICATE-----
