Certificate:
    Data:
        Version: 3 (0x2)
        Serial Number: 11042563100189 (0xa0b0c0d0e1d)
    Signature Algorithm: sha256WithRSAEncryption
        Issuer: CN=CALCUTTACA_CA, C=IN, O=CITRIX, OU=ANG, ST=KA/emailAddress=CALCUTTACA_CA@CALCUTTACA_mail.com
        Validity
            Not Before: Jul  8 04:33:07 2016 GMT
            Not After : Jul  6 04:33:07 2026 GMT
        Subject: ST=KA, C=IN, CN=115_CALCUTTACA_server/emailAddress=115_CALCUTTACA@test_ca.com, O=CITRIX
        Subject Public Key Info:
            Public Key Algorithm: rsaEncryption
                Public-Key: (2048 bit)
                Modulus:
                    00:aa:22:4c:88:16:6f:fc:bc:69:bb:2a:12:e8:7f:
                    e4:00:bb:5e:ab:a7:67:d1:05:86:f3:d3:3e:28:88:
                    d7:ca:66:a8:2a:b7:2e:59:f7:b8:24:52:54:2d:6d:
                    fe:0e:6b:d5:c0:c8:75:96:e3:46:29:4f:28:98:a3:
                    d9:15:70:6e:ae:be:0a:80:51:01:4f:dd:0c:d4:b5:
                    9c:22:43:54:1f:c8:74:77:99:f8:86:0d:d1:e0:58:
                    d6:c6:6b:1b:79:fe:ee:6f:ac:22:c4:0c:49:98:36:
                    69:b9:d8:79:1a:cf:4d:f3:9b:ed:43:ec:a4:e5:b1:
                    47:0f:76:06:cb:a1:22:34:9d:70:88:fe:41:c0:55:
                    35:21:2f:52:7f:9a:3f:be:30:b6:c8:43:39:b0:4b:
                    7b:29:75:19:82:89:a2:7e:48:8f:22:cb:f8:ae:6e:
                    2e:80:b9:5a:6f:8b:87:32:7e:f9:2a:6c:1d:eb:96:
                    ed:4d:6a:05:f8:85:bf:71:fa:2e:24:89:2b:ef:7e:
                    f3:06:4c:4d:ce:80:3d:0c:54:a4:d3:ca:d3:c7:e0:
                    f1:ec:58:a5:0a:7f:86:da:13:be:9d:a6:8f:d5:e6:
                    2b:9a:48:6c:50:d9:a3:bb:ed:98:f4:7f:ef:d5:fa:
                    83:52:a8:34:a0:5d:2d:8f:aa:35:a6:93:f6:0e:f4:
                    9c:23
                Exponent: 65537 (0x10001)
        X509v3 extensions:
            Netscape Cert Type: 
                SSL Server
            X509v3 Subject Key Identifier: 
                87:83:61:BF:C3:61:4A:13:8E:5A:FD:F5:68:C6:5C:83:3E:7D:01:5D
            X509v3 Authority Key Identifier: 
                keyid:37:2E:7B:27:46:4B:CF:47:10:AC:2B:2E:BA:D0:F3:66:75:EB:52:75
                DirName:/CN=CALCUTTACA_CA/C=IN/O=CITRIX/OU=ANG/ST=KA/emailAddress=CALCUTTACA_CA@CALCUTTACA_mail.com
                serial:A5:C6:47:0E:E6:06:37:18

            Authority Information Access: 
                OCSP - URI:http://CALCUTTACA_two.ocsptest.com/responderpath

    Signature Algorithm: sha256WithRSAEncryption
         0e:da:d8:8c:bc:e4:6f:c4:78:97:55:e6:cd:13:f8:eb:a8:54:
         57:df:a1:82:91:37:bd:78:18:95:0d:47:3f:91:6c:fa:2d:6e:
         39:fb:8e:12:81:d0:d9:5a:0e:51:63:ee:4d:3e:7c:eb:77:e6:
         8a:b1:1d:f0:7f:db:16:f4:0c:58:d0:25:40:c5:a6:de:b7:f0:
         1b:cf:d0:2a:71:a5:59:fe:a9:ab:88:8f:84:80:b0:7a:73:8a:
         03:30:58:9d:cc:51:a8:93:fa:e6:fa:f9:a5:50:e3:94:1b:52:
         cc:32:6a:5e:1a:56:71:ad:07:23:00:2e:ad:97:66:64:04:21:
         fd:1b:2e:76:a6:53:54:e6:98:6c:9c:28:f0:e1:1c:6a:f8:dc:
         e1:8c:eb:fc:d7:ac:83:d0:dc:67:f5:f7:3b:b2:93:4e:0d:ad:
         46:15:1c:76:3b:71:e6:f9:5b:96:4e:36:1a:2b:90:0d:37:15:
         5b:49:f3:cb:c9:31:04:9e:9e:ad:7c:fc:2f:9f:ae:56:9a:80:
         fc:c8:51:1f:ff:62:1d:30:be:12:c1:d6:2d:50:ab:a7:d3:82:
         2c:25:29:cd:7d:c9:2f:00:67:11:03:81:6e:cc:0b:e7:b4:3d:
         45:ad:6c:84:b4:59:35:68:35:0e:6c:fa:f2:a8:52:b9:df:c3:
         d2:5f:4a:c7
-----BEGIN CERTIFICATE-----
MIIEuzCCA6OgAwIBAgIGCgsMDQ4dMA0GCSqGSIb3DQEBCwUAMIGDMRYwFAYDVQQD
FA1DQUxDVVRUQUNBX0NBMQswCQYDVQQGEwJJTjEPMA0GA1UEChMGQ0lUUklYMQww
CgYDVQQLEwNBTkcxCzAJBgNVBAgTAktBMTAwLgYJKoZIhvcNAQkBFiFDQUxDVVRU
QUNBX0NBQENBTENVVFRBQ0FfbWFpbC5jb20wHhcNMTYwNzA4MDQzMzA3WhcNMjYw
NzA2MDQzMzA3WjB2MQswCQYDVQQIEwJLQTELMAkGA1UEBhMCSU4xHjAcBgNVBAMU
FTExNV9DQUxDVVRUQUNBX3NlcnZlcjEpMCcGCSqGSIb3DQEJARYaMTE1X0NBTENV
VFRBQ0FAdGVzdF9jYS5jb20xDzANBgNVBAoTBkNJVFJJWDCCASIwDQYJKoZIhvcN
AQEBBQADggEPADCCAQoCggEBAKoiTIgWb/y8absqEuh/5AC7XqunZ9EFhvPTPiiI
18pmqCq3Lln3uCRSVC1t/g5r1cDIdZbjRilPKJij2RVwbq6+CoBRAU/dDNS1nCJD
VB/IdHeZ+IYN0eBY1sZrG3n+7m+sIsQMSZg2abnYeRrPTfOb7UPspOWxRw92Bsuh
IjSdcIj+QcBVNSEvUn+aP74wtshDObBLeyl1GYKJon5IjyLL+K5uLoC5Wm+LhzJ+
+SpsHeuW7U1qBfiFv3H6LiSJK+9+8wZMTc6APQxUpNPK08fg8exYpQp/htoTvp2m
j9XmK5pIbFDZo7vtmPR/79X6g1KoNKBdLY+qNaaT9g70nCMCAwEAAaOCAT8wggE7
MBEGCWCGSAGG+EIBAQQEAwIGQDAdBgNVHQ4EFgQUh4Nhv8NhShOOWv31aMZcgz59
AV0wgbgGA1UdIwSBsDCBrYAUNy57J0ZLz0cQrCsuutDzZnXrUnWhgYmkgYYwgYMx
FjAUBgNVBAMUDUNBTENVVFRBQ0FfQ0ExCzAJBgNVBAYTAklOMQ8wDQYDVQQKEwZD
SVRSSVgxDDAKBgNVBAsTA0FORzELMAkGA1UECBMCS0ExMDAuBgkqhkiG9w0BCQEW
IUNBTENVVFRBQ0FfQ0FAQ0FMQ1VUVEFDQV9tYWlsLmNvbYIJAKXGRw7mBjcYMEwG
CCsGAQUFBwEBBEAwPjA8BggrBgEFBQcwAYYwaHR0cDovL0NBTENVVFRBQ0FfdHdv
Lm9jc3B0ZXN0LmNvbS9yZXNwb25kZXJwYXRoMA0GCSqGSIb3DQEBCwUAA4IBAQAO
2tiMvORvxHiXVebNE/jrqFRX36GCkTe9eBiVDUc/kWz6LW45+44SgdDZWg5RY+5N
Pnzrd+aKsR3wf9sW9AxY0CVAxabet/Abz9AqcaVZ/qmriI+EgLB6c4oDMFidzFGo
k/rm+vmlUOOUG1LMMmpeGlZxrQcjAC6tl2ZkBCH9Gy52plNU5phsnCjw4Rxq+Nzh
jOv816yD0Nxn9fc7spNODa1GFRx2O3Hm+VuWTjYaK5ANNxVbSfPLyTEEnp6tfPwv
n65WmoD8yFEf/2IdML4SwdYtUKun04IsJSnNfckvAGcRA4FuzAvntD1FrWyEtFk1
aDUObPryqFK538PSX0rH
-----END CERTIFICATE-----
