Certificate:
    Data:
        Version: 3 (0x2)
        Serial Number: 11042563100189 (0xa0b0c0d0e1d)
    Signature Algorithm: sha256WithRSAEncryption
        Issuer: CN=MUMBAICA_CA, C=IN, O=CITRIX, OU=ANG, ST=KA/emailAddress=MUMBAICA_CA@MUMBAICA_mail.com
        Validity
            Not Before: Jul  8 04:35:50 2016 GMT
            Not After : Jul  6 04:35:50 2026 GMT
        Subject: ST=KA, C=IN, CN=115_MUMBAICA_server/emailAddress=115_MUMBAICA@test_ca.com, O=CITRIX
        Subject Public Key Info:
            Public Key Algorithm: rsaEncryption
                Public-Key: (2048 bit)
                Modulus:
                    00:d6:73:00:3a:e5:48:ff:fe:d3:fe:e2:19:8b:88:
                    4f:06:12:b2:99:fb:59:93:dd:da:3e:e5:35:c4:83:
                    3e:79:da:18:13:64:0e:4d:32:12:cd:a4:ac:4c:ac:
                    a2:a1:94:a5:34:dd:df:f4:80:23:12:1f:f0:06:d6:
                    38:ac:70:47:da:0d:bd:d3:17:8e:51:a6:c5:8a:bd:
                    ca:bb:04:a2:bf:d3:36:0e:1e:c9:3e:68:68:c7:d5:
                    a0:c4:8e:a1:73:14:ed:0f:7d:64:46:32:37:96:d2:
                    c9:fb:0f:e3:3c:9f:d1:f8:02:6f:2b:55:97:7a:e9:
                    c2:54:fe:4e:f9:b7:4e:2a:f4:d8:a5:da:9e:15:8a:
                    e2:9f:ea:0d:e3:e1:4f:41:06:85:24:56:8f:86:f6:
                    bb:e1:eb:8f:25:00:2d:ee:d7:26:6d:e2:26:94:26:
                    72:da:b9:e0:7c:29:15:71:e1:e0:16:65:b7:e8:52:
                    4c:d0:9b:ee:54:49:04:79:e0:65:66:2c:ff:27:e8:
                    fe:dc:c6:1b:2f:05:b7:9e:6a:3f:91:78:ec:a4:bc:
                    d1:7b:6a:5f:83:f5:72:d0:41:5d:72:76:44:8a:32:
                    19:ce:03:ea:ec:f2:ac:10:ad:df:80:c0:03:f8:73:
                    67:75:a3:a2:a3:1c:f6:a3:55:cf:6e:0c:67:4a:1f:
                    1f:61
                Exponent: 65537 (0x10001)
        X509v3 extensions:
            Netscape Cert Type: 
                SSL Server
            X509v3 Subject Key Identifier: 
                13:1B:18:03:DA:09:E9:F1:C7:78:4B:85:4E:80:F4:86:52:72:1F:EB
            X509v3 Authority Key Identifier: 
                keyid:37:79:BF:65:19:98:28:32:4E:EF:3E:44:14:19:A9:83:2B:AF:05:7A
                DirName:/CN=MUMBAICA_CA/C=IN/O=CITRIX/OU=ANG/ST=KA/emailAddress=MUMBAICA_CA@MUMBAICA_mail.com
                serial:EE:B1:37:EE:F6:D2:14:91

            Authority Information Access: 
                OCSP - URI:http://MUMBAICA_two.ocsptest.com/responderpath

    Signature Algorithm: sha256WithRSAEncryption
         7e:1a:58:d6:63:0d:0e:f3:01:88:9a:4d:4c:94:98:9e:88:05:
         50:bc:fa:f5:ca:d9:9e:90:f7:8d:45:36:3d:b1:3a:0e:a4:90:
         e9:de:3e:c8:74:a1:b0:88:3b:49:e3:60:f3:44:af:71:b0:c5:
         0f:90:91:8e:f5:ef:bf:0a:f7:11:57:be:0e:03:e3:7a:f2:de:
         13:2d:17:1c:c5:84:b1:ee:b8:50:d2:d7:7f:99:2b:be:b2:dd:
         02:de:ea:24:04:40:06:6c:f1:5c:f3:30:81:57:25:be:b2:a8:
         dd:23:4e:04:c9:33:c1:d3:2c:81:49:b6:74:d2:45:81:a7:f8:
         88:03:9d:c9:f6:10:29:32:0b:4d:e9:c9:52:10:8a:2a:ea:0d:
         66:21:33:08:0e:5c:6e:6e:1e:4a:48:4a:cb:1d:0f:f6:1e:80:
         89:13:25:57:f9:cc:93:ad:59:ac:f4:f6:8b:7b:37:b7:64:c7:
         48:3a:a4:df:f9:90:a3:2c:86:1b:1f:bc:17:2d:3b:2d:aa:ba:
         e4:5a:fe:eb:01:97:6a:b3:8b:98:72:a8:e1:d8:04:15:56:0b:
         81:1d:e0:bb:a6:27:20:df:73:4f:49:43:2f:65:d9:a8:05:30:
         75:e1:55:50:1f:bc:6a:7a:5f:d3:fa:1c:f6:5f:ee:f2:9b:60:
         7c:8a:dc:3b
-----BEGIN CERTIFICATE-----
MIIEpjCCA46gAwIBAgIGCgsMDQ4dMA0GCSqGSIb3DQEBCwUAMH0xFDASBgNVBAMU
C01VTUJBSUNBX0NBMQswCQYDVQQGEwJJTjEPMA0GA1UEChMGQ0lUUklYMQwwCgYD
VQQLEwNBTkcxCzAJBgNVBAgTAktBMSwwKgYJKoZIhvcNAQkBFh1NVU1CQUlDQV9D
QUBNVU1CQUlDQV9tYWlsLmNvbTAeFw0xNjA3MDgwNDM1NTBaFw0yNjA3MDYwNDM1
NTBaMHIxCzAJBgNVBAgTAktBMQswCQYDVQQGEwJJTjEcMBoGA1UEAxQTMTE1X01V
TUJBSUNBX3NlcnZlcjEnMCUGCSqGSIb3DQEJARYYMTE1X01VTUJBSUNBQHRlc3Rf
Y2EuY29tMQ8wDQYDVQQKEwZDSVRSSVgwggEiMA0GCSqGSIb3DQEBAQUAA4IBDwAw
ggEKAoIBAQDWcwA65Uj//tP+4hmLiE8GErKZ+1mT3do+5TXEgz552hgTZA5NMhLN
pKxMrKKhlKU03d/0gCMSH/AG1jiscEfaDb3TF45RpsWKvcq7BKK/0zYOHsk+aGjH
1aDEjqFzFO0PfWRGMjeW0sn7D+M8n9H4Am8rVZd66cJU/k75t04q9Nil2p4ViuKf
6g3j4U9BBoUkVo+G9rvh648lAC3u1yZt4iaUJnLaueB8KRVx4eAWZbfoUkzQm+5U
SQR54GVmLP8n6P7cxhsvBbeeaj+ReOykvNF7al+D9XLQQV1ydkSKMhnOA+rs8qwQ
rd+AwAP4c2d1o6KjHPajVc9uDGdKHx9hAgMBAAGjggE1MIIBMTARBglghkgBhvhC
AQEEBAMCBkAwHQYDVR0OBBYEFBMbGAPaCenxx3hLhU6A9IZSch/rMIGwBgNVHSME
gagwgaWAFDd5v2UZmCgyTu8+RBQZqYMrrwV6oYGBpH8wfTEUMBIGA1UEAxQLTVVN
QkFJQ0FfQ0ExCzAJBgNVBAYTAklOMQ8wDQYDVQQKEwZDSVRSSVgxDDAKBgNVBAsT
A0FORzELMAkGA1UECBMCS0ExLDAqBgkqhkiG9w0BCQEWHU1VTUJBSUNBX0NBQE1V
TUJBSUNBX21haWwuY29tggkA7rE37vbSFJEwSgYIKwYBBQUHAQEEPjA8MDoGCCsG
AQUFBzABhi5odHRwOi8vTVVNQkFJQ0FfdHdvLm9jc3B0ZXN0LmNvbS9yZXNwb25k
ZXJwYXRoMA0GCSqGSIb3DQEBCwUAA4IBAQB+GljWYw0O8wGImk1MlJieiAVQvPr1
ytmekPeNRTY9sToOpJDp3j7IdKGwiDtJ42DzRK9xsMUPkJGO9e+/CvcRV74OA+N6
8t4TLRccxYSx7rhQ0td/mSu+st0C3uokBEAGbPFc8zCBVyW+sqjdI04EyTPB0yyB
SbZ00kWBp/iIA53J9hApMgtN6clSEIoq6g1mITMIDlxubh5KSErLHQ/2HoCJEyVX
+cyTrVms9PaLeze3ZMdIOqTf+ZCjLIYbH7wXLTstqrrkWv7rAZdqs4uYcqjh2AQV
VguBHeC7picg33NPSUMvZdmoBTB14VVQH7xqel/T+hz2X+7ym2B8itw7
-----END CERTIFICATE-----
