Certificate:
    Data:
        Version: 3 (0x2)
        Serial Number: 11042563100189 (0xa0b0c0d0e1d)
    Signature Algorithm: sha256WithRSAEncryption
        Issuer: CN=BHOPALCA_CA, C=IN, O=CITRIX, OU=ANG, ST=KA/emailAddress=BHOPALCA_CA@BHOPALCA_mail.com
        Validity
            Not Before: Jul  8 04:32:36 2016 GMT
            Not After : Jul  6 04:32:36 2026 GMT
        Subject: ST=KA, C=IN, CN=115_BHOPALCA_server/emailAddress=115_BHOPALCA@test_ca.com, O=CITRIX
        Subject Public Key Info:
            Public Key Algorithm: rsaEncryption
                Public-Key: (2048 bit)
                Modulus:
                    00:d0:da:69:d0:46:8f:7d:73:d3:e4:95:9a:a9:11:
                    2f:c9:22:16:b7:0e:26:58:07:14:8d:c8:90:0a:7d:
                    98:2f:0c:3b:0c:71:db:4e:22:77:a5:48:e2:d5:af:
                    31:53:86:c1:cc:29:9e:25:96:04:e6:09:5d:25:4d:
                    05:1d:8a:7a:a7:4c:dd:62:83:4e:8c:bf:7b:4c:ec:
                    01:83:e4:84:f9:5d:02:b9:eb:42:b8:0b:b5:19:e9:
                    9b:25:df:99:39:60:e7:b7:b8:be:db:7a:ec:e1:14:
                    05:26:8e:3c:22:dc:fd:75:95:0b:4a:06:ad:35:0a:
                    cd:a4:ae:97:99:77:15:24:6f:81:05:73:3d:29:43:
                    2e:3e:e0:01:01:77:fb:d1:1b:96:1b:0c:5c:5a:10:
                    ee:f5:53:5a:9c:e4:ab:2f:f2:79:b1:dc:bf:12:58:
                    7d:b0:cf:4c:3e:8b:f4:25:30:33:ba:ee:15:4f:da:
                    29:85:12:5b:75:c3:6f:e9:01:66:12:f7:13:22:1f:
                    99:9e:ee:cd:89:39:eb:57:29:73:ba:b0:13:d9:34:
                    47:ac:4c:36:31:b1:98:75:10:12:92:75:1b:c7:a0:
                    1e:5d:66:b6:8a:64:99:e3:e1:a7:6f:a6:b2:09:95:
                    70:50:f5:c2:80:6c:49:21:39:b6:e6:d6:06:39:1d:
                    e8:5d
                Exponent: 65537 (0x10001)
        X509v3 extensions:
            Netscape Cert Type: 
                SSL Server
            X509v3 Subject Key Identifier: 
                07:74:C0:65:CA:0F:BE:DB:E8:98:F7:CB:07:2F:13:2A:FB:DC:56:A1
            X509v3 Authority Key Identifier: 
                keyid:A6:66:0E:59:0F:3C:5C:11:35:B2:B3:99:59:A9:D3:A6:B1:5E:95:D2
                DirName:/CN=BHOPALCA_CA/C=IN/O=CITRIX/OU=ANG/ST=KA/emailAddress=BHOPALCA_CA@BHOPALCA_mail.com
                serial:BE:89:55:F3:65:28:17:9A

            Authority Information Access: 
                OCSP - URI:http://BHOPALCA_two.ocsptest.com/responderpath

    Signature Algorithm: sha256WithRSAEncryption
         0b:44:68:a0:2e:ab:ac:ca:88:27:d5:e0:17:47:dc:1a:a5:d8:
         59:b0:ae:e7:86:57:e5:3a:ab:27:65:29:80:86:a3:65:1b:b4:
         2f:98:6a:6c:98:4f:d6:7d:ee:ce:a0:47:03:47:5f:36:12:25:
         e5:4b:a7:18:12:c3:4e:cf:69:b3:d6:f2:2e:85:1c:43:0a:4b:
         75:05:62:7f:c4:31:d2:7e:09:e7:bf:e8:c9:18:36:a6:78:39:
         3b:7a:c4:68:85:60:55:ed:34:9d:82:d5:0c:06:a6:62:eb:00:
         e9:17:15:a2:f1:92:51:c4:5e:ec:b8:d2:58:3a:35:a6:f3:46:
         1f:ff:f6:5f:62:bb:87:56:6f:ff:36:65:0a:92:7e:0b:2e:eb:
         47:18:5e:48:32:be:3d:90:b6:e3:1b:76:f1:b0:40:46:b3:a3:
         08:27:78:0f:75:e3:11:4d:55:10:68:7a:11:4a:d9:4b:41:94:
         84:8a:1d:10:bf:51:03:1c:45:f9:63:cd:6b:c7:9a:66:fc:10:
         15:9a:4f:89:33:09:4d:43:2e:3a:aa:d6:44:52:d5:5e:53:9d:
         5d:b2:12:ef:43:7e:36:62:a3:bd:6e:e2:22:99:ae:8a:a3:7f:
         ee:33:6b:26:3c:a8:a7:20:32:54:cb:3c:a5:5d:9e:53:46:1d:
         5e:76:9b:b7
-----BEGIN CERTIFICATE-----
MIIEpjCCA46gAwIBAgIGCgsMDQ4dMA0GCSqGSIb3DQEBCwUAMH0xFDASBgNVBAMU
C0JIT1BBTENBX0NBMQswCQYDVQQGEwJJTjEPMA0GA1UEChMGQ0lUUklYMQwwCgYD
VQQLEwNBTkcxCzAJBgNVBAgTAktBMSwwKgYJKoZIhvcNAQkBFh1CSE9QQUxDQV9D
QUBCSE9QQUxDQV9tYWlsLmNvbTAeFw0xNjA3MDgwNDMyMzZaFw0yNjA3MDYwNDMy
MzZaMHIxCzAJBgNVBAgTAktBMQswCQYDVQQGEwJJTjEcMBoGA1UEAxQTMTE1X0JI
T1BBTENBX3NlcnZlcjEnMCUGCSqGSIb3DQEJARYYMTE1X0JIT1BBTENBQHRlc3Rf
Y2EuY29tMQ8wDQYDVQQKEwZDSVRSSVgwggEiMA0GCSqGSIb3DQEBAQUAA4IBDwAw
ggEKAoIBAQDQ2mnQRo99c9PklZqpES/JIha3DiZYBxSNyJAKfZgvDDsMcdtOInel
SOLVrzFThsHMKZ4llgTmCV0lTQUdinqnTN1ig06Mv3tM7AGD5IT5XQK560K4C7UZ
6Zsl35k5YOe3uL7beuzhFAUmjjwi3P11lQtKBq01Cs2krpeZdxUkb4EFcz0pQy4+
4AEBd/vRG5YbDFxaEO71U1qc5Ksv8nmx3L8SWH2wz0w+i/QlMDO67hVP2imFElt1
w2/pAWYS9xMiH5me7s2JOetXKXO6sBPZNEesTDYxsZh1EBKSdRvHoB5dZraKZJnj
4advprIJlXBQ9cKAbEkhObbm1gY5HehdAgMBAAGjggE1MIIBMTARBglghkgBhvhC
AQEEBAMCBkAwHQYDVR0OBBYEFAd0wGXKD77b6Jj3ywcvEyr73FahMIGwBgNVHSME
gagwgaWAFKZmDlkPPFwRNbKzmVmp06axXpXSoYGBpH8wfTEUMBIGA1UEAxQLQkhP
UEFMQ0FfQ0ExCzAJBgNVBAYTAklOMQ8wDQYDVQQKEwZDSVRSSVgxDDAKBgNVBAsT
A0FORzELMAkGA1UECBMCS0ExLDAqBgkqhkiG9w0BCQEWHUJIT1BBTENBX0NBQEJI
T1BBTENBX21haWwuY29tggkAvolV82UoF5owSgYIKwYBBQUHAQEEPjA8MDoGCCsG
AQUFBzABhi5odHRwOi8vQkhPUEFMQ0FfdHdvLm9jc3B0ZXN0LmNvbS9yZXNwb25k
ZXJwYXRoMA0GCSqGSIb3DQEBCwUAA4IBAQALRGigLqusyogn1eAXR9wapdhZsK7n
hlflOqsnZSmAhqNlG7QvmGpsmE/Wfe7OoEcDR182EiXlS6cYEsNOz2mz1vIuhRxD
Ckt1BWJ/xDHSfgnnv+jJGDameDk7esRohWBV7TSdgtUMBqZi6wDpFxWi8ZJRxF7s
uNJYOjWm80Yf//ZfYruHVm//NmUKkn4LLutHGF5IMr49kLbjG3bxsEBGs6MIJ3gP
deMRTVUQaHoRStlLQZSEih0Qv1EDHEX5Y81rx5pm/BAVmk+JMwlNQy46qtZEUtVe
U51dshLvQ342YqO9buIima6Ko3/uM2smPKinIDJUyzylXZ5TRh1edpu3
-----END CERTIFICATE-----
