Certificate:
    Data:
        Version: 3 (0x2)
        Serial Number: 11042563100189 (0xa0b0c0d0e1d)
    Signature Algorithm: sha256WithRSAEncryption
        Issuer: CN=SHILLONGCA_CA, C=IN, O=CITRIX, OU=ANG, ST=KA/emailAddress=SHILLONGCA_CA@SHILLONGCA_mail.com
        Validity
            Not Before: Jul  8 04:40:10 2016 GMT
            Not After : Jul  6 04:40:10 2026 GMT
        Subject: ST=KA, C=IN, CN=115_SHILLONGCA_server/emailAddress=115_SHILLONGCA@test_ca.com, O=CITRIX
        Subject Public Key Info:
            Public Key Algorithm: rsaEncryption
                Public-Key: (2048 bit)
                Modulus:
                    00:a6:e2:23:92:d7:c7:7a:f1:7c:c9:3a:eb:9e:00:
                    2e:da:23:72:6a:6c:41:08:5f:cb:83:24:8d:0a:28:
                    54:99:f2:30:1d:1d:15:2f:56:73:c2:e6:08:84:80:
                    35:1b:85:88:79:a8:ae:66:ee:23:21:77:cd:5e:c7:
                    27:33:49:84:69:0c:35:6d:bc:d1:a8:1b:c1:0e:ff:
                    61:64:97:96:7b:7d:f1:32:42:61:33:95:85:90:f9:
                    2e:40:6e:1e:05:7e:3e:29:ad:49:7d:ae:28:81:c0:
                    94:e9:63:cf:7a:80:01:cc:38:05:ab:09:b0:7b:48:
                    6b:f7:7b:93:08:96:70:80:0c:84:ab:44:a7:8d:37:
                    a4:b4:7a:cc:f9:99:c8:57:f6:29:4d:a3:15:8c:cc:
                    dc:33:d9:d6:1e:19:da:a7:47:fc:85:4a:b4:13:47:
                    17:ca:22:78:b7:28:d6:7f:95:48:3c:e7:8f:3e:a6:
                    0e:18:c2:76:8b:e3:3a:0a:bb:ad:5b:82:1d:7c:da:
                    08:0d:6b:44:bf:4f:06:81:e4:ad:71:96:d4:60:f1:
                    bc:c1:f0:8d:75:f7:6e:57:b8:a3:dd:c4:01:ad:d8:
                    db:31:a6:f5:80:f2:57:a0:08:0f:71:a6:07:7a:fb:
                    33:9a:5f:c9:3e:f5:10:05:59:07:dc:53:33:c7:54:
                    d3:d3
                Exponent: 65537 (0x10001)
        X509v3 extensions:
            Netscape Cert Type: 
                SSL Server
            X509v3 Subject Key Identifier: 
                DD:68:C7:6A:AD:4F:FD:CA:4C:D6:90:A1:7D:76:AC:AE:97:71:BD:C2
            X509v3 Authority Key Identifier: 
                keyid:FA:E9:1F:A5:AF:8B:4E:18:FF:EF:B7:EA:8F:FB:98:BC:59:23:81:DF
                DirName:/CN=SHILLONGCA_CA/C=IN/O=CITRIX/OU=ANG/ST=KA/emailAddress=SHILLONGCA_CA@SHILLONGCA_mail.com
                serial:FB:D0:92:FD:A2:7C:35:0C

            Authority Information Access: 
                OCSP - URI:http://SHILLONGCA_two.ocsptest.com/responderpath

    Signature Algorithm: sha256WithRSAEncryption
         01:e7:91:63:4e:d8:3e:82:7f:32:be:81:8f:25:38:f4:5d:bb:
         68:db:f8:66:df:d0:db:5d:a9:94:f6:b5:1e:9a:55:83:c3:a2:
         26:bd:0f:ea:1e:a9:c1:de:1c:c7:01:c8:b3:93:36:b2:20:43:
         85:a2:06:a3:95:a1:8e:cf:e9:e0:85:90:31:76:e5:8b:b0:70:
         9d:32:08:41:e9:58:12:13:e8:a4:e0:b2:1f:34:27:38:cf:61:
         78:e6:b6:ce:a5:83:ad:17:0c:c1:54:1b:a1:04:ea:df:76:22:
         66:47:b4:03:c3:e1:f7:8f:7f:d7:a3:9e:d0:21:9e:e9:8d:a5:
         f0:fd:f9:06:17:60:c7:70:16:bb:56:01:07:7f:5e:fb:11:d4:
         2a:d7:49:e6:4e:57:52:b5:2f:7f:51:48:6b:df:af:be:c4:bf:
         45:cd:5f:d9:27:8b:05:5d:aa:b6:42:bf:99:3a:2e:95:94:9f:
         ac:e1:62:a2:df:7b:6e:4d:cc:80:bc:b5:48:94:e8:a8:96:cd:
         02:ca:2a:4e:d7:9f:bd:ae:a6:35:8c:64:08:f3:f1:53:ba:65:
         c6:83:6f:b7:34:85:d1:e2:ce:60:0d:52:bd:3b:4b:0e:d8:c5:
         66:7e:dd:51:de:dd:f3:67:02:3b:28:0c:30:96:b9:29:55:76:
         eb:0d:fa:d3
-----BEGIN CERTIFICATE-----
MIIEuzCCA6OgAwIBAgIGCgsMDQ4dMA0GCSqGSIb3DQEBCwUAMIGDMRYwFAYDVQQD
FA1TSElMTE9OR0NBX0NBMQswCQYDVQQGEwJJTjEPMA0GA1UEChMGQ0lUUklYMQww
CgYDVQQLEwNBTkcxCzAJBgNVBAgTAktBMTAwLgYJKoZIhvcNAQkBFiFTSElMTE9O
R0NBX0NBQFNISUxMT05HQ0FfbWFpbC5jb20wHhcNMTYwNzA4MDQ0MDEwWhcNMjYw
NzA2MDQ0MDEwWjB2MQswCQYDVQQIEwJLQTELMAkGA1UEBhMCSU4xHjAcBgNVBAMU
FTExNV9TSElMTE9OR0NBX3NlcnZlcjEpMCcGCSqGSIb3DQEJARYaMTE1X1NISUxM
T05HQ0FAdGVzdF9jYS5jb20xDzANBgNVBAoTBkNJVFJJWDCCASIwDQYJKoZIhvcN
AQEBBQADggEPADCCAQoCggEBAKbiI5LXx3rxfMk6654ALtojcmpsQQhfy4MkjQoo
VJnyMB0dFS9Wc8LmCISANRuFiHmormbuIyF3zV7HJzNJhGkMNW280agbwQ7/YWSX
lnt98TJCYTOVhZD5LkBuHgV+PimtSX2uKIHAlOljz3qAAcw4BasJsHtIa/d7kwiW
cIAMhKtEp403pLR6zPmZyFf2KU2jFYzM3DPZ1h4Z2qdH/IVKtBNHF8oieLco1n+V
SDznjz6mDhjCdovjOgq7rVuCHXzaCA1rRL9PBoHkrXGW1GDxvMHwjXX3ble4o93E
Aa3Y2zGm9YDyV6AID3GmB3r7M5pfyT71EAVZB9xTM8dU09MCAwEAAaOCAT8wggE7
MBEGCWCGSAGG+EIBAQQEAwIGQDAdBgNVHQ4EFgQU3WjHaq1P/cpM1pChfXasrpdx
vcIwgbgGA1UdIwSBsDCBrYAU+ukfpa+LThj/77fqj/uYvFkjgd+hgYmkgYYwgYMx
FjAUBgNVBAMUDVNISUxMT05HQ0FfQ0ExCzAJBgNVBAYTAklOMQ8wDQYDVQQKEwZD
SVRSSVgxDDAKBgNVBAsTA0FORzELMAkGA1UECBMCS0ExMDAuBgkqhkiG9w0BCQEW
IVNISUxMT05HQ0FfQ0FAU0hJTExPTkdDQV9tYWlsLmNvbYIJAPvQkv2ifDUMMEwG
CCsGAQUFBwEBBEAwPjA8BggrBgEFBQcwAYYwaHR0cDovL1NISUxMT05HQ0FfdHdv
Lm9jc3B0ZXN0LmNvbS9yZXNwb25kZXJwYXRoMA0GCSqGSIb3DQEBCwUAA4IBAQAB
55FjTtg+gn8yvoGPJTj0Xbto2/hm39DbXamU9rUemlWDw6ImvQ/qHqnB3hzHAciz
kzayIEOFogajlaGOz+nghZAxduWLsHCdMghB6VgSE+ik4LIfNCc4z2F45rbOpYOt
FwzBVBuhBOrfdiJmR7QDw+H3j3/Xo57QIZ7pjaXw/fkGF2DHcBa7VgEHf177EdQq
10nmTldStS9/UUhr36++xL9FzV/ZJ4sFXaq2Qr+ZOi6VlJ+s4WKi33tuTcyAvLVI
lOiols0CyipO15+9rqY1jGQI8/FTumXGg2+3NIXR4s5gDVK9O0sO2MVmft1R3t3z
ZwI7KAwwlrkpVXbrDfrT
-----END CERTIFICATE-----
