Certificate:
    Data:
        Version: 3 (0x2)
        Serial Number: 11042563100189 (0xa0b0c0d0e1d)
    Signature Algorithm: sha256WithRSAEncryption
        Issuer: CN=DELHICA_CA, C=IN, O=CITRIX, OU=ANG, ST=KA/emailAddress=DELHICA_CA@DELHICA_mail.com
        Validity
            Not Before: Jul  8 04:34:25 2016 GMT
            Not After : Jul  6 04:34:25 2026 GMT
        Subject: ST=KA, C=IN, CN=115_DELHICA_server/emailAddress=115_DELHICA@test_ca.com, O=CITRIX
        Subject Public Key Info:
            Public Key Algorithm: rsaEncryption
                Public-Key: (2048 bit)
                Modulus:
                    00:c7:6f:58:f1:bc:3f:7a:d8:48:64:e6:21:e6:b0:
                    1d:89:34:2d:36:fe:48:4a:27:ed:9a:6e:a5:42:ef:
                    13:bb:73:af:9e:b4:d9:86:9d:81:6a:3d:45:bd:31:
                    09:79:e8:ce:39:a3:33:a2:49:e1:ec:e6:0e:e5:7d:
                    98:7b:9b:e2:d6:e3:ed:87:f7:c5:db:24:9d:8f:60:
                    e5:55:4f:3c:26:3b:76:d4:43:fe:1b:bb:bb:66:8b:
                    60:df:b8:f2:60:c1:63:a8:6c:08:1b:f2:6d:38:90:
                    ed:20:d0:d4:2c:51:5e:83:b5:6f:74:50:5e:ec:70:
                    48:57:12:bd:ad:0e:90:45:71:e7:34:fd:1e:cc:55:
                    86:3b:5e:df:98:9a:d5:46:3e:4b:28:c3:42:b9:36:
                    3c:23:41:a3:ff:a7:cc:07:53:d6:71:d4:ad:3f:c4:
                    7a:5e:63:6c:3a:e5:5d:27:20:cd:2c:1b:cf:27:60:
                    27:be:cf:a5:c6:6d:67:a9:a4:a6:94:db:da:a0:60:
                    ea:31:4b:9d:b2:50:cf:31:3d:f2:b2:52:c7:2b:5e:
                    9a:98:2f:41:27:d4:90:2b:5c:b9:1b:92:ae:4d:20:
                    01:35:38:32:d5:ce:fa:c8:11:b6:4d:0d:d1:34:69:
                    b8:32:7a:ed:84:42:d3:9b:ec:e0:f2:d5:81:5f:c4:
                    61:bf
                Exponent: 65537 (0x10001)
        X509v3 extensions:
            Netscape Cert Type: 
                SSL Server
            X509v3 Subject Key Identifier: 
                7D:1E:D7:7D:2A:96:3A:DB:68:BB:CE:B1:77:5F:5E:46:84:2B:4B:11
            X509v3 Authority Key Identifier: 
                keyid:D7:37:52:01:DC:2C:7A:57:85:CA:30:39:30:F0:D5:5D:5A:31:03:02
                DirName:/CN=DELHICA_CA/C=IN/O=CITRIX/OU=ANG/ST=KA/emailAddress=DELHICA_CA@DELHICA_mail.com
                serial:94:59:DC:51:4E:A5:13:27

            Authority Information Access: 
                OCSP - URI:http://DELHICA_two.ocsptest.com/responderpath

    Signature Algorithm: sha256WithRSAEncryption
         b5:9f:f0:9c:d6:32:1d:c2:5f:42:29:58:de:c9:c8:39:42:1f:
         e9:1d:e2:72:38:39:7c:c9:b8:86:f8:0f:ba:75:cc:f2:e0:0c:
         fc:29:bd:e9:a9:64:c2:b5:62:c8:1e:9f:a4:d1:17:a8:4c:78:
         82:37:33:1d:a2:1d:86:b9:3b:9b:18:2c:71:c0:cf:d6:22:f4:
         b1:0e:0a:fd:6c:3e:c0:3a:f1:7a:13:2f:47:99:96:91:d9:33:
         f7:ba:07:04:ad:74:26:3c:96:10:c3:9e:fc:32:ea:60:ee:83:
         46:de:69:2c:95:9f:51:8b:7f:84:6c:23:84:c4:dc:2e:dc:76:
         14:08:4e:1b:5c:13:09:95:af:eb:54:32:7a:0b:54:9c:e3:89:
         3b:6f:cf:45:a0:89:75:6a:b3:15:32:fa:23:c7:c1:30:c0:59:
         0b:57:3b:1d:3f:43:e8:de:a3:5d:28:5e:09:09:19:57:e0:86:
         eb:35:0c:66:95:32:80:86:0a:76:05:44:68:aa:65:e2:52:d5:
         5d:22:4d:a3:6a:1f:84:27:dc:e7:27:8f:fa:0b:b8:94:df:3f:
         c2:e8:af:89:16:91:35:6f:f1:f2:cd:5f:48:2a:9f:6f:2e:76:
         56:94:eb:fd:37:ea:0a:e0:07:ed:55:0e:b9:c8:b4:f5:d4:2e:
         d8:10:92:ea
-----BEGIN CERTIFICATE-----
MIIEnDCCA4SgAwIBAgIGCgsMDQ4dMA0GCSqGSIb3DQEBCwUAMHoxEzARBgNVBAMU
CkRFTEhJQ0FfQ0ExCzAJBgNVBAYTAklOMQ8wDQYDVQQKEwZDSVRSSVgxDDAKBgNV
BAsTA0FORzELMAkGA1UECBMCS0ExKjAoBgkqhkiG9w0BCQEWG0RFTEhJQ0FfQ0FA
REVMSElDQV9tYWlsLmNvbTAeFw0xNjA3MDgwNDM0MjVaFw0yNjA3MDYwNDM0MjVa
MHAxCzAJBgNVBAgTAktBMQswCQYDVQQGEwJJTjEbMBkGA1UEAxQSMTE1X0RFTEhJ
Q0Ffc2VydmVyMSYwJAYJKoZIhvcNAQkBFhcxMTVfREVMSElDQUB0ZXN0X2NhLmNv
bTEPMA0GA1UEChMGQ0lUUklYMIIBIjANBgkqhkiG9w0BAQEFAAOCAQ8AMIIBCgKC
AQEAx29Y8bw/ethIZOYh5rAdiTQtNv5ISiftmm6lQu8Tu3OvnrTZhp2Baj1FvTEJ
eejOOaMzoknh7OYO5X2Ye5vi1uPth/fF2ySdj2DlVU88Jjt21EP+G7u7Zotg37jy
YMFjqGwIG/JtOJDtINDULFFeg7VvdFBe7HBIVxK9rQ6QRXHnNP0ezFWGO17fmJrV
Rj5LKMNCuTY8I0Gj/6fMB1PWcdStP8R6XmNsOuVdJyDNLBvPJ2Anvs+lxm1nqaSm
lNvaoGDqMUudslDPMT3yslLHK16amC9BJ9SQK1y5G5KuTSABNTgy1c76yBG2TQ3R
NGm4MnrthELTm+zg8tWBX8RhvwIDAQABo4IBMDCCASwwEQYJYIZIAYb4QgEBBAQD
AgZAMB0GA1UdDgQWBBR9Htd9KpY622i7zrF3X15GhCtLETCBrAYDVR0jBIGkMIGh
gBTXN1IB3Cx6V4XKMDkw8NVdWjEDAqF+pHwwejETMBEGA1UEAxQKREVMSElDQV9D
QTELMAkGA1UEBhMCSU4xDzANBgNVBAoTBkNJVFJJWDEMMAoGA1UECxMDQU5HMQsw
CQYDVQQIEwJLQTEqMCgGCSqGSIb3DQEJARYbREVMSElDQV9DQUBERUxISUNBX21h
aWwuY29tggkAlFncUU6lEycwSQYIKwYBBQUHAQEEPTA7MDkGCCsGAQUFBzABhi1o
dHRwOi8vREVMSElDQV90d28ub2NzcHRlc3QuY29tL3Jlc3BvbmRlcnBhdGgwDQYJ
KoZIhvcNAQELBQADggEBALWf8JzWMh3CX0IpWN7JyDlCH+kd4nI4OXzJuIb4D7p1
zPLgDPwpvempZMK1Ysgen6TRF6hMeII3Mx2iHYa5O5sYLHHAz9Yi9LEOCv1sPsA6
8XoTL0eZlpHZM/e6BwStdCY8lhDDnvwy6mDug0beaSyVn1GLf4RsI4TE3C7cdhQI
ThtcEwmVr+tUMnoLVJzjiTtvz0WgiXVqsxUy+iPHwTDAWQtXOx0/Q+jeo10oXgkJ
GVfghus1DGaVMoCGCnYFRGiqZeJS1V0iTaNqH4Qn3Ocnj/oLuJTfP8Lor4kWkTVv
8fLNX0gqn28udlaU6/036grgB+1VDrnItPXULtgQkuo=
-----END CERTIFICATE-----
