Certificate:
    Data:
        Version: 3 (0x2)
        Serial Number: 11042563100189 (0xa0b0c0d0e1d)
    Signature Algorithm: sha256WithRSAEncryption
        Issuer: CN=BANGALORECA_CA, C=IN, O=CITRIX, OU=ANG, ST=KA/emailAddress=BANGALORECA_CA@BANGALORECA_mail.com
        Validity
            Not Before: Jul  8 04:31:24 2016 GMT
            Not After : Jul  6 04:31:24 2026 GMT
        Subject: ST=KA, C=IN, CN=115_BANGALORECA_server/emailAddress=115_BANGALORECA@test_ca.com, O=CITRIX
        Subject Public Key Info:
            Public Key Algorithm: rsaEncryption
                Public-Key: (2048 bit)
                Modulus:
                    00:b6:29:c1:7b:de:59:27:c5:55:4e:da:5e:1a:b9:
                    52:bd:f4:79:be:7d:3e:cb:ff:db:e2:6e:5d:82:66:
                    13:20:19:9a:70:d0:2e:34:24:a2:8e:a8:95:71:57:
                    b3:d8:fc:5e:a7:e7:d2:3c:f2:ba:68:da:2f:37:50:
                    d9:15:43:27:63:7a:42:1f:c8:80:3a:61:a7:50:cd:
                    2b:2c:d7:46:ee:ba:1f:f6:a1:84:c9:d4:45:3f:ef:
                    16:45:b6:34:9d:d6:e2:96:1e:e4:ca:cf:6c:e2:4c:
                    5f:c7:f9:13:ef:23:db:0d:3e:a8:5b:c0:fa:c1:98:
                    dc:1d:bc:af:a1:0f:6f:02:a8:c5:47:62:35:10:54:
                    aa:05:8f:45:5b:d6:65:50:a1:cd:9e:10:e5:b6:25:
                    9a:2d:ad:54:41:eb:ca:d8:03:d6:ee:a4:6f:d1:b4:
                    23:8a:2b:5c:3f:99:df:89:62:6a:48:4f:57:c6:57:
                    59:aa:8c:c1:88:ad:65:05:ad:6e:4b:b5:ef:fd:7a:
                    63:b1:18:54:a6:e4:35:55:a3:9f:86:50:a7:1a:df:
                    bc:e9:5b:bd:1e:b9:a5:38:4a:5e:a3:66:5d:73:d8:
                    3f:55:19:52:66:2a:dc:4f:3f:4f:be:f6:d9:35:54:
                    35:ca:6b:d8:09:26:1d:12:11:20:2e:17:42:2a:d5:
                    8a:d3
                Exponent: 65537 (0x10001)
        X509v3 extensions:
            Netscape Cert Type: 
                SSL Server
            X509v3 Subject Key Identifier: 
                26:53:DC:8B:55:69:2E:DE:AB:5B:0F:E3:96:10:84:A1:59:AD:DE:2F
            X509v3 Authority Key Identifier: 
                keyid:3B:D6:D1:53:18:87:05:22:BB:EE:C3:0F:F5:CE:0F:6B:A2:93:A7:B8
                DirName:/CN=BANGALORECA_CA/C=IN/O=CITRIX/OU=ANG/ST=KA/emailAddress=BANGALORECA_CA@BANGALORECA_mail.com
                serial:A1:AC:B4:DA:46:53:58:40

            Authority Information Access: 
                OCSP - URI:http://BANGALORECA_two.ocsptest.com/responderpath

    Signature Algorithm: sha256WithRSAEncryption
         02:67:44:a6:88:d1:44:15:f7:79:01:dc:4d:62:a8:38:d4:90:
         c5:2f:6e:d2:84:3e:c4:81:68:ca:0d:e9:a0:4f:37:d2:34:7f:
         55:dd:fc:6c:79:43:05:c1:f4:33:a6:72:f9:4f:e0:37:53:a4:
         f7:e8:18:99:67:b8:33:e3:e0:80:3c:9f:96:70:e5:7c:33:cf:
         a9:30:28:bb:a4:1c:d8:21:3b:d6:64:03:93:65:e7:db:33:51:
         49:69:4c:fa:da:ec:ce:a6:c3:9b:ce:de:2a:1a:c0:7c:02:d2:
         ab:4d:6b:85:a3:a4:44:bc:24:2d:c6:2b:37:89:b2:2f:af:ea:
         be:10:92:98:d6:43:9f:40:2a:19:bc:1d:0e:00:cb:65:f9:24:
         ec:30:b3:28:c1:a8:6b:7f:43:94:12:4a:f2:24:37:e5:2f:57:
         d7:67:93:d0:ba:7f:7b:1e:a3:2b:7a:27:ea:68:29:cb:2d:ef:
         28:f6:df:49:4c:30:88:b4:06:cc:f3:15:1e:8a:4a:f7:89:58:
         b6:92:4c:2d:59:9a:be:61:54:bf:b2:ee:df:90:96:77:92:f7:
         9b:99:70:51:a3:76:79:75:47:cd:d1:a9:af:e5:c3:97:71:2b:
         5e:f8:d2:9f:83:83:f6:27:63:5d:a6:df:2b:51:e7:73:6b:1d:
         d4:bc:97:31
-----BEGIN CERTIFICATE-----
MIIExDCCA6ygAwIBAgIGCgsMDQ4dMA0GCSqGSIb3DQEBCwUAMIGGMRcwFQYDVQQD
FA5CQU5HQUxPUkVDQV9DQTELMAkGA1UEBhMCSU4xDzANBgNVBAoTBkNJVFJJWDEM
MAoGA1UECxMDQU5HMQswCQYDVQQIEwJLQTEyMDAGCSqGSIb3DQEJARYjQkFOR0FM
T1JFQ0FfQ0FAQkFOR0FMT1JFQ0FfbWFpbC5jb20wHhcNMTYwNzA4MDQzMTI0WhcN
MjYwNzA2MDQzMTI0WjB4MQswCQYDVQQIEwJLQTELMAkGA1UEBhMCSU4xHzAdBgNV
BAMUFjExNV9CQU5HQUxPUkVDQV9zZXJ2ZXIxKjAoBgkqhkiG9w0BCQEWGzExNV9C
QU5HQUxPUkVDQUB0ZXN0X2NhLmNvbTEPMA0GA1UEChMGQ0lUUklYMIIBIjANBgkq
hkiG9w0BAQEFAAOCAQ8AMIIBCgKCAQEAtinBe95ZJ8VVTtpeGrlSvfR5vn0+y//b
4m5dgmYTIBmacNAuNCSijqiVcVez2Pxep+fSPPK6aNovN1DZFUMnY3pCH8iAOmGn
UM0rLNdG7rof9qGEydRFP+8WRbY0ndbilh7kys9s4kxfx/kT7yPbDT6oW8D6wZjc
HbyvoQ9vAqjFR2I1EFSqBY9FW9ZlUKHNnhDltiWaLa1UQevK2APW7qRv0bQjiitc
P5nfiWJqSE9XxldZqozBiK1lBa1uS7Xv/XpjsRhUpuQ1VaOfhlCnGt+86Vu9Hrml
OEpeo2Zdc9g/VRlSZircTz9PvvbZNVQ1ymvYCSYdEhEgLhdCKtWK0wIDAQABo4IB
QzCCAT8wEQYJYIZIAYb4QgEBBAQDAgZAMB0GA1UdDgQWBBQmU9yLVWku3qtbD+OW
EIShWa3eLzCBuwYDVR0jBIGzMIGwgBQ71tFTGIcFIrvuww/1zg9ropOnuKGBjKSB
iTCBhjEXMBUGA1UEAxQOQkFOR0FMT1JFQ0FfQ0ExCzAJBgNVBAYTAklOMQ8wDQYD
VQQKEwZDSVRSSVgxDDAKBgNVBAsTA0FORzELMAkGA1UECBMCS0ExMjAwBgkqhkiG
9w0BCQEWI0JBTkdBTE9SRUNBX0NBQEJBTkdBTE9SRUNBX21haWwuY29tggkAoay0
2kZTWEAwTQYIKwYBBQUHAQEEQTA/MD0GCCsGAQUFBzABhjFodHRwOi8vQkFOR0FM
T1JFQ0FfdHdvLm9jc3B0ZXN0LmNvbS9yZXNwb25kZXJwYXRoMA0GCSqGSIb3DQEB
CwUAA4IBAQACZ0SmiNFEFfd5AdxNYqg41JDFL27ShD7EgWjKDemgTzfSNH9V3fxs
eUMFwfQzpnL5T+A3U6T36BiZZ7gz4+CAPJ+WcOV8M8+pMCi7pBzYITvWZAOTZefb
M1FJaUz62uzOpsObzt4qGsB8AtKrTWuFo6REvCQtxis3ibIvr+q+EJKY1kOfQCoZ
vB0OAMtl+STsMLMowahrf0OUEkryJDflL1fXZ5PQun97HqMreifqaCnLLe8o9t9J
TDCItAbM8xUeikr3iVi2kkwtWZq+YVS/su7fkJZ3kvebmXBRo3Z5dUfN0amv5cOX
cSte+NKfg4P2J2Ndpt8rUedzax3UvJcx
-----END CERTIFICATE-----
