Certificate:
    Data:
        Version: 3 (0x2)
        Serial Number: 11042563100190 (0xa0b0c0d0e1e)
    Signature Algorithm: sha256WithRSAEncryption
        Issuer: CN=BANGALORECA_CA, C=IN, O=CITRIX, OU=ANG, ST=KA/emailAddress=BANGALORECA_CA@BANGALORECA_mail.com
        Validity
            Not Before: Jul  8 04:31:24 2016 GMT
            Not After : Jul  6 04:31:24 2026 GMT
        Subject: ST=KA, C=IN, CN=116_BANGALORECA_server/emailAddress=116_BANGALORECA@test_ca.com, O=CITRIX
        Subject Public Key Info:
            Public Key Algorithm: rsaEncryption
                Public-Key: (2048 bit)
                Modulus:
                    00:c0:3e:d7:9e:47:a7:79:2d:c7:c8:73:7c:60:05:
                    58:7a:0b:06:9b:1a:10:66:58:22:c4:2a:b8:cc:d2:
                    d9:04:e4:a1:cf:27:c2:bb:f2:60:df:a9:29:01:d0:
                    7e:d7:e0:36:a9:41:42:e0:07:7e:be:d0:99:6e:7e:
                    b8:71:1d:74:c7:70:9a:28:14:6d:d5:41:05:d3:d9:
                    b9:0f:23:bd:6d:9b:24:88:b0:68:96:85:a8:5a:5a:
                    43:e7:aa:8b:f6:ab:bf:cb:28:52:95:a6:26:da:a0:
                    72:7d:c9:b3:b6:61:12:fe:7f:46:1f:ca:02:11:97:
                    d1:49:8b:2d:d6:0a:92:70:08:56:16:a5:0a:be:8d:
                    f0:07:ef:d8:5d:6b:f1:bd:91:f6:50:8c:0a:16:a9:
                    33:83:d7:39:a3:5f:a3:bc:30:ae:ec:1b:59:14:cf:
                    0d:0d:c0:44:1d:c8:e3:10:d0:2b:fc:c2:e9:34:ac:
                    2b:b1:cc:2c:34:45:e5:78:0d:7e:fc:35:98:61:5c:
                    12:a5:4a:fa:00:30:75:97:01:8d:84:53:1b:11:63:
                    19:1d:90:01:0f:33:d1:7d:37:00:84:a5:5b:91:dc:
                    43:fa:25:5c:24:df:c2:e4:03:36:69:0c:80:54:f4:
                    24:98:50:15:06:52:cc:48:c1:4b:d6:44:53:8e:e1:
                    16:51
                Exponent: 65537 (0x10001)
        X509v3 extensions:
            Netscape Cert Type: 
                SSL Server
            X509v3 Subject Key Identifier: 
                01:EE:5B:81:D4:76:0C:9C:AC:7A:AC:0B:1A:D1:4B:1A:03:BC:D8:5D
            X509v3 Authority Key Identifier: 
                keyid:3B:D6:D1:53:18:87:05:22:BB:EE:C3:0F:F5:CE:0F:6B:A2:93:A7:B8
                DirName:/CN=BANGALORECA_CA/C=IN/O=CITRIX/OU=ANG/ST=KA/emailAddress=BANGALORECA_CA@BANGALORECA_mail.com
                serial:A1:AC:B4:DA:46:53:58:40

            Authority Information Access: 
                OCSP - URI:http://BANGALORECA_two.ocsptest.com/responderpath

    Signature Algorithm: sha256WithRSAEncryption
         29:91:a3:a9:2c:df:83:cf:92:82:5a:b2:54:00:f6:23:16:63:
         fe:2f:f1:b3:1c:0b:42:b1:39:01:8f:63:1a:a5:e4:84:87:d9:
         33:f1:7d:cf:dd:77:24:1f:74:ce:a0:a9:33:7f:85:9a:f9:72:
         57:0e:94:93:0c:5c:e5:4b:a3:9a:ab:18:c2:cc:50:60:56:5b:
         93:4f:07:4c:a3:1d:ba:81:07:f7:ac:a0:39:60:8c:72:3c:ff:
         2b:29:ce:d7:37:47:5c:5f:66:01:2d:bc:1c:43:5b:7a:ac:55:
         51:cd:1a:92:fb:cc:07:32:69:b3:d5:99:3c:1c:38:92:26:97:
         16:3e:05:89:3e:82:f7:c2:21:4a:05:25:5c:f9:8e:e6:b8:96:
         9b:9c:5d:a4:2a:db:f9:d1:fd:31:82:4d:a3:3a:e3:61:16:03:
         ba:81:27:ff:73:d1:90:69:e0:8a:4c:37:d8:36:dc:c6:11:30:
         be:e8:a4:9f:f9:1e:9c:38:8d:06:ec:20:9b:75:65:ec:07:8e:
         d5:70:ab:4a:e0:10:21:a0:2f:19:e9:b5:fc:ed:91:aa:55:aa:
         9e:cd:29:c3:e4:af:20:4b:6f:dc:d3:50:47:14:45:0b:ea:6a:
         2d:36:7c:eb:ab:ee:d7:06:f5:7c:d5:68:5d:db:c5:f0:fa:60:
         e4:65:17:ef
-----BEGIN CERTIFICATE-----
MIIExDCCA6ygAwIBAgIGCgsMDQ4eMA0GCSqGSIb3DQEBCwUAMIGGMRcwFQYDVQQD
FA5CQU5HQUxPUkVDQV9DQTELMAkGA1UEBhMCSU4xDzANBgNVBAoTBkNJVFJJWDEM
MAoGA1UECxMDQU5HMQswCQYDVQQIEwJLQTEyMDAGCSqGSIb3DQEJARYjQkFOR0FM
T1JFQ0FfQ0FAQkFOR0FMT1JFQ0FfbWFpbC5jb20wHhcNMTYwNzA4MDQzMTI0WhcN
MjYwNzA2MDQzMTI0WjB4MQswCQYDVQQIEwJLQTELMAkGA1UEBhMCSU4xHzAdBgNV
BAMUFjExNl9CQU5HQUxPUkVDQV9zZXJ2ZXIxKjAoBgkqhkiG9w0BCQEWGzExNl9C
QU5HQUxPUkVDQUB0ZXN0X2NhLmNvbTEPMA0GA1UEChMGQ0lUUklYMIIBIjANBgkq
hkiG9w0BAQEFAAOCAQ8AMIIBCgKCAQEAwD7XnkeneS3HyHN8YAVYegsGmxoQZlgi
xCq4zNLZBOShzyfCu/Jg36kpAdB+1+A2qUFC4Ad+vtCZbn64cR10x3CaKBRt1UEF
09m5DyO9bZskiLBoloWoWlpD56qL9qu/yyhSlaYm2qByfcmztmES/n9GH8oCEZfR
SYst1gqScAhWFqUKvo3wB+/YXWvxvZH2UIwKFqkzg9c5o1+jvDCu7BtZFM8NDcBE
HcjjENAr/MLpNKwrscwsNEXleA1+/DWYYVwSpUr6ADB1lwGNhFMbEWMZHZABDzPR
fTcAhKVbkdxD+iVcJN/C5AM2aQyAVPQkmFAVBlLMSMFL1kRTjuEWUQIDAQABo4IB
QzCCAT8wEQYJYIZIAYb4QgEBBAQDAgZAMB0GA1UdDgQWBBQB7luB1HYMnKx6rAsa
0UsaA7zYXTCBuwYDVR0jBIGzMIGwgBQ71tFTGIcFIrvuww/1zg9ropOnuKGBjKSB
iTCBhjEXMBUGA1UEAxQOQkFOR0FMT1JFQ0FfQ0ExCzAJBgNVBAYTAklOMQ8wDQYD
VQQKEwZDSVRSSVgxDDAKBgNVBAsTA0FORzELMAkGA1UECBMCS0ExMjAwBgkqhkiG
9w0BCQEWI0JBTkdBTE9SRUNBX0NBQEJBTkdBTE9SRUNBX21haWwuY29tggkAoay0
2kZTWEAwTQYIKwYBBQUHAQEEQTA/MD0GCCsGAQUFBzABhjFodHRwOi8vQkFOR0FM
T1JFQ0FfdHdvLm9jc3B0ZXN0LmNvbS9yZXNwb25kZXJwYXRoMA0GCSqGSIb3DQEB
CwUAA4IBAQApkaOpLN+Dz5KCWrJUAPYjFmP+L/GzHAtCsTkBj2MapeSEh9kz8X3P
3XckH3TOoKkzf4Wa+XJXDpSTDFzlS6OaqxjCzFBgVluTTwdMox26gQf3rKA5YIxy
PP8rKc7XN0dcX2YBLbwcQ1t6rFVRzRqS+8wHMmmz1Zk8HDiSJpcWPgWJPoL3wiFK
BSVc+Y7muJabnF2kKtv50f0xgk2jOuNhFgO6gSf/c9GQaeCKTDfYNtzGETC+6KSf
+R6cOI0G7CCbdWXsB47VcKtK4BAhoC8Z6bX87ZGqVaqezSnD5K8gS2/c01BHFEUL
6motNnzrq+7XBvV81Whd28Xw+mDkZRfv
-----END CERTIFICATE-----
