Certificate:
    Data:
        Version: 3 (0x2)
        Serial Number: 11042563100190 (0xa0b0c0d0e1e)
    Signature Algorithm: sha256WithRSAEncryption
        Issuer: CN=MYSORECA_CA, C=IN, O=CITRIX, OU=ANG, ST=KA/emailAddress=MYSORECA_CA@MYSORECA_mail.com
        Validity
            Not Before: Jul  8 04:36:34 2016 GMT
            Not After : Jul  6 04:36:34 2026 GMT
        Subject: ST=KA, C=IN, CN=116_MYSORECA_server/emailAddress=116_MYSORECA@test_ca.com, O=CITRIX
        Subject Public Key Info:
            Public Key Algorithm: rsaEncryption
                Public-Key: (2048 bit)
                Modulus:
                    00:bd:09:54:5a:5d:df:86:5e:37:88:8c:41:62:f9:
                    db:1c:84:2d:20:c0:1a:60:36:fb:cb:68:f1:e9:13:
                    01:15:0a:49:b8:37:e0:f1:5c:4b:d2:2f:6c:fd:51:
                    11:00:99:53:af:2f:c7:38:dd:c3:5a:ba:97:4a:49:
                    ab:99:1f:65:a4:94:22:59:f2:19:08:ff:f8:f6:70:
                    1f:cc:3c:0f:f0:c1:97:7c:9f:61:c3:b6:d7:52:56:
                    79:97:46:ac:6b:e3:99:72:dc:4f:ba:bd:19:00:e2:
                    ca:79:fc:6d:b4:56:a2:35:a1:b1:9a:14:d4:d6:19:
                    31:36:88:ec:22:db:d9:4c:18:b4:3c:53:15:16:6b:
                    5d:04:78:07:6e:97:5d:ab:c7:2f:76:40:53:c5:43:
                    53:68:f8:8c:42:60:ef:51:1b:18:e5:a7:db:c2:45:
                    b1:f1:cb:6f:92:63:34:a5:b0:56:12:e6:1d:8c:2a:
                    e0:75:40:8a:78:c5:bb:e1:94:0d:e3:13:f3:9f:cc:
                    ff:d0:5b:f0:d0:c4:60:59:65:0e:43:b3:83:24:cb:
                    18:2e:43:28:44:23:d0:44:ae:09:4f:54:b0:55:da:
                    91:be:6d:0c:2c:ff:52:97:26:24:05:64:0e:d7:c8:
                    1e:f3:33:ff:cf:45:08:7c:54:fc:f2:e4:e2:d9:77:
                    71:c9
                Exponent: 65537 (0x10001)
        X509v3 extensions:
            Netscape Cert Type: 
                SSL Server
            X509v3 Subject Key Identifier: 
                7B:CE:87:7D:80:FC:DF:CA:E4:1D:CC:07:2E:9F:3E:95:6F:A3:AE:59
            X509v3 Authority Key Identifier: 
                keyid:C6:18:DA:E4:16:A1:1E:60:AE:18:00:F5:A7:DF:0A:8B:65:4D:36:95
                DirName:/CN=MYSORECA_CA/C=IN/O=CITRIX/OU=ANG/ST=KA/emailAddress=MYSORECA_CA@MYSORECA_mail.com
                serial:D5:74:54:E9:D5:CF:C9:F6

            Authority Information Access: 
                OCSP - URI:http://MYSORECA_two.ocsptest.com/responderpath

    Signature Algorithm: sha256WithRSAEncryption
         a2:7c:e3:1d:2e:31:ce:6b:1e:b4:d4:90:ac:85:58:10:09:b1:
         f9:b9:a9:fe:0f:ae:dc:0d:3c:22:f2:bd:8d:a9:bc:cc:6d:d1:
         65:b3:cf:9f:d5:51:58:d8:0f:0e:cf:d7:1d:aa:18:43:39:c6:
         fb:a1:b4:e1:06:ac:f1:40:fe:4c:50:05:75:8e:cf:3e:7e:0a:
         84:1d:45:ba:35:d7:30:ea:80:c5:af:dc:2c:44:73:d9:f5:87:
         13:66:97:f6:2d:26:f1:d4:bb:8f:fd:66:4f:18:2f:56:1c:c4:
         cf:44:a6:2a:1f:58:45:de:03:90:dd:6c:31:9e:ca:d9:03:76:
         6b:d0:0c:39:a7:e9:29:d0:32:c6:81:3f:93:ef:45:99:ab:dc:
         18:a5:14:59:17:4d:06:9c:a2:f5:ae:7c:ae:fd:e5:a2:7e:af:
         bd:eb:27:6a:a6:af:09:26:e5:e6:1f:71:d2:1a:6d:67:e5:a8:
         31:13:66:7b:23:0d:7a:84:8e:fc:07:37:09:e1:b6:22:b5:f2:
         d1:e2:72:f1:f0:23:48:bf:4c:ab:5b:c0:6a:45:f9:2e:b3:a8:
         c3:bc:81:65:c1:d9:db:c4:da:22:2b:06:9e:bb:36:4b:3f:93:
         1f:96:31:d3:a2:af:a3:ad:3b:2a:70:ac:8b:60:df:0b:32:cf:
         3b:4a:6e:c6
-----BEGIN CERTIFICATE-----
MIIEpjCCA46gAwIBAgIGCgsMDQ4eMA0GCSqGSIb3DQEBCwUAMH0xFDASBgNVBAMU
C01ZU09SRUNBX0NBMQswCQYDVQQGEwJJTjEPMA0GA1UEChMGQ0lUUklYMQwwCgYD
VQQLEwNBTkcxCzAJBgNVBAgTAktBMSwwKgYJKoZIhvcNAQkBFh1NWVNPUkVDQV9D
QUBNWVNPUkVDQV9tYWlsLmNvbTAeFw0xNjA3MDgwNDM2MzRaFw0yNjA3MDYwNDM2
MzRaMHIxCzAJBgNVBAgTAktBMQswCQYDVQQGEwJJTjEcMBoGA1UEAxQTMTE2X01Z
U09SRUNBX3NlcnZlcjEnMCUGCSqGSIb3DQEJARYYMTE2X01ZU09SRUNBQHRlc3Rf
Y2EuY29tMQ8wDQYDVQQKEwZDSVRSSVgwggEiMA0GCSqGSIb3DQEBAQUAA4IBDwAw
ggEKAoIBAQC9CVRaXd+GXjeIjEFi+dschC0gwBpgNvvLaPHpEwEVCkm4N+DxXEvS
L2z9UREAmVOvL8c43cNaupdKSauZH2WklCJZ8hkI//j2cB/MPA/wwZd8n2HDttdS
VnmXRqxr45ly3E+6vRkA4sp5/G20VqI1obGaFNTWGTE2iOwi29lMGLQ8UxUWa10E
eAdul12rxy92QFPFQ1No+IxCYO9RGxjlp9vCRbHxy2+SYzSlsFYS5h2MKuB1QIp4
xbvhlA3jE/OfzP/QW/DQxGBZZQ5Ds4MkyxguQyhEI9BErglPVLBV2pG+bQws/1KX
JiQFZA7XyB7zM//PRQh8VPzy5OLZd3HJAgMBAAGjggE1MIIBMTARBglghkgBhvhC
AQEEBAMCBkAwHQYDVR0OBBYEFHvOh32A/N/K5B3MBy6fPpVvo65ZMIGwBgNVHSME
gagwgaWAFMYY2uQWoR5grhgA9affCotlTTaVoYGBpH8wfTEUMBIGA1UEAxQLTVlT
T1JFQ0FfQ0ExCzAJBgNVBAYTAklOMQ8wDQYDVQQKEwZDSVRSSVgxDDAKBgNVBAsT
A0FORzELMAkGA1UECBMCS0ExLDAqBgkqhkiG9w0BCQEWHU1ZU09SRUNBX0NBQE1Z
U09SRUNBX21haWwuY29tggkA1XRU6dXPyfYwSgYIKwYBBQUHAQEEPjA8MDoGCCsG
AQUFBzABhi5odHRwOi8vTVlTT1JFQ0FfdHdvLm9jc3B0ZXN0LmNvbS9yZXNwb25k
ZXJwYXRoMA0GCSqGSIb3DQEBCwUAA4IBAQCifOMdLjHOax601JCshVgQCbH5uan+
D67cDTwi8r2NqbzMbdFls8+f1VFY2A8Oz9cdqhhDOcb7obThBqzxQP5MUAV1js8+
fgqEHUW6Ndcw6oDFr9wsRHPZ9YcTZpf2LSbx1LuP/WZPGC9WHMTPRKYqH1hF3gOQ
3WwxnsrZA3Zr0Aw5p+kp0DLGgT+T70WZq9wYpRRZF00GnKL1rnyu/eWifq+96ydq
pq8JJuXmH3HSGm1n5agxE2Z7Iw16hI78BzcJ4bYitfLR4nLx8CNIv0yrW8BqRfku
s6jDvIFlwdnbxNoiKwaeuzZLP5MfljHToq+jrTsqcKyLYN8LMs87Sm7G
-----END CERTIFICATE-----
