Certificate:
    Data:
        Version: 3 (0x2)
        Serial Number: 11042563100190 (0xa0b0c0d0e1e)
    Signature Algorithm: sha256WithRSAEncryption
        Issuer: CN=DELHICA_CA, C=IN, O=CITRIX, OU=ANG, ST=KA/emailAddress=DELHICA_CA@DELHICA_mail.com
        Validity
            Not Before: Jul  8 04:34:26 2016 GMT
            Not After : Jul  6 04:34:26 2026 GMT
        Subject: ST=KA, C=IN, CN=116_DELHICA_server/emailAddress=116_DELHICA@test_ca.com, O=CITRIX
        Subject Public Key Info:
            Public Key Algorithm: rsaEncryption
                Public-Key: (2048 bit)
                Modulus:
                    00:d8:df:46:5a:8b:9c:0c:23:27:2a:91:6f:63:a1:
                    e9:bd:61:29:7b:4f:05:dd:68:eb:d4:b6:a6:cf:f2:
                    b1:76:e2:c8:f1:7d:10:b9:37:ad:96:20:f1:82:00:
                    04:95:bc:b8:9d:15:88:6f:cc:aa:5b:8a:c6:cb:12:
                    73:08:a4:e7:84:9d:e1:96:e5:7d:5a:6d:35:6e:2d:
                    37:40:e1:9f:3f:24:d1:03:b0:74:09:9a:a8:85:2a:
                    6c:3e:7a:d6:f4:ab:da:34:53:80:ea:55:0d:7f:5d:
                    60:ba:38:fe:3a:74:17:b9:00:fd:fd:62:e0:c0:48:
                    ad:8e:4b:d8:4f:99:ad:5e:83:34:55:a0:68:ed:99:
                    37:6b:4f:ea:66:70:70:41:e2:dc:fa:35:11:5b:ff:
                    97:f8:51:3e:dd:b5:d4:a3:bb:12:49:07:92:86:49:
                    40:70:ae:d6:0c:80:4d:15:0a:b2:2a:52:fa:88:47:
                    08:66:de:1d:c9:4d:9e:9a:a7:78:c5:f1:34:9c:43:
                    46:7c:1f:2b:86:74:2c:24:8f:90:2e:48:43:fc:bc:
                    18:28:78:8f:99:6f:6b:3c:20:15:7e:5e:9f:7e:1b:
                    19:51:22:0d:6c:87:a5:90:74:6e:f1:29:10:8e:44:
                    5b:9c:1c:73:26:d4:15:9b:13:17:ee:ac:a2:14:19:
                    47:3b
                Exponent: 65537 (0x10001)
        X509v3 extensions:
            Netscape Cert Type: 
                SSL Server
            X509v3 Subject Key Identifier: 
                B9:80:F2:FE:50:07:1B:B5:ED:A0:DC:F0:F0:DA:EA:E3:79:A5:D2:15
            X509v3 Authority Key Identifier: 
                keyid:D7:37:52:01:DC:2C:7A:57:85:CA:30:39:30:F0:D5:5D:5A:31:03:02
                DirName:/CN=DELHICA_CA/C=IN/O=CITRIX/OU=ANG/ST=KA/emailAddress=DELHICA_CA@DELHICA_mail.com
                serial:94:59:DC:51:4E:A5:13:27

            Authority Information Access: 
                OCSP - URI:http://DELHICA_two.ocsptest.com/responderpath

    Signature Algorithm: sha256WithRSAEncryption
         29:72:64:4c:a9:48:68:ca:0d:6e:4b:cf:a3:ab:29:b3:7d:d6:
         cb:c3:53:69:d8:34:08:29:dd:95:74:42:76:c4:d3:c2:59:95:
         78:b0:43:e3:65:40:16:07:85:23:28:83:b4:4d:b5:53:c5:64:
         34:40:6d:1d:0b:89:b1:1a:06:11:4a:21:2a:5b:f9:a5:f3:37:
         75:b6:60:9b:79:12:49:56:40:2c:1b:2d:2e:18:f6:6b:df:4a:
         be:cf:01:b7:10:d1:55:9c:c9:c0:d2:10:f0:76:66:1a:c3:31:
         d8:32:8e:86:cf:7e:d5:05:4e:f6:ef:9a:ec:90:0b:6f:fc:97:
         f3:d7:58:b7:41:b4:b6:a8:8e:46:62:ed:5f:7c:e2:aa:21:54:
         0f:c4:a2:ef:a2:f5:b3:46:22:c9:e0:a8:00:23:d7:89:d9:f7:
         d5:22:0b:88:35:6a:34:fa:b8:04:60:92:1a:4a:ba:e1:e7:7c:
         cd:af:58:95:eb:4c:25:2d:e8:e1:a7:f1:67:2b:7a:1a:c5:d9:
         c4:1c:83:3b:24:ba:05:e1:80:f2:3e:55:53:8f:62:44:39:d7:
         a5:ce:83:30:3f:f1:62:1b:51:fa:fc:c6:5c:fe:c2:c2:50:aa:
         83:b7:60:3e:b2:d1:e6:0c:03:3c:a0:2b:c9:12:20:cc:a0:3c:
         a5:e2:a7:af
-----BEGIN CERTIFICATE-----
MIIEnDCCA4SgAwIBAgIGCgsMDQ4eMA0GCSqGSIb3DQEBCwUAMHoxEzARBgNVBAMU
CkRFTEhJQ0FfQ0ExCzAJBgNVBAYTAklOMQ8wDQYDVQQKEwZDSVRSSVgxDDAKBgNV
BAsTA0FORzELMAkGA1UECBMCS0ExKjAoBgkqhkiG9w0BCQEWG0RFTEhJQ0FfQ0FA
REVMSElDQV9tYWlsLmNvbTAeFw0xNjA3MDgwNDM0MjZaFw0yNjA3MDYwNDM0MjZa
MHAxCzAJBgNVBAgTAktBMQswCQYDVQQGEwJJTjEbMBkGA1UEAxQSMTE2X0RFTEhJ
Q0Ffc2VydmVyMSYwJAYJKoZIhvcNAQkBFhcxMTZfREVMSElDQUB0ZXN0X2NhLmNv
bTEPMA0GA1UEChMGQ0lUUklYMIIBIjANBgkqhkiG9w0BAQEFAAOCAQ8AMIIBCgKC
AQEA2N9GWoucDCMnKpFvY6HpvWEpe08F3Wjr1Lamz/KxduLI8X0QuTetliDxggAE
lby4nRWIb8yqW4rGyxJzCKTnhJ3hluV9Wm01bi03QOGfPyTRA7B0CZqohSpsPnrW
9KvaNFOA6lUNf11gujj+OnQXuQD9/WLgwEitjkvYT5mtXoM0VaBo7Zk3a0/qZnBw
QeLc+jURW/+X+FE+3bXUo7sSSQeShklAcK7WDIBNFQqyKlL6iEcIZt4dyU2emqd4
xfE0nENGfB8rhnQsJI+QLkhD/LwYKHiPmW9rPCAVfl6ffhsZUSINbIelkHRu8SkQ
jkRbnBxzJtQVmxMX7qyiFBlHOwIDAQABo4IBMDCCASwwEQYJYIZIAYb4QgEBBAQD
AgZAMB0GA1UdDgQWBBS5gPL+UAcbte2g3PDw2urjeaXSFTCBrAYDVR0jBIGkMIGh
gBTXN1IB3Cx6V4XKMDkw8NVdWjEDAqF+pHwwejETMBEGA1UEAxQKREVMSElDQV9D
QTELMAkGA1UEBhMCSU4xDzANBgNVBAoTBkNJVFJJWDEMMAoGA1UECxMDQU5HMQsw
CQYDVQQIEwJLQTEqMCgGCSqGSIb3DQEJARYbREVMSElDQV9DQUBERUxISUNBX21h
aWwuY29tggkAlFncUU6lEycwSQYIKwYBBQUHAQEEPTA7MDkGCCsGAQUFBzABhi1o
dHRwOi8vREVMSElDQV90d28ub2NzcHRlc3QuY29tL3Jlc3BvbmRlcnBhdGgwDQYJ
KoZIhvcNAQELBQADggEBAClyZEypSGjKDW5Lz6OrKbN91svDU2nYNAgp3ZV0QnbE
08JZlXiwQ+NlQBYHhSMog7RNtVPFZDRAbR0LibEaBhFKISpb+aXzN3W2YJt5EklW
QCwbLS4Y9mvfSr7PAbcQ0VWcycDSEPB2ZhrDMdgyjobPftUFTvbvmuyQC2/8l/PX
WLdBtLaojkZi7V984qohVA/Eou+i9bNGIsngqAAj14nZ99UiC4g1ajT6uARgkhpK
uuHnfM2vWJXrTCUt6OGn8WcrehrF2cQcgzskugXhgPI+VVOPYkQ516XOgzA/8WIb
Ufr8xlz+wsJQqoO3YD6y0eYMAzygK8kSIMygPKXip68=
-----END CERTIFICATE-----
