Certificate:
    Data:
        Version: 3 (0x2)
        Serial Number: 11042563100190 (0xa0b0c0d0e1e)
    Signature Algorithm: sha256WithRSAEncryption
        Issuer: CN=SHILLONGCA_CA, C=IN, O=CITRIX, OU=ANG, ST=KA/emailAddress=SHILLONGCA_CA@SHILLONGCA_mail.com
        Validity
            Not Before: Jul  8 04:40:10 2016 GMT
            Not After : Jul  6 04:40:10 2026 GMT
        Subject: ST=KA, C=IN, CN=116_SHILLONGCA_server/emailAddress=116_SHILLONGCA@test_ca.com, O=CITRIX
        Subject Public Key Info:
            Public Key Algorithm: rsaEncryption
                Public-Key: (2048 bit)
                Modulus:
                    00:a0:f3:52:1e:c4:03:ff:5f:29:8f:06:1a:3b:86:
                    a0:10:24:6d:40:76:c2:d3:fa:fd:f2:10:40:7f:c3:
                    dc:b6:84:c8:41:40:13:f0:3e:c2:f4:63:ae:52:54:
                    1a:87:1d:4c:4d:22:5c:b4:29:05:f1:b2:a2:83:5f:
                    fd:db:eb:4a:e9:a0:e1:5e:92:19:d6:31:f3:16:bf:
                    cf:c5:03:2e:cc:41:f7:7c:f8:9b:d9:ad:9c:3c:32:
                    36:fd:8b:62:65:cf:13:15:74:0b:9b:b2:96:a4:10:
                    f1:d7:d6:13:c5:b6:21:b6:96:f5:20:c1:89:8e:80:
                    a1:38:5e:76:7f:fb:79:c4:0b:d0:a5:54:a4:37:00:
                    0a:e4:24:d0:d0:66:ad:8b:cc:ce:8f:64:65:ed:fc:
                    a2:93:68:8e:f6:aa:35:ea:4c:bc:01:45:18:9a:12:
                    40:00:e0:a1:09:6d:d6:b7:87:e4:ad:9d:e3:d5:f1:
                    dd:52:f2:39:26:c6:a4:e7:a7:f2:da:f4:d1:c4:5a:
                    62:e9:ff:a3:b1:83:6d:50:b0:7e:9b:b6:80:59:f8:
                    b9:e9:3f:5b:c7:be:21:50:44:7e:d5:a7:78:35:3d:
                    af:74:7e:ff:ad:26:b1:0e:46:ac:3b:93:a7:49:20:
                    af:ca:52:92:6b:9e:bb:6f:5a:1d:11:66:14:c9:32:
                    76:d7
                Exponent: 65537 (0x10001)
        X509v3 extensions:
            Netscape Cert Type: 
                SSL Server
            X509v3 Subject Key Identifier: 
                BB:C1:1E:63:B7:A5:84:17:B7:E2:48:28:06:D9:78:C2:67:4D:2F:A8
            X509v3 Authority Key Identifier: 
                keyid:FA:E9:1F:A5:AF:8B:4E:18:FF:EF:B7:EA:8F:FB:98:BC:59:23:81:DF
                DirName:/CN=SHILLONGCA_CA/C=IN/O=CITRIX/OU=ANG/ST=KA/emailAddress=SHILLONGCA_CA@SHILLONGCA_mail.com
                serial:FB:D0:92:FD:A2:7C:35:0C

            Authority Information Access: 
                OCSP - URI:http://SHILLONGCA_two.ocsptest.com/responderpath

    Signature Algorithm: sha256WithRSAEncryption
         a4:48:20:69:6b:19:4e:ce:94:9b:58:a6:09:19:4c:31:50:eb:
         eb:e5:e1:8f:4f:63:b5:cd:71:4c:95:8b:89:89:1e:ba:32:de:
         d4:1d:ca:e4:77:65:72:81:b6:eb:31:7c:58:87:0f:8c:65:c6:
         78:b5:68:75:e0:d4:16:85:5f:ff:19:1e:a7:b7:d1:1d:d7:da:
         d3:3c:09:84:3f:dd:bb:43:10:28:df:55:5f:a6:72:71:21:cc:
         1e:1f:a5:23:3a:bd:0b:54:5b:08:18:1d:75:17:99:63:7d:e9:
         a4:df:7d:d9:2c:cc:e2:17:08:d8:b5:72:52:f2:a2:07:e8:ad:
         f2:36:3d:6b:1b:06:d3:d3:4f:4e:97:cb:40:2b:47:a0:06:24:
         75:d0:47:25:f4:77:bc:01:d3:03:32:01:66:75:5e:d0:52:b1:
         26:85:e2:36:f4:e6:20:35:e0:89:9d:b9:47:a6:c6:73:df:98:
         6b:19:e9:1c:be:78:ea:da:80:49:f2:d6:19:fa:3f:9d:49:4f:
         c4:1f:fc:41:84:55:41:76:4b:40:4a:3c:72:e2:6a:e1:02:25:
         30:fc:4b:23:9e:b0:75:62:db:88:55:a0:d1:b1:c5:af:1a:63:
         42:97:1f:e3:96:86:31:55:c4:d6:db:31:cc:7b:ad:bb:6a:90:
         fc:4e:3b:55
-----BEGIN CERTIFICATE-----
MIIEuzCCA6OgAwIBAgIGCgsMDQ4eMA0GCSqGSIb3DQEBCwUAMIGDMRYwFAYDVQQD
FA1TSElMTE9OR0NBX0NBMQswCQYDVQQGEwJJTjEPMA0GA1UEChMGQ0lUUklYMQww
CgYDVQQLEwNBTkcxCzAJBgNVBAgTAktBMTAwLgYJKoZIhvcNAQkBFiFTSElMTE9O
R0NBX0NBQFNISUxMT05HQ0FfbWFpbC5jb20wHhcNMTYwNzA4MDQ0MDEwWhcNMjYw
NzA2MDQ0MDEwWjB2MQswCQYDVQQIEwJLQTELMAkGA1UEBhMCSU4xHjAcBgNVBAMU
FTExNl9TSElMTE9OR0NBX3NlcnZlcjEpMCcGCSqGSIb3DQEJARYaMTE2X1NISUxM
T05HQ0FAdGVzdF9jYS5jb20xDzANBgNVBAoTBkNJVFJJWDCCASIwDQYJKoZIhvcN
AQEBBQADggEPADCCAQoCggEBAKDzUh7EA/9fKY8GGjuGoBAkbUB2wtP6/fIQQH/D
3LaEyEFAE/A+wvRjrlJUGocdTE0iXLQpBfGyooNf/dvrSumg4V6SGdYx8xa/z8UD
LsxB93z4m9mtnDwyNv2LYmXPExV0C5uylqQQ8dfWE8W2IbaW9SDBiY6AoThedn/7
ecQL0KVUpDcACuQk0NBmrYvMzo9kZe38opNojvaqNepMvAFFGJoSQADgoQlt1reH
5K2d49Xx3VLyOSbGpOen8tr00cRaYun/o7GDbVCwfpu2gFn4uek/W8e+IVBEftWn
eDU9r3R+/60msQ5GrDuTp0kgr8pSkmueu29aHRFmFMkydtcCAwEAAaOCAT8wggE7
MBEGCWCGSAGG+EIBAQQEAwIGQDAdBgNVHQ4EFgQUu8EeY7elhBe34kgoBtl4wmdN
L6gwgbgGA1UdIwSBsDCBrYAU+ukfpa+LThj/77fqj/uYvFkjgd+hgYmkgYYwgYMx
FjAUBgNVBAMUDVNISUxMT05HQ0FfQ0ExCzAJBgNVBAYTAklOMQ8wDQYDVQQKEwZD
SVRSSVgxDDAKBgNVBAsTA0FORzELMAkGA1UECBMCS0ExMDAuBgkqhkiG9w0BCQEW
IVNISUxMT05HQ0FfQ0FAU0hJTExPTkdDQV9tYWlsLmNvbYIJAPvQkv2ifDUMMEwG
CCsGAQUFBwEBBEAwPjA8BggrBgEFBQcwAYYwaHR0cDovL1NISUxMT05HQ0FfdHdv
Lm9jc3B0ZXN0LmNvbS9yZXNwb25kZXJwYXRoMA0GCSqGSIb3DQEBCwUAA4IBAQCk
SCBpaxlOzpSbWKYJGUwxUOvr5eGPT2O1zXFMlYuJiR66Mt7UHcrkd2VygbbrMXxY
hw+MZcZ4tWh14NQWhV//GR6nt9Ed19rTPAmEP927QxAo31VfpnJxIcweH6UjOr0L
VFsIGB11F5ljfemk333ZLMziFwjYtXJS8qIH6K3yNj1rGwbT009Ol8tAK0egBiR1
0Ecl9He8AdMDMgFmdV7QUrEmheI29OYgNeCJnblHpsZz35hrGekcvnjq2oBJ8tYZ
+j+dSU/EH/xBhFVBdktASjxy4mrhAiUw/EsjnrB1YtuIVaDRscWvGmNClx/jloYx
VcTW2zHMe627apD8TjtV
-----END CERTIFICATE-----
