Certificate:
    Data:
        Version: 3 (0x2)
        Serial Number: 11042563100190 (0xa0b0c0d0e1e)
    Signature Algorithm: sha256WithRSAEncryption
        Issuer: CN=BHOPALCA_CA, C=IN, O=CITRIX, OU=ANG, ST=KA/emailAddress=BHOPALCA_CA@BHOPALCA_mail.com
        Validity
            Not Before: Jul  8 04:32:36 2016 GMT
            Not After : Jul  6 04:32:36 2026 GMT
        Subject: ST=KA, C=IN, CN=116_BHOPALCA_server/emailAddress=116_BHOPALCA@test_ca.com, O=CITRIX
        Subject Public Key Info:
            Public Key Algorithm: rsaEncryption
                Public-Key: (2048 bit)
                Modulus:
                    00:d3:0f:24:fc:55:de:71:c7:26:bd:39:81:81:cc:
                    9d:89:1e:0a:3e:75:6d:4d:05:31:71:2d:63:b4:30:
                    87:e3:b6:3e:43:45:dd:da:9d:81:15:99:3e:f2:50:
                    66:cc:88:7f:db:bd:db:92:65:84:d8:80:91:78:51:
                    1a:50:ec:a3:e0:af:62:f1:35:e7:bb:11:4f:a6:76:
                    85:44:63:38:0a:6a:f5:31:f5:23:96:6e:44:d1:65:
                    fc:64:b1:22:77:d7:12:a7:b4:07:aa:a8:46:da:5b:
                    29:2e:60:31:d2:5f:4e:d4:f7:c3:56:d6:92:8b:be:
                    de:c4:e9:b7:20:f5:0c:69:32:28:28:1e:46:bc:fb:
                    eb:78:32:ad:5a:00:ad:83:1f:bb:fb:96:5d:91:80:
                    b5:60:8f:91:35:ab:6e:69:8d:60:33:51:18:a0:75:
                    dd:af:6c:1a:11:94:22:63:10:63:0c:f7:67:f4:6f:
                    6d:dc:b0:49:6a:b3:8e:d1:55:4a:80:cf:9b:1b:1e:
                    c6:a9:75:77:d6:1d:7f:21:05:f8:2e:21:28:7e:0e:
                    9f:50:7f:22:01:f8:08:a0:49:26:5c:b3:39:20:7e:
                    ea:26:74:c9:86:02:24:9d:d3:b9:48:4d:c5:36:91:
                    ca:77:2b:e1:fc:6c:21:fd:91:ff:36:85:a3:72:93:
                    e3:1f
                Exponent: 65537 (0x10001)
        X509v3 extensions:
            Netscape Cert Type: 
                SSL Server
            X509v3 Subject Key Identifier: 
                41:0A:E8:57:9F:91:DC:70:F2:CB:43:DA:A2:05:E1:9D:1D:9F:1F:FC
            X509v3 Authority Key Identifier: 
                keyid:A6:66:0E:59:0F:3C:5C:11:35:B2:B3:99:59:A9:D3:A6:B1:5E:95:D2
                DirName:/CN=BHOPALCA_CA/C=IN/O=CITRIX/OU=ANG/ST=KA/emailAddress=BHOPALCA_CA@BHOPALCA_mail.com
                serial:BE:89:55:F3:65:28:17:9A

            Authority Information Access: 
                OCSP - URI:http://BHOPALCA_two.ocsptest.com/responderpath

    Signature Algorithm: sha256WithRSAEncryption
         6c:52:74:6f:7b:e5:15:06:3e:ed:9d:cc:ca:ca:c4:0e:71:9a:
         5e:a3:79:1e:29:75:bb:6a:98:b3:cc:4c:08:f1:dc:da:82:67:
         24:04:d7:f8:4e:c2:c9:ff:20:c5:13:c4:15:7a:da:e4:9f:9f:
         9d:90:61:01:2c:a4:6e:76:89:c1:56:a7:db:26:62:17:7a:b8:
         95:fc:ca:ef:28:75:f8:8a:3f:85:eb:fc:ee:6b:19:e4:5a:ef:
         27:ab:fc:b0:52:6d:f5:ad:6c:ea:b8:58:da:94:70:7a:8a:3f:
         65:7a:01:b1:c2:06:5e:ed:2e:bb:68:4b:40:f1:42:f9:db:60:
         e2:65:84:66:ca:61:e0:ec:0e:be:d2:93:7e:8b:cd:6d:84:36:
         22:2d:d2:9d:50:dd:70:b7:c7:5a:ab:fe:18:fc:ad:13:af:22:
         9c:1a:d4:70:7a:0d:d8:85:3f:99:c7:f8:af:f2:3e:da:31:4b:
         c0:38:86:72:1a:bc:8c:6b:39:4c:5d:07:4c:48:9b:22:a0:27:
         91:25:5f:41:c1:b6:a0:77:07:42:42:d7:d6:23:c7:2a:2c:8d:
         12:22:70:d1:53:49:bf:7a:38:a8:60:2c:e3:4a:83:4c:08:e3:
         43:e6:64:4d:eb:da:02:df:98:a8:7c:1c:a9:48:2d:3c:ee:45:
         66:5a:d3:81
-----BEGIN CERTIFICATE-----
MIIEpjCCA46gAwIBAgIGCgsMDQ4eMA0GCSqGSIb3DQEBCwUAMH0xFDASBgNVBAMU
C0JIT1BBTENBX0NBMQswCQYDVQQGEwJJTjEPMA0GA1UEChMGQ0lUUklYMQwwCgYD
VQQLEwNBTkcxCzAJBgNVBAgTAktBMSwwKgYJKoZIhvcNAQkBFh1CSE9QQUxDQV9D
QUBCSE9QQUxDQV9tYWlsLmNvbTAeFw0xNjA3MDgwNDMyMzZaFw0yNjA3MDYwNDMy
MzZaMHIxCzAJBgNVBAgTAktBMQswCQYDVQQGEwJJTjEcMBoGA1UEAxQTMTE2X0JI
T1BBTENBX3NlcnZlcjEnMCUGCSqGSIb3DQEJARYYMTE2X0JIT1BBTENBQHRlc3Rf
Y2EuY29tMQ8wDQYDVQQKEwZDSVRSSVgwggEiMA0GCSqGSIb3DQEBAQUAA4IBDwAw
ggEKAoIBAQDTDyT8Vd5xxya9OYGBzJ2JHgo+dW1NBTFxLWO0MIfjtj5DRd3anYEV
mT7yUGbMiH/bvduSZYTYgJF4URpQ7KPgr2LxNee7EU+mdoVEYzgKavUx9SOWbkTR
ZfxksSJ31xKntAeqqEbaWykuYDHSX07U98NW1pKLvt7E6bcg9QxpMigoHka8++t4
Mq1aAK2DH7v7ll2RgLVgj5E1q25pjWAzURigdd2vbBoRlCJjEGMM92f0b23csElq
s47RVUqAz5sbHsapdXfWHX8hBfguISh+Dp9QfyIB+AigSSZcszkgfuomdMmGAiSd
07lITcU2kcp3K+H8bCH9kf82haNyk+MfAgMBAAGjggE1MIIBMTARBglghkgBhvhC
AQEEBAMCBkAwHQYDVR0OBBYEFEEK6Fefkdxw8stD2qIF4Z0dnx/8MIGwBgNVHSME
gagwgaWAFKZmDlkPPFwRNbKzmVmp06axXpXSoYGBpH8wfTEUMBIGA1UEAxQLQkhP
UEFMQ0FfQ0ExCzAJBgNVBAYTAklOMQ8wDQYDVQQKEwZDSVRSSVgxDDAKBgNVBAsT
A0FORzELMAkGA1UECBMCS0ExLDAqBgkqhkiG9w0BCQEWHUJIT1BBTENBX0NBQEJI
T1BBTENBX21haWwuY29tggkAvolV82UoF5owSgYIKwYBBQUHAQEEPjA8MDoGCCsG
AQUFBzABhi5odHRwOi8vQkhPUEFMQ0FfdHdvLm9jc3B0ZXN0LmNvbS9yZXNwb25k
ZXJwYXRoMA0GCSqGSIb3DQEBCwUAA4IBAQBsUnRve+UVBj7tnczKysQOcZpeo3ke
KXW7apizzEwI8dzagmckBNf4TsLJ/yDFE8QVetrkn5+dkGEBLKRudonBVqfbJmIX
eriV/MrvKHX4ij+F6/zuaxnkWu8nq/ywUm31rWzquFjalHB6ij9legGxwgZe7S67
aEtA8UL522DiZYRmymHg7A6+0pN+i81thDYiLdKdUN1wt8daq/4Y/K0TryKcGtRw
eg3YhT+Zx/iv8j7aMUvAOIZyGryMazlMXQdMSJsioCeRJV9BwbagdwdCQtfWI8cq
LI0SInDRU0m/ejioYCzjSoNMCOND5mRN69oC35iofBypSC087kVmWtOB
-----END CERTIFICATE-----
