Certificate:
    Data:
        Version: 3 (0x2)
        Serial Number: 11042563100191 (0xa0b0c0d0e1f)
    Signature Algorithm: sha256WithRSAEncryption
        Issuer: CN=PATNACA_CA, C=IN, O=CITRIX, OU=ANG, ST=KA/emailAddress=PATNACA_CA@PATNACA_mail.com
        Validity
            Not Before: Jul  8 04:38:26 2016 GMT
            Not After : Jul  6 04:38:26 2026 GMT
        Subject: ST=KA, C=IN, CN=117_PATNACA_server/emailAddress=117_PATNACA@test_ca.com, O=CITRIX
        Subject Public Key Info:
            Public Key Algorithm: rsaEncryption
                Public-Key: (2048 bit)
                Modulus:
                    00:be:6f:47:1d:f0:8f:b2:87:80:78:35:46:17:64:
                    1d:d4:8a:ab:eb:ea:66:82:19:eb:be:2d:00:2c:a2:
                    1d:50:fe:00:e0:55:ea:6f:0b:dc:98:da:8b:d0:77:
                    a0:d2:10:65:ed:af:fe:32:56:4c:66:c7:eb:27:44:
                    32:7a:cb:34:e7:23:a9:2f:21:bf:4d:52:e5:eb:1c:
                    d8:a9:e5:fb:17:46:fd:f3:26:5e:81:87:6f:b6:f8:
                    05:46:34:6a:29:9b:6a:99:af:16:90:a0:48:7e:70:
                    b0:64:a9:c8:b6:29:1d:90:c5:b8:f6:e9:40:8c:21:
                    90:e5:76:49:3c:04:48:94:a4:09:21:0b:ad:93:13:
                    a8:a4:28:4a:52:3a:f7:c2:29:dd:0f:20:b6:fc:6c:
                    0d:1c:98:ad:76:bf:00:27:c1:31:9d:99:e7:39:0c:
                    ae:ea:28:fc:c4:79:ca:fe:2b:6a:ad:bf:ae:97:ac:
                    c6:a6:28:be:19:01:f5:d6:83:5e:46:6b:d8:84:b5:
                    59:11:04:35:3a:1c:08:3d:69:5f:42:30:87:4e:ff:
                    9a:d2:d2:3c:b6:dd:1c:20:b5:28:22:90:1d:46:21:
                    85:2c:52:6d:be:16:31:3a:1d:e2:f3:76:e7:bb:d7:
                    dd:04:cb:d8:5d:0d:02:a8:4e:cf:66:02:7d:37:00:
                    90:89
                Exponent: 65537 (0x10001)
        X509v3 extensions:
            Netscape Cert Type: 
                SSL Server
            X509v3 Subject Key Identifier: 
                D2:CD:03:20:83:A7:8E:94:C0:88:2F:7D:1C:0E:5B:04:F0:C6:59:E6
            X509v3 Authority Key Identifier: 
                keyid:FF:DF:C4:8D:AF:64:E1:E3:17:FA:96:EE:F1:75:A7:ED:A7:C3:91:B8
                DirName:/CN=PATNACA_CA/C=IN/O=CITRIX/OU=ANG/ST=KA/emailAddress=PATNACA_CA@PATNACA_mail.com
                serial:9F:2E:15:76:F0:BD:C1:6F

            Authority Information Access: 
                OCSP - URI:http://PATNACA_two.ocsptest.com/responderpath

    Signature Algorithm: sha256WithRSAEncryption
         a9:8f:94:3d:0c:9a:2c:93:6e:ab:2e:8d:55:da:e5:6b:1c:96:
         84:82:9f:ef:7f:21:c0:77:3a:7b:33:22:9a:45:9f:f0:d1:cc:
         b7:b6:37:7b:36:79:96:ad:2b:11:83:0e:09:fb:1b:b6:07:18:
         12:38:98:75:fc:0d:32:f5:61:af:a5:22:1d:3b:5f:0e:57:3e:
         2c:9a:e0:58:23:ef:58:6e:d8:82:30:a5:b0:76:f8:a1:aa:5d:
         ef:b9:6c:25:a8:4b:58:1a:79:ca:10:5a:b9:fb:7c:95:75:fe:
         9e:be:0a:c5:78:ed:e5:8d:91:28:b7:5e:ec:a3:71:c7:98:4e:
         90:cc:0e:fb:9a:d1:fc:e2:09:db:75:88:d4:cd:ca:d9:45:ac:
         2e:d7:54:1c:5d:2e:8a:fe:de:88:cb:2a:af:27:dc:f9:9a:2e:
         72:c2:22:38:02:02:40:cc:25:d5:12:e6:9c:d2:94:e7:d8:d0:
         4e:ae:06:c7:7b:98:7f:36:6e:ef:6e:c9:bb:ea:e5:b9:de:67:
         a5:95:74:6a:d0:0c:96:d8:f7:83:5f:f1:c5:b4:44:c5:de:cd:
         1d:91:c6:b9:65:a3:1d:57:4a:1e:3d:8c:eb:5b:45:2d:55:c3:
         ff:2f:e7:3d:90:5b:9a:f1:93:7d:b4:a4:8d:dd:61:52:22:d9:
         33:80:a2:e3
-----BEGIN CERTIFICATE-----
MIIEnDCCA4SgAwIBAgIGCgsMDQ4fMA0GCSqGSIb3DQEBCwUAMHoxEzARBgNVBAMU
ClBBVE5BQ0FfQ0ExCzAJBgNVBAYTAklOMQ8wDQYDVQQKEwZDSVRSSVgxDDAKBgNV
BAsTA0FORzELMAkGA1UECBMCS0ExKjAoBgkqhkiG9w0BCQEWG1BBVE5BQ0FfQ0FA
UEFUTkFDQV9tYWlsLmNvbTAeFw0xNjA3MDgwNDM4MjZaFw0yNjA3MDYwNDM4MjZa
MHAxCzAJBgNVBAgTAktBMQswCQYDVQQGEwJJTjEbMBkGA1UEAxQSMTE3X1BBVE5B
Q0Ffc2VydmVyMSYwJAYJKoZIhvcNAQkBFhcxMTdfUEFUTkFDQUB0ZXN0X2NhLmNv
bTEPMA0GA1UEChMGQ0lUUklYMIIBIjANBgkqhkiG9w0BAQEFAAOCAQ8AMIIBCgKC
AQEAvm9HHfCPsoeAeDVGF2Qd1Iqr6+pmghnrvi0ALKIdUP4A4FXqbwvcmNqL0Heg
0hBl7a/+MlZMZsfrJ0Qyess05yOpLyG/TVLl6xzYqeX7F0b98yZegYdvtvgFRjRq
KZtqma8WkKBIfnCwZKnItikdkMW49ulAjCGQ5XZJPARIlKQJIQutkxOopChKUjr3
windDyC2/GwNHJitdr8AJ8ExnZnnOQyu6ij8xHnK/itqrb+ul6zGpii+GQH11oNe
RmvYhLVZEQQ1OhwIPWlfQjCHTv+a0tI8tt0cILUoIpAdRiGFLFJtvhYxOh3i83bn
u9fdBMvYXQ0CqE7PZgJ9NwCQiQIDAQABo4IBMDCCASwwEQYJYIZIAYb4QgEBBAQD
AgZAMB0GA1UdDgQWBBTSzQMgg6eOlMCIL30cDlsE8MZZ5jCBrAYDVR0jBIGkMIGh
gBT/38SNr2Th4xf6lu7xdaftp8ORuKF+pHwwejETMBEGA1UEAxQKUEFUTkFDQV9D
QTELMAkGA1UEBhMCSU4xDzANBgNVBAoTBkNJVFJJWDEMMAoGA1UECxMDQU5HMQsw
CQYDVQQIEwJLQTEqMCgGCSqGSIb3DQEJARYbUEFUTkFDQV9DQUBQQVROQUNBX21h
aWwuY29tggkAny4VdvC9wW8wSQYIKwYBBQUHAQEEPTA7MDkGCCsGAQUFBzABhi1o
dHRwOi8vUEFUTkFDQV90d28ub2NzcHRlc3QuY29tL3Jlc3BvbmRlcnBhdGgwDQYJ
KoZIhvcNAQELBQADggEBAKmPlD0MmiyTbqsujVXa5WscloSCn+9/IcB3OnszIppF
n/DRzLe2N3s2eZatKxGDDgn7G7YHGBI4mHX8DTL1Ya+lIh07Xw5XPiya4Fgj71hu
2IIwpbB2+KGqXe+5bCWoS1gaecoQWrn7fJV1/p6+CsV47eWNkSi3XuyjcceYTpDM
Dvua0fziCdt1iNTNytlFrC7XVBxdLor+3ojLKq8n3PmaLnLCIjgCAkDMJdUS5pzS
lOfY0E6uBsd7mH82bu9uybvq5bneZ6WVdGrQDJbY94Nf8cW0RMXezR2Rxrllox1X
Sh49jOtbRS1Vw/8v5z2QW5rxk320pI3dYVIi2TOAouM=
-----END CERTIFICATE-----
