Certificate:
    Data:
        Version: 3 (0x2)
        Serial Number: 11042563100191 (0xa0b0c0d0e1f)
    Signature Algorithm: sha256WithRSAEncryption
        Issuer: CN=BANGALORECA_CA, C=IN, O=CITRIX, OU=ANG, ST=KA/emailAddress=BANGALORECA_CA@BANGALORECA_mail.com
        Validity
            Not Before: Jul  8 04:31:24 2016 GMT
            Not After : Jul  6 04:31:24 2026 GMT
        Subject: ST=KA, C=IN, CN=117_BANGALORECA_server/emailAddress=117_BANGALORECA@test_ca.com, O=CITRIX
        Subject Public Key Info:
            Public Key Algorithm: rsaEncryption
                Public-Key: (2048 bit)
                Modulus:
                    00:df:8d:07:2d:9a:32:3a:27:3c:85:30:07:ab:7f:
                    14:01:89:bd:57:4b:4f:61:07:5a:00:53:76:9e:df:
                    55:09:ef:f2:0f:e1:a8:5c:44:fe:8b:df:91:18:a8:
                    87:7e:76:19:c3:b8:8e:62:1c:ed:16:86:43:af:41:
                    31:8c:ac:f9:22:24:34:a7:f9:28:09:f9:1c:c2:da:
                    ff:15:d8:21:c7:fa:1d:8f:7b:3a:8f:21:08:b8:0c:
                    16:b9:f6:a4:c7:30:63:2d:97:de:6f:5f:ef:63:43:
                    ce:9e:3a:e6:de:74:61:a5:00:02:c9:81:b2:af:5d:
                    fa:6f:0f:94:a4:8b:25:ab:22:38:04:ee:80:0c:ab:
                    68:73:d6:a9:1b:3f:c4:24:72:3c:98:b0:b5:98:2a:
                    f8:9f:93:d0:79:18:18:0e:69:1a:fb:f3:c7:47:3c:
                    d0:4b:ef:98:19:58:b0:cc:e6:f0:b0:e4:68:ff:b0:
                    77:bf:82:e4:5d:ec:fd:5d:43:d6:89:cf:7e:13:1b:
                    8a:aa:27:56:cb:80:70:a7:ed:ea:35:5c:62:c9:30:
                    af:8e:17:de:5a:c1:03:3a:49:cc:f3:6a:e6:fa:8e:
                    86:89:a9:94:a1:a5:c9:bc:c6:af:a1:89:57:c1:63:
                    7f:c6:55:91:57:36:3d:d2:95:fc:e8:95:f1:c0:92:
                    c1:83
                Exponent: 65537 (0x10001)
        X509v3 extensions:
            Netscape Cert Type: 
                SSL Server
            X509v3 Subject Key Identifier: 
                16:2D:D4:97:A9:96:B7:C4:E1:6A:9A:EF:54:F9:2B:07:B0:D4:22:92
            X509v3 Authority Key Identifier: 
                keyid:3B:D6:D1:53:18:87:05:22:BB:EE:C3:0F:F5:CE:0F:6B:A2:93:A7:B8
                DirName:/CN=BANGALORECA_CA/C=IN/O=CITRIX/OU=ANG/ST=KA/emailAddress=BANGALORECA_CA@BANGALORECA_mail.com
                serial:A1:AC:B4:DA:46:53:58:40

            Authority Information Access: 
                OCSP - URI:http://BANGALORECA_two.ocsptest.com/responderpath

    Signature Algorithm: sha256WithRSAEncryption
         3c:4e:29:72:1d:d1:45:10:0b:54:1e:b5:32:77:56:05:24:f9:
         79:05:90:e7:64:a0:65:be:23:f3:eb:a3:e8:43:a9:95:72:25:
         8e:5a:ac:71:4f:3d:d2:57:4c:f8:ac:c6:ae:39:94:1f:83:27:
         ba:30:4f:07:31:4b:0f:32:e8:13:9f:18:55:59:63:5c:71:7f:
         11:40:0d:84:e7:92:ce:26:9c:eb:96:00:82:33:d7:46:71:39:
         d1:d5:29:38:18:8c:fe:91:52:fa:83:2e:b9:7e:bf:b5:85:e2:
         91:ca:bb:da:a4:51:15:33:8c:19:85:41:7c:87:87:d7:a9:64:
         42:4f:7e:97:75:b2:bf:e6:13:cc:93:a8:c8:5c:58:84:93:c3:
         ca:00:6b:a5:f4:a7:2b:15:c7:a1:b3:cd:7d:a7:6d:8c:d4:6f:
         5d:83:37:45:2e:db:1c:e0:98:12:cc:26:52:b6:0e:03:80:de:
         08:7d:87:e2:a2:31:73:a3:37:f8:a0:c8:f2:64:a1:fe:4c:d5:
         c5:22:ec:40:70:8d:1f:8e:d3:87:b6:16:38:40:8d:21:88:b7:
         c8:30:c1:2a:3b:b2:aa:b6:5f:c9:79:a8:bf:31:c8:f5:9f:4a:
         65:af:67:81:ed:23:ae:33:f2:9e:c5:4f:62:a3:de:06:8c:d9:
         86:cc:91:90
-----BEGIN CERTIFICATE-----
MIIExDCCA6ygAwIBAgIGCgsMDQ4fMA0GCSqGSIb3DQEBCwUAMIGGMRcwFQYDVQQD
FA5CQU5HQUxPUkVDQV9DQTELMAkGA1UEBhMCSU4xDzANBgNVBAoTBkNJVFJJWDEM
MAoGA1UECxMDQU5HMQswCQYDVQQIEwJLQTEyMDAGCSqGSIb3DQEJARYjQkFOR0FM
T1JFQ0FfQ0FAQkFOR0FMT1JFQ0FfbWFpbC5jb20wHhcNMTYwNzA4MDQzMTI0WhcN
MjYwNzA2MDQzMTI0WjB4MQswCQYDVQQIEwJLQTELMAkGA1UEBhMCSU4xHzAdBgNV
BAMUFjExN19CQU5HQUxPUkVDQV9zZXJ2ZXIxKjAoBgkqhkiG9w0BCQEWGzExN19C
QU5HQUxPUkVDQUB0ZXN0X2NhLmNvbTEPMA0GA1UEChMGQ0lUUklYMIIBIjANBgkq
hkiG9w0BAQEFAAOCAQ8AMIIBCgKCAQEA340HLZoyOic8hTAHq38UAYm9V0tPYQda
AFN2nt9VCe/yD+GoXET+i9+RGKiHfnYZw7iOYhztFoZDr0ExjKz5IiQ0p/koCfkc
wtr/Fdghx/odj3s6jyEIuAwWufakxzBjLZfeb1/vY0POnjrm3nRhpQACyYGyr136
bw+UpIslqyI4BO6ADKtoc9apGz/EJHI8mLC1mCr4n5PQeRgYDmka+/PHRzzQS++Y
GViwzObwsORo/7B3v4LkXez9XUPWic9+ExuKqidWy4Bwp+3qNVxiyTCvjhfeWsED
OknM82rm+o6GiamUoaXJvMavoYlXwWN/xlWRVzY90pX86JXxwJLBgwIDAQABo4IB
QzCCAT8wEQYJYIZIAYb4QgEBBAQDAgZAMB0GA1UdDgQWBBQWLdSXqZa3xOFqmu9U
+SsHsNQikjCBuwYDVR0jBIGzMIGwgBQ71tFTGIcFIrvuww/1zg9ropOnuKGBjKSB
iTCBhjEXMBUGA1UEAxQOQkFOR0FMT1JFQ0FfQ0ExCzAJBgNVBAYTAklOMQ8wDQYD
VQQKEwZDSVRSSVgxDDAKBgNVBAsTA0FORzELMAkGA1UECBMCS0ExMjAwBgkqhkiG
9w0BCQEWI0JBTkdBTE9SRUNBX0NBQEJBTkdBTE9SRUNBX21haWwuY29tggkAoay0
2kZTWEAwTQYIKwYBBQUHAQEEQTA/MD0GCCsGAQUFBzABhjFodHRwOi8vQkFOR0FM
T1JFQ0FfdHdvLm9jc3B0ZXN0LmNvbS9yZXNwb25kZXJwYXRoMA0GCSqGSIb3DQEB
CwUAA4IBAQA8TilyHdFFEAtUHrUyd1YFJPl5BZDnZKBlviPz66PoQ6mVciWOWqxx
Tz3SV0z4rMauOZQfgye6ME8HMUsPMugTnxhVWWNccX8RQA2E55LOJpzrlgCCM9dG
cTnR1Sk4GIz+kVL6gy65fr+1heKRyrvapFEVM4wZhUF8h4fXqWRCT36XdbK/5hPM
k6jIXFiEk8PKAGul9KcrFcehs819p22M1G9dgzdFLtsc4JgSzCZStg4DgN4IfYfi
ojFzozf4oMjyZKH+TNXFIuxAcI0fjtOHthY4QI0hiLfIMMEqO7Kqtl/Jeai/Mcj1
n0plr2eB7SOuM/KexU9io94GjNmGzJGQ
-----END CERTIFICATE-----
