Certificate:
    Data:
        Version: 3 (0x2)
        Serial Number: 11042563100191 (0xa0b0c0d0e1f)
    Signature Algorithm: sha256WithRSAEncryption
        Issuer: CN=MYSORECA_CA, C=IN, O=CITRIX, OU=ANG, ST=KA/emailAddress=MYSORECA_CA@MYSORECA_mail.com
        Validity
            Not Before: Jul  8 04:36:34 2016 GMT
            Not After : Jul  6 04:36:34 2026 GMT
        Subject: ST=KA, C=IN, CN=117_MYSORECA_server/emailAddress=117_MYSORECA@test_ca.com, O=CITRIX
        Subject Public Key Info:
            Public Key Algorithm: rsaEncryption
                Public-Key: (2048 bit)
                Modulus:
                    00:df:4b:db:bb:e2:b7:49:be:61:c5:00:89:50:f0:
                    78:b0:01:3a:21:fe:14:03:c2:f4:e2:0e:37:47:b9:
                    cd:ad:74:34:00:3e:1d:30:04:90:79:0a:48:c8:a1:
                    06:28:a3:45:ac:42:fd:2f:3e:f4:96:42:35:dc:bb:
                    e9:e8:7a:5b:c7:65:0c:67:36:03:64:f7:3f:94:98:
                    14:90:58:39:f9:35:96:57:5b:cf:d0:fb:11:e1:d3:
                    dd:d0:37:c2:52:49:30:cf:ae:03:f4:a2:47:d2:c0:
                    2f:c6:c8:c9:bf:b2:ed:48:ac:ba:1b:40:80:97:e8:
                    7f:a8:ae:15:b6:85:a0:45:d1:86:5a:ed:b7:0b:cf:
                    f0:a1:49:74:e7:42:a8:09:9a:0d:cb:db:c9:c1:84:
                    21:9a:78:cf:5c:3e:0e:10:3e:07:a2:d5:26:0f:38:
                    ac:63:f4:a5:0f:a2:7a:5b:3c:8f:34:a0:98:bc:0b:
                    21:3a:43:b3:be:1f:02:fe:b6:21:06:35:47:e1:7e:
                    05:dc:9f:1c:16:31:cb:9f:2d:e5:ef:b3:c5:d7:2e:
                    64:2e:83:bb:26:91:0a:20:18:dd:62:1a:7a:64:b2:
                    05:13:18:73:19:5f:7f:68:73:c2:ea:fa:81:39:46:
                    6e:68:ce:11:ee:3d:d4:1e:dc:69:d6:36:dc:14:ec:
                    28:a5
                Exponent: 65537 (0x10001)
        X509v3 extensions:
            Netscape Cert Type: 
                SSL Server
            X509v3 Subject Key Identifier: 
                52:30:9B:1A:F7:40:77:D5:B2:A2:AF:E5:D8:27:FE:86:D9:58:29:BE
            X509v3 Authority Key Identifier: 
                keyid:C6:18:DA:E4:16:A1:1E:60:AE:18:00:F5:A7:DF:0A:8B:65:4D:36:95
                DirName:/CN=MYSORECA_CA/C=IN/O=CITRIX/OU=ANG/ST=KA/emailAddress=MYSORECA_CA@MYSORECA_mail.com
                serial:D5:74:54:E9:D5:CF:C9:F6

            Authority Information Access: 
                OCSP - URI:http://MYSORECA_two.ocsptest.com/responderpath

    Signature Algorithm: sha256WithRSAEncryption
         54:e3:63:65:68:f8:c3:d2:00:38:b2:28:9e:80:a9:7c:1c:43:
         f0:c3:19:04:e4:82:5c:38:7b:f1:8f:9a:5b:4f:54:96:b2:95:
         d4:88:4f:e8:15:28:07:03:6a:11:92:29:40:ad:1d:d8:c4:3c:
         17:69:41:28:a6:10:ba:70:20:a8:91:eb:96:44:3e:1f:b9:e1:
         66:d3:9c:73:16:73:e7:34:ae:d1:09:02:29:fe:15:8a:52:d5:
         18:b4:ca:1d:75:be:2b:fc:c2:f7:ed:41:5a:62:24:8d:81:85:
         6a:6c:41:91:2e:94:88:d2:a2:59:7e:e2:5d:e5:9b:7e:7e:92:
         a5:3f:19:c2:59:b3:5f:0a:49:2b:17:bf:39:b1:9d:e7:3b:5c:
         32:26:36:ac:15:e2:ce:b3:bb:85:1a:5c:3b:a7:73:a5:2d:64:
         a4:76:99:cb:d5:d8:63:52:2b:6a:c9:b5:0b:ff:e7:79:c2:59:
         75:3d:7d:45:d1:69:e3:2a:5e:68:71:15:40:76:74:e1:8f:b0:
         1e:49:f9:e8:9a:5e:ff:42:4c:74:93:5b:b7:27:35:df:3f:bc:
         e5:8b:6f:f5:95:ad:0c:27:02:f7:cd:36:7f:a3:b6:7f:02:e2:
         a8:b8:f6:b5:d3:c3:c2:be:66:20:ae:de:02:49:8d:2e:9d:e4:
         c4:d3:64:e5
-----BEGIN CERTIFICATE-----
MIIEpjCCA46gAwIBAgIGCgsMDQ4fMA0GCSqGSIb3DQEBCwUAMH0xFDASBgNVBAMU
C01ZU09SRUNBX0NBMQswCQYDVQQGEwJJTjEPMA0GA1UEChMGQ0lUUklYMQwwCgYD
VQQLEwNBTkcxCzAJBgNVBAgTAktBMSwwKgYJKoZIhvcNAQkBFh1NWVNPUkVDQV9D
QUBNWVNPUkVDQV9tYWlsLmNvbTAeFw0xNjA3MDgwNDM2MzRaFw0yNjA3MDYwNDM2
MzRaMHIxCzAJBgNVBAgTAktBMQswCQYDVQQGEwJJTjEcMBoGA1UEAxQTMTE3X01Z
U09SRUNBX3NlcnZlcjEnMCUGCSqGSIb3DQEJARYYMTE3X01ZU09SRUNBQHRlc3Rf
Y2EuY29tMQ8wDQYDVQQKEwZDSVRSSVgwggEiMA0GCSqGSIb3DQEBAQUAA4IBDwAw
ggEKAoIBAQDfS9u74rdJvmHFAIlQ8HiwAToh/hQDwvTiDjdHuc2tdDQAPh0wBJB5
CkjIoQYoo0WsQv0vPvSWQjXcu+noelvHZQxnNgNk9z+UmBSQWDn5NZZXW8/Q+xHh
093QN8JSSTDPrgP0okfSwC/GyMm/su1IrLobQICX6H+orhW2haBF0YZa7bcLz/Ch
SXTnQqgJmg3L28nBhCGaeM9cPg4QPgei1SYPOKxj9KUPonpbPI80oJi8CyE6Q7O+
HwL+tiEGNUfhfgXcnxwWMcufLeXvs8XXLmQug7smkQogGN1iGnpksgUTGHMZX39o
c8Lq+oE5Rm5ozhHuPdQe3GnWNtwU7CilAgMBAAGjggE1MIIBMTARBglghkgBhvhC
AQEEBAMCBkAwHQYDVR0OBBYEFFIwmxr3QHfVsqKv5dgn/obZWCm+MIGwBgNVHSME
gagwgaWAFMYY2uQWoR5grhgA9affCotlTTaVoYGBpH8wfTEUMBIGA1UEAxQLTVlT
T1JFQ0FfQ0ExCzAJBgNVBAYTAklOMQ8wDQYDVQQKEwZDSVRSSVgxDDAKBgNVBAsT
A0FORzELMAkGA1UECBMCS0ExLDAqBgkqhkiG9w0BCQEWHU1ZU09SRUNBX0NBQE1Z
U09SRUNBX21haWwuY29tggkA1XRU6dXPyfYwSgYIKwYBBQUHAQEEPjA8MDoGCCsG
AQUFBzABhi5odHRwOi8vTVlTT1JFQ0FfdHdvLm9jc3B0ZXN0LmNvbS9yZXNwb25k
ZXJwYXRoMA0GCSqGSIb3DQEBCwUAA4IBAQBU42NlaPjD0gA4siiegKl8HEPwwxkE
5IJcOHvxj5pbT1SWspXUiE/oFSgHA2oRkilArR3YxDwXaUEophC6cCCokeuWRD4f
ueFm05xzFnPnNK7RCQIp/hWKUtUYtModdb4r/ML37UFaYiSNgYVqbEGRLpSI0qJZ
fuJd5Zt+fpKlPxnCWbNfCkkrF785sZ3nO1wyJjasFeLOs7uFGlw7p3OlLWSkdpnL
1dhjUitqybUL/+d5wll1PX1F0WnjKl5ocRVAdnThj7AeSfnoml7/Qkx0k1u3JzXf
P7zli2/1la0MJwL3zTZ/o7Z/AuKouPa108PCvmYgrt4CSY0uneTE02Tl
-----END CERTIFICATE-----
