Certificate:
    Data:
        Version: 3 (0x2)
        Serial Number: 11042563100191 (0xa0b0c0d0e1f)
    Signature Algorithm: sha256WithRSAEncryption
        Issuer: CN=OOTYCA_CA, C=IN, O=CITRIX, OU=ANG, ST=KA/emailAddress=OOTYCA_CA@OOTYCA_mail.com
        Validity
            Not Before: Jul  8 04:37:07 2016 GMT
            Not After : Jul  6 04:37:07 2026 GMT
        Subject: ST=KA, C=IN, CN=117_OOTYCA_server/emailAddress=117_OOTYCA@test_ca.com, O=CITRIX
        Subject Public Key Info:
            Public Key Algorithm: rsaEncryption
                Public-Key: (2048 bit)
                Modulus:
                    00:e3:17:83:97:ff:aa:45:de:b9:4f:3f:ca:4b:ce:
                    e9:2f:ce:f6:13:51:12:b8:85:9f:2c:2d:57:84:15:
                    5e:bc:ce:22:2f:b9:d0:e3:79:6f:44:93:4f:7c:51:
                    f1:a2:79:25:49:b3:fc:23:49:ec:d1:7b:dc:01:72:
                    dd:92:b9:3b:8a:70:a6:39:74:66:cb:e0:e2:e5:4d:
                    07:67:11:71:18:f6:1d:fe:17:22:d5:99:b7:41:48:
                    62:43:a4:c5:d7:4f:2b:a4:7e:2f:e3:e3:86:cc:32:
                    ef:f4:87:5b:87:39:4b:f9:06:c3:06:9c:9c:2e:4f:
                    c5:41:99:df:40:8c:8a:8f:35:d8:2c:c2:71:60:bf:
                    a5:c4:c8:f7:c1:ec:ce:c7:e2:48:da:46:e3:8b:3c:
                    d1:fa:6a:07:35:5d:12:db:2d:be:df:54:05:19:b6:
                    01:e8:70:61:e3:2d:a9:ae:3b:bf:dd:f7:32:57:f6:
                    d1:cd:76:3a:72:91:7c:6e:07:0c:fd:aa:7f:1d:6d:
                    09:da:36:da:80:7c:45:2b:45:cd:8e:54:9e:5e:1d:
                    73:65:e4:24:40:17:77:1b:15:f2:a8:2e:62:86:48:
                    cc:22:cb:06:bb:dd:1d:27:41:3d:c5:ed:53:ba:80:
                    d4:7b:e3:20:03:51:10:f5:8b:fd:97:27:84:13:b2:
                    50:37
                Exponent: 65537 (0x10001)
        X509v3 extensions:
            Netscape Cert Type: 
                SSL Server
            X509v3 Subject Key Identifier: 
                36:5F:53:77:4C:00:DF:2A:21:C9:EE:89:B7:ED:EF:78:11:84:7B:75
            X509v3 Authority Key Identifier: 
                keyid:9E:A0:B1:FE:A8:B8:21:30:13:39:F2:C3:C1:A8:43:CB:5D:73:FC:B5
                DirName:/CN=OOTYCA_CA/C=IN/O=CITRIX/OU=ANG/ST=KA/emailAddress=OOTYCA_CA@OOTYCA_mail.com
                serial:AA:C2:AB:74:21:09:60:FF

            Authority Information Access: 
                OCSP - URI:http://OOTYCA_two.ocsptest.com/responderpath

    Signature Algorithm: sha256WithRSAEncryption
         3c:79:6c:8f:ae:a3:8a:84:72:e6:85:33:47:21:e5:52:9f:23:
         9f:93:36:04:28:74:bb:76:87:9e:67:76:f8:e1:19:58:68:d7:
         06:a8:a0:51:24:e9:99:11:06:59:66:1b:1a:e4:bd:aa:23:9b:
         63:f2:0f:64:5b:a1:dc:85:23:83:df:98:39:12:15:b7:1d:ad:
         c7:29:26:dc:1c:e1:1e:ff:44:51:77:d3:7a:40:3a:b9:f7:bf:
         00:e0:37:8c:8d:fa:92:31:ea:20:4a:98:73:5e:9e:1a:01:43:
         3f:4b:4b:7a:e7:ea:6e:41:31:ff:62:42:f4:93:ee:ef:39:f0:
         15:f9:ef:5a:e8:f4:da:14:59:99:74:a3:47:c5:fe:80:8d:81:
         78:6d:bf:70:43:f5:86:c5:21:f7:03:e5:8a:83:38:c2:ee:73:
         61:5d:01:52:db:93:46:04:f8:5d:ab:6a:fc:63:92:f6:fc:c4:
         e1:10:c2:1a:d2:25:03:80:19:d2:4a:e7:60:42:6a:09:90:0e:
         0c:47:da:24:63:1f:bc:93:4b:6f:88:b0:e2:8f:cf:b8:58:79:
         94:67:ec:4a:f8:43:15:87:d5:58:d9:39:a3:aa:cb:cb:be:1d:
         c2:4d:9d:fe:70:12:2e:3a:8a:a0:d9:4f:0e:41:ff:4c:b0:63:
         ac:d4:70:8c
-----BEGIN CERTIFICATE-----
MIIEkzCCA3ugAwIBAgIGCgsMDQ4fMA0GCSqGSIb3DQEBCwUAMHcxEjAQBgNVBAMU
CU9PVFlDQV9DQTELMAkGA1UEBhMCSU4xDzANBgNVBAoTBkNJVFJJWDEMMAoGA1UE
CxMDQU5HMQswCQYDVQQIEwJLQTEoMCYGCSqGSIb3DQEJARYZT09UWUNBX0NBQE9P
VFlDQV9tYWlsLmNvbTAeFw0xNjA3MDgwNDM3MDdaFw0yNjA3MDYwNDM3MDdaMG4x
CzAJBgNVBAgTAktBMQswCQYDVQQGEwJJTjEaMBgGA1UEAxQRMTE3X09PVFlDQV9z
ZXJ2ZXIxJTAjBgkqhkiG9w0BCQEWFjExN19PT1RZQ0FAdGVzdF9jYS5jb20xDzAN
BgNVBAoTBkNJVFJJWDCCASIwDQYJKoZIhvcNAQEBBQADggEPADCCAQoCggEBAOMX
g5f/qkXeuU8/ykvO6S/O9hNREriFnywtV4QVXrzOIi+50ON5b0STT3xR8aJ5JUmz
/CNJ7NF73AFy3ZK5O4pwpjl0Zsvg4uVNB2cRcRj2Hf4XItWZt0FIYkOkxddPK6R+
L+Pjhswy7/SHW4c5S/kGwwacnC5PxUGZ30CMio812CzCcWC/pcTI98HszsfiSNpG
44s80fpqBzVdEtstvt9UBRm2AehwYeMtqa47v933Mlf20c12OnKRfG4HDP2qfx1t
Cdo22oB8RStFzY5Unl4dc2XkJEAXdxsV8qguYoZIzCLLBrvdHSdBPcXtU7qA1Hvj
IANREPWL/ZcnhBOyUDcCAwEAAaOCASwwggEoMBEGCWCGSAGG+EIBAQQEAwIGQDAd
BgNVHQ4EFgQUNl9Td0wA3yohye6Jt+3veBGEe3UwgakGA1UdIwSBoTCBnoAUnqCx
/qi4ITATOfLDwahDy11z/LWhe6R5MHcxEjAQBgNVBAMUCU9PVFlDQV9DQTELMAkG
A1UEBhMCSU4xDzANBgNVBAoTBkNJVFJJWDEMMAoGA1UECxMDQU5HMQswCQYDVQQI
EwJLQTEoMCYGCSqGSIb3DQEJARYZT09UWUNBX0NBQE9PVFlDQV9tYWlsLmNvbYIJ
AKrCq3QhCWD/MEgGCCsGAQUFBwEBBDwwOjA4BggrBgEFBQcwAYYsaHR0cDovL09P
VFlDQV90d28ub2NzcHRlc3QuY29tL3Jlc3BvbmRlcnBhdGgwDQYJKoZIhvcNAQEL
BQADggEBADx5bI+uo4qEcuaFM0ch5VKfI5+TNgQodLt2h55ndvjhGVho1waooFEk
6ZkRBllmGxrkvaojm2PyD2RbodyFI4PfmDkSFbcdrccpJtwc4R7/RFF303pAOrn3
vwDgN4yN+pIx6iBKmHNenhoBQz9LS3rn6m5BMf9iQvST7u858BX571ro9NoUWZl0
o0fF/oCNgXhtv3BD9YbFIfcD5YqDOMLuc2FdAVLbk0YE+F2ravxjkvb8xOEQwhrS
JQOAGdJK52BCagmQDgxH2iRjH7yTS2+IsOKPz7hYeZRn7Er4QxWH1VjZOaOqy8u+
HcJNnf5wEi46iqDZTw5B/0ywY6zUcIw=
-----END CERTIFICATE-----
