Certificate:
    Data:
        Version: 3 (0x2)
        Serial Number: 11042563100191 (0xa0b0c0d0e1f)
    Signature Algorithm: sha256WithRSAEncryption
        Issuer: CN=BHOPALCA_CA, C=IN, O=CITRIX, OU=ANG, ST=KA/emailAddress=BHOPALCA_CA@BHOPALCA_mail.com
        Validity
            Not Before: Jul  8 04:32:36 2016 GMT
            Not After : Jul  6 04:32:36 2026 GMT
        Subject: ST=KA, C=IN, CN=117_BHOPALCA_server/emailAddress=117_BHOPALCA@test_ca.com, O=CITRIX
        Subject Public Key Info:
            Public Key Algorithm: rsaEncryption
                Public-Key: (2048 bit)
                Modulus:
                    00:a3:0a:47:4d:9d:7d:3c:4b:ba:c4:29:c6:b8:73:
                    01:e1:a5:97:58:3d:87:0e:d3:4c:17:46:4d:c3:fb:
                    8a:8e:2c:ff:0c:b2:28:ee:c5:6e:a1:41:cc:1e:36:
                    a7:d7:5f:5c:ee:86:f0:ca:f5:b0:59:12:0d:24:65:
                    bc:91:93:52:11:8a:ea:90:58:02:f8:a8:3e:3f:f1:
                    04:ab:4a:eb:ef:b3:08:47:d3:28:ce:cf:55:84:48:
                    1e:ec:d2:6d:a3:97:c3:9a:ce:a2:1c:3f:18:cf:39:
                    07:c2:12:3d:12:87:cd:85:65:f4:06:5e:26:0f:db:
                    df:16:1b:cc:11:11:8b:04:43:c0:c7:eb:a9:7e:61:
                    68:f2:81:ef:a9:21:63:a8:d9:e1:c9:3b:11:bd:2b:
                    6c:e4:1c:d2:d3:f8:23:a1:a2:71:65:9e:0e:ea:22:
                    6d:4f:1d:89:f9:c3:98:28:c9:6d:d4:ea:40:98:83:
                    99:56:38:86:ac:fb:69:75:76:42:8f:f7:00:aa:e7:
                    1b:a0:d8:2c:45:1c:6b:3c:ac:26:77:9a:af:37:38:
                    f8:f9:e2:87:48:ca:50:e4:67:a8:3f:b2:91:8b:73:
                    62:84:d8:8b:e1:f5:d1:1b:23:32:7a:34:1c:bd:e0:
                    45:73:d9:39:c9:e4:3b:72:d0:a1:3c:f3:90:28:e7:
                    95:41
                Exponent: 65537 (0x10001)
        X509v3 extensions:
            Netscape Cert Type: 
                SSL Server
            X509v3 Subject Key Identifier: 
                08:2E:BA:05:D1:8A:5A:3B:2A:A0:79:58:8C:F8:75:6A:E7:50:6A:89
            X509v3 Authority Key Identifier: 
                keyid:A6:66:0E:59:0F:3C:5C:11:35:B2:B3:99:59:A9:D3:A6:B1:5E:95:D2
                DirName:/CN=BHOPALCA_CA/C=IN/O=CITRIX/OU=ANG/ST=KA/emailAddress=BHOPALCA_CA@BHOPALCA_mail.com
                serial:BE:89:55:F3:65:28:17:9A

            Authority Information Access: 
                OCSP - URI:http://BHOPALCA_two.ocsptest.com/responderpath

    Signature Algorithm: sha256WithRSAEncryption
         70:cc:b2:d1:c2:dd:72:82:bf:9f:de:49:1b:f9:80:c1:a9:2c:
         1f:ee:13:d1:34:82:61:5c:e0:5e:99:d2:4f:2d:12:f3:85:24:
         38:0e:70:c0:8e:b4:c0:cc:86:b3:60:c0:57:d7:28:74:67:f4:
         17:1f:79:8b:d9:f5:8d:db:2e:d5:d1:cf:68:aa:bb:9b:2b:bb:
         4e:1b:0e:b4:bd:4f:79:46:e7:2f:e3:b4:30:bf:5a:13:02:83:
         64:86:52:01:f9:ec:c3:17:35:ca:71:87:82:a1:7a:06:c7:61:
         44:af:8a:ba:63:e5:38:f5:0c:b4:11:09:7a:00:fe:bd:08:70:
         9c:79:80:80:44:ff:b8:c4:9e:52:a2:9a:04:3a:42:45:2e:eb:
         37:8b:1f:ea:29:42:9f:bf:b7:f1:f8:44:ba:38:b8:7b:75:4a:
         de:4d:2a:16:fc:92:ad:f9:1b:e8:3d:f0:7f:fd:50:12:7b:4e:
         73:50:c3:9b:fb:9f:5f:2e:e6:7d:40:cb:d2:22:0c:de:0d:15:
         e8:a0:5e:2f:0d:b8:01:79:b4:ae:ed:fb:a1:53:f8:ca:50:61:
         f4:6a:d6:8b:2a:c9:bd:d9:9f:14:87:f9:f2:37:6e:99:2d:9a:
         66:b2:e7:15:42:fa:d3:6c:5a:55:7b:da:60:b8:ed:6d:56:f7:
         26:66:78:94
-----BEGIN CERTIFICATE-----
MIIEpjCCA46gAwIBAgIGCgsMDQ4fMA0GCSqGSIb3DQEBCwUAMH0xFDASBgNVBAMU
C0JIT1BBTENBX0NBMQswCQYDVQQGEwJJTjEPMA0GA1UEChMGQ0lUUklYMQwwCgYD
VQQLEwNBTkcxCzAJBgNVBAgTAktBMSwwKgYJKoZIhvcNAQkBFh1CSE9QQUxDQV9D
QUBCSE9QQUxDQV9tYWlsLmNvbTAeFw0xNjA3MDgwNDMyMzZaFw0yNjA3MDYwNDMy
MzZaMHIxCzAJBgNVBAgTAktBMQswCQYDVQQGEwJJTjEcMBoGA1UEAxQTMTE3X0JI
T1BBTENBX3NlcnZlcjEnMCUGCSqGSIb3DQEJARYYMTE3X0JIT1BBTENBQHRlc3Rf
Y2EuY29tMQ8wDQYDVQQKEwZDSVRSSVgwggEiMA0GCSqGSIb3DQEBAQUAA4IBDwAw
ggEKAoIBAQCjCkdNnX08S7rEKca4cwHhpZdYPYcO00wXRk3D+4qOLP8MsijuxW6h
QcweNqfXX1zuhvDK9bBZEg0kZbyRk1IRiuqQWAL4qD4/8QSrSuvvswhH0yjOz1WE
SB7s0m2jl8OazqIcPxjPOQfCEj0Sh82FZfQGXiYP298WG8wREYsEQ8DH66l+YWjy
ge+pIWOo2eHJOxG9K2zkHNLT+COhonFlng7qIm1PHYn5w5goyW3U6kCYg5lWOIas
+2l1dkKP9wCq5xug2CxFHGs8rCZ3mq83OPj54odIylDkZ6g/spGLc2KE2Ivh9dEb
IzJ6NBy94EVz2TnJ5Dty0KE885Ao55VBAgMBAAGjggE1MIIBMTARBglghkgBhvhC
AQEEBAMCBkAwHQYDVR0OBBYEFAguugXRilo7KqB5WIz4dWrnUGqJMIGwBgNVHSME
gagwgaWAFKZmDlkPPFwRNbKzmVmp06axXpXSoYGBpH8wfTEUMBIGA1UEAxQLQkhP
UEFMQ0FfQ0ExCzAJBgNVBAYTAklOMQ8wDQYDVQQKEwZDSVRSSVgxDDAKBgNVBAsT
A0FORzELMAkGA1UECBMCS0ExLDAqBgkqhkiG9w0BCQEWHUJIT1BBTENBX0NBQEJI
T1BBTENBX21haWwuY29tggkAvolV82UoF5owSgYIKwYBBQUHAQEEPjA8MDoGCCsG
AQUFBzABhi5odHRwOi8vQkhPUEFMQ0FfdHdvLm9jc3B0ZXN0LmNvbS9yZXNwb25k
ZXJwYXRoMA0GCSqGSIb3DQEBCwUAA4IBAQBwzLLRwt1ygr+f3kkb+YDBqSwf7hPR
NIJhXOBemdJPLRLzhSQ4DnDAjrTAzIazYMBX1yh0Z/QXH3mL2fWN2y7V0c9oqrub
K7tOGw60vU95Rucv47Qwv1oTAoNkhlIB+ezDFzXKcYeCoXoGx2FEr4q6Y+U49Qy0
EQl6AP69CHCceYCARP+4xJ5SopoEOkJFLus3ix/qKUKfv7fx+ES6OLh7dUreTSoW
/JKt+RvoPfB//VASe05zUMOb+59fLuZ9QMvSIgzeDRXooF4vDbgBebSu7fuhU/jK
UGH0ataLKsm92Z8Uh/nyN26ZLZpmsucVQvrTbFpVe9pguO1tVvcmZniU
-----END CERTIFICATE-----
