Certificate:
    Data:
        Version: 3 (0x2)
        Serial Number: 11042563100192 (0xa0b0c0d0e20)
    Signature Algorithm: sha256WithRSAEncryption
        Issuer: CN=BANGALORECA_CA, C=IN, O=CITRIX, OU=ANG, ST=KA/emailAddress=BANGALORECA_CA@BANGALORECA_mail.com
        Validity
            Not Before: Jul  8 04:31:25 2016 GMT
            Not After : Jul  6 04:31:25 2026 GMT
        Subject: ST=KA, C=IN, CN=118_BANGALORECA_server/emailAddress=118_BANGALORECA@test_ca.com, O=CITRIX
        Subject Public Key Info:
            Public Key Algorithm: rsaEncryption
                Public-Key: (2048 bit)
                Modulus:
                    00:d8:0e:ae:58:d2:41:f4:be:4a:f1:09:86:0c:0f:
                    aa:9d:cc:f3:ea:77:74:e6:fa:dd:a2:9a:ff:c7:5f:
                    3f:8b:0b:c2:59:8c:35:bf:f8:d2:8e:dd:44:60:28:
                    fd:f2:b9:85:62:a8:36:56:88:b1:f6:05:d9:e5:ea:
                    e7:5f:76:9e:d8:f8:f1:27:75:49:58:c4:0e:64:7f:
                    e6:c0:39:64:7a:dd:87:44:55:fc:35:8b:b9:95:1d:
                    c6:97:54:2a:8c:92:a3:de:e7:11:83:4b:6d:f2:9e:
                    b0:99:c8:c3:ac:c1:76:7e:04:cc:ff:e5:6a:36:d2:
                    ed:34:a1:38:ed:2f:cb:e3:f1:6b:67:b5:4e:8a:88:
                    c5:09:05:14:76:59:1f:e8:b3:86:08:e6:cc:aa:de:
                    2b:23:df:9d:72:14:62:f7:99:f4:01:5f:7a:30:ae:
                    c1:4c:31:94:9a:7d:46:cf:39:ab:cb:29:25:61:b1:
                    08:bc:10:1e:fc:1b:11:89:6a:77:04:ec:9f:b8:9b:
                    b2:8c:52:3d:f6:b2:eb:a3:0f:c7:12:bf:eb:bd:98:
                    a5:4b:6f:02:e9:8b:77:92:7d:1a:69:d3:05:a1:38:
                    14:b9:30:d5:f9:99:04:02:96:7d:cb:3c:45:d6:cd:
                    61:77:6a:32:28:19:4d:a1:b5:b2:26:d4:11:86:c5:
                    c1:fb
                Exponent: 65537 (0x10001)
        X509v3 extensions:
            Netscape Cert Type: 
                SSL Server
            X509v3 Subject Key Identifier: 
                5D:02:F1:25:68:B1:6B:66:E0:97:47:53:12:1B:B4:04:E6:61:F5:1C
            X509v3 Authority Key Identifier: 
                keyid:3B:D6:D1:53:18:87:05:22:BB:EE:C3:0F:F5:CE:0F:6B:A2:93:A7:B8
                DirName:/CN=BANGALORECA_CA/C=IN/O=CITRIX/OU=ANG/ST=KA/emailAddress=BANGALORECA_CA@BANGALORECA_mail.com
                serial:A1:AC:B4:DA:46:53:58:40

            Authority Information Access: 
                OCSP - URI:http://BANGALORECA_two.ocsptest.com/responderpath

    Signature Algorithm: sha256WithRSAEncryption
         5b:70:e1:e7:ab:d7:be:20:8b:4d:4e:c8:e8:e4:89:ed:83:3f:
         b5:c1:bf:04:fd:c2:c7:e2:84:54:69:79:47:09:3b:f0:95:21:
         6d:00:13:6e:a6:26:c5:6e:75:73:be:c6:cd:6e:42:bd:b1:e2:
         24:f3:b2:bc:8b:ef:45:17:7d:2b:b8:cf:07:05:91:1e:f7:b1:
         87:21:a5:6d:1b:83:45:70:bd:d0:5f:0e:03:87:ba:52:46:d8:
         05:ca:19:3d:4d:41:df:c5:1e:6a:3d:2b:d8:73:d4:f4:26:b6:
         0d:31:e6:12:c2:63:73:ce:49:8a:1f:d9:a1:ca:88:16:64:0f:
         4b:6e:41:f8:fe:1a:38:cb:3f:4d:f4:47:8f:39:1f:94:0a:5e:
         20:27:2d:17:67:83:f8:70:5c:be:ca:14:03:0b:3e:dc:36:49:
         95:9f:b8:0d:34:cf:01:d8:65:fc:ad:81:49:c1:40:66:00:c6:
         2e:30:a4:28:58:81:25:db:08:dd:b5:0c:ed:b9:85:44:44:48:
         29:5f:dd:1b:7e:79:4f:06:36:1b:72:1e:90:42:b0:ad:29:e1:
         0c:c2:20:bf:57:b8:54:8f:21:4c:09:73:e4:b3:ae:35:d8:d9:
         ea:0b:f2:9c:71:da:fd:93:33:10:b2:18:a6:32:6a:1e:32:17:
         a6:2d:53:3c
-----BEGIN CERTIFICATE-----
MIIExDCCA6ygAwIBAgIGCgsMDQ4gMA0GCSqGSIb3DQEBCwUAMIGGMRcwFQYDVQQD
FA5CQU5HQUxPUkVDQV9DQTELMAkGA1UEBhMCSU4xDzANBgNVBAoTBkNJVFJJWDEM
MAoGA1UECxMDQU5HMQswCQYDVQQIEwJLQTEyMDAGCSqGSIb3DQEJARYjQkFOR0FM
T1JFQ0FfQ0FAQkFOR0FMT1JFQ0FfbWFpbC5jb20wHhcNMTYwNzA4MDQzMTI1WhcN
MjYwNzA2MDQzMTI1WjB4MQswCQYDVQQIEwJLQTELMAkGA1UEBhMCSU4xHzAdBgNV
BAMUFjExOF9CQU5HQUxPUkVDQV9zZXJ2ZXIxKjAoBgkqhkiG9w0BCQEWGzExOF9C
QU5HQUxPUkVDQUB0ZXN0X2NhLmNvbTEPMA0GA1UEChMGQ0lUUklYMIIBIjANBgkq
hkiG9w0BAQEFAAOCAQ8AMIIBCgKCAQEA2A6uWNJB9L5K8QmGDA+qnczz6nd05vrd
opr/x18/iwvCWYw1v/jSjt1EYCj98rmFYqg2Voix9gXZ5ernX3ae2PjxJ3VJWMQO
ZH/mwDlket2HRFX8NYu5lR3Gl1QqjJKj3ucRg0tt8p6wmcjDrMF2fgTM/+VqNtLt
NKE47S/L4/FrZ7VOiojFCQUUdlkf6LOGCObMqt4rI9+dchRi95n0AV96MK7BTDGU
mn1GzzmryyklYbEIvBAe/BsRiWp3BOyfuJuyjFI99rLrow/HEr/rvZilS28C6Yt3
kn0aadMFoTgUuTDV+ZkEApZ9yzxF1s1hd2oyKBlNobWyJtQRhsXB+wIDAQABo4IB
QzCCAT8wEQYJYIZIAYb4QgEBBAQDAgZAMB0GA1UdDgQWBBRdAvElaLFrZuCXR1MS
G7QE5mH1HDCBuwYDVR0jBIGzMIGwgBQ71tFTGIcFIrvuww/1zg9ropOnuKGBjKSB
iTCBhjEXMBUGA1UEAxQOQkFOR0FMT1JFQ0FfQ0ExCzAJBgNVBAYTAklOMQ8wDQYD
VQQKEwZDSVRSSVgxDDAKBgNVBAsTA0FORzELMAkGA1UECBMCS0ExMjAwBgkqhkiG
9w0BCQEWI0JBTkdBTE9SRUNBX0NBQEJBTkdBTE9SRUNBX21haWwuY29tggkAoay0
2kZTWEAwTQYIKwYBBQUHAQEEQTA/MD0GCCsGAQUFBzABhjFodHRwOi8vQkFOR0FM
T1JFQ0FfdHdvLm9jc3B0ZXN0LmNvbS9yZXNwb25kZXJwYXRoMA0GCSqGSIb3DQEB
CwUAA4IBAQBbcOHnq9e+IItNTsjo5Intgz+1wb8E/cLH4oRUaXlHCTvwlSFtABNu
pibFbnVzvsbNbkK9seIk87K8i+9FF30ruM8HBZEe97GHIaVtG4NFcL3QXw4Dh7pS
RtgFyhk9TUHfxR5qPSvYc9T0JrYNMeYSwmNzzkmKH9mhyogWZA9LbkH4/ho4yz9N
9EePOR+UCl4gJy0XZ4P4cFy+yhQDCz7cNkmVn7gNNM8B2GX8rYFJwUBmAMYuMKQo
WIEl2wjdtQztuYVEREgpX90bfnlPBjYbch6QQrCtKeEMwiC/V7hUjyFMCXPks641
2NnqC/Kccdr9kzMQshimMmoeMhemLVM8
-----END CERTIFICATE-----
