Certificate:
    Data:
        Version: 3 (0x2)
        Serial Number: 11042563100192 (0xa0b0c0d0e20)
    Signature Algorithm: sha256WithRSAEncryption
        Issuer: CN=MYSORECA_CA, C=IN, O=CITRIX, OU=ANG, ST=KA/emailAddress=MYSORECA_CA@MYSORECA_mail.com
        Validity
            Not Before: Jul  8 04:36:34 2016 GMT
            Not After : Jul  6 04:36:34 2026 GMT
        Subject: ST=KA, C=IN, CN=118_MYSORECA_server/emailAddress=118_MYSORECA@test_ca.com, O=CITRIX
        Subject Public Key Info:
            Public Key Algorithm: rsaEncryption
                Public-Key: (2048 bit)
                Modulus:
                    00:c6:45:db:0e:c6:6e:c0:36:4e:d0:27:cd:8f:95:
                    6c:bc:9a:74:88:21:75:a1:2c:6d:61:87:8a:e5:ab:
                    8e:0c:5c:b5:56:c3:c7:24:9f:fe:e9:60:82:ee:8e:
                    23:f1:50:ff:a0:7c:28:7c:bd:b7:e7:90:db:ee:61:
                    3f:5d:d6:bb:f0:ce:08:b7:fb:7a:3d:d3:a6:25:fa:
                    86:5c:12:83:b9:f4:d3:e3:98:2d:72:4e:bf:b7:b2:
                    90:4e:75:af:c1:1e:37:54:c9:f1:83:99:33:92:d6:
                    a3:c8:1a:38:e2:e6:75:29:1b:02:5a:81:18:7c:f8:
                    3d:d5:82:ac:f6:89:61:c6:32:79:90:11:4c:a2:80:
                    89:56:f1:42:8b:3f:a3:16:a6:41:fa:0f:03:02:79:
                    55:99:f0:47:30:8d:f2:e7:2e:af:15:68:d9:f1:17:
                    ee:64:56:6a:9b:78:8a:90:95:68:3d:a7:f2:6e:91:
                    a5:a9:d3:90:9e:0d:9d:14:59:aa:56:d2:e3:ff:c4:
                    54:d0:f3:df:9c:e8:7a:8a:bf:9c:4b:98:de:9f:6e:
                    a3:09:ff:04:69:65:01:57:61:1f:37:2e:74:56:2b:
                    b5:04:a2:3c:1c:b3:30:b0:36:0c:9c:64:dd:be:f4:
                    e7:72:08:1a:c3:da:3c:12:31:25:67:a1:7d:27:4a:
                    41:8d
                Exponent: 65537 (0x10001)
        X509v3 extensions:
            Netscape Cert Type: 
                SSL Server
            X509v3 Subject Key Identifier: 
                6C:DC:C7:F5:B3:A1:75:D1:BE:BC:1D:0D:14:39:94:A6:A8:41:CE:0E
            X509v3 Authority Key Identifier: 
                keyid:C6:18:DA:E4:16:A1:1E:60:AE:18:00:F5:A7:DF:0A:8B:65:4D:36:95
                DirName:/CN=MYSORECA_CA/C=IN/O=CITRIX/OU=ANG/ST=KA/emailAddress=MYSORECA_CA@MYSORECA_mail.com
                serial:D5:74:54:E9:D5:CF:C9:F6

            Authority Information Access: 
                OCSP - URI:http://MYSORECA_two.ocsptest.com/responderpath

    Signature Algorithm: sha256WithRSAEncryption
         89:59:e9:8e:24:8a:46:d4:4f:de:bd:06:02:55:fb:6f:e5:34:
         fb:fc:92:c2:f7:5e:45:75:af:1f:32:b8:8b:71:e1:6c:81:76:
         82:36:7d:01:6c:f4:2a:fc:8d:9c:23:e4:30:1e:4a:dd:72:8c:
         c2:4f:9a:67:fe:75:ee:72:bd:ca:3b:50:02:6a:b2:f9:5f:e2:
         10:aa:95:f8:4b:40:9d:e9:22:3d:9c:3b:c1:41:2b:b0:bd:ad:
         4d:2b:28:87:2a:31:e5:1d:ac:7a:57:a4:5b:b4:4e:9d:e6:20:
         11:0d:df:48:ea:02:b4:7a:64:bd:2f:87:29:63:3b:1f:f4:26:
         70:26:7f:87:5b:72:db:f1:59:48:c1:9a:91:87:81:95:69:2f:
         aa:e1:c6:3c:51:c2:2a:a7:a1:06:6d:94:f2:62:0d:90:e7:ba:
         c3:66:32:93:1f:81:77:aa:31:ed:05:aa:2c:9c:1d:c6:26:4d:
         e0:6a:9d:b2:38:13:e3:42:97:05:2b:9c:a0:d7:29:f9:71:15:
         41:21:3d:d3:b3:98:d0:6c:f6:d3:c1:2e:b3:51:b8:83:b4:b0:
         18:61:95:ce:8e:e5:79:3f:79:20:0e:b1:c8:94:3e:a7:8a:d0:
         5a:c1:e2:40:8d:78:d4:e5:55:58:27:d8:a8:c4:dd:aa:3a:2b:
         61:3a:5a:3a
-----BEGIN CERTIFICATE-----
MIIEpjCCA46gAwIBAgIGCgsMDQ4gMA0GCSqGSIb3DQEBCwUAMH0xFDASBgNVBAMU
C01ZU09SRUNBX0NBMQswCQYDVQQGEwJJTjEPMA0GA1UEChMGQ0lUUklYMQwwCgYD
VQQLEwNBTkcxCzAJBgNVBAgTAktBMSwwKgYJKoZIhvcNAQkBFh1NWVNPUkVDQV9D
QUBNWVNPUkVDQV9tYWlsLmNvbTAeFw0xNjA3MDgwNDM2MzRaFw0yNjA3MDYwNDM2
MzRaMHIxCzAJBgNVBAgTAktBMQswCQYDVQQGEwJJTjEcMBoGA1UEAxQTMTE4X01Z
U09SRUNBX3NlcnZlcjEnMCUGCSqGSIb3DQEJARYYMTE4X01ZU09SRUNBQHRlc3Rf
Y2EuY29tMQ8wDQYDVQQKEwZDSVRSSVgwggEiMA0GCSqGSIb3DQEBAQUAA4IBDwAw
ggEKAoIBAQDGRdsOxm7ANk7QJ82PlWy8mnSIIXWhLG1hh4rlq44MXLVWw8ckn/7p
YILujiPxUP+gfCh8vbfnkNvuYT9d1rvwzgi3+3o906Yl+oZcEoO59NPjmC1yTr+3
spBOda/BHjdUyfGDmTOS1qPIGjji5nUpGwJagRh8+D3Vgqz2iWHGMnmQEUyigIlW
8UKLP6MWpkH6DwMCeVWZ8EcwjfLnLq8VaNnxF+5kVmqbeIqQlWg9p/JukaWp05Ce
DZ0UWapW0uP/xFTQ89+c6HqKv5xLmN6fbqMJ/wRpZQFXYR83LnRWK7UEojwcszCw
NgycZN2+9OdyCBrD2jwSMSVnoX0nSkGNAgMBAAGjggE1MIIBMTARBglghkgBhvhC
AQEEBAMCBkAwHQYDVR0OBBYEFGzcx/WzoXXRvrwdDRQ5lKaoQc4OMIGwBgNVHSME
gagwgaWAFMYY2uQWoR5grhgA9affCotlTTaVoYGBpH8wfTEUMBIGA1UEAxQLTVlT
T1JFQ0FfQ0ExCzAJBgNVBAYTAklOMQ8wDQYDVQQKEwZDSVRSSVgxDDAKBgNVBAsT
A0FORzELMAkGA1UECBMCS0ExLDAqBgkqhkiG9w0BCQEWHU1ZU09SRUNBX0NBQE1Z
U09SRUNBX21haWwuY29tggkA1XRU6dXPyfYwSgYIKwYBBQUHAQEEPjA8MDoGCCsG
AQUFBzABhi5odHRwOi8vTVlTT1JFQ0FfdHdvLm9jc3B0ZXN0LmNvbS9yZXNwb25k
ZXJwYXRoMA0GCSqGSIb3DQEBCwUAA4IBAQCJWemOJIpG1E/evQYCVftv5TT7/JLC
915Fda8fMriLceFsgXaCNn0BbPQq/I2cI+QwHkrdcozCT5pn/nXucr3KO1ACarL5
X+IQqpX4S0Cd6SI9nDvBQSuwva1NKyiHKjHlHax6V6RbtE6d5iARDd9I6gK0emS9
L4cpYzsf9CZwJn+HW3Lb8VlIwZqRh4GVaS+q4cY8UcIqp6EGbZTyYg2Q57rDZjKT
H4F3qjHtBaosnB3GJk3gap2yOBPjQpcFK5yg1yn5cRVBIT3Ts5jQbPbTwS6zUbiD
tLAYYZXOjuV5P3kgDrHIlD6nitBaweJAjXjU5VVYJ9ioxN2qOithOlo6
-----END CERTIFICATE-----
