Certificate:
    Data:
        Version: 3 (0x2)
        Serial Number: 11042563100192 (0xa0b0c0d0e20)
    Signature Algorithm: sha256WithRSAEncryption
        Issuer: CN=MUMBAICA_CA, C=IN, O=CITRIX, OU=ANG, ST=KA/emailAddress=MUMBAICA_CA@MUMBAICA_mail.com
        Validity
            Not Before: Jul  8 04:35:51 2016 GMT
            Not After : Jul  6 04:35:51 2026 GMT
        Subject: ST=KA, C=IN, CN=118_MUMBAICA_server/emailAddress=118_MUMBAICA@test_ca.com, O=CITRIX
        Subject Public Key Info:
            Public Key Algorithm: rsaEncryption
                Public-Key: (2048 bit)
                Modulus:
                    00:b8:7c:a4:b0:60:d1:ac:7d:73:2e:87:94:da:37:
                    61:33:ca:ac:7d:fe:41:3d:65:7a:9e:4f:a7:e5:43:
                    ff:a6:4d:51:9b:6b:0b:d6:e6:f5:0f:87:86:68:69:
                    b4:24:60:d6:03:f7:c6:40:06:8a:6f:8e:a7:de:89:
                    88:bf:53:73:f4:4a:c8:23:9f:88:0b:10:91:a8:51:
                    2a:d5:33:c2:80:32:19:f6:3e:a8:a0:5b:69:04:6a:
                    11:eb:6f:f8:6c:76:aa:3d:8d:04:96:18:f8:cc:df:
                    3a:99:9d:e2:b8:3f:c0:ef:fd:0d:ae:31:44:09:bb:
                    ca:78:2c:a4:a7:20:a1:59:7e:0e:b3:97:46:60:91:
                    13:82:72:c5:87:fb:97:f5:2b:a8:ae:3b:75:3b:65:
                    a5:81:a6:6d:52:90:cd:58:0b:d7:54:12:49:8d:41:
                    5e:6d:4b:69:92:43:21:4e:e2:20:c1:d7:92:aa:dc:
                    4a:68:9e:98:c3:44:e5:7f:11:ce:86:37:2d:84:ab:
                    e8:50:0a:8a:af:2d:c4:a2:42:4a:ee:61:b1:55:0f:
                    d1:26:6f:c0:dc:e2:65:0a:8b:0c:87:90:26:1c:33:
                    24:07:4d:71:c1:46:45:51:01:c2:74:ce:50:44:c3:
                    ef:16:a8:03:fa:a5:49:cf:05:a4:95:63:f7:df:f2:
                    3a:2b
                Exponent: 65537 (0x10001)
        X509v3 extensions:
            Netscape Cert Type: 
                SSL Server
            X509v3 Subject Key Identifier: 
                34:DA:CA:2C:C3:42:82:E9:59:3D:17:14:AA:02:62:F9:98:FF:FB:0A
            X509v3 Authority Key Identifier: 
                keyid:37:79:BF:65:19:98:28:32:4E:EF:3E:44:14:19:A9:83:2B:AF:05:7A
                DirName:/CN=MUMBAICA_CA/C=IN/O=CITRIX/OU=ANG/ST=KA/emailAddress=MUMBAICA_CA@MUMBAICA_mail.com
                serial:EE:B1:37:EE:F6:D2:14:91

            Authority Information Access: 
                OCSP - URI:http://MUMBAICA_two.ocsptest.com/responderpath

    Signature Algorithm: sha256WithRSAEncryption
         68:85:d1:8a:f0:0b:37:a5:fb:f1:b5:1c:42:8c:5f:7b:52:63:
         85:34:e7:34:77:b9:48:30:e6:dd:7b:44:92:19:48:a9:d0:f1:
         c5:1e:75:95:f7:b6:5c:ad:f9:df:b6:97:e0:13:b9:f3:02:12:
         34:07:86:39:40:fe:7b:cc:69:ec:2d:cc:3a:2c:a0:cf:7d:1d:
         60:b1:c4:21:4b:31:a2:c0:ad:40:89:0d:64:ae:e2:fd:e3:64:
         14:a6:88:5d:98:f3:96:8a:ee:a3:41:52:de:c1:fd:ac:f1:ac:
         a4:71:a7:72:06:2a:a3:88:21:ae:e9:97:5c:b5:bd:69:ba:a6:
         b2:31:e8:8e:b2:ca:0e:e9:c9:7d:32:96:57:25:90:28:d9:26:
         e9:d4:52:e6:00:59:90:12:ad:52:f6:b1:87:1f:2b:5e:36:13:
         cb:87:28:3e:c7:30:05:54:9a:88:80:2e:ec:fb:57:c3:c6:6d:
         b7:f7:2a:9b:50:39:27:0d:34:4f:05:fd:3f:95:bd:c3:49:77:
         b6:77:1e:aa:b6:a2:04:ca:cd:d2:41:11:3c:71:01:70:1d:cb:
         d0:72:97:d0:71:1a:6c:ee:03:fd:11:c8:42:d3:8e:f0:10:47:
         45:51:16:44:77:d4:20:42:7e:51:5b:2c:67:f9:fc:2c:a2:02:
         ec:2b:3f:a1
-----BEGIN CERTIFICATE-----
MIIEpjCCA46gAwIBAgIGCgsMDQ4gMA0GCSqGSIb3DQEBCwUAMH0xFDASBgNVBAMU
C01VTUJBSUNBX0NBMQswCQYDVQQGEwJJTjEPMA0GA1UEChMGQ0lUUklYMQwwCgYD
VQQLEwNBTkcxCzAJBgNVBAgTAktBMSwwKgYJKoZIhvcNAQkBFh1NVU1CQUlDQV9D
QUBNVU1CQUlDQV9tYWlsLmNvbTAeFw0xNjA3MDgwNDM1NTFaFw0yNjA3MDYwNDM1
NTFaMHIxCzAJBgNVBAgTAktBMQswCQYDVQQGEwJJTjEcMBoGA1UEAxQTMTE4X01V
TUJBSUNBX3NlcnZlcjEnMCUGCSqGSIb3DQEJARYYMTE4X01VTUJBSUNBQHRlc3Rf
Y2EuY29tMQ8wDQYDVQQKEwZDSVRSSVgwggEiMA0GCSqGSIb3DQEBAQUAA4IBDwAw
ggEKAoIBAQC4fKSwYNGsfXMuh5TaN2Ezyqx9/kE9ZXqeT6flQ/+mTVGbawvW5vUP
h4ZoabQkYNYD98ZABopvjqfeiYi/U3P0Ssgjn4gLEJGoUSrVM8KAMhn2PqigW2kE
ahHrb/hsdqo9jQSWGPjM3zqZneK4P8Dv/Q2uMUQJu8p4LKSnIKFZfg6zl0ZgkROC
csWH+5f1K6iuO3U7ZaWBpm1SkM1YC9dUEkmNQV5tS2mSQyFO4iDB15Kq3EponpjD
ROV/Ec6GNy2Eq+hQCoqvLcSiQkruYbFVD9Emb8Dc4mUKiwyHkCYcMyQHTXHBRkVR
AcJ0zlBEw+8WqAP6pUnPBaSVY/ff8jorAgMBAAGjggE1MIIBMTARBglghkgBhvhC
AQEEBAMCBkAwHQYDVR0OBBYEFDTayizDQoLpWT0XFKoCYvmY//sKMIGwBgNVHSME
gagwgaWAFDd5v2UZmCgyTu8+RBQZqYMrrwV6oYGBpH8wfTEUMBIGA1UEAxQLTVVN
QkFJQ0FfQ0ExCzAJBgNVBAYTAklOMQ8wDQYDVQQKEwZDSVRSSVgxDDAKBgNVBAsT
A0FORzELMAkGA1UECBMCS0ExLDAqBgkqhkiG9w0BCQEWHU1VTUJBSUNBX0NBQE1V
TUJBSUNBX21haWwuY29tggkA7rE37vbSFJEwSgYIKwYBBQUHAQEEPjA8MDoGCCsG
AQUFBzABhi5odHRwOi8vTVVNQkFJQ0FfdHdvLm9jc3B0ZXN0LmNvbS9yZXNwb25k
ZXJwYXRoMA0GCSqGSIb3DQEBCwUAA4IBAQBohdGK8As3pfvxtRxCjF97UmOFNOc0
d7lIMObde0SSGUip0PHFHnWV97ZcrfnftpfgE7nzAhI0B4Y5QP57zGnsLcw6LKDP
fR1gscQhSzGiwK1AiQ1kruL942QUpohdmPOWiu6jQVLewf2s8aykcadyBiqjiCGu
6Zdctb1puqayMeiOssoO6cl9MpZXJZAo2Sbp1FLmAFmQEq1S9rGHHyteNhPLhyg+
xzAFVJqIgC7s+1fDxm239yqbUDknDTRPBf0/lb3DSXe2dx6qtqIEys3SQRE8cQFw
HcvQcpfQcRps7gP9EchC047wEEdFURZEd9QgQn5RWyxn+fwsogLsKz+h
-----END CERTIFICATE-----
