Certificate:
    Data:
        Version: 3 (0x2)
        Serial Number: 11042563100193 (0xa0b0c0d0e21)
    Signature Algorithm: sha256WithRSAEncryption
        Issuer: CN=CHENNAICA_CA, C=IN, O=CITRIX, OU=ANG, ST=KA/emailAddress=CHENNAICA_CA@CHENNAICA_mail.com
        Validity
            Not Before: Jul  8 04:33:53 2016 GMT
            Not After : Jul  6 04:33:53 2026 GMT
        Subject: ST=KA, C=IN, CN=119_CHENNAICA_server/emailAddress=119_CHENNAICA@test_ca.com, O=CITRIX
        Subject Public Key Info:
            Public Key Algorithm: rsaEncryption
                Public-Key: (2048 bit)
                Modulus:
                    00:c7:70:0c:ac:8c:c0:ec:94:ab:2f:44:fd:72:a4:
                    6c:b7:ed:ab:f9:4a:df:17:8e:6f:68:ad:a2:85:03:
                    92:85:2f:95:eb:f5:be:ac:8b:c6:d7:b4:4c:d8:07:
                    3c:8a:ef:11:09:e6:7e:9d:78:6f:b8:89:51:08:e7:
                    25:0a:6e:b6:c7:4c:d2:a9:3f:e6:6c:b9:9d:c8:ed:
                    a3:85:06:b7:58:c3:f6:11:72:33:25:3f:17:54:5b:
                    2a:3e:9b:7b:b4:5f:01:68:3e:af:f6:6f:fc:31:86:
                    13:85:d6:b5:c0:eb:86:95:bc:e0:ac:bf:6d:a8:77:
                    03:bc:bb:76:1d:6f:86:a5:3c:f9:24:95:78:5d:33:
                    c9:ee:63:e7:5f:1d:df:45:66:23:c9:fb:4a:95:c7:
                    06:c1:9b:4c:a1:9b:db:e0:c4:da:b8:d0:d7:24:71:
                    cf:6e:70:fa:8b:48:38:fb:78:81:24:d1:f2:08:2e:
                    a3:a7:ea:27:32:87:c0:45:c4:0b:41:8b:53:32:95:
                    0f:2c:68:9f:92:1c:61:f0:62:81:48:51:83:08:6a:
                    b6:c3:a0:fa:b7:a5:84:11:e1:ed:34:38:c2:41:a4:
                    14:7d:a1:b5:77:dd:7d:2e:50:dc:bb:0c:96:d3:98:
                    f6:de:03:cb:d5:53:69:f2:e9:0a:96:b4:a5:08:94:
                    d5:29
                Exponent: 65537 (0x10001)
        X509v3 extensions:
            Netscape Cert Type: 
                SSL Server
            X509v3 Subject Key Identifier: 
                6D:94:C7:82:66:85:8F:C3:12:BD:00:FD:EB:C9:76:3D:6C:6E:7E:DA
            X509v3 Authority Key Identifier: 
                keyid:BE:CA:53:AC:65:89:18:02:1E:F6:53:A2:50:12:94:60:EC:CC:05:FA
                DirName:/CN=CHENNAICA_CA/C=IN/O=CITRIX/OU=ANG/ST=KA/emailAddress=CHENNAICA_CA@CHENNAICA_mail.com
                serial:87:FB:C4:D4:5E:46:56:70

            Authority Information Access: 
                OCSP - URI:http://CHENNAICA_two.ocsptest.com/responderpath

    Signature Algorithm: sha256WithRSAEncryption
         2d:22:2a:e2:c9:cb:88:da:f1:f3:2f:6f:f2:32:96:32:75:5c:
         b7:64:a9:fb:80:3a:72:90:7e:2d:8c:53:82:f8:a3:71:0e:0f:
         34:0b:64:04:de:d2:fe:c6:7b:f7:3e:34:7d:6a:e5:00:86:f3:
         03:4e:e3:b1:8c:2f:3e:74:b7:33:d4:7b:82:da:40:67:9d:1a:
         bf:d0:64:2d:87:6a:b0:33:aa:d8:74:8a:48:73:5e:47:f1:14:
         ff:28:46:e1:d8:a7:a9:6d:19:1b:55:ab:94:48:27:e6:f8:9c:
         00:3f:f5:ac:d1:a5:74:6a:a0:2e:5a:d5:f7:4c:22:d5:12:70:
         74:04:d7:ab:2d:ef:0b:24:fa:81:46:0e:28:0f:1e:d1:8d:6b:
         fb:be:3f:06:7d:27:8d:45:16:42:f2:99:f2:92:f5:c6:df:cd:
         47:4c:db:e6:6b:ae:5e:e7:40:1d:a9:12:5c:75:57:71:68:64:
         45:27:44:a3:54:81:06:26:f6:87:9d:d7:a1:a2:87:38:96:53:
         72:5c:36:3c:e5:c7:75:ad:61:39:db:08:be:06:06:b2:81:b6:
         22:9c:10:9b:2b:68:f0:db:4d:b7:a8:40:74:57:af:0c:c3:ed:
         aa:33:00:7c:1c:25:77:3d:01:3c:43:20:90:be:f3:61:f0:a1:
         76:bb:9f:04
-----BEGIN CERTIFICATE-----
MIIEsjCCA5qgAwIBAgIGCgsMDQ4hMA0GCSqGSIb3DQEBCwUAMIGAMRUwEwYDVQQD
FAxDSEVOTkFJQ0FfQ0ExCzAJBgNVBAYTAklOMQ8wDQYDVQQKEwZDSVRSSVgxDDAK
BgNVBAsTA0FORzELMAkGA1UECBMCS0ExLjAsBgkqhkiG9w0BCQEWH0NIRU5OQUlD
QV9DQUBDSEVOTkFJQ0FfbWFpbC5jb20wHhcNMTYwNzA4MDQzMzUzWhcNMjYwNzA2
MDQzMzUzWjB0MQswCQYDVQQIEwJLQTELMAkGA1UEBhMCSU4xHTAbBgNVBAMUFDEx
OV9DSEVOTkFJQ0Ffc2VydmVyMSgwJgYJKoZIhvcNAQkBFhkxMTlfQ0hFTk5BSUNB
QHRlc3RfY2EuY29tMQ8wDQYDVQQKEwZDSVRSSVgwggEiMA0GCSqGSIb3DQEBAQUA
A4IBDwAwggEKAoIBAQDHcAysjMDslKsvRP1ypGy37av5St8Xjm9oraKFA5KFL5Xr
9b6si8bXtEzYBzyK7xEJ5n6deG+4iVEI5yUKbrbHTNKpP+ZsuZ3I7aOFBrdYw/YR
cjMlPxdUWyo+m3u0XwFoPq/2b/wxhhOF1rXA64aVvOCsv22odwO8u3Ydb4alPPkk
lXhdM8nuY+dfHd9FZiPJ+0qVxwbBm0yhm9vgxNq40Nckcc9ucPqLSDj7eIEk0fII
LqOn6icyh8BFxAtBi1MylQ8saJ+SHGHwYoFIUYMIarbDoPq3pYQR4e00OMJBpBR9
obV33X0uUNy7DJbTmPbeA8vVU2ny6QqWtKUIlNUpAgMBAAGjggE7MIIBNzARBglg
hkgBhvhCAQEEBAMCBkAwHQYDVR0OBBYEFG2Ux4JmhY/DEr0A/evJdj1sbn7aMIG1
BgNVHSMEga0wgaqAFL7KU6xliRgCHvZTolASlGDszAX6oYGGpIGDMIGAMRUwEwYD
VQQDFAxDSEVOTkFJQ0FfQ0ExCzAJBgNVBAYTAklOMQ8wDQYDVQQKEwZDSVRSSVgx
DDAKBgNVBAsTA0FORzELMAkGA1UECBMCS0ExLjAsBgkqhkiG9w0BCQEWH0NIRU5O
QUlDQV9DQUBDSEVOTkFJQ0FfbWFpbC5jb22CCQCH+8TUXkZWcDBLBggrBgEFBQcB
AQQ/MD0wOwYIKwYBBQUHMAGGL2h0dHA6Ly9DSEVOTkFJQ0FfdHdvLm9jc3B0ZXN0
LmNvbS9yZXNwb25kZXJwYXRoMA0GCSqGSIb3DQEBCwUAA4IBAQAtIiriycuI2vHz
L2/yMpYydVy3ZKn7gDpykH4tjFOC+KNxDg80C2QE3tL+xnv3PjR9auUAhvMDTuOx
jC8+dLcz1HuC2kBnnRq/0GQth2qwM6rYdIpIc15H8RT/KEbh2KepbRkbVauUSCfm
+JwAP/Ws0aV0aqAuWtX3TCLVEnB0BNerLe8LJPqBRg4oDx7RjWv7vj8GfSeNRRZC
8pnykvXG381HTNvma65e50AdqRJcdVdxaGRFJ0SjVIEGJvaHndehooc4llNyXDY8
5cd1rWE52wi+BgaygbYinBCbK2jw2023qEB0V68Mw+2qMwB8HCV3PQE8QyCQvvNh
8KF2u58E
-----END CERTIFICATE-----
