Certificate:
    Data:
        Version: 3 (0x2)
        Serial Number: 11042563100193 (0xa0b0c0d0e21)
    Signature Algorithm: sha256WithRSAEncryption
        Issuer: CN=OOTYCA_CA, C=IN, O=CITRIX, OU=ANG, ST=KA/emailAddress=OOTYCA_CA@OOTYCA_mail.com
        Validity
            Not Before: Jul  8 04:37:07 2016 GMT
            Not After : Jul  6 04:37:07 2026 GMT
        Subject: ST=KA, C=IN, CN=119_OOTYCA_server/emailAddress=119_OOTYCA@test_ca.com, O=CITRIX
        Subject Public Key Info:
            Public Key Algorithm: rsaEncryption
                Public-Key: (2048 bit)
                Modulus:
                    00:b7:ee:3d:9a:63:49:f7:4d:88:56:45:57:df:9c:
                    f8:89:7d:c1:7f:40:42:fe:fc:fb:68:bc:17:74:7e:
                    99:d8:f2:07:fb:38:70:2b:ff:62:b2:e7:f2:7c:87:
                    ca:b8:89:22:34:ef:fa:fc:18:71:ef:6f:8a:08:c6:
                    25:a8:8c:5b:44:ba:3d:6b:4e:42:c9:96:0f:a7:38:
                    22:d7:45:ef:21:10:4b:73:af:2b:d7:76:cb:e7:00:
                    1d:5e:d3:31:01:92:f1:2d:38:0f:27:5c:7f:29:93:
                    79:93:76:e0:d9:5c:20:0a:20:7e:eb:e9:1a:9f:bd:
                    91:d2:66:ab:9d:d9:c7:c9:12:a1:b7:e3:1a:b2:bd:
                    07:c5:f8:6a:66:01:ef:73:88:f1:fd:df:83:a0:af:
                    35:a1:cc:47:68:38:e7:29:25:82:0e:12:e5:9e:4c:
                    57:57:3a:98:77:ac:74:12:24:4c:46:23:e3:64:45:
                    d1:ce:56:cc:28:07:7b:42:27:5a:fb:57:64:af:3f:
                    98:58:12:f4:32:1c:17:52:0a:61:f6:7f:39:a8:9b:
                    a3:34:63:22:b3:ad:26:77:0a:ef:c6:ce:40:b1:b9:
                    1e:e3:c4:81:5e:e7:99:fe:e5:0d:d7:ab:4b:bf:fa:
                    45:cc:f0:56:46:d7:a5:ff:7b:29:6a:f9:d6:0c:58:
                    4e:25
                Exponent: 65537 (0x10001)
        X509v3 extensions:
            Netscape Cert Type: 
                SSL Server
            X509v3 Subject Key Identifier: 
                60:95:78:54:BA:CA:6F:C7:97:B1:BA:F4:D0:99:64:F5:B6:63:23:CB
            X509v3 Authority Key Identifier: 
                keyid:9E:A0:B1:FE:A8:B8:21:30:13:39:F2:C3:C1:A8:43:CB:5D:73:FC:B5
                DirName:/CN=OOTYCA_CA/C=IN/O=CITRIX/OU=ANG/ST=KA/emailAddress=OOTYCA_CA@OOTYCA_mail.com
                serial:AA:C2:AB:74:21:09:60:FF

            Authority Information Access: 
                OCSP - URI:http://OOTYCA_two.ocsptest.com/responderpath

    Signature Algorithm: sha256WithRSAEncryption
         00:86:88:bc:50:58:fd:ba:93:a1:aa:4a:70:64:25:99:6b:11:
         74:28:a2:18:b2:74:00:eb:b7:06:1f:43:0d:1e:e2:eb:ec:2f:
         c7:c1:40:d0:f2:b4:5a:e3:e2:79:b5:ec:24:f6:ac:e9:f5:3f:
         8e:b6:ae:67:21:49:6b:d6:e8:05:8a:d9:97:50:ff:9a:e3:b7:
         99:2d:73:ab:32:c0:9c:5d:f1:4b:aa:e7:17:d4:cb:d3:f4:0d:
         4e:9a:f0:96:3e:0d:06:c7:b1:b5:c4:03:04:25:92:b6:fb:50:
         68:74:1c:ca:f7:cc:1a:b9:ff:a4:b1:9f:eb:89:f7:fa:d0:4a:
         94:e5:d8:56:38:07:8f:6b:db:0d:83:46:2b:00:63:40:98:d6:
         8c:02:57:07:93:bd:28:3d:4b:72:2e:7f:8a:47:ca:81:ed:50:
         bc:26:89:56:6c:36:6c:eb:9d:0e:6b:c5:a7:28:14:85:43:fb:
         2d:55:d8:f0:1e:9f:f2:86:ec:b7:5a:43:bc:6b:d9:91:86:b9:
         bd:99:01:b7:a7:b3:5b:ca:68:02:cc:19:fb:14:b6:e7:5b:10:
         3b:ba:a6:6c:ee:5d:18:25:27:b7:55:66:4a:1b:67:22:db:ec:
         dd:78:6b:37:3c:e9:65:af:37:24:59:d2:f7:0c:29:de:84:d9:
         84:4d:5d:1a
-----BEGIN CERTIFICATE-----
MIIEkzCCA3ugAwIBAgIGCgsMDQ4hMA0GCSqGSIb3DQEBCwUAMHcxEjAQBgNVBAMU
CU9PVFlDQV9DQTELMAkGA1UEBhMCSU4xDzANBgNVBAoTBkNJVFJJWDEMMAoGA1UE
CxMDQU5HMQswCQYDVQQIEwJLQTEoMCYGCSqGSIb3DQEJARYZT09UWUNBX0NBQE9P
VFlDQV9tYWlsLmNvbTAeFw0xNjA3MDgwNDM3MDdaFw0yNjA3MDYwNDM3MDdaMG4x
CzAJBgNVBAgTAktBMQswCQYDVQQGEwJJTjEaMBgGA1UEAxQRMTE5X09PVFlDQV9z
ZXJ2ZXIxJTAjBgkqhkiG9w0BCQEWFjExOV9PT1RZQ0FAdGVzdF9jYS5jb20xDzAN
BgNVBAoTBkNJVFJJWDCCASIwDQYJKoZIhvcNAQEBBQADggEPADCCAQoCggEBALfu
PZpjSfdNiFZFV9+c+Il9wX9AQv78+2i8F3R+mdjyB/s4cCv/YrLn8nyHyriJIjTv
+vwYce9vigjGJaiMW0S6PWtOQsmWD6c4ItdF7yEQS3OvK9d2y+cAHV7TMQGS8S04
DydcfymTeZN24NlcIAogfuvpGp+9kdJmq53Zx8kSobfjGrK9B8X4amYB73OI8f3f
g6CvNaHMR2g45yklgg4S5Z5MV1c6mHesdBIkTEYj42RF0c5WzCgHe0InWvtXZK8/
mFgS9DIcF1IKYfZ/OaibozRjIrOtJncK78bOQLG5HuPEgV7nmf7lDderS7/6Rczw
VkbXpf97KWr51gxYTiUCAwEAAaOCASwwggEoMBEGCWCGSAGG+EIBAQQEAwIGQDAd
BgNVHQ4EFgQUYJV4VLrKb8eXsbr00Jlk9bZjI8swgakGA1UdIwSBoTCBnoAUnqCx
/qi4ITATOfLDwahDy11z/LWhe6R5MHcxEjAQBgNVBAMUCU9PVFlDQV9DQTELMAkG
A1UEBhMCSU4xDzANBgNVBAoTBkNJVFJJWDEMMAoGA1UECxMDQU5HMQswCQYDVQQI
EwJLQTEoMCYGCSqGSIb3DQEJARYZT09UWUNBX0NBQE9PVFlDQV9tYWlsLmNvbYIJ
AKrCq3QhCWD/MEgGCCsGAQUFBwEBBDwwOjA4BggrBgEFBQcwAYYsaHR0cDovL09P
VFlDQV90d28ub2NzcHRlc3QuY29tL3Jlc3BvbmRlcnBhdGgwDQYJKoZIhvcNAQEL
BQADggEBAACGiLxQWP26k6GqSnBkJZlrEXQoohiydADrtwYfQw0e4uvsL8fBQNDy
tFrj4nm17CT2rOn1P462rmchSWvW6AWK2ZdQ/5rjt5ktc6sywJxd8Uuq5xfUy9P0
DU6a8JY+DQbHsbXEAwQlkrb7UGh0HMr3zBq5/6Sxn+uJ9/rQSpTl2FY4B49r2w2D
RisAY0CY1owCVweTvSg9S3Iuf4pHyoHtULwmiVZsNmzrnQ5rxacoFIVD+y1V2PAe
n/KG7LdaQ7xr2ZGGub2ZAbens1vKaALMGfsUtudbEDu6pmzuXRglJ7dVZkobZyLb
7N14azc86WWvNyRZ0vcMKd6E2YRNXRo=
-----END CERTIFICATE-----
