Certificate:
    Data:
        Version: 3 (0x2)
        Serial Number: 11042563100193 (0xa0b0c0d0e21)
    Signature Algorithm: sha256WithRSAEncryption
        Issuer: CN=BHOPALCA_CA, C=IN, O=CITRIX, OU=ANG, ST=KA/emailAddress=BHOPALCA_CA@BHOPALCA_mail.com
        Validity
            Not Before: Jul  8 04:32:37 2016 GMT
            Not After : Jul  6 04:32:37 2026 GMT
        Subject: ST=KA, C=IN, CN=119_BHOPALCA_server/emailAddress=119_BHOPALCA@test_ca.com, O=CITRIX
        Subject Public Key Info:
            Public Key Algorithm: rsaEncryption
                Public-Key: (2048 bit)
                Modulus:
                    00:b7:8e:8a:46:ce:16:81:1e:62:b0:cf:6b:82:98:
                    76:03:c9:76:bb:40:78:d7:90:1a:7c:75:36:4e:37:
                    52:35:4b:8a:1b:a7:11:f2:5d:2c:0e:01:84:71:f5:
                    f2:c4:fb:b2:b8:80:39:30:dd:e6:ab:9c:4e:e2:9a:
                    60:74:39:32:49:7b:fc:e2:a5:7a:9f:8a:2e:61:ae:
                    48:f6:f0:0b:11:8d:34:f7:db:f9:2e:08:88:86:3e:
                    1f:92:2f:d5:3a:e2:ff:83:ae:fa:3d:3f:29:20:35:
                    72:7c:16:2d:90:b8:2b:be:c3:24:dc:c4:22:3b:e6:
                    43:d5:58:08:6f:b8:68:1f:a7:9f:a8:92:5e:76:e2:
                    78:8e:a1:10:0a:aa:a7:d6:e0:58:3c:c3:97:99:f6:
                    ca:5c:18:82:a6:7f:08:bb:ff:1c:13:38:c5:d1:85:
                    80:a1:4f:28:a2:69:04:0b:7c:f4:06:9a:67:1d:a4:
                    a4:68:b0:d9:42:f9:3e:98:1f:ed:90:04:49:49:31:
                    71:d1:65:06:16:10:3b:08:ac:f7:29:96:5a:aa:29:
                    4c:e4:41:fc:d4:b5:61:97:0f:a9:d1:3d:fa:fc:a1:
                    84:ce:4b:f9:18:38:fc:91:33:99:92:f1:4f:e8:24:
                    f8:51:01:ed:99:0e:e7:8e:8c:32:9b:3f:c7:06:d3:
                    04:3f
                Exponent: 65537 (0x10001)
        X509v3 extensions:
            Netscape Cert Type: 
                SSL Server
            X509v3 Subject Key Identifier: 
                98:F6:8A:A0:A0:8C:C3:E0:ED:66:BD:F0:B3:FA:5A:24:0E:E7:A5:9C
            X509v3 Authority Key Identifier: 
                keyid:A6:66:0E:59:0F:3C:5C:11:35:B2:B3:99:59:A9:D3:A6:B1:5E:95:D2
                DirName:/CN=BHOPALCA_CA/C=IN/O=CITRIX/OU=ANG/ST=KA/emailAddress=BHOPALCA_CA@BHOPALCA_mail.com
                serial:BE:89:55:F3:65:28:17:9A

            Authority Information Access: 
                OCSP - URI:http://BHOPALCA_two.ocsptest.com/responderpath

    Signature Algorithm: sha256WithRSAEncryption
         74:13:bd:e2:0b:47:01:b4:7b:e0:c1:36:a4:2a:c0:aa:11:d8:
         4b:86:6c:bd:37:2c:0f:fd:c2:b8:0b:0f:5e:64:fd:5e:28:c7:
         0d:72:d9:22:9d:d8:04:68:8a:b1:0c:dd:a8:72:0a:8b:db:0a:
         ae:04:67:c5:8d:57:8b:b0:73:67:89:c8:79:18:72:0e:e7:74:
         55:da:36:57:db:42:53:7e:81:0b:f8:4f:95:76:42:a5:00:a7:
         b6:e0:ff:99:96:c4:e2:d9:6c:2a:ce:cb:ae:cd:37:66:15:6c:
         93:41:5c:f0:4c:3e:52:60:a2:1e:c9:5a:6e:44:82:57:91:e5:
         bc:a1:d2:5c:07:fe:5e:dd:60:6f:5a:85:d1:02:23:98:12:df:
         c1:49:50:b4:7c:76:a7:bf:8e:7e:db:43:53:f4:e7:7b:ce:f0:
         df:31:0b:81:7a:f3:06:e3:45:3d:4a:19:6a:a4:8f:fa:01:14:
         2e:93:38:fd:26:7d:85:01:90:97:6d:da:b6:a4:f4:4b:46:c6:
         1d:0f:03:f8:18:14:19:38:ff:a5:18:63:86:ce:55:08:e3:d4:
         a0:0b:b6:91:a7:15:2f:ca:98:1f:ea:d9:77:1f:46:d9:a8:c7:
         08:52:d4:6b:a7:8d:f5:c1:c2:ad:e8:d7:69:d8:71:1f:f4:50:
         13:de:62:23
-----BEGIN CERTIFICATE-----
MIIEpjCCA46gAwIBAgIGCgsMDQ4hMA0GCSqGSIb3DQEBCwUAMH0xFDASBgNVBAMU
C0JIT1BBTENBX0NBMQswCQYDVQQGEwJJTjEPMA0GA1UEChMGQ0lUUklYMQwwCgYD
VQQLEwNBTkcxCzAJBgNVBAgTAktBMSwwKgYJKoZIhvcNAQkBFh1CSE9QQUxDQV9D
QUBCSE9QQUxDQV9tYWlsLmNvbTAeFw0xNjA3MDgwNDMyMzdaFw0yNjA3MDYwNDMy
MzdaMHIxCzAJBgNVBAgTAktBMQswCQYDVQQGEwJJTjEcMBoGA1UEAxQTMTE5X0JI
T1BBTENBX3NlcnZlcjEnMCUGCSqGSIb3DQEJARYYMTE5X0JIT1BBTENBQHRlc3Rf
Y2EuY29tMQ8wDQYDVQQKEwZDSVRSSVgwggEiMA0GCSqGSIb3DQEBAQUAA4IBDwAw
ggEKAoIBAQC3jopGzhaBHmKwz2uCmHYDyXa7QHjXkBp8dTZON1I1S4obpxHyXSwO
AYRx9fLE+7K4gDkw3earnE7immB0OTJJe/zipXqfii5hrkj28AsRjTT32/kuCIiG
Ph+SL9U64v+Drvo9PykgNXJ8Fi2QuCu+wyTcxCI75kPVWAhvuGgfp5+okl524niO
oRAKqqfW4Fg8w5eZ9spcGIKmfwi7/xwTOMXRhYChTyiiaQQLfPQGmmcdpKRosNlC
+T6YH+2QBElJMXHRZQYWEDsIrPcpllqqKUzkQfzUtWGXD6nRPfr8oYTOS/kYOPyR
M5mS8U/oJPhRAe2ZDueOjDKbP8cG0wQ/AgMBAAGjggE1MIIBMTARBglghkgBhvhC
AQEEBAMCBkAwHQYDVR0OBBYEFJj2iqCgjMPg7Wa98LP6WiQO56WcMIGwBgNVHSME
gagwgaWAFKZmDlkPPFwRNbKzmVmp06axXpXSoYGBpH8wfTEUMBIGA1UEAxQLQkhP
UEFMQ0FfQ0ExCzAJBgNVBAYTAklOMQ8wDQYDVQQKEwZDSVRSSVgxDDAKBgNVBAsT
A0FORzELMAkGA1UECBMCS0ExLDAqBgkqhkiG9w0BCQEWHUJIT1BBTENBX0NBQEJI
T1BBTENBX21haWwuY29tggkAvolV82UoF5owSgYIKwYBBQUHAQEEPjA8MDoGCCsG
AQUFBzABhi5odHRwOi8vQkhPUEFMQ0FfdHdvLm9jc3B0ZXN0LmNvbS9yZXNwb25k
ZXJwYXRoMA0GCSqGSIb3DQEBCwUAA4IBAQB0E73iC0cBtHvgwTakKsCqEdhLhmy9
NywP/cK4Cw9eZP1eKMcNctkindgEaIqxDN2ocgqL2wquBGfFjVeLsHNnich5GHIO
53RV2jZX20JTfoEL+E+VdkKlAKe24P+ZlsTi2WwqzsuuzTdmFWyTQVzwTD5SYKIe
yVpuRIJXkeW8odJcB/5e3WBvWoXRAiOYEt/BSVC0fHanv45+20NT9Od7zvDfMQuB
evMG40U9ShlqpI/6ARQukzj9Jn2FAZCXbdq2pPRLRsYdDwP4GBQZOP+lGGOGzlUI
49SgC7aRpxUvypgf6tl3H0bZqMcIUtRrp431wcKt6Ndp2HEf9FAT3mIj
-----END CERTIFICATE-----
