Certificate:
    Data:
        Version: 3 (0x2)
        Serial Number: 11042563100193 (0xa0b0c0d0e21)
    Signature Algorithm: sha256WithRSAEncryption
        Issuer: CN=BANGALORECA_CA, C=IN, O=CITRIX, OU=ANG, ST=KA/emailAddress=BANGALORECA_CA@BANGALORECA_mail.com
        Validity
            Not Before: Jul  8 04:31:25 2016 GMT
            Not After : Jul  6 04:31:25 2026 GMT
        Subject: ST=KA, C=IN, CN=119_BANGALORECA_server/emailAddress=119_BANGALORECA@test_ca.com, O=CITRIX
        Subject Public Key Info:
            Public Key Algorithm: rsaEncryption
                Public-Key: (2048 bit)
                Modulus:
                    00:b6:81:7f:9f:80:d0:fa:bd:fa:c2:51:f3:00:21:
                    63:b3:c3:38:49:00:57:3b:2f:3c:1d:d0:20:fa:1f:
                    d9:4e:b9:03:92:06:89:55:e1:2a:15:69:04:0d:4c:
                    94:e3:b7:27:93:de:f2:4c:94:b9:6b:fa:79:13:fd:
                    51:19:87:aa:2f:86:7a:e8:47:6d:3a:ce:a4:77:0a:
                    6b:f4:45:ff:49:01:9b:7e:15:d9:b6:2a:b3:88:51:
                    6c:42:b8:cd:f0:c1:e4:40:c7:87:a2:2b:ac:7f:45:
                    f7:d9:52:fb:c8:80:36:c9:53:8f:bd:9b:08:d3:20:
                    67:b6:64:b5:c8:7f:a5:a5:9a:0c:d0:32:50:ab:c3:
                    14:fb:66:9e:7f:a4:d9:19:09:40:4c:e2:a0:0c:6e:
                    f6:4d:9c:b1:c7:2b:d3:c7:ea:96:e4:08:b2:ec:b6:
                    0e:13:76:e5:30:0e:f9:27:d6:fd:e9:af:57:87:f8:
                    64:d1:8c:54:bf:db:cf:12:9a:e6:e1:cc:cd:a7:86:
                    3d:60:53:cd:53:bd:31:c5:22:11:a4:d1:0a:e9:89:
                    9b:3a:94:89:cc:56:77:05:02:55:ba:92:f3:81:b0:
                    19:f2:48:37:23:cb:84:0e:df:79:f2:5f:c3:58:93:
                    66:ec:9f:21:af:57:ca:7f:95:0d:65:49:5c:b8:92:
                    a8:fb
                Exponent: 65537 (0x10001)
        X509v3 extensions:
            Netscape Cert Type: 
                SSL Server
            X509v3 Subject Key Identifier: 
                5E:A4:88:25:AD:E4:E5:B8:C1:CA:CB:70:D8:C4:9D:3C:28:0E:73:53
            X509v3 Authority Key Identifier: 
                keyid:3B:D6:D1:53:18:87:05:22:BB:EE:C3:0F:F5:CE:0F:6B:A2:93:A7:B8
                DirName:/CN=BANGALORECA_CA/C=IN/O=CITRIX/OU=ANG/ST=KA/emailAddress=BANGALORECA_CA@BANGALORECA_mail.com
                serial:A1:AC:B4:DA:46:53:58:40

            Authority Information Access: 
                OCSP - URI:http://BANGALORECA_two.ocsptest.com/responderpath

    Signature Algorithm: sha256WithRSAEncryption
         03:2e:91:51:eb:e9:e7:2f:ba:3d:36:ee:fd:dc:27:62:62:9c:
         97:81:32:8a:a6:9b:98:9b:8a:89:26:2f:e2:18:08:92:bb:43:
         b4:51:d6:29:a6:90:0d:e2:f7:93:d8:81:f8:ce:34:29:d2:d6:
         16:ce:3d:7f:9b:39:5c:bd:63:0a:28:95:04:1a:ca:86:60:fa:
         6b:69:8d:1b:cf:6e:2e:86:95:92:83:60:53:f9:9a:e6:7b:ed:
         71:08:80:2a:db:38:87:8e:d5:de:49:4c:be:ae:ed:29:a8:00:
         07:72:44:d3:9a:21:e9:e6:47:43:92:5d:b8:27:37:77:dc:20:
         72:53:19:97:6c:ab:99:7e:cd:3b:98:02:43:a4:a4:c9:e8:c9:
         cc:71:3f:f9:d5:76:ed:44:16:f2:a6:2c:a9:3d:7f:e5:01:3c:
         fe:d6:a8:b0:6a:38:65:2a:a0:6a:6a:bc:5d:28:6f:9d:45:79:
         ed:d0:82:37:dc:f5:81:6f:26:37:4e:47:6b:98:69:66:16:31:
         f6:32:f0:75:ce:b3:2e:f1:f8:49:7b:a9:01:06:b0:22:4b:6c:
         67:75:9f:67:a9:97:a8:f1:b7:a5:c1:35:01:c1:5f:1a:dd:cc:
         4c:90:d5:c1:72:fb:c2:9d:ff:c6:b4:37:06:88:dd:e6:d6:7c:
         9f:ab:09:b5
-----BEGIN CERTIFICATE-----
MIIExDCCA6ygAwIBAgIGCgsMDQ4hMA0GCSqGSIb3DQEBCwUAMIGGMRcwFQYDVQQD
FA5CQU5HQUxPUkVDQV9DQTELMAkGA1UEBhMCSU4xDzANBgNVBAoTBkNJVFJJWDEM
MAoGA1UECxMDQU5HMQswCQYDVQQIEwJLQTEyMDAGCSqGSIb3DQEJARYjQkFOR0FM
T1JFQ0FfQ0FAQkFOR0FMT1JFQ0FfbWFpbC5jb20wHhcNMTYwNzA4MDQzMTI1WhcN
MjYwNzA2MDQzMTI1WjB4MQswCQYDVQQIEwJLQTELMAkGA1UEBhMCSU4xHzAdBgNV
BAMUFjExOV9CQU5HQUxPUkVDQV9zZXJ2ZXIxKjAoBgkqhkiG9w0BCQEWGzExOV9C
QU5HQUxPUkVDQUB0ZXN0X2NhLmNvbTEPMA0GA1UEChMGQ0lUUklYMIIBIjANBgkq
hkiG9w0BAQEFAAOCAQ8AMIIBCgKCAQEAtoF/n4DQ+r36wlHzACFjs8M4SQBXOy88
HdAg+h/ZTrkDkgaJVeEqFWkEDUyU47cnk97yTJS5a/p5E/1RGYeqL4Z66EdtOs6k
dwpr9EX/SQGbfhXZtiqziFFsQrjN8MHkQMeHoiusf0X32VL7yIA2yVOPvZsI0yBn
tmS1yH+lpZoM0DJQq8MU+2aef6TZGQlATOKgDG72TZyxxyvTx+qW5Aiy7LYOE3bl
MA75J9b96a9Xh/hk0YxUv9vPEprm4czNp4Y9YFPNU70xxSIRpNEK6YmbOpSJzFZ3
BQJVupLzgbAZ8kg3I8uEDt958l/DWJNm7J8hr1fKf5UNZUlcuJKo+wIDAQABo4IB
QzCCAT8wEQYJYIZIAYb4QgEBBAQDAgZAMB0GA1UdDgQWBBRepIglreTluMHKy3DY
xJ08KA5zUzCBuwYDVR0jBIGzMIGwgBQ71tFTGIcFIrvuww/1zg9ropOnuKGBjKSB
iTCBhjEXMBUGA1UEAxQOQkFOR0FMT1JFQ0FfQ0ExCzAJBgNVBAYTAklOMQ8wDQYD
VQQKEwZDSVRSSVgxDDAKBgNVBAsTA0FORzELMAkGA1UECBMCS0ExMjAwBgkqhkiG
9w0BCQEWI0JBTkdBTE9SRUNBX0NBQEJBTkdBTE9SRUNBX21haWwuY29tggkAoay0
2kZTWEAwTQYIKwYBBQUHAQEEQTA/MD0GCCsGAQUFBzABhjFodHRwOi8vQkFOR0FM
T1JFQ0FfdHdvLm9jc3B0ZXN0LmNvbS9yZXNwb25kZXJwYXRoMA0GCSqGSIb3DQEB
CwUAA4IBAQADLpFR6+nnL7o9Nu793CdiYpyXgTKKppuYm4qJJi/iGAiSu0O0UdYp
ppAN4veT2IH4zjQp0tYWzj1/mzlcvWMKKJUEGsqGYPpraY0bz24uhpWSg2BT+Zrm
e+1xCIAq2ziHjtXeSUy+ru0pqAAHckTTmiHp5kdDkl24Jzd33CByUxmXbKuZfs07
mAJDpKTJ6MnMcT/51XbtRBbypiypPX/lATz+1qiwajhlKqBqarxdKG+dRXnt0II3
3PWBbyY3TkdrmGlmFjH2MvB1zrMu8fhJe6kBBrAiS2xndZ9nqZeo8belwTUBwV8a
3cxMkNXBcvvCnf/GtDcGiN3m1nyfqwm1
-----END CERTIFICATE-----
