Certificate:
    Data:
        Version: 3 (0x2)
        Serial Number: 11042563100193 (0xa0b0c0d0e21)
    Signature Algorithm: sha256WithRSAEncryption
        Issuer: CN=MUMBAICA_CA, C=IN, O=CITRIX, OU=ANG, ST=KA/emailAddress=MUMBAICA_CA@MUMBAICA_mail.com
        Validity
            Not Before: Jul  8 04:35:51 2016 GMT
            Not After : Jul  6 04:35:51 2026 GMT
        Subject: ST=KA, C=IN, CN=119_MUMBAICA_server/emailAddress=119_MUMBAICA@test_ca.com, O=CITRIX
        Subject Public Key Info:
            Public Key Algorithm: rsaEncryption
                Public-Key: (2048 bit)
                Modulus:
                    00:c9:b5:ba:f5:62:07:03:60:c0:57:c6:e1:3e:e3:
                    bd:e6:4a:6d:f5:b9:06:dc:3c:6e:28:f2:bd:f6:7b:
                    b2:dd:e0:7e:d6:ff:9d:54:7e:16:8d:88:b3:05:fc:
                    2c:51:76:f4:a2:5a:7c:c4:c4:0e:59:96:de:19:9f:
                    0d:21:26:91:ca:a3:aa:a5:94:8f:a8:e9:32:31:93:
                    2c:47:90:52:41:f9:7e:0c:d8:2c:58:ad:90:2b:90:
                    03:ed:bd:90:34:dc:e0:f8:89:06:ad:b3:3f:fc:11:
                    f4:de:00:45:82:b2:77:6c:9f:d7:53:ff:49:33:96:
                    8d:00:e9:f3:f1:2a:10:a1:35:63:36:d5:60:8a:18:
                    9a:bc:9b:6e:34:d2:b8:e5:d4:ed:3e:05:11:50:88:
                    a5:ba:ce:69:52:ae:e9:e0:2e:96:3e:56:56:e3:bc:
                    84:3b:16:fd:6b:4a:28:6e:57:bf:8f:8c:6e:5c:e5:
                    a5:c3:e7:90:a5:6e:da:6e:b2:36:5d:09:5d:0a:84:
                    8c:5f:ca:7a:4b:34:3a:fc:83:25:b6:2a:f9:30:17:
                    7e:36:e1:50:ae:65:82:da:83:0a:09:23:51:cc:4c:
                    7c:a4:b0:68:c3:d5:ad:81:8b:1d:30:c8:38:12:1a:
                    18:fc:09:91:2a:01:c9:82:82:ea:19:16:74:0c:56:
                    8c:83
                Exponent: 65537 (0x10001)
        X509v3 extensions:
            Netscape Cert Type: 
                SSL Server
            X509v3 Subject Key Identifier: 
                47:C8:60:FC:2D:02:B6:F4:25:FD:3F:4B:CE:41:6A:AD:AF:07:2C:70
            X509v3 Authority Key Identifier: 
                keyid:37:79:BF:65:19:98:28:32:4E:EF:3E:44:14:19:A9:83:2B:AF:05:7A
                DirName:/CN=MUMBAICA_CA/C=IN/O=CITRIX/OU=ANG/ST=KA/emailAddress=MUMBAICA_CA@MUMBAICA_mail.com
                serial:EE:B1:37:EE:F6:D2:14:91

            Authority Information Access: 
                OCSP - URI:http://MUMBAICA_two.ocsptest.com/responderpath

    Signature Algorithm: sha256WithRSAEncryption
         ac:99:f2:9e:13:b4:9d:b8:21:ed:64:55:83:fb:9b:bf:32:cc:
         de:08:45:d7:bd:71:c5:21:94:60:ea:ab:12:e5:cc:71:96:90:
         b8:1d:50:d5:a4:c0:18:e7:7b:2c:b5:a4:35:59:cc:c8:bd:13:
         31:98:03:d1:5b:82:95:73:c5:7f:45:a1:1f:88:ee:0e:4c:51:
         24:f9:62:bd:b5:67:c5:3c:d7:91:c4:19:e3:e1:2c:9a:05:6c:
         94:78:87:c3:29:76:42:83:03:45:24:3a:73:c1:4d:3c:85:93:
         5a:68:a5:2b:32:3f:48:15:f6:6f:4f:36:a1:6d:f6:ae:79:e8:
         bd:40:2a:ee:e9:26:83:df:cc:a4:86:35:ea:3b:c0:39:97:3f:
         ba:ef:64:95:b9:80:61:2a:90:82:d0:20:ff:32:ae:a0:f4:70:
         43:0f:0f:a5:87:99:8f:e0:ba:b4:60:70:17:0b:45:f5:8d:aa:
         d5:90:00:62:5a:55:81:c5:b7:ad:ea:16:49:ce:1e:06:e4:ff:
         f3:8a:55:b9:e3:4d:26:37:28:b3:c7:c6:6c:db:1b:25:bd:d9:
         3a:93:ba:5c:61:1e:1c:c9:de:78:47:5a:fc:db:7b:2f:17:f3:
         5d:34:3c:7c:ee:1c:32:46:4d:27:c1:ee:1c:49:a5:db:71:9a:
         52:fb:e5:4e
-----BEGIN CERTIFICATE-----
MIIEpjCCA46gAwIBAgIGCgsMDQ4hMA0GCSqGSIb3DQEBCwUAMH0xFDASBgNVBAMU
C01VTUJBSUNBX0NBMQswCQYDVQQGEwJJTjEPMA0GA1UEChMGQ0lUUklYMQwwCgYD
VQQLEwNBTkcxCzAJBgNVBAgTAktBMSwwKgYJKoZIhvcNAQkBFh1NVU1CQUlDQV9D
QUBNVU1CQUlDQV9tYWlsLmNvbTAeFw0xNjA3MDgwNDM1NTFaFw0yNjA3MDYwNDM1
NTFaMHIxCzAJBgNVBAgTAktBMQswCQYDVQQGEwJJTjEcMBoGA1UEAxQTMTE5X01V
TUJBSUNBX3NlcnZlcjEnMCUGCSqGSIb3DQEJARYYMTE5X01VTUJBSUNBQHRlc3Rf
Y2EuY29tMQ8wDQYDVQQKEwZDSVRSSVgwggEiMA0GCSqGSIb3DQEBAQUAA4IBDwAw
ggEKAoIBAQDJtbr1YgcDYMBXxuE+473mSm31uQbcPG4o8r32e7Ld4H7W/51UfhaN
iLMF/CxRdvSiWnzExA5Zlt4Znw0hJpHKo6qllI+o6TIxkyxHkFJB+X4M2CxYrZAr
kAPtvZA03OD4iQatsz/8EfTeAEWCsndsn9dT/0kzlo0A6fPxKhChNWM21WCKGJq8
m2400rjl1O0+BRFQiKW6zmlSrungLpY+VlbjvIQ7Fv1rSihuV7+PjG5c5aXD55Cl
btpusjZdCV0KhIxfynpLNDr8gyW2KvkwF3424VCuZYLagwoJI1HMTHyksGjD1a2B
ix0wyDgSGhj8CZEqAcmCguoZFnQMVoyDAgMBAAGjggE1MIIBMTARBglghkgBhvhC
AQEEBAMCBkAwHQYDVR0OBBYEFEfIYPwtArb0Jf0/S85Baq2vByxwMIGwBgNVHSME
gagwgaWAFDd5v2UZmCgyTu8+RBQZqYMrrwV6oYGBpH8wfTEUMBIGA1UEAxQLTVVN
QkFJQ0FfQ0ExCzAJBgNVBAYTAklOMQ8wDQYDVQQKEwZDSVRSSVgxDDAKBgNVBAsT
A0FORzELMAkGA1UECBMCS0ExLDAqBgkqhkiG9w0BCQEWHU1VTUJBSUNBX0NBQE1V
TUJBSUNBX21haWwuY29tggkA7rE37vbSFJEwSgYIKwYBBQUHAQEEPjA8MDoGCCsG
AQUFBzABhi5odHRwOi8vTVVNQkFJQ0FfdHdvLm9jc3B0ZXN0LmNvbS9yZXNwb25k
ZXJwYXRoMA0GCSqGSIb3DQEBCwUAA4IBAQCsmfKeE7SduCHtZFWD+5u/MszeCEXX
vXHFIZRg6qsS5cxxlpC4HVDVpMAY53sstaQ1WczIvRMxmAPRW4KVc8V/RaEfiO4O
TFEk+WK9tWfFPNeRxBnj4SyaBWyUeIfDKXZCgwNFJDpzwU08hZNaaKUrMj9IFfZv
Tzahbfaueei9QCru6SaD38ykhjXqO8A5lz+672SVuYBhKpCC0CD/Mq6g9HBDDw+l
h5mP4Lq0YHAXC0X1jarVkABiWlWBxbet6hZJzh4G5P/zilW5400mNyizx8Zs2xsl
vdk6k7pcYR4cyd54R1r823svF/NdNDx87hwyRk0nwe4cSaXbcZpS++VO
-----END CERTIFICATE-----
