Certificate:
    Data:
        Version: 3 (0x2)
        Serial Number: 11042563100193 (0xa0b0c0d0e21)
    Signature Algorithm: sha256WithRSAEncryption
        Issuer: CN=CALCUTTACA_CA, C=IN, O=CITRIX, OU=ANG, ST=KA/emailAddress=CALCUTTACA_CA@CALCUTTACA_mail.com
        Validity
            Not Before: Jul  8 04:33:08 2016 GMT
            Not After : Jul  6 04:33:08 2026 GMT
        Subject: ST=KA, C=IN, CN=119_CALCUTTACA_server/emailAddress=119_CALCUTTACA@test_ca.com, O=CITRIX
        Subject Public Key Info:
            Public Key Algorithm: rsaEncryption
                Public-Key: (2048 bit)
                Modulus:
                    00:b8:ed:0e:7a:02:d6:86:36:1b:fb:fe:52:3d:90:
                    12:b7:5e:a1:ed:a2:cb:68:a3:98:88:b4:e1:f8:e0:
                    37:0d:ac:85:e6:9b:16:83:bc:a1:dd:64:81:54:19:
                    3f:b6:0c:c7:63:44:25:9b:f3:2c:00:8b:ca:4d:2c:
                    e6:51:ea:2a:1f:9a:bf:12:94:58:8b:3e:7d:90:29:
                    25:96:14:fc:89:d6:9e:85:af:2c:d0:45:66:fd:ea:
                    22:c8:18:81:5d:5c:5a:71:88:ec:52:da:dc:d6:95:
                    09:0c:4c:d0:fd:19:06:fa:ef:3b:bd:a5:e2:4b:e1:
                    51:9d:47:17:14:02:b1:2e:86:41:9a:65:df:10:5c:
                    67:07:48:c6:d3:3e:7f:4d:dc:11:b4:d8:c3:d6:4a:
                    3a:db:3b:c4:79:94:ae:99:66:4b:3f:86:91:15:9d:
                    93:31:0e:8d:40:5b:1f:ab:a4:11:fe:ac:b9:47:9c:
                    e0:13:cb:22:bd:81:fa:58:3a:5b:9f:36:8e:47:84:
                    55:b3:47:65:c1:7a:36:f0:f7:14:c2:d6:1f:61:27:
                    e0:fd:30:f1:10:8c:2f:11:fb:0d:06:3f:33:e0:c7:
                    50:98:b5:0f:9a:d4:af:97:1a:dd:61:39:64:9f:f8:
                    19:ea:bf:0e:18:46:4f:1e:06:6f:9f:e7:b7:a5:3d:
                    f7:a5
                Exponent: 65537 (0x10001)
        X509v3 extensions:
            Netscape Cert Type: 
                SSL Server
            X509v3 Subject Key Identifier: 
                C8:48:B8:8B:23:89:54:49:22:4B:76:CC:49:F0:65:15:CD:03:07:52
            X509v3 Authority Key Identifier: 
                keyid:37:2E:7B:27:46:4B:CF:47:10:AC:2B:2E:BA:D0:F3:66:75:EB:52:75
                DirName:/CN=CALCUTTACA_CA/C=IN/O=CITRIX/OU=ANG/ST=KA/emailAddress=CALCUTTACA_CA@CALCUTTACA_mail.com
                serial:A5:C6:47:0E:E6:06:37:18

            Authority Information Access: 
                OCSP - URI:http://CALCUTTACA_two.ocsptest.com/responderpath

    Signature Algorithm: sha256WithRSAEncryption
         91:dd:f5:68:4f:bf:be:fd:d0:ac:21:44:fb:0d:22:65:dd:10:
         cf:e2:98:3f:b8:9b:53:66:55:cc:d4:68:00:be:e5:bd:d7:5c:
         bb:a8:b2:05:d6:0b:7f:af:f8:5e:1c:b3:9d:26:25:47:34:2d:
         b9:a6:a6:ce:fd:e0:89:ca:11:af:28:b5:89:36:91:2d:26:2f:
         5a:d9:9c:bb:a3:30:1a:df:50:a7:90:92:f7:06:3a:54:3b:38:
         af:54:a5:50:96:61:b1:f1:63:da:8f:a6:55:94:27:e9:55:2a:
         d3:41:02:06:eb:13:e1:f5:51:96:33:12:ed:1a:71:99:ff:ec:
         62:55:40:d3:8d:7a:aa:cc:22:ea:06:ba:00:f7:19:d0:9d:a8:
         6b:01:25:8b:31:8a:88:11:79:87:4f:d4:f5:48:46:28:5b:f1:
         e9:34:5d:32:b6:fb:e2:a6:e2:7b:01:df:12:ad:cf:27:57:fb:
         b2:f0:9c:d2:f5:12:77:91:5d:b3:d1:a7:61:82:22:d6:27:8d:
         62:c5:e9:53:4b:00:91:85:42:33:02:11:b4:4f:24:83:18:08:
         e0:2d:08:26:25:3f:41:4a:92:b0:e5:6b:78:1f:b7:ab:58:6b:
         37:40:3d:15:46:5f:27:68:19:c4:cb:f4:62:6a:91:95:fd:e9:
         9f:76:cc:34
-----BEGIN CERTIFICATE-----
MIIEuzCCA6OgAwIBAgIGCgsMDQ4hMA0GCSqGSIb3DQEBCwUAMIGDMRYwFAYDVQQD
FA1DQUxDVVRUQUNBX0NBMQswCQYDVQQGEwJJTjEPMA0GA1UEChMGQ0lUUklYMQww
CgYDVQQLEwNBTkcxCzAJBgNVBAgTAktBMTAwLgYJKoZIhvcNAQkBFiFDQUxDVVRU
QUNBX0NBQENBTENVVFRBQ0FfbWFpbC5jb20wHhcNMTYwNzA4MDQzMzA4WhcNMjYw
NzA2MDQzMzA4WjB2MQswCQYDVQQIEwJLQTELMAkGA1UEBhMCSU4xHjAcBgNVBAMU
FTExOV9DQUxDVVRUQUNBX3NlcnZlcjEpMCcGCSqGSIb3DQEJARYaMTE5X0NBTENV
VFRBQ0FAdGVzdF9jYS5jb20xDzANBgNVBAoTBkNJVFJJWDCCASIwDQYJKoZIhvcN
AQEBBQADggEPADCCAQoCggEBALjtDnoC1oY2G/v+Uj2QErdeoe2iy2ijmIi04fjg
Nw2sheabFoO8od1kgVQZP7YMx2NEJZvzLACLyk0s5lHqKh+avxKUWIs+fZApJZYU
/InWnoWvLNBFZv3qIsgYgV1cWnGI7FLa3NaVCQxM0P0ZBvrvO72l4kvhUZ1HFxQC
sS6GQZpl3xBcZwdIxtM+f03cEbTYw9ZKOts7xHmUrplmSz+GkRWdkzEOjUBbH6uk
Ef6suUec4BPLIr2B+lg6W582jkeEVbNHZcF6NvD3FMLWH2En4P0w8RCMLxH7DQY/
M+DHUJi1D5rUr5ca3WE5ZJ/4Geq/DhhGTx4Gb5/nt6U996UCAwEAAaOCAT8wggE7
MBEGCWCGSAGG+EIBAQQEAwIGQDAdBgNVHQ4EFgQUyEi4iyOJVEkiS3bMSfBlFc0D
B1IwgbgGA1UdIwSBsDCBrYAUNy57J0ZLz0cQrCsuutDzZnXrUnWhgYmkgYYwgYMx
FjAUBgNVBAMUDUNBTENVVFRBQ0FfQ0ExCzAJBgNVBAYTAklOMQ8wDQYDVQQKEwZD
SVRSSVgxDDAKBgNVBAsTA0FORzELMAkGA1UECBMCS0ExMDAuBgkqhkiG9w0BCQEW
IUNBTENVVFRBQ0FfQ0FAQ0FMQ1VUVEFDQV9tYWlsLmNvbYIJAKXGRw7mBjcYMEwG
CCsGAQUFBwEBBEAwPjA8BggrBgEFBQcwAYYwaHR0cDovL0NBTENVVFRBQ0FfdHdv
Lm9jc3B0ZXN0LmNvbS9yZXNwb25kZXJwYXRoMA0GCSqGSIb3DQEBCwUAA4IBAQCR
3fVoT7++/dCsIUT7DSJl3RDP4pg/uJtTZlXM1GgAvuW911y7qLIF1gt/r/heHLOd
JiVHNC25pqbO/eCJyhGvKLWJNpEtJi9a2Zy7ozAa31CnkJL3BjpUOzivVKVQlmGx
8WPaj6ZVlCfpVSrTQQIG6xPh9VGWMxLtGnGZ/+xiVUDTjXqqzCLqBroA9xnQnahr
ASWLMYqIEXmHT9T1SEYoW/HpNF0ytvvipuJ7Ad8Src8nV/uy8JzS9RJ3kV2z0adh
giLWJ41ixelTSwCRhUIzAhG0TySDGAjgLQgmJT9BSpKw5Wt4H7erWGs3QD0VRl8n
aBnEy/RiapGV/emfdsw0
-----END CERTIFICATE-----
