Certificate:
    Data:
        Version: 3 (0x2)
        Serial Number: 11042563100193 (0xa0b0c0d0e21)
    Signature Algorithm: sha256WithRSAEncryption
        Issuer: CN=PATNACA_CA, C=IN, O=CITRIX, OU=ANG, ST=KA/emailAddress=PATNACA_CA@PATNACA_mail.com
        Validity
            Not Before: Jul  8 04:38:27 2016 GMT
            Not After : Jul  6 04:38:27 2026 GMT
        Subject: ST=KA, C=IN, CN=119_PATNACA_server/emailAddress=119_PATNACA@test_ca.com, O=CITRIX
        Subject Public Key Info:
            Public Key Algorithm: rsaEncryption
                Public-Key: (2048 bit)
                Modulus:
                    00:af:02:61:f5:a0:5d:83:10:9c:1b:9a:d4:7d:da:
                    8b:8c:e2:6a:6e:34:19:8e:29:3f:cc:3b:c6:99:f2:
                    e9:50:e7:69:93:80:e0:b9:c8:5e:a7:57:f1:20:a1:
                    03:2e:3c:65:a8:54:28:16:ae:05:cb:80:62:e0:dc:
                    af:d1:6b:fd:c8:82:0e:0b:a0:17:c5:e9:4d:3e:ad:
                    19:65:1d:3a:04:cf:db:bf:a1:36:c6:f3:ff:b1:b1:
                    01:f2:a1:ec:03:75:45:c2:13:cc:2f:25:db:30:2b:
                    ea:11:7f:b7:43:4c:9b:6b:eb:53:d4:43:9b:0a:a0:
                    b0:22:eb:9b:ea:ad:f1:3e:fc:38:33:b7:12:00:57:
                    8d:6f:55:e0:e2:ae:0a:a7:84:d9:28:73:b4:bc:62:
                    64:42:6f:1e:92:36:9d:de:b7:84:4d:24:50:dc:71:
                    33:80:1e:af:ad:53:7c:54:30:06:95:d5:ec:84:b9:
                    cc:1e:fe:92:af:13:f9:34:f1:59:cb:b3:0b:f7:53:
                    17:f3:88:bd:c3:00:c5:02:ad:57:4a:14:c3:bd:3a:
                    4f:d3:76:7e:23:56:b5:62:5f:0e:62:86:8c:08:9a:
                    f4:24:f6:56:e3:8a:bd:92:fb:bb:20:80:c7:d6:8a:
                    de:45:1a:cd:03:c6:4c:c8:d2:69:31:ea:e4:c9:51:
                    15:07
                Exponent: 65537 (0x10001)
        X509v3 extensions:
            Netscape Cert Type: 
                SSL Server
            X509v3 Subject Key Identifier: 
                F0:15:F2:E1:37:50:7D:78:0B:B2:AD:A0:FF:E5:5E:7F:0F:CC:1B:DD
            X509v3 Authority Key Identifier: 
                keyid:FF:DF:C4:8D:AF:64:E1:E3:17:FA:96:EE:F1:75:A7:ED:A7:C3:91:B8
                DirName:/CN=PATNACA_CA/C=IN/O=CITRIX/OU=ANG/ST=KA/emailAddress=PATNACA_CA@PATNACA_mail.com
                serial:9F:2E:15:76:F0:BD:C1:6F

            Authority Information Access: 
                OCSP - URI:http://PATNACA_two.ocsptest.com/responderpath

    Signature Algorithm: sha256WithRSAEncryption
         79:63:c1:11:6b:f0:9a:34:05:54:7b:b5:f4:c0:f1:5e:91:c3:
         9d:59:b5:06:e0:e7:24:ff:fc:1e:50:ac:37:eb:58:87:cf:b5:
         54:05:93:55:b2:3e:ca:92:c2:d1:84:c6:53:8a:8f:62:eb:73:
         7a:7a:37:6d:62:78:4e:9c:10:6b:83:c5:b3:b9:45:1a:2a:7a:
         e6:53:2f:f9:c6:63:55:aa:02:b1:0c:cf:e7:74:ed:6d:9c:ff:
         00:a5:5a:7d:f4:75:6b:3b:f0:0e:fb:26:d4:a2:f5:03:30:f5:
         bd:81:b5:e4:8c:c4:e9:41:84:60:11:73:70:c8:66:6e:dd:1e:
         06:17:89:65:6c:5d:d7:b6:03:0f:7c:4b:04:49:ec:49:9a:e2:
         a2:f5:90:74:b4:41:6b:a3:8c:90:47:7c:02:1b:a3:92:2d:06:
         57:5e:e2:4a:28:60:51:02:b6:a8:3e:15:fe:4f:f8:30:50:4c:
         9b:5e:7d:74:f1:6b:a3:a4:74:b7:36:63:a2:4d:08:de:4d:ef:
         4b:04:a7:65:84:d8:12:4e:b5:66:e6:84:3d:38:73:d9:01:65:
         74:5b:8c:43:d0:c1:b8:a2:6d:6a:76:33:97:4b:de:4f:d1:50:
         4d:7e:56:b2:97:47:5c:e5:13:90:25:52:5b:1a:0a:76:2a:d4:
         a3:95:de:37
-----BEGIN CERTIFICATE-----
MIIEnDCCA4SgAwIBAgIGCgsMDQ4hMA0GCSqGSIb3DQEBCwUAMHoxEzARBgNVBAMU
ClBBVE5BQ0FfQ0ExCzAJBgNVBAYTAklOMQ8wDQYDVQQKEwZDSVRSSVgxDDAKBgNV
BAsTA0FORzELMAkGA1UECBMCS0ExKjAoBgkqhkiG9w0BCQEWG1BBVE5BQ0FfQ0FA
UEFUTkFDQV9tYWlsLmNvbTAeFw0xNjA3MDgwNDM4MjdaFw0yNjA3MDYwNDM4Mjda
MHAxCzAJBgNVBAgTAktBMQswCQYDVQQGEwJJTjEbMBkGA1UEAxQSMTE5X1BBVE5B
Q0Ffc2VydmVyMSYwJAYJKoZIhvcNAQkBFhcxMTlfUEFUTkFDQUB0ZXN0X2NhLmNv
bTEPMA0GA1UEChMGQ0lUUklYMIIBIjANBgkqhkiG9w0BAQEFAAOCAQ8AMIIBCgKC
AQEArwJh9aBdgxCcG5rUfdqLjOJqbjQZjik/zDvGmfLpUOdpk4Dguchep1fxIKED
LjxlqFQoFq4Fy4Bi4Nyv0Wv9yIIOC6AXxelNPq0ZZR06BM/bv6E2xvP/sbEB8qHs
A3VFwhPMLyXbMCvqEX+3Q0yba+tT1EObCqCwIuub6q3xPvw4M7cSAFeNb1Xg4q4K
p4TZKHO0vGJkQm8ekjad3reETSRQ3HEzgB6vrVN8VDAGldXshLnMHv6SrxP5NPFZ
y7ML91MX84i9wwDFAq1XShTDvTpP03Z+I1a1Yl8OYoaMCJr0JPZW44q9kvu7IIDH
1oreRRrNA8ZMyNJpMerkyVEVBwIDAQABo4IBMDCCASwwEQYJYIZIAYb4QgEBBAQD
AgZAMB0GA1UdDgQWBBTwFfLhN1B9eAuyraD/5V5/D8wb3TCBrAYDVR0jBIGkMIGh
gBT/38SNr2Th4xf6lu7xdaftp8ORuKF+pHwwejETMBEGA1UEAxQKUEFUTkFDQV9D
QTELMAkGA1UEBhMCSU4xDzANBgNVBAoTBkNJVFJJWDEMMAoGA1UECxMDQU5HMQsw
CQYDVQQIEwJLQTEqMCgGCSqGSIb3DQEJARYbUEFUTkFDQV9DQUBQQVROQUNBX21h
aWwuY29tggkAny4VdvC9wW8wSQYIKwYBBQUHAQEEPTA7MDkGCCsGAQUFBzABhi1o
dHRwOi8vUEFUTkFDQV90d28ub2NzcHRlc3QuY29tL3Jlc3BvbmRlcnBhdGgwDQYJ
KoZIhvcNAQELBQADggEBAHljwRFr8Jo0BVR7tfTA8V6Rw51ZtQbg5yT//B5QrDfr
WIfPtVQFk1WyPsqSwtGExlOKj2Lrc3p6N21ieE6cEGuDxbO5RRoqeuZTL/nGY1Wq
ArEMz+d07W2c/wClWn30dWs78A77JtSi9QMw9b2BteSMxOlBhGARc3DIZm7dHgYX
iWVsXde2Aw98SwRJ7Ema4qL1kHS0QWujjJBHfAIbo5ItBlde4kooYFECtqg+Ff5P
+DBQTJtefXTxa6OkdLc2Y6JNCN5N70sEp2WE2BJOtWbmhD04c9kBZXRbjEPQwbii
bWp2M5dL3k/RUE1+VrKXR1zlE5AlUlsaCnYq1KOV3jc=
-----END CERTIFICATE-----
