Certificate:
    Data:
        Version: 3 (0x2)
        Serial Number: 11042563100193 (0xa0b0c0d0e21)
    Signature Algorithm: sha256WithRSAEncryption
        Issuer: CN=KOCHICA_CA, C=IN, O=CITRIX, OU=ANG, ST=KA/emailAddress=KOCHICA_CA@KOCHICA_mail.com
        Validity
            Not Before: Jul  8 04:35:21 2016 GMT
            Not After : Jul  6 04:35:21 2026 GMT
        Subject: ST=KA, C=IN, CN=119_KOCHICA_server/emailAddress=119_KOCHICA@test_ca.com, O=CITRIX
        Subject Public Key Info:
            Public Key Algorithm: rsaEncryption
                Public-Key: (2048 bit)
                Modulus:
                    00:ac:11:8e:94:20:b4:9d:05:31:f4:4f:75:fd:d1:
                    bc:ed:68:ad:8a:ed:61:d6:f1:d8:14:93:45:e2:bf:
                    91:8d:db:14:46:37:ff:cf:e2:ca:9c:e9:49:1f:e2:
                    4a:dd:16:a7:61:1f:38:ea:92:12:a5:7e:4b:d2:aa:
                    31:ce:0d:d5:27:f6:84:6a:b7:8a:ed:8f:a0:8f:e4:
                    91:87:42:ff:2e:e1:7c:66:19:ee:0f:4f:1c:89:61:
                    d3:62:cc:97:52:52:a6:d0:5c:1a:2c:ee:af:4e:db:
                    37:4b:19:5f:b5:98:9a:4f:bf:ba:91:19:af:34:28:
                    a5:35:6c:f0:c0:72:e0:9e:52:83:a3:d2:45:5c:52:
                    f5:9c:53:ba:94:e8:e5:4b:0f:2a:8a:c6:79:31:f5:
                    f7:79:4a:32:d7:80:a8:3e:66:02:de:92:a7:e6:23:
                    4a:78:25:8d:04:af:b2:00:be:8c:49:1d:6f:93:da:
                    f4:07:1c:9b:81:3c:ee:9c:5c:dc:24:cb:f8:12:96:
                    67:fa:60:5b:b6:c4:48:1c:39:17:ca:2a:3b:2d:b2:
                    40:ee:8d:39:07:78:0f:0b:ef:a8:f0:ed:ef:75:0b:
                    8a:7b:66:78:5c:e8:91:fb:51:09:a3:c8:71:4c:3e:
                    a9:0a:3a:53:da:5d:1e:f7:a3:9e:c9:3f:01:f5:7a:
                    af:73
                Exponent: 65537 (0x10001)
        X509v3 extensions:
            Netscape Cert Type: 
                SSL Server
            X509v3 Subject Key Identifier: 
                F8:20:0E:CF:FD:6F:5D:83:0C:F3:02:A9:C7:50:4D:6B:AD:47:52:81
            X509v3 Authority Key Identifier: 
                keyid:BD:BB:95:76:5C:F9:2D:21:29:42:22:FD:91:AF:B8:39:24:AA:7E:37
                DirName:/CN=KOCHICA_CA/C=IN/O=CITRIX/OU=ANG/ST=KA/emailAddress=KOCHICA_CA@KOCHICA_mail.com
                serial:E1:10:ED:B2:3C:3D:E3:71

            Authority Information Access: 
                OCSP - URI:http://KOCHICA_two.ocsptest.com/responderpath

    Signature Algorithm: sha256WithRSAEncryption
         7e:d9:08:ad:43:0e:89:de:03:02:c0:05:64:21:92:50:27:c6:
         20:9c:ae:80:15:f0:76:75:d5:72:88:76:e2:36:4c:9b:9d:81:
         2d:af:3c:20:9f:93:c6:89:19:1a:69:f6:ce:48:7e:62:90:62:
         a6:75:48:4d:ea:37:ac:cd:c6:d5:22:26:88:45:8a:e6:b8:03:
         c4:4f:a7:f6:ff:4b:0a:8c:8b:fe:57:c5:9c:31:d1:f6:a3:83:
         3a:39:83:45:e9:52:f0:64:f9:f4:8f:96:2e:4a:39:09:8c:cd:
         4c:63:7d:9c:37:f5:dc:42:60:80:d0:7d:0e:08:1b:29:d4:76:
         f9:1a:05:ab:72:45:c0:fa:d1:61:90:cb:9d:c3:ff:ad:19:4d:
         09:4d:44:dd:20:23:df:c5:a5:94:d0:0c:fb:5d:00:ad:84:0d:
         f8:a5:2a:e4:82:f6:e9:f7:88:d5:01:81:50:8c:4e:99:2b:2e:
         d6:f1:a7:14:25:14:53:c4:21:14:bb:b9:53:6e:1e:3b:85:b2:
         0b:aa:4b:0d:23:dc:a4:46:51:43:45:42:83:67:18:cb:b6:67:
         0e:e3:c0:5d:9b:65:ff:ed:58:ab:57:95:99:e8:ec:66:9f:b8:
         cc:8c:0a:9c:94:01:0f:ac:b9:7d:5f:87:63:96:5c:58:aa:22:
         b0:90:d5:a5
-----BEGIN CERTIFICATE-----
MIIEnDCCA4SgAwIBAgIGCgsMDQ4hMA0GCSqGSIb3DQEBCwUAMHoxEzARBgNVBAMU
CktPQ0hJQ0FfQ0ExCzAJBgNVBAYTAklOMQ8wDQYDVQQKEwZDSVRSSVgxDDAKBgNV
BAsTA0FORzELMAkGA1UECBMCS0ExKjAoBgkqhkiG9w0BCQEWG0tPQ0hJQ0FfQ0FA
S09DSElDQV9tYWlsLmNvbTAeFw0xNjA3MDgwNDM1MjFaFw0yNjA3MDYwNDM1MjFa
MHAxCzAJBgNVBAgTAktBMQswCQYDVQQGEwJJTjEbMBkGA1UEAxQSMTE5X0tPQ0hJ
Q0Ffc2VydmVyMSYwJAYJKoZIhvcNAQkBFhcxMTlfS09DSElDQUB0ZXN0X2NhLmNv
bTEPMA0GA1UEChMGQ0lUUklYMIIBIjANBgkqhkiG9w0BAQEFAAOCAQ8AMIIBCgKC
AQEArBGOlCC0nQUx9E91/dG87Witiu1h1vHYFJNF4r+RjdsURjf/z+LKnOlJH+JK
3RanYR846pISpX5L0qoxzg3VJ/aEareK7Y+gj+SRh0L/LuF8ZhnuD08ciWHTYsyX
UlKm0FwaLO6vTts3SxlftZiaT7+6kRmvNCilNWzwwHLgnlKDo9JFXFL1nFO6lOjl
Sw8qisZ5MfX3eUoy14CoPmYC3pKn5iNKeCWNBK+yAL6MSR1vk9r0BxybgTzunFzc
JMv4EpZn+mBbtsRIHDkXyio7LbJA7o05B3gPC++o8O3vdQuKe2Z4XOiR+1EJo8hx
TD6pCjpT2l0e96OeyT8B9XqvcwIDAQABo4IBMDCCASwwEQYJYIZIAYb4QgEBBAQD
AgZAMB0GA1UdDgQWBBT4IA7P/W9dgwzzAqnHUE1rrUdSgTCBrAYDVR0jBIGkMIGh
gBS9u5V2XPktISlCIv2Rr7g5JKp+N6F+pHwwejETMBEGA1UEAxQKS09DSElDQV9D
QTELMAkGA1UEBhMCSU4xDzANBgNVBAoTBkNJVFJJWDEMMAoGA1UECxMDQU5HMQsw
CQYDVQQIEwJLQTEqMCgGCSqGSIb3DQEJARYbS09DSElDQV9DQUBLT0NISUNBX21h
aWwuY29tggkA4RDtsjw943EwSQYIKwYBBQUHAQEEPTA7MDkGCCsGAQUFBzABhi1o
dHRwOi8vS09DSElDQV90d28ub2NzcHRlc3QuY29tL3Jlc3BvbmRlcnBhdGgwDQYJ
KoZIhvcNAQELBQADggEBAH7ZCK1DDoneAwLABWQhklAnxiCcroAV8HZ11XKIduI2
TJudgS2vPCCfk8aJGRpp9s5IfmKQYqZ1SE3qN6zNxtUiJohFiua4A8RPp/b/SwqM
i/5XxZwx0fajgzo5g0XpUvBk+fSPli5KOQmMzUxjfZw39dxCYIDQfQ4IGynUdvka
BatyRcD60WGQy53D/60ZTQlNRN0gI9/FpZTQDPtdAK2EDfilKuSC9un3iNUBgVCM
TpkrLtbxpxQlFFPEIRS7uVNuHjuFsguqSw0j3KRGUUNFQoNnGMu2Zw7jwF2bZf/t
WKtXlZno7GafuMyMCpyUAQ+suX1fh2OWXFiqIrCQ1aU=
-----END CERTIFICATE-----
