Certificate:
    Data:
        Version: 3 (0x2)
        Serial Number: 11042563100194 (0xa0b0c0d0e22)
    Signature Algorithm: sha256WithRSAEncryption
        Issuer: CN=MYSORECA_CA, C=IN, O=CITRIX, OU=ANG, ST=KA/emailAddress=MYSORECA_CA@MYSORECA_mail.com
        Validity
            Not Before: Jul  8 04:36:35 2016 GMT
            Not After : Jul  6 04:36:35 2026 GMT
        Subject: ST=KA, C=IN, CN=120_MYSORECA_server/emailAddress=120_MYSORECA@test_ca.com, O=CITRIX
        Subject Public Key Info:
            Public Key Algorithm: rsaEncryption
                Public-Key: (2048 bit)
                Modulus:
                    00:c6:21:9c:7e:ad:90:78:b1:b4:39:41:3f:71:bd:
                    9c:c2:29:af:56:7b:d8:07:f2:1e:33:20:20:17:2b:
                    eb:9c:b1:f0:9b:ce:0b:72:63:e9:ec:a9:50:82:b2:
                    90:e8:02:1a:47:ac:4d:0b:74:55:09:da:2f:7d:94:
                    fb:49:b6:f3:18:6d:07:15:d8:58:c6:27:d7:fd:bc:
                    08:e4:45:96:38:b0:0f:52:5a:18:7b:cb:04:b2:4e:
                    56:5d:a3:36:ef:83:7c:a8:50:e9:00:71:42:ed:0e:
                    b0:58:30:2a:73:a6:71:b0:e5:7d:c9:a9:e9:b6:f9:
                    76:19:bd:db:98:4a:bc:e5:86:42:e6:20:26:24:48:
                    45:2b:ff:6f:c6:32:56:12:b5:ea:76:b2:cd:4a:42:
                    66:a4:88:ed:f3:9f:c7:ea:8d:5c:ad:3f:d1:fa:21:
                    4c:16:ff:08:3c:42:bf:b3:cf:f1:32:34:dd:04:40:
                    40:9b:d9:93:a6:4b:c3:b7:f3:bd:1f:33:04:b0:92:
                    2a:aa:8d:a1:fa:79:b5:fd:82:a0:3c:94:51:d9:db:
                    b8:d7:1c:c3:e6:90:ef:f6:63:2a:d4:be:e5:bc:7b:
                    36:ed:76:34:22:d4:e4:48:b1:9b:46:56:67:9b:fd:
                    d5:72:ca:a0:0d:02:e0:ee:74:f5:89:5d:2e:57:00:
                    d7:57
                Exponent: 65537 (0x10001)
        X509v3 extensions:
            Netscape Cert Type: 
                SSL Server
            X509v3 Subject Key Identifier: 
                7A:15:A5:02:7A:E5:08:5F:D0:0B:C1:2D:B7:4F:F3:57:46:9E:81:E2
            X509v3 Authority Key Identifier: 
                keyid:C6:18:DA:E4:16:A1:1E:60:AE:18:00:F5:A7:DF:0A:8B:65:4D:36:95
                DirName:/CN=MYSORECA_CA/C=IN/O=CITRIX/OU=ANG/ST=KA/emailAddress=MYSORECA_CA@MYSORECA_mail.com
                serial:D5:74:54:E9:D5:CF:C9:F6

            Authority Information Access: 
                OCSP - URI:http://MYSORECA_two.ocsptest.com/responderpath

    Signature Algorithm: sha256WithRSAEncryption
         75:e5:76:f5:28:c0:6a:a5:07:77:59:5f:c0:95:7a:6d:33:30:
         a5:a9:cb:66:7d:7f:55:a0:6f:92:37:34:cc:ce:5b:88:26:7a:
         fc:40:70:1e:21:03:87:b8:b1:0d:2e:51:cb:94:55:a9:b0:32:
         e2:03:80:62:82:92:d5:ea:17:cb:15:41:94:f4:6c:84:80:4d:
         76:94:c8:36:10:43:66:66:f1:94:fd:bb:60:0c:65:11:65:8f:
         1c:e5:1f:a4:14:6a:09:c7:5b:0b:76:27:0b:e4:c7:ef:6e:01:
         71:8b:dc:76:a1:03:d2:bc:a5:22:6c:f1:3b:26:95:fa:bd:e3:
         85:2b:0d:b2:46:7b:02:57:50:d4:c1:1c:38:e4:45:fd:f3:0d:
         0f:01:91:f4:b4:34:f3:1f:99:90:82:ea:ea:f9:c5:ef:5a:fb:
         b9:93:f2:9a:ce:72:6d:30:ec:22:76:6d:aa:3b:aa:cd:ad:a0:
         07:e6:42:1d:6c:dc:af:d7:3c:83:b3:90:43:f3:ca:c1:31:d3:
         cd:b9:f1:fc:96:78:df:56:8f:c2:3b:a9:2e:d8:fa:70:70:36:
         7d:1d:9b:26:e7:0b:e8:af:16:58:ee:3f:40:8c:54:11:8f:43:
         34:f4:a2:d5:56:5b:3a:f9:ed:f4:23:97:b4:ee:1d:60:dc:dd:
         35:0c:05:2a
-----BEGIN CERTIFICATE-----
MIIEpjCCA46gAwIBAgIGCgsMDQ4iMA0GCSqGSIb3DQEBCwUAMH0xFDASBgNVBAMU
C01ZU09SRUNBX0NBMQswCQYDVQQGEwJJTjEPMA0GA1UEChMGQ0lUUklYMQwwCgYD
VQQLEwNBTkcxCzAJBgNVBAgTAktBMSwwKgYJKoZIhvcNAQkBFh1NWVNPUkVDQV9D
QUBNWVNPUkVDQV9tYWlsLmNvbTAeFw0xNjA3MDgwNDM2MzVaFw0yNjA3MDYwNDM2
MzVaMHIxCzAJBgNVBAgTAktBMQswCQYDVQQGEwJJTjEcMBoGA1UEAxQTMTIwX01Z
U09SRUNBX3NlcnZlcjEnMCUGCSqGSIb3DQEJARYYMTIwX01ZU09SRUNBQHRlc3Rf
Y2EuY29tMQ8wDQYDVQQKEwZDSVRSSVgwggEiMA0GCSqGSIb3DQEBAQUAA4IBDwAw
ggEKAoIBAQDGIZx+rZB4sbQ5QT9xvZzCKa9We9gH8h4zICAXK+ucsfCbzgtyY+ns
qVCCspDoAhpHrE0LdFUJ2i99lPtJtvMYbQcV2FjGJ9f9vAjkRZY4sA9SWhh7ywSy
TlZdozbvg3yoUOkAcULtDrBYMCpzpnGw5X3Jqem2+XYZvduYSrzlhkLmICYkSEUr
/2/GMlYStep2ss1KQmakiO3zn8fqjVytP9H6IUwW/wg8Qr+zz/EyNN0EQECb2ZOm
S8O3870fMwSwkiqqjaH6ebX9gqA8lFHZ27jXHMPmkO/2YyrUvuW8ezbtdjQi1ORI
sZtGVmeb/dVyyqANAuDudPWJXS5XANdXAgMBAAGjggE1MIIBMTARBglghkgBhvhC
AQEEBAMCBkAwHQYDVR0OBBYEFHoVpQJ65Qhf0AvBLbdP81dGnoHiMIGwBgNVHSME
gagwgaWAFMYY2uQWoR5grhgA9affCotlTTaVoYGBpH8wfTEUMBIGA1UEAxQLTVlT
T1JFQ0FfQ0ExCzAJBgNVBAYTAklOMQ8wDQYDVQQKEwZDSVRSSVgxDDAKBgNVBAsT
A0FORzELMAkGA1UECBMCS0ExLDAqBgkqhkiG9w0BCQEWHU1ZU09SRUNBX0NBQE1Z
U09SRUNBX21haWwuY29tggkA1XRU6dXPyfYwSgYIKwYBBQUHAQEEPjA8MDoGCCsG
AQUFBzABhi5odHRwOi8vTVlTT1JFQ0FfdHdvLm9jc3B0ZXN0LmNvbS9yZXNwb25k
ZXJwYXRoMA0GCSqGSIb3DQEBCwUAA4IBAQB15Xb1KMBqpQd3WV/AlXptMzClqctm
fX9VoG+SNzTMzluIJnr8QHAeIQOHuLENLlHLlFWpsDLiA4BigpLV6hfLFUGU9GyE
gE12lMg2EENmZvGU/btgDGURZY8c5R+kFGoJx1sLdicL5MfvbgFxi9x2oQPSvKUi
bPE7JpX6veOFKw2yRnsCV1DUwRw45EX98w0PAZH0tDTzH5mQgurq+cXvWvu5k/Ka
znJtMOwidm2qO6rNraAH5kIdbNyv1zyDs5BD88rBMdPNufH8lnjfVo/CO6ku2Ppw
cDZ9HZsm5wvorxZY7j9AjFQRj0M09KLVVls6+e30I5e07h1g3N01DAUq
-----END CERTIFICATE-----
