Certificate:
    Data:
        Version: 3 (0x2)
        Serial Number: 11042563100194 (0xa0b0c0d0e22)
    Signature Algorithm: sha256WithRSAEncryption
        Issuer: CN=PATNACA_CA, C=IN, O=CITRIX, OU=ANG, ST=KA/emailAddress=PATNACA_CA@PATNACA_mail.com
        Validity
            Not Before: Jul  8 04:38:27 2016 GMT
            Not After : Jul  6 04:38:27 2026 GMT
        Subject: ST=KA, C=IN, CN=120_PATNACA_server/emailAddress=120_PATNACA@test_ca.com, O=CITRIX
        Subject Public Key Info:
            Public Key Algorithm: rsaEncryption
                Public-Key: (2048 bit)
                Modulus:
                    00:c0:6c:63:b6:52:1f:78:cf:e8:fe:97:bf:f5:a5:
                    3a:8f:1d:08:00:c2:2a:fc:9c:2a:b0:cc:ef:ee:ca:
                    bd:04:4f:1d:db:9d:7b:6c:1d:b9:3c:b3:fa:f5:20:
                    09:3b:30:0f:3a:6e:42:0d:d7:7b:c4:c9:d0:7f:91:
                    9f:6f:af:8a:57:1a:5a:4a:fc:12:38:c0:9a:0e:1f:
                    ec:89:01:03:73:17:6d:5f:4e:3c:4f:dd:25:ef:c8:
                    ea:e7:af:96:c4:b6:3c:94:f8:ec:3b:44:d7:bc:b6:
                    a4:27:44:8a:42:0b:f8:44:c3:4e:f5:e9:92:19:8d:
                    6d:76:7f:ea:c3:01:15:b3:1e:a2:bf:b4:a2:16:78:
                    37:6d:50:4b:c2:f1:08:9e:2d:24:64:68:cb:3e:3e:
                    0b:cb:48:e4:c0:dd:08:71:84:3e:e0:14:79:38:c9:
                    7d:e7:82:21:7d:18:76:a7:1f:01:1e:50:33:c8:0e:
                    7f:ce:7b:34:16:2c:8e:f6:64:ed:de:f3:73:52:b7:
                    19:a2:e0:c1:52:d9:98:1b:27:dc:10:79:79:c6:3d:
                    a9:99:7f:9b:51:af:2b:7b:31:90:58:ce:eb:a8:3c:
                    c2:41:e7:8a:92:0e:0a:66:1f:be:d0:b6:68:eb:15:
                    40:43:0a:15:81:6a:aa:ae:6a:0d:05:39:21:78:77:
                    5d:91
                Exponent: 65537 (0x10001)
        X509v3 extensions:
            Netscape Cert Type: 
                SSL Server
            X509v3 Subject Key Identifier: 
                AF:55:E6:DD:D4:D9:FE:87:29:3A:77:E0:5E:C7:4A:78:82:0F:52:A6
            X509v3 Authority Key Identifier: 
                keyid:FF:DF:C4:8D:AF:64:E1:E3:17:FA:96:EE:F1:75:A7:ED:A7:C3:91:B8
                DirName:/CN=PATNACA_CA/C=IN/O=CITRIX/OU=ANG/ST=KA/emailAddress=PATNACA_CA@PATNACA_mail.com
                serial:9F:2E:15:76:F0:BD:C1:6F

            Authority Information Access: 
                OCSP - URI:http://PATNACA_two.ocsptest.com/responderpath

    Signature Algorithm: sha256WithRSAEncryption
         51:d2:b9:1a:c7:21:8f:63:9b:de:9e:2e:e3:cd:0d:92:fb:d0:
         62:e4:cb:21:a5:86:32:6c:6e:1c:4f:a2:f5:ad:af:9b:4a:20:
         24:c1:e5:63:68:2e:98:c8:45:b8:d0:f6:ea:b8:84:15:ff:94:
         73:d2:9f:f9:18:39:24:ad:01:d1:58:4c:25:4d:23:0f:a0:09:
         02:f3:6f:6b:2b:c4:50:81:70:1d:d6:e9:c8:de:42:19:b6:71:
         0d:31:77:ca:ab:4d:b8:4f:91:ab:c6:8b:86:78:f4:f9:f1:2d:
         ab:12:f2:f6:1c:a7:ee:9e:61:ec:c8:49:bf:04:cb:dc:e6:70:
         7a:8c:69:2c:9a:14:25:e2:21:f5:01:11:5d:fc:17:57:ba:4e:
         32:5a:ea:cf:6e:fe:a5:3f:ee:ca:bd:20:bd:80:a5:e3:89:d5:
         39:65:c8:dd:23:4b:af:09:1c:8c:15:9a:67:9f:46:1b:fe:9d:
         60:74:ab:63:a5:8e:dc:ef:8e:88:89:42:1b:8f:d6:11:d2:8e:
         52:b9:bf:b9:94:b5:f9:43:10:01:69:5f:f2:24:18:a8:dc:df:
         9a:ec:22:64:f3:41:39:8b:25:9c:3d:82:42:9e:1f:d3:e3:68:
         6f:84:e7:c7:6f:55:72:61:c9:09:62:01:ca:03:b7:c6:fd:55:
         4a:13:a8:70
-----BEGIN CERTIFICATE-----
MIIEnDCCA4SgAwIBAgIGCgsMDQ4iMA0GCSqGSIb3DQEBCwUAMHoxEzARBgNVBAMU
ClBBVE5BQ0FfQ0ExCzAJBgNVBAYTAklOMQ8wDQYDVQQKEwZDSVRSSVgxDDAKBgNV
BAsTA0FORzELMAkGA1UECBMCS0ExKjAoBgkqhkiG9w0BCQEWG1BBVE5BQ0FfQ0FA
UEFUTkFDQV9tYWlsLmNvbTAeFw0xNjA3MDgwNDM4MjdaFw0yNjA3MDYwNDM4Mjda
MHAxCzAJBgNVBAgTAktBMQswCQYDVQQGEwJJTjEbMBkGA1UEAxQSMTIwX1BBVE5B
Q0Ffc2VydmVyMSYwJAYJKoZIhvcNAQkBFhcxMjBfUEFUTkFDQUB0ZXN0X2NhLmNv
bTEPMA0GA1UEChMGQ0lUUklYMIIBIjANBgkqhkiG9w0BAQEFAAOCAQ8AMIIBCgKC
AQEAwGxjtlIfeM/o/pe/9aU6jx0IAMIq/JwqsMzv7sq9BE8d2517bB25PLP69SAJ
OzAPOm5CDdd7xMnQf5Gfb6+KVxpaSvwSOMCaDh/siQEDcxdtX048T90l78jq56+W
xLY8lPjsO0TXvLakJ0SKQgv4RMNO9emSGY1tdn/qwwEVsx6iv7SiFng3bVBLwvEI
ni0kZGjLPj4Ly0jkwN0IcYQ+4BR5OMl954IhfRh2px8BHlAzyA5/zns0FiyO9mTt
3vNzUrcZouDBUtmYGyfcEHl5xj2pmX+bUa8rezGQWM7rqDzCQeeKkg4KZh++0LZo
6xVAQwoVgWqqrmoNBTkheHddkQIDAQABo4IBMDCCASwwEQYJYIZIAYb4QgEBBAQD
AgZAMB0GA1UdDgQWBBSvVebd1Nn+hyk6d+Bex0p4gg9SpjCBrAYDVR0jBIGkMIGh
gBT/38SNr2Th4xf6lu7xdaftp8ORuKF+pHwwejETMBEGA1UEAxQKUEFUTkFDQV9D
QTELMAkGA1UEBhMCSU4xDzANBgNVBAoTBkNJVFJJWDEMMAoGA1UECxMDQU5HMQsw
CQYDVQQIEwJLQTEqMCgGCSqGSIb3DQEJARYbUEFUTkFDQV9DQUBQQVROQUNBX21h
aWwuY29tggkAny4VdvC9wW8wSQYIKwYBBQUHAQEEPTA7MDkGCCsGAQUFBzABhi1o
dHRwOi8vUEFUTkFDQV90d28ub2NzcHRlc3QuY29tL3Jlc3BvbmRlcnBhdGgwDQYJ
KoZIhvcNAQELBQADggEBAFHSuRrHIY9jm96eLuPNDZL70GLkyyGlhjJsbhxPovWt
r5tKICTB5WNoLpjIRbjQ9uq4hBX/lHPSn/kYOSStAdFYTCVNIw+gCQLzb2srxFCB
cB3W6cjeQhm2cQ0xd8qrTbhPkavGi4Z49PnxLasS8vYcp+6eYezISb8Ey9zmcHqM
aSyaFCXiIfUBEV38F1e6TjJa6s9u/qU/7sq9IL2ApeOJ1TllyN0jS68JHIwVmmef
Rhv+nWB0q2OljtzvjoiJQhuP1hHSjlK5v7mUtflDEAFpX/IkGKjc35rsImTzQTmL
JZw9gkKeH9PjaG+E58dvVXJhyQliAcoDt8b9VUoTqHA=
-----END CERTIFICATE-----
