Certificate:
    Data:
        Version: 3 (0x2)
        Serial Number: 11042563100194 (0xa0b0c0d0e22)
    Signature Algorithm: sha256WithRSAEncryption
        Issuer: CN=CALCUTTACA_CA, C=IN, O=CITRIX, OU=ANG, ST=KA/emailAddress=CALCUTTACA_CA@CALCUTTACA_mail.com
        Validity
            Not Before: Jul  8 04:33:08 2016 GMT
            Not After : Jul  6 04:33:08 2026 GMT
        Subject: ST=KA, C=IN, CN=120_CALCUTTACA_server/emailAddress=120_CALCUTTACA@test_ca.com, O=CITRIX
        Subject Public Key Info:
            Public Key Algorithm: rsaEncryption
                Public-Key: (2048 bit)
                Modulus:
                    00:a9:77:6b:bd:bc:b1:8e:58:41:ee:eb:0f:04:7b:
                    55:57:09:73:b3:6e:db:98:93:5a:5e:41:e4:3a:7a:
                    c0:ac:88:95:4e:fe:b1:05:dc:65:be:f8:af:c3:3a:
                    e6:e1:0e:62:74:b6:bc:f2:86:da:a2:61:29:a4:40:
                    8e:ea:0d:4a:c2:63:e0:bd:0b:76:0d:a0:4a:4a:37:
                    cd:f0:92:36:e8:64:36:dc:e2:59:3b:ef:7f:fd:05:
                    54:92:c5:30:0e:f9:e0:17:b9:bc:92:b1:2d:87:fc:
                    57:62:d2:35:bf:01:15:b0:81:0c:a0:b5:37:16:65:
                    cb:7b:66:e5:98:e6:81:b3:e4:7b:43:0e:e3:ca:19:
                    b3:80:d5:f1:5e:5e:39:c5:24:67:03:a9:96:e5:01:
                    dc:2b:8d:4b:b7:01:0d:52:c4:9f:83:a7:4b:fd:d2:
                    e8:6c:d2:c2:9c:17:b1:33:a7:71:2f:39:13:9c:f5:
                    92:97:c1:b4:ae:8f:8e:1c:8a:6c:fb:a9:44:0f:00:
                    ac:84:9e:81:4c:32:23:7c:e9:f5:03:e9:55:e2:71:
                    6f:95:1d:13:fe:a6:ae:fd:03:48:31:1f:71:3a:92:
                    2f:ec:25:8b:27:91:88:f1:0c:18:18:f1:99:c1:66:
                    d2:0c:94:55:db:b4:72:73:b7:e2:e9:5f:89:48:ed:
                    6b:93
                Exponent: 65537 (0x10001)
        X509v3 extensions:
            Netscape Cert Type: 
                SSL Server
            X509v3 Subject Key Identifier: 
                86:B7:CF:3D:16:98:C1:DC:0D:E8:3D:7D:A2:5E:06:AF:E4:8E:44:17
            X509v3 Authority Key Identifier: 
                keyid:37:2E:7B:27:46:4B:CF:47:10:AC:2B:2E:BA:D0:F3:66:75:EB:52:75
                DirName:/CN=CALCUTTACA_CA/C=IN/O=CITRIX/OU=ANG/ST=KA/emailAddress=CALCUTTACA_CA@CALCUTTACA_mail.com
                serial:A5:C6:47:0E:E6:06:37:18

            Authority Information Access: 
                OCSP - URI:http://CALCUTTACA_two.ocsptest.com/responderpath

    Signature Algorithm: sha256WithRSAEncryption
         48:36:d4:a6:92:18:fd:49:6d:c6:69:b0:df:08:c6:d0:5b:d3:
         1b:8c:87:60:87:02:f5:74:0d:cc:a9:26:d9:d1:bf:24:54:0c:
         f1:f0:de:2d:3e:6d:fa:16:0e:fb:6f:c2:bf:af:94:a9:a0:cd:
         81:00:97:7c:4e:1b:04:f3:3f:ae:e3:3f:c3:f8:29:9a:89:f6:
         1d:88:07:ce:00:9d:cb:db:e0:4d:85:f3:d1:68:2b:c7:48:ff:
         7a:eb:f0:ec:1c:d6:58:a2:37:39:21:07:26:1b:fa:1d:6f:91:
         cc:58:2d:7e:f0:d1:fa:9e:51:81:e6:b9:e8:07:92:ad:07:f9:
         c8:b0:3e:d5:6d:9d:77:4c:45:9a:af:61:03:ee:f2:e4:bd:d1:
         82:0b:89:b8:98:d3:80:df:94:34:43:11:e2:72:f3:e1:57:3f:
         37:18:fa:53:43:0c:9f:b2:4f:65:3b:c1:ef:00:4d:e3:e7:13:
         15:5f:21:0c:e4:bc:cc:89:ac:f3:5a:8e:7d:d2:8b:4d:af:b1:
         ef:18:40:71:a7:ab:0c:6a:28:c2:d8:08:33:d6:a0:75:2a:d9:
         af:7e:2c:e6:3d:7e:05:ca:9c:44:7f:6b:a9:ad:98:4b:6f:56:
         69:7f:54:18:6c:69:61:68:44:3c:28:0b:b6:0a:c5:bb:3b:c0:
         20:2e:67:02
-----BEGIN CERTIFICATE-----
MIIEuzCCA6OgAwIBAgIGCgsMDQ4iMA0GCSqGSIb3DQEBCwUAMIGDMRYwFAYDVQQD
FA1DQUxDVVRUQUNBX0NBMQswCQYDVQQGEwJJTjEPMA0GA1UEChMGQ0lUUklYMQww
CgYDVQQLEwNBTkcxCzAJBgNVBAgTAktBMTAwLgYJKoZIhvcNAQkBFiFDQUxDVVRU
QUNBX0NBQENBTENVVFRBQ0FfbWFpbC5jb20wHhcNMTYwNzA4MDQzMzA4WhcNMjYw
NzA2MDQzMzA4WjB2MQswCQYDVQQIEwJLQTELMAkGA1UEBhMCSU4xHjAcBgNVBAMU
FTEyMF9DQUxDVVRUQUNBX3NlcnZlcjEpMCcGCSqGSIb3DQEJARYaMTIwX0NBTENV
VFRBQ0FAdGVzdF9jYS5jb20xDzANBgNVBAoTBkNJVFJJWDCCASIwDQYJKoZIhvcN
AQEBBQADggEPADCCAQoCggEBAKl3a728sY5YQe7rDwR7VVcJc7Nu25iTWl5B5Dp6
wKyIlU7+sQXcZb74r8M65uEOYnS2vPKG2qJhKaRAjuoNSsJj4L0Ldg2gSko3zfCS
NuhkNtziWTvvf/0FVJLFMA754Be5vJKxLYf8V2LSNb8BFbCBDKC1NxZly3tm5Zjm
gbPke0MO48oZs4DV8V5eOcUkZwOpluUB3CuNS7cBDVLEn4OnS/3S6GzSwpwXsTOn
cS85E5z1kpfBtK6PjhyKbPupRA8ArISegUwyI3zp9QPpVeJxb5UdE/6mrv0DSDEf
cTqSL+wliyeRiPEMGBjxmcFm0gyUVdu0cnO34ulfiUjta5MCAwEAAaOCAT8wggE7
MBEGCWCGSAGG+EIBAQQEAwIGQDAdBgNVHQ4EFgQUhrfPPRaYwdwN6D19ol4Gr+SO
RBcwgbgGA1UdIwSBsDCBrYAUNy57J0ZLz0cQrCsuutDzZnXrUnWhgYmkgYYwgYMx
FjAUBgNVBAMUDUNBTENVVFRBQ0FfQ0ExCzAJBgNVBAYTAklOMQ8wDQYDVQQKEwZD
SVRSSVgxDDAKBgNVBAsTA0FORzELMAkGA1UECBMCS0ExMDAuBgkqhkiG9w0BCQEW
IUNBTENVVFRBQ0FfQ0FAQ0FMQ1VUVEFDQV9tYWlsLmNvbYIJAKXGRw7mBjcYMEwG
CCsGAQUFBwEBBEAwPjA8BggrBgEFBQcwAYYwaHR0cDovL0NBTENVVFRBQ0FfdHdv
Lm9jc3B0ZXN0LmNvbS9yZXNwb25kZXJwYXRoMA0GCSqGSIb3DQEBCwUAA4IBAQBI
NtSmkhj9SW3GabDfCMbQW9MbjIdghwL1dA3MqSbZ0b8kVAzx8N4tPm36Fg77b8K/
r5SpoM2BAJd8ThsE8z+u4z/D+CmaifYdiAfOAJ3L2+BNhfPRaCvHSP966/DsHNZY
ojc5IQcmG/odb5HMWC1+8NH6nlGB5rnoB5KtB/nIsD7VbZ13TEWar2ED7vLkvdGC
C4m4mNOA35Q0QxHicvPhVz83GPpTQwyfsk9lO8HvAE3j5xMVXyEM5LzMiazzWo59
0otNr7HvGEBxp6sMaijC2Agz1qB1KtmvfizmPX4FypxEf2uprZhLb1Zpf1QYbGlh
aEQ8KAu2CsW7O8AgLmcC
-----END CERTIFICATE-----
