Certificate:
    Data:
        Version: 3 (0x2)
        Serial Number: 11042563100194 (0xa0b0c0d0e22)
    Signature Algorithm: sha256WithRSAEncryption
        Issuer: CN=DELHICA_CA, C=IN, O=CITRIX, OU=ANG, ST=KA/emailAddress=DELHICA_CA@DELHICA_mail.com
        Validity
            Not Before: Jul  8 04:34:26 2016 GMT
            Not After : Jul  6 04:34:26 2026 GMT
        Subject: ST=KA, C=IN, CN=120_DELHICA_server/emailAddress=120_DELHICA@test_ca.com, O=CITRIX
        Subject Public Key Info:
            Public Key Algorithm: rsaEncryption
                Public-Key: (2048 bit)
                Modulus:
                    00:bf:1b:70:6f:a0:01:b0:5a:e8:36:7e:59:4c:9d:
                    74:1d:35:7c:1d:5f:7e:dc:95:72:31:91:f2:cb:ad:
                    9f:d5:d7:4f:31:b8:71:b5:97:da:ba:c6:f2:85:d8:
                    14:44:47:d4:60:97:2f:bc:ac:0a:48:f7:aa:92:ff:
                    34:62:08:dd:ea:a2:d8:27:a6:d3:ed:64:9e:33:fc:
                    1f:9b:f3:6d:7d:c3:6a:70:91:2a:b4:7a:8d:77:5d:
                    f9:f3:db:96:b0:45:72:7e:54:12:8b:b1:ea:45:35:
                    3f:16:ba:52:51:7e:47:d0:33:eb:e5:97:1c:72:87:
                    7b:eb:89:67:11:e7:20:14:71:ba:a6:db:03:e8:d4:
                    ea:9b:b8:45:ce:6f:7a:92:5c:8f:56:8d:d8:70:2f:
                    f1:5e:0c:4a:bf:91:93:a6:2a:69:cb:69:13:76:da:
                    7e:21:1a:7a:51:92:20:dc:4f:3c:95:1f:d7:b6:e8:
                    4a:64:07:13:6b:4f:fe:75:35:12:25:1f:d3:bb:d8:
                    a8:55:02:c6:c8:dd:1b:00:64:60:2b:b3:9a:0f:60:
                    4f:3a:b1:18:ca:b6:f9:f7:f7:0d:55:74:e2:eb:dd:
                    c0:8d:08:87:59:12:ed:a7:9b:73:42:b3:a3:61:37:
                    00:92:e8:32:1d:d3:67:d0:f7:82:fb:53:9a:5e:da:
                    6b:85
                Exponent: 65537 (0x10001)
        X509v3 extensions:
            Netscape Cert Type: 
                SSL Server
            X509v3 Subject Key Identifier: 
                A8:1D:FB:76:09:1D:0E:E9:D8:5B:CD:33:C8:00:3E:A4:1D:36:9E:8B
            X509v3 Authority Key Identifier: 
                keyid:D7:37:52:01:DC:2C:7A:57:85:CA:30:39:30:F0:D5:5D:5A:31:03:02
                DirName:/CN=DELHICA_CA/C=IN/O=CITRIX/OU=ANG/ST=KA/emailAddress=DELHICA_CA@DELHICA_mail.com
                serial:94:59:DC:51:4E:A5:13:27

            Authority Information Access: 
                OCSP - URI:http://DELHICA_two.ocsptest.com/responderpath

    Signature Algorithm: sha256WithRSAEncryption
         25:0c:58:e2:3c:b1:60:91:fa:63:c8:f2:e8:74:61:de:88:99:
         64:f2:dd:ce:5c:39:96:c5:0f:4e:c2:6c:b0:f9:e3:c9:71:6b:
         38:1f:6f:8a:4a:12:f3:96:f3:4f:74:17:48:83:d6:1d:47:3d:
         9f:9d:97:bb:cc:6b:f0:9b:36:4c:6d:f3:40:5a:b2:17:b9:a1:
         d6:6e:47:b2:88:71:8a:2c:08:45:e0:bd:33:90:c5:1e:9d:6f:
         c9:92:f5:44:08:55:8d:b3:ca:4f:57:3a:5c:ab:14:b5:83:49:
         01:c4:04:35:cd:8b:42:ac:1a:11:66:24:c8:ae:45:d0:0f:ef:
         2a:a1:9d:62:c0:43:be:c5:69:b9:e2:f8:78:5b:68:ac:9c:3f:
         5a:18:10:31:9b:d2:91:b2:59:5f:69:54:7d:cf:e1:34:91:0a:
         22:4f:23:cf:62:96:16:79:9f:18:c9:f0:b4:19:4c:25:ef:0e:
         05:fc:b5:50:72:c0:2a:b8:5a:91:7c:0c:77:dd:d0:0b:41:15:
         55:17:fd:88:33:7e:8f:2d:e9:83:16:51:93:30:6c:71:27:60:
         c2:ed:a2:d5:5c:2d:c4:05:05:9a:3b:c4:be:e6:40:c5:b4:db:
         20:0a:e6:b4:0c:76:00:62:b5:dc:e3:3f:34:f6:1a:cd:19:40:
         71:ba:23:dd
-----BEGIN CERTIFICATE-----
MIIEnDCCA4SgAwIBAgIGCgsMDQ4iMA0GCSqGSIb3DQEBCwUAMHoxEzARBgNVBAMU
CkRFTEhJQ0FfQ0ExCzAJBgNVBAYTAklOMQ8wDQYDVQQKEwZDSVRSSVgxDDAKBgNV
BAsTA0FORzELMAkGA1UECBMCS0ExKjAoBgkqhkiG9w0BCQEWG0RFTEhJQ0FfQ0FA
REVMSElDQV9tYWlsLmNvbTAeFw0xNjA3MDgwNDM0MjZaFw0yNjA3MDYwNDM0MjZa
MHAxCzAJBgNVBAgTAktBMQswCQYDVQQGEwJJTjEbMBkGA1UEAxQSMTIwX0RFTEhJ
Q0Ffc2VydmVyMSYwJAYJKoZIhvcNAQkBFhcxMjBfREVMSElDQUB0ZXN0X2NhLmNv
bTEPMA0GA1UEChMGQ0lUUklYMIIBIjANBgkqhkiG9w0BAQEFAAOCAQ8AMIIBCgKC
AQEAvxtwb6ABsFroNn5ZTJ10HTV8HV9+3JVyMZHyy62f1ddPMbhxtZfausbyhdgU
REfUYJcvvKwKSPeqkv80Ygjd6qLYJ6bT7WSeM/wfm/NtfcNqcJEqtHqNd13589uW
sEVyflQSi7HqRTU/FrpSUX5H0DPr5Zcccod764lnEecgFHG6ptsD6NTqm7hFzm96
klyPVo3YcC/xXgxKv5GTpippy2kTdtp+IRp6UZIg3E88lR/XtuhKZAcTa0/+dTUS
JR/Tu9ioVQLGyN0bAGRgK7OaD2BPOrEYyrb59/cNVXTi693AjQiHWRLtp5tzQrOj
YTcAkugyHdNn0PeC+1OaXtprhQIDAQABo4IBMDCCASwwEQYJYIZIAYb4QgEBBAQD
AgZAMB0GA1UdDgQWBBSoHft2CR0O6dhbzTPIAD6kHTaeizCBrAYDVR0jBIGkMIGh
gBTXN1IB3Cx6V4XKMDkw8NVdWjEDAqF+pHwwejETMBEGA1UEAxQKREVMSElDQV9D
QTELMAkGA1UEBhMCSU4xDzANBgNVBAoTBkNJVFJJWDEMMAoGA1UECxMDQU5HMQsw
CQYDVQQIEwJLQTEqMCgGCSqGSIb3DQEJARYbREVMSElDQV9DQUBERUxISUNBX21h
aWwuY29tggkAlFncUU6lEycwSQYIKwYBBQUHAQEEPTA7MDkGCCsGAQUFBzABhi1o
dHRwOi8vREVMSElDQV90d28ub2NzcHRlc3QuY29tL3Jlc3BvbmRlcnBhdGgwDQYJ
KoZIhvcNAQELBQADggEBACUMWOI8sWCR+mPI8uh0Yd6ImWTy3c5cOZbFD07CbLD5
48lxazgfb4pKEvOW8090F0iD1h1HPZ+dl7vMa/CbNkxt80Bashe5odZuR7KIcYos
CEXgvTOQxR6db8mS9UQIVY2zyk9XOlyrFLWDSQHEBDXNi0KsGhFmJMiuRdAP7yqh
nWLAQ77Fabni+HhbaKycP1oYEDGb0pGyWV9pVH3P4TSRCiJPI89ilhZ5nxjJ8LQZ
TCXvDgX8tVBywCq4WpF8DHfd0AtBFVUX/Ygzfo8t6YMWUZMwbHEnYMLtotVcLcQF
BZo7xL7mQMW02yAK5rQMdgBitdzjPzT2Gs0ZQHG6I90=
-----END CERTIFICATE-----
