Certificate:
    Data:
        Version: 3 (0x2)
        Serial Number: 11042563100194 (0xa0b0c0d0e22)
    Signature Algorithm: sha256WithRSAEncryption
        Issuer: CN=BHOPALCA_CA, C=IN, O=CITRIX, OU=ANG, ST=KA/emailAddress=BHOPALCA_CA@BHOPALCA_mail.com
        Validity
            Not Before: Jul  8 04:32:37 2016 GMT
            Not After : Jul  6 04:32:37 2026 GMT
        Subject: ST=KA, C=IN, CN=120_BHOPALCA_server/emailAddress=120_BHOPALCA@test_ca.com, O=CITRIX
        Subject Public Key Info:
            Public Key Algorithm: rsaEncryption
                Public-Key: (2048 bit)
                Modulus:
                    00:c8:5c:41:f9:28:6a:49:ed:b6:79:5b:4c:22:9a:
                    47:b6:e3:cd:bc:32:24:7d:64:c7:5a:8b:57:71:8c:
                    b9:7d:93:2f:9a:b0:96:04:12:f7:b0:87:7a:ce:fd:
                    c9:c2:6e:9e:1d:c5:3d:1f:2d:cd:17:9e:78:d2:35:
                    7b:ab:b1:75:38:82:e4:ac:ce:c9:6b:8a:60:cf:a9:
                    19:40:79:2b:0a:74:41:5e:cb:db:3b:13:0b:0c:f7:
                    3b:12:91:0c:2a:c2:46:67:55:fc:c7:b8:d9:23:ce:
                    b8:b8:00:a1:47:7b:5e:a6:70:c8:23:5a:81:48:77:
                    b0:a2:60:46:41:f3:51:2c:e8:d1:61:bd:70:56:75:
                    8e:39:25:c4:0a:26:57:4a:97:9e:29:85:d5:b9:23:
                    3f:14:b9:a1:0a:92:1d:64:18:68:89:d3:4c:8e:e4:
                    0f:d4:25:4d:4d:c3:e0:a6:d5:d2:46:3d:a6:3a:8f:
                    eb:30:a0:d2:a6:4a:ac:06:a4:f0:5d:16:83:d8:61:
                    8c:de:56:27:6d:b2:ed:46:8c:7c:1d:48:55:bd:9f:
                    fe:1a:b1:3a:87:39:c1:5d:19:07:2e:0b:64:78:a1:
                    a4:0f:80:9b:24:29:b8:c8:3b:d1:e2:28:2f:5e:d1:
                    0c:3e:01:c0:13:6a:52:8a:b4:ef:c1:65:40:1d:74:
                    e0:43
                Exponent: 65537 (0x10001)
        X509v3 extensions:
            Netscape Cert Type: 
                SSL Server
            X509v3 Subject Key Identifier: 
                E3:F8:72:C1:F3:46:57:1A:82:4F:DE:39:27:1F:38:B7:23:C5:3F:D1
            X509v3 Authority Key Identifier: 
                keyid:A6:66:0E:59:0F:3C:5C:11:35:B2:B3:99:59:A9:D3:A6:B1:5E:95:D2
                DirName:/CN=BHOPALCA_CA/C=IN/O=CITRIX/OU=ANG/ST=KA/emailAddress=BHOPALCA_CA@BHOPALCA_mail.com
                serial:BE:89:55:F3:65:28:17:9A

            Authority Information Access: 
                OCSP - URI:http://BHOPALCA_two.ocsptest.com/responderpath

    Signature Algorithm: sha256WithRSAEncryption
         79:20:4c:99:7a:79:b1:19:23:37:d3:33:9a:b8:15:03:b1:46:
         2c:32:f6:18:4f:d0:62:8c:9c:6c:10:cb:ee:fd:4c:53:27:64:
         b2:70:b3:f0:8e:86:34:0c:ad:e5:8c:15:23:28:3b:2c:c3:46:
         93:1f:81:8a:52:42:5f:97:2b:c9:75:14:23:c0:36:e8:ed:38:
         24:8f:7c:37:c1:f3:bd:0f:81:55:fa:b3:7a:ed:3a:0a:a4:60:
         f1:fb:b6:7e:aa:be:72:e6:85:ac:f3:7f:c9:d4:3e:c9:5b:1c:
         bc:e0:98:22:53:25:e4:d9:fb:53:87:a8:c4:64:13:06:ef:b8:
         4d:86:81:d1:36:52:97:9f:c6:a3:7c:f4:e1:2d:d6:57:97:d6:
         94:e9:50:4c:cd:8b:c7:18:ad:3f:d7:fc:30:c8:9b:83:8c:53:
         16:d3:c2:d4:f8:d1:3a:9b:1e:bd:63:a2:c9:e2:e4:c8:be:56:
         37:cd:f0:09:90:f7:29:a3:a6:c2:65:4a:b1:2b:43:3d:6c:0d:
         a3:38:d7:64:6a:07:37:ee:4f:0d:7d:d3:36:81:df:65:b1:73:
         fa:7c:36:c5:ca:e4:87:96:dd:90:02:8b:f5:ca:88:90:9b:83:
         ff:ac:4d:26:4c:94:75:ca:fc:b0:e3:1f:f0:d6:b8:fa:88:a3:
         5c:27:a7:63
-----BEGIN CERTIFICATE-----
MIIEpjCCA46gAwIBAgIGCgsMDQ4iMA0GCSqGSIb3DQEBCwUAMH0xFDASBgNVBAMU
C0JIT1BBTENBX0NBMQswCQYDVQQGEwJJTjEPMA0GA1UEChMGQ0lUUklYMQwwCgYD
VQQLEwNBTkcxCzAJBgNVBAgTAktBMSwwKgYJKoZIhvcNAQkBFh1CSE9QQUxDQV9D
QUBCSE9QQUxDQV9tYWlsLmNvbTAeFw0xNjA3MDgwNDMyMzdaFw0yNjA3MDYwNDMy
MzdaMHIxCzAJBgNVBAgTAktBMQswCQYDVQQGEwJJTjEcMBoGA1UEAxQTMTIwX0JI
T1BBTENBX3NlcnZlcjEnMCUGCSqGSIb3DQEJARYYMTIwX0JIT1BBTENBQHRlc3Rf
Y2EuY29tMQ8wDQYDVQQKEwZDSVRSSVgwggEiMA0GCSqGSIb3DQEBAQUAA4IBDwAw
ggEKAoIBAQDIXEH5KGpJ7bZ5W0wimke24828MiR9ZMdai1dxjLl9ky+asJYEEvew
h3rO/cnCbp4dxT0fLc0XnnjSNXursXU4guSszslrimDPqRlAeSsKdEFey9s7EwsM
9zsSkQwqwkZnVfzHuNkjzri4AKFHe16mcMgjWoFId7CiYEZB81Es6NFhvXBWdY45
JcQKJldKl54phdW5Iz8UuaEKkh1kGGiJ00yO5A/UJU1Nw+Cm1dJGPaY6j+swoNKm
SqwGpPBdFoPYYYzeVidtsu1GjHwdSFW9n/4asTqHOcFdGQcuC2R4oaQPgJskKbjI
O9HiKC9e0Qw+AcATalKKtO/BZUAddOBDAgMBAAGjggE1MIIBMTARBglghkgBhvhC
AQEEBAMCBkAwHQYDVR0OBBYEFOP4csHzRlcagk/eOScfOLcjxT/RMIGwBgNVHSME
gagwgaWAFKZmDlkPPFwRNbKzmVmp06axXpXSoYGBpH8wfTEUMBIGA1UEAxQLQkhP
UEFMQ0FfQ0ExCzAJBgNVBAYTAklOMQ8wDQYDVQQKEwZDSVRSSVgxDDAKBgNVBAsT
A0FORzELMAkGA1UECBMCS0ExLDAqBgkqhkiG9w0BCQEWHUJIT1BBTENBX0NBQEJI
T1BBTENBX21haWwuY29tggkAvolV82UoF5owSgYIKwYBBQUHAQEEPjA8MDoGCCsG
AQUFBzABhi5odHRwOi8vQkhPUEFMQ0FfdHdvLm9jc3B0ZXN0LmNvbS9yZXNwb25k
ZXJwYXRoMA0GCSqGSIb3DQEBCwUAA4IBAQB5IEyZenmxGSM30zOauBUDsUYsMvYY
T9BijJxsEMvu/UxTJ2SycLPwjoY0DK3ljBUjKDssw0aTH4GKUkJflyvJdRQjwDbo
7Tgkj3w3wfO9D4FV+rN67ToKpGDx+7Z+qr5y5oWs83/J1D7JWxy84JgiUyXk2ftT
h6jEZBMG77hNhoHRNlKXn8ajfPThLdZXl9aU6VBMzYvHGK0/1/wwyJuDjFMW08LU
+NE6mx69Y6LJ4uTIvlY3zfAJkPcpo6bCZUqxK0M9bA2jONdkagc37k8NfdM2gd9l
sXP6fDbFyuSHlt2QAov1yoiQm4P/rE0mTJR1yvyw4x/w1rj6iKNcJ6dj
-----END CERTIFICATE-----
