Certificate:
    Data:
        Version: 3 (0x2)
        Serial Number: 11042563100194 (0xa0b0c0d0e22)
    Signature Algorithm: sha256WithRSAEncryption
        Issuer: CN=MUMBAICA_CA, C=IN, O=CITRIX, OU=ANG, ST=KA/emailAddress=MUMBAICA_CA@MUMBAICA_mail.com
        Validity
            Not Before: Jul  8 04:35:51 2016 GMT
            Not After : Jul  6 04:35:51 2026 GMT
        Subject: ST=KA, C=IN, CN=120_MUMBAICA_server/emailAddress=120_MUMBAICA@test_ca.com, O=CITRIX
        Subject Public Key Info:
            Public Key Algorithm: rsaEncryption
                Public-Key: (2048 bit)
                Modulus:
                    00:f4:04:76:3c:8c:a8:34:22:f0:76:6c:74:c8:d5:
                    f3:51:f3:0a:f1:06:ec:ad:df:91:bf:b7:b9:c8:93:
                    71:24:82:45:d8:61:66:1d:97:5a:16:87:36:d2:c3:
                    75:a4:b1:e7:a9:97:de:dd:48:90:1c:cb:94:70:48:
                    83:27:5c:9f:67:06:7c:18:78:3f:18:5b:8e:45:22:
                    eb:fd:b5:5b:0e:dd:cb:5f:e5:51:30:79:9b:4a:a6:
                    0d:3c:36:c9:47:c6:3a:34:a5:f6:35:9f:3a:54:c9:
                    c5:62:ab:7c:10:0c:4b:df:8a:f9:18:1e:ba:9e:6b:
                    75:0b:5b:a2:13:7b:65:55:50:ac:12:78:56:5c:4f:
                    37:4d:46:46:0c:53:cc:6c:7c:40:a1:46:50:0a:fd:
                    c6:e1:f5:4a:10:76:b9:6a:f6:54:5a:74:db:7f:da:
                    d8:10:8b:f4:3c:04:23:87:1f:52:9e:eb:f8:b9:25:
                    d6:d0:73:2a:fd:67:6b:16:2f:20:cd:8b:fa:c9:37:
                    76:18:08:15:32:62:74:87:d7:a6:3c:e1:3b:76:ca:
                    a9:28:02:ef:85:e4:41:7d:cc:09:9f:1c:31:19:00:
                    08:ca:07:ee:43:5e:54:74:e7:92:53:a6:2c:59:57:
                    5a:bd:d8:6e:51:d8:81:7b:8e:dd:c4:11:02:18:f8:
                    40:cb
                Exponent: 65537 (0x10001)
        X509v3 extensions:
            Netscape Cert Type: 
                SSL Server
            X509v3 Subject Key Identifier: 
                E9:1D:B6:0E:A1:66:2C:89:0A:FB:21:BE:18:A5:DD:2B:E2:D7:1D:94
            X509v3 Authority Key Identifier: 
                keyid:37:79:BF:65:19:98:28:32:4E:EF:3E:44:14:19:A9:83:2B:AF:05:7A
                DirName:/CN=MUMBAICA_CA/C=IN/O=CITRIX/OU=ANG/ST=KA/emailAddress=MUMBAICA_CA@MUMBAICA_mail.com
                serial:EE:B1:37:EE:F6:D2:14:91

            Authority Information Access: 
                OCSP - URI:http://MUMBAICA_two.ocsptest.com/responderpath

    Signature Algorithm: sha256WithRSAEncryption
         ce:70:d0:7e:cf:b8:4d:fa:0d:6c:33:40:5c:c8:e1:b0:ae:47:
         18:06:6c:30:db:9f:8b:45:33:6d:4d:c4:7a:c9:71:4a:05:82:
         9a:f4:cf:64:85:e3:00:e6:d2:ad:aa:b8:7c:53:d0:b1:55:92:
         e5:fc:e5:8a:08:87:11:eb:2b:ff:f2:e9:a5:cf:a8:e0:9c:49:
         d8:6c:8c:6c:9e:0a:ed:15:1a:67:45:75:d8:2b:a9:bf:5d:36:
         fa:a7:ca:77:e3:f7:63:82:16:4a:08:95:88:b2:37:40:ed:67:
         eb:5a:84:10:7c:a0:0c:58:e5:7d:b7:04:a2:4c:6b:71:9c:8e:
         62:e1:78:56:ca:14:fe:33:e4:6a:71:a4:52:6c:93:3f:a3:d3:
         e7:dd:f1:b2:66:3c:a0:f9:9d:ae:4c:b0:41:e3:01:a6:29:b5:
         08:8d:80:27:b7:3c:72:e1:f3:1d:68:c5:0b:e7:a6:fd:6f:13:
         56:11:ed:2d:14:05:55:92:6c:93:e8:55:c3:cb:05:50:d1:2b:
         76:c0:1e:72:9e:30:7f:2f:64:6c:2e:03:93:b8:41:43:e2:65:
         e9:a8:29:90:91:84:a1:77:b0:08:45:b5:9a:66:d8:77:35:b0:
         05:9b:9b:65:6d:a3:74:5e:96:6b:11:ad:66:22:62:c4:ca:7b:
         25:c9:08:69
-----BEGIN CERTIFICATE-----
MIIEpjCCA46gAwIBAgIGCgsMDQ4iMA0GCSqGSIb3DQEBCwUAMH0xFDASBgNVBAMU
C01VTUJBSUNBX0NBMQswCQYDVQQGEwJJTjEPMA0GA1UEChMGQ0lUUklYMQwwCgYD
VQQLEwNBTkcxCzAJBgNVBAgTAktBMSwwKgYJKoZIhvcNAQkBFh1NVU1CQUlDQV9D
QUBNVU1CQUlDQV9tYWlsLmNvbTAeFw0xNjA3MDgwNDM1NTFaFw0yNjA3MDYwNDM1
NTFaMHIxCzAJBgNVBAgTAktBMQswCQYDVQQGEwJJTjEcMBoGA1UEAxQTMTIwX01V
TUJBSUNBX3NlcnZlcjEnMCUGCSqGSIb3DQEJARYYMTIwX01VTUJBSUNBQHRlc3Rf
Y2EuY29tMQ8wDQYDVQQKEwZDSVRSSVgwggEiMA0GCSqGSIb3DQEBAQUAA4IBDwAw
ggEKAoIBAQD0BHY8jKg0IvB2bHTI1fNR8wrxBuyt35G/t7nIk3EkgkXYYWYdl1oW
hzbSw3Wkseepl97dSJAcy5RwSIMnXJ9nBnwYeD8YW45FIuv9tVsO3ctf5VEweZtK
pg08NslHxjo0pfY1nzpUycViq3wQDEvfivkYHrqea3ULW6ITe2VVUKwSeFZcTzdN
RkYMU8xsfEChRlAK/cbh9UoQdrlq9lRadNt/2tgQi/Q8BCOHH1Ke6/i5JdbQcyr9
Z2sWLyDNi/rJN3YYCBUyYnSH16Y84Tt2yqkoAu+F5EF9zAmfHDEZAAjKB+5DXlR0
55JTpixZV1q92G5R2IF7jt3EEQIY+EDLAgMBAAGjggE1MIIBMTARBglghkgBhvhC
AQEEBAMCBkAwHQYDVR0OBBYEFOkdtg6hZiyJCvshvhil3Svi1x2UMIGwBgNVHSME
gagwgaWAFDd5v2UZmCgyTu8+RBQZqYMrrwV6oYGBpH8wfTEUMBIGA1UEAxQLTVVN
QkFJQ0FfQ0ExCzAJBgNVBAYTAklOMQ8wDQYDVQQKEwZDSVRSSVgxDDAKBgNVBAsT
A0FORzELMAkGA1UECBMCS0ExLDAqBgkqhkiG9w0BCQEWHU1VTUJBSUNBX0NBQE1V
TUJBSUNBX21haWwuY29tggkA7rE37vbSFJEwSgYIKwYBBQUHAQEEPjA8MDoGCCsG
AQUFBzABhi5odHRwOi8vTVVNQkFJQ0FfdHdvLm9jc3B0ZXN0LmNvbS9yZXNwb25k
ZXJwYXRoMA0GCSqGSIb3DQEBCwUAA4IBAQDOcNB+z7hN+g1sM0BcyOGwrkcYBmww
25+LRTNtTcR6yXFKBYKa9M9kheMA5tKtqrh8U9CxVZLl/OWKCIcR6yv/8umlz6jg
nEnYbIxsngrtFRpnRXXYK6m/XTb6p8p34/djghZKCJWIsjdA7WfrWoQQfKAMWOV9
twSiTGtxnI5i4XhWyhT+M+RqcaRSbJM/o9Pn3fGyZjyg+Z2uTLBB4wGmKbUIjYAn
tzxy4fMdaMUL56b9bxNWEe0tFAVVkmyT6FXDywVQ0St2wB5ynjB/L2RsLgOTuEFD
4mXpqCmQkYShd7AIRbWaZth3NbAFm5tlbaN0XpZrEa1mImLEynslyQhp
-----END CERTIFICATE-----
