Certificate:
    Data:
        Version: 3 (0x2)
        Serial Number: 11042563100195 (0xa0b0c0d0e23)
    Signature Algorithm: sha256WithRSAEncryption
        Issuer: CN=CHENNAICA_CA, C=IN, O=CITRIX, OU=ANG, ST=KA/emailAddress=CHENNAICA_CA@CHENNAICA_mail.com
        Validity
            Not Before: Jul  8 04:33:54 2016 GMT
            Not After : Jul  6 04:33:54 2026 GMT
        Subject: ST=KA, C=IN, CN=121_CHENNAICA_server/emailAddress=121_CHENNAICA@test_ca.com, O=CITRIX
        Subject Public Key Info:
            Public Key Algorithm: rsaEncryption
                Public-Key: (2048 bit)
                Modulus:
                    00:e9:49:5f:4d:ea:6a:1b:bb:d3:8f:cd:a5:23:eb:
                    cb:9f:4f:e1:59:a2:bd:7f:33:b2:22:b2:81:95:db:
                    aa:cc:9b:78:c2:f2:79:c7:1b:31:22:ab:31:f7:ac:
                    04:ad:9e:ff:c2:61:6b:6d:23:e3:d7:aa:6f:26:cd:
                    f7:d9:02:e3:d6:76:74:0d:20:a0:f1:ea:78:19:f1:
                    1d:66:4d:19:d9:de:9e:02:06:15:ce:97:d0:8a:85:
                    42:1e:c1:63:d8:e5:38:b8:60:37:fb:27:47:d0:e6:
                    ea:03:a1:26:f4:fd:17:84:18:1c:e3:5d:bd:56:12:
                    f0:07:5b:b3:e2:a0:88:9d:48:68:34:0b:9b:7b:09:
                    b6:94:75:d3:31:96:c0:b4:ef:96:03:79:a5:21:ee:
                    4b:ea:9f:f2:66:db:b8:e1:c4:d5:62:92:84:7a:d0:
                    1f:69:0f:09:5f:14:c4:05:5c:4f:fe:25:9f:cc:3a:
                    d3:91:0f:ae:5c:59:ad:61:d0:4a:87:f4:fc:33:8c:
                    8f:7b:df:b4:b5:ab:ab:11:5e:f9:26:6d:8a:41:f5:
                    f7:96:a2:a4:2b:bd:e5:ff:fd:b8:98:23:85:89:d9:
                    40:b2:c4:fe:1c:94:80:55:c7:e3:26:d0:05:96:ea:
                    1c:21:55:9c:e6:e9:e3:2b:0f:da:b4:e6:96:f1:52:
                    d3:75
                Exponent: 65537 (0x10001)
        X509v3 extensions:
            Netscape Cert Type: 
                SSL Server
            X509v3 Subject Key Identifier: 
                4F:E4:03:CA:37:8E:F7:52:54:91:2A:BF:31:05:B5:7D:A6:A2:25:D0
            X509v3 Authority Key Identifier: 
                keyid:BE:CA:53:AC:65:89:18:02:1E:F6:53:A2:50:12:94:60:EC:CC:05:FA
                DirName:/CN=CHENNAICA_CA/C=IN/O=CITRIX/OU=ANG/ST=KA/emailAddress=CHENNAICA_CA@CHENNAICA_mail.com
                serial:87:FB:C4:D4:5E:46:56:70

            Authority Information Access: 
                OCSP - URI:http://172.19.10.1/responderpath

    Signature Algorithm: sha256WithRSAEncryption
         a5:5e:d0:f6:4a:df:1b:bb:89:bd:3e:bc:d0:e9:88:11:33:80:
         0a:07:7d:17:49:fb:c4:75:cf:69:3e:2c:fe:2c:f4:65:05:bd:
         65:41:f0:ab:d9:c4:c2:13:d6:7e:14:e6:b3:30:30:d2:eb:50:
         50:ae:0f:98:4b:2b:48:37:ea:49:8f:cc:5a:a6:8a:83:fa:4a:
         ad:fa:a6:56:3d:46:08:f5:64:1f:5f:6a:a8:b1:d4:bf:02:eb:
         0e:58:7e:bd:18:e1:85:cb:38:e6:c9:b3:74:02:22:fa:ea:be:
         1e:17:bb:70:c6:8c:fa:ec:39:25:3a:c3:d2:11:8d:06:c2:13:
         5c:19:cf:9b:98:79:8f:e2:d7:01:54:4d:26:d6:ce:b5:a0:cd:
         97:7c:f9:3d:70:78:82:e4:d9:6a:19:ca:40:4b:0a:63:5c:3c:
         8f:98:82:22:53:e4:77:1a:0c:5e:51:ee:e7:53:c9:ae:67:d6:
         30:71:6f:c3:57:0e:b4:f6:5d:15:df:01:6f:2f:52:46:cf:1c:
         2f:9a:b4:d8:af:7c:f8:a0:b8:e8:27:03:c6:bb:a0:53:ca:02:
         94:a2:68:0d:d5:64:8a:37:56:27:49:17:8e:dd:a1:ee:53:a0:
         d2:1b:4d:b6:9e:ff:6e:73:6d:77:35:6f:84:02:aa:43:eb:48:
         58:3c:61:21
-----BEGIN CERTIFICATE-----
MIIEozCCA4ugAwIBAgIGCgsMDQ4jMA0GCSqGSIb3DQEBCwUAMIGAMRUwEwYDVQQD
FAxDSEVOTkFJQ0FfQ0ExCzAJBgNVBAYTAklOMQ8wDQYDVQQKEwZDSVRSSVgxDDAK
BgNVBAsTA0FORzELMAkGA1UECBMCS0ExLjAsBgkqhkiG9w0BCQEWH0NIRU5OQUlD
QV9DQUBDSEVOTkFJQ0FfbWFpbC5jb20wHhcNMTYwNzA4MDQzMzU0WhcNMjYwNzA2
MDQzMzU0WjB0MQswCQYDVQQIEwJLQTELMAkGA1UEBhMCSU4xHTAbBgNVBAMUFDEy
MV9DSEVOTkFJQ0Ffc2VydmVyMSgwJgYJKoZIhvcNAQkBFhkxMjFfQ0hFTk5BSUNB
QHRlc3RfY2EuY29tMQ8wDQYDVQQKEwZDSVRSSVgwggEiMA0GCSqGSIb3DQEBAQUA
A4IBDwAwggEKAoIBAQDpSV9N6mobu9OPzaUj68ufT+FZor1/M7IisoGV26rMm3jC
8nnHGzEiqzH3rAStnv/CYWttI+PXqm8mzffZAuPWdnQNIKDx6ngZ8R1mTRnZ3p4C
BhXOl9CKhUIewWPY5Ti4YDf7J0fQ5uoDoSb0/ReEGBzjXb1WEvAHW7PioIidSGg0
C5t7CbaUddMxlsC075YDeaUh7kvqn/Jm27jhxNVikoR60B9pDwlfFMQFXE/+JZ/M
OtORD65cWa1h0EqH9PwzjI9737S1q6sRXvkmbYpB9feWoqQrveX//biYI4WJ2UCy
xP4clIBVx+Mm0AWW6hwhVZzm6eMrD9q05pbxUtN1AgMBAAGjggEsMIIBKDARBglg
hkgBhvhCAQEEBAMCBkAwHQYDVR0OBBYEFE/kA8o3jvdSVJEqvzEFtX2moiXQMIG1
BgNVHSMEga0wgaqAFL7KU6xliRgCHvZTolASlGDszAX6oYGGpIGDMIGAMRUwEwYD
VQQDFAxDSEVOTkFJQ0FfQ0ExCzAJBgNVBAYTAklOMQ8wDQYDVQQKEwZDSVRSSVgx
DDAKBgNVBAsTA0FORzELMAkGA1UECBMCS0ExLjAsBgkqhkiG9w0BCQEWH0NIRU5O
QUlDQV9DQUBDSEVOTkFJQ0FfbWFpbC5jb22CCQCH+8TUXkZWcDA8BggrBgEFBQcB
AQQwMC4wLAYIKwYBBQUHMAGGIGh0dHA6Ly8xNzIuMTkuMTAuMS9yZXNwb25kZXJw
YXRoMA0GCSqGSIb3DQEBCwUAA4IBAQClXtD2St8bu4m9PrzQ6YgRM4AKB30XSfvE
dc9pPiz+LPRlBb1lQfCr2cTCE9Z+FOazMDDS61BQrg+YSytIN+pJj8xapoqD+kqt
+qZWPUYI9WQfX2qosdS/AusOWH69GOGFyzjmybN0AiL66r4eF7twxoz67DklOsPS
EY0GwhNcGc+bmHmP4tcBVE0m1s61oM2XfPk9cHiC5NlqGcpASwpjXDyPmIIiU+R3
GgxeUe7nU8muZ9YwcW/DVw609l0V3wFvL1JGzxwvmrTYr3z4oLjoJwPGu6BTygKU
omgN1WSKN1YnSReO3aHuU6DSG022nv9uc213NW+EAqpD60hYPGEh
-----END CERTIFICATE-----
