Certificate:
    Data:
        Version: 3 (0x2)
        Serial Number: 11042563100195 (0xa0b0c0d0e23)
    Signature Algorithm: sha256WithRSAEncryption
        Issuer: CN=SHILLONGCA_CA, C=IN, O=CITRIX, OU=ANG, ST=KA/emailAddress=SHILLONGCA_CA@SHILLONGCA_mail.com
        Validity
            Not Before: Jul  8 04:40:11 2016 GMT
            Not After : Jul  6 04:40:11 2026 GMT
        Subject: ST=KA, C=IN, CN=121_SHILLONGCA_server/emailAddress=121_SHILLONGCA@test_ca.com, O=CITRIX
        Subject Public Key Info:
            Public Key Algorithm: rsaEncryption
                Public-Key: (2048 bit)
                Modulus:
                    00:bf:3e:bc:cf:f3:66:2c:2b:75:39:bd:9d:9d:30:
                    a6:cb:44:dd:7a:68:8e:a5:37:69:de:b4:98:43:2b:
                    f2:e5:e8:f6:c2:a7:f3:2d:4a:62:78:d6:8f:12:8b:
                    96:a3:c7:8f:b7:13:69:21:03:39:c2:c4:23:ca:9d:
                    d3:85:94:d0:e8:89:04:ef:eb:da:6a:c9:40:cb:2a:
                    6d:f4:5f:55:c9:6a:35:42:ce:79:6c:45:5e:d6:b9:
                    ce:71:2c:df:76:b6:21:e6:ef:0e:c4:61:c0:5f:57:
                    cb:89:a9:cf:18:75:03:4f:4e:7c:e4:17:e3:56:d4:
                    63:89:40:01:78:5a:e8:a9:7c:27:7b:f3:73:2c:24:
                    89:42:05:f4:a5:94:16:78:dc:e7:33:a8:e4:5a:95:
                    6b:64:03:4f:16:c5:b7:83:27:45:6a:74:7c:c6:71:
                    0a:72:d5:cd:f9:63:eb:1e:73:05:92:fd:9f:ab:ad:
                    c0:91:c7:63:67:54:02:fc:0e:68:06:c5:06:f5:cd:
                    08:e1:96:dc:70:3d:ef:68:1b:fe:a1:6b:c8:55:b7:
                    18:2c:92:da:f8:18:04:92:79:05:24:83:d5:2e:f8:
                    08:a5:aa:1e:06:e0:c9:30:15:9b:02:50:04:f4:8c:
                    d5:ae:cf:84:fd:08:14:07:c3:09:57:fe:1f:a7:fd:
                    ff:0b
                Exponent: 65537 (0x10001)
        X509v3 extensions:
            Netscape Cert Type: 
                SSL Server
            X509v3 Subject Key Identifier: 
                98:B4:CF:48:88:96:40:D3:F9:A9:EB:BA:A0:87:E6:43:FF:FC:19:BF
            X509v3 Authority Key Identifier: 
                keyid:FA:E9:1F:A5:AF:8B:4E:18:FF:EF:B7:EA:8F:FB:98:BC:59:23:81:DF
                DirName:/CN=SHILLONGCA_CA/C=IN/O=CITRIX/OU=ANG/ST=KA/emailAddress=SHILLONGCA_CA@SHILLONGCA_mail.com
                serial:FB:D0:92:FD:A2:7C:35:0C

            Authority Information Access: 
                OCSP - URI:http://172.28.10.1/responderpath

    Signature Algorithm: sha256WithRSAEncryption
         56:9e:d2:d2:93:6c:a6:a5:14:69:6e:98:8a:f0:8c:57:93:88:
         12:9b:fc:96:3c:3f:ea:df:97:ee:53:15:c8:8e:ef:f9:39:40:
         62:d4:33:ab:e9:c0:bd:4c:09:44:ff:d6:a4:6e:41:36:02:5b:
         41:bd:24:d5:ca:f2:d5:76:c3:cb:e9:b8:74:fe:d8:cf:be:37:
         24:6d:1f:8b:1b:d5:1f:3f:5b:61:1b:a5:3c:45:14:bd:91:8d:
         4d:8a:96:37:48:93:1d:a7:74:a8:23:71:68:f4:e8:80:0b:1c:
         27:6d:60:66:b7:e4:2e:0a:8b:08:7e:ba:d1:54:b7:71:eb:4f:
         8b:cf:23:a5:44:b3:2d:39:9d:1b:2a:27:41:60:8f:59:32:82:
         db:4c:42:60:b4:26:8a:41:26:d2:b2:77:33:fb:ee:5c:72:89:
         4e:c9:6d:4a:d2:ce:53:a3:18:47:f2:75:3b:c0:70:48:c6:09:
         7a:24:cc:af:6e:5b:17:f7:4d:1b:8c:97:d5:64:47:57:60:ff:
         4f:05:bb:11:50:ff:0b:03:71:d7:6e:4f:21:58:27:6f:79:2f:
         ef:ba:54:1f:ff:2d:4e:ef:be:1a:29:94:21:e0:35:07:61:a7:
         d2:00:04:7b:f7:c4:d8:8d:07:63:19:ef:bc:c9:c3:8a:9c:89:
         93:38:6b:df
-----BEGIN CERTIFICATE-----
MIIEqzCCA5OgAwIBAgIGCgsMDQ4jMA0GCSqGSIb3DQEBCwUAMIGDMRYwFAYDVQQD
FA1TSElMTE9OR0NBX0NBMQswCQYDVQQGEwJJTjEPMA0GA1UEChMGQ0lUUklYMQww
CgYDVQQLEwNBTkcxCzAJBgNVBAgTAktBMTAwLgYJKoZIhvcNAQkBFiFTSElMTE9O
R0NBX0NBQFNISUxMT05HQ0FfbWFpbC5jb20wHhcNMTYwNzA4MDQ0MDExWhcNMjYw
NzA2MDQ0MDExWjB2MQswCQYDVQQIEwJLQTELMAkGA1UEBhMCSU4xHjAcBgNVBAMU
FTEyMV9TSElMTE9OR0NBX3NlcnZlcjEpMCcGCSqGSIb3DQEJARYaMTIxX1NISUxM
T05HQ0FAdGVzdF9jYS5jb20xDzANBgNVBAoTBkNJVFJJWDCCASIwDQYJKoZIhvcN
AQEBBQADggEPADCCAQoCggEBAL8+vM/zZiwrdTm9nZ0wpstE3XpojqU3ad60mEMr
8uXo9sKn8y1KYnjWjxKLlqPHj7cTaSEDOcLEI8qd04WU0OiJBO/r2mrJQMsqbfRf
VclqNULOeWxFXta5znEs33a2IebvDsRhwF9Xy4mpzxh1A09OfOQX41bUY4lAAXha
6Kl8J3vzcywkiUIF9KWUFnjc5zOo5FqVa2QDTxbFt4MnRWp0fMZxCnLVzflj6x5z
BZL9n6utwJHHY2dUAvwOaAbFBvXNCOGW3HA972gb/qFryFW3GCyS2vgYBJJ5BSSD
1S74CKWqHgbgyTAVmwJQBPSM1a7PhP0IFAfDCVf+H6f9/wsCAwEAAaOCAS8wggEr
MBEGCWCGSAGG+EIBAQQEAwIGQDAdBgNVHQ4EFgQUmLTPSIiWQNP5qeu6oIfmQ//8
Gb8wgbgGA1UdIwSBsDCBrYAU+ukfpa+LThj/77fqj/uYvFkjgd+hgYmkgYYwgYMx
FjAUBgNVBAMUDVNISUxMT05HQ0FfQ0ExCzAJBgNVBAYTAklOMQ8wDQYDVQQKEwZD
SVRSSVgxDDAKBgNVBAsTA0FORzELMAkGA1UECBMCS0ExMDAuBgkqhkiG9w0BCQEW
IVNISUxMT05HQ0FfQ0FAU0hJTExPTkdDQV9tYWlsLmNvbYIJAPvQkv2ifDUMMDwG
CCsGAQUFBwEBBDAwLjAsBggrBgEFBQcwAYYgaHR0cDovLzE3Mi4yOC4xMC4xL3Jl
c3BvbmRlcnBhdGgwDQYJKoZIhvcNAQELBQADggEBAFae0tKTbKalFGlumIrwjFeT
iBKb/JY8P+rfl+5TFciO7/k5QGLUM6vpwL1MCUT/1qRuQTYCW0G9JNXK8tV2w8vp
uHT+2M++NyRtH4sb1R8/W2EbpTxFFL2RjU2KljdIkx2ndKgjcWj06IALHCdtYGa3
5C4Kiwh+utFUt3HrT4vPI6VEsy05nRsqJ0Fgj1kygttMQmC0JopBJtKydzP77lxy
iU7JbUrSzlOjGEfydTvAcEjGCXokzK9uWxf3TRuMl9VkR1dg/08FuxFQ/wsDcddu
TyFYJ295L++6VB//LU7vvhoplCHgNQdhp9IABHv3xNiNB2MZ77zJw4qciZM4a98=
-----END CERTIFICATE-----
