Certificate:
    Data:
        Version: 3 (0x2)
        Serial Number: 11042563100195 (0xa0b0c0d0e23)
    Signature Algorithm: sha256WithRSAEncryption
        Issuer: CN=BHOPALCA_CA, C=IN, O=CITRIX, OU=ANG, ST=KA/emailAddress=BHOPALCA_CA@BHOPALCA_mail.com
        Validity
            Not Before: Jul  8 04:32:37 2016 GMT
            Not After : Jul  6 04:32:37 2026 GMT
        Subject: ST=KA, C=IN, CN=121_BHOPALCA_server/emailAddress=121_BHOPALCA@test_ca.com, O=CITRIX
        Subject Public Key Info:
            Public Key Algorithm: rsaEncryption
                Public-Key: (2048 bit)
                Modulus:
                    00:bd:e7:a3:b5:34:8b:05:39:38:3f:c2:6b:8f:42:
                    99:49:11:2f:69:35:07:7c:32:8b:08:66:ba:f6:2b:
                    9a:1d:ec:49:00:a5:ca:11:6b:76:e0:39:97:11:1e:
                    d8:ac:61:56:d7:42:6a:2c:1e:7c:c7:b0:b1:72:5d:
                    de:6f:86:40:3d:bb:c0:f1:ac:fb:0f:f1:88:c4:13:
                    b5:49:2b:2b:fd:fc:a9:77:aa:57:83:c7:b9:37:bd:
                    4f:ca:13:2e:05:f7:dc:44:32:55:f3:ab:06:ed:ae:
                    3a:80:93:5e:70:45:b1:6c:ff:f2:70:f3:c7:57:db:
                    27:79:0f:fb:a3:32:99:9a:66:37:60:67:30:e8:e0:
                    e7:08:bd:fb:fa:76:86:c4:31:38:73:48:9e:e6:cc:
                    15:bb:af:1d:32:d5:2d:99:34:6e:ef:0b:5f:fa:8b:
                    08:44:46:0d:08:39:27:8a:7c:82:05:b3:70:94:3f:
                    1b:35:a9:63:ae:44:a1:6a:c1:4b:cf:1c:5c:92:dc:
                    fa:48:75:3b:f7:15:aa:bf:b6:db:24:67:fa:26:74:
                    c0:d3:5c:bb:ca:1a:92:35:ea:63:5e:38:b5:ca:27:
                    fb:2a:7c:ad:29:76:cb:58:2d:49:e5:c3:51:73:d6:
                    a9:72:53:d9:32:54:2e:5f:12:8c:63:b7:17:c3:fc:
                    66:75
                Exponent: 65537 (0x10001)
        X509v3 extensions:
            Netscape Cert Type: 
                SSL Server
            X509v3 Subject Key Identifier: 
                67:57:EA:75:B1:B6:FE:47:DB:3D:6F:1C:C8:5E:3D:E5:6F:C7:DE:06
            X509v3 Authority Key Identifier: 
                keyid:A6:66:0E:59:0F:3C:5C:11:35:B2:B3:99:59:A9:D3:A6:B1:5E:95:D2
                DirName:/CN=BHOPALCA_CA/C=IN/O=CITRIX/OU=ANG/ST=KA/emailAddress=BHOPALCA_CA@BHOPALCA_mail.com
                serial:BE:89:55:F3:65:28:17:9A

            Authority Information Access: 
                OCSP - URI:http://172.17.10.1/responderpath

    Signature Algorithm: sha256WithRSAEncryption
         71:a4:3d:6f:b9:0c:96:b5:0f:49:ee:86:f5:cf:d4:49:00:8e:
         73:e4:52:00:39:00:ea:46:b3:15:2f:13:62:b5:77:0a:25:38:
         80:47:0e:ce:3c:b8:a3:08:95:9d:16:4b:16:6e:2f:a2:4b:e8:
         15:cb:21:0e:33:70:35:f3:62:60:86:07:a3:52:72:14:9d:51:
         99:e3:c2:71:ca:e7:d4:50:7c:67:80:20:d5:45:87:eb:d7:48:
         39:e9:65:36:bb:7c:4d:75:9c:6f:7a:75:67:4f:67:1a:1d:78:
         ed:0b:f4:08:0c:31:90:25:32:39:e9:14:7a:e4:12:4e:47:8d:
         04:e1:ce:a8:e6:db:c6:65:dd:f6:be:a3:11:60:61:e4:25:e4:
         cb:3b:ad:07:2a:c3:63:eb:59:95:c8:11:f4:ee:0c:ec:f6:35:
         28:02:9e:8f:c9:5c:f1:fd:dc:30:63:75:3c:33:77:e6:f0:ea:
         9f:45:76:8c:c6:77:51:83:e1:60:d1:4d:c2:ab:65:89:a8:74:
         d3:e5:e9:6e:3e:67:26:02:88:c8:7b:95:e5:4b:52:a5:8f:43:
         c6:f6:1a:8b:56:df:b1:7e:7b:d6:e6:4a:0a:8a:59:a9:e3:f5:
         c3:ec:87:17:95:91:21:be:4b:3b:49:3d:e5:c4:57:20:2e:4a:
         6f:28:b5:47
-----BEGIN CERTIFICATE-----
MIIEmDCCA4CgAwIBAgIGCgsMDQ4jMA0GCSqGSIb3DQEBCwUAMH0xFDASBgNVBAMU
C0JIT1BBTENBX0NBMQswCQYDVQQGEwJJTjEPMA0GA1UEChMGQ0lUUklYMQwwCgYD
VQQLEwNBTkcxCzAJBgNVBAgTAktBMSwwKgYJKoZIhvcNAQkBFh1CSE9QQUxDQV9D
QUBCSE9QQUxDQV9tYWlsLmNvbTAeFw0xNjA3MDgwNDMyMzdaFw0yNjA3MDYwNDMy
MzdaMHIxCzAJBgNVBAgTAktBMQswCQYDVQQGEwJJTjEcMBoGA1UEAxQTMTIxX0JI
T1BBTENBX3NlcnZlcjEnMCUGCSqGSIb3DQEJARYYMTIxX0JIT1BBTENBQHRlc3Rf
Y2EuY29tMQ8wDQYDVQQKEwZDSVRSSVgwggEiMA0GCSqGSIb3DQEBAQUAA4IBDwAw
ggEKAoIBAQC956O1NIsFOTg/wmuPQplJES9pNQd8MosIZrr2K5od7EkApcoRa3bg
OZcRHtisYVbXQmosHnzHsLFyXd5vhkA9u8DxrPsP8YjEE7VJKyv9/Kl3qleDx7k3
vU/KEy4F99xEMlXzqwbtrjqAk15wRbFs//Jw88dX2yd5D/ujMpmaZjdgZzDo4OcI
vfv6dobEMThzSJ7mzBW7rx0y1S2ZNG7vC1/6iwhERg0IOSeKfIIFs3CUPxs1qWOu
RKFqwUvPHFyS3PpIdTv3Faq/ttskZ/omdMDTXLvKGpI16mNeOLXKJ/sqfK0pdstY
LUnlw1Fz1qlyU9kyVC5fEoxjtxfD/GZ1AgMBAAGjggEnMIIBIzARBglghkgBhvhC
AQEEBAMCBkAwHQYDVR0OBBYEFGdX6nWxtv5H2z1vHMhePeVvx94GMIGwBgNVHSME
gagwgaWAFKZmDlkPPFwRNbKzmVmp06axXpXSoYGBpH8wfTEUMBIGA1UEAxQLQkhP
UEFMQ0FfQ0ExCzAJBgNVBAYTAklOMQ8wDQYDVQQKEwZDSVRSSVgxDDAKBgNVBAsT
A0FORzELMAkGA1UECBMCS0ExLDAqBgkqhkiG9w0BCQEWHUJIT1BBTENBX0NBQEJI
T1BBTENBX21haWwuY29tggkAvolV82UoF5owPAYIKwYBBQUHAQEEMDAuMCwGCCsG
AQUFBzABhiBodHRwOi8vMTcyLjE3LjEwLjEvcmVzcG9uZGVycGF0aDANBgkqhkiG
9w0BAQsFAAOCAQEAcaQ9b7kMlrUPSe6G9c/USQCOc+RSADkA6kazFS8TYrV3CiU4
gEcOzjy4owiVnRZLFm4vokvoFcshDjNwNfNiYIYHo1JyFJ1RmePCccrn1FB8Z4Ag
1UWH69dIOellNrt8TXWcb3p1Z09nGh147Qv0CAwxkCUyOekUeuQSTkeNBOHOqObb
xmXd9r6jEWBh5CXkyzutByrDY+tZlcgR9O4M7PY1KAKej8lc8f3cMGN1PDN35vDq
n0V2jMZ3UYPhYNFNwqtliah00+Xpbj5nJgKIyHuV5UtSpY9DxvYai1bfsX571uZK
CopZqeP1w+yHF5WRIb5LO0k95cRXIC5Kbyi1Rw==
-----END CERTIFICATE-----
