Certificate:
    Data:
        Version: 3 (0x2)
        Serial Number: 11042563100195 (0xa0b0c0d0e23)
    Signature Algorithm: sha256WithRSAEncryption
        Issuer: CN=BANGALORECA_CA, C=IN, O=CITRIX, OU=ANG, ST=KA/emailAddress=BANGALORECA_CA@BANGALORECA_mail.com
        Validity
            Not Before: Jul  8 04:31:25 2016 GMT
            Not After : Jul  6 04:31:25 2026 GMT
        Subject: ST=KA, C=IN, CN=121_BANGALORECA_server/emailAddress=121_BANGALORECA@test_ca.com, O=CITRIX
        Subject Public Key Info:
            Public Key Algorithm: rsaEncryption
                Public-Key: (2048 bit)
                Modulus:
                    00:c4:eb:62:07:42:71:87:7e:63:e5:25:72:04:62:
                    03:65:e6:76:28:66:02:f3:d1:83:75:63:e6:4d:e7:
                    45:73:5d:58:71:18:e9:c2:8e:f1:83:0b:b0:a8:0c:
                    4c:05:f7:b2:17:5c:12:db:5b:d1:28:c8:fa:f3:cb:
                    1e:9a:1c:54:08:b2:9f:67:7d:2f:a0:9c:37:bc:08:
                    2e:79:07:56:d1:20:26:11:2b:f5:9e:99:e3:a1:53:
                    93:6c:b9:22:46:6a:01:b0:e2:af:f9:fa:2b:ab:ef:
                    c3:7b:d6:8a:bb:cb:b7:cb:87:75:dc:8b:aa:96:09:
                    77:4a:b4:63:89:9c:5e:93:20:e7:dd:bf:af:30:07:
                    9e:a5:39:c8:71:3f:9e:12:b5:5f:ad:fa:b1:b1:d3:
                    c3:f0:d3:df:dd:c5:65:39:79:30:fd:41:98:0e:a5:
                    af:af:8c:a8:93:e9:50:a8:f7:ca:7c:d0:fc:e7:41:
                    74:04:67:d4:5f:93:4d:95:cb:a5:67:27:72:f4:f2:
                    e2:c7:25:78:f9:53:b5:74:62:9f:7c:5e:bd:e4:d7:
                    7b:8c:b5:ba:f8:d5:04:7a:bb:bb:cb:b6:32:cc:7c:
                    d0:89:ec:7f:69:c4:82:81:a9:0a:5f:e5:b6:28:99:
                    83:5b:0d:c2:c7:3d:d9:47:43:41:1c:b6:c0:a8:c9:
                    59:91
                Exponent: 65537 (0x10001)
        X509v3 extensions:
            Netscape Cert Type: 
                SSL Server
            X509v3 Subject Key Identifier: 
                01:00:01:71:6C:53:4D:F7:1E:3A:88:FA:A5:39:2E:04:3B:26:C5:BF
            X509v3 Authority Key Identifier: 
                keyid:3B:D6:D1:53:18:87:05:22:BB:EE:C3:0F:F5:CE:0F:6B:A2:93:A7:B8
                DirName:/CN=BANGALORECA_CA/C=IN/O=CITRIX/OU=ANG/ST=KA/emailAddress=BANGALORECA_CA@BANGALORECA_mail.com
                serial:A1:AC:B4:DA:46:53:58:40

            Authority Information Access: 
                OCSP - URI:http://172.16.10.1/responderpath

    Signature Algorithm: sha256WithRSAEncryption
         43:04:91:58:27:c5:90:59:a0:3b:9f:1c:6b:80:be:7c:47:5a:
         96:e5:c1:3e:c5:6a:6a:e9:cd:62:ab:48:54:a9:e7:ae:7d:eb:
         a8:5c:58:54:f2:cc:18:1a:8b:ca:e7:11:1d:75:fa:80:13:81:
         17:69:21:2f:9f:cf:cb:3b:ee:9c:fc:4e:68:65:0d:82:c1:f2:
         53:1d:59:ec:29:8a:66:5b:14:fa:10:a9:92:d6:fb:00:47:bf:
         e3:96:ad:f9:95:39:c9:92:26:b0:09:13:41:b0:77:a5:35:8c:
         e1:9d:17:a4:70:b7:eb:20:31:de:73:dc:da:c1:8f:de:b0:1b:
         65:43:3c:eb:1d:c9:e4:25:33:83:aa:79:ab:f4:5c:86:5c:e4:
         78:4b:0d:0c:ee:48:11:88:9b:a3:32:62:1a:d3:2e:6c:8e:5d:
         6c:e0:62:8e:03:2b:39:de:2e:d2:32:81:e3:e2:42:4b:33:46:
         0b:d7:8e:64:6c:02:a8:a1:8c:13:34:ed:18:84:5f:f6:56:b5:
         af:c9:c0:cb:af:93:7e:1e:bc:42:10:53:bd:c1:e5:fc:6c:08:
         b9:d9:32:42:e0:0e:e8:1f:95:3f:07:ca:d4:50:81:50:fc:aa:
         6f:e0:c9:f1:c7:66:3e:df:0d:af:e8:6a:65:06:c3:c7:9e:49:
         6f:4d:c9:c2
-----BEGIN CERTIFICATE-----
MIIEszCCA5ugAwIBAgIGCgsMDQ4jMA0GCSqGSIb3DQEBCwUAMIGGMRcwFQYDVQQD
FA5CQU5HQUxPUkVDQV9DQTELMAkGA1UEBhMCSU4xDzANBgNVBAoTBkNJVFJJWDEM
MAoGA1UECxMDQU5HMQswCQYDVQQIEwJLQTEyMDAGCSqGSIb3DQEJARYjQkFOR0FM
T1JFQ0FfQ0FAQkFOR0FMT1JFQ0FfbWFpbC5jb20wHhcNMTYwNzA4MDQzMTI1WhcN
MjYwNzA2MDQzMTI1WjB4MQswCQYDVQQIEwJLQTELMAkGA1UEBhMCSU4xHzAdBgNV
BAMUFjEyMV9CQU5HQUxPUkVDQV9zZXJ2ZXIxKjAoBgkqhkiG9w0BCQEWGzEyMV9C
QU5HQUxPUkVDQUB0ZXN0X2NhLmNvbTEPMA0GA1UEChMGQ0lUUklYMIIBIjANBgkq
hkiG9w0BAQEFAAOCAQ8AMIIBCgKCAQEAxOtiB0Jxh35j5SVyBGIDZeZ2KGYC89GD
dWPmTedFc11YcRjpwo7xgwuwqAxMBfeyF1wS21vRKMj688semhxUCLKfZ30voJw3
vAgueQdW0SAmESv1npnjoVOTbLkiRmoBsOKv+forq+/De9aKu8u3y4d13Iuqlgl3
SrRjiZxekyDn3b+vMAeepTnIcT+eErVfrfqxsdPD8NPf3cVlOXkw/UGYDqWvr4yo
k+lQqPfKfND850F0BGfUX5NNlculZydy9PLixyV4+VO1dGKffF695Nd7jLW6+NUE
eru7y7YyzHzQiex/acSCgakKX+W2KJmDWw3Cxz3ZR0NBHLbAqMlZkQIDAQABo4IB
MjCCAS4wEQYJYIZIAYb4QgEBBAQDAgZAMB0GA1UdDgQWBBQBAAFxbFNN9x46iPql
OS4EOybFvzCBuwYDVR0jBIGzMIGwgBQ71tFTGIcFIrvuww/1zg9ropOnuKGBjKSB
iTCBhjEXMBUGA1UEAxQOQkFOR0FMT1JFQ0FfQ0ExCzAJBgNVBAYTAklOMQ8wDQYD
VQQKEwZDSVRSSVgxDDAKBgNVBAsTA0FORzELMAkGA1UECBMCS0ExMjAwBgkqhkiG
9w0BCQEWI0JBTkdBTE9SRUNBX0NBQEJBTkdBTE9SRUNBX21haWwuY29tggkAoay0
2kZTWEAwPAYIKwYBBQUHAQEEMDAuMCwGCCsGAQUFBzABhiBodHRwOi8vMTcyLjE2
LjEwLjEvcmVzcG9uZGVycGF0aDANBgkqhkiG9w0BAQsFAAOCAQEAQwSRWCfFkFmg
O58ca4C+fEdaluXBPsVqaunNYqtIVKnnrn3rqFxYVPLMGBqLyucRHXX6gBOBF2kh
L5/PyzvunPxOaGUNgsHyUx1Z7CmKZlsU+hCpktb7AEe/45at+ZU5yZImsAkTQbB3
pTWM4Z0XpHC36yAx3nPc2sGP3rAbZUM86x3J5CUzg6p5q/RchlzkeEsNDO5IEYib
ozJiGtMubI5dbOBijgMrOd4u0jKB4+JCSzNGC9eOZGwCqKGMEzTtGIRf9la1r8nA
y6+Tfh68QhBTvcHl/GwIudkyQuAO6B+VPwfK1FCBUPyqb+DJ8cdmPt8Nr+hqZQbD
x55Jb03Jwg==
-----END CERTIFICATE-----
