Certificate:
    Data:
        Version: 3 (0x2)
        Serial Number: 11042563100195 (0xa0b0c0d0e23)
    Signature Algorithm: sha256WithRSAEncryption
        Issuer: CN=OOTYCA_CA, C=IN, O=CITRIX, OU=ANG, ST=KA/emailAddress=OOTYCA_CA@OOTYCA_mail.com
        Validity
            Not Before: Jul  8 04:37:08 2016 GMT
            Not After : Jul  6 04:37:08 2026 GMT
        Subject: ST=KA, C=IN, CN=121_OOTYCA_server/emailAddress=121_OOTYCA@test_ca.com, O=CITRIX
        Subject Public Key Info:
            Public Key Algorithm: rsaEncryption
                Public-Key: (2048 bit)
                Modulus:
                    00:c7:78:35:fa:68:9e:a0:d7:77:4e:57:90:2a:67:
                    33:dc:d4:12:53:aa:81:e5:82:88:0e:51:30:35:63:
                    5a:ef:d7:33:12:f1:ff:84:2a:90:9f:55:0d:a7:f6:
                    02:54:e9:ea:38:1b:67:1e:c4:79:4c:27:89:78:ee:
                    3c:f4:9e:a3:7f:ad:6a:c1:ea:36:d4:0a:7c:bc:34:
                    75:25:b4:ef:2f:48:ca:c6:60:7b:e3:af:c0:32:85:
                    8e:c0:9b:4d:d6:b5:cd:a5:a5:e3:d7:3c:79:43:cf:
                    54:53:c5:62:d7:6b:2f:02:0f:76:5f:07:af:e7:c8:
                    d7:c7:c9:ae:fd:be:38:f9:52:fc:5e:87:a9:27:33:
                    80:cc:1b:e7:c7:33:3f:51:90:bf:fc:c4:ce:5d:b1:
                    7e:bd:92:d8:67:7f:ce:95:8d:38:d2:40:3a:c0:34:
                    d7:85:8f:e6:e6:47:00:8a:ad:02:1c:b8:d6:e0:7a:
                    4b:4d:7d:f5:28:c1:16:3b:05:06:f1:15:6c:e6:58:
                    51:0a:2f:d3:e1:16:70:f7:f7:e8:0d:69:33:b0:b8:
                    c4:bc:b7:82:0c:9f:3d:cf:aa:ba:a0:09:02:d0:8c:
                    ee:d7:40:7c:bb:40:86:07:9b:1d:bc:76:46:ca:eb:
                    2c:85:e3:c3:f9:bd:fa:15:bb:d7:e2:91:65:a1:f3:
                    bd:87
                Exponent: 65537 (0x10001)
        X509v3 extensions:
            Netscape Cert Type: 
                SSL Server
            X509v3 Subject Key Identifier: 
                10:C7:6C:C8:BB:CE:A9:83:57:C8:7A:B6:6E:8B:53:A9:03:75:B2:39
            X509v3 Authority Key Identifier: 
                keyid:9E:A0:B1:FE:A8:B8:21:30:13:39:F2:C3:C1:A8:43:CB:5D:73:FC:B5
                DirName:/CN=OOTYCA_CA/C=IN/O=CITRIX/OU=ANG/ST=KA/emailAddress=OOTYCA_CA@OOTYCA_mail.com
                serial:AA:C2:AB:74:21:09:60:FF

            Authority Information Access: 
                OCSP - URI:http://172.25.10.1/responderpath

    Signature Algorithm: sha256WithRSAEncryption
         89:29:57:f3:56:8c:08:e2:5f:13:9c:35:45:31:18:44:63:fb:
         0a:73:91:1d:61:2b:b9:47:54:4e:ca:67:22:92:0c:eb:d8:fe:
         76:5b:9e:14:e9:27:32:bd:8f:18:b2:5e:d8:5a:cf:dc:46:a8:
         5d:a4:a6:4d:08:5e:ed:e0:51:98:cd:89:57:1a:6f:f1:3f:5d:
         83:33:49:1a:eb:f0:1c:31:72:e9:74:51:e0:4b:d5:80:a8:a4:
         3a:4f:6a:15:27:ab:fd:32:05:59:e6:0e:e5:c6:c0:f1:28:4f:
         2e:b7:6a:2f:63:65:9f:d4:02:57:79:dc:79:bc:2c:59:cc:2c:
         24:97:db:6c:05:dd:41:80:ac:7c:b9:31:5c:19:e5:20:c5:87:
         61:a3:5f:70:cd:00:3d:89:1f:58:8c:d0:f0:6e:9c:fd:21:89:
         fa:06:45:ea:1d:4c:da:c2:69:5d:62:c7:71:d2:5a:cf:c2:f0:
         02:39:6b:02:f0:89:c3:e6:49:1f:4b:4b:97:06:49:57:f8:d8:
         59:59:2e:d5:14:32:06:8e:3f:ca:4b:f7:48:b7:54:73:f3:b4:
         35:ac:c9:7e:f2:7a:68:1f:7d:e5:f6:7f:d1:84:a7:78:ce:06:
         0f:9b:6c:93:a9:83:58:c8:68:48:06:c8:b5:1d:65:d8:41:f9:
         ca:98:98:f9
-----BEGIN CERTIFICATE-----
MIIEhzCCA2+gAwIBAgIGCgsMDQ4jMA0GCSqGSIb3DQEBCwUAMHcxEjAQBgNVBAMU
CU9PVFlDQV9DQTELMAkGA1UEBhMCSU4xDzANBgNVBAoTBkNJVFJJWDEMMAoGA1UE
CxMDQU5HMQswCQYDVQQIEwJLQTEoMCYGCSqGSIb3DQEJARYZT09UWUNBX0NBQE9P
VFlDQV9tYWlsLmNvbTAeFw0xNjA3MDgwNDM3MDhaFw0yNjA3MDYwNDM3MDhaMG4x
CzAJBgNVBAgTAktBMQswCQYDVQQGEwJJTjEaMBgGA1UEAxQRMTIxX09PVFlDQV9z
ZXJ2ZXIxJTAjBgkqhkiG9w0BCQEWFjEyMV9PT1RZQ0FAdGVzdF9jYS5jb20xDzAN
BgNVBAoTBkNJVFJJWDCCASIwDQYJKoZIhvcNAQEBBQADggEPADCCAQoCggEBAMd4
NfponqDXd05XkCpnM9zUElOqgeWCiA5RMDVjWu/XMxLx/4QqkJ9VDaf2AlTp6jgb
Zx7EeUwniXjuPPSeo3+tasHqNtQKfLw0dSW07y9IysZge+OvwDKFjsCbTda1zaWl
49c8eUPPVFPFYtdrLwIPdl8Hr+fI18fJrv2+OPlS/F6HqSczgMwb58czP1GQv/zE
zl2xfr2S2Gd/zpWNONJAOsA014WP5uZHAIqtAhy41uB6S0199SjBFjsFBvEVbOZY
UQov0+EWcPf36A1pM7C4xLy3ggyfPc+quqAJAtCM7tdAfLtAhgebHbx2RsrrLIXj
w/m9+hW71+KRZaHzvYcCAwEAAaOCASAwggEcMBEGCWCGSAGG+EIBAQQEAwIGQDAd
BgNVHQ4EFgQUEMdsyLvOqYNXyHq2botTqQN1sjkwgakGA1UdIwSBoTCBnoAUnqCx
/qi4ITATOfLDwahDy11z/LWhe6R5MHcxEjAQBgNVBAMUCU9PVFlDQV9DQTELMAkG
A1UEBhMCSU4xDzANBgNVBAoTBkNJVFJJWDEMMAoGA1UECxMDQU5HMQswCQYDVQQI
EwJLQTEoMCYGCSqGSIb3DQEJARYZT09UWUNBX0NBQE9PVFlDQV9tYWlsLmNvbYIJ
AKrCq3QhCWD/MDwGCCsGAQUFBwEBBDAwLjAsBggrBgEFBQcwAYYgaHR0cDovLzE3
Mi4yNS4xMC4xL3Jlc3BvbmRlcnBhdGgwDQYJKoZIhvcNAQELBQADggEBAIkpV/NW
jAjiXxOcNUUxGERj+wpzkR1hK7lHVE7KZyKSDOvY/nZbnhTpJzK9jxiyXthaz9xG
qF2kpk0IXu3gUZjNiVcab/E/XYMzSRrr8Bwxcul0UeBL1YCopDpPahUnq/0yBVnm
DuXGwPEoTy63ai9jZZ/UAld53Hm8LFnMLCSX22wF3UGArHy5MVwZ5SDFh2GjX3DN
AD2JH1iM0PBunP0hifoGReodTNrCaV1ix3HSWs/C8AI5awLwicPmSR9LS5cGSVf4
2FlZLtUUMgaOP8pL90i3VHPztDWsyX7yemgffeX2f9GEp3jOBg+bbJOpg1jIaEgG
yLUdZdhB+cqYmPk=
-----END CERTIFICATE-----
