Certificate:
    Data:
        Version: 3 (0x2)
        Serial Number: 11042563100195 (0xa0b0c0d0e23)
    Signature Algorithm: sha256WithRSAEncryption
        Issuer: CN=DELHICA_CA, C=IN, O=CITRIX, OU=ANG, ST=KA/emailAddress=DELHICA_CA@DELHICA_mail.com
        Validity
            Not Before: Jul  8 04:34:27 2016 GMT
            Not After : Jul  6 04:34:27 2026 GMT
        Subject: ST=KA, C=IN, CN=121_DELHICA_server/emailAddress=121_DELHICA@test_ca.com, O=CITRIX
        Subject Public Key Info:
            Public Key Algorithm: rsaEncryption
                Public-Key: (2048 bit)
                Modulus:
                    00:cf:90:71:69:b1:0a:75:01:07:4f:e2:64:50:62:
                    eb:b6:b5:3e:db:bb:d7:c0:d8:62:9d:48:ad:6c:c4:
                    3d:e4:6f:15:e6:80:ba:1f:c9:bb:82:01:c6:22:93:
                    82:b3:c1:dd:94:1f:bf:98:45:44:4a:ec:2c:17:45:
                    20:13:ab:e7:82:96:55:79:c4:ce:18:96:b2:18:72:
                    86:9d:e1:d9:de:49:89:d8:8e:ca:fa:c4:89:28:2f:
                    fe:44:7e:e0:ef:8e:2a:27:de:ca:2d:29:8b:bb:ec:
                    c4:43:fd:ff:60:8a:d1:19:99:4c:d0:cc:45:db:71:
                    ea:cb:70:d8:4f:5b:25:15:24:29:f3:fa:60:cc:ab:
                    fa:9c:32:bd:83:18:e3:fd:db:fc:32:37:a2:6a:4a:
                    35:af:71:35:d4:5a:0a:58:15:17:4c:93:9a:d5:0e:
                    07:be:fe:08:e6:0a:2f:24:0a:db:f9:09:68:a1:61:
                    5e:f0:d1:5d:4b:08:bd:5b:26:7b:3f:36:49:0c:d3:
                    d9:d9:b6:24:ae:c9:63:61:4a:1a:db:78:80:d6:a4:
                    20:2d:5e:30:fe:08:92:f8:8b:28:9b:5f:37:3e:30:
                    62:2b:b8:73:24:54:c3:31:60:13:f2:78:c9:d1:a1:
                    30:4c:bd:03:52:40:c3:5e:de:9c:69:b8:d0:a7:77:
                    5f:01
                Exponent: 65537 (0x10001)
        X509v3 extensions:
            Netscape Cert Type: 
                SSL Server
            X509v3 Subject Key Identifier: 
                8F:6B:7E:EB:77:89:68:8D:C9:EC:A6:3A:5C:D5:64:E5:41:E7:FC:EE
            X509v3 Authority Key Identifier: 
                keyid:D7:37:52:01:DC:2C:7A:57:85:CA:30:39:30:F0:D5:5D:5A:31:03:02
                DirName:/CN=DELHICA_CA/C=IN/O=CITRIX/OU=ANG/ST=KA/emailAddress=DELHICA_CA@DELHICA_mail.com
                serial:94:59:DC:51:4E:A5:13:27

            Authority Information Access: 
                OCSP - URI:http://172.20.10.1/responderpath

    Signature Algorithm: sha256WithRSAEncryption
         67:5f:a6:5d:01:59:66:a2:ab:c3:e2:25:31:21:64:98:d4:93:
         b3:ae:a0:be:94:a7:73:44:03:03:df:dd:ae:11:d5:ab:96:9c:
         12:81:e3:3f:ef:3f:0b:1b:d8:f3:a9:b7:23:7f:17:15:92:c0:
         30:24:4f:76:b8:aa:06:c1:98:bc:ea:de:8c:11:ae:94:da:72:
         81:f0:99:30:a6:55:45:80:e2:20:84:e2:90:b7:73:1a:a5:73:
         33:4f:01:c0:29:1e:1e:ee:d9:15:50:f8:a5:ba:34:0f:13:a0:
         b3:35:7d:31:36:16:ab:7a:05:71:08:14:3e:59:24:2d:ad:0f:
         67:69:9f:aa:d5:21:a5:7b:fe:b2:10:37:77:f6:09:0e:87:b8:
         1a:2c:5c:d7:0f:66:16:ab:f4:06:d6:74:ef:88:2d:84:8c:52:
         5f:c2:d2:e8:3a:34:79:5e:f1:14:64:f7:1c:92:a6:89:57:98:
         86:e5:59:31:e1:8d:6e:c4:80:4d:bb:64:27:2d:95:c2:54:13:
         ec:1a:d3:35:b9:3c:10:f9:e1:d3:d5:9f:76:26:eb:a0:d8:59:
         d7:a7:7d:2b:fe:e7:32:3d:fb:a0:cc:90:4e:09:90:ef:39:fd:
         7a:6a:b6:0d:ff:ef:f1:a8:a1:a9:fc:3b:7f:a5:ef:61:6b:3a:
         e9:b5:59:eb
-----BEGIN CERTIFICATE-----
MIIEjzCCA3egAwIBAgIGCgsMDQ4jMA0GCSqGSIb3DQEBCwUAMHoxEzARBgNVBAMU
CkRFTEhJQ0FfQ0ExCzAJBgNVBAYTAklOMQ8wDQYDVQQKEwZDSVRSSVgxDDAKBgNV
BAsTA0FORzELMAkGA1UECBMCS0ExKjAoBgkqhkiG9w0BCQEWG0RFTEhJQ0FfQ0FA
REVMSElDQV9tYWlsLmNvbTAeFw0xNjA3MDgwNDM0MjdaFw0yNjA3MDYwNDM0Mjda
MHAxCzAJBgNVBAgTAktBMQswCQYDVQQGEwJJTjEbMBkGA1UEAxQSMTIxX0RFTEhJ
Q0Ffc2VydmVyMSYwJAYJKoZIhvcNAQkBFhcxMjFfREVMSElDQUB0ZXN0X2NhLmNv
bTEPMA0GA1UEChMGQ0lUUklYMIIBIjANBgkqhkiG9w0BAQEFAAOCAQ8AMIIBCgKC
AQEAz5BxabEKdQEHT+JkUGLrtrU+27vXwNhinUitbMQ95G8V5oC6H8m7ggHGIpOC
s8HdlB+/mEVESuwsF0UgE6vngpZVecTOGJayGHKGneHZ3kmJ2I7K+sSJKC/+RH7g
744qJ97KLSmLu+zEQ/3/YIrRGZlM0MxF23Hqy3DYT1slFSQp8/pgzKv6nDK9gxjj
/dv8Mjeiako1r3E11FoKWBUXTJOa1Q4Hvv4I5govJArb+QlooWFe8NFdSwi9WyZ7
PzZJDNPZ2bYkrsljYUoa23iA1qQgLV4w/giS+Isom183PjBiK7hzJFTDMWAT8njJ
0aEwTL0DUkDDXt6cabjQp3dfAQIDAQABo4IBIzCCAR8wEQYJYIZIAYb4QgEBBAQD
AgZAMB0GA1UdDgQWBBSPa37rd4lojcnspjpc1WTlQef87jCBrAYDVR0jBIGkMIGh
gBTXN1IB3Cx6V4XKMDkw8NVdWjEDAqF+pHwwejETMBEGA1UEAxQKREVMSElDQV9D
QTELMAkGA1UEBhMCSU4xDzANBgNVBAoTBkNJVFJJWDEMMAoGA1UECxMDQU5HMQsw
CQYDVQQIEwJLQTEqMCgGCSqGSIb3DQEJARYbREVMSElDQV9DQUBERUxISUNBX21h
aWwuY29tggkAlFncUU6lEycwPAYIKwYBBQUHAQEEMDAuMCwGCCsGAQUFBzABhiBo
dHRwOi8vMTcyLjIwLjEwLjEvcmVzcG9uZGVycGF0aDANBgkqhkiG9w0BAQsFAAOC
AQEAZ1+mXQFZZqKrw+IlMSFkmNSTs66gvpSnc0QDA9/drhHVq5acEoHjP+8/CxvY
86m3I38XFZLAMCRPdriqBsGYvOrejBGulNpygfCZMKZVRYDiIITikLdzGqVzM08B
wCkeHu7ZFVD4pbo0DxOgszV9MTYWq3oFcQgUPlkkLa0PZ2mfqtUhpXv+shA3d/YJ
Doe4Gixc1w9mFqv0BtZ074gthIxSX8LS6Do0eV7xFGT3HJKmiVeYhuVZMeGNbsSA
TbtkJy2VwlQT7BrTNbk8EPnh09WfdibroNhZ16d9K/7nMj37oMyQTgmQ7zn9emq2
Df/v8aihqfw7f6XvYWs66bVZ6w==
-----END CERTIFICATE-----
