Certificate:
    Data:
        Version: 3 (0x2)
        Serial Number: 11042563100196 (0xa0b0c0d0e24)
    Signature Algorithm: sha256WithRSAEncryption
        Issuer: CN=MUMBAICA_CA, C=IN, O=CITRIX, OU=ANG, ST=KA/emailAddress=MUMBAICA_CA@MUMBAICA_mail.com
        Validity
            Not Before: Jul  8 04:35:52 2016 GMT
            Not After : Jul  6 04:35:52 2026 GMT
        Subject: ST=KA, C=IN, CN=122_MUMBAICA_server/emailAddress=122_MUMBAICA@test_ca.com, O=CITRIX
        Subject Public Key Info:
            Public Key Algorithm: rsaEncryption
                Public-Key: (2048 bit)
                Modulus:
                    00:b0:ec:b9:de:02:5c:1b:25:3b:84:5d:f1:8d:79:
                    a5:11:61:1d:45:83:40:ed:df:94:51:82:05:24:2f:
                    9d:6e:6d:e2:08:ff:cd:c8:e5:ca:3d:9a:77:24:0b:
                    a9:50:ab:cb:7b:95:10:70:4e:54:7e:1e:e8:77:be:
                    82:ab:b2:1c:c0:16:93:c5:4a:91:fb:88:2b:25:c1:
                    98:a2:7b:19:0f:82:0e:70:17:2b:c9:55:c0:7f:41:
                    1d:ac:17:c5:38:2c:d1:05:04:c8:7d:96:a0:d3:3d:
                    f7:90:23:ae:8a:33:03:90:65:56:24:bb:cd:85:54:
                    f5:28:0f:68:bf:37:79:95:55:3c:20:c9:01:e7:02:
                    f1:d4:8d:1d:db:ab:d5:9a:91:53:b2:7e:af:f8:83:
                    ec:f6:30:9f:4e:b6:3f:93:01:c5:4a:0b:6b:c1:86:
                    c7:9b:f7:62:b2:81:1d:7e:10:81:2a:7e:e0:4f:8e:
                    83:ef:aa:17:d6:93:97:40:7a:c6:47:db:a9:ad:d4:
                    d0:d8:98:75:66:54:47:50:8f:6f:e0:7e:6a:bd:21:
                    e0:2a:8a:d3:da:8a:a0:cf:7d:b9:24:14:dd:9c:fe:
                    dc:ac:fa:71:2f:6f:8d:d6:e1:b4:1d:fb:b1:87:df:
                    b1:f2:03:e0:3f:2b:d5:94:d7:b2:07:1e:2d:4a:61:
                    20:73
                Exponent: 65537 (0x10001)
        X509v3 extensions:
            Netscape Cert Type: 
                SSL Server
            X509v3 Subject Key Identifier: 
                E1:FF:3F:B2:15:6D:47:EF:C8:E0:A3:43:F2:E8:29:B3:1D:68:1F:8F
            X509v3 Authority Key Identifier: 
                keyid:37:79:BF:65:19:98:28:32:4E:EF:3E:44:14:19:A9:83:2B:AF:05:7A
                DirName:/CN=MUMBAICA_CA/C=IN/O=CITRIX/OU=ANG/ST=KA/emailAddress=MUMBAICA_CA@MUMBAICA_mail.com
                serial:EE:B1:37:EE:F6:D2:14:91

            Authority Information Access: 
                OCSP - URI:http://172.23.10.1/responderpath

    Signature Algorithm: sha256WithRSAEncryption
         03:3a:f3:cb:a9:e5:8a:f2:e1:18:16:fb:23:ed:e0:69:6b:6d:
         1b:c7:aa:7c:4d:9b:aa:a6:e6:de:a3:9f:8b:d3:7f:a8:01:9d:
         31:fb:27:2d:ae:80:46:e8:ad:4f:0f:63:68:d4:7e:96:5f:a4:
         2a:42:9f:82:2f:8e:93:ec:fc:14:78:34:0c:ab:0b:5f:63:f0:
         0c:2e:7c:00:30:a1:3e:2f:60:10:ed:7b:b0:8e:4b:1c:00:8c:
         53:e0:ca:42:25:34:d9:ec:31:ad:c2:69:aa:9c:a9:09:d9:bc:
         ad:b1:73:ea:cd:86:11:68:c3:fa:ad:4c:ea:5a:5e:4f:a1:be:
         ff:44:b1:9a:2b:d5:41:33:8e:89:7f:68:b6:27:d6:56:eb:30:
         d7:6a:3b:e7:39:ab:34:8a:3b:09:97:a5:df:40:99:cf:f2:d6:
         fa:7f:d8:74:0d:f5:1e:9d:0e:78:79:d9:19:21:c2:d8:37:b5:
         95:dd:e0:f2:b3:a2:ff:60:bf:9f:13:05:ce:da:f8:4a:cc:94:
         80:42:06:23:3a:6b:b2:21:07:e3:d7:2b:23:1c:3e:2a:6e:2a:
         28:21:d2:d1:2c:d5:82:2c:e5:68:38:a0:b1:d0:22:87:33:89:
         59:f0:e8:76:a1:c1:0a:e9:96:ba:a9:1b:08:52:83:c2:07:d2:
         a9:c4:30:7e
-----BEGIN CERTIFICATE-----
MIIEmDCCA4CgAwIBAgIGCgsMDQ4kMA0GCSqGSIb3DQEBCwUAMH0xFDASBgNVBAMU
C01VTUJBSUNBX0NBMQswCQYDVQQGEwJJTjEPMA0GA1UEChMGQ0lUUklYMQwwCgYD
VQQLEwNBTkcxCzAJBgNVBAgTAktBMSwwKgYJKoZIhvcNAQkBFh1NVU1CQUlDQV9D
QUBNVU1CQUlDQV9tYWlsLmNvbTAeFw0xNjA3MDgwNDM1NTJaFw0yNjA3MDYwNDM1
NTJaMHIxCzAJBgNVBAgTAktBMQswCQYDVQQGEwJJTjEcMBoGA1UEAxQTMTIyX01V
TUJBSUNBX3NlcnZlcjEnMCUGCSqGSIb3DQEJARYYMTIyX01VTUJBSUNBQHRlc3Rf
Y2EuY29tMQ8wDQYDVQQKEwZDSVRSSVgwggEiMA0GCSqGSIb3DQEBAQUAA4IBDwAw
ggEKAoIBAQCw7LneAlwbJTuEXfGNeaURYR1Fg0Dt35RRggUkL51ubeII/83I5co9
mnckC6lQq8t7lRBwTlR+Huh3voKrshzAFpPFSpH7iCslwZiiexkPgg5wFyvJVcB/
QR2sF8U4LNEFBMh9lqDTPfeQI66KMwOQZVYku82FVPUoD2i/N3mVVTwgyQHnAvHU
jR3bq9WakVOyfq/4g+z2MJ9Otj+TAcVKC2vBhseb92KygR1+EIEqfuBPjoPvqhfW
k5dAesZH26mt1NDYmHVmVEdQj2/gfmq9IeAqitPaiqDPfbkkFN2c/tys+nEvb43W
4bQd+7GH37HyA+A/K9WU17IHHi1KYSBzAgMBAAGjggEnMIIBIzARBglghkgBhvhC
AQEEBAMCBkAwHQYDVR0OBBYEFOH/P7IVbUfvyOCjQ/LoKbMdaB+PMIGwBgNVHSME
gagwgaWAFDd5v2UZmCgyTu8+RBQZqYMrrwV6oYGBpH8wfTEUMBIGA1UEAxQLTVVN
QkFJQ0FfQ0ExCzAJBgNVBAYTAklOMQ8wDQYDVQQKEwZDSVRSSVgxDDAKBgNVBAsT
A0FORzELMAkGA1UECBMCS0ExLDAqBgkqhkiG9w0BCQEWHU1VTUJBSUNBX0NBQE1V
TUJBSUNBX21haWwuY29tggkA7rE37vbSFJEwPAYIKwYBBQUHAQEEMDAuMCwGCCsG
AQUFBzABhiBodHRwOi8vMTcyLjIzLjEwLjEvcmVzcG9uZGVycGF0aDANBgkqhkiG
9w0BAQsFAAOCAQEAAzrzy6nlivLhGBb7I+3gaWttG8eqfE2bqqbm3qOfi9N/qAGd
MfsnLa6ARuitTw9jaNR+ll+kKkKfgi+Ok+z8FHg0DKsLX2PwDC58ADChPi9gEO17
sI5LHACMU+DKQiU02ewxrcJpqpypCdm8rbFz6s2GEWjD+q1M6lpeT6G+/0SxmivV
QTOOiX9otifWVusw12o75zmrNIo7CZel30CZz/LW+n/YdA31Hp0OeHnZGSHC2De1
ld3g8rOi/2C/nxMFztr4SsyUgEIGIzprsiEH49crIxw+Km4qKCHS0SzVgizlaDig
sdAihzOJWfDodqHBCumWuqkbCFKDwgfSqcQwfg==
-----END CERTIFICATE-----
