Certificate:
    Data:
        Version: 3 (0x2)
        Serial Number: 11042563100196 (0xa0b0c0d0e24)
    Signature Algorithm: sha256WithRSAEncryption
        Issuer: CN=DELHICA_CA, C=IN, O=CITRIX, OU=ANG, ST=KA/emailAddress=DELHICA_CA@DELHICA_mail.com
        Validity
            Not Before: Jul  8 04:34:27 2016 GMT
            Not After : Jul  6 04:34:27 2026 GMT
        Subject: ST=KA, C=IN, CN=122_DELHICA_server/emailAddress=122_DELHICA@test_ca.com, O=CITRIX
        Subject Public Key Info:
            Public Key Algorithm: rsaEncryption
                Public-Key: (2048 bit)
                Modulus:
                    00:a9:ef:e8:b8:1d:43:fa:86:e4:e4:c8:b9:bf:bb:
                    13:db:5c:f8:c7:72:02:2e:e5:07:68:90:31:da:5b:
                    fd:61:69:17:c2:89:84:7b:f6:8d:bd:8b:88:33:97:
                    6f:fb:30:3b:9c:8e:26:58:a2:5e:43:b8:c2:86:2b:
                    52:bd:c1:92:f6:39:88:91:b2:2f:66:68:6a:ae:c1:
                    95:da:18:a5:78:8a:d3:d6:37:ae:cc:bd:1e:d3:0f:
                    16:21:10:07:93:8f:34:6e:ec:0c:25:34:ca:cb:26:
                    82:56:7c:11:9c:80:93:a6:59:d9:35:89:4e:f9:ca:
                    f1:b9:70:6a:9c:89:f5:bf:f3:4d:4d:6a:a5:c8:84:
                    63:f6:04:95:72:65:c7:bf:44:21:d3:8a:86:d8:2a:
                    ae:e1:96:1c:f2:35:cb:ee:8b:9f:e2:f6:6c:59:5d:
                    e8:21:ad:3f:9f:c1:b2:ab:36:3c:29:65:3c:ae:d2:
                    95:53:5b:13:cb:8c:0d:ac:bb:58:fd:15:c2:f2:be:
                    d5:e9:be:f1:0a:72:05:90:04:3f:c2:b2:27:9b:0c:
                    8b:07:46:c8:58:80:79:53:3a:cb:b1:ca:ee:ef:b8:
                    52:b9:91:36:ff:a7:f6:e4:07:72:12:c0:f1:5c:70:
                    89:8d:0f:4b:a5:6a:4e:1c:89:be:5c:d2:ae:5b:47:
                    48:b7
                Exponent: 65537 (0x10001)
        X509v3 extensions:
            Netscape Cert Type: 
                SSL Server
            X509v3 Subject Key Identifier: 
                E6:68:13:C1:A9:79:0D:61:01:54:A0:EB:C8:4F:00:5D:36:B0:7E:FE
            X509v3 Authority Key Identifier: 
                keyid:D7:37:52:01:DC:2C:7A:57:85:CA:30:39:30:F0:D5:5D:5A:31:03:02
                DirName:/CN=DELHICA_CA/C=IN/O=CITRIX/OU=ANG/ST=KA/emailAddress=DELHICA_CA@DELHICA_mail.com
                serial:94:59:DC:51:4E:A5:13:27

            Authority Information Access: 
                OCSP - URI:http://172.20.10.1/responderpath

    Signature Algorithm: sha256WithRSAEncryption
         4e:82:9d:de:54:7d:8c:92:17:b9:3f:7d:8c:84:8a:82:6c:55:
         3c:e9:9f:ec:38:03:b2:fb:c2:d0:ad:1c:36:e8:dd:21:fd:00:
         0e:03:b6:38:73:7b:be:1b:37:43:ab:0e:9c:4b:ae:ab:41:d6:
         44:f6:23:08:06:6b:20:f0:50:ba:45:df:07:bc:c1:03:12:29:
         b8:73:fd:59:00:03:b3:16:0f:37:12:9a:f1:b0:a5:72:55:93:
         55:89:e4:6f:7f:7c:76:7e:eb:7f:ea:7d:0b:33:c0:2c:00:21:
         af:81:05:eb:9e:18:62:5a:39:8f:44:b6:2e:15:9d:94:e3:93:
         c4:2f:b7:f5:95:8b:63:44:79:37:ee:88:98:89:da:e2:eb:16:
         06:00:63:9b:52:aa:fb:f3:4d:f3:0c:96:d8:42:e5:40:ad:7a:
         2c:c6:18:43:b7:6d:f8:4a:45:1a:1f:6d:3d:05:e4:fa:41:8f:
         0f:dd:3c:ec:45:0d:fc:7d:49:42:93:4d:f1:08:b3:20:47:96:
         e0:9e:b3:ae:fa:6a:d0:5f:16:2a:13:4f:c1:6d:8b:9c:45:b9:
         eb:e9:2b:b1:86:a6:f1:ff:22:0a:a0:c0:fd:21:87:2b:0f:b7:
         b9:72:40:f8:6d:05:23:29:f2:3c:44:a3:27:cf:a1:47:8c:04:
         ff:09:8e:e2
-----BEGIN CERTIFICATE-----
MIIEjzCCA3egAwIBAgIGCgsMDQ4kMA0GCSqGSIb3DQEBCwUAMHoxEzARBgNVBAMU
CkRFTEhJQ0FfQ0ExCzAJBgNVBAYTAklOMQ8wDQYDVQQKEwZDSVRSSVgxDDAKBgNV
BAsTA0FORzELMAkGA1UECBMCS0ExKjAoBgkqhkiG9w0BCQEWG0RFTEhJQ0FfQ0FA
REVMSElDQV9tYWlsLmNvbTAeFw0xNjA3MDgwNDM0MjdaFw0yNjA3MDYwNDM0Mjda
MHAxCzAJBgNVBAgTAktBMQswCQYDVQQGEwJJTjEbMBkGA1UEAxQSMTIyX0RFTEhJ
Q0Ffc2VydmVyMSYwJAYJKoZIhvcNAQkBFhcxMjJfREVMSElDQUB0ZXN0X2NhLmNv
bTEPMA0GA1UEChMGQ0lUUklYMIIBIjANBgkqhkiG9w0BAQEFAAOCAQ8AMIIBCgKC
AQEAqe/ouB1D+obk5Mi5v7sT21z4x3ICLuUHaJAx2lv9YWkXwomEe/aNvYuIM5dv
+zA7nI4mWKJeQ7jChitSvcGS9jmIkbIvZmhqrsGV2hileIrT1jeuzL0e0w8WIRAH
k480buwMJTTKyyaCVnwRnICTplnZNYlO+crxuXBqnIn1v/NNTWqlyIRj9gSVcmXH
v0Qh04qG2Cqu4ZYc8jXL7ouf4vZsWV3oIa0/n8GyqzY8KWU8rtKVU1sTy4wNrLtY
/RXC8r7V6b7xCnIFkAQ/wrInmwyLB0bIWIB5UzrLscru77hSuZE2/6f25AdyEsDx
XHCJjQ9LpWpOHIm+XNKuW0dItwIDAQABo4IBIzCCAR8wEQYJYIZIAYb4QgEBBAQD
AgZAMB0GA1UdDgQWBBTmaBPBqXkNYQFUoOvITwBdNrB+/jCBrAYDVR0jBIGkMIGh
gBTXN1IB3Cx6V4XKMDkw8NVdWjEDAqF+pHwwejETMBEGA1UEAxQKREVMSElDQV9D
QTELMAkGA1UEBhMCSU4xDzANBgNVBAoTBkNJVFJJWDEMMAoGA1UECxMDQU5HMQsw
CQYDVQQIEwJLQTEqMCgGCSqGSIb3DQEJARYbREVMSElDQV9DQUBERUxISUNBX21h
aWwuY29tggkAlFncUU6lEycwPAYIKwYBBQUHAQEEMDAuMCwGCCsGAQUFBzABhiBo
dHRwOi8vMTcyLjIwLjEwLjEvcmVzcG9uZGVycGF0aDANBgkqhkiG9w0BAQsFAAOC
AQEAToKd3lR9jJIXuT99jISKgmxVPOmf7DgDsvvC0K0cNujdIf0ADgO2OHN7vhs3
Q6sOnEuuq0HWRPYjCAZrIPBQukXfB7zBAxIpuHP9WQADsxYPNxKa8bClclWTVYnk
b398dn7rf+p9CzPALAAhr4EF654YYlo5j0S2LhWdlOOTxC+39ZWLY0R5N+6ImIna
4usWBgBjm1Kq+/NN8wyW2ELlQK16LMYYQ7dt+EpFGh9tPQXk+kGPD9087EUN/H1J
QpNN8QizIEeW4J6zrvpq0F8WKhNPwW2LnEW56+krsYam8f8iCqDA/SGHKw+3uXJA
+G0FIynyPESjJ8+hR4wE/wmO4g==
-----END CERTIFICATE-----
