Certificate:
    Data:
        Version: 3 (0x2)
        Serial Number: 11042563100196 (0xa0b0c0d0e24)
    Signature Algorithm: sha256WithRSAEncryption
        Issuer: CN=GOACA_CA, C=IN, O=CITRIX, OU=ANG, ST=KA/emailAddress=GOACA_CA@GOACA_mail.com
        Validity
            Not Before: Jul  8 04:34:58 2016 GMT
            Not After : Jul  6 04:34:58 2026 GMT
        Subject: ST=KA, C=IN, CN=122_GOACA_server/emailAddress=122_GOACA@test_ca.com, O=CITRIX
        Subject Public Key Info:
            Public Key Algorithm: rsaEncryption
                Public-Key: (2048 bit)
                Modulus:
                    00:df:22:51:d2:af:47:6c:6f:74:75:1b:b3:d5:fb:
                    37:03:48:89:27:ce:62:90:02:89:89:c6:bb:79:fd:
                    be:aa:17:32:3e:2e:b7:dc:55:98:41:20:54:a2:f3:
                    26:8e:f7:25:45:dd:7a:25:fe:de:56:ed:8f:33:2a:
                    57:15:27:ea:a1:67:e8:a6:10:ab:b2:a3:93:e2:0c:
                    2f:16:14:2e:fa:7a:78:10:52:77:82:24:86:66:42:
                    7c:11:48:4b:ad:91:3b:67:ed:55:9c:8b:59:07:eb:
                    03:79:18:70:bb:80:66:7b:50:c1:40:e5:df:51:e5:
                    96:bb:ed:0c:d4:3d:29:e0:19:04:3f:ce:1e:16:fb:
                    ba:22:d4:e0:13:d5:df:d4:bf:7d:26:3f:96:10:2e:
                    5d:20:bd:9d:7c:2a:ac:a4:38:31:ba:7f:19:15:fa:
                    60:86:b3:99:06:3d:75:6c:f8:f7:35:ad:58:6f:bd:
                    1b:c7:44:83:00:89:9d:3c:9c:98:17:f3:94:e4:f4:
                    dd:aa:1c:b0:4b:9d:35:ef:7e:f2:64:5b:e1:cc:60:
                    07:17:5d:27:e5:85:bc:92:8f:27:bd:4f:47:af:00:
                    1f:f1:93:9e:21:cb:7d:2f:80:34:eb:4c:46:14:9f:
                    ce:72:2e:f2:d2:1c:a2:e5:e6:4e:82:29:16:c7:6b:
                    ca:7d
                Exponent: 65537 (0x10001)
        X509v3 extensions:
            Netscape Cert Type: 
                SSL Server
            X509v3 Subject Key Identifier: 
                D4:D0:C1:D7:6D:90:D6:09:CC:47:FC:2A:E7:C3:C5:BA:03:42:9D:13
            X509v3 Authority Key Identifier: 
                keyid:81:03:00:D4:DC:70:D9:A7:03:08:1E:DC:9B:4C:AC:E6:59:CD:39:68
                DirName:/CN=GOACA_CA/C=IN/O=CITRIX/OU=ANG/ST=KA/emailAddress=GOACA_CA@GOACA_mail.com
                serial:FC:8B:0A:90:01:17:5F:1C

            Authority Information Access: 
                OCSP - URI:http://172.21.10.1/responderpath

    Signature Algorithm: sha256WithRSAEncryption
         c9:d1:62:aa:73:bd:a9:ee:a9:e2:e3:f4:05:c9:9c:c0:aa:e1:
         ab:38:c8:76:96:a1:bc:5b:f7:8a:31:6d:d0:c9:e8:75:e0:e6:
         d2:b2:81:49:dc:9c:52:28:6d:1f:e8:c9:32:a3:da:25:cf:ee:
         f8:7c:5f:c1:1d:a4:33:57:b9:07:de:aa:05:40:e3:e5:87:50:
         f7:a7:ed:cf:6f:18:c7:9a:fa:54:4d:47:5c:90:03:fa:ae:86:
         8d:71:6b:ec:fb:f9:06:3b:76:e0:ae:eb:08:7f:5a:a6:e8:cb:
         ff:19:e0:05:ca:af:ed:4c:e2:5e:29:67:2e:b8:45:17:71:0a:
         16:83:ab:1f:f7:eb:c4:69:38:29:0b:3c:8d:c8:f8:76:4d:5f:
         64:6c:d7:58:dd:67:fd:48:12:da:0b:90:f5:09:ca:b2:83:b7:
         ef:8f:96:a1:4f:d5:13:91:bd:e7:e2:f3:a3:11:2d:1d:42:b4:
         3e:5b:c4:dc:2a:59:ff:f6:d5:9a:a8:56:54:4c:51:97:b4:c1:
         5a:f5:7c:db:6f:62:74:45:52:43:d6:4f:f5:69:7b:2e:89:14:
         4c:b8:db:1f:16:96:70:a1:5b:14:08:2d:3f:20:82:da:32:84:
         e8:c4:f2:e4:2c:fa:64:26:11:e7:ce:65:3c:f0:0d:a4:2b:02:
         a2:95:ba:96
-----BEGIN CERTIFICATE-----
MIIEfzCCA2egAwIBAgIGCgsMDQ4kMA0GCSqGSIb3DQEBCwUAMHQxETAPBgNVBAMU
CEdPQUNBX0NBMQswCQYDVQQGEwJJTjEPMA0GA1UEChMGQ0lUUklYMQwwCgYDVQQL
EwNBTkcxCzAJBgNVBAgTAktBMSYwJAYJKoZIhvcNAQkBFhdHT0FDQV9DQUBHT0FD
QV9tYWlsLmNvbTAeFw0xNjA3MDgwNDM0NThaFw0yNjA3MDYwNDM0NThaMGwxCzAJ
BgNVBAgTAktBMQswCQYDVQQGEwJJTjEZMBcGA1UEAxQQMTIyX0dPQUNBX3NlcnZl
cjEkMCIGCSqGSIb3DQEJARYVMTIyX0dPQUNBQHRlc3RfY2EuY29tMQ8wDQYDVQQK
EwZDSVRSSVgwggEiMA0GCSqGSIb3DQEBAQUAA4IBDwAwggEKAoIBAQDfIlHSr0ds
b3R1G7PV+zcDSIknzmKQAomJxrt5/b6qFzI+LrfcVZhBIFSi8yaO9yVF3Xol/t5W
7Y8zKlcVJ+qhZ+imEKuyo5PiDC8WFC76engQUneCJIZmQnwRSEutkTtn7VWci1kH
6wN5GHC7gGZ7UMFA5d9R5Za77QzUPSngGQQ/zh4W+7oi1OAT1d/Uv30mP5YQLl0g
vZ18KqykODG6fxkV+mCGs5kGPXVs+Pc1rVhvvRvHRIMAiZ08nJgX85Tk9N2qHLBL
nTXvfvJkW+HMYAcXXSflhbySjye9T0evAB/xk54hy30vgDTrTEYUn85yLvLSHKLl
5k6CKRbHa8p9AgMBAAGjggEdMIIBGTARBglghkgBhvhCAQEEBAMCBkAwHQYDVR0O
BBYEFNTQwddtkNYJzEf8KufDxboDQp0TMIGmBgNVHSMEgZ4wgZuAFIEDANTccNmn
Awge3JtMrOZZzTlooXikdjB0MREwDwYDVQQDFAhHT0FDQV9DQTELMAkGA1UEBhMC
SU4xDzANBgNVBAoTBkNJVFJJWDEMMAoGA1UECxMDQU5HMQswCQYDVQQIEwJLQTEm
MCQGCSqGSIb3DQEJARYXR09BQ0FfQ0FAR09BQ0FfbWFpbC5jb22CCQD8iwqQARdf
HDA8BggrBgEFBQcBAQQwMC4wLAYIKwYBBQUHMAGGIGh0dHA6Ly8xNzIuMjEuMTAu
MS9yZXNwb25kZXJwYXRoMA0GCSqGSIb3DQEBCwUAA4IBAQDJ0WKqc72p7qni4/QF
yZzAquGrOMh2lqG8W/eKMW3Qyeh14ObSsoFJ3JxSKG0f6Mkyo9olz+74fF/BHaQz
V7kH3qoFQOPlh1D3p+3PbxjHmvpUTUdckAP6roaNcWvs+/kGO3bgrusIf1qm6Mv/
GeAFyq/tTOJeKWcuuEUXcQoWg6sf9+vEaTgpCzyNyPh2TV9kbNdY3Wf9SBLaC5D1
Ccqyg7fvj5ahT9UTkb3n4vOjES0dQrQ+W8TcKln/9tWaqFZUTFGXtMFa9Xzbb2J0
RVJD1k/1aXsuiRRMuNsfFpZwoVsUCC0/IILaMoToxPLkLPpkJhHnzmU88A2kKwKi
lbqW
-----END CERTIFICATE-----
