Certificate:
    Data:
        Version: 3 (0x2)
        Serial Number: 11042563100196 (0xa0b0c0d0e24)
    Signature Algorithm: sha256WithRSAEncryption
        Issuer: CN=CALCUTTACA_CA, C=IN, O=CITRIX, OU=ANG, ST=KA/emailAddress=CALCUTTACA_CA@CALCUTTACA_mail.com
        Validity
            Not Before: Jul  8 04:33:09 2016 GMT
            Not After : Jul  6 04:33:09 2026 GMT
        Subject: ST=KA, C=IN, CN=122_CALCUTTACA_server/emailAddress=122_CALCUTTACA@test_ca.com, O=CITRIX
        Subject Public Key Info:
            Public Key Algorithm: rsaEncryption
                Public-Key: (2048 bit)
                Modulus:
                    00:d2:5a:1a:3c:af:6a:04:4f:a9:20:bd:13:c4:44:
                    6d:c2:d6:01:11:60:76:79:14:f2:e9:66:e3:6e:d8:
                    79:e7:3f:50:bc:75:2a:5d:a3:8e:49:2b:d6:21:12:
                    ec:e3:c0:70:5f:2e:c9:6b:74:a7:86:ba:30:23:06:
                    3f:ec:02:e2:f8:2c:69:b3:23:21:3b:0b:70:53:af:
                    8c:bb:5b:13:e4:de:e3:c3:a7:f4:68:54:84:7b:c2:
                    aa:6a:1f:75:11:bb:d4:3d:ab:5e:87:82:74:37:a5:
                    4c:b9:be:37:fa:e1:f7:93:82:88:80:00:9d:50:b9:
                    35:a1:c6:31:6d:ad:10:a6:37:50:6a:c3:95:31:cf:
                    00:d0:d3:35:b3:0b:f8:d9:4e:98:57:6b:2f:93:37:
                    69:c3:42:06:c7:ee:8e:9d:5d:c2:b0:65:0a:74:63:
                    ad:93:52:60:a2:f6:c2:a9:ec:30:d6:ed:d2:e5:2d:
                    47:4e:a3:3b:4a:e3:57:db:71:f2:8a:3b:75:0e:4c:
                    3f:58:7f:14:9c:eb:65:de:67:6d:cb:8e:38:5d:5b:
                    da:6b:bd:c4:7c:97:13:9b:18:6e:c8:9a:53:39:a4:
                    6b:65:14:b7:11:d4:fd:cf:4b:f4:11:e9:86:72:16:
                    74:eb:3c:7e:d7:4e:ce:e5:f1:47:bc:54:fd:46:65:
                    e8:61
                Exponent: 65537 (0x10001)
        X509v3 extensions:
            Netscape Cert Type: 
                SSL Server
            X509v3 Subject Key Identifier: 
                37:FB:60:8D:DF:43:B0:64:87:6C:80:1B:36:4B:B2:48:92:26:DD:11
            X509v3 Authority Key Identifier: 
                keyid:37:2E:7B:27:46:4B:CF:47:10:AC:2B:2E:BA:D0:F3:66:75:EB:52:75
                DirName:/CN=CALCUTTACA_CA/C=IN/O=CITRIX/OU=ANG/ST=KA/emailAddress=CALCUTTACA_CA@CALCUTTACA_mail.com
                serial:A5:C6:47:0E:E6:06:37:18

            Authority Information Access: 
                OCSP - URI:http://172.18.10.1/responderpath

    Signature Algorithm: sha256WithRSAEncryption
         60:53:16:57:51:5e:07:35:0f:6f:7e:42:58:11:89:dc:e1:d9:
         de:ae:32:d6:76:27:c1:23:9c:b0:60:c4:0d:1d:0f:2f:ef:60:
         d0:c1:a4:90:dc:c5:42:6d:37:f9:6e:c8:7e:d4:9b:e6:dc:ef:
         c9:b8:e8:7d:e1:a1:bc:ba:e6:10:c9:4e:20:71:c7:c7:b3:53:
         8d:fc:96:42:f0:d4:33:7c:aa:30:c2:a0:00:01:4e:86:5e:4c:
         b0:e1:c5:49:8f:39:1e:cd:64:bf:44:43:ab:c9:33:dd:1c:38:
         65:84:04:c8:6c:74:93:53:20:4e:f4:3c:73:e8:9c:da:7c:ee:
         ef:b2:7e:c5:86:45:40:4f:59:24:c1:f2:6f:cf:6c:6b:56:3b:
         34:07:d6:a7:8c:a5:d6:6f:2e:46:58:05:82:ab:02:98:ff:c4:
         a1:57:4a:67:9e:74:f1:0c:dc:cf:ae:77:8a:df:3e:a0:70:e9:
         88:21:00:49:d4:19:62:fc:80:11:cc:83:ec:a7:d9:a5:b8:8c:
         34:47:af:07:38:0c:98:b6:b6:0a:82:1c:eb:2a:f4:af:9b:94:
         c1:c8:9e:20:00:f5:2a:79:89:45:c4:0c:ed:a0:8b:61:ce:4d:
         a6:08:fb:6b:c2:64:3b:24:18:a3:99:3b:8e:cd:3f:3e:2a:c6:
         db:ef:b7:ac
-----BEGIN CERTIFICATE-----
MIIEqzCCA5OgAwIBAgIGCgsMDQ4kMA0GCSqGSIb3DQEBCwUAMIGDMRYwFAYDVQQD
FA1DQUxDVVRUQUNBX0NBMQswCQYDVQQGEwJJTjEPMA0GA1UEChMGQ0lUUklYMQww
CgYDVQQLEwNBTkcxCzAJBgNVBAgTAktBMTAwLgYJKoZIhvcNAQkBFiFDQUxDVVRU
QUNBX0NBQENBTENVVFRBQ0FfbWFpbC5jb20wHhcNMTYwNzA4MDQzMzA5WhcNMjYw
NzA2MDQzMzA5WjB2MQswCQYDVQQIEwJLQTELMAkGA1UEBhMCSU4xHjAcBgNVBAMU
FTEyMl9DQUxDVVRUQUNBX3NlcnZlcjEpMCcGCSqGSIb3DQEJARYaMTIyX0NBTENV
VFRBQ0FAdGVzdF9jYS5jb20xDzANBgNVBAoTBkNJVFJJWDCCASIwDQYJKoZIhvcN
AQEBBQADggEPADCCAQoCggEBANJaGjyvagRPqSC9E8REbcLWARFgdnkU8ulm427Y
eec/ULx1Kl2jjkkr1iES7OPAcF8uyWt0p4a6MCMGP+wC4vgsabMjITsLcFOvjLtb
E+Te48On9GhUhHvCqmofdRG71D2rXoeCdDelTLm+N/rh95OCiIAAnVC5NaHGMW2t
EKY3UGrDlTHPANDTNbML+NlOmFdrL5M3acNCBsfujp1dwrBlCnRjrZNSYKL2wqns
MNbt0uUtR06jO0rjV9tx8oo7dQ5MP1h/FJzrZd5nbcuOOF1b2mu9xHyXE5sYbsia
Uzmka2UUtxHU/c9L9BHphnIWdOs8ftdOzuXxR7xU/UZl6GECAwEAAaOCAS8wggEr
MBEGCWCGSAGG+EIBAQQEAwIGQDAdBgNVHQ4EFgQUN/tgjd9DsGSHbIAbNkuySJIm
3REwgbgGA1UdIwSBsDCBrYAUNy57J0ZLz0cQrCsuutDzZnXrUnWhgYmkgYYwgYMx
FjAUBgNVBAMUDUNBTENVVFRBQ0FfQ0ExCzAJBgNVBAYTAklOMQ8wDQYDVQQKEwZD
SVRSSVgxDDAKBgNVBAsTA0FORzELMAkGA1UECBMCS0ExMDAuBgkqhkiG9w0BCQEW
IUNBTENVVFRBQ0FfQ0FAQ0FMQ1VUVEFDQV9tYWlsLmNvbYIJAKXGRw7mBjcYMDwG
CCsGAQUFBwEBBDAwLjAsBggrBgEFBQcwAYYgaHR0cDovLzE3Mi4xOC4xMC4xL3Jl
c3BvbmRlcnBhdGgwDQYJKoZIhvcNAQELBQADggEBAGBTFldRXgc1D29+QlgRidzh
2d6uMtZ2J8EjnLBgxA0dDy/vYNDBpJDcxUJtN/luyH7Um+bc78m46H3hoby65hDJ
TiBxx8ezU438lkLw1DN8qjDCoAABToZeTLDhxUmPOR7NZL9EQ6vJM90cOGWEBMhs
dJNTIE70PHPonNp87u+yfsWGRUBPWSTB8m/PbGtWOzQH1qeMpdZvLkZYBYKrApj/
xKFXSmeedPEM3M+ud4rfPqBw6YghAEnUGWL8gBHMg+yn2aW4jDRHrwc4DJi2tgqC
HOsq9K+blMHIniAA9Sp5iUXEDO2gi2HOTaYI+2vCZDskGKOZO47NPz4qxtvvt6w=
-----END CERTIFICATE-----
