Certificate:
    Data:
        Version: 3 (0x2)
        Serial Number: 11042563100196 (0xa0b0c0d0e24)
    Signature Algorithm: sha256WithRSAEncryption
        Issuer: CN=CHENNAICA_CA, C=IN, O=CITRIX, OU=ANG, ST=KA/emailAddress=CHENNAICA_CA@CHENNAICA_mail.com
        Validity
            Not Before: Jul  8 04:33:54 2016 GMT
            Not After : Jul  6 04:33:54 2026 GMT
        Subject: ST=KA, C=IN, CN=122_CHENNAICA_server/emailAddress=122_CHENNAICA@test_ca.com, O=CITRIX
        Subject Public Key Info:
            Public Key Algorithm: rsaEncryption
                Public-Key: (2048 bit)
                Modulus:
                    00:ab:62:b3:fb:da:1a:30:d4:e9:a7:33:04:91:4f:
                    af:e1:35:a8:68:49:23:2a:ff:a2:47:23:c0:d5:4a:
                    c1:e8:29:e6:cf:bc:40:50:27:f8:e7:ad:69:e0:6b:
                    dd:bd:53:67:4b:23:6f:ba:6e:4f:5c:1c:88:a0:83:
                    e8:0d:f9:34:25:4f:1f:1a:29:d7:60:22:04:1a:05:
                    ee:5e:d1:ee:b3:da:07:c5:5f:9f:e3:61:d1:fc:ab:
                    32:74:44:aa:5a:1b:29:7c:e6:07:32:fa:a5:5c:ac:
                    3b:5b:a1:b7:9c:ed:3f:32:77:1d:36:e6:f8:b3:89:
                    42:11:50:73:cb:76:c9:bb:28:20:d5:55:04:73:55:
                    74:82:00:8c:08:c6:86:12:4a:4c:21:a4:fc:6c:8a:
                    ef:24:58:2a:20:ae:50:60:71:4e:ed:96:12:5f:84:
                    16:55:d9:08:e0:9a:9c:3d:33:88:d1:48:1f:c5:7b:
                    b9:97:fe:a8:c9:bc:de:6e:f5:d8:d2:31:46:ce:b2:
                    9c:ea:6c:c4:49:bc:0d:67:e4:5a:5c:a7:04:fb:0f:
                    08:0b:b5:ea:90:73:da:53:66:5e:70:f4:78:c5:1a:
                    aa:ea:f0:46:3b:07:13:1f:84:26:c7:ad:97:7c:43:
                    2b:eb:a6:0e:50:3a:93:7e:d9:1a:44:01:75:98:5c:
                    fa:0d
                Exponent: 65537 (0x10001)
        X509v3 extensions:
            Netscape Cert Type: 
                SSL Server
            X509v3 Subject Key Identifier: 
                A0:12:A9:97:34:95:DB:EE:29:D5:E7:68:7A:67:2D:4C:32:98:1B:A8
            X509v3 Authority Key Identifier: 
                keyid:BE:CA:53:AC:65:89:18:02:1E:F6:53:A2:50:12:94:60:EC:CC:05:FA
                DirName:/CN=CHENNAICA_CA/C=IN/O=CITRIX/OU=ANG/ST=KA/emailAddress=CHENNAICA_CA@CHENNAICA_mail.com
                serial:87:FB:C4:D4:5E:46:56:70

            Authority Information Access: 
                OCSP - URI:http://172.19.10.1/responderpath

    Signature Algorithm: sha256WithRSAEncryption
         b0:f6:13:d8:66:33:7c:2f:b7:5e:69:f0:8f:93:de:d1:63:0c:
         e0:ea:08:02:b8:2c:00:bf:08:ae:6a:41:05:a4:9c:a6:bc:eb:
         77:16:ab:cb:3f:28:56:8a:90:01:66:12:57:e8:b4:dc:23:3a:
         19:cb:ae:ff:50:b1:ab:6d:ea:98:51:8c:45:5f:4f:3d:91:ea:
         09:77:bf:7d:ec:0e:d7:38:e2:d5:f5:e2:a7:08:78:87:e9:80:
         f4:79:b3:c1:21:60:fc:c7:08:05:24:1c:40:7c:09:cf:2f:07:
         91:9c:25:a7:08:99:a4:e7:d8:87:b3:70:c8:66:74:9a:1c:c7:
         07:ce:d8:d1:ba:35:8f:73:9d:44:43:e4:e8:b0:29:cf:dd:b3:
         ac:b8:c3:1f:6c:06:39:9f:29:8e:20:4b:e4:8a:b5:dc:59:7e:
         22:b8:ef:3b:3a:08:c3:e3:ae:28:7b:23:eb:f4:b7:c1:c6:4c:
         ae:d4:71:05:a8:13:bf:8f:4c:a2:7c:5f:d7:a5:0c:41:ac:4f:
         34:5d:0e:3a:df:77:fb:75:8b:97:2a:6b:84:f1:86:c5:71:aa:
         3d:7f:a7:62:b9:6f:24:88:ab:ed:83:34:2c:9c:71:a4:87:e8:
         c8:fe:c0:e0:a4:b1:36:02:be:79:29:86:68:c9:8d:d4:aa:13:
         10:c1:b8:ef
-----BEGIN CERTIFICATE-----
MIIEozCCA4ugAwIBAgIGCgsMDQ4kMA0GCSqGSIb3DQEBCwUAMIGAMRUwEwYDVQQD
FAxDSEVOTkFJQ0FfQ0ExCzAJBgNVBAYTAklOMQ8wDQYDVQQKEwZDSVRSSVgxDDAK
BgNVBAsTA0FORzELMAkGA1UECBMCS0ExLjAsBgkqhkiG9w0BCQEWH0NIRU5OQUlD
QV9DQUBDSEVOTkFJQ0FfbWFpbC5jb20wHhcNMTYwNzA4MDQzMzU0WhcNMjYwNzA2
MDQzMzU0WjB0MQswCQYDVQQIEwJLQTELMAkGA1UEBhMCSU4xHTAbBgNVBAMUFDEy
Ml9DSEVOTkFJQ0Ffc2VydmVyMSgwJgYJKoZIhvcNAQkBFhkxMjJfQ0hFTk5BSUNB
QHRlc3RfY2EuY29tMQ8wDQYDVQQKEwZDSVRSSVgwggEiMA0GCSqGSIb3DQEBAQUA
A4IBDwAwggEKAoIBAQCrYrP72how1OmnMwSRT6/hNahoSSMq/6JHI8DVSsHoKebP
vEBQJ/jnrWnga929U2dLI2+6bk9cHIigg+gN+TQlTx8aKddgIgQaBe5e0e6z2gfF
X5/jYdH8qzJ0RKpaGyl85gcy+qVcrDtbobec7T8ydx025viziUIRUHPLdsm7KCDV
VQRzVXSCAIwIxoYSSkwhpPxsiu8kWCogrlBgcU7tlhJfhBZV2Qjgmpw9M4jRSB/F
e7mX/qjJvN5u9djSMUbOspzqbMRJvA1n5FpcpwT7DwgLteqQc9pTZl5w9HjFGqrq
8EY7BxMfhCbHrZd8Qyvrpg5QOpN+2RpEAXWYXPoNAgMBAAGjggEsMIIBKDARBglg
hkgBhvhCAQEEBAMCBkAwHQYDVR0OBBYEFKASqZc0ldvuKdXnaHpnLUwymBuoMIG1
BgNVHSMEga0wgaqAFL7KU6xliRgCHvZTolASlGDszAX6oYGGpIGDMIGAMRUwEwYD
VQQDFAxDSEVOTkFJQ0FfQ0ExCzAJBgNVBAYTAklOMQ8wDQYDVQQKEwZDSVRSSVgx
DDAKBgNVBAsTA0FORzELMAkGA1UECBMCS0ExLjAsBgkqhkiG9w0BCQEWH0NIRU5O
QUlDQV9DQUBDSEVOTkFJQ0FfbWFpbC5jb22CCQCH+8TUXkZWcDA8BggrBgEFBQcB
AQQwMC4wLAYIKwYBBQUHMAGGIGh0dHA6Ly8xNzIuMTkuMTAuMS9yZXNwb25kZXJw
YXRoMA0GCSqGSIb3DQEBCwUAA4IBAQCw9hPYZjN8L7deafCPk97RYwzg6ggCuCwA
vwiuakEFpJymvOt3FqvLPyhWipABZhJX6LTcIzoZy67/ULGrbeqYUYxFX089keoJ
d7997A7XOOLV9eKnCHiH6YD0ebPBIWD8xwgFJBxAfAnPLweRnCWnCJmk59iHs3DI
ZnSaHMcHztjRujWPc51EQ+TosCnP3bOsuMMfbAY5nymOIEvkirXcWX4iuO87OgjD
464oeyPr9LfBxkyu1HEFqBO/j0yifF/XpQxBrE80XQ4633f7dYuXKmuE8YbFcao9
f6diuW8kiKvtgzQsnHGkh+jI/sDgpLE2Ar55KYZoyY3UqhMQwbjv
-----END CERTIFICATE-----
