Certificate:
    Data:
        Version: 3 (0x2)
        Serial Number: 11042563100197 (0xa0b0c0d0e25)
    Signature Algorithm: sha256WithRSAEncryption
        Issuer: CN=CALCUTTACA_CA, C=IN, O=CITRIX, OU=ANG, ST=KA/emailAddress=CALCUTTACA_CA@CALCUTTACA_mail.com
        Validity
            Not Before: Jul  8 04:33:09 2016 GMT
            Not After : Jul  6 04:33:09 2026 GMT
        Subject: ST=KA, C=IN, CN=123_CALCUTTACA_server/emailAddress=123_CALCUTTACA@test_ca.com, O=CITRIX
        Subject Public Key Info:
            Public Key Algorithm: rsaEncryption
                Public-Key: (2048 bit)
                Modulus:
                    00:ab:94:c1:3e:48:16:e7:9c:69:11:77:15:6a:8c:
                    2e:12:b9:f8:e0:b6:2a:9f:10:c9:00:19:e0:83:07:
                    9a:18:a2:a2:1a:6c:ed:36:f4:5f:78:d0:13:80:27:
                    86:1d:4a:5b:74:4c:b1:27:31:8c:6b:78:98:43:e5:
                    5c:ba:32:e8:f7:04:90:c0:88:5f:f9:0f:24:3f:9a:
                    70:64:76:9d:02:cc:fa:74:e4:f8:5c:a9:bb:e7:9b:
                    73:0b:23:a2:f4:c7:d8:e2:48:23:15:9e:10:1f:d7:
                    8c:0d:96:40:8f:da:8c:83:cd:5d:2d:4e:c9:0b:eb:
                    70:83:a8:39:a1:ef:50:e3:b9:f2:e2:38:fc:6d:cd:
                    df:b3:95:9b:67:da:3b:03:7a:e2:26:0c:9d:c0:57:
                    12:06:45:73:de:62:4e:43:dc:7c:cf:2e:f7:ed:f8:
                    89:5b:3f:a4:e7:7c:2c:c9:df:58:c3:b1:87:18:cf:
                    1f:a7:7a:73:53:02:0a:ee:95:72:a0:73:49:23:7c:
                    ff:16:0b:96:fb:a4:64:9a:35:e7:0d:31:05:85:97:
                    c3:58:80:0f:c1:2f:c0:e6:8b:c3:b0:eb:e4:63:5f:
                    b6:b5:a7:87:8f:33:58:c9:09:e1:7c:95:9d:39:cc:
                    ed:31:75:d1:6f:10:9b:b3:a7:8a:27:35:74:9f:62:
                    07:25
                Exponent: 65537 (0x10001)
        X509v3 extensions:
            Netscape Cert Type: 
                SSL Server
            X509v3 Subject Key Identifier: 
                2A:02:FC:58:AB:15:62:AD:99:7A:46:F5:72:59:BB:C4:A7:DC:56:1B
            X509v3 Authority Key Identifier: 
                keyid:37:2E:7B:27:46:4B:CF:47:10:AC:2B:2E:BA:D0:F3:66:75:EB:52:75
                DirName:/CN=CALCUTTACA_CA/C=IN/O=CITRIX/OU=ANG/ST=KA/emailAddress=CALCUTTACA_CA@CALCUTTACA_mail.com
                serial:A5:C6:47:0E:E6:06:37:18

            Authority Information Access: 
                OCSP - URI:http://172.18.10.1/responderpath

    Signature Algorithm: sha256WithRSAEncryption
         dd:e4:07:74:b9:12:ce:0f:57:9a:5e:1f:07:1c:ef:19:d9:db:
         0b:47:1f:d1:36:7a:8b:66:04:0a:8f:75:ee:76:32:c8:43:7c:
         ee:3e:26:81:74:f9:4c:6c:7f:a8:bd:33:a0:8d:af:1c:ac:6f:
         c7:72:ca:51:9f:0e:b4:39:46:da:ac:6f:86:ad:73:b3:65:ab:
         b1:33:65:09:41:ca:19:8c:9b:12:b5:d2:1a:fe:f5:19:b1:01:
         b9:e9:82:9f:c3:5b:57:39:14:5b:f3:21:3a:ee:9b:2e:ca:17:
         ba:8e:b9:68:3e:02:82:c2:54:31:e1:07:c0:fb:4a:fe:3f:4a:
         ee:d5:a2:28:91:48:93:b8:66:b1:7c:39:7f:4d:20:08:f2:ff:
         ae:6f:b6:c8:b3:86:0f:c7:44:ad:2d:91:5e:71:43:e0:f9:f3:
         33:e6:c9:7d:26:af:90:5c:e3:ce:66:aa:b3:2d:46:da:4c:65:
         99:fa:46:ed:7e:fb:9c:eb:8b:58:d4:06:a9:74:99:8f:23:0a:
         4d:cd:63:fa:c8:e7:31:17:52:ea:e1:61:92:a4:e4:da:8b:f3:
         55:d9:c7:69:c9:f3:de:57:91:d3:9f:20:2c:70:38:82:81:14:
         94:08:77:c3:37:b6:22:ec:4a:05:6c:eb:c0:ca:69:ee:f7:4f:
         57:fd:77:84
-----BEGIN CERTIFICATE-----
MIIEqzCCA5OgAwIBAgIGCgsMDQ4lMA0GCSqGSIb3DQEBCwUAMIGDMRYwFAYDVQQD
FA1DQUxDVVRUQUNBX0NBMQswCQYDVQQGEwJJTjEPMA0GA1UEChMGQ0lUUklYMQww
CgYDVQQLEwNBTkcxCzAJBgNVBAgTAktBMTAwLgYJKoZIhvcNAQkBFiFDQUxDVVRU
QUNBX0NBQENBTENVVFRBQ0FfbWFpbC5jb20wHhcNMTYwNzA4MDQzMzA5WhcNMjYw
NzA2MDQzMzA5WjB2MQswCQYDVQQIEwJLQTELMAkGA1UEBhMCSU4xHjAcBgNVBAMU
FTEyM19DQUxDVVRUQUNBX3NlcnZlcjEpMCcGCSqGSIb3DQEJARYaMTIzX0NBTENV
VFRBQ0FAdGVzdF9jYS5jb20xDzANBgNVBAoTBkNJVFJJWDCCASIwDQYJKoZIhvcN
AQEBBQADggEPADCCAQoCggEBAKuUwT5IFuecaRF3FWqMLhK5+OC2Kp8QyQAZ4IMH
mhiiohps7Tb0X3jQE4Anhh1KW3RMsScxjGt4mEPlXLoy6PcEkMCIX/kPJD+acGR2
nQLM+nTk+Fypu+ebcwsjovTH2OJIIxWeEB/XjA2WQI/ajIPNXS1OyQvrcIOoOaHv
UOO58uI4/G3N37OVm2faOwN64iYMncBXEgZFc95iTkPcfM8u9+34iVs/pOd8LMnf
WMOxhxjPH6d6c1MCCu6VcqBzSSN8/xYLlvukZJo15w0xBYWXw1iAD8EvwOaLw7Dr
5GNftrWnh48zWMkJ4XyVnTnM7TF10W8Qm7Oniic1dJ9iByUCAwEAAaOCAS8wggEr
MBEGCWCGSAGG+EIBAQQEAwIGQDAdBgNVHQ4EFgQUKgL8WKsVYq2Zekb1clm7xKfc
VhswgbgGA1UdIwSBsDCBrYAUNy57J0ZLz0cQrCsuutDzZnXrUnWhgYmkgYYwgYMx
FjAUBgNVBAMUDUNBTENVVFRBQ0FfQ0ExCzAJBgNVBAYTAklOMQ8wDQYDVQQKEwZD
SVRSSVgxDDAKBgNVBAsTA0FORzELMAkGA1UECBMCS0ExMDAuBgkqhkiG9w0BCQEW
IUNBTENVVFRBQ0FfQ0FAQ0FMQ1VUVEFDQV9tYWlsLmNvbYIJAKXGRw7mBjcYMDwG
CCsGAQUFBwEBBDAwLjAsBggrBgEFBQcwAYYgaHR0cDovLzE3Mi4xOC4xMC4xL3Jl
c3BvbmRlcnBhdGgwDQYJKoZIhvcNAQELBQADggEBAN3kB3S5Es4PV5peHwcc7xnZ
2wtHH9E2eotmBAqPde52MshDfO4+JoF0+Uxsf6i9M6CNrxysb8dyylGfDrQ5Rtqs
b4atc7Nlq7EzZQlByhmMmxK10hr+9RmxAbnpgp/DW1c5FFvzITrumy7KF7qOuWg+
AoLCVDHhB8D7Sv4/Su7VoiiRSJO4ZrF8OX9NIAjy/65vtsizhg/HRK0tkV5xQ+D5
8zPmyX0mr5Bc485mqrMtRtpMZZn6Ru1++5zri1jUBql0mY8jCk3NY/rI5zEXUurh
YZKk5NqL81XZx2nJ895XkdOfICxwOIKBFJQId8M3tiLsSgVs68DKae73T1f9d4Q=
-----END CERTIFICATE-----
