Certificate:
    Data:
        Version: 3 (0x2)
        Serial Number: 11042563100197 (0xa0b0c0d0e25)
    Signature Algorithm: sha256WithRSAEncryption
        Issuer: CN=DELHICA_CA, C=IN, O=CITRIX, OU=ANG, ST=KA/emailAddress=DELHICA_CA@DELHICA_mail.com
        Validity
            Not Before: Jul  8 04:34:28 2016 GMT
            Not After : Jul  6 04:34:28 2026 GMT
        Subject: ST=KA, C=IN, CN=123_DELHICA_server/emailAddress=123_DELHICA@test_ca.com, O=CITRIX
        Subject Public Key Info:
            Public Key Algorithm: rsaEncryption
                Public-Key: (2048 bit)
                Modulus:
                    00:a7:d2:9c:1f:2a:57:90:38:3a:99:bd:f0:a6:1b:
                    4b:37:c3:ee:1a:99:92:ab:a2:c8:f7:79:09:14:c4:
                    a9:45:f7:5b:de:a9:53:1b:b7:fb:03:2f:c6:c3:0b:
                    55:37:31:1b:20:ea:71:b5:17:b6:3c:dc:7c:93:58:
                    ba:ed:af:e6:6e:ce:6f:9a:15:b1:90:40:b6:ab:1b:
                    03:21:b0:4c:dd:3d:d1:5b:62:f3:33:27:44:03:ce:
                    ff:55:9b:f9:e1:ad:25:ab:02:5f:04:bf:33:4a:69:
                    a1:f0:65:f8:0f:71:68:d9:40:8f:af:8c:9b:a1:08:
                    b6:34:70:be:65:01:9d:9d:3d:ff:ec:93:05:4a:de:
                    32:a4:1b:26:12:c1:37:f7:74:3e:9a:1c:f9:ff:e1:
                    3f:b6:c5:76:73:37:f1:30:de:a7:1b:60:c0:a4:82:
                    46:c9:a9:f7:1b:e2:52:f4:b8:7b:a9:5a:c2:de:44:
                    97:8a:8b:98:46:5f:02:36:79:70:f7:36:49:8d:d6:
                    c1:f8:fb:e5:8b:ca:87:7f:ff:74:20:65:52:39:0d:
                    11:bf:78:dd:5e:5a:b7:3b:72:e8:6d:26:ca:a6:83:
                    21:ac:ca:e1:35:e3:80:81:54:a9:5d:00:88:ba:c5:
                    31:c8:a3:b5:ab:25:94:45:5f:20:f4:a4:18:78:5d:
                    a8:d1
                Exponent: 65537 (0x10001)
        X509v3 extensions:
            Netscape Cert Type: 
                SSL Server
            X509v3 Subject Key Identifier: 
                C1:8F:50:1C:B7:E9:F3:96:FF:8D:A7:BC:38:A6:E2:BF:99:6C:14:C4
            X509v3 Authority Key Identifier: 
                keyid:D7:37:52:01:DC:2C:7A:57:85:CA:30:39:30:F0:D5:5D:5A:31:03:02
                DirName:/CN=DELHICA_CA/C=IN/O=CITRIX/OU=ANG/ST=KA/emailAddress=DELHICA_CA@DELHICA_mail.com
                serial:94:59:DC:51:4E:A5:13:27

            Authority Information Access: 
                OCSP - URI:http://172.20.10.1/responderpath

    Signature Algorithm: sha256WithRSAEncryption
         7a:4b:66:bc:0c:6d:2d:2a:22:c7:1b:0b:b4:e6:5d:68:3b:f7:
         c0:01:36:39:d6:13:05:94:b3:8b:c6:af:a5:da:32:cd:9f:33:
         aa:c4:67:c4:d7:dc:74:86:a0:06:87:f6:da:5f:92:c5:7d:4f:
         91:a4:c8:39:21:e9:39:37:ee:ea:21:c4:72:f3:24:7a:79:6a:
         39:44:e3:4a:a9:62:47:9f:d7:bc:f0:f1:cc:26:93:6e:28:11:
         86:ab:e9:a8:32:09:ac:34:ae:28:ac:4c:37:a0:7b:b6:95:6f:
         f2:f4:a4:a3:2d:8b:49:12:d3:a5:f1:91:66:13:00:0d:1e:c4:
         c9:87:b4:23:34:c2:91:47:bd:e1:c1:bd:5b:e8:78:1e:72:de:
         a5:02:e5:91:48:66:19:bd:54:13:77:6e:f9:43:9a:ca:7b:39:
         de:b9:62:5c:b5:54:71:b8:59:a9:e3:23:01:47:2e:b2:b4:50:
         8d:be:a0:f9:79:aa:90:57:0b:79:81:77:15:8b:17:67:70:6e:
         18:3d:ac:0b:a3:97:4d:33:bb:f3:81:71:22:83:03:dd:a4:e3:
         3b:b8:95:14:7c:f8:b4:d2:64:c7:7f:f8:f2:b5:e5:d6:64:5b:
         27:2d:89:de:b3:7f:ef:d1:c5:22:21:c7:43:6e:84:48:00:3f:
         21:b9:22:2a
-----BEGIN CERTIFICATE-----
MIIEjzCCA3egAwIBAgIGCgsMDQ4lMA0GCSqGSIb3DQEBCwUAMHoxEzARBgNVBAMU
CkRFTEhJQ0FfQ0ExCzAJBgNVBAYTAklOMQ8wDQYDVQQKEwZDSVRSSVgxDDAKBgNV
BAsTA0FORzELMAkGA1UECBMCS0ExKjAoBgkqhkiG9w0BCQEWG0RFTEhJQ0FfQ0FA
REVMSElDQV9tYWlsLmNvbTAeFw0xNjA3MDgwNDM0MjhaFw0yNjA3MDYwNDM0Mjha
MHAxCzAJBgNVBAgTAktBMQswCQYDVQQGEwJJTjEbMBkGA1UEAxQSMTIzX0RFTEhJ
Q0Ffc2VydmVyMSYwJAYJKoZIhvcNAQkBFhcxMjNfREVMSElDQUB0ZXN0X2NhLmNv
bTEPMA0GA1UEChMGQ0lUUklYMIIBIjANBgkqhkiG9w0BAQEFAAOCAQ8AMIIBCgKC
AQEAp9KcHypXkDg6mb3wphtLN8PuGpmSq6LI93kJFMSpRfdb3qlTG7f7Ay/GwwtV
NzEbIOpxtRe2PNx8k1i67a/mbs5vmhWxkEC2qxsDIbBM3T3RW2LzMydEA87/VZv5
4a0lqwJfBL8zSmmh8GX4D3Fo2UCPr4yboQi2NHC+ZQGdnT3/7JMFSt4ypBsmEsE3
93Q+mhz5/+E/tsV2czfxMN6nG2DApIJGyan3G+JS9Lh7qVrC3kSXiouYRl8CNnlw
9zZJjdbB+Pvli8qHf/90IGVSOQ0Rv3jdXlq3O3LobSbKpoMhrMrhNeOAgVSpXQCI
usUxyKO1qyWURV8g9KQYeF2o0QIDAQABo4IBIzCCAR8wEQYJYIZIAYb4QgEBBAQD
AgZAMB0GA1UdDgQWBBTBj1Act+nzlv+Np7w4puK/mWwUxDCBrAYDVR0jBIGkMIGh
gBTXN1IB3Cx6V4XKMDkw8NVdWjEDAqF+pHwwejETMBEGA1UEAxQKREVMSElDQV9D
QTELMAkGA1UEBhMCSU4xDzANBgNVBAoTBkNJVFJJWDEMMAoGA1UECxMDQU5HMQsw
CQYDVQQIEwJLQTEqMCgGCSqGSIb3DQEJARYbREVMSElDQV9DQUBERUxISUNBX21h
aWwuY29tggkAlFncUU6lEycwPAYIKwYBBQUHAQEEMDAuMCwGCCsGAQUFBzABhiBo
dHRwOi8vMTcyLjIwLjEwLjEvcmVzcG9uZGVycGF0aDANBgkqhkiG9w0BAQsFAAOC
AQEAektmvAxtLSoixxsLtOZdaDv3wAE2OdYTBZSzi8avpdoyzZ8zqsRnxNfcdIag
Bof22l+SxX1PkaTIOSHpOTfu6iHEcvMkenlqOUTjSqliR5/XvPDxzCaTbigRhqvp
qDIJrDSuKKxMN6B7tpVv8vSkoy2LSRLTpfGRZhMADR7EyYe0IzTCkUe94cG9W+h4
HnLepQLlkUhmGb1UE3du+UOayns53rliXLVUcbhZqeMjAUcusrRQjb6g+XmqkFcL
eYF3FYsXZ3BuGD2sC6OXTTO784FxIoMD3aTjO7iVFHz4tNJkx3/48rXl1mRbJy2J
3rN/79HFIiHHQ26ESAA/IbkiKg==
-----END CERTIFICATE-----
