Certificate:
    Data:
        Version: 3 (0x2)
        Serial Number: 11042563100197 (0xa0b0c0d0e25)
    Signature Algorithm: sha256WithRSAEncryption
        Issuer: CN=KOCHICA_CA, C=IN, O=CITRIX, OU=ANG, ST=KA/emailAddress=KOCHICA_CA@KOCHICA_mail.com
        Validity
            Not Before: Jul  8 04:35:22 2016 GMT
            Not After : Jul  6 04:35:22 2026 GMT
        Subject: ST=KA, C=IN, CN=123_KOCHICA_server/emailAddress=123_KOCHICA@test_ca.com, O=CITRIX
        Subject Public Key Info:
            Public Key Algorithm: rsaEncryption
                Public-Key: (2048 bit)
                Modulus:
                    00:ab:10:94:e8:07:73:4b:48:77:80:04:5a:ec:cf:
                    eb:f1:80:2b:72:75:ba:48:2f:8d:c7:95:99:5c:fd:
                    e3:c6:86:79:d0:83:8b:63:f5:24:66:c8:f3:df:92:
                    b2:57:b9:1d:32:0a:b7:7a:03:f7:bb:84:8a:44:66:
                    8b:12:3e:18:f8:5f:77:35:2e:64:04:e0:48:b9:d5:
                    cc:6e:a9:6e:a3:e6:c4:4c:9f:9b:e1:fd:85:23:b7:
                    b4:3a:0a:4d:98:a3:18:8f:5e:b7:aa:d7:f2:4d:37:
                    67:48:ae:c4:16:01:d0:93:d4:a8:48:93:4b:56:67:
                    be:c4:7f:80:21:f9:b2:7d:93:70:6f:4d:7b:a0:4e:
                    af:d7:66:b6:8d:0b:2f:c8:1d:ef:d3:8a:ff:c4:c9:
                    30:ac:8a:85:57:4e:93:95:ac:dd:5e:1b:2c:aa:13:
                    84:c6:cc:e2:f3:f3:8c:13:98:49:eb:80:06:60:24:
                    4f:89:33:f5:0c:03:eb:e1:1f:00:bb:23:46:e5:73:
                    07:1b:f8:ac:1b:6f:1b:e9:31:aa:b1:49:57:30:10:
                    7c:52:92:af:06:bc:9c:a1:f6:19:d3:e5:be:ca:ba:
                    b7:8a:ef:79:a0:56:f3:23:63:fb:21:bb:15:a6:b1:
                    68:48:84:f1:44:05:0a:b4:8d:eb:b0:fb:18:bf:ce:
                    e7:b5
                Exponent: 65537 (0x10001)
        X509v3 extensions:
            Netscape Cert Type: 
                SSL Server
            X509v3 Subject Key Identifier: 
                01:E7:08:5E:83:61:40:52:F7:D8:3D:82:70:84:90:35:40:BB:5D:EC
            X509v3 Authority Key Identifier: 
                keyid:BD:BB:95:76:5C:F9:2D:21:29:42:22:FD:91:AF:B8:39:24:AA:7E:37
                DirName:/CN=KOCHICA_CA/C=IN/O=CITRIX/OU=ANG/ST=KA/emailAddress=KOCHICA_CA@KOCHICA_mail.com
                serial:E1:10:ED:B2:3C:3D:E3:71

            Authority Information Access: 
                OCSP - URI:http://172.22.10.1/responderpath

    Signature Algorithm: sha256WithRSAEncryption
         9c:a1:00:b5:11:0b:86:65:ab:37:1b:9a:48:ea:26:3d:0d:92:
         08:38:a9:c8:cc:ee:2f:d7:6a:49:b4:69:1a:09:88:42:73:fd:
         a4:f3:33:8d:cf:53:ca:5f:3f:31:d1:b6:cb:22:a0:7e:2a:a1:
         aa:28:16:62:c5:b2:03:41:73:1b:ef:a2:a2:c7:bd:e8:50:d6:
         69:e3:65:e8:ba:85:c5:7c:df:a9:bd:c8:cc:3d:9c:cc:ec:2f:
         4d:0a:3e:9c:b5:fb:bf:9b:65:75:f2:11:67:3a:93:93:5b:1a:
         5f:fa:3a:d9:8c:d6:94:d9:d6:0c:4e:36:cb:83:b7:58:b6:d5:
         c1:4e:91:3d:21:10:8d:70:a1:41:3e:90:27:ca:f3:33:2a:63:
         d7:cf:5c:00:71:83:ae:0f:c6:e9:88:4b:e8:6e:7d:3d:6f:a9:
         50:ec:ca:f2:92:7a:e5:5f:d6:8d:7e:d9:5e:81:fa:3e:5a:f6:
         45:53:f9:86:95:6f:28:b6:a4:68:63:f2:13:83:57:ee:98:8a:
         30:63:7b:16:03:2b:cc:bc:a1:67:ee:e0:f9:22:f3:0a:44:01:
         a7:70:f0:50:42:48:2c:94:5a:55:b5:e4:77:4a:2e:1b:69:09:
         a8:49:86:15:b4:73:7c:f3:64:bc:fc:f1:40:0c:f3:f9:03:eb:
         2d:b7:b1:dd
-----BEGIN CERTIFICATE-----
MIIEjzCCA3egAwIBAgIGCgsMDQ4lMA0GCSqGSIb3DQEBCwUAMHoxEzARBgNVBAMU
CktPQ0hJQ0FfQ0ExCzAJBgNVBAYTAklOMQ8wDQYDVQQKEwZDSVRSSVgxDDAKBgNV
BAsTA0FORzELMAkGA1UECBMCS0ExKjAoBgkqhkiG9w0BCQEWG0tPQ0hJQ0FfQ0FA
S09DSElDQV9tYWlsLmNvbTAeFw0xNjA3MDgwNDM1MjJaFw0yNjA3MDYwNDM1MjJa
MHAxCzAJBgNVBAgTAktBMQswCQYDVQQGEwJJTjEbMBkGA1UEAxQSMTIzX0tPQ0hJ
Q0Ffc2VydmVyMSYwJAYJKoZIhvcNAQkBFhcxMjNfS09DSElDQUB0ZXN0X2NhLmNv
bTEPMA0GA1UEChMGQ0lUUklYMIIBIjANBgkqhkiG9w0BAQEFAAOCAQ8AMIIBCgKC
AQEAqxCU6AdzS0h3gARa7M/r8YArcnW6SC+Nx5WZXP3jxoZ50IOLY/UkZsjz35Ky
V7kdMgq3egP3u4SKRGaLEj4Y+F93NS5kBOBIudXMbqluo+bETJ+b4f2FI7e0OgpN
mKMYj163qtfyTTdnSK7EFgHQk9SoSJNLVme+xH+AIfmyfZNwb017oE6v12a2jQsv
yB3v04r/xMkwrIqFV06TlazdXhssqhOExszi8/OME5hJ64AGYCRPiTP1DAPr4R8A
uyNG5XMHG/isG28b6TGqsUlXMBB8UpKvBrycofYZ0+W+yrq3iu95oFbzI2P7IbsV
prFoSITxRAUKtI3rsPsYv87ntQIDAQABo4IBIzCCAR8wEQYJYIZIAYb4QgEBBAQD
AgZAMB0GA1UdDgQWBBQB5wheg2FAUvfYPYJwhJA1QLtd7DCBrAYDVR0jBIGkMIGh
gBS9u5V2XPktISlCIv2Rr7g5JKp+N6F+pHwwejETMBEGA1UEAxQKS09DSElDQV9D
QTELMAkGA1UEBhMCSU4xDzANBgNVBAoTBkNJVFJJWDEMMAoGA1UECxMDQU5HMQsw
CQYDVQQIEwJLQTEqMCgGCSqGSIb3DQEJARYbS09DSElDQV9DQUBLT0NISUNBX21h
aWwuY29tggkA4RDtsjw943EwPAYIKwYBBQUHAQEEMDAuMCwGCCsGAQUFBzABhiBo
dHRwOi8vMTcyLjIyLjEwLjEvcmVzcG9uZGVycGF0aDANBgkqhkiG9w0BAQsFAAOC
AQEAnKEAtRELhmWrNxuaSOomPQ2SCDipyMzuL9dqSbRpGgmIQnP9pPMzjc9Tyl8/
MdG2yyKgfiqhqigWYsWyA0FzG++iose96FDWaeNl6LqFxXzfqb3IzD2czOwvTQo+
nLX7v5tldfIRZzqTk1saX/o62YzWlNnWDE42y4O3WLbVwU6RPSEQjXChQT6QJ8rz
Mypj189cAHGDrg/G6YhL6G59PW+pUOzK8pJ65V/WjX7ZXoH6Plr2RVP5hpVvKLak
aGPyE4NX7piKMGN7FgMrzLyhZ+7g+SLzCkQBp3DwUEJILJRaVbXkd0ouG2kJqEmG
FbRzfPNkvPzxQAzz+QPrLbex3Q==
-----END CERTIFICATE-----
