Certificate:
    Data:
        Version: 3 (0x2)
        Serial Number: 11042563100198 (0xa0b0c0d0e26)
    Signature Algorithm: sha256WithRSAEncryption
        Issuer: CN=KOCHICA_CA, C=IN, O=CITRIX, OU=ANG, ST=KA/emailAddress=KOCHICA_CA@KOCHICA_mail.com
        Validity
            Not Before: Jul  8 04:35:22 2016 GMT
            Not After : Jul  6 04:35:22 2026 GMT
        Subject: ST=KA, C=IN, CN=124_KOCHICA_server/emailAddress=124_KOCHICA@test_ca.com, O=CITRIX
        Subject Public Key Info:
            Public Key Algorithm: rsaEncryption
                Public-Key: (2048 bit)
                Modulus:
                    00:c4:d7:44:a0:45:6a:f2:7e:b4:4d:24:6c:c2:2f:
                    b0:e2:6b:14:ed:0f:dd:0a:b1:fa:27:31:87:6c:18:
                    9e:fb:77:2f:9e:53:2b:61:24:08:70:41:8d:e0:a6:
                    29:e3:fd:cc:20:54:4b:6e:22:e3:d7:4f:c4:03:ad:
                    12:f3:c5:ab:15:e1:34:b8:65:5d:8a:a0:1c:90:8f:
                    d6:f2:22:d3:42:1c:10:98:62:58:17:12:8e:5d:ab:
                    06:84:bd:f7:51:19:eb:d9:6a:51:7c:d7:e2:d0:93:
                    ea:d5:51:1d:58:13:10:16:77:cd:27:16:18:f9:ed:
                    b5:7d:b6:19:07:8e:96:67:fc:c5:c8:f7:fd:91:f3:
                    6b:41:ee:b8:97:38:5f:f6:d8:6d:6d:ed:b5:a4:04:
                    6f:a5:ef:af:de:25:cd:df:fa:4c:b6:28:30:9d:0c:
                    f9:c0:d2:c2:2e:1b:9e:44:e3:ea:2b:4d:27:ab:84:
                    77:c3:2a:77:56:e8:4f:64:4d:56:7b:a3:f8:c8:22:
                    c0:72:3d:7f:95:7a:7d:66:a8:13:91:72:12:b5:01:
                    da:18:c1:d0:10:77:21:29:c3:15:e5:05:30:0f:9c:
                    e2:56:7c:9f:fb:29:3d:18:df:83:60:44:ef:75:39:
                    ed:a5:2b:05:00:be:93:0f:2f:a8:64:55:e0:c0:09:
                    0c:15
                Exponent: 65537 (0x10001)
        X509v3 extensions:
            Netscape Cert Type: 
                SSL Server
            X509v3 Subject Key Identifier: 
                8D:60:1A:BE:BD:DF:19:3B:85:75:D4:28:34:F8:AF:A0:06:74:38:93
            X509v3 Authority Key Identifier: 
                keyid:BD:BB:95:76:5C:F9:2D:21:29:42:22:FD:91:AF:B8:39:24:AA:7E:37
                DirName:/CN=KOCHICA_CA/C=IN/O=CITRIX/OU=ANG/ST=KA/emailAddress=KOCHICA_CA@KOCHICA_mail.com
                serial:E1:10:ED:B2:3C:3D:E3:71

            Authority Information Access: 
                OCSP - URI:http://172.22.10.1/responderpath

    Signature Algorithm: sha256WithRSAEncryption
         96:a3:c6:b1:e1:ef:ed:cb:b1:8c:ce:41:49:1c:0a:6d:1d:d8:
         8a:be:d9:ff:57:4c:e9:8d:ff:0e:92:cd:26:bc:a5:25:36:ed:
         c9:51:19:a0:88:3e:74:99:ca:22:aa:de:d5:c9:22:89:59:41:
         f7:b6:22:08:11:22:31:b9:25:ff:ed:da:11:ed:52:0f:c8:72:
         0e:3f:bb:fa:0f:4c:0d:ed:27:cf:77:8d:2c:10:85:58:be:f8:
         e3:ab:03:ba:6a:e0:ad:14:42:7f:0b:ae:28:1e:e7:55:b9:6d:
         07:8e:a2:29:d0:8c:f5:e3:d6:f5:3c:75:af:ca:05:43:be:f1:
         88:8e:80:d1:b5:d1:34:94:0d:c7:d1:b2:1a:13:c4:0c:b3:7b:
         c8:98:7d:42:2d:46:74:8f:7b:41:0d:84:59:ee:e0:1e:46:74:
         89:b3:c8:a4:fb:32:e5:a5:04:1c:41:9a:d6:f7:36:a3:5b:89:
         bc:95:df:93:c8:0b:bf:b1:97:10:dc:26:96:39:87:6f:85:b2:
         3c:fe:67:db:2b:0c:b6:17:9b:be:f6:d4:6d:1d:14:b3:d1:fe:
         b2:9f:66:a9:96:11:b0:d0:df:ad:30:93:4c:84:08:1e:14:9b:
         51:49:56:ce:ed:1b:42:ae:ca:cd:18:46:00:43:51:ee:24:a4:
         d7:fd:7f:7e
-----BEGIN CERTIFICATE-----
MIIEjzCCA3egAwIBAgIGCgsMDQ4mMA0GCSqGSIb3DQEBCwUAMHoxEzARBgNVBAMU
CktPQ0hJQ0FfQ0ExCzAJBgNVBAYTAklOMQ8wDQYDVQQKEwZDSVRSSVgxDDAKBgNV
BAsTA0FORzELMAkGA1UECBMCS0ExKjAoBgkqhkiG9w0BCQEWG0tPQ0hJQ0FfQ0FA
S09DSElDQV9tYWlsLmNvbTAeFw0xNjA3MDgwNDM1MjJaFw0yNjA3MDYwNDM1MjJa
MHAxCzAJBgNVBAgTAktBMQswCQYDVQQGEwJJTjEbMBkGA1UEAxQSMTI0X0tPQ0hJ
Q0Ffc2VydmVyMSYwJAYJKoZIhvcNAQkBFhcxMjRfS09DSElDQUB0ZXN0X2NhLmNv
bTEPMA0GA1UEChMGQ0lUUklYMIIBIjANBgkqhkiG9w0BAQEFAAOCAQ8AMIIBCgKC
AQEAxNdEoEVq8n60TSRswi+w4msU7Q/dCrH6JzGHbBie+3cvnlMrYSQIcEGN4KYp
4/3MIFRLbiLj10/EA60S88WrFeE0uGVdiqAckI/W8iLTQhwQmGJYFxKOXasGhL33
URnr2WpRfNfi0JPq1VEdWBMQFnfNJxYY+e21fbYZB46WZ/zFyPf9kfNrQe64lzhf
9thtbe21pARvpe+v3iXN3/pMtigwnQz5wNLCLhueROPqK00nq4R3wyp3VuhPZE1W
e6P4yCLAcj1/lXp9ZqgTkXIStQHaGMHQEHchKcMV5QUwD5ziVnyf+yk9GN+DYETv
dTntpSsFAL6TDy+oZFXgwAkMFQIDAQABo4IBIzCCAR8wEQYJYIZIAYb4QgEBBAQD
AgZAMB0GA1UdDgQWBBSNYBq+vd8ZO4V11Cg0+K+gBnQ4kzCBrAYDVR0jBIGkMIGh
gBS9u5V2XPktISlCIv2Rr7g5JKp+N6F+pHwwejETMBEGA1UEAxQKS09DSElDQV9D
QTELMAkGA1UEBhMCSU4xDzANBgNVBAoTBkNJVFJJWDEMMAoGA1UECxMDQU5HMQsw
CQYDVQQIEwJLQTEqMCgGCSqGSIb3DQEJARYbS09DSElDQV9DQUBLT0NISUNBX21h
aWwuY29tggkA4RDtsjw943EwPAYIKwYBBQUHAQEEMDAuMCwGCCsGAQUFBzABhiBo
dHRwOi8vMTcyLjIyLjEwLjEvcmVzcG9uZGVycGF0aDANBgkqhkiG9w0BAQsFAAOC
AQEAlqPGseHv7cuxjM5BSRwKbR3Yir7Z/1dM6Y3/DpLNJrylJTbtyVEZoIg+dJnK
Iqre1ckiiVlB97YiCBEiMbkl/+3aEe1SD8hyDj+7+g9MDe0nz3eNLBCFWL7446sD
umrgrRRCfwuuKB7nVbltB46iKdCM9ePW9Tx1r8oFQ77xiI6A0bXRNJQNx9GyGhPE
DLN7yJh9Qi1GdI97QQ2EWe7gHkZ0ibPIpPsy5aUEHEGa1vc2o1uJvJXfk8gLv7GX
ENwmljmHb4WyPP5n2ysMthebvvbUbR0Us9H+sp9mqZYRsNDfrTCTTIQIHhSbUUlW
zu0bQq7KzRhGAENR7iSk1/1/fg==
-----END CERTIFICATE-----
