Certificate:
    Data:
        Version: 3 (0x2)
        Serial Number: 11042563100198 (0xa0b0c0d0e26)
    Signature Algorithm: sha256WithRSAEncryption
        Issuer: CN=CALCUTTACA_CA, C=IN, O=CITRIX, OU=ANG, ST=KA/emailAddress=CALCUTTACA_CA@CALCUTTACA_mail.com
        Validity
            Not Before: Jul  8 04:33:09 2016 GMT
            Not After : Jul  6 04:33:09 2026 GMT
        Subject: ST=KA, C=IN, CN=124_CALCUTTACA_server/emailAddress=124_CALCUTTACA@test_ca.com, O=CITRIX
        Subject Public Key Info:
            Public Key Algorithm: rsaEncryption
                Public-Key: (2048 bit)
                Modulus:
                    00:c7:48:5e:d0:af:67:0b:22:b2:26:94:5d:a9:2e:
                    37:28:76:05:b3:ab:0c:70:5c:a2:29:79:ee:f2:21:
                    a6:3e:ed:63:77:68:b4:f8:c7:c4:d1:24:26:a0:1c:
                    7d:b4:1c:0e:a4:f0:d1:26:ec:7e:c6:1a:bd:0b:30:
                    67:e6:4b:a8:e0:83:74:83:a6:30:ca:be:61:14:98:
                    7c:7f:48:7e:25:59:f2:f5:17:5e:31:aa:3b:53:38:
                    05:fd:fc:50:56:5c:38:3c:09:bd:38:5c:29:50:a6:
                    7e:7a:66:ee:36:15:ed:f1:f7:a5:6c:db:07:aa:fe:
                    12:91:26:42:2b:78:50:a2:e2:7d:e7:61:60:46:e7:
                    ca:39:7a:e3:d3:b9:82:ad:53:a2:ed:cd:d4:14:01:
                    51:e5:d8:81:eb:47:75:5c:a1:da:82:6c:8b:1f:97:
                    d4:34:71:3d:02:7e:4c:7f:4f:5a:43:74:37:6c:4e:
                    c2:5b:d5:0f:13:29:9b:c7:d5:25:28:98:1e:b2:14:
                    d7:59:3a:f7:e1:30:a3:ae:60:ab:d1:b5:52:08:c3:
                    49:38:19:05:ef:f7:fa:3e:84:b0:df:b0:a4:c1:e2:
                    cd:9c:fe:64:9e:49:af:23:9d:02:0a:8d:46:ce:18:
                    1f:ce:76:02:71:bc:9b:7a:f6:16:5c:e3:ca:fb:47:
                    61:d3
                Exponent: 65537 (0x10001)
        X509v3 extensions:
            Netscape Cert Type: 
                SSL Server
            X509v3 Subject Key Identifier: 
                0A:B5:D3:E9:6C:14:F6:DF:E6:E9:EA:61:A8:91:62:1F:A0:45:68:39
            X509v3 Authority Key Identifier: 
                keyid:37:2E:7B:27:46:4B:CF:47:10:AC:2B:2E:BA:D0:F3:66:75:EB:52:75
                DirName:/CN=CALCUTTACA_CA/C=IN/O=CITRIX/OU=ANG/ST=KA/emailAddress=CALCUTTACA_CA@CALCUTTACA_mail.com
                serial:A5:C6:47:0E:E6:06:37:18

            Authority Information Access: 
                OCSP - URI:http://172.18.10.1/responderpath

    Signature Algorithm: sha256WithRSAEncryption
         52:00:22:c0:05:88:68:18:98:99:6f:2a:35:8b:82:7a:43:b0:
         3e:7c:1c:68:32:06:53:27:63:0d:6f:bb:54:b5:e5:db:d7:50:
         93:54:c6:07:46:f7:07:0f:10:4c:20:e2:e9:90:69:96:25:d7:
         dc:9b:08:35:e6:7e:c1:02:eb:97:86:92:2f:8e:3d:9f:fa:05:
         c8:85:53:7e:5e:b2:38:b3:96:09:ef:b6:81:e9:e8:86:82:b0:
         15:3b:52:4d:0c:8f:43:d2:7e:ed:67:0d:19:f2:76:49:f2:a2:
         65:11:fb:6f:ce:3a:b1:a3:ed:9a:c2:b6:53:0f:66:b4:c2:7f:
         eb:7b:9e:5f:08:c3:cd:e1:11:ea:35:c0:c3:78:b4:2c:b9:6c:
         80:82:24:88:c3:56:1e:4c:8d:26:f8:8e:df:84:30:a1:63:e4:
         ca:f4:62:cc:59:96:dc:c3:4e:27:d4:cf:c2:f1:43:f3:6e:85:
         29:48:aa:df:42:87:21:62:46:e3:e6:94:90:6e:14:b4:f6:2f:
         45:39:a9:67:ca:3d:be:f4:43:07:4a:9c:db:b7:21:b3:fb:d8:
         c7:6a:09:f8:7b:d3:60:88:5d:66:9c:e5:0b:f3:7e:32:c8:43:
         09:77:ea:96:f6:67:7e:1c:b3:18:b4:47:ce:45:bc:ee:64:b2:
         98:29:54:98
-----BEGIN CERTIFICATE-----
MIIEqzCCA5OgAwIBAgIGCgsMDQ4mMA0GCSqGSIb3DQEBCwUAMIGDMRYwFAYDVQQD
FA1DQUxDVVRUQUNBX0NBMQswCQYDVQQGEwJJTjEPMA0GA1UEChMGQ0lUUklYMQww
CgYDVQQLEwNBTkcxCzAJBgNVBAgTAktBMTAwLgYJKoZIhvcNAQkBFiFDQUxDVVRU
QUNBX0NBQENBTENVVFRBQ0FfbWFpbC5jb20wHhcNMTYwNzA4MDQzMzA5WhcNMjYw
NzA2MDQzMzA5WjB2MQswCQYDVQQIEwJLQTELMAkGA1UEBhMCSU4xHjAcBgNVBAMU
FTEyNF9DQUxDVVRUQUNBX3NlcnZlcjEpMCcGCSqGSIb3DQEJARYaMTI0X0NBTENV
VFRBQ0FAdGVzdF9jYS5jb20xDzANBgNVBAoTBkNJVFJJWDCCASIwDQYJKoZIhvcN
AQEBBQADggEPADCCAQoCggEBAMdIXtCvZwsisiaUXakuNyh2BbOrDHBcoil57vIh
pj7tY3dotPjHxNEkJqAcfbQcDqTw0SbsfsYavQswZ+ZLqOCDdIOmMMq+YRSYfH9I
fiVZ8vUXXjGqO1M4Bf38UFZcODwJvThcKVCmfnpm7jYV7fH3pWzbB6r+EpEmQit4
UKLifedhYEbnyjl649O5gq1Tou3N1BQBUeXYgetHdVyh2oJsix+X1DRxPQJ+TH9P
WkN0N2xOwlvVDxMpm8fVJSiYHrIU11k69+Ewo65gq9G1UgjDSTgZBe/3+j6EsN+w
pMHizZz+ZJ5JryOdAgqNRs4YH852AnG8m3r2FlzjyvtHYdMCAwEAAaOCAS8wggEr
MBEGCWCGSAGG+EIBAQQEAwIGQDAdBgNVHQ4EFgQUCrXT6WwU9t/m6ephqJFiH6BF
aDkwgbgGA1UdIwSBsDCBrYAUNy57J0ZLz0cQrCsuutDzZnXrUnWhgYmkgYYwgYMx
FjAUBgNVBAMUDUNBTENVVFRBQ0FfQ0ExCzAJBgNVBAYTAklOMQ8wDQYDVQQKEwZD
SVRSSVgxDDAKBgNVBAsTA0FORzELMAkGA1UECBMCS0ExMDAuBgkqhkiG9w0BCQEW
IUNBTENVVFRBQ0FfQ0FAQ0FMQ1VUVEFDQV9tYWlsLmNvbYIJAKXGRw7mBjcYMDwG
CCsGAQUFBwEBBDAwLjAsBggrBgEFBQcwAYYgaHR0cDovLzE3Mi4xOC4xMC4xL3Jl
c3BvbmRlcnBhdGgwDQYJKoZIhvcNAQELBQADggEBAFIAIsAFiGgYmJlvKjWLgnpD
sD58HGgyBlMnYw1vu1S15dvXUJNUxgdG9wcPEEwg4umQaZYl19ybCDXmfsEC65eG
ki+OPZ/6BciFU35esjizlgnvtoHp6IaCsBU7Uk0Mj0PSfu1nDRnydknyomUR+2/O
OrGj7ZrCtlMPZrTCf+t7nl8Iw83hEeo1wMN4tCy5bICCJIjDVh5MjSb4jt+EMKFj
5Mr0YsxZltzDTifUz8LxQ/NuhSlIqt9ChyFiRuPmlJBuFLT2L0U5qWfKPb70QwdK
nNu3IbP72MdqCfh702CIXWac5QvzfjLIQwl36pb2Z34csxi0R85FvO5kspgpVJg=
-----END CERTIFICATE-----
