Certificate:
    Data:
        Version: 3 (0x2)
        Serial Number: 11042563100198 (0xa0b0c0d0e26)
    Signature Algorithm: sha256WithRSAEncryption
        Issuer: CN=MUMBAICA_CA, C=IN, O=CITRIX, OU=ANG, ST=KA/emailAddress=MUMBAICA_CA@MUMBAICA_mail.com
        Validity
            Not Before: Jul  8 04:35:52 2016 GMT
            Not After : Jul  6 04:35:52 2026 GMT
        Subject: ST=KA, C=IN, CN=124_MUMBAICA_server/emailAddress=124_MUMBAICA@test_ca.com, O=CITRIX
        Subject Public Key Info:
            Public Key Algorithm: rsaEncryption
                Public-Key: (2048 bit)
                Modulus:
                    00:d4:e6:f2:8b:f2:32:ef:b1:17:9e:33:d7:79:71:
                    92:a9:70:36:dc:60:d2:df:f5:bb:ce:b7:82:86:64:
                    c4:19:ef:5e:f7:e0:5f:4e:60:6e:3e:ef:64:54:76:
                    2b:87:3f:7b:c2:80:5d:77:c2:c5:63:29:b6:6c:bd:
                    f1:27:bf:a0:48:54:8c:96:5a:09:43:f4:e3:69:93:
                    4d:84:b1:4d:7f:9a:2b:9f:5b:30:28:68:d8:f5:d6:
                    8e:e6:d6:8d:71:4e:34:8d:e6:11:0e:af:c9:be:1f:
                    35:04:d9:fa:14:ab:34:f0:ba:18:ce:45:b2:0a:eb:
                    2a:76:8e:75:a4:a6:d2:af:cd:31:5c:82:b2:97:04:
                    83:e7:84:9f:f2:41:79:9d:3b:8e:a9:f0:de:0b:3a:
                    76:56:09:26:30:2f:99:ea:2a:aa:4c:7d:69:74:d4:
                    e1:82:95:ca:11:24:db:98:63:a3:d2:83:ad:5c:05:
                    92:9c:67:86:99:9c:8c:84:2d:7f:cf:41:14:13:2a:
                    77:17:28:6d:1d:09:45:46:ca:4d:f3:d5:18:f0:62:
                    72:7b:d0:55:25:34:2e:9d:ae:3c:73:8b:5a:49:6c:
                    64:c8:35:f4:ae:4a:4a:63:00:b5:b3:c5:d3:2c:05:
                    a9:aa:2d:38:bd:36:f1:22:64:10:cf:ce:11:eb:b3:
                    e8:b5
                Exponent: 65537 (0x10001)
        X509v3 extensions:
            Netscape Cert Type: 
                SSL Server
            X509v3 Subject Key Identifier: 
                51:66:30:73:49:FF:71:32:67:A5:F9:5D:96:46:4D:C7:81:4E:0D:7B
            X509v3 Authority Key Identifier: 
                keyid:37:79:BF:65:19:98:28:32:4E:EF:3E:44:14:19:A9:83:2B:AF:05:7A
                DirName:/CN=MUMBAICA_CA/C=IN/O=CITRIX/OU=ANG/ST=KA/emailAddress=MUMBAICA_CA@MUMBAICA_mail.com
                serial:EE:B1:37:EE:F6:D2:14:91

            Authority Information Access: 
                OCSP - URI:http://172.23.10.1/responderpath

    Signature Algorithm: sha256WithRSAEncryption
         88:70:6a:d8:a2:66:44:03:dc:54:82:c4:42:37:6c:21:69:1d:
         4b:2c:08:3a:a0:f0:7d:a1:44:0a:0c:3c:15:48:bc:10:e9:2d:
         43:dd:71:ce:1a:fd:00:35:e0:35:c2:bd:e4:cd:e1:ab:44:af:
         00:f7:74:57:59:08:16:1d:76:ce:a7:b4:45:2e:5d:24:4e:bc:
         25:7b:35:72:5f:68:2d:a2:1f:64:40:5f:c9:ca:f0:75:da:e0:
         81:68:c8:bb:80:42:be:e4:7d:a8:5b:57:ae:7d:04:dc:ae:d0:
         55:85:77:39:95:92:04:6a:2b:fd:64:8b:5d:ec:4f:f4:bf:ae:
         aa:00:fb:34:8a:12:3e:52:f7:75:ed:a2:f6:78:31:8b:93:1e:
         58:b3:25:34:d0:83:92:b9:08:43:81:1f:2f:c5:cb:8a:1a:e2:
         39:a7:a9:33:4c:b7:e7:22:1f:5c:4a:9b:49:3a:13:33:f7:a6:
         c5:02:69:a3:65:fe:d5:02:b5:fa:36:03:1d:1e:20:67:96:33:
         42:ed:d0:08:78:83:a3:d9:0f:26:21:63:83:8e:71:2a:c1:7c:
         8c:74:a7:fa:d0:5f:35:9c:e4:7f:84:2c:8b:af:70:15:d9:ca:
         89:8a:6d:40:ed:37:ff:5d:40:67:00:1e:c1:05:15:83:56:15:
         f2:af:7d:fe
-----BEGIN CERTIFICATE-----
MIIEmDCCA4CgAwIBAgIGCgsMDQ4mMA0GCSqGSIb3DQEBCwUAMH0xFDASBgNVBAMU
C01VTUJBSUNBX0NBMQswCQYDVQQGEwJJTjEPMA0GA1UEChMGQ0lUUklYMQwwCgYD
VQQLEwNBTkcxCzAJBgNVBAgTAktBMSwwKgYJKoZIhvcNAQkBFh1NVU1CQUlDQV9D
QUBNVU1CQUlDQV9tYWlsLmNvbTAeFw0xNjA3MDgwNDM1NTJaFw0yNjA3MDYwNDM1
NTJaMHIxCzAJBgNVBAgTAktBMQswCQYDVQQGEwJJTjEcMBoGA1UEAxQTMTI0X01V
TUJBSUNBX3NlcnZlcjEnMCUGCSqGSIb3DQEJARYYMTI0X01VTUJBSUNBQHRlc3Rf
Y2EuY29tMQ8wDQYDVQQKEwZDSVRSSVgwggEiMA0GCSqGSIb3DQEBAQUAA4IBDwAw
ggEKAoIBAQDU5vKL8jLvsReeM9d5cZKpcDbcYNLf9bvOt4KGZMQZ71734F9OYG4+
72RUdiuHP3vCgF13wsVjKbZsvfEnv6BIVIyWWglD9ONpk02EsU1/miufWzAoaNj1
1o7m1o1xTjSN5hEOr8m+HzUE2foUqzTwuhjORbIK6yp2jnWkptKvzTFcgrKXBIPn
hJ/yQXmdO46p8N4LOnZWCSYwL5nqKqpMfWl01OGClcoRJNuYY6PSg61cBZKcZ4aZ
nIyELX/PQRQTKncXKG0dCUVGyk3z1RjwYnJ70FUlNC6drjxzi1pJbGTINfSuSkpj
ALWzxdMsBamqLTi9NvEiZBDPzhHrs+i1AgMBAAGjggEnMIIBIzARBglghkgBhvhC
AQEEBAMCBkAwHQYDVR0OBBYEFFFmMHNJ/3EyZ6X5XZZGTceBTg17MIGwBgNVHSME
gagwgaWAFDd5v2UZmCgyTu8+RBQZqYMrrwV6oYGBpH8wfTEUMBIGA1UEAxQLTVVN
QkFJQ0FfQ0ExCzAJBgNVBAYTAklOMQ8wDQYDVQQKEwZDSVRSSVgxDDAKBgNVBAsT
A0FORzELMAkGA1UECBMCS0ExLDAqBgkqhkiG9w0BCQEWHU1VTUJBSUNBX0NBQE1V
TUJBSUNBX21haWwuY29tggkA7rE37vbSFJEwPAYIKwYBBQUHAQEEMDAuMCwGCCsG
AQUFBzABhiBodHRwOi8vMTcyLjIzLjEwLjEvcmVzcG9uZGVycGF0aDANBgkqhkiG
9w0BAQsFAAOCAQEAiHBq2KJmRAPcVILEQjdsIWkdSywIOqDwfaFECgw8FUi8EOkt
Q91xzhr9ADXgNcK95M3hq0SvAPd0V1kIFh12zqe0RS5dJE68JXs1cl9oLaIfZEBf
ycrwddrggWjIu4BCvuR9qFtXrn0E3K7QVYV3OZWSBGor/WSLXexP9L+uqgD7NIoS
PlL3de2i9ngxi5MeWLMlNNCDkrkIQ4EfL8XLihriOaepM0y35yIfXEqbSToTM/em
xQJpo2X+1QK1+jYDHR4gZ5YzQu3QCHiDo9kPJiFjg45xKsF8jHSn+tBfNZzkf4Qs
i69wFdnKiYptQO03/11AZwAewQUVg1YV8q99/g==
-----END CERTIFICATE-----
