Certificate:
    Data:
        Version: 3 (0x2)
        Serial Number: 11042563100198 (0xa0b0c0d0e26)
    Signature Algorithm: sha256WithRSAEncryption
        Issuer: CN=PATNACA_CA, C=IN, O=CITRIX, OU=ANG, ST=KA/emailAddress=PATNACA_CA@PATNACA_mail.com
        Validity
            Not Before: Jul  8 04:38:28 2016 GMT
            Not After : Jul  6 04:38:28 2026 GMT
        Subject: ST=KA, C=IN, CN=124_PATNACA_server/emailAddress=124_PATNACA@test_ca.com, O=CITRIX
        Subject Public Key Info:
            Public Key Algorithm: rsaEncryption
                Public-Key: (2048 bit)
                Modulus:
                    00:a3:50:d8:cd:70:55:89:ad:8e:86:9d:ba:d4:97:
                    6f:f9:46:d8:13:37:87:29:a8:b9:f5:63:94:24:64:
                    17:0c:b4:2b:04:d7:1e:bc:7d:96:51:d7:fc:02:a7:
                    f9:c2:b4:cb:e8:7f:97:7c:f6:33:89:60:74:10:4b:
                    4b:25:5f:79:24:f0:d5:e2:8a:bf:24:6a:5f:7d:d2:
                    c5:f0:1f:73:f4:55:6f:e1:16:75:18:40:32:cf:80:
                    5f:8f:07:40:6b:08:68:93:e9:e4:de:b4:8c:bb:f0:
                    93:63:55:71:a1:96:c5:a7:88:6d:b5:97:e0:f8:99:
                    24:f5:4d:35:41:02:5a:fe:a5:d9:4c:fe:36:99:81:
                    fe:82:f9:d2:79:9f:76:ce:ee:cc:b6:4c:b7:58:b3:
                    ad:45:21:58:76:11:bb:b2:f4:31:d6:bc:22:ed:15:
                    ac:10:95:e5:a8:e0:b5:13:6f:8e:43:35:78:16:09:
                    fd:c1:9f:66:5e:67:07:36:f4:46:ca:f7:0a:c1:a9:
                    6d:08:bd:ad:df:eb:8f:b8:32:a9:00:6b:13:d3:c8:
                    eb:56:66:80:b6:34:9c:7d:a5:e2:1c:2b:e8:86:ce:
                    3d:9b:1a:78:f4:7b:75:16:4e:61:f6:28:ae:aa:5a:
                    19:5a:7c:2b:c9:2c:4b:e0:24:83:a6:4a:b4:80:60:
                    f3:a5
                Exponent: 65537 (0x10001)
        X509v3 extensions:
            Netscape Cert Type: 
                SSL Server
            X509v3 Subject Key Identifier: 
                81:4B:16:98:C6:EE:26:B3:E4:D7:26:6E:B3:23:4D:CF:AC:9D:73:84
            X509v3 Authority Key Identifier: 
                keyid:FF:DF:C4:8D:AF:64:E1:E3:17:FA:96:EE:F1:75:A7:ED:A7:C3:91:B8
                DirName:/CN=PATNACA_CA/C=IN/O=CITRIX/OU=ANG/ST=KA/emailAddress=PATNACA_CA@PATNACA_mail.com
                serial:9F:2E:15:76:F0:BD:C1:6F

            Authority Information Access: 
                OCSP - URI:http://172.26.10.1/responderpath

    Signature Algorithm: sha256WithRSAEncryption
         62:01:cb:6f:2b:55:47:b1:26:fd:39:bb:48:70:50:5e:1c:4e:
         3a:1d:81:0a:6e:2f:66:ba:0d:c0:c2:33:82:42:30:5f:fb:6a:
         f4:e6:04:e6:88:ba:b3:0a:b1:2f:b3:5c:5e:c0:51:b5:34:77:
         10:b3:01:85:7d:32:52:6d:64:a6:5e:e6:4d:0f:c0:28:ff:62:
         d6:ee:76:de:dc:90:02:1e:3e:c0:28:95:4e:67:c9:5e:3d:3f:
         73:6e:aa:3b:10:f9:b7:99:de:5c:ae:76:2e:53:5c:43:e5:84:
         5c:1c:02:08:79:33:b0:9f:9c:bf:bb:df:52:cc:db:3f:0e:4e:
         fc:13:7b:dd:af:e5:cc:55:3a:21:c6:a9:8e:ab:a8:45:6e:e0:
         dc:7e:64:81:cb:7c:e2:ce:4f:3a:7e:c5:1d:9c:27:fa:c5:80:
         05:65:1d:25:87:c7:dd:0c:70:d7:a7:8d:ab:c9:a3:07:d9:b0:
         67:2d:96:57:70:cc:17:b4:f3:9f:4d:f7:20:cc:fa:7c:41:72:
         67:07:3c:d5:b1:f3:e5:62:97:c2:f7:ab:99:53:87:63:9b:c3:
         a3:83:93:48:7a:4a:46:60:df:cf:a2:d8:d2:3c:2f:29:0e:5d:
         d6:08:da:d9:7c:c4:65:45:89:16:41:42:05:9b:3a:76:23:b4:
         ae:31:93:f2
-----BEGIN CERTIFICATE-----
MIIEjzCCA3egAwIBAgIGCgsMDQ4mMA0GCSqGSIb3DQEBCwUAMHoxEzARBgNVBAMU
ClBBVE5BQ0FfQ0ExCzAJBgNVBAYTAklOMQ8wDQYDVQQKEwZDSVRSSVgxDDAKBgNV
BAsTA0FORzELMAkGA1UECBMCS0ExKjAoBgkqhkiG9w0BCQEWG1BBVE5BQ0FfQ0FA
UEFUTkFDQV9tYWlsLmNvbTAeFw0xNjA3MDgwNDM4MjhaFw0yNjA3MDYwNDM4Mjha
MHAxCzAJBgNVBAgTAktBMQswCQYDVQQGEwJJTjEbMBkGA1UEAxQSMTI0X1BBVE5B
Q0Ffc2VydmVyMSYwJAYJKoZIhvcNAQkBFhcxMjRfUEFUTkFDQUB0ZXN0X2NhLmNv
bTEPMA0GA1UEChMGQ0lUUklYMIIBIjANBgkqhkiG9w0BAQEFAAOCAQ8AMIIBCgKC
AQEAo1DYzXBVia2Ohp261Jdv+UbYEzeHKai59WOUJGQXDLQrBNcevH2WUdf8Aqf5
wrTL6H+XfPYziWB0EEtLJV95JPDV4oq/JGpffdLF8B9z9FVv4RZ1GEAyz4BfjwdA
awhok+nk3rSMu/CTY1VxoZbFp4httZfg+Jkk9U01QQJa/qXZTP42mYH+gvnSeZ92
zu7Mtky3WLOtRSFYdhG7svQx1rwi7RWsEJXlqOC1E2+OQzV4Fgn9wZ9mXmcHNvRG
yvcKwaltCL2t3+uPuDKpAGsT08jrVmaAtjScfaXiHCvohs49mxp49Ht1Fk5h9iiu
qloZWnwrySxL4CSDpkq0gGDzpQIDAQABo4IBIzCCAR8wEQYJYIZIAYb4QgEBBAQD
AgZAMB0GA1UdDgQWBBSBSxaYxu4ms+TXJm6zI03PrJ1zhDCBrAYDVR0jBIGkMIGh
gBT/38SNr2Th4xf6lu7xdaftp8ORuKF+pHwwejETMBEGA1UEAxQKUEFUTkFDQV9D
QTELMAkGA1UEBhMCSU4xDzANBgNVBAoTBkNJVFJJWDEMMAoGA1UECxMDQU5HMQsw
CQYDVQQIEwJLQTEqMCgGCSqGSIb3DQEJARYbUEFUTkFDQV9DQUBQQVROQUNBX21h
aWwuY29tggkAny4VdvC9wW8wPAYIKwYBBQUHAQEEMDAuMCwGCCsGAQUFBzABhiBo
dHRwOi8vMTcyLjI2LjEwLjEvcmVzcG9uZGVycGF0aDANBgkqhkiG9w0BAQsFAAOC
AQEAYgHLbytVR7Em/Tm7SHBQXhxOOh2BCm4vZroNwMIzgkIwX/tq9OYE5oi6swqx
L7NcXsBRtTR3ELMBhX0yUm1kpl7mTQ/AKP9i1u523tyQAh4+wCiVTmfJXj0/c26q
OxD5t5neXK52LlNcQ+WEXBwCCHkzsJ+cv7vfUszbPw5O/BN73a/lzFU6Icapjquo
RW7g3H5kgct84s5POn7FHZwn+sWABWUdJYfH3Qxw16eNq8mjB9mwZy2WV3DMF7Tz
n033IMz6fEFyZwc81bHz5WKXwvermVOHY5vDo4OTSHpKRmDfz6LY0jwvKQ5d1gja
2XzEZUWJFkFCBZs6diO0rjGT8g==
-----END CERTIFICATE-----
