Certificate:
    Data:
        Version: 3 (0x2)
        Serial Number: 11042563100198 (0xa0b0c0d0e26)
    Signature Algorithm: sha256WithRSAEncryption
        Issuer: CN=RANCHICA_CA, C=IN, O=CITRIX, OU=ANG, ST=KA/emailAddress=RANCHICA_CA@RANCHICA_mail.com
        Validity
            Not Before: Jul  8 04:38:53 2016 GMT
            Not After : Jul  6 04:38:53 2026 GMT
        Subject: ST=KA, C=IN, CN=124_RANCHICA_server/emailAddress=124_RANCHICA@test_ca.com, O=CITRIX
        Subject Public Key Info:
            Public Key Algorithm: rsaEncryption
                Public-Key: (2048 bit)
                Modulus:
                    00:c5:34:62:24:08:30:d3:01:16:b5:54:76:2b:74:
                    8c:11:3f:59:cb:2d:74:ed:4e:57:ae:c3:9f:a1:09:
                    eb:e6:97:2c:fe:7f:a4:a5:43:52:44:d2:20:8b:ec:
                    0e:d6:9d:71:0b:ba:21:ff:e0:4f:e0:b2:43:e4:09:
                    3a:e2:97:c6:c6:06:e8:04:6a:d6:8c:18:4c:ac:fa:
                    59:ca:3c:f5:00:b2:ce:8f:f2:8e:65:0b:68:ad:77:
                    55:e0:2c:dc:18:3c:13:21:a7:3c:27:5e:3b:80:cf:
                    48:72:5f:e9:24:bf:47:20:08:a7:fd:fa:2e:2f:82:
                    ec:cb:20:47:b4:43:f8:86:0b:cb:81:78:69:22:64:
                    69:9b:4a:a7:fe:09:27:fb:76:f8:e8:c7:28:68:51:
                    d8:99:68:3c:79:1f:96:de:33:eb:8e:b5:0c:7b:cd:
                    f6:de:b6:3b:b8:ef:a0:96:7e:9d:84:cd:71:6d:6f:
                    4b:f5:e5:cf:70:d5:43:ca:a5:80:22:5f:63:e2:96:
                    fe:30:8e:69:cc:67:71:24:73:87:e4:98:13:3f:29:
                    58:82:30:fe:f0:7f:1a:ed:29:fc:21:2e:fb:4c:5d:
                    8e:f2:b7:db:1c:ee:5f:7d:2f:ae:92:aa:39:3a:74:
                    bc:6b:a6:72:b3:16:6d:8b:48:9c:6c:9e:57:4c:1e:
                    49:3d
                Exponent: 65537 (0x10001)
        X509v3 extensions:
            Netscape Cert Type: 
                SSL Server
            X509v3 Subject Key Identifier: 
                BD:FB:42:90:81:E3:70:8D:B7:0A:C1:B5:6E:DD:84:23:66:22:9B:C6
            X509v3 Authority Key Identifier: 
                keyid:A7:10:6F:5D:0C:9F:9C:A2:F4:39:92:A3:7D:5C:B8:C0:25:71:BF:39
                DirName:/CN=RANCHICA_CA/C=IN/O=CITRIX/OU=ANG/ST=KA/emailAddress=RANCHICA_CA@RANCHICA_mail.com
                serial:E7:09:A4:3D:1C:C7:45:B1

            Authority Information Access: 
                OCSP - URI:http://172.27.10.1/responderpath

    Signature Algorithm: sha256WithRSAEncryption
         7e:9d:20:89:86:69:83:cc:ef:2c:29:bc:93:e9:a7:b4:97:cf:
         55:eb:2c:c0:ce:c4:52:3b:fe:24:cb:1e:8b:dc:cd:34:50:b6:
         42:de:1e:66:b0:06:9c:86:b4:bd:0a:07:dc:5c:65:dd:70:73:
         4c:a9:d2:35:f3:f1:be:b4:2f:59:61:ce:2f:52:da:a1:88:e4:
         de:0a:0c:76:72:d4:cf:6e:9d:55:f5:85:01:8b:6d:a5:91:61:
         f3:42:fb:f9:7f:d5:d3:5d:88:4d:47:8a:5b:a1:c1:be:32:ed:
         9c:06:d1:a7:69:6b:78:81:8a:cf:4f:92:4a:72:9e:d0:14:a9:
         58:b2:43:7e:ee:c6:d5:ce:5b:ab:13:b6:1f:9d:4e:7c:da:0c:
         27:0b:a6:43:38:8f:97:b3:91:5e:95:bd:b4:7e:96:e5:8f:bd:
         d7:71:e3:9b:e7:23:8a:f3:9d:15:fd:0b:1e:2c:08:62:3a:e1:
         52:52:1a:aa:7c:42:9e:3b:f1:a9:43:a3:51:31:5a:d9:a1:1e:
         40:01:23:83:a5:95:e2:4e:96:6d:f1:41:4e:96:95:d4:24:50:
         d8:45:74:8e:48:cb:08:2d:c0:d2:14:f6:af:24:d3:9e:33:98:
         69:57:30:d8:5d:7e:60:77:54:a2:d6:f4:94:45:55:c8:ef:aa:
         f2:55:05:fd
-----BEGIN CERTIFICATE-----
MIIEmDCCA4CgAwIBAgIGCgsMDQ4mMA0GCSqGSIb3DQEBCwUAMH0xFDASBgNVBAMU
C1JBTkNISUNBX0NBMQswCQYDVQQGEwJJTjEPMA0GA1UEChMGQ0lUUklYMQwwCgYD
VQQLEwNBTkcxCzAJBgNVBAgTAktBMSwwKgYJKoZIhvcNAQkBFh1SQU5DSElDQV9D
QUBSQU5DSElDQV9tYWlsLmNvbTAeFw0xNjA3MDgwNDM4NTNaFw0yNjA3MDYwNDM4
NTNaMHIxCzAJBgNVBAgTAktBMQswCQYDVQQGEwJJTjEcMBoGA1UEAxQTMTI0X1JB
TkNISUNBX3NlcnZlcjEnMCUGCSqGSIb3DQEJARYYMTI0X1JBTkNISUNBQHRlc3Rf
Y2EuY29tMQ8wDQYDVQQKEwZDSVRSSVgwggEiMA0GCSqGSIb3DQEBAQUAA4IBDwAw
ggEKAoIBAQDFNGIkCDDTARa1VHYrdIwRP1nLLXTtTleuw5+hCevmlyz+f6SlQ1JE
0iCL7A7WnXELuiH/4E/gskPkCTril8bGBugEataMGEys+lnKPPUAss6P8o5lC2it
d1XgLNwYPBMhpzwnXjuAz0hyX+kkv0cgCKf9+i4vguzLIEe0Q/iGC8uBeGkiZGmb
Sqf+CSf7dvjoxyhoUdiZaDx5H5beM+uOtQx7zfbetju476CWfp2EzXFtb0v15c9w
1UPKpYAiX2Pilv4wjmnMZ3Ekc4fkmBM/KViCMP7wfxrtKfwhLvtMXY7yt9sc7l99
L66Sqjk6dLxrpnKzFm2LSJxsnldMHkk9AgMBAAGjggEnMIIBIzARBglghkgBhvhC
AQEEBAMCBkAwHQYDVR0OBBYEFL37QpCB43CNtwrBtW7dhCNmIpvGMIGwBgNVHSME
gagwgaWAFKcQb10Mn5yi9DmSo31cuMAlcb85oYGBpH8wfTEUMBIGA1UEAxQLUkFO
Q0hJQ0FfQ0ExCzAJBgNVBAYTAklOMQ8wDQYDVQQKEwZDSVRSSVgxDDAKBgNVBAsT
A0FORzELMAkGA1UECBMCS0ExLDAqBgkqhkiG9w0BCQEWHVJBTkNISUNBX0NBQFJB
TkNISUNBX21haWwuY29tggkA5wmkPRzHRbEwPAYIKwYBBQUHAQEEMDAuMCwGCCsG
AQUFBzABhiBodHRwOi8vMTcyLjI3LjEwLjEvcmVzcG9uZGVycGF0aDANBgkqhkiG
9w0BAQsFAAOCAQEAfp0giYZpg8zvLCm8k+mntJfPVesswM7EUjv+JMsei9zNNFC2
Qt4eZrAGnIa0vQoH3Fxl3XBzTKnSNfPxvrQvWWHOL1LaoYjk3goMdnLUz26dVfWF
AYttpZFh80L7+X/V012ITUeKW6HBvjLtnAbRp2lreIGKz0+SSnKe0BSpWLJDfu7G
1c5bqxO2H51OfNoMJwumQziPl7ORXpW9tH6W5Y+913Hjm+cjivOdFf0LHiwIYjrh
UlIaqnxCnjvxqUOjUTFa2aEeQAEjg6WV4k6WbfFBTpaV1CRQ2EV0jkjLCC3A0hT2
ryTTnjOYaVcw2F1+YHdUotb0lEVVyO+q8lUF/Q==
-----END CERTIFICATE-----
