Certificate:
    Data:
        Version: 3 (0x2)
        Serial Number: 11042563100198 (0xa0b0c0d0e26)
    Signature Algorithm: sha256WithRSAEncryption
        Issuer: CN=DELHICA_CA, C=IN, O=CITRIX, OU=ANG, ST=KA/emailAddress=DELHICA_CA@DELHICA_mail.com
        Validity
            Not Before: Jul  8 04:34:28 2016 GMT
            Not After : Jul  6 04:34:28 2026 GMT
        Subject: ST=KA, C=IN, CN=124_DELHICA_server/emailAddress=124_DELHICA@test_ca.com, O=CITRIX
        Subject Public Key Info:
            Public Key Algorithm: rsaEncryption
                Public-Key: (2048 bit)
                Modulus:
                    00:e7:0b:15:01:02:12:96:ba:45:80:b1:c8:c2:3c:
                    cd:3a:3a:b8:cc:53:f1:0e:16:f6:b7:72:27:be:eb:
                    9b:90:e4:9a:33:92:72:5e:2d:b3:df:c9:14:51:56:
                    3b:d5:61:e6:39:37:99:ee:b0:0d:80:03:4a:6d:77:
                    b9:28:4d:b5:45:2d:cc:1b:eb:ab:9c:3f:06:14:35:
                    cf:f3:30:72:c6:e9:31:96:1d:18:c8:2f:68:35:27:
                    5d:cd:52:2f:80:bb:e1:97:59:72:2e:5d:cf:25:fa:
                    11:05:db:b1:e8:05:cd:19:08:87:c3:a4:9f:da:9d:
                    f1:be:8c:6b:1e:15:60:88:60:61:42:54:72:74:8b:
                    45:f7:79:a6:37:d5:ed:f5:c9:0e:89:39:4e:d5:0d:
                    38:ac:c5:05:c8:60:ab:d2:ff:91:55:69:84:0f:76:
                    64:7d:d4:03:c2:98:90:12:40:45:00:33:99:2f:50:
                    2a:81:df:1b:4c:3a:e7:e5:ff:92:54:fa:ee:9b:21:
                    69:9a:2e:f2:4a:6d:32:bc:2e:8b:21:01:4e:7b:a2:
                    ee:1f:1e:39:63:30:c2:f3:9b:82:9c:eb:50:1b:8f:
                    0c:48:6f:08:6e:cc:cd:35:61:fc:a3:53:2d:60:24:
                    bb:a9:86:b0:87:7d:34:53:88:55:19:8a:45:43:47:
                    6d:a9
                Exponent: 65537 (0x10001)
        X509v3 extensions:
            Netscape Cert Type: 
                SSL Server
            X509v3 Subject Key Identifier: 
                D5:9A:37:D4:1E:88:D5:81:04:9C:07:EF:15:9D:A1:73:9B:EA:41:82
            X509v3 Authority Key Identifier: 
                keyid:D7:37:52:01:DC:2C:7A:57:85:CA:30:39:30:F0:D5:5D:5A:31:03:02
                DirName:/CN=DELHICA_CA/C=IN/O=CITRIX/OU=ANG/ST=KA/emailAddress=DELHICA_CA@DELHICA_mail.com
                serial:94:59:DC:51:4E:A5:13:27

            Authority Information Access: 
                OCSP - URI:http://172.20.10.1/responderpath

    Signature Algorithm: sha256WithRSAEncryption
         b0:d5:af:31:06:80:ce:2d:fc:8a:7b:8e:4e:2a:96:5c:3b:f9:
         4b:30:34:ae:a4:27:7e:13:36:3d:a0:13:37:2e:3f:0b:e2:b1:
         2b:2c:de:97:ed:6e:c1:24:f3:e8:3e:99:16:e0:47:f0:0e:d3:
         73:65:30:c9:55:fb:3a:43:b2:c1:1c:0c:07:7d:30:02:2a:04:
         2b:e5:69:10:11:15:f9:d3:88:f7:1a:cd:35:be:fa:43:6e:31:
         56:fb:47:a2:a5:9e:be:37:e7:15:87:38:52:62:c5:ac:bb:c5:
         0a:06:1a:26:e0:4d:20:36:53:f7:0c:8e:0b:eb:e4:62:b7:86:
         fd:53:65:93:22:9c:03:6e:67:64:90:4e:c6:d8:ec:4f:4e:a7:
         63:8f:a4:ec:68:4a:62:6b:bd:24:4a:fc:00:07:b7:21:06:df:
         d2:59:4d:a1:54:b0:f2:58:63:74:4a:3d:b7:82:e8:9f:3e:53:
         2f:5d:14:24:c1:a1:af:45:49:3f:2d:07:2d:23:fc:64:4e:05:
         e9:00:46:80:49:8d:95:9c:9d:a6:d5:e5:20:8a:57:ab:e7:da:
         25:6e:0c:56:8f:ec:c9:44:01:73:5f:e4:f3:bb:66:c6:73:21:
         1e:c4:15:c9:30:c5:51:99:5e:92:16:76:b3:1b:b1:00:ac:f6:
         6a:20:01:50
-----BEGIN CERTIFICATE-----
MIIEjzCCA3egAwIBAgIGCgsMDQ4mMA0GCSqGSIb3DQEBCwUAMHoxEzARBgNVBAMU
CkRFTEhJQ0FfQ0ExCzAJBgNVBAYTAklOMQ8wDQYDVQQKEwZDSVRSSVgxDDAKBgNV
BAsTA0FORzELMAkGA1UECBMCS0ExKjAoBgkqhkiG9w0BCQEWG0RFTEhJQ0FfQ0FA
REVMSElDQV9tYWlsLmNvbTAeFw0xNjA3MDgwNDM0MjhaFw0yNjA3MDYwNDM0Mjha
MHAxCzAJBgNVBAgTAktBMQswCQYDVQQGEwJJTjEbMBkGA1UEAxQSMTI0X0RFTEhJ
Q0Ffc2VydmVyMSYwJAYJKoZIhvcNAQkBFhcxMjRfREVMSElDQUB0ZXN0X2NhLmNv
bTEPMA0GA1UEChMGQ0lUUklYMIIBIjANBgkqhkiG9w0BAQEFAAOCAQ8AMIIBCgKC
AQEA5wsVAQISlrpFgLHIwjzNOjq4zFPxDhb2t3InvuubkOSaM5JyXi2z38kUUVY7
1WHmOTeZ7rANgANKbXe5KE21RS3MG+urnD8GFDXP8zByxukxlh0YyC9oNSddzVIv
gLvhl1lyLl3PJfoRBdux6AXNGQiHw6Sf2p3xvoxrHhVgiGBhQlRydItF93mmN9Xt
9ckOiTlO1Q04rMUFyGCr0v+RVWmED3ZkfdQDwpiQEkBFADOZL1Aqgd8bTDrn5f+S
VPrumyFpmi7ySm0yvC6LIQFOe6LuHx45YzDC85uCnOtQG48MSG8IbszNNWH8o1Mt
YCS7qYawh300U4hVGYpFQ0dtqQIDAQABo4IBIzCCAR8wEQYJYIZIAYb4QgEBBAQD
AgZAMB0GA1UdDgQWBBTVmjfUHojVgQScB+8VnaFzm+pBgjCBrAYDVR0jBIGkMIGh
gBTXN1IB3Cx6V4XKMDkw8NVdWjEDAqF+pHwwejETMBEGA1UEAxQKREVMSElDQV9D
QTELMAkGA1UEBhMCSU4xDzANBgNVBAoTBkNJVFJJWDEMMAoGA1UECxMDQU5HMQsw
CQYDVQQIEwJLQTEqMCgGCSqGSIb3DQEJARYbREVMSElDQV9DQUBERUxISUNBX21h
aWwuY29tggkAlFncUU6lEycwPAYIKwYBBQUHAQEEMDAuMCwGCCsGAQUFBzABhiBo
dHRwOi8vMTcyLjIwLjEwLjEvcmVzcG9uZGVycGF0aDANBgkqhkiG9w0BAQsFAAOC
AQEAsNWvMQaAzi38inuOTiqWXDv5SzA0rqQnfhM2PaATNy4/C+KxKyzel+1uwSTz
6D6ZFuBH8A7Tc2UwyVX7OkOywRwMB30wAioEK+VpEBEV+dOI9xrNNb76Q24xVvtH
oqWevjfnFYc4UmLFrLvFCgYaJuBNIDZT9wyOC+vkYreG/VNlkyKcA25nZJBOxtjs
T06nY4+k7GhKYmu9JEr8AAe3IQbf0llNoVSw8lhjdEo9t4Lonz5TL10UJMGhr0VJ
Py0HLSP8ZE4F6QBGgEmNlZydptXlIIpXq+faJW4MVo/syUQBc1/k87tmxnMhHsQV
yTDFUZlekhZ2sxuxAKz2aiABUA==
-----END CERTIFICATE-----
