Certificate:
    Data:
        Version: 3 (0x2)
        Serial Number: 11042563100199 (0xa0b0c0d0e27)
    Signature Algorithm: sha256WithRSAEncryption
        Issuer: CN=DELHICA_CA, C=IN, O=CITRIX, OU=ANG, ST=KA/emailAddress=DELHICA_CA@DELHICA_mail.com
        Validity
            Not Before: Jul  8 04:34:28 2016 GMT
            Not After : Jul  6 04:34:28 2026 GMT
        Subject: ST=KA, C=IN, CN=125_DELHICA_server/emailAddress=125_DELHICA@test_ca.com, O=CITRIX
        Subject Public Key Info:
            Public Key Algorithm: rsaEncryption
                Public-Key: (2048 bit)
                Modulus:
                    00:af:c1:66:87:65:0a:9b:74:3b:30:15:da:e1:38:
                    e9:f6:a2:4b:f3:68:84:4a:f9:64:58:83:89:c8:e0:
                    b1:4c:f5:31:51:d5:b3:1c:3e:17:09:d6:b2:b8:f4:
                    5d:84:4a:df:c3:1e:13:51:d9:83:e7:62:a8:9c:de:
                    a8:1a:03:bd:1d:9c:80:b9:55:be:8f:6d:5f:51:6c:
                    17:86:ab:ec:f8:f4:5f:44:2d:73:c0:cc:c2:a7:7f:
                    43:80:e3:b4:81:ac:57:2d:ac:f5:1e:77:38:65:51:
                    7e:65:bf:2d:16:29:d7:86:ab:d6:e6:bc:fd:29:91:
                    02:41:5d:40:b6:d8:48:d3:88:6f:a0:c0:bb:78:5d:
                    f8:04:03:0d:f9:9a:56:6d:09:5c:30:da:a9:8f:4d:
                    c1:37:3f:74:c8:f8:33:46:44:d9:41:14:41:46:dd:
                    c6:c5:bf:b4:50:af:72:7c:d4:96:25:87:0b:5a:3e:
                    c6:c3:6c:60:5e:b7:a5:99:1d:69:1a:8d:c1:b7:f9:
                    24:ab:e7:6b:f3:e0:14:bc:89:e8:8e:07:c9:78:cc:
                    b9:1a:f3:d0:2e:4a:00:91:0d:e0:e1:39:7d:5b:46:
                    32:27:5e:10:bd:94:46:20:d8:50:06:b6:d4:f3:6c:
                    a0:bb:38:41:00:61:48:2f:e6:e2:d1:71:27:86:b8:
                    c7:d1
                Exponent: 65537 (0x10001)
        X509v3 extensions:
            Netscape Cert Type: 
                SSL Server
            X509v3 Subject Key Identifier: 
                C7:53:6F:AF:BA:9A:AE:15:86:27:A3:D3:52:84:A2:A5:24:63:2B:A1
            X509v3 Authority Key Identifier: 
                keyid:D7:37:52:01:DC:2C:7A:57:85:CA:30:39:30:F0:D5:5D:5A:31:03:02
                DirName:/CN=DELHICA_CA/C=IN/O=CITRIX/OU=ANG/ST=KA/emailAddress=DELHICA_CA@DELHICA_mail.com
                serial:94:59:DC:51:4E:A5:13:27

            Authority Information Access: 
                OCSP - URI:http://172.20.10.1/responderpath

    Signature Algorithm: sha256WithRSAEncryption
         2e:ad:e7:0d:c1:88:1e:31:2e:3e:86:a9:93:17:39:96:ad:00:
         a6:92:9c:10:6a:b6:c5:f1:bf:e5:9f:25:51:2c:be:51:cc:f4:
         c8:32:3b:6d:80:02:f2:12:51:7e:50:1e:a1:cb:39:43:26:01:
         dc:00:26:23:7b:08:8d:a6:4e:60:8a:74:f1:c2:fb:5c:0b:34:
         94:8d:6d:fd:78:5c:01:0b:ff:39:5d:d3:2b:47:33:30:22:2c:
         1a:1a:24:b1:20:ea:fd:aa:4b:37:59:06:ac:e4:f0:73:5b:90:
         10:b1:4f:df:40:83:64:3f:a1:91:b4:94:f4:ca:f0:e8:a7:ed:
         4b:dd:2a:57:2c:27:f0:8d:d6:e4:69:6a:45:52:0c:47:cc:65:
         c9:29:f1:6a:70:3e:e0:58:22:68:4a:84:9b:60:4a:ba:74:4a:
         9b:e5:0f:ca:ca:9e:1d:08:25:d4:78:70:ab:6d:42:36:01:5b:
         6c:fb:ee:9f:5f:06:3c:d7:45:b5:33:74:68:9b:1a:95:51:a8:
         f2:71:c2:3c:ac:af:49:78:60:6b:18:dd:9b:d3:60:b4:4c:93:
         52:1c:6e:eb:e6:09:89:ac:86:ac:4b:9d:39:4b:6f:51:72:3d:
         9c:1c:4a:1d:61:9a:b0:77:10:4c:93:ab:60:30:cd:a4:f4:37:
         ce:91:e6:bf
-----BEGIN CERTIFICATE-----
MIIEjzCCA3egAwIBAgIGCgsMDQ4nMA0GCSqGSIb3DQEBCwUAMHoxEzARBgNVBAMU
CkRFTEhJQ0FfQ0ExCzAJBgNVBAYTAklOMQ8wDQYDVQQKEwZDSVRSSVgxDDAKBgNV
BAsTA0FORzELMAkGA1UECBMCS0ExKjAoBgkqhkiG9w0BCQEWG0RFTEhJQ0FfQ0FA
REVMSElDQV9tYWlsLmNvbTAeFw0xNjA3MDgwNDM0MjhaFw0yNjA3MDYwNDM0Mjha
MHAxCzAJBgNVBAgTAktBMQswCQYDVQQGEwJJTjEbMBkGA1UEAxQSMTI1X0RFTEhJ
Q0Ffc2VydmVyMSYwJAYJKoZIhvcNAQkBFhcxMjVfREVMSElDQUB0ZXN0X2NhLmNv
bTEPMA0GA1UEChMGQ0lUUklYMIIBIjANBgkqhkiG9w0BAQEFAAOCAQ8AMIIBCgKC
AQEAr8Fmh2UKm3Q7MBXa4Tjp9qJL82iESvlkWIOJyOCxTPUxUdWzHD4XCdayuPRd
hErfwx4TUdmD52KonN6oGgO9HZyAuVW+j21fUWwXhqvs+PRfRC1zwMzCp39DgOO0
gaxXLaz1Hnc4ZVF+Zb8tFinXhqvW5rz9KZECQV1AtthI04hvoMC7eF34BAMN+ZpW
bQlcMNqpj03BNz90yPgzRkTZQRRBRt3Gxb+0UK9yfNSWJYcLWj7Gw2xgXrelmR1p
Go3Bt/kkq+dr8+AUvInojgfJeMy5GvPQLkoAkQ3g4Tl9W0YyJ14QvZRGINhQBrbU
82yguzhBAGFIL+bi0XEnhrjH0QIDAQABo4IBIzCCAR8wEQYJYIZIAYb4QgEBBAQD
AgZAMB0GA1UdDgQWBBTHU2+vupquFYYno9NShKKlJGMroTCBrAYDVR0jBIGkMIGh
gBTXN1IB3Cx6V4XKMDkw8NVdWjEDAqF+pHwwejETMBEGA1UEAxQKREVMSElDQV9D
QTELMAkGA1UEBhMCSU4xDzANBgNVBAoTBkNJVFJJWDEMMAoGA1UECxMDQU5HMQsw
CQYDVQQIEwJLQTEqMCgGCSqGSIb3DQEJARYbREVMSElDQV9DQUBERUxISUNBX21h
aWwuY29tggkAlFncUU6lEycwPAYIKwYBBQUHAQEEMDAuMCwGCCsGAQUFBzABhiBo
dHRwOi8vMTcyLjIwLjEwLjEvcmVzcG9uZGVycGF0aDANBgkqhkiG9w0BAQsFAAOC
AQEALq3nDcGIHjEuPoapkxc5lq0AppKcEGq2xfG/5Z8lUSy+Ucz0yDI7bYAC8hJR
flAeocs5QyYB3AAmI3sIjaZOYIp08cL7XAs0lI1t/XhcAQv/OV3TK0czMCIsGhok
sSDq/apLN1kGrOTwc1uQELFP30CDZD+hkbSU9Mrw6KftS90qVywn8I3W5GlqRVIM
R8xlySnxanA+4FgiaEqEm2BKunRKm+UPysqeHQgl1Hhwq21CNgFbbPvun18GPNdF
tTN0aJsalVGo8nHCPKyvSXhgaxjdm9NgtEyTUhxu6+YJiayGrEudOUtvUXI9nBxK
HWGasHcQTJOrYDDNpPQ3zpHmvw==
-----END CERTIFICATE-----
