Certificate:
    Data:
        Version: 3 (0x2)
        Serial Number: 11042563100199 (0xa0b0c0d0e27)
    Signature Algorithm: sha256WithRSAEncryption
        Issuer: CN=CHENNAICA_CA, C=IN, O=CITRIX, OU=ANG, ST=KA/emailAddress=CHENNAICA_CA@CHENNAICA_mail.com
        Validity
            Not Before: Jul  8 04:33:55 2016 GMT
            Not After : Jul  6 04:33:55 2026 GMT
        Subject: ST=KA, C=IN, CN=125_CHENNAICA_server/emailAddress=125_CHENNAICA@test_ca.com, O=CITRIX
        Subject Public Key Info:
            Public Key Algorithm: rsaEncryption
                Public-Key: (2048 bit)
                Modulus:
                    00:b0:0f:47:18:5b:d1:57:74:90:1b:a3:fc:06:b6:
                    b7:b5:51:25:12:68:93:36:aa:4e:7f:7b:06:2c:9c:
                    4a:ca:fb:ef:fb:b6:7e:bf:a4:61:8a:5c:ec:ee:ab:
                    96:83:69:ac:53:2d:1c:0c:ef:3b:58:4f:81:69:d8:
                    fa:83:8d:93:9c:9c:8e:d0:f2:a2:46:81:bd:4b:4b:
                    6d:30:bb:13:21:aa:fa:07:9d:47:fd:4f:b4:a1:1f:
                    41:57:08:4c:0b:66:a2:0b:a5:eb:79:79:fa:89:67:
                    12:5b:7a:ee:73:03:2a:8c:ec:f1:8a:30:d1:6c:b8:
                    dc:e5:79:67:72:9e:12:4a:c4:34:7f:d2:e4:c1:bc:
                    28:f1:a5:78:61:06:f3:aa:1e:0e:22:89:a9:59:a8:
                    7b:14:1e:f2:4a:87:97:bb:7a:cf:cb:91:e4:a1:f9:
                    aa:57:b9:57:20:99:a3:e8:d7:d1:39:a7:22:de:3d:
                    f9:fe:95:4d:45:48:a4:94:b8:4d:c3:5f:d2:c1:fb:
                    95:34:0b:73:19:36:f9:1a:cb:49:5a:7f:14:ce:32:
                    6e:3c:2e:9c:b3:d7:64:2f:21:32:6d:32:cd:32:0c:
                    76:1d:31:0f:65:d2:8a:da:b3:66:3b:16:81:f1:c7:
                    11:ae:ed:03:77:bf:fd:32:f3:37:1a:d0:df:73:0d:
                    aa:0b
                Exponent: 65537 (0x10001)
        X509v3 extensions:
            Netscape Cert Type: 
                SSL Server
            X509v3 Subject Key Identifier: 
                CE:52:4F:25:EC:1E:6E:1D:D7:1D:BA:ED:6B:0B:4F:F4:05:12:FC:57
            X509v3 Authority Key Identifier: 
                keyid:BE:CA:53:AC:65:89:18:02:1E:F6:53:A2:50:12:94:60:EC:CC:05:FA
                DirName:/CN=CHENNAICA_CA/C=IN/O=CITRIX/OU=ANG/ST=KA/emailAddress=CHENNAICA_CA@CHENNAICA_mail.com
                serial:87:FB:C4:D4:5E:46:56:70

            Authority Information Access: 
                OCSP - URI:http://172.19.10.1/responderpath

    Signature Algorithm: sha256WithRSAEncryption
         0f:c6:2b:13:0b:c5:e1:36:16:52:ec:bb:6c:ab:bc:84:4f:1c:
         e7:96:7d:d9:8b:07:03:1d:28:7b:0f:27:91:1a:b2:84:2a:5e:
         89:1c:83:fc:7f:29:fe:8f:85:ec:2a:85:56:c8:93:d6:3a:03:
         eb:80:50:17:4e:9e:23:39:47:92:4b:61:5a:22:06:1b:11:81:
         55:31:40:59:8f:f8:42:e5:6c:01:42:a7:57:73:3c:20:58:32:
         e2:aa:a6:36:06:ef:62:c0:01:18:38:8d:8d:df:91:92:fd:a0:
         c4:5c:27:c8:90:22:46:45:a5:0d:a3:a9:57:25:a2:b7:a7:61:
         57:43:a8:0a:a1:08:af:fe:0b:7f:ae:e6:db:66:99:69:04:5e:
         3b:93:73:8f:b3:29:56:bf:d9:43:92:fc:de:8f:64:7f:8a:32:
         39:5b:e9:5b:69:7e:0f:78:8a:16:60:e5:4b:3d:3c:c4:0d:c8:
         d8:02:07:c3:08:f0:47:c5:ac:cc:17:a0:1b:a4:dd:8e:58:61:
         43:61:f7:77:8f:ef:87:1c:c9:1d:02:b2:71:f9:8e:e3:06:f3:
         81:ad:03:82:ef:2c:9a:ab:16:05:21:09:73:d8:32:c4:67:ad:
         fa:83:06:3d:4c:f6:bf:2f:6c:d2:22:2f:e0:70:ec:e6:13:e0:
         7e:26:75:8a
-----BEGIN CERTIFICATE-----
MIIEozCCA4ugAwIBAgIGCgsMDQ4nMA0GCSqGSIb3DQEBCwUAMIGAMRUwEwYDVQQD
FAxDSEVOTkFJQ0FfQ0ExCzAJBgNVBAYTAklOMQ8wDQYDVQQKEwZDSVRSSVgxDDAK
BgNVBAsTA0FORzELMAkGA1UECBMCS0ExLjAsBgkqhkiG9w0BCQEWH0NIRU5OQUlD
QV9DQUBDSEVOTkFJQ0FfbWFpbC5jb20wHhcNMTYwNzA4MDQzMzU1WhcNMjYwNzA2
MDQzMzU1WjB0MQswCQYDVQQIEwJLQTELMAkGA1UEBhMCSU4xHTAbBgNVBAMUFDEy
NV9DSEVOTkFJQ0Ffc2VydmVyMSgwJgYJKoZIhvcNAQkBFhkxMjVfQ0hFTk5BSUNB
QHRlc3RfY2EuY29tMQ8wDQYDVQQKEwZDSVRSSVgwggEiMA0GCSqGSIb3DQEBAQUA
A4IBDwAwggEKAoIBAQCwD0cYW9FXdJAbo/wGtre1USUSaJM2qk5/ewYsnErK++/7
tn6/pGGKXOzuq5aDaaxTLRwM7ztYT4Fp2PqDjZOcnI7Q8qJGgb1LS20wuxMhqvoH
nUf9T7ShH0FXCEwLZqILpet5efqJZxJbeu5zAyqM7PGKMNFsuNzleWdynhJKxDR/
0uTBvCjxpXhhBvOqHg4iialZqHsUHvJKh5e7es/LkeSh+apXuVcgmaPo19E5pyLe
Pfn+lU1FSKSUuE3DX9LB+5U0C3MZNvkay0lafxTOMm48Lpyz12QvITJtMs0yDHYd
MQ9l0oras2Y7FoHxxxGu7QN3v/0y8zca0N9zDaoLAgMBAAGjggEsMIIBKDARBglg
hkgBhvhCAQEEBAMCBkAwHQYDVR0OBBYEFM5STyXsHm4d1x267WsLT/QFEvxXMIG1
BgNVHSMEga0wgaqAFL7KU6xliRgCHvZTolASlGDszAX6oYGGpIGDMIGAMRUwEwYD
VQQDFAxDSEVOTkFJQ0FfQ0ExCzAJBgNVBAYTAklOMQ8wDQYDVQQKEwZDSVRSSVgx
DDAKBgNVBAsTA0FORzELMAkGA1UECBMCS0ExLjAsBgkqhkiG9w0BCQEWH0NIRU5O
QUlDQV9DQUBDSEVOTkFJQ0FfbWFpbC5jb22CCQCH+8TUXkZWcDA8BggrBgEFBQcB
AQQwMC4wLAYIKwYBBQUHMAGGIGh0dHA6Ly8xNzIuMTkuMTAuMS9yZXNwb25kZXJw
YXRoMA0GCSqGSIb3DQEBCwUAA4IBAQAPxisTC8XhNhZS7Ltsq7yETxznln3ZiwcD
HSh7DyeRGrKEKl6JHIP8fyn+j4XsKoVWyJPWOgPrgFAXTp4jOUeSS2FaIgYbEYFV
MUBZj/hC5WwBQqdXczwgWDLiqqY2Bu9iwAEYOI2N35GS/aDEXCfIkCJGRaUNo6lX
JaK3p2FXQ6gKoQiv/gt/rubbZplpBF47k3OPsylWv9lDkvzej2R/ijI5W+lbaX4P
eIoWYOVLPTzEDcjYAgfDCPBHxazMF6AbpN2OWGFDYfd3j++HHMkdArJx+Y7jBvOB
rQOC7yyaqxYFIQlz2DLEZ636gwY9TPa/L2zSIi/gcOzmE+B+JnWK
-----END CERTIFICATE-----
