Certificate:
    Data:
        Version: 3 (0x2)
        Serial Number: 11042563100199 (0xa0b0c0d0e27)
    Signature Algorithm: sha256WithRSAEncryption
        Issuer: CN=BANGALORECA_CA, C=IN, O=CITRIX, OU=ANG, ST=KA/emailAddress=BANGALORECA_CA@BANGALORECA_mail.com
        Validity
            Not Before: Jul  8 04:31:26 2016 GMT
            Not After : Jul  6 04:31:26 2026 GMT
        Subject: ST=KA, C=IN, CN=125_BANGALORECA_server/emailAddress=125_BANGALORECA@test_ca.com, O=CITRIX
        Subject Public Key Info:
            Public Key Algorithm: rsaEncryption
                Public-Key: (2048 bit)
                Modulus:
                    00:d2:04:70:d6:56:d8:f2:b1:d9:52:ae:20:0a:14:
                    5d:f4:c7:b7:3f:a3:b5:af:1d:22:92:2b:c6:7e:8c:
                    b6:5a:c7:ab:04:6a:6b:bc:46:ad:46:4a:a9:a4:f1:
                    fc:55:e8:53:62:ce:cb:c1:87:53:4a:73:f1:73:6b:
                    ba:8f:f2:81:08:72:fd:d4:3c:61:eb:d5:6d:5f:f7:
                    9a:b7:6b:c7:57:08:c8:bf:51:3c:24:eb:59:ad:b7:
                    f2:2e:c0:c4:e7:17:db:63:3a:34:f7:17:7b:89:a9:
                    31:c5:89:58:fd:04:ab:ac:15:93:89:8d:6f:23:1a:
                    46:d1:9e:a5:20:06:2a:ba:1d:f6:e5:51:fa:85:55:
                    c9:e6:10:22:68:d9:f1:12:dc:b7:64:cb:58:00:8d:
                    e1:98:9f:bf:14:a4:22:99:27:b3:b7:21:0e:a1:f9:
                    a6:65:65:cd:ca:9c:55:b0:50:91:c4:87:44:58:77:
                    12:35:b8:7d:98:88:6d:c4:8c:59:8f:15:a6:d4:b6:
                    70:08:45:e7:43:23:8b:a0:18:bf:2b:55:98:7e:1a:
                    d2:0e:d8:92:84:a8:7d:f6:69:c7:19:98:bb:a3:db:
                    e2:5e:c0:67:cf:f5:d8:dc:8a:6f:41:d6:fc:23:b3:
                    3c:18:a0:dc:4d:fb:f8:7a:bc:b8:f4:74:8c:54:22:
                    68:7b
                Exponent: 65537 (0x10001)
        X509v3 extensions:
            Netscape Cert Type: 
                SSL Server
            X509v3 Subject Key Identifier: 
                04:F6:AD:63:37:FD:77:6F:26:7A:20:F3:79:71:4B:D7:F5:17:DA:3E
            X509v3 Authority Key Identifier: 
                keyid:3B:D6:D1:53:18:87:05:22:BB:EE:C3:0F:F5:CE:0F:6B:A2:93:A7:B8
                DirName:/CN=BANGALORECA_CA/C=IN/O=CITRIX/OU=ANG/ST=KA/emailAddress=BANGALORECA_CA@BANGALORECA_mail.com
                serial:A1:AC:B4:DA:46:53:58:40

            Authority Information Access: 
                OCSP - URI:http://172.16.10.1/responderpath

    Signature Algorithm: sha256WithRSAEncryption
         24:27:fd:9b:b2:3c:68:9c:5c:42:25:c5:6c:e9:ac:3f:67:c6:
         97:e9:60:2d:d0:13:82:44:91:ad:58:17:26:29:a7:e6:85:fb:
         37:b3:b5:c3:69:f1:3b:b7:fd:6d:af:a9:5d:f0:10:b0:88:21:
         77:bf:dd:a1:ec:af:6f:0d:62:da:73:5d:fb:81:96:ef:25:d2:
         94:92:e2:08:7a:62:ad:93:8e:c3:de:57:b7:2d:eb:db:bc:55:
         94:77:fa:84:4b:4b:58:ac:e4:70:55:09:db:ab:2e:5d:dc:2e:
         d6:2e:94:6d:2d:14:c1:63:dd:97:fc:a1:c6:45:9b:35:9e:71:
         83:3c:7e:8b:e8:d3:ba:82:86:b6:d9:cc:de:41:df:ab:a2:40:
         14:aa:48:40:82:93:42:d2:7d:a5:51:d5:58:e3:37:cf:3f:40:
         d5:72:15:98:50:ee:ee:5c:d3:16:a1:81:f4:a5:90:94:77:19:
         e4:fb:f5:c9:1e:56:01:c9:ff:68:44:cf:12:d9:8f:7c:00:94:
         5e:62:99:86:eb:7c:bd:6b:da:b7:8b:ea:39:04:a2:36:3d:fe:
         f3:af:fe:0c:ad:bd:8e:ca:9e:d3:f4:7f:45:af:29:da:15:53:
         ed:9a:c7:13:cf:a0:4f:26:4c:d4:58:82:4a:75:43:18:6d:08:
         6a:dd:0f:46
-----BEGIN CERTIFICATE-----
MIIEszCCA5ugAwIBAgIGCgsMDQ4nMA0GCSqGSIb3DQEBCwUAMIGGMRcwFQYDVQQD
FA5CQU5HQUxPUkVDQV9DQTELMAkGA1UEBhMCSU4xDzANBgNVBAoTBkNJVFJJWDEM
MAoGA1UECxMDQU5HMQswCQYDVQQIEwJLQTEyMDAGCSqGSIb3DQEJARYjQkFOR0FM
T1JFQ0FfQ0FAQkFOR0FMT1JFQ0FfbWFpbC5jb20wHhcNMTYwNzA4MDQzMTI2WhcN
MjYwNzA2MDQzMTI2WjB4MQswCQYDVQQIEwJLQTELMAkGA1UEBhMCSU4xHzAdBgNV
BAMUFjEyNV9CQU5HQUxPUkVDQV9zZXJ2ZXIxKjAoBgkqhkiG9w0BCQEWGzEyNV9C
QU5HQUxPUkVDQUB0ZXN0X2NhLmNvbTEPMA0GA1UEChMGQ0lUUklYMIIBIjANBgkq
hkiG9w0BAQEFAAOCAQ8AMIIBCgKCAQEA0gRw1lbY8rHZUq4gChRd9Me3P6O1rx0i
kivGfoy2WserBGprvEatRkqppPH8VehTYs7LwYdTSnPxc2u6j/KBCHL91Dxh69Vt
X/eat2vHVwjIv1E8JOtZrbfyLsDE5xfbYzo09xd7iakxxYlY/QSrrBWTiY1vIxpG
0Z6lIAYquh325VH6hVXJ5hAiaNnxEty3ZMtYAI3hmJ+/FKQimSeztyEOofmmZWXN
ypxVsFCRxIdEWHcSNbh9mIhtxIxZjxWm1LZwCEXnQyOLoBi/K1WYfhrSDtiShKh9
9mnHGZi7o9viXsBnz/XY3IpvQdb8I7M8GKDcTfv4ery49HSMVCJoewIDAQABo4IB
MjCCAS4wEQYJYIZIAYb4QgEBBAQDAgZAMB0GA1UdDgQWBBQE9q1jN/13byZ6IPN5
cUvX9RfaPjCBuwYDVR0jBIGzMIGwgBQ71tFTGIcFIrvuww/1zg9ropOnuKGBjKSB
iTCBhjEXMBUGA1UEAxQOQkFOR0FMT1JFQ0FfQ0ExCzAJBgNVBAYTAklOMQ8wDQYD
VQQKEwZDSVRSSVgxDDAKBgNVBAsTA0FORzELMAkGA1UECBMCS0ExMjAwBgkqhkiG
9w0BCQEWI0JBTkdBTE9SRUNBX0NBQEJBTkdBTE9SRUNBX21haWwuY29tggkAoay0
2kZTWEAwPAYIKwYBBQUHAQEEMDAuMCwGCCsGAQUFBzABhiBodHRwOi8vMTcyLjE2
LjEwLjEvcmVzcG9uZGVycGF0aDANBgkqhkiG9w0BAQsFAAOCAQEAJCf9m7I8aJxc
QiXFbOmsP2fGl+lgLdATgkSRrVgXJimn5oX7N7O1w2nxO7f9ba+pXfAQsIghd7/d
oeyvbw1i2nNd+4GW7yXSlJLiCHpirZOOw95Xty3r27xVlHf6hEtLWKzkcFUJ26su
Xdwu1i6UbS0UwWPdl/yhxkWbNZ5xgzx+i+jTuoKGttnM3kHfq6JAFKpIQIKTQtJ9
pVHVWOM3zz9A1XIVmFDu7lzTFqGB9KWQlHcZ5Pv1yR5WAcn/aETPEtmPfACUXmKZ
hut8vWvat4vqOQSiNj3+86/+DK29jsqe0/R/Ra8p2hVT7ZrHE8+gTyZM1FiCSnVD
GG0Iat0PRg==
-----END CERTIFICATE-----
