Certificate:
    Data:
        Version: 3 (0x2)
        Serial Number: 11042563100199 (0xa0b0c0d0e27)
    Signature Algorithm: sha256WithRSAEncryption
        Issuer: CN=BHOPALCA_CA, C=IN, O=CITRIX, OU=ANG, ST=KA/emailAddress=BHOPALCA_CA@BHOPALCA_mail.com
        Validity
            Not Before: Jul  8 04:32:39 2016 GMT
            Not After : Jul  6 04:32:39 2026 GMT
        Subject: ST=KA, C=IN, CN=125_BHOPALCA_server/emailAddress=125_BHOPALCA@test_ca.com, O=CITRIX
        Subject Public Key Info:
            Public Key Algorithm: rsaEncryption
                Public-Key: (2048 bit)
                Modulus:
                    00:dc:66:e1:16:b2:63:19:02:4e:a7:23:4f:23:ec:
                    ae:84:4b:dd:ff:e5:b0:9a:12:77:5c:4e:cc:23:90:
                    0a:e2:c5:a6:dc:85:a6:64:14:2f:ac:23:c8:12:a2:
                    e2:50:0a:56:d6:c6:cb:2e:74:8c:bc:9b:33:64:47:
                    37:0a:b5:4c:77:e5:01:b3:12:16:69:d9:4d:e5:b9:
                    c3:99:45:45:b6:7b:04:ba:f2:4e:91:8f:87:2f:38:
                    51:b3:8d:18:44:be:93:b4:b1:7b:a1:28:c2:63:cf:
                    1e:42:68:cc:68:0d:e5:44:80:7e:92:30:d9:00:e3:
                    02:82:a0:1d:a9:5a:96:39:64:ab:25:2d:3c:5b:ea:
                    8c:8b:0c:58:f1:0c:7d:78:86:b6:ff:ab:d2:ab:70:
                    19:7e:38:cb:e7:da:e6:5d:bc:b0:d7:46:40:30:1f:
                    77:d5:34:8b:29:ec:9e:a5:a2:bd:0d:77:30:e1:d1:
                    fb:cd:0b:5d:2d:a3:ed:87:79:1f:52:0b:54:41:6f:
                    33:3f:ce:0f:6c:b9:02:1f:73:a8:2e:17:26:17:35:
                    54:c4:46:07:46:7d:81:cd:29:42:70:ee:c0:b5:e4:
                    34:53:f4:6f:49:7b:9f:44:ca:f4:7b:38:1c:59:68:
                    f4:d2:b8:9c:5c:46:af:61:84:dc:b8:d5:e1:1e:ba:
                    11:ab
                Exponent: 65537 (0x10001)
        X509v3 extensions:
            Netscape Cert Type: 
                SSL Server
            X509v3 Subject Key Identifier: 
                64:75:C8:64:39:24:A0:DD:DF:C9:F3:0B:9F:B6:08:2E:A6:91:F6:2E
            X509v3 Authority Key Identifier: 
                keyid:A6:66:0E:59:0F:3C:5C:11:35:B2:B3:99:59:A9:D3:A6:B1:5E:95:D2
                DirName:/CN=BHOPALCA_CA/C=IN/O=CITRIX/OU=ANG/ST=KA/emailAddress=BHOPALCA_CA@BHOPALCA_mail.com
                serial:BE:89:55:F3:65:28:17:9A

            Authority Information Access: 
                OCSP - URI:http://172.17.10.1/responderpath

    Signature Algorithm: sha256WithRSAEncryption
         06:6e:cf:b6:86:f9:b3:f6:5c:4e:30:18:4a:fc:a4:73:72:b0:
         7d:23:70:c9:55:36:77:b6:64:19:53:98:a6:eb:60:00:68:25:
         c5:79:5f:61:f5:32:e7:f2:a2:8c:1e:cc:59:6a:67:ec:be:a8:
         23:f0:15:f8:9a:ff:8e:70:11:e8:ee:a4:59:35:9f:22:88:96:
         3c:91:a5:f4:9b:1d:13:05:66:b0:b2:46:b5:69:df:0a:a4:cf:
         9c:03:0c:19:f7:e1:e9:68:5d:08:e8:b7:0c:d7:d2:a0:8b:be:
         58:13:4b:39:a2:ef:65:07:f6:16:27:3c:db:9e:00:18:06:f9:
         e6:d5:2d:34:ca:88:5b:42:d8:79:e4:58:52:57:b2:7c:eb:66:
         f5:32:6f:d4:83:84:25:92:be:a3:9d:8e:91:10:e0:43:13:d4:
         d5:6d:14:0b:2a:f2:c1:d2:57:be:2b:a6:ca:30:ad:cc:21:3b:
         0e:b4:be:15:d7:af:85:9f:e2:ee:02:27:fc:8a:82:a4:4f:af:
         6a:cd:f6:46:ea:83:00:8c:77:8d:0f:bf:51:4e:2b:a7:6a:6e:
         33:4b:99:2c:fa:3b:9b:75:77:d4:9e:4a:cc:61:e4:db:be:28:
         58:86:db:12:61:6c:32:57:40:a0:7f:66:eb:7a:ab:49:fd:5d:
         71:52:2b:b4
-----BEGIN CERTIFICATE-----
MIIEmDCCA4CgAwIBAgIGCgsMDQ4nMA0GCSqGSIb3DQEBCwUAMH0xFDASBgNVBAMU
C0JIT1BBTENBX0NBMQswCQYDVQQGEwJJTjEPMA0GA1UEChMGQ0lUUklYMQwwCgYD
VQQLEwNBTkcxCzAJBgNVBAgTAktBMSwwKgYJKoZIhvcNAQkBFh1CSE9QQUxDQV9D
QUBCSE9QQUxDQV9tYWlsLmNvbTAeFw0xNjA3MDgwNDMyMzlaFw0yNjA3MDYwNDMy
MzlaMHIxCzAJBgNVBAgTAktBMQswCQYDVQQGEwJJTjEcMBoGA1UEAxQTMTI1X0JI
T1BBTENBX3NlcnZlcjEnMCUGCSqGSIb3DQEJARYYMTI1X0JIT1BBTENBQHRlc3Rf
Y2EuY29tMQ8wDQYDVQQKEwZDSVRSSVgwggEiMA0GCSqGSIb3DQEBAQUAA4IBDwAw
ggEKAoIBAQDcZuEWsmMZAk6nI08j7K6ES93/5bCaEndcTswjkArixabchaZkFC+s
I8gSouJQClbWxssudIy8mzNkRzcKtUx35QGzEhZp2U3lucOZRUW2ewS68k6Rj4cv
OFGzjRhEvpO0sXuhKMJjzx5CaMxoDeVEgH6SMNkA4wKCoB2pWpY5ZKslLTxb6oyL
DFjxDH14hrb/q9KrcBl+OMvn2uZdvLDXRkAwH3fVNIsp7J6lor0NdzDh0fvNC10t
o+2HeR9SC1RBbzM/zg9suQIfc6guFyYXNVTERgdGfYHNKUJw7sC15DRT9G9Je59E
yvR7OBxZaPTSuJxcRq9hhNy41eEeuhGrAgMBAAGjggEnMIIBIzARBglghkgBhvhC
AQEEBAMCBkAwHQYDVR0OBBYEFGR1yGQ5JKDd38nzC5+2CC6mkfYuMIGwBgNVHSME
gagwgaWAFKZmDlkPPFwRNbKzmVmp06axXpXSoYGBpH8wfTEUMBIGA1UEAxQLQkhP
UEFMQ0FfQ0ExCzAJBgNVBAYTAklOMQ8wDQYDVQQKEwZDSVRSSVgxDDAKBgNVBAsT
A0FORzELMAkGA1UECBMCS0ExLDAqBgkqhkiG9w0BCQEWHUJIT1BBTENBX0NBQEJI
T1BBTENBX21haWwuY29tggkAvolV82UoF5owPAYIKwYBBQUHAQEEMDAuMCwGCCsG
AQUFBzABhiBodHRwOi8vMTcyLjE3LjEwLjEvcmVzcG9uZGVycGF0aDANBgkqhkiG
9w0BAQsFAAOCAQEABm7Ptob5s/ZcTjAYSvykc3KwfSNwyVU2d7ZkGVOYputgAGgl
xXlfYfUy5/KijB7MWWpn7L6oI/AV+Jr/jnAR6O6kWTWfIoiWPJGl9JsdEwVmsLJG
tWnfCqTPnAMMGffh6WhdCOi3DNfSoIu+WBNLOaLvZQf2Fic8254AGAb55tUtNMqI
W0LYeeRYUleyfOtm9TJv1IOEJZK+o52OkRDgQxPU1W0UCyrywdJXviumyjCtzCE7
DrS+FdevhZ/i7gIn/IqCpE+vas32RuqDAIx3jQ+/UU4rp2puM0uZLPo7m3V31J5K
zGHk274oWIbbEmFsMldAoH9m63qrSf1dcVIrtA==
-----END CERTIFICATE-----
