Certificate:
    Data:
        Version: 3 (0x2)
        Serial Number: 11042563100199 (0xa0b0c0d0e27)
    Signature Algorithm: sha256WithRSAEncryption
        Issuer: CN=OOTYCA_CA, C=IN, O=CITRIX, OU=ANG, ST=KA/emailAddress=OOTYCA_CA@OOTYCA_mail.com
        Validity
            Not Before: Jul  8 04:37:09 2016 GMT
            Not After : Jul  6 04:37:09 2026 GMT
        Subject: ST=KA, C=IN, CN=125_OOTYCA_server/emailAddress=125_OOTYCA@test_ca.com, O=CITRIX
        Subject Public Key Info:
            Public Key Algorithm: rsaEncryption
                Public-Key: (2048 bit)
                Modulus:
                    00:c2:fd:06:08:d9:2e:ac:7f:88:5a:39:04:84:30:
                    74:7d:c8:30:ba:32:f8:e7:de:be:45:97:b9:c1:29:
                    c9:ee:f1:4d:60:f9:77:92:7a:00:aa:82:b6:3e:89:
                    4f:d2:40:b3:c1:91:e7:3d:c3:5c:70:a0:01:39:6b:
                    e1:e3:84:92:e1:d2:d8:88:65:e1:76:bf:05:08:a5:
                    8f:c6:dd:ee:42:a3:c5:09:42:f0:53:2c:cc:c6:ea:
                    c6:21:57:da:87:a5:5c:95:8e:0f:c0:5b:21:0c:10:
                    46:3d:4d:3b:8d:5d:9b:63:e7:c0:0f:a6:7b:ac:31:
                    99:43:48:79:de:64:00:96:fb:9b:44:2c:53:f2:e1:
                    86:c6:ed:23:4b:bc:e4:3d:9a:7e:c1:a7:fc:10:e6:
                    8a:aa:54:73:ad:37:8c:8c:19:9d:bc:e1:52:2f:d9:
                    9a:04:d2:27:27:30:53:0b:da:c6:91:02:cb:93:ac:
                    e8:a0:c2:c4:1d:06:0b:47:62:41:d2:92:93:07:11:
                    7a:9b:af:55:70:a4:ae:25:ac:72:1a:8d:d2:d6:f7:
                    2b:f6:c6:10:67:df:48:78:e6:a8:f9:ef:01:d3:1a:
                    7c:1e:d0:d8:4c:b9:26:45:23:f5:0f:54:95:88:50:
                    81:f8:25:7a:8a:ca:a3:12:46:c6:58:fc:08:d5:3b:
                    69:ed
                Exponent: 65537 (0x10001)
        X509v3 extensions:
            Netscape Cert Type: 
                SSL Server
            X509v3 Subject Key Identifier: 
                33:61:7E:AF:55:36:AA:05:DD:9E:76:B1:F6:56:A4:D3:87:95:1D:CD
            X509v3 Authority Key Identifier: 
                keyid:9E:A0:B1:FE:A8:B8:21:30:13:39:F2:C3:C1:A8:43:CB:5D:73:FC:B5
                DirName:/CN=OOTYCA_CA/C=IN/O=CITRIX/OU=ANG/ST=KA/emailAddress=OOTYCA_CA@OOTYCA_mail.com
                serial:AA:C2:AB:74:21:09:60:FF

            Authority Information Access: 
                OCSP - URI:http://172.25.10.1/responderpath

    Signature Algorithm: sha256WithRSAEncryption
         66:29:49:86:d2:02:01:04:b1:43:a9:57:c0:f9:e1:16:df:d0:
         ac:c6:75:95:69:70:38:bf:40:cf:63:66:73:2c:eb:8a:2b:be:
         fe:bc:70:41:18:e0:7a:89:65:03:40:ce:2e:24:8f:9f:9b:c8:
         66:70:d6:03:2e:11:26:0a:2f:b7:16:b5:e0:9d:20:c6:6d:a0:
         b7:61:10:ba:ab:6b:20:77:ac:f1:ab:2e:9d:1d:51:6e:05:bd:
         a4:fd:fa:f4:0c:d7:68:1d:12:e4:3d:1f:42:a4:f2:be:db:af:
         20:07:f2:d3:a4:9c:f3:c9:3b:73:2b:de:c7:89:96:73:48:0f:
         c4:77:0c:84:9c:6f:75:7f:57:cc:0e:57:22:2b:c0:06:48:18:
         e0:c8:3d:da:e6:ee:a8:d9:07:a3:42:58:94:c3:02:89:1d:93:
         ea:8a:ce:f7:4e:97:f2:2d:97:29:e6:08:26:40:4a:6c:39:98:
         d3:2a:5c:66:0c:de:cf:bb:34:15:c6:c7:cc:f3:27:31:5b:1c:
         22:c5:a4:54:ec:bd:34:c7:67:c3:f7:96:92:e3:75:0a:c4:43:
         7b:bb:ca:87:b1:aa:84:66:cf:53:a4:36:72:ff:d8:a1:f3:42:
         a5:c9:57:d6:40:07:f5:9f:28:c2:14:aa:9c:f3:b5:dd:eb:f3:
         4b:9d:72:ed
-----BEGIN CERTIFICATE-----
MIIEhzCCA2+gAwIBAgIGCgsMDQ4nMA0GCSqGSIb3DQEBCwUAMHcxEjAQBgNVBAMU
CU9PVFlDQV9DQTELMAkGA1UEBhMCSU4xDzANBgNVBAoTBkNJVFJJWDEMMAoGA1UE
CxMDQU5HMQswCQYDVQQIEwJLQTEoMCYGCSqGSIb3DQEJARYZT09UWUNBX0NBQE9P
VFlDQV9tYWlsLmNvbTAeFw0xNjA3MDgwNDM3MDlaFw0yNjA3MDYwNDM3MDlaMG4x
CzAJBgNVBAgTAktBMQswCQYDVQQGEwJJTjEaMBgGA1UEAxQRMTI1X09PVFlDQV9z
ZXJ2ZXIxJTAjBgkqhkiG9w0BCQEWFjEyNV9PT1RZQ0FAdGVzdF9jYS5jb20xDzAN
BgNVBAoTBkNJVFJJWDCCASIwDQYJKoZIhvcNAQEBBQADggEPADCCAQoCggEBAML9
BgjZLqx/iFo5BIQwdH3IMLoy+OfevkWXucEpye7xTWD5d5J6AKqCtj6JT9JAs8GR
5z3DXHCgATlr4eOEkuHS2Ihl4Xa/BQilj8bd7kKjxQlC8FMszMbqxiFX2oelXJWO
D8BbIQwQRj1NO41dm2PnwA+me6wxmUNIed5kAJb7m0QsU/LhhsbtI0u85D2afsGn
/BDmiqpUc603jIwZnbzhUi/ZmgTSJycwUwvaxpECy5Os6KDCxB0GC0diQdKSkwcR
epuvVXCkriWschqN0tb3K/bGEGffSHjmqPnvAdMafB7Q2Ey5JkUj9Q9UlYhQgfgl
eorKoxJGxlj8CNU7ae0CAwEAAaOCASAwggEcMBEGCWCGSAGG+EIBAQQEAwIGQDAd
BgNVHQ4EFgQUM2F+r1U2qgXdnnax9lak04eVHc0wgakGA1UdIwSBoTCBnoAUnqCx
/qi4ITATOfLDwahDy11z/LWhe6R5MHcxEjAQBgNVBAMUCU9PVFlDQV9DQTELMAkG
A1UEBhMCSU4xDzANBgNVBAoTBkNJVFJJWDEMMAoGA1UECxMDQU5HMQswCQYDVQQI
EwJLQTEoMCYGCSqGSIb3DQEJARYZT09UWUNBX0NBQE9PVFlDQV9tYWlsLmNvbYIJ
AKrCq3QhCWD/MDwGCCsGAQUFBwEBBDAwLjAsBggrBgEFBQcwAYYgaHR0cDovLzE3
Mi4yNS4xMC4xL3Jlc3BvbmRlcnBhdGgwDQYJKoZIhvcNAQELBQADggEBAGYpSYbS
AgEEsUOpV8D54Rbf0KzGdZVpcDi/QM9jZnMs64orvv68cEEY4HqJZQNAzi4kj5+b
yGZw1gMuESYKL7cWteCdIMZtoLdhELqrayB3rPGrLp0dUW4FvaT9+vQM12gdEuQ9
H0Kk8r7bryAH8tOknPPJO3Mr3seJlnNID8R3DIScb3V/V8wOVyIrwAZIGODIPdrm
7qjZB6NCWJTDAokdk+qKzvdOl/ItlynmCCZASmw5mNMqXGYM3s+7NBXGx8zzJzFb
HCLFpFTsvTTHZ8P3lpLjdQrEQ3u7yoexqoRmz1OkNnL/2KHzQqXJV9ZAB/WfKMIU
qpzztd3r80udcu0=
-----END CERTIFICATE-----
