Certificate:
    Data:
        Version: 3 (0x2)
        Serial Number: 11042563100199 (0xa0b0c0d0e27)
    Signature Algorithm: sha256WithRSAEncryption
        Issuer: CN=KOCHICA_CA, C=IN, O=CITRIX, OU=ANG, ST=KA/emailAddress=KOCHICA_CA@KOCHICA_mail.com
        Validity
            Not Before: Jul  8 04:35:23 2016 GMT
            Not After : Jul  6 04:35:23 2026 GMT
        Subject: ST=KA, C=IN, CN=125_KOCHICA_server/emailAddress=125_KOCHICA@test_ca.com, O=CITRIX
        Subject Public Key Info:
            Public Key Algorithm: rsaEncryption
                Public-Key: (2048 bit)
                Modulus:
                    00:f1:50:f5:14:33:ec:de:13:d0:61:a8:e5:00:a5:
                    e1:2e:8b:bc:1f:7d:3f:ae:9c:10:ff:65:71:41:be:
                    d1:63:f4:75:31:dd:4e:7c:98:e6:0d:f8:7d:1b:d6:
                    e0:cc:38:be:7a:49:1d:96:ba:6d:cc:00:cc:46:bb:
                    f4:8f:b9:90:0c:94:a2:e8:c6:27:16:a4:b7:23:ac:
                    14:73:6a:ad:93:b6:52:00:a0:a2:26:b8:90:3d:30:
                    a1:40:53:f3:66:72:46:67:fd:a2:40:04:2b:71:59:
                    14:fc:ef:43:1b:98:51:71:f9:79:15:38:11:e6:15:
                    72:da:e4:19:bd:0e:9c:b4:24:87:ac:6b:08:09:77:
                    33:9c:42:49:66:7f:79:5e:6f:29:28:0f:7e:ff:44:
                    18:01:e5:07:87:ee:79:ff:e1:54:72:eb:a0:12:6a:
                    80:80:9d:e2:b9:05:28:06:93:a2:1f:9d:f9:28:21:
                    19:8f:20:bc:23:21:30:e3:eb:fc:a9:28:9d:d4:fe:
                    ae:2d:f4:78:56:45:ad:53:b9:c5:75:ba:ac:32:97:
                    af:8d:67:3c:da:17:93:5b:ef:db:85:2c:47:09:e5:
                    a2:5f:da:50:df:da:66:2c:85:76:59:f7:fd:38:47:
                    5c:03:de:64:11:05:08:8e:b9:8a:13:f6:4f:1d:20:
                    d2:75
                Exponent: 65537 (0x10001)
        X509v3 extensions:
            Netscape Cert Type: 
                SSL Server
            X509v3 Subject Key Identifier: 
                43:C4:59:19:F0:74:FF:5C:F3:94:E0:5B:A1:2F:95:B8:5A:B1:B1:1D
            X509v3 Authority Key Identifier: 
                keyid:BD:BB:95:76:5C:F9:2D:21:29:42:22:FD:91:AF:B8:39:24:AA:7E:37
                DirName:/CN=KOCHICA_CA/C=IN/O=CITRIX/OU=ANG/ST=KA/emailAddress=KOCHICA_CA@KOCHICA_mail.com
                serial:E1:10:ED:B2:3C:3D:E3:71

            Authority Information Access: 
                OCSP - URI:http://172.22.10.1/responderpath

    Signature Algorithm: sha256WithRSAEncryption
         2b:d1:b3:a9:aa:ea:4c:4b:49:59:d7:fd:63:60:b4:40:e0:ee:
         92:e5:9b:68:c7:5c:92:55:03:96:ec:08:ef:d9:6e:d0:30:1a:
         04:8e:92:ac:bc:6e:92:f6:31:2d:03:8e:44:a9:05:d2:a1:c7:
         8f:c2:80:bd:60:93:b6:a8:77:b0:81:b1:f4:10:b4:52:b1:f8:
         10:43:cf:49:6b:f3:39:ee:08:f8:36:27:a2:34:63:96:6e:74:
         37:11:fd:f1:8d:87:26:c2:24:30:ff:d7:6f:11:aa:14:24:da:
         fa:6e:de:ef:dc:9a:82:86:48:44:c1:e1:b7:46:6a:71:1a:97:
         10:b3:67:ea:6b:61:4d:77:fb:23:05:7f:96:ee:46:9f:01:1e:
         c4:0e:bc:ac:ed:08:21:77:f1:cb:0d:52:c2:50:b4:64:d8:6a:
         29:6e:08:17:ab:25:02:19:b6:63:f4:8e:4f:3c:46:2e:0f:07:
         57:dc:12:13:6f:99:60:60:1e:99:2a:05:6d:a6:67:e2:d0:87:
         1f:bc:b7:66:7f:fe:0a:c4:4c:f9:55:61:e3:d1:0d:e6:42:33:
         62:a2:27:0d:c5:30:a7:c0:51:c3:89:1c:66:c5:5e:3c:86:89:
         f0:21:c0:bb:d7:df:de:74:b8:c3:02:01:df:c9:35:20:2e:49:
         1d:0a:5c:82
-----BEGIN CERTIFICATE-----
MIIEjzCCA3egAwIBAgIGCgsMDQ4nMA0GCSqGSIb3DQEBCwUAMHoxEzARBgNVBAMU
CktPQ0hJQ0FfQ0ExCzAJBgNVBAYTAklOMQ8wDQYDVQQKEwZDSVRSSVgxDDAKBgNV
BAsTA0FORzELMAkGA1UECBMCS0ExKjAoBgkqhkiG9w0BCQEWG0tPQ0hJQ0FfQ0FA
S09DSElDQV9tYWlsLmNvbTAeFw0xNjA3MDgwNDM1MjNaFw0yNjA3MDYwNDM1MjNa
MHAxCzAJBgNVBAgTAktBMQswCQYDVQQGEwJJTjEbMBkGA1UEAxQSMTI1X0tPQ0hJ
Q0Ffc2VydmVyMSYwJAYJKoZIhvcNAQkBFhcxMjVfS09DSElDQUB0ZXN0X2NhLmNv
bTEPMA0GA1UEChMGQ0lUUklYMIIBIjANBgkqhkiG9w0BAQEFAAOCAQ8AMIIBCgKC
AQEA8VD1FDPs3hPQYajlAKXhLou8H30/rpwQ/2VxQb7RY/R1Md1OfJjmDfh9G9bg
zDi+ekkdlrptzADMRrv0j7mQDJSi6MYnFqS3I6wUc2qtk7ZSAKCiJriQPTChQFPz
ZnJGZ/2iQAQrcVkU/O9DG5hRcfl5FTgR5hVy2uQZvQ6ctCSHrGsICXcznEJJZn95
Xm8pKA9+/0QYAeUHh+55/+FUcuugEmqAgJ3iuQUoBpOiH535KCEZjyC8IyEw4+v8
qSid1P6uLfR4VkWtU7nFdbqsMpevjWc82heTW+/bhSxHCeWiX9pQ39pmLIV2Wff9
OEdcA95kEQUIjrmKE/ZPHSDSdQIDAQABo4IBIzCCAR8wEQYJYIZIAYb4QgEBBAQD
AgZAMB0GA1UdDgQWBBRDxFkZ8HT/XPOU4FuhL5W4WrGxHTCBrAYDVR0jBIGkMIGh
gBS9u5V2XPktISlCIv2Rr7g5JKp+N6F+pHwwejETMBEGA1UEAxQKS09DSElDQV9D
QTELMAkGA1UEBhMCSU4xDzANBgNVBAoTBkNJVFJJWDEMMAoGA1UECxMDQU5HMQsw
CQYDVQQIEwJLQTEqMCgGCSqGSIb3DQEJARYbS09DSElDQV9DQUBLT0NISUNBX21h
aWwuY29tggkA4RDtsjw943EwPAYIKwYBBQUHAQEEMDAuMCwGCCsGAQUFBzABhiBo
dHRwOi8vMTcyLjIyLjEwLjEvcmVzcG9uZGVycGF0aDANBgkqhkiG9w0BAQsFAAOC
AQEAK9GzqarqTEtJWdf9Y2C0QODukuWbaMdcklUDluwI79lu0DAaBI6SrLxukvYx
LQOORKkF0qHHj8KAvWCTtqh3sIGx9BC0UrH4EEPPSWvzOe4I+DYnojRjlm50NxH9
8Y2HJsIkMP/XbxGqFCTa+m7e79yagoZIRMHht0ZqcRqXELNn6mthTXf7IwV/lu5G
nwEexA68rO0IIXfxyw1SwlC0ZNhqKW4IF6slAhm2Y/SOTzxGLg8HV9wSE2+ZYGAe
mSoFbaZn4tCHH7y3Zn/+CsRM+VVh49EN5kIzYqInDcUwp8BRw4kcZsVePIaJ8CHA
u9ff3nS4wwIB38k1IC5JHQpcgg==
-----END CERTIFICATE-----
