Certificate:
    Data:
        Version: 3 (0x2)
        Serial Number: 11042563100199 (0xa0b0c0d0e27)
    Signature Algorithm: sha256WithRSAEncryption
        Issuer: CN=MUMBAICA_CA, C=IN, O=CITRIX, OU=ANG, ST=KA/emailAddress=MUMBAICA_CA@MUMBAICA_mail.com
        Validity
            Not Before: Jul  8 04:35:53 2016 GMT
            Not After : Jul  6 04:35:53 2026 GMT
        Subject: ST=KA, C=IN, CN=125_MUMBAICA_server/emailAddress=125_MUMBAICA@test_ca.com, O=CITRIX
        Subject Public Key Info:
            Public Key Algorithm: rsaEncryption
                Public-Key: (2048 bit)
                Modulus:
                    00:b0:60:64:45:33:f3:4d:18:ea:19:c3:4e:ce:84:
                    e9:75:55:8c:ec:51:12:9f:fd:a4:69:33:29:4d:db:
                    a6:04:eb:a5:21:9f:d0:be:d3:5f:9e:ef:fe:84:88:
                    70:f3:e7:fe:7e:22:c8:66:82:8d:e5:a4:03:01:ce:
                    e7:6a:3f:77:3a:de:c2:16:72:cb:18:8c:c0:b4:74:
                    e8:ed:59:63:29:4e:ca:27:66:fe:0d:1e:f1:35:cd:
                    8a:17:a9:70:a1:93:57:3d:9c:1b:b7:62:a4:f7:7c:
                    e1:cb:21:63:27:58:c7:1a:b5:8f:bc:13:39:36:ef:
                    e8:08:fb:87:46:be:9a:a4:c5:61:9d:af:f4:0f:67:
                    35:1e:86:56:09:9e:eb:6f:b5:bf:5b:bc:46:0c:ef:
                    8c:15:01:f1:23:5d:f6:fe:47:8e:77:3e:5d:1e:22:
                    a1:70:4c:49:03:cd:e5:b8:fa:20:0d:90:d7:55:4c:
                    af:cb:52:8d:c0:f6:90:a1:26:f0:5b:67:76:55:a1:
                    a1:19:93:d5:26:28:a7:dd:13:d4:c6:51:6a:53:02:
                    3a:33:99:7d:52:20:27:2d:c6:f3:0d:55:42:0f:7a:
                    31:b4:ec:17:bc:4f:b1:fe:0c:d1:0a:8d:ba:5c:ec:
                    d1:d2:82:55:5e:bd:dd:e6:04:d2:a2:19:80:ec:a8:
                    5b:4d
                Exponent: 65537 (0x10001)
        X509v3 extensions:
            Netscape Cert Type: 
                SSL Server
            X509v3 Subject Key Identifier: 
                F5:EF:52:91:FF:00:27:3C:40:87:14:73:82:E2:13:76:4A:A3:76:F9
            X509v3 Authority Key Identifier: 
                keyid:37:79:BF:65:19:98:28:32:4E:EF:3E:44:14:19:A9:83:2B:AF:05:7A
                DirName:/CN=MUMBAICA_CA/C=IN/O=CITRIX/OU=ANG/ST=KA/emailAddress=MUMBAICA_CA@MUMBAICA_mail.com
                serial:EE:B1:37:EE:F6:D2:14:91

            Authority Information Access: 
                OCSP - URI:http://172.23.10.1/responderpath

    Signature Algorithm: sha256WithRSAEncryption
         44:e5:2d:c4:82:73:af:63:5b:4f:18:8c:1e:37:30:cf:a8:32:
         f4:15:aa:a8:48:05:a1:73:26:11:8b:25:24:71:75:ff:49:5e:
         89:f0:41:b4:d9:b6:57:40:83:d4:8c:65:72:f1:c7:4c:4d:c0:
         55:1a:84:29:b6:b0:4b:ad:8e:a4:9c:c0:14:ec:07:08:20:32:
         3a:73:91:42:b0:1d:a6:1b:fc:71:38:a8:ea:9f:b7:8a:ab:8e:
         3d:ab:66:a4:b4:0b:b9:4c:a9:2b:8b:f6:da:27:7e:f2:1b:93:
         a4:a6:d0:c8:67:f4:dc:5a:14:08:b0:c7:11:46:29:ee:fa:b4:
         51:65:b9:06:54:02:63:fa:e3:92:1c:5c:e0:b1:ea:3e:af:6e:
         4d:d9:f2:04:8c:4c:b1:d3:2e:4a:ee:33:01:10:26:96:4c:ec:
         02:9d:8e:af:64:50:9c:72:ac:5d:c2:75:63:64:26:8b:e0:59:
         61:71:b5:f4:74:a0:f9:24:bf:8e:92:38:ed:2d:19:1e:d0:be:
         3d:0f:d0:1f:19:47:dd:99:07:71:3a:2e:62:32:be:6e:af:8d:
         fc:0e:bb:87:fe:19:2b:a1:17:43:c1:45:da:88:39:70:fd:e0:
         fe:bc:2b:bc:f6:68:b5:c6:2f:e2:9f:6b:fd:e1:3f:69:c7:7c:
         42:1c:fc:58
-----BEGIN CERTIFICATE-----
MIIEmDCCA4CgAwIBAgIGCgsMDQ4nMA0GCSqGSIb3DQEBCwUAMH0xFDASBgNVBAMU
C01VTUJBSUNBX0NBMQswCQYDVQQGEwJJTjEPMA0GA1UEChMGQ0lUUklYMQwwCgYD
VQQLEwNBTkcxCzAJBgNVBAgTAktBMSwwKgYJKoZIhvcNAQkBFh1NVU1CQUlDQV9D
QUBNVU1CQUlDQV9tYWlsLmNvbTAeFw0xNjA3MDgwNDM1NTNaFw0yNjA3MDYwNDM1
NTNaMHIxCzAJBgNVBAgTAktBMQswCQYDVQQGEwJJTjEcMBoGA1UEAxQTMTI1X01V
TUJBSUNBX3NlcnZlcjEnMCUGCSqGSIb3DQEJARYYMTI1X01VTUJBSUNBQHRlc3Rf
Y2EuY29tMQ8wDQYDVQQKEwZDSVRSSVgwggEiMA0GCSqGSIb3DQEBAQUAA4IBDwAw
ggEKAoIBAQCwYGRFM/NNGOoZw07OhOl1VYzsURKf/aRpMylN26YE66Uhn9C+01+e
7/6EiHDz5/5+Ishmgo3lpAMBzudqP3c63sIWcssYjMC0dOjtWWMpTsonZv4NHvE1
zYoXqXChk1c9nBu3YqT3fOHLIWMnWMcatY+8Ezk27+gI+4dGvpqkxWGdr/QPZzUe
hlYJnutvtb9bvEYM74wVAfEjXfb+R453Pl0eIqFwTEkDzeW4+iANkNdVTK/LUo3A
9pChJvBbZ3ZVoaEZk9UmKKfdE9TGUWpTAjozmX1SICctxvMNVUIPejG07Be8T7H+
DNEKjbpc7NHSglVevd3mBNKiGYDsqFtNAgMBAAGjggEnMIIBIzARBglghkgBhvhC
AQEEBAMCBkAwHQYDVR0OBBYEFPXvUpH/ACc8QIcUc4LiE3ZKo3b5MIGwBgNVHSME
gagwgaWAFDd5v2UZmCgyTu8+RBQZqYMrrwV6oYGBpH8wfTEUMBIGA1UEAxQLTVVN
QkFJQ0FfQ0ExCzAJBgNVBAYTAklOMQ8wDQYDVQQKEwZDSVRSSVgxDDAKBgNVBAsT
A0FORzELMAkGA1UECBMCS0ExLDAqBgkqhkiG9w0BCQEWHU1VTUJBSUNBX0NBQE1V
TUJBSUNBX21haWwuY29tggkA7rE37vbSFJEwPAYIKwYBBQUHAQEEMDAuMCwGCCsG
AQUFBzABhiBodHRwOi8vMTcyLjIzLjEwLjEvcmVzcG9uZGVycGF0aDANBgkqhkiG
9w0BAQsFAAOCAQEAROUtxIJzr2NbTxiMHjcwz6gy9BWqqEgFoXMmEYslJHF1/0le
ifBBtNm2V0CD1IxlcvHHTE3AVRqEKbawS62OpJzAFOwHCCAyOnORQrAdphv8cTio
6p+3iquOPatmpLQLuUypK4v22id+8huTpKbQyGf03FoUCLDHEUYp7vq0UWW5BlQC
Y/rjkhxc4LHqPq9uTdnyBIxMsdMuSu4zARAmlkzsAp2Or2RQnHKsXcJ1Y2Qmi+BZ
YXG19HSg+SS/jpI47S0ZHtC+PQ/QHxlH3ZkHcTouYjK+bq+N/A67h/4ZK6EXQ8FF
2og5cP3g/rwrvPZotcYv4p9r/eE/acd8Qhz8WA==
-----END CERTIFICATE-----
