Certificate:
    Data:
        Version: 3 (0x2)
        Serial Number: 11042563100200 (0xa0b0c0d0e28)
    Signature Algorithm: sha256WithRSAEncryption
        Issuer: CN=DELHICA_CA, C=IN, O=CITRIX, OU=ANG, ST=KA/emailAddress=DELHICA_CA@DELHICA_mail.com
        Validity
            Not Before: Jul  8 04:34:29 2016 GMT
            Not After : Jul  6 04:34:29 2026 GMT
        Subject: ST=KA, C=IN, CN=126_DELHICA_server/emailAddress=126_DELHICA@test_ca.com, O=CITRIX
        Subject Public Key Info:
            Public Key Algorithm: rsaEncryption
                Public-Key: (2048 bit)
                Modulus:
                    00:d8:7c:71:49:24:39:da:f5:99:b9:a7:7d:94:20:
                    29:c8:25:95:1b:fc:79:2b:51:53:f1:f1:6a:ec:86:
                    0b:0e:1c:7c:de:5f:2f:97:df:ee:d5:b5:d0:05:66:
                    0d:5b:13:02:49:ee:11:8c:41:bf:dd:bb:6b:72:84:
                    f5:e3:10:ec:14:ad:e6:e5:d6:d3:52:01:6a:3f:9a:
                    2d:6f:4c:06:72:c5:de:04:5e:c3:5e:be:eb:87:b1:
                    12:33:a8:c0:f2:ee:1d:af:3c:de:73:a1:e2:48:c7:
                    13:fd:bd:4e:ab:94:e4:c3:15:ff:e4:2f:f5:02:86:
                    10:c9:f3:03:78:34:d6:2a:f1:db:63:f7:77:a1:21:
                    81:d4:79:9a:d7:44:4b:ac:0c:25:a5:43:77:de:21:
                    78:2c:58:c1:53:0a:da:97:3b:9f:3c:64:d5:42:86:
                    f8:bd:4b:f6:07:75:62:0d:98:12:53:17:58:7e:2c:
                    f6:7f:22:ef:e3:b5:42:cf:7b:4b:b0:ed:ad:ad:4c:
                    90:e0:88:6b:ae:95:4e:6a:a2:ff:8a:14:42:e4:0b:
                    6e:7d:31:ba:d8:00:a8:50:c6:d6:40:57:30:40:da:
                    1d:c9:9d:00:ca:a1:0c:18:15:ef:2c:79:03:95:26:
                    de:83:ed:09:f4:66:2a:f2:e7:9a:3b:15:86:5c:07:
                    e8:e7
                Exponent: 65537 (0x10001)
        X509v3 extensions:
            Netscape Cert Type: 
                SSL Server
            X509v3 Subject Key Identifier: 
                79:BD:19:C8:A9:C0:6E:58:9F:5E:56:B8:A4:3F:DF:C4:CD:57:56:00
            X509v3 Authority Key Identifier: 
                keyid:D7:37:52:01:DC:2C:7A:57:85:CA:30:39:30:F0:D5:5D:5A:31:03:02
                DirName:/CN=DELHICA_CA/C=IN/O=CITRIX/OU=ANG/ST=KA/emailAddress=DELHICA_CA@DELHICA_mail.com
                serial:94:59:DC:51:4E:A5:13:27

            Authority Information Access: 
                OCSP - URI:http://172.20.10.1/responderpath

    Signature Algorithm: sha256WithRSAEncryption
         95:0f:f1:cc:55:6a:c2:e4:28:75:92:a8:56:50:db:5b:f7:3d:
         c0:25:21:2a:02:0c:19:08:b8:7a:ab:a3:4d:ce:71:ce:06:aa:
         7d:90:eb:b3:1d:ff:66:df:1d:21:ac:06:66:54:33:80:23:88:
         8a:43:a6:6a:c2:68:cc:3b:03:a3:33:a8:5d:86:0a:a1:49:af:
         8f:6e:16:d5:64:0a:3f:76:0c:a3:22:47:38:c4:3c:77:d4:f1:
         b4:bc:ff:fa:b5:6a:fe:de:8e:82:98:b2:e4:09:b2:c9:11:49:
         89:31:82:f9:07:d7:10:15:6c:44:cf:94:9b:10:5a:88:74:05:
         a5:0a:0e:08:8a:bc:26:12:07:b6:47:95:a8:9d:7b:e7:7b:31:
         b1:5d:7e:2c:f4:62:6d:0e:21:9c:59:29:f3:cd:ff:ac:9a:78:
         9c:63:20:eb:90:7d:77:1e:c8:f1:42:f8:55:d9:bc:42:bc:75:
         5f:9f:b0:fa:cb:13:18:3d:5b:8b:ff:fc:ac:bc:d8:5f:45:05:
         20:ab:bf:71:8e:63:e6:52:f3:31:7f:fb:df:25:b3:75:13:3e:
         74:24:11:95:9d:15:05:59:98:ea:3a:c3:9c:97:05:76:99:4c:
         66:bf:52:e9:b5:a3:5b:01:0f:88:4e:7a:77:27:df:d9:28:53:
         c5:b9:ee:42
-----BEGIN CERTIFICATE-----
MIIEjzCCA3egAwIBAgIGCgsMDQ4oMA0GCSqGSIb3DQEBCwUAMHoxEzARBgNVBAMU
CkRFTEhJQ0FfQ0ExCzAJBgNVBAYTAklOMQ8wDQYDVQQKEwZDSVRSSVgxDDAKBgNV
BAsTA0FORzELMAkGA1UECBMCS0ExKjAoBgkqhkiG9w0BCQEWG0RFTEhJQ0FfQ0FA
REVMSElDQV9tYWlsLmNvbTAeFw0xNjA3MDgwNDM0MjlaFw0yNjA3MDYwNDM0Mjla
MHAxCzAJBgNVBAgTAktBMQswCQYDVQQGEwJJTjEbMBkGA1UEAxQSMTI2X0RFTEhJ
Q0Ffc2VydmVyMSYwJAYJKoZIhvcNAQkBFhcxMjZfREVMSElDQUB0ZXN0X2NhLmNv
bTEPMA0GA1UEChMGQ0lUUklYMIIBIjANBgkqhkiG9w0BAQEFAAOCAQ8AMIIBCgKC
AQEA2HxxSSQ52vWZuad9lCApyCWVG/x5K1FT8fFq7IYLDhx83l8vl9/u1bXQBWYN
WxMCSe4RjEG/3btrcoT14xDsFK3m5dbTUgFqP5otb0wGcsXeBF7DXr7rh7ESM6jA
8u4drzzec6HiSMcT/b1Oq5TkwxX/5C/1AoYQyfMDeDTWKvHbY/d3oSGB1Hma10RL
rAwlpUN33iF4LFjBUwralzufPGTVQob4vUv2B3ViDZgSUxdYfiz2fyLv47VCz3tL
sO2trUyQ4IhrrpVOaqL/ihRC5AtufTG62ACoUMbWQFcwQNodyZ0AyqEMGBXvLHkD
lSbeg+0J9GYq8ueaOxWGXAfo5wIDAQABo4IBIzCCAR8wEQYJYIZIAYb4QgEBBAQD
AgZAMB0GA1UdDgQWBBR5vRnIqcBuWJ9eVrikP9/EzVdWADCBrAYDVR0jBIGkMIGh
gBTXN1IB3Cx6V4XKMDkw8NVdWjEDAqF+pHwwejETMBEGA1UEAxQKREVMSElDQV9D
QTELMAkGA1UEBhMCSU4xDzANBgNVBAoTBkNJVFJJWDEMMAoGA1UECxMDQU5HMQsw
CQYDVQQIEwJLQTEqMCgGCSqGSIb3DQEJARYbREVMSElDQV9DQUBERUxISUNBX21h
aWwuY29tggkAlFncUU6lEycwPAYIKwYBBQUHAQEEMDAuMCwGCCsGAQUFBzABhiBo
dHRwOi8vMTcyLjIwLjEwLjEvcmVzcG9uZGVycGF0aDANBgkqhkiG9w0BAQsFAAOC
AQEAlQ/xzFVqwuQodZKoVlDbW/c9wCUhKgIMGQi4equjTc5xzgaqfZDrsx3/Zt8d
IawGZlQzgCOIikOmasJozDsDozOoXYYKoUmvj24W1WQKP3YMoyJHOMQ8d9TxtLz/
+rVq/t6Ogpiy5AmyyRFJiTGC+QfXEBVsRM+UmxBaiHQFpQoOCIq8JhIHtkeVqJ17
53sxsV1+LPRibQ4hnFkp883/rJp4nGMg65B9dx7I8UL4Vdm8Qrx1X5+w+ssTGD1b
i//8rLzYX0UFIKu/cY5j5lLzMX/73yWzdRM+dCQRlZ0VBVmY6jrDnJcFdplMZr9S
6bWjWwEPiE56dyff2ShTxbnuQg==
-----END CERTIFICATE-----
