Certificate:
    Data:
        Version: 3 (0x2)
        Serial Number: 11042563100200 (0xa0b0c0d0e28)
    Signature Algorithm: sha256WithRSAEncryption
        Issuer: CN=BANGALORECA_CA, C=IN, O=CITRIX, OU=ANG, ST=KA/emailAddress=BANGALORECA_CA@BANGALORECA_mail.com
        Validity
            Not Before: Jul  8 04:31:27 2016 GMT
            Not After : Jul  6 04:31:27 2026 GMT
        Subject: ST=KA, C=IN, CN=126_BANGALORECA_server/emailAddress=126_BANGALORECA@test_ca.com, O=CITRIX
        Subject Public Key Info:
            Public Key Algorithm: rsaEncryption
                Public-Key: (2048 bit)
                Modulus:
                    00:b8:a9:be:f1:9f:37:55:c8:c0:c1:2f:cd:83:cf:
                    b4:f8:22:d8:e9:df:f7:3c:cb:42:38:47:32:56:61:
                    70:68:68:9e:7c:03:cd:8e:9a:6f:d0:57:f4:8d:f0:
                    a2:7b:b0:34:12:ac:15:81:cc:5c:61:54:3d:63:0a:
                    1e:da:9a:e4:25:1b:50:2c:5b:cb:4e:75:a0:d5:5e:
                    1e:e5:09:0a:5f:c3:02:18:86:e7:3d:58:44:2d:04:
                    db:6c:17:38:16:9e:77:7c:74:24:7a:c8:77:f6:12:
                    ed:21:f7:e3:2e:2f:47:3f:f1:27:c0:99:e5:86:55:
                    37:fc:33:bc:22:08:cf:b2:36:47:d4:ee:7e:a6:dc:
                    7d:c4:8b:f1:89:58:4b:ee:56:84:55:f9:69:e3:37:
                    03:aa:bc:82:c8:0c:28:73:33:70:18:5d:26:b6:4d:
                    66:45:8c:33:87:84:26:b3:2a:b7:41:d2:be:87:71:
                    9e:86:66:ab:5d:f1:6e:0f:d9:62:35:6e:bd:9f:15:
                    10:18:03:3a:a3:03:96:7e:e8:9e:12:4c:b8:2b:ab:
                    d3:4d:9c:cc:66:ea:e7:b1:78:b9:2e:17:a7:2d:ec:
                    0c:51:e4:67:4c:7b:fa:66:44:c7:97:07:b0:48:b4:
                    6b:a3:44:3e:f5:6e:2a:9d:14:7e:50:23:63:09:a1:
                    9e:eb
                Exponent: 65537 (0x10001)
        X509v3 extensions:
            Netscape Cert Type: 
                SSL Server
            X509v3 Subject Key Identifier: 
                9D:C4:54:31:01:3F:5E:0A:41:ED:DA:C6:92:6A:6C:99:70:7E:31:45
            X509v3 Authority Key Identifier: 
                keyid:3B:D6:D1:53:18:87:05:22:BB:EE:C3:0F:F5:CE:0F:6B:A2:93:A7:B8
                DirName:/CN=BANGALORECA_CA/C=IN/O=CITRIX/OU=ANG/ST=KA/emailAddress=BANGALORECA_CA@BANGALORECA_mail.com
                serial:A1:AC:B4:DA:46:53:58:40

            Authority Information Access: 
                OCSP - URI:http://172.16.10.1/responderpath

    Signature Algorithm: sha256WithRSAEncryption
         a0:3d:f3:4a:a5:99:a6:0d:c2:b0:fd:d3:9b:2c:63:e4:1c:cf:
         f2:b3:af:4d:73:d4:bb:38:d2:61:77:cc:0c:f1:52:07:c8:41:
         80:68:96:0e:4b:63:d5:5f:3a:bf:26:89:d5:28:a7:75:c7:de:
         2a:08:66:5e:29:20:d2:cc:73:05:de:5c:58:ec:1e:b0:bd:5b:
         f6:19:61:ba:bc:78:17:d9:8a:99:e2:2c:54:f1:7d:df:ff:9b:
         09:e7:df:36:9d:3a:cb:64:fc:78:d0:d8:37:9b:ce:7f:11:d7:
         8c:f4:9f:69:0e:d4:fe:9b:e1:d0:3b:78:e9:b5:73:1b:31:88:
         5a:b2:b2:13:c0:4c:cf:d8:e7:09:11:4d:6d:b3:b3:17:f2:7b:
         12:91:ae:bc:3b:a7:ee:23:12:e6:dd:d2:01:6c:93:2e:06:ca:
         e1:ef:40:33:35:b0:32:4d:94:21:db:53:77:d7:8d:2b:39:0d:
         78:af:a8:5a:ff:fb:ba:7f:fb:61:e1:d0:76:5f:b4:52:a4:7f:
         68:0c:fb:06:bd:80:b8:fd:2f:24:1c:94:16:40:24:16:65:59:
         94:58:af:10:7a:12:bf:f5:6b:e1:17:30:38:58:0b:d7:13:f3:
         ad:16:01:64:57:b7:5e:6e:ac:89:94:15:3d:00:3e:87:8a:39:
         94:4e:48:01
-----BEGIN CERTIFICATE-----
MIIEszCCA5ugAwIBAgIGCgsMDQ4oMA0GCSqGSIb3DQEBCwUAMIGGMRcwFQYDVQQD
FA5CQU5HQUxPUkVDQV9DQTELMAkGA1UEBhMCSU4xDzANBgNVBAoTBkNJVFJJWDEM
MAoGA1UECxMDQU5HMQswCQYDVQQIEwJLQTEyMDAGCSqGSIb3DQEJARYjQkFOR0FM
T1JFQ0FfQ0FAQkFOR0FMT1JFQ0FfbWFpbC5jb20wHhcNMTYwNzA4MDQzMTI3WhcN
MjYwNzA2MDQzMTI3WjB4MQswCQYDVQQIEwJLQTELMAkGA1UEBhMCSU4xHzAdBgNV
BAMUFjEyNl9CQU5HQUxPUkVDQV9zZXJ2ZXIxKjAoBgkqhkiG9w0BCQEWGzEyNl9C
QU5HQUxPUkVDQUB0ZXN0X2NhLmNvbTEPMA0GA1UEChMGQ0lUUklYMIIBIjANBgkq
hkiG9w0BAQEFAAOCAQ8AMIIBCgKCAQEAuKm+8Z83VcjAwS/Ng8+0+CLY6d/3PMtC
OEcyVmFwaGiefAPNjppv0Ff0jfCie7A0EqwVgcxcYVQ9Ywoe2prkJRtQLFvLTnWg
1V4e5QkKX8MCGIbnPVhELQTbbBc4Fp53fHQkesh39hLtIffjLi9HP/EnwJnlhlU3
/DO8IgjPsjZH1O5+ptx9xIvxiVhL7laEVflp4zcDqryCyAwoczNwGF0mtk1mRYwz
h4Qmsyq3QdK+h3GehmarXfFuD9liNW69nxUQGAM6owOWfuieEky4K6vTTZzMZurn
sXi5LhenLewMUeRnTHv6ZkTHlwewSLRro0Q+9W4qnRR+UCNjCaGe6wIDAQABo4IB
MjCCAS4wEQYJYIZIAYb4QgEBBAQDAgZAMB0GA1UdDgQWBBSdxFQxAT9eCkHt2saS
amyZcH4xRTCBuwYDVR0jBIGzMIGwgBQ71tFTGIcFIrvuww/1zg9ropOnuKGBjKSB
iTCBhjEXMBUGA1UEAxQOQkFOR0FMT1JFQ0FfQ0ExCzAJBgNVBAYTAklOMQ8wDQYD
VQQKEwZDSVRSSVgxDDAKBgNVBAsTA0FORzELMAkGA1UECBMCS0ExMjAwBgkqhkiG
9w0BCQEWI0JBTkdBTE9SRUNBX0NBQEJBTkdBTE9SRUNBX21haWwuY29tggkAoay0
2kZTWEAwPAYIKwYBBQUHAQEEMDAuMCwGCCsGAQUFBzABhiBodHRwOi8vMTcyLjE2
LjEwLjEvcmVzcG9uZGVycGF0aDANBgkqhkiG9w0BAQsFAAOCAQEAoD3zSqWZpg3C
sP3Tmyxj5BzP8rOvTXPUuzjSYXfMDPFSB8hBgGiWDktj1V86vyaJ1SindcfeKghm
Xikg0sxzBd5cWOwesL1b9hlhurx4F9mKmeIsVPF93/+bCeffNp06y2T8eNDYN5vO
fxHXjPSfaQ7U/pvh0Dt46bVzGzGIWrKyE8BMz9jnCRFNbbOzF/J7EpGuvDun7iMS
5t3SAWyTLgbK4e9AMzWwMk2UIdtTd9eNKzkNeK+oWv/7un/7YeHQdl+0UqR/aAz7
Br2AuP0vJByUFkAkFmVZlFivEHoSv/Vr4RcwOFgL1xPzrRYBZFe3Xm6siZQVPQA+
h4o5lE5IAQ==
-----END CERTIFICATE-----
