Certificate:
    Data:
        Version: 3 (0x2)
        Serial Number: 11042563100200 (0xa0b0c0d0e28)
    Signature Algorithm: sha256WithRSAEncryption
        Issuer: CN=PATNACA_CA, C=IN, O=CITRIX, OU=ANG, ST=KA/emailAddress=PATNACA_CA@PATNACA_mail.com
        Validity
            Not Before: Jul  8 04:38:28 2016 GMT
            Not After : Jul  6 04:38:28 2026 GMT
        Subject: ST=KA, C=IN, CN=126_PATNACA_server/emailAddress=126_PATNACA@test_ca.com, O=CITRIX
        Subject Public Key Info:
            Public Key Algorithm: rsaEncryption
                Public-Key: (2048 bit)
                Modulus:
                    00:a9:4b:69:d6:be:4d:d5:69:c4:d1:49:4a:88:15:
                    7c:4a:a4:03:50:42:c1:90:83:75:9e:53:6e:4c:8e:
                    3b:12:83:79:b9:32:d9:03:c4:ef:6e:11:fc:b0:a5:
                    91:03:7c:fb:5c:0b:27:ff:48:2a:8e:41:3e:9c:0a:
                    77:f8:bc:c3:ec:a8:5b:b7:4f:f3:ed:fb:fe:f7:0e:
                    0a:d0:dc:80:34:52:f6:64:7c:4e:45:06:cb:42:b9:
                    67:4a:a9:e4:b3:04:9f:c2:8b:25:10:f6:76:2d:d2:
                    41:d8:57:f4:6b:d5:68:b6:f0:bf:3b:da:87:80:ab:
                    63:4b:5d:34:11:c4:9d:00:11:ed:b6:24:d5:25:ba:
                    b3:0a:ab:59:64:ff:bb:62:fb:b5:37:a0:36:7e:1d:
                    0a:70:01:ad:ec:79:75:0c:b4:e9:e3:f2:3a:83:ca:
                    d9:cb:d4:60:a9:14:28:49:99:7d:2e:a4:b5:58:5d:
                    3a:88:bd:6a:91:1c:22:c1:d8:54:77:40:a0:f2:5c:
                    66:12:d1:43:d2:38:65:b5:02:e3:2f:47:f3:b6:1c:
                    b7:29:48:14:63:8c:6b:7c:61:c6:97:ae:e8:6f:08:
                    d3:eb:82:80:84:2e:d3:36:1c:64:a9:e9:ff:42:2b:
                    33:5c:c5:e1:14:5b:5a:76:33:31:3c:5f:dd:07:4f:
                    b9:f9
                Exponent: 65537 (0x10001)
        X509v3 extensions:
            Netscape Cert Type: 
                SSL Server
            X509v3 Subject Key Identifier: 
                DA:0F:18:85:D6:74:F7:38:B2:C2:22:3D:FA:BA:B0:D8:80:2F:44:63
            X509v3 Authority Key Identifier: 
                keyid:FF:DF:C4:8D:AF:64:E1:E3:17:FA:96:EE:F1:75:A7:ED:A7:C3:91:B8
                DirName:/CN=PATNACA_CA/C=IN/O=CITRIX/OU=ANG/ST=KA/emailAddress=PATNACA_CA@PATNACA_mail.com
                serial:9F:2E:15:76:F0:BD:C1:6F

            Authority Information Access: 
                OCSP - URI:http://172.26.10.1/responderpath

    Signature Algorithm: sha256WithRSAEncryption
         9a:3a:f9:6b:7c:99:56:ac:da:d4:e7:65:c3:f8:ce:b9:41:88:
         d1:06:2d:e8:65:ce:42:51:e5:95:72:9a:4b:3b:c3:ba:8a:07:
         d9:96:c1:1a:55:ff:1a:16:03:6f:a0:c3:85:c3:4f:bb:3c:63:
         85:05:3a:d2:ee:67:24:8b:8c:0c:74:72:69:4f:42:e0:d4:24:
         87:ff:66:3f:ef:28:72:38:9a:e7:f2:e6:f0:4c:6c:1f:91:17:
         a4:3d:df:4d:db:65:57:d9:42:64:15:12:2e:36:bd:dc:94:9a:
         6a:28:82:af:e7:56:27:64:0c:55:66:52:9a:ff:57:04:70:9a:
         4a:44:ba:48:84:b6:9d:5b:e8:10:55:fd:c1:7b:3d:43:40:4f:
         61:98:96:d6:8e:5e:a7:c6:05:16:ec:04:38:ba:04:3b:e5:dd:
         45:c0:35:73:a4:7c:ea:68:98:c3:a8:ad:5b:56:b8:d5:93:b0:
         bc:51:e6:41:3d:95:ab:95:46:5a:98:66:93:4a:31:e6:be:20:
         b2:4b:24:d9:58:2d:3f:60:48:7b:3b:85:b8:89:5f:3b:ab:c5:
         9f:48:38:c7:3b:6e:ac:27:c9:a1:6a:28:e9:2e:01:8c:d6:2d:
         6d:ca:7c:e7:63:1c:90:28:9c:c9:eb:54:f2:bb:04:02:aa:25:
         96:5d:b3:ba
-----BEGIN CERTIFICATE-----
MIIEjzCCA3egAwIBAgIGCgsMDQ4oMA0GCSqGSIb3DQEBCwUAMHoxEzARBgNVBAMU
ClBBVE5BQ0FfQ0ExCzAJBgNVBAYTAklOMQ8wDQYDVQQKEwZDSVRSSVgxDDAKBgNV
BAsTA0FORzELMAkGA1UECBMCS0ExKjAoBgkqhkiG9w0BCQEWG1BBVE5BQ0FfQ0FA
UEFUTkFDQV9tYWlsLmNvbTAeFw0xNjA3MDgwNDM4MjhaFw0yNjA3MDYwNDM4Mjha
MHAxCzAJBgNVBAgTAktBMQswCQYDVQQGEwJJTjEbMBkGA1UEAxQSMTI2X1BBVE5B
Q0Ffc2VydmVyMSYwJAYJKoZIhvcNAQkBFhcxMjZfUEFUTkFDQUB0ZXN0X2NhLmNv
bTEPMA0GA1UEChMGQ0lUUklYMIIBIjANBgkqhkiG9w0BAQEFAAOCAQ8AMIIBCgKC
AQEAqUtp1r5N1WnE0UlKiBV8SqQDUELBkIN1nlNuTI47EoN5uTLZA8TvbhH8sKWR
A3z7XAsn/0gqjkE+nAp3+LzD7Khbt0/z7fv+9w4K0NyANFL2ZHxORQbLQrlnSqnk
swSfwoslEPZ2LdJB2Ff0a9VotvC/O9qHgKtjS100EcSdABHttiTVJbqzCqtZZP+7
Yvu1N6A2fh0KcAGt7Hl1DLTp4/I6g8rZy9RgqRQoSZl9LqS1WF06iL1qkRwiwdhU
d0Cg8lxmEtFD0jhltQLjL0fzthy3KUgUY4xrfGHGl67obwjT64KAhC7TNhxkqen/
QiszXMXhFFtadjMxPF/dB0+5+QIDAQABo4IBIzCCAR8wEQYJYIZIAYb4QgEBBAQD
AgZAMB0GA1UdDgQWBBTaDxiF1nT3OLLCIj36urDYgC9EYzCBrAYDVR0jBIGkMIGh
gBT/38SNr2Th4xf6lu7xdaftp8ORuKF+pHwwejETMBEGA1UEAxQKUEFUTkFDQV9D
QTELMAkGA1UEBhMCSU4xDzANBgNVBAoTBkNJVFJJWDEMMAoGA1UECxMDQU5HMQsw
CQYDVQQIEwJLQTEqMCgGCSqGSIb3DQEJARYbUEFUTkFDQV9DQUBQQVROQUNBX21h
aWwuY29tggkAny4VdvC9wW8wPAYIKwYBBQUHAQEEMDAuMCwGCCsGAQUFBzABhiBo
dHRwOi8vMTcyLjI2LjEwLjEvcmVzcG9uZGVycGF0aDANBgkqhkiG9w0BAQsFAAOC
AQEAmjr5a3yZVqza1Odlw/jOuUGI0QYt6GXOQlHllXKaSzvDuooH2ZbBGlX/GhYD
b6DDhcNPuzxjhQU60u5nJIuMDHRyaU9C4NQkh/9mP+8ocjia5/Lm8ExsH5EXpD3f
TdtlV9lCZBUSLja93JSaaiiCr+dWJ2QMVWZSmv9XBHCaSkS6SIS2nVvoEFX9wXs9
Q0BPYZiW1o5ep8YFFuwEOLoEO+XdRcA1c6R86miYw6itW1a41ZOwvFHmQT2Vq5VG
Wphmk0ox5r4gsksk2VgtP2BIezuFuIlfO6vFn0g4xzturCfJoWoo6S4BjNYtbcp8
52MckCicyetU8rsEAqolll2zug==
-----END CERTIFICATE-----
