Certificate:
    Data:
        Version: 3 (0x2)
        Serial Number: 11042563100200 (0xa0b0c0d0e28)
    Signature Algorithm: sha256WithRSAEncryption
        Issuer: CN=RANCHICA_CA, C=IN, O=CITRIX, OU=ANG, ST=KA/emailAddress=RANCHICA_CA@RANCHICA_mail.com
        Validity
            Not Before: Jul  8 04:38:54 2016 GMT
            Not After : Jul  6 04:38:54 2026 GMT
        Subject: ST=KA, C=IN, CN=126_RANCHICA_server/emailAddress=126_RANCHICA@test_ca.com, O=CITRIX
        Subject Public Key Info:
            Public Key Algorithm: rsaEncryption
                Public-Key: (2048 bit)
                Modulus:
                    00:bf:12:ee:bd:98:21:14:e9:4c:19:b8:dd:0a:e3:
                    63:6c:55:e0:1c:1c:aa:aa:bc:49:06:d8:3b:bf:64:
                    1a:f5:6b:75:58:22:32:a0:cd:c6:bc:7e:95:38:3e:
                    da:00:79:d6:1a:68:ae:2a:24:22:12:b1:f2:80:11:
                    6c:74:fb:1c:fa:87:e4:8e:51:64:ec:ea:57:1c:07:
                    b5:63:b6:f2:5b:47:be:b2:fc:7c:d3:48:80:89:54:
                    50:9c:ba:1f:69:7f:20:1a:f6:7c:20:e2:30:c4:75:
                    79:ab:11:f0:1f:4b:0b:41:13:32:c3:9f:d3:5c:c4:
                    73:92:e9:bc:0c:a1:a6:4f:b9:9a:4c:0a:82:cb:32:
                    68:b6:b9:86:80:f6:2b:a3:1a:93:3b:2d:97:83:5b:
                    98:0f:58:78:c7:e0:df:81:15:74:c6:67:34:85:32:
                    72:fa:f1:e6:c2:ea:bb:73:94:dd:47:07:07:80:9a:
                    30:39:8c:45:3c:d0:18:21:ef:af:68:40:19:ed:6a:
                    38:79:9b:fd:88:21:fd:df:27:ab:b4:19:2a:1c:ce:
                    d7:b6:1b:f9:56:ed:3f:f7:a6:8f:36:e7:2b:ee:a8:
                    c6:dd:fd:62:17:4b:a6:74:38:c9:60:97:48:a8:f5:
                    3b:55:6d:98:fd:e1:8d:8b:e4:a9:9c:7b:92:b3:c2:
                    29:e9
                Exponent: 65537 (0x10001)
        X509v3 extensions:
            Netscape Cert Type: 
                SSL Server
            X509v3 Subject Key Identifier: 
                4C:D4:65:D2:68:FA:CC:8B:5A:CA:D6:2D:E1:CA:7A:79:8A:40:ED:8F
            X509v3 Authority Key Identifier: 
                keyid:A7:10:6F:5D:0C:9F:9C:A2:F4:39:92:A3:7D:5C:B8:C0:25:71:BF:39
                DirName:/CN=RANCHICA_CA/C=IN/O=CITRIX/OU=ANG/ST=KA/emailAddress=RANCHICA_CA@RANCHICA_mail.com
                serial:E7:09:A4:3D:1C:C7:45:B1

            Authority Information Access: 
                OCSP - URI:http://172.27.10.1/responderpath

    Signature Algorithm: sha256WithRSAEncryption
         27:03:ff:8e:af:88:e9:ba:ab:27:38:ca:55:a3:bc:a6:76:d1:
         55:d0:6c:d4:6c:b1:47:41:82:3f:d3:e6:85:90:17:17:6d:21:
         5c:3b:f8:a5:34:c8:af:1e:1d:4f:c8:c4:00:d5:7e:34:5e:cc:
         84:f7:6b:ef:d6:4f:f2:d3:db:99:31:f9:85:50:21:09:05:3d:
         f6:5e:3c:2f:bb:29:65:00:91:87:c0:16:2d:30:79:f9:49:47:
         58:da:fc:14:46:3e:0c:fb:cf:ef:aa:98:d2:fb:15:88:27:2d:
         55:db:05:af:10:74:05:e0:49:3a:e4:37:56:e3:91:c7:dc:d7:
         41:db:9b:75:04:c0:47:7a:b3:f4:9a:0b:00:97:89:2b:5d:44:
         f6:42:c3:23:63:0c:48:6e:9e:cc:1a:e2:0c:e7:1e:07:5a:36:
         9f:d4:d4:70:43:b0:9b:72:7a:ee:85:d4:7b:01:68:3d:09:d8:
         ef:5c:41:6c:f2:6b:bf:f8:41:bc:65:06:e2:9d:7c:a4:45:81:
         72:f2:08:c2:f0:3b:81:64:c2:2f:79:50:2b:d4:41:a1:e2:83:
         40:6a:01:dd:ed:0f:bf:db:91:9e:03:9a:be:7c:5d:65:61:e6:
         f6:fc:24:be:58:4d:a9:6b:35:4a:28:8e:a8:1f:da:71:30:fc:
         c5:71:b6:59
-----BEGIN CERTIFICATE-----
MIIEmDCCA4CgAwIBAgIGCgsMDQ4oMA0GCSqGSIb3DQEBCwUAMH0xFDASBgNVBAMU
C1JBTkNISUNBX0NBMQswCQYDVQQGEwJJTjEPMA0GA1UEChMGQ0lUUklYMQwwCgYD
VQQLEwNBTkcxCzAJBgNVBAgTAktBMSwwKgYJKoZIhvcNAQkBFh1SQU5DSElDQV9D
QUBSQU5DSElDQV9tYWlsLmNvbTAeFw0xNjA3MDgwNDM4NTRaFw0yNjA3MDYwNDM4
NTRaMHIxCzAJBgNVBAgTAktBMQswCQYDVQQGEwJJTjEcMBoGA1UEAxQTMTI2X1JB
TkNISUNBX3NlcnZlcjEnMCUGCSqGSIb3DQEJARYYMTI2X1JBTkNISUNBQHRlc3Rf
Y2EuY29tMQ8wDQYDVQQKEwZDSVRSSVgwggEiMA0GCSqGSIb3DQEBAQUAA4IBDwAw
ggEKAoIBAQC/Eu69mCEU6UwZuN0K42NsVeAcHKqqvEkG2Du/ZBr1a3VYIjKgzca8
fpU4PtoAedYaaK4qJCISsfKAEWx0+xz6h+SOUWTs6lccB7VjtvJbR76y/HzTSICJ
VFCcuh9pfyAa9nwg4jDEdXmrEfAfSwtBEzLDn9NcxHOS6bwMoaZPuZpMCoLLMmi2
uYaA9iujGpM7LZeDW5gPWHjH4N+BFXTGZzSFMnL68ebC6rtzlN1HBweAmjA5jEU8
0Bgh769oQBntajh5m/2IIf3fJ6u0GSoczte2G/lW7T/3po825yvuqMbd/WIXS6Z0
OMlgl0io9TtVbZj94Y2L5Kmce5KzwinpAgMBAAGjggEnMIIBIzARBglghkgBhvhC
AQEEBAMCBkAwHQYDVR0OBBYEFEzUZdJo+syLWsrWLeHKenmKQO2PMIGwBgNVHSME
gagwgaWAFKcQb10Mn5yi9DmSo31cuMAlcb85oYGBpH8wfTEUMBIGA1UEAxQLUkFO
Q0hJQ0FfQ0ExCzAJBgNVBAYTAklOMQ8wDQYDVQQKEwZDSVRSSVgxDDAKBgNVBAsT
A0FORzELMAkGA1UECBMCS0ExLDAqBgkqhkiG9w0BCQEWHVJBTkNISUNBX0NBQFJB
TkNISUNBX21haWwuY29tggkA5wmkPRzHRbEwPAYIKwYBBQUHAQEEMDAuMCwGCCsG
AQUFBzABhiBodHRwOi8vMTcyLjI3LjEwLjEvcmVzcG9uZGVycGF0aDANBgkqhkiG
9w0BAQsFAAOCAQEAJwP/jq+I6bqrJzjKVaO8pnbRVdBs1GyxR0GCP9PmhZAXF20h
XDv4pTTIrx4dT8jEANV+NF7MhPdr79ZP8tPbmTH5hVAhCQU99l48L7spZQCRh8AW
LTB5+UlHWNr8FEY+DPvP76qY0vsViCctVdsFrxB0BeBJOuQ3VuORx9zXQdubdQTA
R3qz9JoLAJeJK11E9kLDI2MMSG6ezBriDOceB1o2n9TUcEOwm3J67oXUewFoPQnY
71xBbPJrv/hBvGUG4p18pEWBcvIIwvA7gWTCL3lQK9RBoeKDQGoB3e0Pv9uRngOa
vnxdZWHm9vwkvlhNqWs1SiiOqB/acTD8xXG2WQ==
-----END CERTIFICATE-----
