Certificate:
    Data:
        Version: 3 (0x2)
        Serial Number: 11042563100200 (0xa0b0c0d0e28)
    Signature Algorithm: sha256WithRSAEncryption
        Issuer: CN=KOCHICA_CA, C=IN, O=CITRIX, OU=ANG, ST=KA/emailAddress=KOCHICA_CA@KOCHICA_mail.com
        Validity
            Not Before: Jul  8 04:35:23 2016 GMT
            Not After : Jul  6 04:35:23 2026 GMT
        Subject: ST=KA, C=IN, CN=126_KOCHICA_server/emailAddress=126_KOCHICA@test_ca.com, O=CITRIX
        Subject Public Key Info:
            Public Key Algorithm: rsaEncryption
                Public-Key: (2048 bit)
                Modulus:
                    00:c7:e0:5d:35:4c:33:0e:c2:e0:72:27:87:e1:fc:
                    42:ed:60:8d:b4:78:03:ae:b5:ca:9d:64:bb:fe:65:
                    60:cc:6d:b5:d8:e1:98:71:eb:3f:ee:e5:7c:94:6c:
                    76:e0:50:2a:7b:cc:c9:c2:55:bb:26:e7:51:9a:9a:
                    fc:a0:33:33:99:a2:34:02:f7:f5:88:89:16:48:e5:
                    e4:29:35:cb:f0:35:40:c7:5a:44:3e:f4:e6:82:55:
                    c4:8d:97:7c:57:06:24:e7:b7:2b:db:34:63:bf:ff:
                    d1:64:0e:03:eb:3a:37:3a:8d:07:22:78:04:b9:9f:
                    5f:5d:fb:86:e7:a3:5b:42:f8:68:34:a4:a9:b3:ad:
                    69:7a:b9:16:3d:15:9a:1e:12:02:55:13:20:59:7a:
                    a7:65:4e:bb:36:2b:fe:a9:7a:ec:cd:bd:fc:9f:dc:
                    83:79:0d:b6:4c:da:f4:81:6c:db:37:3c:b6:fc:b0:
                    47:b6:c9:a5:32:99:65:b7:0e:92:9c:0c:81:58:b5:
                    76:3a:cd:7c:93:a3:c6:4a:6d:56:fb:78:72:f3:f6:
                    6c:99:71:9e:61:cf:7c:d9:f2:09:0d:1f:5d:d1:21:
                    a3:71:ad:1c:86:95:2e:ce:b0:21:ea:3b:c7:4f:40:
                    a9:28:3b:06:a3:7c:1b:81:76:3b:39:75:84:27:d4:
                    03:79
                Exponent: 65537 (0x10001)
        X509v3 extensions:
            Netscape Cert Type: 
                SSL Server
            X509v3 Subject Key Identifier: 
                D3:67:37:F7:E0:D0:4C:28:F5:C8:BD:68:0C:5E:15:7B:B4:E7:AE:B6
            X509v3 Authority Key Identifier: 
                keyid:BD:BB:95:76:5C:F9:2D:21:29:42:22:FD:91:AF:B8:39:24:AA:7E:37
                DirName:/CN=KOCHICA_CA/C=IN/O=CITRIX/OU=ANG/ST=KA/emailAddress=KOCHICA_CA@KOCHICA_mail.com
                serial:E1:10:ED:B2:3C:3D:E3:71

            Authority Information Access: 
                OCSP - URI:http://172.22.10.1/responderpath

    Signature Algorithm: sha256WithRSAEncryption
         b9:36:13:88:bc:f2:98:5e:f0:ff:e3:7e:b1:30:ca:a3:b4:fc:
         f8:62:8f:2a:f4:ba:0a:88:5b:3c:8b:84:b7:87:d9:74:6c:3c:
         e1:80:84:ec:b9:86:cc:5a:ec:f5:28:68:3d:cd:53:a6:4d:e0:
         ba:c3:09:b5:80:55:36:a4:18:21:66:18:a2:8c:b8:16:a6:3e:
         b0:a7:e4:b0:0d:82:ad:9b:69:b6:6d:88:ce:e5:8c:4c:95:c6:
         14:c2:c0:56:43:e4:93:eb:ad:d9:a0:2a:ac:48:b7:d8:4b:38:
         04:2b:79:2c:ad:0b:98:73:86:89:8a:07:d1:13:a7:38:26:d0:
         2b:6c:73:e5:e8:39:7e:1d:e1:5c:fb:13:fe:76:46:9d:3a:b2:
         7c:22:9b:b7:ed:31:0f:2b:f2:4e:9c:94:69:df:52:27:59:b7:
         82:3c:2e:f6:b7:e5:6c:84:f0:59:3b:64:22:45:28:53:9c:fa:
         97:16:46:c2:45:ea:cc:b8:43:99:86:29:6d:d7:05:65:fd:3f:
         ce:ef:39:9e:a6:ac:1f:5f:aa:7f:2e:e6:cb:ca:77:48:00:68:
         9a:08:58:92:31:38:3f:b2:b1:21:5b:21:c5:44:be:b3:63:1c:
         1b:31:e6:e3:4c:86:0e:28:d4:0f:8f:d9:98:8b:0f:a9:7c:9a:
         85:c4:06:92
-----BEGIN CERTIFICATE-----
MIIEjzCCA3egAwIBAgIGCgsMDQ4oMA0GCSqGSIb3DQEBCwUAMHoxEzARBgNVBAMU
CktPQ0hJQ0FfQ0ExCzAJBgNVBAYTAklOMQ8wDQYDVQQKEwZDSVRSSVgxDDAKBgNV
BAsTA0FORzELMAkGA1UECBMCS0ExKjAoBgkqhkiG9w0BCQEWG0tPQ0hJQ0FfQ0FA
S09DSElDQV9tYWlsLmNvbTAeFw0xNjA3MDgwNDM1MjNaFw0yNjA3MDYwNDM1MjNa
MHAxCzAJBgNVBAgTAktBMQswCQYDVQQGEwJJTjEbMBkGA1UEAxQSMTI2X0tPQ0hJ
Q0Ffc2VydmVyMSYwJAYJKoZIhvcNAQkBFhcxMjZfS09DSElDQUB0ZXN0X2NhLmNv
bTEPMA0GA1UEChMGQ0lUUklYMIIBIjANBgkqhkiG9w0BAQEFAAOCAQ8AMIIBCgKC
AQEAx+BdNUwzDsLgcieH4fxC7WCNtHgDrrXKnWS7/mVgzG212OGYces/7uV8lGx2
4FAqe8zJwlW7JudRmpr8oDMzmaI0Avf1iIkWSOXkKTXL8DVAx1pEPvTmglXEjZd8
VwYk57cr2zRjv//RZA4D6zo3Oo0HIngEuZ9fXfuG56NbQvhoNKSps61perkWPRWa
HhICVRMgWXqnZU67Niv+qXrszb38n9yDeQ22TNr0gWzbNzy2/LBHtsmlMplltw6S
nAyBWLV2Os18k6PGSm1W+3hy8/ZsmXGeYc982fIJDR9d0SGjca0chpUuzrAh6jvH
T0CpKDsGo3wbgXY7OXWEJ9QDeQIDAQABo4IBIzCCAR8wEQYJYIZIAYb4QgEBBAQD
AgZAMB0GA1UdDgQWBBTTZzf34NBMKPXIvWgMXhV7tOeutjCBrAYDVR0jBIGkMIGh
gBS9u5V2XPktISlCIv2Rr7g5JKp+N6F+pHwwejETMBEGA1UEAxQKS09DSElDQV9D
QTELMAkGA1UEBhMCSU4xDzANBgNVBAoTBkNJVFJJWDEMMAoGA1UECxMDQU5HMQsw
CQYDVQQIEwJLQTEqMCgGCSqGSIb3DQEJARYbS09DSElDQV9DQUBLT0NISUNBX21h
aWwuY29tggkA4RDtsjw943EwPAYIKwYBBQUHAQEEMDAuMCwGCCsGAQUFBzABhiBo
dHRwOi8vMTcyLjIyLjEwLjEvcmVzcG9uZGVycGF0aDANBgkqhkiG9w0BAQsFAAOC
AQEAuTYTiLzymF7w/+N+sTDKo7T8+GKPKvS6CohbPIuEt4fZdGw84YCE7LmGzFrs
9ShoPc1Tpk3gusMJtYBVNqQYIWYYooy4FqY+sKfksA2CrZtptm2IzuWMTJXGFMLA
VkPkk+ut2aAqrEi32Es4BCt5LK0LmHOGiYoH0ROnOCbQK2xz5eg5fh3hXPsT/nZG
nTqyfCKbt+0xDyvyTpyUad9SJ1m3gjwu9rflbITwWTtkIkUoU5z6lxZGwkXqzLhD
mYYpbdcFZf0/zu85nqasH1+qfy7my8p3SABomghYkjE4P7KxIVshxUS+s2McGzHm
40yGDijUD4/ZmIsPqXyahcQGkg==
-----END CERTIFICATE-----
