Certificate:
    Data:
        Version: 3 (0x2)
        Serial Number: 11042563100200 (0xa0b0c0d0e28)
    Signature Algorithm: sha256WithRSAEncryption
        Issuer: CN=MUMBAICA_CA, C=IN, O=CITRIX, OU=ANG, ST=KA/emailAddress=MUMBAICA_CA@MUMBAICA_mail.com
        Validity
            Not Before: Jul  8 04:35:53 2016 GMT
            Not After : Jul  6 04:35:53 2026 GMT
        Subject: ST=KA, C=IN, CN=126_MUMBAICA_server/emailAddress=126_MUMBAICA@test_ca.com, O=CITRIX
        Subject Public Key Info:
            Public Key Algorithm: rsaEncryption
                Public-Key: (2048 bit)
                Modulus:
                    00:e7:bd:7a:d3:8f:c7:60:c5:20:f2:b6:e0:3d:f9:
                    9c:71:4c:b7:f1:26:19:24:9b:5a:b9:8d:31:72:1f:
                    d4:e1:92:47:bb:c4:5d:9c:ef:5d:2a:44:d0:26:51:
                    3a:44:f7:44:67:16:53:9e:be:08:aa:40:1f:35:7c:
                    34:5b:fe:44:f8:26:d9:96:b9:5d:af:e8:02:2e:b8:
                    8f:95:9d:40:50:b9:4b:9b:1f:89:d3:73:30:b5:82:
                    7d:1a:f0:43:0c:4d:d0:7d:91:a8:55:7f:c7:60:a3:
                    87:7c:af:f2:2f:ac:4b:ce:19:be:e3:a1:de:a8:b0:
                    51:30:6a:9e:f9:b1:62:30:23:7e:c1:3a:45:1f:2a:
                    94:7a:a8:cd:39:f9:a5:40:e8:2b:dd:bb:50:24:2d:
                    00:89:6e:1d:c7:3e:79:55:65:57:2e:5b:7c:6f:35:
                    82:bd:61:b8:3f:ee:9e:3d:6e:db:19:b9:f4:9d:4f:
                    a5:dc:c7:b0:2b:6e:52:60:e8:ea:77:51:ef:90:55:
                    2c:dd:b2:c8:59:f3:91:fa:ef:80:7a:f5:0d:a8:49:
                    38:4c:b1:4f:d8:62:a4:9f:25:c8:a7:f0:36:82:7b:
                    6b:4b:2c:d2:c9:e4:78:17:da:a1:76:5e:0f:56:f2:
                    35:44:8e:33:03:8a:ef:c2:7b:3e:ac:94:81:73:69:
                    62:bb
                Exponent: 65537 (0x10001)
        X509v3 extensions:
            Netscape Cert Type: 
                SSL Server
            X509v3 Subject Key Identifier: 
                0C:36:12:82:CA:64:00:BC:A3:EE:C0:DB:96:A1:8F:C4:C4:FC:09:8A
            X509v3 Authority Key Identifier: 
                keyid:37:79:BF:65:19:98:28:32:4E:EF:3E:44:14:19:A9:83:2B:AF:05:7A
                DirName:/CN=MUMBAICA_CA/C=IN/O=CITRIX/OU=ANG/ST=KA/emailAddress=MUMBAICA_CA@MUMBAICA_mail.com
                serial:EE:B1:37:EE:F6:D2:14:91

            Authority Information Access: 
                OCSP - URI:http://172.23.10.1/responderpath

    Signature Algorithm: sha256WithRSAEncryption
         b4:9c:bc:8c:33:9c:aa:73:f1:86:05:3b:26:ab:fd:8b:c1:c4:
         8d:bc:76:ac:5a:0f:97:fc:32:6b:95:46:dc:ff:f1:3f:97:75:
         4a:ad:91:2c:c7:9b:32:02:93:23:00:72:7c:25:19:a1:63:b5:
         ba:33:fb:43:91:a4:23:04:5d:90:76:83:d3:53:7a:b6:f2:b5:
         8c:37:31:9c:9e:8e:7b:69:4a:fe:2b:62:68:12:ff:83:44:6b:
         43:38:da:fe:25:45:a6:8f:a3:4f:71:87:8a:78:42:51:6f:66:
         6b:96:95:46:48:90:57:5e:2e:ff:fe:9c:9b:ce:71:b8:2f:d7:
         7e:3f:02:e0:d2:a2:66:de:85:70:e8:49:f9:9b:c6:54:79:9f:
         2c:8a:bf:40:cc:24:3e:e5:dd:9b:35:ed:77:4e:08:ea:f1:a7:
         96:1b:5b:90:d8:d0:ef:13:7c:f2:c9:53:3e:97:bc:f9:64:e1:
         8d:ef:5a:29:97:4c:f4:2e:49:e1:60:4a:1d:7f:73:5e:eb:2c:
         fe:d8:ce:c9:21:96:06:34:31:a0:d2:b8:b6:05:af:e0:87:2a:
         23:0f:6f:9d:bd:0e:a9:0f:e6:3c:4c:d2:f0:89:7d:90:b3:da:
         51:cf:23:49:39:a2:60:bf:c6:a2:b2:60:a1:ef:dc:01:eb:30:
         be:d3:c1:fd
-----BEGIN CERTIFICATE-----
MIIEmDCCA4CgAwIBAgIGCgsMDQ4oMA0GCSqGSIb3DQEBCwUAMH0xFDASBgNVBAMU
C01VTUJBSUNBX0NBMQswCQYDVQQGEwJJTjEPMA0GA1UEChMGQ0lUUklYMQwwCgYD
VQQLEwNBTkcxCzAJBgNVBAgTAktBMSwwKgYJKoZIhvcNAQkBFh1NVU1CQUlDQV9D
QUBNVU1CQUlDQV9tYWlsLmNvbTAeFw0xNjA3MDgwNDM1NTNaFw0yNjA3MDYwNDM1
NTNaMHIxCzAJBgNVBAgTAktBMQswCQYDVQQGEwJJTjEcMBoGA1UEAxQTMTI2X01V
TUJBSUNBX3NlcnZlcjEnMCUGCSqGSIb3DQEJARYYMTI2X01VTUJBSUNBQHRlc3Rf
Y2EuY29tMQ8wDQYDVQQKEwZDSVRSSVgwggEiMA0GCSqGSIb3DQEBAQUAA4IBDwAw
ggEKAoIBAQDnvXrTj8dgxSDytuA9+ZxxTLfxJhkkm1q5jTFyH9Thkke7xF2c710q
RNAmUTpE90RnFlOevgiqQB81fDRb/kT4JtmWuV2v6AIuuI+VnUBQuUubH4nTczC1
gn0a8EMMTdB9kahVf8dgo4d8r/IvrEvOGb7jod6osFEwap75sWIwI37BOkUfKpR6
qM05+aVA6Cvdu1AkLQCJbh3HPnlVZVcuW3xvNYK9Ybg/7p49btsZufSdT6Xcx7Ar
blJg6Op3Ue+QVSzdsshZ85H674B69Q2oSThMsU/YYqSfJcin8DaCe2tLLNLJ5HgX
2qF2Xg9W8jVEjjMDiu/Cez6slIFzaWK7AgMBAAGjggEnMIIBIzARBglghkgBhvhC
AQEEBAMCBkAwHQYDVR0OBBYEFAw2EoLKZAC8o+7A25ahj8TE/AmKMIGwBgNVHSME
gagwgaWAFDd5v2UZmCgyTu8+RBQZqYMrrwV6oYGBpH8wfTEUMBIGA1UEAxQLTVVN
QkFJQ0FfQ0ExCzAJBgNVBAYTAklOMQ8wDQYDVQQKEwZDSVRSSVgxDDAKBgNVBAsT
A0FORzELMAkGA1UECBMCS0ExLDAqBgkqhkiG9w0BCQEWHU1VTUJBSUNBX0NBQE1V
TUJBSUNBX21haWwuY29tggkA7rE37vbSFJEwPAYIKwYBBQUHAQEEMDAuMCwGCCsG
AQUFBzABhiBodHRwOi8vMTcyLjIzLjEwLjEvcmVzcG9uZGVycGF0aDANBgkqhkiG
9w0BAQsFAAOCAQEAtJy8jDOcqnPxhgU7Jqv9i8HEjbx2rFoPl/wya5VG3P/xP5d1
Sq2RLMebMgKTIwByfCUZoWO1ujP7Q5GkIwRdkHaD01N6tvK1jDcxnJ6Oe2lK/iti
aBL/g0RrQzja/iVFpo+jT3GHinhCUW9ma5aVRkiQV14u//6cm85xuC/Xfj8C4NKi
Zt6FcOhJ+ZvGVHmfLIq/QMwkPuXdmzXtd04I6vGnlhtbkNjQ7xN88slTPpe8+WTh
je9aKZdM9C5J4WBKHX9zXuss/tjOySGWBjQxoNK4tgWv4IcqIw9vnb0OqQ/mPEzS
8Il9kLPaUc8jSTmiYL/GorJgoe/cAeswvtPB/Q==
-----END CERTIFICATE-----
