Certificate:
    Data:
        Version: 3 (0x2)
        Serial Number: 11042563100201 (0xa0b0c0d0e29)
    Signature Algorithm: sha256WithRSAEncryption
        Issuer: CN=BANGALORECA_CA, C=IN, O=CITRIX, OU=ANG, ST=KA/emailAddress=BANGALORECA_CA@BANGALORECA_mail.com
        Validity
            Not Before: Jul  8 04:31:27 2016 GMT
            Not After : Jul  6 04:31:27 2026 GMT
        Subject: ST=KA, C=IN, CN=127_BANGALORECA_server/emailAddress=127_BANGALORECA@test_ca.com, O=CITRIX
        Subject Public Key Info:
            Public Key Algorithm: rsaEncryption
                Public-Key: (2048 bit)
                Modulus:
                    00:b2:a1:dc:32:e4:cd:a3:72:66:66:7d:46:31:de:
                    a8:2b:dd:23:c8:9f:40:9b:4e:75:fd:9d:c5:28:17:
                    4e:f0:6b:aa:0f:37:8b:9f:d1:f6:67:ff:5b:29:52:
                    13:fb:bb:66:07:77:c4:c2:a4:4b:ad:8d:c2:65:db:
                    8d:d4:04:f0:36:55:c9:72:32:c0:92:61:a0:33:56:
                    25:59:c3:78:04:15:13:db:bc:36:74:44:4a:5e:2c:
                    de:32:ac:9b:c8:7f:4c:c9:76:4d:75:70:48:a7:65:
                    e4:4f:c3:22:80:4c:b5:8d:df:1a:cd:dd:d0:57:ec:
                    95:50:6d:68:72:4c:4c:62:e3:3f:49:29:fe:46:d5:
                    8f:ac:1f:83:3d:c5:53:0d:93:48:83:8e:09:f3:01:
                    71:6a:aa:e5:2f:35:e6:ce:33:68:b3:b6:7f:0b:9c:
                    01:14:ae:3f:0a:d1:c1:d2:5f:c0:61:ad:fe:ff:34:
                    c5:49:96:9e:d1:8d:7f:6f:a8:fc:cb:a0:2d:8f:02:
                    27:34:d0:21:25:6a:b2:e7:c5:f6:17:05:13:36:3e:
                    91:e3:0b:ac:27:45:dc:3a:3e:a7:9c:81:24:f5:93:
                    0b:03:48:dc:e0:30:ad:fe:28:0e:58:bf:49:9d:59:
                    6a:c0:d4:8c:5e:e6:8d:e1:8e:cd:2c:ca:b6:66:57:
                    e5:99
                Exponent: 65537 (0x10001)
        X509v3 extensions:
            Netscape Cert Type: 
                SSL Server
            X509v3 Subject Key Identifier: 
                C4:5C:A4:22:86:A4:3B:08:BB:D8:95:D4:46:47:53:99:BE:25:40:C5
            X509v3 Authority Key Identifier: 
                keyid:3B:D6:D1:53:18:87:05:22:BB:EE:C3:0F:F5:CE:0F:6B:A2:93:A7:B8
                DirName:/CN=BANGALORECA_CA/C=IN/O=CITRIX/OU=ANG/ST=KA/emailAddress=BANGALORECA_CA@BANGALORECA_mail.com
                serial:A1:AC:B4:DA:46:53:58:40

            Authority Information Access: 
                OCSP - URI:http://172.16.10.1/responderpath

    Signature Algorithm: sha256WithRSAEncryption
         88:42:ef:f7:84:40:77:46:ac:f8:11:c6:82:ca:37:df:88:65:
         2c:ee:e3:d0:c5:81:71:2a:cb:6d:1e:97:58:4f:88:cb:f9:2d:
         ef:24:fd:45:96:72:0c:e8:e5:b4:87:c2:9c:3d:c3:ad:a9:7a:
         7b:5a:93:51:a5:8d:a7:ff:70:85:a2:2f:dd:4f:81:47:71:09:
         92:e9:d4:91:48:38:0f:41:eb:97:df:04:dc:7e:61:7a:50:e1:
         20:fe:04:9f:f9:73:5c:f8:60:09:ed:cf:a3:a3:40:a9:f1:26:
         0c:47:e6:aa:65:8d:91:dd:f9:63:a8:a7:59:a4:2f:b1:41:8e:
         87:d9:6a:36:1b:ee:ee:93:b2:a1:2e:a3:da:a8:6e:39:e9:ca:
         37:79:34:c3:26:82:a9:b8:49:e3:c8:c5:fe:19:4a:e1:6a:3c:
         06:60:39:a0:b3:f1:5e:f0:b6:99:05:8c:a3:4b:43:a5:1d:1c:
         6d:cf:b0:f2:91:1a:72:0e:cc:90:27:82:b7:34:fc:a2:24:65:
         f8:c9:e5:39:99:84:75:77:b6:40:a8:40:c5:04:b0:1c:a7:b3:
         b9:eb:16:23:b9:d9:31:62:bc:ea:c9:cb:1d:7f:9a:dc:b5:ae:
         d6:bc:59:21:e4:f5:a5:b5:90:91:dd:7f:f1:a5:d3:7d:bb:77:
         c9:76:b2:fe
-----BEGIN CERTIFICATE-----
MIIEszCCA5ugAwIBAgIGCgsMDQ4pMA0GCSqGSIb3DQEBCwUAMIGGMRcwFQYDVQQD
FA5CQU5HQUxPUkVDQV9DQTELMAkGA1UEBhMCSU4xDzANBgNVBAoTBkNJVFJJWDEM
MAoGA1UECxMDQU5HMQswCQYDVQQIEwJLQTEyMDAGCSqGSIb3DQEJARYjQkFOR0FM
T1JFQ0FfQ0FAQkFOR0FMT1JFQ0FfbWFpbC5jb20wHhcNMTYwNzA4MDQzMTI3WhcN
MjYwNzA2MDQzMTI3WjB4MQswCQYDVQQIEwJLQTELMAkGA1UEBhMCSU4xHzAdBgNV
BAMUFjEyN19CQU5HQUxPUkVDQV9zZXJ2ZXIxKjAoBgkqhkiG9w0BCQEWGzEyN19C
QU5HQUxPUkVDQUB0ZXN0X2NhLmNvbTEPMA0GA1UEChMGQ0lUUklYMIIBIjANBgkq
hkiG9w0BAQEFAAOCAQ8AMIIBCgKCAQEAsqHcMuTNo3JmZn1GMd6oK90jyJ9Am051
/Z3FKBdO8GuqDzeLn9H2Z/9bKVIT+7tmB3fEwqRLrY3CZduN1ATwNlXJcjLAkmGg
M1YlWcN4BBUT27w2dERKXizeMqybyH9MyXZNdXBIp2XkT8MigEy1jd8azd3QV+yV
UG1ockxMYuM/SSn+RtWPrB+DPcVTDZNIg44J8wFxaqrlLzXmzjNos7Z/C5wBFK4/
CtHB0l/AYa3+/zTFSZae0Y1/b6j8y6AtjwInNNAhJWqy58X2FwUTNj6R4wusJ0Xc
Oj6nnIEk9ZMLA0jc4DCt/igOWL9JnVlqwNSMXuaN4Y7NLMq2ZlflmQIDAQABo4IB
MjCCAS4wEQYJYIZIAYb4QgEBBAQDAgZAMB0GA1UdDgQWBBTEXKQihqQ7CLvYldRG
R1OZviVAxTCBuwYDVR0jBIGzMIGwgBQ71tFTGIcFIrvuww/1zg9ropOnuKGBjKSB
iTCBhjEXMBUGA1UEAxQOQkFOR0FMT1JFQ0FfQ0ExCzAJBgNVBAYTAklOMQ8wDQYD
VQQKEwZDSVRSSVgxDDAKBgNVBAsTA0FORzELMAkGA1UECBMCS0ExMjAwBgkqhkiG
9w0BCQEWI0JBTkdBTE9SRUNBX0NBQEJBTkdBTE9SRUNBX21haWwuY29tggkAoay0
2kZTWEAwPAYIKwYBBQUHAQEEMDAuMCwGCCsGAQUFBzABhiBodHRwOi8vMTcyLjE2
LjEwLjEvcmVzcG9uZGVycGF0aDANBgkqhkiG9w0BAQsFAAOCAQEAiELv94RAd0as
+BHGgso334hlLO7j0MWBcSrLbR6XWE+Iy/kt7yT9RZZyDOjltIfCnD3Dral6e1qT
UaWNp/9whaIv3U+BR3EJkunUkUg4D0Hrl98E3H5helDhIP4En/lzXPhgCe3Po6NA
qfEmDEfmqmWNkd35Y6inWaQvsUGOh9lqNhvu7pOyoS6j2qhuOenKN3k0wyaCqbhJ
48jF/hlK4Wo8BmA5oLPxXvC2mQWMo0tDpR0cbc+w8pEacg7MkCeCtzT8oiRl+Mnl
OZmEdXe2QKhAxQSwHKezuesWI7nZMWK86snLHX+a3LWu1rxZIeT1pbWQkd1/8aXT
fbt3yXay/g==
-----END CERTIFICATE-----
