Certificate:
    Data:
        Version: 3 (0x2)
        Serial Number: 11042563100201 (0xa0b0c0d0e29)
    Signature Algorithm: sha256WithRSAEncryption
        Issuer: CN=OOTYCA_CA, C=IN, O=CITRIX, OU=ANG, ST=KA/emailAddress=OOTYCA_CA@OOTYCA_mail.com
        Validity
            Not Before: Jul  8 04:37:10 2016 GMT
            Not After : Jul  6 04:37:10 2026 GMT
        Subject: ST=KA, C=IN, CN=127_OOTYCA_server/emailAddress=127_OOTYCA@test_ca.com, O=CITRIX
        Subject Public Key Info:
            Public Key Algorithm: rsaEncryption
                Public-Key: (2048 bit)
                Modulus:
                    00:bf:af:10:4b:ad:1d:12:25:be:a9:21:41:f5:d0:
                    f6:5f:de:19:bb:2e:70:25:95:1b:a9:ab:40:77:95:
                    43:af:bf:20:12:e9:cf:7d:3a:f3:14:00:af:e1:a7:
                    2f:55:c5:3e:a2:d1:b1:5f:b3:75:9c:48:b6:65:91:
                    5b:c2:c1:e2:9b:d3:6e:79:b6:df:89:34:90:e3:a0:
                    89:b4:94:5f:f7:5e:6d:7c:8a:b5:ae:65:93:94:14:
                    50:98:97:a3:34:5e:79:ba:b8:66:b6:96:16:9c:55:
                    e2:44:00:81:4d:8d:fd:ce:75:23:24:d2:05:46:c0:
                    c4:7d:a9:66:93:db:61:25:3b:07:cd:71:d6:f4:d8:
                    72:1c:b6:f8:a3:49:e7:75:a5:e6:0f:64:78:91:50:
                    14:d9:18:d2:fc:33:da:3c:ad:5a:dc:37:02:a9:d2:
                    3d:28:48:80:97:5e:f6:58:a1:43:56:0f:e0:74:af:
                    cd:33:fd:7e:2a:07:5f:29:dc:51:2d:43:8b:bd:23:
                    7c:42:ee:cb:53:4b:8b:a0:c3:eb:af:cb:48:9c:05:
                    af:00:27:72:9d:39:56:f7:c8:80:e7:41:3f:63:79:
                    1a:2a:ae:8c:42:a0:fb:69:10:f4:37:1a:34:39:68:
                    1a:48:e2:93:d5:c8:00:43:84:20:ac:af:eb:06:5a:
                    98:7f
                Exponent: 65537 (0x10001)
        X509v3 extensions:
            Netscape Cert Type: 
                SSL Server
            X509v3 Subject Key Identifier: 
                21:D0:62:A7:D9:DD:DF:87:0C:8D:66:8E:27:A2:F1:CD:46:13:0D:7C
            X509v3 Authority Key Identifier: 
                keyid:9E:A0:B1:FE:A8:B8:21:30:13:39:F2:C3:C1:A8:43:CB:5D:73:FC:B5
                DirName:/CN=OOTYCA_CA/C=IN/O=CITRIX/OU=ANG/ST=KA/emailAddress=OOTYCA_CA@OOTYCA_mail.com
                serial:AA:C2:AB:74:21:09:60:FF

            Authority Information Access: 
                OCSP - URI:http://172.25.10.1/responderpath

    Signature Algorithm: sha256WithRSAEncryption
         5a:f7:3a:1b:99:dd:a3:a9:89:fc:1e:fb:fc:50:a8:b8:09:ca:
         e8:8a:7e:3c:ec:0e:59:f9:de:35:56:e2:89:e4:e0:0c:10:0f:
         f5:23:63:84:21:e9:e1:1b:68:57:1f:43:08:34:00:0b:66:96:
         73:7c:a5:d1:57:c3:cf:39:08:d0:b5:f9:8b:56:80:7b:7f:1c:
         57:57:c5:37:36:42:ba:32:49:a5:86:2a:1d:ac:0e:49:7e:87:
         42:1d:45:77:26:d7:de:79:ed:5d:1c:81:30:41:71:90:34:7a:
         8d:29:a7:4e:d5:66:dc:cf:61:b0:c5:1a:8b:a8:36:c2:a9:1f:
         8f:0b:5f:41:37:5c:2f:0d:67:62:32:25:40:68:af:c4:20:0f:
         c4:5a:23:e4:55:ce:5b:82:a9:8b:f5:10:b3:3d:9c:0e:97:0a:
         d7:98:ae:e4:fd:98:df:ca:45:08:89:2c:0d:59:ec:84:57:35:
         96:a3:00:be:98:61:ce:7a:c4:09:42:17:5a:03:11:6b:8e:e4:
         fa:99:56:7c:05:ae:dd:d4:03:52:1e:86:e5:29:32:09:0f:66:
         f1:7d:8b:5c:b9:54:54:96:6e:81:0b:b3:86:45:be:88:84:ea:
         65:c1:29:75:f7:06:01:c0:e9:e9:d3:72:19:1a:b9:8b:7c:4b:
         24:6d:f3:9a
-----BEGIN CERTIFICATE-----
MIIEhzCCA2+gAwIBAgIGCgsMDQ4pMA0GCSqGSIb3DQEBCwUAMHcxEjAQBgNVBAMU
CU9PVFlDQV9DQTELMAkGA1UEBhMCSU4xDzANBgNVBAoTBkNJVFJJWDEMMAoGA1UE
CxMDQU5HMQswCQYDVQQIEwJLQTEoMCYGCSqGSIb3DQEJARYZT09UWUNBX0NBQE9P
VFlDQV9tYWlsLmNvbTAeFw0xNjA3MDgwNDM3MTBaFw0yNjA3MDYwNDM3MTBaMG4x
CzAJBgNVBAgTAktBMQswCQYDVQQGEwJJTjEaMBgGA1UEAxQRMTI3X09PVFlDQV9z
ZXJ2ZXIxJTAjBgkqhkiG9w0BCQEWFjEyN19PT1RZQ0FAdGVzdF9jYS5jb20xDzAN
BgNVBAoTBkNJVFJJWDCCASIwDQYJKoZIhvcNAQEBBQADggEPADCCAQoCggEBAL+v
EEutHRIlvqkhQfXQ9l/eGbsucCWVG6mrQHeVQ6+/IBLpz3068xQAr+GnL1XFPqLR
sV+zdZxItmWRW8LB4pvTbnm234k0kOOgibSUX/debXyKta5lk5QUUJiXozReebq4
ZraWFpxV4kQAgU2N/c51IyTSBUbAxH2pZpPbYSU7B81x1vTYchy2+KNJ53Wl5g9k
eJFQFNkY0vwz2jytWtw3AqnSPShIgJde9lihQ1YP4HSvzTP9fioHXyncUS1Di70j
fELuy1NLi6DD66/LSJwFrwAncp05VvfIgOdBP2N5GiqujEKg+2kQ9DcaNDloGkji
k9XIAEOEIKyv6wZamH8CAwEAAaOCASAwggEcMBEGCWCGSAGG+EIBAQQEAwIGQDAd
BgNVHQ4EFgQUIdBip9nd34cMjWaOJ6LxzUYTDXwwgakGA1UdIwSBoTCBnoAUnqCx
/qi4ITATOfLDwahDy11z/LWhe6R5MHcxEjAQBgNVBAMUCU9PVFlDQV9DQTELMAkG
A1UEBhMCSU4xDzANBgNVBAoTBkNJVFJJWDEMMAoGA1UECxMDQU5HMQswCQYDVQQI
EwJLQTEoMCYGCSqGSIb3DQEJARYZT09UWUNBX0NBQE9PVFlDQV9tYWlsLmNvbYIJ
AKrCq3QhCWD/MDwGCCsGAQUFBwEBBDAwLjAsBggrBgEFBQcwAYYgaHR0cDovLzE3
Mi4yNS4xMC4xL3Jlc3BvbmRlcnBhdGgwDQYJKoZIhvcNAQELBQADggEBAFr3OhuZ
3aOpifwe+/xQqLgJyuiKfjzsDln53jVW4onk4AwQD/UjY4Qh6eEbaFcfQwg0AAtm
lnN8pdFXw885CNC1+YtWgHt/HFdXxTc2QroySaWGKh2sDkl+h0IdRXcm19557V0c
gTBBcZA0eo0pp07VZtzPYbDFGouoNsKpH48LX0E3XC8NZ2IyJUBor8QgD8RaI+RV
zluCqYv1ELM9nA6XCteYruT9mN/KRQiJLA1Z7IRXNZajAL6YYc56xAlCF1oDEWuO
5PqZVnwFrt3UA1IehuUpMgkPZvF9i1y5VFSWboELs4ZFvoiE6mXBKXX3BgHA6enT
chkauYt8SyRt85o=
-----END CERTIFICATE-----
