Certificate:
    Data:
        Version: 3 (0x2)
        Serial Number: 11042563100201 (0xa0b0c0d0e29)
    Signature Algorithm: sha256WithRSAEncryption
        Issuer: CN=MUMBAICA_CA, C=IN, O=CITRIX, OU=ANG, ST=KA/emailAddress=MUMBAICA_CA@MUMBAICA_mail.com
        Validity
            Not Before: Jul  8 04:35:53 2016 GMT
            Not After : Jul  6 04:35:53 2026 GMT
        Subject: ST=KA, C=IN, CN=127_MUMBAICA_server/emailAddress=127_MUMBAICA@test_ca.com, O=CITRIX
        Subject Public Key Info:
            Public Key Algorithm: rsaEncryption
                Public-Key: (2048 bit)
                Modulus:
                    00:d6:a4:3e:91:c8:0a:14:48:71:42:ea:10:1b:9e:
                    ee:fb:7d:7b:a9:88:a4:c4:c3:69:94:20:fb:24:71:
                    83:56:30:c7:08:39:4b:35:48:5c:9e:2d:7f:89:4c:
                    dd:e8:d6:88:83:ad:88:e7:73:25:74:2d:a1:01:70:
                    c1:32:85:a3:6a:ef:2b:76:c2:8f:2b:2d:1c:57:19:
                    9b:86:33:d5:95:da:73:d7:be:17:5c:50:b4:7b:8c:
                    92:da:0e:b2:cc:bf:8a:5b:d5:27:62:3c:1e:d1:01:
                    be:e9:3a:3b:a3:9a:e9:36:a6:88:fa:e2:06:78:93:
                    f6:0a:0e:64:db:f9:31:75:5a:d9:2d:66:cd:83:eb:
                    43:14:1a:b7:7f:f0:33:41:1c:f5:6e:e6:b0:bf:20:
                    12:c7:20:ba:79:12:6d:bf:f9:e5:ff:8e:0f:22:1a:
                    aa:f6:61:7a:29:28:95:8c:af:1f:7c:57:c8:46:fb:
                    6a:44:30:f5:69:19:51:f1:88:23:cb:85:c2:a7:5e:
                    6b:14:eb:00:63:84:a3:d9:89:df:b3:c3:9b:90:37:
                    c2:58:e4:f4:35:57:7f:7d:d9:74:1b:07:c7:01:1d:
                    f5:d2:17:df:27:09:58:bb:b0:98:85:a8:b2:69:fd:
                    e4:ab:68:2d:d7:91:87:15:f6:e8:c4:99:b9:89:73:
                    a2:b5
                Exponent: 65537 (0x10001)
        X509v3 extensions:
            Netscape Cert Type: 
                SSL Server
            X509v3 Subject Key Identifier: 
                71:8A:6D:13:6D:48:16:5B:22:5B:8D:85:11:7B:AA:90:F9:A1:44:F3
            X509v3 Authority Key Identifier: 
                keyid:37:79:BF:65:19:98:28:32:4E:EF:3E:44:14:19:A9:83:2B:AF:05:7A
                DirName:/CN=MUMBAICA_CA/C=IN/O=CITRIX/OU=ANG/ST=KA/emailAddress=MUMBAICA_CA@MUMBAICA_mail.com
                serial:EE:B1:37:EE:F6:D2:14:91

            Authority Information Access: 
                OCSP - URI:http://172.23.10.1/responderpath

    Signature Algorithm: sha256WithRSAEncryption
         74:29:90:c9:e8:44:24:03:bd:a7:8d:22:8e:cd:60:5e:a8:61:
         95:2e:16:74:fb:23:8d:b2:a6:fa:e2:87:89:39:aa:53:44:98:
         04:4f:8b:f0:20:a1:1d:54:25:b7:83:5d:aa:79:2d:17:de:4f:
         31:9e:be:ad:eb:82:a9:cb:ca:20:aa:b6:d4:74:f5:41:f1:57:
         f8:8e:94:0b:c6:01:ba:bb:42:e5:a4:10:ab:bb:2d:4f:88:28:
         bc:17:c6:2b:39:7c:af:40:d3:e8:d9:fc:57:18:ee:a7:b8:ef:
         6b:38:dc:1c:4f:5d:34:e5:f0:ab:fd:40:e8:c4:54:ff:8b:4d:
         a5:70:f0:67:d1:02:08:91:ff:4f:e3:66:83:26:97:01:b3:dd:
         bd:d7:90:dd:00:73:1c:c5:25:42:eb:25:6b:8b:e1:3e:62:34:
         64:a2:34:f6:63:21:25:52:49:81:74:7f:37:1b:93:da:d3:2e:
         18:05:d4:cb:e3:ba:c1:4d:f9:3f:01:e3:f0:91:14:d1:a3:83:
         4f:4f:68:5f:4f:2d:fc:e1:2a:92:1c:a0:13:94:a8:95:bb:9a:
         8d:f4:2b:ff:de:f4:03:84:12:59:8f:ac:22:c9:dd:41:d4:55:
         7c:a3:17:0f:1f:96:2e:51:d1:82:d1:98:52:4d:f3:0b:10:c0:
         21:15:0d:71
-----BEGIN CERTIFICATE-----
MIIEmDCCA4CgAwIBAgIGCgsMDQ4pMA0GCSqGSIb3DQEBCwUAMH0xFDASBgNVBAMU
C01VTUJBSUNBX0NBMQswCQYDVQQGEwJJTjEPMA0GA1UEChMGQ0lUUklYMQwwCgYD
VQQLEwNBTkcxCzAJBgNVBAgTAktBMSwwKgYJKoZIhvcNAQkBFh1NVU1CQUlDQV9D
QUBNVU1CQUlDQV9tYWlsLmNvbTAeFw0xNjA3MDgwNDM1NTNaFw0yNjA3MDYwNDM1
NTNaMHIxCzAJBgNVBAgTAktBMQswCQYDVQQGEwJJTjEcMBoGA1UEAxQTMTI3X01V
TUJBSUNBX3NlcnZlcjEnMCUGCSqGSIb3DQEJARYYMTI3X01VTUJBSUNBQHRlc3Rf
Y2EuY29tMQ8wDQYDVQQKEwZDSVRSSVgwggEiMA0GCSqGSIb3DQEBAQUAA4IBDwAw
ggEKAoIBAQDWpD6RyAoUSHFC6hAbnu77fXupiKTEw2mUIPskcYNWMMcIOUs1SFye
LX+JTN3o1oiDrYjncyV0LaEBcMEyhaNq7yt2wo8rLRxXGZuGM9WV2nPXvhdcULR7
jJLaDrLMv4pb1SdiPB7RAb7pOjujmuk2poj64gZ4k/YKDmTb+TF1WtktZs2D60MU
Grd/8DNBHPVu5rC/IBLHILp5Em2/+eX/jg8iGqr2YXopKJWMrx98V8hG+2pEMPVp
GVHxiCPLhcKnXmsU6wBjhKPZid+zw5uQN8JY5PQ1V3992XQbB8cBHfXSF98nCVi7
sJiFqLJp/eSraC3XkYcV9ujEmbmJc6K1AgMBAAGjggEnMIIBIzARBglghkgBhvhC
AQEEBAMCBkAwHQYDVR0OBBYEFHGKbRNtSBZbIluNhRF7qpD5oUTzMIGwBgNVHSME
gagwgaWAFDd5v2UZmCgyTu8+RBQZqYMrrwV6oYGBpH8wfTEUMBIGA1UEAxQLTVVN
QkFJQ0FfQ0ExCzAJBgNVBAYTAklOMQ8wDQYDVQQKEwZDSVRSSVgxDDAKBgNVBAsT
A0FORzELMAkGA1UECBMCS0ExLDAqBgkqhkiG9w0BCQEWHU1VTUJBSUNBX0NBQE1V
TUJBSUNBX21haWwuY29tggkA7rE37vbSFJEwPAYIKwYBBQUHAQEEMDAuMCwGCCsG
AQUFBzABhiBodHRwOi8vMTcyLjIzLjEwLjEvcmVzcG9uZGVycGF0aDANBgkqhkiG
9w0BAQsFAAOCAQEAdCmQyehEJAO9p40ijs1gXqhhlS4WdPsjjbKm+uKHiTmqU0SY
BE+L8CChHVQlt4NdqnktF95PMZ6+reuCqcvKIKq21HT1QfFX+I6UC8YBurtC5aQQ
q7stT4govBfGKzl8r0DT6Nn8Vxjup7jvazjcHE9dNOXwq/1A6MRU/4tNpXDwZ9EC
CJH/T+NmgyaXAbPdvdeQ3QBzHMUlQusla4vhPmI0ZKI09mMhJVJJgXR/NxuT2tMu
GAXUy+O6wU35PwHj8JEU0aODT09oX08t/OEqkhygE5SolbuajfQr/970A4QSWY+s
IsndQdRVfKMXDx+WLlHRgtGYUk3zCxDAIRUNcQ==
-----END CERTIFICATE-----
