Certificate:
    Data:
        Version: 3 (0x2)
        Serial Number: 11042563100201 (0xa0b0c0d0e29)
    Signature Algorithm: sha256WithRSAEncryption
        Issuer: CN=CALCUTTACA_CA, C=IN, O=CITRIX, OU=ANG, ST=KA/emailAddress=CALCUTTACA_CA@CALCUTTACA_mail.com
        Validity
            Not Before: Jul  8 04:33:10 2016 GMT
            Not After : Jul  6 04:33:10 2026 GMT
        Subject: ST=KA, C=IN, CN=127_CALCUTTACA_server/emailAddress=127_CALCUTTACA@test_ca.com, O=CITRIX
        Subject Public Key Info:
            Public Key Algorithm: rsaEncryption
                Public-Key: (2048 bit)
                Modulus:
                    00:c2:33:d4:5e:a9:33:1c:f3:68:f6:9e:f1:5e:f1:
                    60:99:2f:0d:cf:41:d4:be:64:75:ac:cc:72:c5:5a:
                    06:c1:5c:91:2a:12:6a:95:d3:b1:d8:63:d2:a4:7a:
                    57:16:4c:fe:7b:a0:79:36:05:3a:63:fc:d6:fb:fb:
                    ef:b8:87:4d:c7:7e:be:60:d2:c9:26:73:89:44:cd:
                    19:f7:93:58:a0:6f:5e:d4:ae:e1:76:86:bb:d5:a0:
                    c5:b9:bf:93:8b:b1:dd:5c:7e:1c:c0:df:dc:4a:0c:
                    b8:5e:e6:dd:13:90:13:2b:ad:4f:5e:97:09:f6:52:
                    b1:c3:fa:50:a4:e6:0f:74:22:61:ec:c6:81:3f:c6:
                    52:e9:f1:3d:ed:31:fd:ee:1a:8b:79:7a:29:ef:53:
                    20:bd:e3:3c:ed:3b:cc:1a:15:14:23:73:84:dd:63:
                    aa:28:cb:00:89:d1:cd:8f:4f:2d:28:ce:91:bc:cb:
                    94:74:f6:b5:9d:42:32:e7:78:e3:3e:1a:7f:bb:82:
                    82:64:a6:4d:44:0a:e1:d7:d8:13:6c:38:f5:35:26:
                    33:08:a8:fe:db:e8:7a:43:08:13:dc:db:fa:60:81:
                    0b:54:0b:55:4a:f0:89:6e:36:37:40:8f:36:19:d3:
                    68:f5:1c:61:5c:a8:9c:2c:8b:6b:4f:88:c9:99:af:
                    52:67
                Exponent: 65537 (0x10001)
        X509v3 extensions:
            Netscape Cert Type: 
                SSL Server
            X509v3 Subject Key Identifier: 
                AB:FC:26:83:AB:31:D3:66:C3:DF:89:9A:AD:80:34:12:CB:45:E7:1D
            X509v3 Authority Key Identifier: 
                keyid:37:2E:7B:27:46:4B:CF:47:10:AC:2B:2E:BA:D0:F3:66:75:EB:52:75
                DirName:/CN=CALCUTTACA_CA/C=IN/O=CITRIX/OU=ANG/ST=KA/emailAddress=CALCUTTACA_CA@CALCUTTACA_mail.com
                serial:A5:C6:47:0E:E6:06:37:18

            Authority Information Access: 
                OCSP - URI:http://172.18.10.1/responderpath

    Signature Algorithm: sha256WithRSAEncryption
         9c:b8:4c:57:2c:1e:20:92:ca:5e:cd:dc:bd:f5:56:f1:bd:42:
         0e:83:4b:7c:ba:81:ab:a3:a7:b3:16:f0:33:b2:aa:34:89:c0:
         33:43:05:f5:ea:24:f2:2e:25:73:d6:5c:95:ce:69:91:ac:1b:
         ee:96:cf:cd:60:e9:c9:5d:20:c5:66:63:2f:32:06:34:ca:c2:
         14:b9:c8:30:46:d1:1a:e9:0a:e9:f1:f5:2e:92:8a:54:40:2f:
         12:63:d0:eb:c7:76:d7:55:28:a1:75:3b:15:ee:dc:f3:52:eb:
         4c:f8:5c:6e:b8:50:bd:8d:fc:c1:6e:fc:6f:14:42:d8:c3:0b:
         bf:59:1d:4b:7e:d8:80:c6:28:57:ab:2f:72:9c:0a:60:54:f5:
         74:93:f7:e3:bc:52:59:67:0a:a8:86:03:a0:a3:1d:ad:e5:c4:
         47:51:e6:74:84:c9:99:43:b2:42:09:f1:42:28:75:78:ab:5a:
         8a:57:fb:b6:c5:af:bc:be:e8:06:b2:49:20:26:cd:b0:ea:5f:
         2f:a7:f4:28:d4:98:6c:bf:3a:e8:e6:0c:4f:ad:de:39:23:e2:
         95:ec:04:7c:4e:b9:03:65:e1:57:d5:03:de:0b:bc:69:e3:b5:
         e4:04:5a:38:57:7d:87:42:05:87:5c:5e:6a:3b:97:44:6f:71:
         84:5f:05:1a
-----BEGIN CERTIFICATE-----
MIIEqzCCA5OgAwIBAgIGCgsMDQ4pMA0GCSqGSIb3DQEBCwUAMIGDMRYwFAYDVQQD
FA1DQUxDVVRUQUNBX0NBMQswCQYDVQQGEwJJTjEPMA0GA1UEChMGQ0lUUklYMQww
CgYDVQQLEwNBTkcxCzAJBgNVBAgTAktBMTAwLgYJKoZIhvcNAQkBFiFDQUxDVVRU
QUNBX0NBQENBTENVVFRBQ0FfbWFpbC5jb20wHhcNMTYwNzA4MDQzMzEwWhcNMjYw
NzA2MDQzMzEwWjB2MQswCQYDVQQIEwJLQTELMAkGA1UEBhMCSU4xHjAcBgNVBAMU
FTEyN19DQUxDVVRUQUNBX3NlcnZlcjEpMCcGCSqGSIb3DQEJARYaMTI3X0NBTENV
VFRBQ0FAdGVzdF9jYS5jb20xDzANBgNVBAoTBkNJVFJJWDCCASIwDQYJKoZIhvcN
AQEBBQADggEPADCCAQoCggEBAMIz1F6pMxzzaPae8V7xYJkvDc9B1L5kdazMcsVa
BsFckSoSapXTsdhj0qR6VxZM/nugeTYFOmP81vv777iHTcd+vmDSySZziUTNGfeT
WKBvXtSu4XaGu9Wgxbm/k4ux3Vx+HMDf3EoMuF7m3ROQEyutT16XCfZSscP6UKTm
D3QiYezGgT/GUunxPe0x/e4ai3l6Ke9TIL3jPO07zBoVFCNzhN1jqijLAInRzY9P
LSjOkbzLlHT2tZ1CMud44z4af7uCgmSmTUQK4dfYE2w49TUmMwio/tvoekMIE9zb
+mCBC1QLVUrwiW42N0CPNhnTaPUcYVyonCyLa0+IyZmvUmcCAwEAAaOCAS8wggEr
MBEGCWCGSAGG+EIBAQQEAwIGQDAdBgNVHQ4EFgQUq/wmg6sx02bD34marYA0EstF
5x0wgbgGA1UdIwSBsDCBrYAUNy57J0ZLz0cQrCsuutDzZnXrUnWhgYmkgYYwgYMx
FjAUBgNVBAMUDUNBTENVVFRBQ0FfQ0ExCzAJBgNVBAYTAklOMQ8wDQYDVQQKEwZD
SVRSSVgxDDAKBgNVBAsTA0FORzELMAkGA1UECBMCS0ExMDAuBgkqhkiG9w0BCQEW
IUNBTENVVFRBQ0FfQ0FAQ0FMQ1VUVEFDQV9tYWlsLmNvbYIJAKXGRw7mBjcYMDwG
CCsGAQUFBwEBBDAwLjAsBggrBgEFBQcwAYYgaHR0cDovLzE3Mi4xOC4xMC4xL3Jl
c3BvbmRlcnBhdGgwDQYJKoZIhvcNAQELBQADggEBAJy4TFcsHiCSyl7N3L31VvG9
Qg6DS3y6gaujp7MW8DOyqjSJwDNDBfXqJPIuJXPWXJXOaZGsG+6Wz81g6cldIMVm
Yy8yBjTKwhS5yDBG0RrpCunx9S6SilRALxJj0OvHdtdVKKF1OxXu3PNS60z4XG64
UL2N/MFu/G8UQtjDC79ZHUt+2IDGKFerL3KcCmBU9XST9+O8UllnCqiGA6CjHa3l
xEdR5nSEyZlDskIJ8UIodXirWopX+7bFr7y+6AaySSAmzbDqXy+n9CjUmGy/Oujm
DE+t3jkj4pXsBHxOuQNl4VfVA94LvGnjteQEWjhXfYdCBYdcXmo7l0RvcYRfBRo=
-----END CERTIFICATE-----
