Certificate:
    Data:
        Version: 3 (0x2)
        Serial Number: 11042563100201 (0xa0b0c0d0e29)
    Signature Algorithm: sha256WithRSAEncryption
        Issuer: CN=GOACA_CA, C=IN, O=CITRIX, OU=ANG, ST=KA/emailAddress=GOACA_CA@GOACA_mail.com
        Validity
            Not Before: Jul  8 04:34:59 2016 GMT
            Not After : Jul  6 04:34:59 2026 GMT
        Subject: ST=KA, C=IN, CN=127_GOACA_server/emailAddress=127_GOACA@test_ca.com, O=CITRIX
        Subject Public Key Info:
            Public Key Algorithm: rsaEncryption
                Public-Key: (2048 bit)
                Modulus:
                    00:e2:d0:6c:a7:87:bb:cb:dd:03:47:f8:4a:c3:d7:
                    1d:4c:cc:3d:e2:41:bb:67:39:e0:91:4d:0d:6d:29:
                    06:c6:53:c4:17:fb:67:39:4c:4d:89:92:fa:d8:06:
                    f7:11:8d:9d:be:89:22:93:1c:8d:de:53:c9:6a:88:
                    d6:68:10:58:b7:3c:6d:9f:fd:f3:b5:a7:76:d7:e7:
                    96:36:e2:91:cf:02:26:b3:62:9a:1f:4a:30:74:59:
                    f1:a8:e6:04:6e:56:49:18:d9:66:97:8a:9a:7d:5a:
                    3e:4c:c2:4f:4b:1a:22:75:90:78:87:56:0b:0d:d5:
                    dd:e6:40:e6:7e:ed:3d:bb:b2:20:cd:4b:53:fe:ae:
                    af:27:41:51:a3:49:0c:52:a7:14:c7:44:8f:ca:bf:
                    06:1a:eb:5b:1d:96:51:a0:1b:13:f1:d6:e5:38:b0:
                    d9:c9:45:f1:79:5e:32:27:13:97:b4:e6:84:40:98:
                    7e:01:ad:af:19:65:cf:d1:5b:22:2f:21:10:51:97:
                    16:95:ca:6c:39:b5:56:70:0c:07:c2:ca:82:f7:f6:
                    16:68:91:ba:8e:31:48:f2:ee:14:2a:61:bf:0e:38:
                    5b:3f:2a:55:1b:81:33:ba:47:7e:01:b0:a2:4e:5c:
                    97:d9:23:fd:99:03:d4:e0:43:ba:83:64:70:17:94:
                    28:1d
                Exponent: 65537 (0x10001)
        X509v3 extensions:
            Netscape Cert Type: 
                SSL Server
            X509v3 Subject Key Identifier: 
                5E:39:AD:C0:A7:29:CE:12:7F:5C:7A:37:FE:75:43:3E:8E:D3:8A:26
            X509v3 Authority Key Identifier: 
                keyid:81:03:00:D4:DC:70:D9:A7:03:08:1E:DC:9B:4C:AC:E6:59:CD:39:68
                DirName:/CN=GOACA_CA/C=IN/O=CITRIX/OU=ANG/ST=KA/emailAddress=GOACA_CA@GOACA_mail.com
                serial:FC:8B:0A:90:01:17:5F:1C

            Authority Information Access: 
                OCSP - URI:http://172.21.10.1/responderpath

    Signature Algorithm: sha256WithRSAEncryption
         c7:52:ae:a2:bf:58:70:e7:70:12:ea:fd:22:ec:f7:96:cb:9a:
         f1:79:d6:4f:a6:61:61:8e:0d:07:59:d8:87:f2:14:aa:d8:63:
         55:6f:fa:c0:98:cf:bf:2e:35:68:cc:33:2d:9d:96:cb:70:f5:
         08:f8:fc:4f:9f:da:69:d8:34:04:50:6f:77:b3:28:07:bc:af:
         ac:c1:3b:5e:f5:0f:9c:7d:97:a7:13:86:3d:78:12:0a:0e:dd:
         8d:cf:ab:06:1b:96:79:69:55:04:6c:bf:e7:b7:6a:04:85:ce:
         00:ee:c9:a6:6d:6f:17:d7:b5:5b:c6:c8:00:76:dd:7f:e9:e8:
         0d:82:0c:ef:7b:92:93:36:db:91:a2:cb:85:40:fc:fe:4d:95:
         80:43:39:4b:04:d0:b3:8c:e4:6d:bb:e6:a5:be:3e:bd:69:9f:
         a3:de:f2:16:07:c1:38:91:bf:03:4a:e3:2d:29:2a:4f:c4:3e:
         e5:e1:f6:7d:64:a6:9c:e2:6e:88:98:7c:57:55:55:4a:42:15:
         9e:7a:66:6a:a2:55:d2:9f:37:6d:07:b5:b3:68:58:93:8b:d7:
         8f:e7:3a:a4:2f:bf:4d:5f:a7:5e:69:d2:9d:d3:cf:a7:fb:b1:
         54:59:bb:aa:a2:69:d4:33:20:4e:47:ea:e8:a2:49:ab:b5:b9:
         53:ef:ce:70
-----BEGIN CERTIFICATE-----
MIIEfzCCA2egAwIBAgIGCgsMDQ4pMA0GCSqGSIb3DQEBCwUAMHQxETAPBgNVBAMU
CEdPQUNBX0NBMQswCQYDVQQGEwJJTjEPMA0GA1UEChMGQ0lUUklYMQwwCgYDVQQL
EwNBTkcxCzAJBgNVBAgTAktBMSYwJAYJKoZIhvcNAQkBFhdHT0FDQV9DQUBHT0FD
QV9tYWlsLmNvbTAeFw0xNjA3MDgwNDM0NTlaFw0yNjA3MDYwNDM0NTlaMGwxCzAJ
BgNVBAgTAktBMQswCQYDVQQGEwJJTjEZMBcGA1UEAxQQMTI3X0dPQUNBX3NlcnZl
cjEkMCIGCSqGSIb3DQEJARYVMTI3X0dPQUNBQHRlc3RfY2EuY29tMQ8wDQYDVQQK
EwZDSVRSSVgwggEiMA0GCSqGSIb3DQEBAQUAA4IBDwAwggEKAoIBAQDi0Gynh7vL
3QNH+ErD1x1MzD3iQbtnOeCRTQ1tKQbGU8QX+2c5TE2JkvrYBvcRjZ2+iSKTHI3e
U8lqiNZoEFi3PG2f/fO1p3bX55Y24pHPAiazYpofSjB0WfGo5gRuVkkY2WaXipp9
Wj5Mwk9LGiJ1kHiHVgsN1d3mQOZ+7T27siDNS1P+rq8nQVGjSQxSpxTHRI/KvwYa
61sdllGgGxPx1uU4sNnJRfF5XjInE5e05oRAmH4Bra8ZZc/RWyIvIRBRlxaVymw5
tVZwDAfCyoL39hZokbqOMUjy7hQqYb8OOFs/KlUbgTO6R34BsKJOXJfZI/2ZA9Tg
Q7qDZHAXlCgdAgMBAAGjggEdMIIBGTARBglghkgBhvhCAQEEBAMCBkAwHQYDVR0O
BBYEFF45rcCnKc4Sf1x6N/51Qz6O04omMIGmBgNVHSMEgZ4wgZuAFIEDANTccNmn
Awge3JtMrOZZzTlooXikdjB0MREwDwYDVQQDFAhHT0FDQV9DQTELMAkGA1UEBhMC
SU4xDzANBgNVBAoTBkNJVFJJWDEMMAoGA1UECxMDQU5HMQswCQYDVQQIEwJLQTEm
MCQGCSqGSIb3DQEJARYXR09BQ0FfQ0FAR09BQ0FfbWFpbC5jb22CCQD8iwqQARdf
HDA8BggrBgEFBQcBAQQwMC4wLAYIKwYBBQUHMAGGIGh0dHA6Ly8xNzIuMjEuMTAu
MS9yZXNwb25kZXJwYXRoMA0GCSqGSIb3DQEBCwUAA4IBAQDHUq6iv1hw53AS6v0i
7PeWy5rxedZPpmFhjg0HWdiH8hSq2GNVb/rAmM+/LjVozDMtnZbLcPUI+PxPn9pp
2DQEUG93sygHvK+swTte9Q+cfZenE4Y9eBIKDt2Nz6sGG5Z5aVUEbL/nt2oEhc4A
7smmbW8X17VbxsgAdt1/6egNggzve5KTNtuRosuFQPz+TZWAQzlLBNCzjORtu+al
vj69aZ+j3vIWB8E4kb8DSuMtKSpPxD7l4fZ9ZKac4m6ImHxXVVVKQhWeemZqolXS
nzdtB7WzaFiTi9eP5zqkL79NX6deadKd08+n+7FUWbuqomnUMyBOR+rookmrtblT
785w
-----END CERTIFICATE-----
