Certificate:
    Data:
        Version: 3 (0x2)
        Serial Number: 11042563100201 (0xa0b0c0d0e29)
    Signature Algorithm: sha256WithRSAEncryption
        Issuer: CN=PATNACA_CA, C=IN, O=CITRIX, OU=ANG, ST=KA/emailAddress=PATNACA_CA@PATNACA_mail.com
        Validity
            Not Before: Jul  8 04:38:28 2016 GMT
            Not After : Jul  6 04:38:28 2026 GMT
        Subject: ST=KA, C=IN, CN=127_PATNACA_server/emailAddress=127_PATNACA@test_ca.com, O=CITRIX
        Subject Public Key Info:
            Public Key Algorithm: rsaEncryption
                Public-Key: (2048 bit)
                Modulus:
                    00:ab:1e:83:e4:f2:af:88:0d:f1:84:29:34:ef:ab:
                    c8:e9:9b:74:6c:84:55:b4:3d:d8:88:07:22:21:8b:
                    89:26:e9:fa:0f:91:af:50:0a:e7:b8:f9:fd:61:99:
                    0a:0a:1f:9a:f3:8d:d0:55:15:59:7e:50:e7:be:1d:
                    ec:cb:08:69:4d:5a:75:42:86:a6:fa:6f:42:f6:aa:
                    fb:b3:46:ca:5c:bd:ec:74:fc:d5:cb:94:b8:5b:fa:
                    a3:71:ba:19:76:dd:a3:e1:ae:e8:68:86:93:8e:32:
                    5c:bb:05:63:26:64:fc:64:28:bf:75:bf:24:68:f0:
                    10:40:59:60:f6:50:1c:b1:e2:72:5f:5f:1e:7c:aa:
                    36:ab:95:31:da:05:7d:20:8d:af:95:5d:d0:55:b0:
                    a7:11:4f:10:0a:b8:dd:5b:7c:e1:cc:88:50:f4:a9:
                    41:e6:31:73:2a:c3:d0:12:6a:cf:08:86:46:88:87:
                    4d:70:2d:84:b2:bd:ef:f6:43:2e:70:57:38:05:f5:
                    c5:d8:13:86:8f:3f:b2:83:4e:80:ba:01:a8:f2:c1:
                    73:36:07:38:c3:67:fa:da:56:44:2d:30:28:9b:ff:
                    4f:06:a5:b4:22:fb:d1:dc:69:ae:d3:3c:ed:82:fa:
                    12:2a:c5:f2:2f:65:53:d4:0a:c7:a0:d1:5f:99:8d:
                    6f:25
                Exponent: 65537 (0x10001)
        X509v3 extensions:
            Netscape Cert Type: 
                SSL Server
            X509v3 Subject Key Identifier: 
                1B:E0:67:2D:61:C2:44:AE:FC:9F:8D:4F:55:CC:92:E3:A8:E4:41:BF
            X509v3 Authority Key Identifier: 
                keyid:FF:DF:C4:8D:AF:64:E1:E3:17:FA:96:EE:F1:75:A7:ED:A7:C3:91:B8
                DirName:/CN=PATNACA_CA/C=IN/O=CITRIX/OU=ANG/ST=KA/emailAddress=PATNACA_CA@PATNACA_mail.com
                serial:9F:2E:15:76:F0:BD:C1:6F

            Authority Information Access: 
                OCSP - URI:http://172.26.10.1/responderpath

    Signature Algorithm: sha256WithRSAEncryption
         4f:7f:a4:ad:32:36:6f:01:de:e5:52:f4:52:95:38:51:dd:c1:
         78:a6:22:b9:c9:a2:31:52:7c:2c:3b:f3:6d:d1:0f:cc:65:c2:
         a8:0a:32:84:8f:75:4d:d7:7c:d6:af:72:47:da:8b:56:c9:1f:
         dc:8d:33:a2:c3:0f:2a:7d:a6:a4:1d:21:65:53:47:e0:3d:ce:
         79:a0:54:16:c4:37:12:31:6b:a6:10:2d:ba:b2:ab:2b:a4:79:
         c4:d9:31:74:6e:b4:b9:a0:d1:55:99:a3:b4:9d:9e:36:ea:48:
         d8:93:c8:5c:8c:e3:62:c5:19:ea:6e:84:7c:69:da:32:23:9a:
         dc:d4:53:cb:d9:38:55:b2:08:5a:e7:0a:fe:21:85:49:ab:91:
         fb:97:bb:6e:2b:59:d3:9f:e5:5c:51:9c:f1:4d:c9:16:0c:e7:
         0a:2a:9d:bb:ca:f1:19:f3:72:f4:96:10:07:86:b0:37:ac:7d:
         b7:a4:3b:25:79:b2:55:5c:06:47:90:1c:8a:d1:24:6c:5e:c0:
         af:45:a4:21:b8:38:7c:48:e2:35:5c:b7:55:e5:18:27:f1:e8:
         8d:95:b1:00:64:66:45:06:55:75:6e:df:a5:b2:83:81:7d:01:
         9c:d8:ef:fa:e9:56:da:f8:06:23:d8:7a:6c:22:44:07:7c:f7:
         d1:ef:48:04
-----BEGIN CERTIFICATE-----
MIIEjzCCA3egAwIBAgIGCgsMDQ4pMA0GCSqGSIb3DQEBCwUAMHoxEzARBgNVBAMU
ClBBVE5BQ0FfQ0ExCzAJBgNVBAYTAklOMQ8wDQYDVQQKEwZDSVRSSVgxDDAKBgNV
BAsTA0FORzELMAkGA1UECBMCS0ExKjAoBgkqhkiG9w0BCQEWG1BBVE5BQ0FfQ0FA
UEFUTkFDQV9tYWlsLmNvbTAeFw0xNjA3MDgwNDM4MjhaFw0yNjA3MDYwNDM4Mjha
MHAxCzAJBgNVBAgTAktBMQswCQYDVQQGEwJJTjEbMBkGA1UEAxQSMTI3X1BBVE5B
Q0Ffc2VydmVyMSYwJAYJKoZIhvcNAQkBFhcxMjdfUEFUTkFDQUB0ZXN0X2NhLmNv
bTEPMA0GA1UEChMGQ0lUUklYMIIBIjANBgkqhkiG9w0BAQEFAAOCAQ8AMIIBCgKC
AQEAqx6D5PKviA3xhCk076vI6Zt0bIRVtD3YiAciIYuJJun6D5GvUArnuPn9YZkK
Ch+a843QVRVZflDnvh3sywhpTVp1Qoam+m9C9qr7s0bKXL3sdPzVy5S4W/qjcboZ
dt2j4a7oaIaTjjJcuwVjJmT8ZCi/db8kaPAQQFlg9lAcseJyX18efKo2q5Ux2gV9
II2vlV3QVbCnEU8QCrjdW3zhzIhQ9KlB5jFzKsPQEmrPCIZGiIdNcC2Esr3v9kMu
cFc4BfXF2BOGjz+yg06AugGo8sFzNgc4w2f62lZELTAom/9PBqW0IvvR3Gmu0zzt
gvoSKsXyL2VT1ArHoNFfmY1vJQIDAQABo4IBIzCCAR8wEQYJYIZIAYb4QgEBBAQD
AgZAMB0GA1UdDgQWBBQb4GctYcJErvyfjU9VzJLjqORBvzCBrAYDVR0jBIGkMIGh
gBT/38SNr2Th4xf6lu7xdaftp8ORuKF+pHwwejETMBEGA1UEAxQKUEFUTkFDQV9D
QTELMAkGA1UEBhMCSU4xDzANBgNVBAoTBkNJVFJJWDEMMAoGA1UECxMDQU5HMQsw
CQYDVQQIEwJLQTEqMCgGCSqGSIb3DQEJARYbUEFUTkFDQV9DQUBQQVROQUNBX21h
aWwuY29tggkAny4VdvC9wW8wPAYIKwYBBQUHAQEEMDAuMCwGCCsGAQUFBzABhiBo
dHRwOi8vMTcyLjI2LjEwLjEvcmVzcG9uZGVycGF0aDANBgkqhkiG9w0BAQsFAAOC
AQEAT3+krTI2bwHe5VL0UpU4Ud3BeKYiucmiMVJ8LDvzbdEPzGXCqAoyhI91Tdd8
1q9yR9qLVskf3I0zosMPKn2mpB0hZVNH4D3OeaBUFsQ3EjFrphAturKrK6R5xNkx
dG60uaDRVZmjtJ2eNupI2JPIXIzjYsUZ6m6EfGnaMiOa3NRTy9k4VbIIWucK/iGF
SauR+5e7bitZ05/lXFGc8U3JFgznCiqdu8rxGfNy9JYQB4awN6x9t6Q7JXmyVVwG
R5AcitEkbF7Ar0WkIbg4fEjiNVy3VeUYJ/HojZWxAGRmRQZVdW7fpbKDgX0BnNjv
+ulW2vgGI9h6bCJEB3z30e9IBA==
-----END CERTIFICATE-----
