Certificate:
    Data:
        Version: 3 (0x2)
        Serial Number: 11042563100201 (0xa0b0c0d0e29)
    Signature Algorithm: sha256WithRSAEncryption
        Issuer: CN=RANCHICA_CA, C=IN, O=CITRIX, OU=ANG, ST=KA/emailAddress=RANCHICA_CA@RANCHICA_mail.com
        Validity
            Not Before: Jul  8 04:38:54 2016 GMT
            Not After : Jul  6 04:38:54 2026 GMT
        Subject: ST=KA, C=IN, CN=127_RANCHICA_server/emailAddress=127_RANCHICA@test_ca.com, O=CITRIX
        Subject Public Key Info:
            Public Key Algorithm: rsaEncryption
                Public-Key: (2048 bit)
                Modulus:
                    00:f3:44:d5:4f:e6:59:18:5d:fc:6c:35:ec:22:7c:
                    24:d8:89:d8:88:f5:c1:31:19:ce:79:31:5c:4c:2b:
                    56:f2:bc:2b:55:d5:89:8b:3d:a2:24:f1:06:c5:7b:
                    2e:e8:06:71:31:03:bb:05:2d:6a:7b:74:da:bd:40:
                    99:78:6d:48:8d:6f:09:fd:48:4b:6a:41:cf:3f:c5:
                    08:fe:95:94:e1:94:3e:d0:47:e6:bc:4d:bf:e7:a1:
                    b4:b8:1c:44:93:5c:47:3f:4b:0f:85:85:f8:ba:ea:
                    5e:86:11:f4:fa:c2:e8:c7:c9:d6:58:e6:c4:c3:de:
                    02:29:a2:3a:ec:a1:24:a0:b5:58:3b:56:f3:ef:b3:
                    a6:7a:e7:21:ec:df:cf:67:10:cf:40:09:dc:b8:ca:
                    ca:3a:ee:bf:93:14:73:5b:ec:c7:46:84:b2:0a:9a:
                    85:72:d2:6a:3d:10:a7:81:5a:ab:79:cc:6a:95:1d:
                    f8:10:c8:c9:70:2e:c3:ba:1b:a1:84:70:f8:f7:42:
                    d5:e4:d5:ef:04:1c:6b:42:31:cd:61:b8:9b:d6:f0:
                    58:f3:0c:ae:1e:d6:59:88:f9:ff:e0:70:ef:e2:c4:
                    00:b5:60:7b:3e:a6:a3:24:03:e0:ce:48:f1:6b:87:
                    a2:24:04:f5:32:db:c9:64:50:a2:c0:87:21:33:c8:
                    b4:3b
                Exponent: 65537 (0x10001)
        X509v3 extensions:
            Netscape Cert Type: 
                SSL Server
            X509v3 Subject Key Identifier: 
                56:D8:7C:EF:25:2A:F4:AE:1D:F1:6E:87:9B:2F:D8:04:60:56:19:D8
            X509v3 Authority Key Identifier: 
                keyid:A7:10:6F:5D:0C:9F:9C:A2:F4:39:92:A3:7D:5C:B8:C0:25:71:BF:39
                DirName:/CN=RANCHICA_CA/C=IN/O=CITRIX/OU=ANG/ST=KA/emailAddress=RANCHICA_CA@RANCHICA_mail.com
                serial:E7:09:A4:3D:1C:C7:45:B1

            Authority Information Access: 
                OCSP - URI:http://172.27.10.1/responderpath

    Signature Algorithm: sha256WithRSAEncryption
         62:66:8a:a5:4c:eb:1b:73:92:24:86:09:8f:a0:a0:e7:2c:4d:
         61:f1:d3:ce:2d:1e:a8:85:37:53:cf:ed:c8:5a:9e:41:c3:52:
         3f:c4:4a:34:fe:58:51:15:87:f6:94:82:bf:dc:a1:0a:1e:87:
         80:da:09:5b:c0:ea:e1:11:09:59:b6:c8:64:4a:43:1e:ee:39:
         55:59:66:e3:58:c4:b5:2f:4e:29:42:46:05:a7:2c:55:ae:85:
         2e:5f:45:fb:7e:65:be:82:99:e0:06:7a:82:7f:55:9c:9a:62:
         7f:5f:0a:4a:2c:ab:67:6a:fd:17:03:bd:90:8d:d4:e4:8f:f5:
         d8:cc:53:6f:78:c3:d8:d2:59:34:ef:dc:cc:b6:2d:f1:f7:ca:
         f1:d3:af:bd:ae:fb:69:11:3d:89:42:4c:47:51:ac:90:f9:2e:
         51:d6:36:57:c1:14:d4:6e:37:c0:4f:e8:b9:d0:53:03:04:32:
         4f:f0:56:fb:1d:b7:e1:33:c7:a3:55:5d:fe:0a:dc:a8:5c:cf:
         9b:e6:5d:8c:61:e2:6a:dd:2a:b3:2c:8f:3b:73:8b:32:74:90:
         64:2a:14:3d:97:5f:54:0c:4b:15:f2:c3:ff:3f:c6:23:b0:56:
         ac:ca:27:8f:6e:7c:e5:ff:9c:92:93:3f:d6:6d:c7:3e:46:92:
         b6:ec:23:6a
-----BEGIN CERTIFICATE-----
MIIEmDCCA4CgAwIBAgIGCgsMDQ4pMA0GCSqGSIb3DQEBCwUAMH0xFDASBgNVBAMU
C1JBTkNISUNBX0NBMQswCQYDVQQGEwJJTjEPMA0GA1UEChMGQ0lUUklYMQwwCgYD
VQQLEwNBTkcxCzAJBgNVBAgTAktBMSwwKgYJKoZIhvcNAQkBFh1SQU5DSElDQV9D
QUBSQU5DSElDQV9tYWlsLmNvbTAeFw0xNjA3MDgwNDM4NTRaFw0yNjA3MDYwNDM4
NTRaMHIxCzAJBgNVBAgTAktBMQswCQYDVQQGEwJJTjEcMBoGA1UEAxQTMTI3X1JB
TkNISUNBX3NlcnZlcjEnMCUGCSqGSIb3DQEJARYYMTI3X1JBTkNISUNBQHRlc3Rf
Y2EuY29tMQ8wDQYDVQQKEwZDSVRSSVgwggEiMA0GCSqGSIb3DQEBAQUAA4IBDwAw
ggEKAoIBAQDzRNVP5lkYXfxsNewifCTYidiI9cExGc55MVxMK1byvCtV1YmLPaIk
8QbFey7oBnExA7sFLWp7dNq9QJl4bUiNbwn9SEtqQc8/xQj+lZThlD7QR+a8Tb/n
obS4HESTXEc/Sw+Fhfi66l6GEfT6wujHydZY5sTD3gIpojrsoSSgtVg7VvPvs6Z6
5yHs389nEM9ACdy4yso67r+TFHNb7MdGhLIKmoVy0mo9EKeBWqt5zGqVHfgQyMlw
LsO6G6GEcPj3QtXk1e8EHGtCMc1huJvW8FjzDK4e1lmI+f/gcO/ixAC1YHs+pqMk
A+DOSPFrh6IkBPUy28lkUKLAhyEzyLQ7AgMBAAGjggEnMIIBIzARBglghkgBhvhC
AQEEBAMCBkAwHQYDVR0OBBYEFFbYfO8lKvSuHfFuh5sv2ARgVhnYMIGwBgNVHSME
gagwgaWAFKcQb10Mn5yi9DmSo31cuMAlcb85oYGBpH8wfTEUMBIGA1UEAxQLUkFO
Q0hJQ0FfQ0ExCzAJBgNVBAYTAklOMQ8wDQYDVQQKEwZDSVRSSVgxDDAKBgNVBAsT
A0FORzELMAkGA1UECBMCS0ExLDAqBgkqhkiG9w0BCQEWHVJBTkNISUNBX0NBQFJB
TkNISUNBX21haWwuY29tggkA5wmkPRzHRbEwPAYIKwYBBQUHAQEEMDAuMCwGCCsG
AQUFBzABhiBodHRwOi8vMTcyLjI3LjEwLjEvcmVzcG9uZGVycGF0aDANBgkqhkiG
9w0BAQsFAAOCAQEAYmaKpUzrG3OSJIYJj6Cg5yxNYfHTzi0eqIU3U8/tyFqeQcNS
P8RKNP5YURWH9pSCv9yhCh6HgNoJW8Dq4REJWbbIZEpDHu45VVlm41jEtS9OKUJG
BacsVa6FLl9F+35lvoKZ4AZ6gn9VnJpif18KSiyrZ2r9FwO9kI3U5I/12MxTb3jD
2NJZNO/czLYt8ffK8dOvva77aRE9iUJMR1GskPkuUdY2V8EU1G43wE/oudBTAwQy
T/BW+x234TPHo1Vd/grcqFzPm+ZdjGHiat0qsyyPO3OLMnSQZCoUPZdfVAxLFfLD
/z/GI7BWrMonj2585f+ckpM/1m3HPkaStuwjag==
-----END CERTIFICATE-----
