Certificate:
    Data:
        Version: 3 (0x2)
        Serial Number: 11042563100202 (0xa0b0c0d0e2a)
    Signature Algorithm: sha256WithRSAEncryption
        Issuer: CN=RANCHICA_CA, C=IN, O=CITRIX, OU=ANG, ST=KA/emailAddress=RANCHICA_CA@RANCHICA_mail.com
        Validity
            Not Before: Jul  8 04:38:54 2016 GMT
            Not After : Jul  6 04:38:54 2026 GMT
        Subject: ST=KA, C=IN, CN=128_RANCHICA_server/emailAddress=128_RANCHICA@test_ca.com, O=CITRIX
        Subject Public Key Info:
            Public Key Algorithm: rsaEncryption
                Public-Key: (2048 bit)
                Modulus:
                    00:d1:34:b4:d2:12:81:c2:b0:d9:80:70:7b:45:ad:
                    f0:35:56:1f:20:f1:41:1a:06:5f:03:fd:87:0a:74:
                    be:fa:d2:86:68:af:14:ee:8e:7c:4e:b5:c5:c8:f9:
                    65:63:19:3e:b4:09:9d:fe:c9:94:92:c7:9e:c7:ca:
                    ab:7c:84:4d:5f:e5:98:3f:f7:a5:46:09:f7:d2:df:
                    ea:18:45:7f:96:5a:3c:f3:0c:62:71:fd:ef:42:6c:
                    6a:1d:96:2a:e5:f9:30:8d:ee:4c:c4:b9:1e:49:a0:
                    31:d4:30:ab:ad:8b:91:6d:9a:0e:22:e1:7d:7d:a6:
                    4f:49:66:61:ba:7e:6d:5f:98:2d:da:22:46:7d:6b:
                    1d:49:d7:3b:09:94:59:a7:d1:d8:9b:f8:8d:0c:7f:
                    e4:73:65:cd:dd:89:2f:d3:4d:1f:80:11:56:70:9c:
                    07:5a:c9:44:1f:13:c9:d9:44:a9:d8:c3:49:f0:2b:
                    73:76:3b:80:de:6a:ee:4a:1c:f6:e2:c6:2f:86:05:
                    4b:e0:51:d6:6f:5a:a4:d4:8b:25:a4:8c:7e:7a:87:
                    ee:32:dd:31:7c:14:87:ed:d1:98:dd:96:f1:12:df:
                    0d:fd:d0:1e:3a:b8:fb:ce:36:db:40:79:28:80:d4:
                    5c:83:4a:4b:b5:5c:e9:e9:e3:1b:03:b0:4b:6e:13:
                    14:fd
                Exponent: 65537 (0x10001)
        X509v3 extensions:
            Netscape Cert Type: 
                SSL Server
            X509v3 Subject Key Identifier: 
                7C:97:5B:C0:DA:37:EB:42:A9:E0:9B:24:F9:4A:92:7B:D7:1C:ED:0A
            X509v3 Authority Key Identifier: 
                keyid:A7:10:6F:5D:0C:9F:9C:A2:F4:39:92:A3:7D:5C:B8:C0:25:71:BF:39
                DirName:/CN=RANCHICA_CA/C=IN/O=CITRIX/OU=ANG/ST=KA/emailAddress=RANCHICA_CA@RANCHICA_mail.com
                serial:E7:09:A4:3D:1C:C7:45:B1

            Authority Information Access: 
                OCSP - URI:http://172.27.10.1/responderpath

    Signature Algorithm: sha256WithRSAEncryption
         99:3d:42:0d:c7:84:49:8e:ed:ad:ed:d2:84:fd:80:be:bf:18:
         77:ac:68:c6:42:84:2f:5a:bf:87:d6:03:5a:40:a6:0d:0d:d0:
         7a:3f:29:d1:1c:17:43:ce:17:ee:0b:d3:58:f3:35:51:c8:8d:
         c8:fa:5f:ab:98:57:7d:a3:97:28:5b:f7:f8:08:62:14:1e:9b:
         bc:9c:2b:ba:c8:de:b8:b3:60:0b:37:92:97:4c:57:7a:3c:1e:
         65:ca:11:19:46:f9:1b:cd:d5:f5:26:e3:d3:e1:9a:18:be:03:
         e0:35:17:11:fb:f8:e6:f5:ad:82:24:3f:17:09:b0:52:c6:73:
         f7:28:de:af:a8:bf:f8:b1:88:30:49:96:fb:d0:bd:00:bb:43:
         6d:4d:9a:06:a9:03:86:0a:28:14:a9:ee:c4:f0:20:33:39:5f:
         10:30:45:ba:19:38:f5:0d:1c:f5:0a:a7:79:b3:31:6e:7b:31:
         09:0e:9f:89:54:99:51:1b:90:9e:7e:e9:3d:43:57:28:d4:78:
         51:59:de:aa:92:d0:b2:82:8f:5b:a6:fb:cc:ab:69:4e:af:53:
         9f:4b:f1:a4:50:31:7a:e8:36:a3:38:5f:2c:28:8c:91:6c:36:
         44:81:0d:c4:34:17:48:aa:01:2b:15:13:dd:9f:3e:57:28:ec:
         20:27:20:e8
-----BEGIN CERTIFICATE-----
MIIEmDCCA4CgAwIBAgIGCgsMDQ4qMA0GCSqGSIb3DQEBCwUAMH0xFDASBgNVBAMU
C1JBTkNISUNBX0NBMQswCQYDVQQGEwJJTjEPMA0GA1UEChMGQ0lUUklYMQwwCgYD
VQQLEwNBTkcxCzAJBgNVBAgTAktBMSwwKgYJKoZIhvcNAQkBFh1SQU5DSElDQV9D
QUBSQU5DSElDQV9tYWlsLmNvbTAeFw0xNjA3MDgwNDM4NTRaFw0yNjA3MDYwNDM4
NTRaMHIxCzAJBgNVBAgTAktBMQswCQYDVQQGEwJJTjEcMBoGA1UEAxQTMTI4X1JB
TkNISUNBX3NlcnZlcjEnMCUGCSqGSIb3DQEJARYYMTI4X1JBTkNISUNBQHRlc3Rf
Y2EuY29tMQ8wDQYDVQQKEwZDSVRSSVgwggEiMA0GCSqGSIb3DQEBAQUAA4IBDwAw
ggEKAoIBAQDRNLTSEoHCsNmAcHtFrfA1Vh8g8UEaBl8D/YcKdL760oZorxTujnxO
tcXI+WVjGT60CZ3+yZSSx57Hyqt8hE1f5Zg/96VGCffS3+oYRX+WWjzzDGJx/e9C
bGodlirl+TCN7kzEuR5JoDHUMKuti5Ftmg4i4X19pk9JZmG6fm1fmC3aIkZ9ax1J
1zsJlFmn0dib+I0Mf+RzZc3diS/TTR+AEVZwnAdayUQfE8nZRKnYw0nwK3N2O4De
au5KHPbixi+GBUvgUdZvWqTUiyWkjH56h+4y3TF8FIft0ZjdlvES3w390B46uPvO
NttAeSiA1FyDSku1XOnp4xsDsEtuExT9AgMBAAGjggEnMIIBIzARBglghkgBhvhC
AQEEBAMCBkAwHQYDVR0OBBYEFHyXW8DaN+tCqeCbJPlKknvXHO0KMIGwBgNVHSME
gagwgaWAFKcQb10Mn5yi9DmSo31cuMAlcb85oYGBpH8wfTEUMBIGA1UEAxQLUkFO
Q0hJQ0FfQ0ExCzAJBgNVBAYTAklOMQ8wDQYDVQQKEwZDSVRSSVgxDDAKBgNVBAsT
A0FORzELMAkGA1UECBMCS0ExLDAqBgkqhkiG9w0BCQEWHVJBTkNISUNBX0NBQFJB
TkNISUNBX21haWwuY29tggkA5wmkPRzHRbEwPAYIKwYBBQUHAQEEMDAuMCwGCCsG
AQUFBzABhiBodHRwOi8vMTcyLjI3LjEwLjEvcmVzcG9uZGVycGF0aDANBgkqhkiG
9w0BAQsFAAOCAQEAmT1CDceESY7tre3ShP2Avr8Yd6xoxkKEL1q/h9YDWkCmDQ3Q
ej8p0RwXQ84X7gvTWPM1UciNyPpfq5hXfaOXKFv3+AhiFB6bvJwrusjeuLNgCzeS
l0xXejweZcoRGUb5G83V9Sbj0+GaGL4D4DUXEfv45vWtgiQ/FwmwUsZz9yjer6i/
+LGIMEmW+9C9ALtDbU2aBqkDhgooFKnuxPAgMzlfEDBFuhk49Q0c9QqnebMxbnsx
CQ6fiVSZURuQnn7pPUNXKNR4UVneqpLQsoKPW6b7zKtpTq9Tn0vxpFAxeug2ozhf
LCiMkWw2RIENxDQXSKoBKxUT3Z8+VyjsICcg6A==
-----END CERTIFICATE-----
