Certificate:
    Data:
        Version: 3 (0x2)
        Serial Number: 11042563100202 (0xa0b0c0d0e2a)
    Signature Algorithm: sha256WithRSAEncryption
        Issuer: CN=DELHICA_CA, C=IN, O=CITRIX, OU=ANG, ST=KA/emailAddress=DELHICA_CA@DELHICA_mail.com
        Validity
            Not Before: Jul  8 04:34:29 2016 GMT
            Not After : Jul  6 04:34:29 2026 GMT
        Subject: ST=KA, C=IN, CN=128_DELHICA_server/emailAddress=128_DELHICA@test_ca.com, O=CITRIX
        Subject Public Key Info:
            Public Key Algorithm: rsaEncryption
                Public-Key: (2048 bit)
                Modulus:
                    00:c4:1e:a2:0a:87:e2:d5:21:b8:3d:02:90:68:6f:
                    56:03:ff:2f:99:3e:29:b6:de:4a:d1:d3:c5:23:5f:
                    fc:04:37:55:3e:20:a0:5f:95:cc:be:67:64:d3:2a:
                    27:75:d9:52:2a:21:72:22:65:73:32:4b:c9:7c:b9:
                    02:19:d7:10:7b:0d:6c:65:f6:ac:9f:74:a5:f4:c6:
                    64:e5:7c:0c:23:86:b1:67:54:07:70:01:e1:12:94:
                    44:ff:ef:52:cd:c2:4e:4d:2e:ce:fd:c0:f2:24:41:
                    80:4a:b1:1a:05:e3:a1:2c:0c:20:4b:55:fb:95:61:
                    a0:2f:36:00:16:a2:08:c3:a0:4c:b3:06:55:b0:28:
                    6a:3a:8a:32:5a:ff:24:c9:cc:70:5d:5a:96:a6:9c:
                    d4:80:30:4a:0d:fb:6a:b7:12:46:50:f8:01:a6:28:
                    0b:44:a4:f6:bf:35:2a:5e:74:29:81:78:a3:c9:c2:
                    9a:88:a5:5d:fd:0e:b7:af:f8:6b:ad:ab:a0:36:06:
                    8f:a4:6d:60:ec:45:df:93:64:0f:61:f2:1c:95:5d:
                    1c:dd:4c:24:73:73:ee:37:ce:a9:ce:8e:d6:e7:8f:
                    2a:07:7f:8c:aa:f0:80:b6:ee:5f:dd:31:ea:ca:73:
                    18:03:5b:fd:55:6e:21:05:8a:23:22:d1:94:f6:97:
                    50:dd
                Exponent: 65537 (0x10001)
        X509v3 extensions:
            Netscape Cert Type: 
                SSL Server
            X509v3 Subject Key Identifier: 
                13:BA:E4:0D:03:15:D9:D0:37:39:E0:E8:4C:9A:B9:09:CC:7B:E8:03
            X509v3 Authority Key Identifier: 
                keyid:D7:37:52:01:DC:2C:7A:57:85:CA:30:39:30:F0:D5:5D:5A:31:03:02
                DirName:/CN=DELHICA_CA/C=IN/O=CITRIX/OU=ANG/ST=KA/emailAddress=DELHICA_CA@DELHICA_mail.com
                serial:94:59:DC:51:4E:A5:13:27

            Authority Information Access: 
                OCSP - URI:http://172.20.10.1/responderpath

    Signature Algorithm: sha256WithRSAEncryption
         89:a5:52:40:6d:c9:5e:ee:7b:58:c0:f3:33:2d:e9:32:2f:00:
         50:f9:94:c9:75:bf:a5:fb:35:85:29:b9:62:c3:dd:68:66:c9:
         a9:bd:a3:dd:0a:3a:81:64:de:53:65:cc:8b:c6:5b:b7:73:f3:
         bb:e7:53:91:fd:77:90:51:c0:fe:19:9c:ae:53:a1:7d:08:de:
         12:94:45:74:d2:4f:f2:7e:dc:ad:19:6c:37:8f:8a:ca:8a:1e:
         85:23:d2:4c:8e:f1:c9:a6:d3:ac:da:e1:d2:ed:5d:7f:e0:1a:
         30:aa:f4:21:d7:2d:37:29:6d:c2:25:88:37:45:b7:82:19:75:
         7b:1d:9c:eb:83:82:47:8a:24:9f:0f:59:b2:d1:eb:c7:8a:14:
         5a:59:00:50:bb:63:ba:67:34:9c:30:21:d5:0f:51:73:06:14:
         11:6f:7f:af:31:75:49:98:ac:f1:d6:56:bd:68:fc:f9:98:46:
         0a:48:6b:95:20:7c:84:e2:fc:6a:c2:0c:13:d5:b9:7a:41:9b:
         de:0e:37:b8:c3:62:30:57:e1:29:ea:b9:81:50:37:2a:3c:9e:
         8c:d5:1a:6f:4a:30:c5:9b:e7:2a:3e:6f:8f:db:2a:7f:8b:93:
         62:31:f5:9e:ac:e7:69:9d:11:59:5c:d0:ea:6a:01:e3:ff:45:
         08:e4:c9:73
-----BEGIN CERTIFICATE-----
MIIEjzCCA3egAwIBAgIGCgsMDQ4qMA0GCSqGSIb3DQEBCwUAMHoxEzARBgNVBAMU
CkRFTEhJQ0FfQ0ExCzAJBgNVBAYTAklOMQ8wDQYDVQQKEwZDSVRSSVgxDDAKBgNV
BAsTA0FORzELMAkGA1UECBMCS0ExKjAoBgkqhkiG9w0BCQEWG0RFTEhJQ0FfQ0FA
REVMSElDQV9tYWlsLmNvbTAeFw0xNjA3MDgwNDM0MjlaFw0yNjA3MDYwNDM0Mjla
MHAxCzAJBgNVBAgTAktBMQswCQYDVQQGEwJJTjEbMBkGA1UEAxQSMTI4X0RFTEhJ
Q0Ffc2VydmVyMSYwJAYJKoZIhvcNAQkBFhcxMjhfREVMSElDQUB0ZXN0X2NhLmNv
bTEPMA0GA1UEChMGQ0lUUklYMIIBIjANBgkqhkiG9w0BAQEFAAOCAQ8AMIIBCgKC
AQEAxB6iCofi1SG4PQKQaG9WA/8vmT4ptt5K0dPFI1/8BDdVPiCgX5XMvmdk0yon
ddlSKiFyImVzMkvJfLkCGdcQew1sZfasn3Sl9MZk5XwMI4axZ1QHcAHhEpRE/+9S
zcJOTS7O/cDyJEGASrEaBeOhLAwgS1X7lWGgLzYAFqIIw6BMswZVsChqOooyWv8k
ycxwXVqWppzUgDBKDftqtxJGUPgBpigLRKT2vzUqXnQpgXijycKaiKVd/Q63r/hr
raugNgaPpG1g7EXfk2QPYfIclV0c3Uwkc3PuN86pzo7W548qB3+MqvCAtu5f3THq
ynMYA1v9VW4hBYojItGU9pdQ3QIDAQABo4IBIzCCAR8wEQYJYIZIAYb4QgEBBAQD
AgZAMB0GA1UdDgQWBBQTuuQNAxXZ0Dc54OhMmrkJzHvoAzCBrAYDVR0jBIGkMIGh
gBTXN1IB3Cx6V4XKMDkw8NVdWjEDAqF+pHwwejETMBEGA1UEAxQKREVMSElDQV9D
QTELMAkGA1UEBhMCSU4xDzANBgNVBAoTBkNJVFJJWDEMMAoGA1UECxMDQU5HMQsw
CQYDVQQIEwJLQTEqMCgGCSqGSIb3DQEJARYbREVMSElDQV9DQUBERUxISUNBX21h
aWwuY29tggkAlFncUU6lEycwPAYIKwYBBQUHAQEEMDAuMCwGCCsGAQUFBzABhiBo
dHRwOi8vMTcyLjIwLjEwLjEvcmVzcG9uZGVycGF0aDANBgkqhkiG9w0BAQsFAAOC
AQEAiaVSQG3JXu57WMDzMy3pMi8AUPmUyXW/pfs1hSm5YsPdaGbJqb2j3Qo6gWTe
U2XMi8Zbt3Pzu+dTkf13kFHA/hmcrlOhfQjeEpRFdNJP8n7crRlsN4+KyooehSPS
TI7xyabTrNrh0u1df+AaMKr0IdctNyltwiWIN0W3ghl1ex2c64OCR4oknw9ZstHr
x4oUWlkAULtjumc0nDAh1Q9RcwYUEW9/rzF1SZis8dZWvWj8+ZhGCkhrlSB8hOL8
asIME9W5ekGb3g43uMNiMFfhKeq5gVA3KjyejNUab0owxZvnKj5vj9sqf4uTYjH1
nqznaZ0RWVzQ6moB4/9FCOTJcw==
-----END CERTIFICATE-----
