Certificate:
    Data:
        Version: 3 (0x2)
        Serial Number: 11042563100202 (0xa0b0c0d0e2a)
    Signature Algorithm: sha256WithRSAEncryption
        Issuer: CN=GOACA_CA, C=IN, O=CITRIX, OU=ANG, ST=KA/emailAddress=GOACA_CA@GOACA_mail.com
        Validity
            Not Before: Jul  8 04:35:00 2016 GMT
            Not After : Jul  6 04:35:00 2026 GMT
        Subject: ST=KA, C=IN, CN=128_GOACA_server/emailAddress=128_GOACA@test_ca.com, O=CITRIX
        Subject Public Key Info:
            Public Key Algorithm: rsaEncryption
                Public-Key: (2048 bit)
                Modulus:
                    00:be:a8:9f:ce:49:b9:3a:14:ec:dd:87:8d:3b:2b:
                    e6:fa:14:8a:d3:b9:68:00:59:b9:13:62:80:70:c7:
                    bc:96:eb:b6:9b:e4:aa:14:54:27:44:85:8c:9e:5b:
                    8c:f1:e0:30:79:b0:37:54:62:8e:81:83:01:43:74:
                    c8:0b:af:52:98:75:ce:13:6d:bb:71:38:7b:14:8c:
                    a5:56:af:7f:9a:0f:fa:d5:77:d1:dd:41:37:8b:81:
                    cf:d7:2f:cd:42:25:9d:c4:72:a4:0c:d2:07:3a:b2:
                    60:e9:97:b2:12:b2:38:01:b7:09:3a:66:ee:c5:98:
                    a5:bb:5b:22:7b:9c:84:fb:28:13:26:3a:42:f8:50:
                    35:98:cf:34:a2:07:f5:e5:6d:01:48:8c:1c:5d:68:
                    eb:1b:fc:f8:78:45:c6:9b:d4:98:df:9f:4e:89:27:
                    c1:03:ee:55:f0:05:20:1b:63:84:c9:12:f7:f4:0d:
                    85:70:09:ff:40:71:28:e6:8f:a3:f6:48:a0:8f:30:
                    b9:dd:54:4f:05:64:ce:d8:4c:cf:3a:16:d9:3a:87:
                    d0:5e:53:3b:b7:ca:ff:42:74:18:09:f6:ce:81:5a:
                    f2:5c:8a:2a:2d:8b:da:a3:36:f8:e7:89:b2:e5:17:
                    fb:da:1d:49:fa:80:b7:1e:a0:57:f8:81:04:2e:4f:
                    35:07
                Exponent: 65537 (0x10001)
        X509v3 extensions:
            Netscape Cert Type: 
                SSL Server
            X509v3 Subject Key Identifier: 
                5C:2F:7F:86:96:1F:55:86:F0:FE:67:05:77:02:98:F5:7D:A5:24:17
            X509v3 Authority Key Identifier: 
                keyid:81:03:00:D4:DC:70:D9:A7:03:08:1E:DC:9B:4C:AC:E6:59:CD:39:68
                DirName:/CN=GOACA_CA/C=IN/O=CITRIX/OU=ANG/ST=KA/emailAddress=GOACA_CA@GOACA_mail.com
                serial:FC:8B:0A:90:01:17:5F:1C

            Authority Information Access: 
                OCSP - URI:http://172.21.10.1/responderpath

    Signature Algorithm: sha256WithRSAEncryption
         46:0e:2d:f6:b0:36:23:13:60:90:fb:0d:18:83:92:19:8f:4f:
         55:33:92:d5:fc:09:d3:73:57:38:58:89:a2:fb:04:01:c9:87:
         3d:1b:fc:ac:e3:0f:95:96:ce:22:13:49:76:0c:63:7e:fb:3d:
         de:2e:be:77:e1:91:01:88:56:0f:3c:e0:7a:53:22:5a:1b:64:
         ee:8a:6a:2e:27:6f:77:20:b1:99:67:7d:89:e5:c8:51:f3:67:
         06:06:24:1e:a6:86:da:40:de:33:a4:a3:d4:88:76:0f:6c:23:
         63:cd:85:71:b6:ba:81:40:c7:4e:b8:99:ee:45:d5:ea:21:df:
         eb:fb:c4:4b:ce:e0:c5:fb:69:5f:b7:b3:fe:5e:1f:b6:2c:f9:
         56:8d:68:46:29:65:99:f6:ee:cc:23:99:c7:bd:cc:bf:f4:a6:
         d8:4e:d6:75:31:43:b8:11:d8:73:0f:20:2b:3d:10:5e:ae:3c:
         45:c7:af:d5:5a:56:d0:06:ff:da:0d:11:8e:42:ed:c6:83:b6:
         e0:13:ae:6b:06:2e:50:a9:35:f1:58:e1:50:a7:6a:e3:03:43:
         b9:1e:1c:2d:50:34:4b:da:ab:75:6c:fe:72:33:e8:b8:f3:ed:
         0e:2b:44:55:f5:db:29:41:d9:03:5d:a6:b5:9c:5a:15:e4:c7:
         d5:6c:9b:3d
-----BEGIN CERTIFICATE-----
MIIEfzCCA2egAwIBAgIGCgsMDQ4qMA0GCSqGSIb3DQEBCwUAMHQxETAPBgNVBAMU
CEdPQUNBX0NBMQswCQYDVQQGEwJJTjEPMA0GA1UEChMGQ0lUUklYMQwwCgYDVQQL
EwNBTkcxCzAJBgNVBAgTAktBMSYwJAYJKoZIhvcNAQkBFhdHT0FDQV9DQUBHT0FD
QV9tYWlsLmNvbTAeFw0xNjA3MDgwNDM1MDBaFw0yNjA3MDYwNDM1MDBaMGwxCzAJ
BgNVBAgTAktBMQswCQYDVQQGEwJJTjEZMBcGA1UEAxQQMTI4X0dPQUNBX3NlcnZl
cjEkMCIGCSqGSIb3DQEJARYVMTI4X0dPQUNBQHRlc3RfY2EuY29tMQ8wDQYDVQQK
EwZDSVRSSVgwggEiMA0GCSqGSIb3DQEBAQUAA4IBDwAwggEKAoIBAQC+qJ/OSbk6
FOzdh407K+b6FIrTuWgAWbkTYoBwx7yW67ab5KoUVCdEhYyeW4zx4DB5sDdUYo6B
gwFDdMgLr1KYdc4TbbtxOHsUjKVWr3+aD/rVd9HdQTeLgc/XL81CJZ3EcqQM0gc6
smDpl7ISsjgBtwk6Zu7FmKW7WyJ7nIT7KBMmOkL4UDWYzzSiB/XlbQFIjBxdaOsb
/Ph4Rcab1Jjfn06JJ8ED7lXwBSAbY4TJEvf0DYVwCf9AcSjmj6P2SKCPMLndVE8F
ZM7YTM86Ftk6h9BeUzu3yv9CdBgJ9s6BWvJciioti9qjNvjnibLlF/vaHUn6gLce
oFf4gQQuTzUHAgMBAAGjggEdMIIBGTARBglghkgBhvhCAQEEBAMCBkAwHQYDVR0O
BBYEFFwvf4aWH1WG8P5nBXcCmPV9pSQXMIGmBgNVHSMEgZ4wgZuAFIEDANTccNmn
Awge3JtMrOZZzTlooXikdjB0MREwDwYDVQQDFAhHT0FDQV9DQTELMAkGA1UEBhMC
SU4xDzANBgNVBAoTBkNJVFJJWDEMMAoGA1UECxMDQU5HMQswCQYDVQQIEwJLQTEm
MCQGCSqGSIb3DQEJARYXR09BQ0FfQ0FAR09BQ0FfbWFpbC5jb22CCQD8iwqQARdf
HDA8BggrBgEFBQcBAQQwMC4wLAYIKwYBBQUHMAGGIGh0dHA6Ly8xNzIuMjEuMTAu
MS9yZXNwb25kZXJwYXRoMA0GCSqGSIb3DQEBCwUAA4IBAQBGDi32sDYjE2CQ+w0Y
g5IZj09VM5LV/AnTc1c4WImi+wQByYc9G/ys4w+Vls4iE0l2DGN++z3eLr534ZEB
iFYPPOB6UyJaG2TuimouJ293ILGZZ32J5chR82cGBiQepobaQN4zpKPUiHYPbCNj
zYVxtrqBQMdOuJnuRdXqId/r+8RLzuDF+2lft7P+Xh+2LPlWjWhGKWWZ9u7MI5nH
vcy/9KbYTtZ1MUO4EdhzDyArPRBerjxFx6/VWlbQBv/aDRGOQu3Gg7bgE65rBi5Q
qTXxWOFQp2rjA0O5HhwtUDRL2qt1bP5yM+i48+0OK0RV9dspQdkDXaa1nFoV5MfV
bJs9
-----END CERTIFICATE-----
