Certificate:
    Data:
        Version: 3 (0x2)
        Serial Number: 11042563100202 (0xa0b0c0d0e2a)
    Signature Algorithm: sha256WithRSAEncryption
        Issuer: CN=CALCUTTACA_CA, C=IN, O=CITRIX, OU=ANG, ST=KA/emailAddress=CALCUTTACA_CA@CALCUTTACA_mail.com
        Validity
            Not Before: Jul  8 04:33:10 2016 GMT
            Not After : Jul  6 04:33:10 2026 GMT
        Subject: ST=KA, C=IN, CN=128_CALCUTTACA_server/emailAddress=128_CALCUTTACA@test_ca.com, O=CITRIX
        Subject Public Key Info:
            Public Key Algorithm: rsaEncryption
                Public-Key: (2048 bit)
                Modulus:
                    00:e0:0d:16:c2:02:8a:f2:da:9f:71:08:c8:53:17:
                    3f:f6:ac:cd:a5:23:58:ad:83:46:02:4e:bd:32:eb:
                    cf:1d:21:58:72:53:64:94:46:c5:b6:35:d9:ff:33:
                    e5:fe:83:7f:c8:dc:d4:12:75:76:9b:75:e9:02:d9:
                    53:dc:d9:e5:df:60:9d:64:cd:f1:1a:6e:07:e0:48:
                    50:15:e2:f3:c0:71:67:4a:d5:08:36:0a:8b:2a:f0:
                    7e:48:88:19:72:96:2b:06:61:d3:72:37:9e:49:34:
                    5b:14:fd:5e:a4:d3:1a:9b:e8:cb:90:59:95:ef:60:
                    b6:54:4b:87:fc:93:7b:c2:2f:44:32:6f:0f:51:ff:
                    b3:56:58:69:51:a7:3e:a1:7c:0c:48:53:70:65:8c:
                    85:8a:c7:34:37:ce:97:89:b6:a0:55:86:21:2b:d8:
                    83:f7:b8:ff:02:35:24:63:c4:8d:36:a9:21:39:2a:
                    2f:e4:cc:23:71:f7:c3:e1:d4:0b:5b:d1:a0:67:32:
                    25:16:4e:b2:cc:75:92:c7:f1:40:d0:2b:38:09:7d:
                    3a:56:c5:b8:49:0f:72:ad:78:96:c5:93:1c:3f:52:
                    c0:19:eb:16:17:c2:5e:71:ea:c7:e2:d5:e8:41:c4:
                    c3:c5:03:30:cc:c2:58:14:7b:74:0d:ef:6c:a6:37:
                    b9:47
                Exponent: 65537 (0x10001)
        X509v3 extensions:
            Netscape Cert Type: 
                SSL Server
            X509v3 Subject Key Identifier: 
                F9:38:4D:08:42:B5:4C:DF:33:76:DC:13:59:6C:01:D0:89:F8:A2:0E
            X509v3 Authority Key Identifier: 
                keyid:37:2E:7B:27:46:4B:CF:47:10:AC:2B:2E:BA:D0:F3:66:75:EB:52:75
                DirName:/CN=CALCUTTACA_CA/C=IN/O=CITRIX/OU=ANG/ST=KA/emailAddress=CALCUTTACA_CA@CALCUTTACA_mail.com
                serial:A5:C6:47:0E:E6:06:37:18

            Authority Information Access: 
                OCSP - URI:http://172.18.10.1/responderpath

    Signature Algorithm: sha256WithRSAEncryption
         76:57:05:6d:6f:11:6c:61:de:04:9a:7b:75:05:07:43:86:cf:
         43:42:b4:30:e5:15:c8:fd:dc:8f:ae:46:32:7d:13:1a:94:aa:
         4f:11:55:00:21:10:68:a3:04:13:71:64:4f:04:f2:2a:2c:0b:
         d2:2d:a9:53:2c:13:28:74:8e:03:89:75:68:65:0c:02:77:f5:
         fa:be:83:8e:a1:2c:89:7a:96:f2:d9:b9:d1:f4:7f:dc:1c:06:
         c2:6f:15:92:10:f8:73:7a:bc:8e:8a:06:d3:f4:bd:98:7c:e8:
         c9:c1:26:a1:f1:b5:5c:71:b5:b3:96:5f:d4:da:8e:86:ae:c1:
         60:99:dd:b5:e4:0a:f6:b3:99:4e:7d:63:00:cc:82:1c:a1:bd:
         b3:52:65:11:e6:78:a6:e8:95:4d:ec:8c:46:04:9e:e7:5a:39:
         9f:cc:64:20:aa:0d:14:b2:9f:24:22:38:01:fe:fe:ea:66:72:
         65:4f:57:4e:96:50:5f:0b:ce:33:ce:25:84:a5:1f:c3:07:c0:
         06:e2:73:12:68:ab:b9:9d:8a:92:30:fe:39:29:e5:be:55:b5:
         bb:49:9b:eb:0d:32:50:54:31:c0:6e:7c:1d:88:e4:27:77:be:
         2a:eb:01:b6:67:1e:e8:3d:11:7c:5a:39:fb:5a:89:93:8f:08:
         75:3d:78:26
-----BEGIN CERTIFICATE-----
MIIEqzCCA5OgAwIBAgIGCgsMDQ4qMA0GCSqGSIb3DQEBCwUAMIGDMRYwFAYDVQQD
FA1DQUxDVVRUQUNBX0NBMQswCQYDVQQGEwJJTjEPMA0GA1UEChMGQ0lUUklYMQww
CgYDVQQLEwNBTkcxCzAJBgNVBAgTAktBMTAwLgYJKoZIhvcNAQkBFiFDQUxDVVRU
QUNBX0NBQENBTENVVFRBQ0FfbWFpbC5jb20wHhcNMTYwNzA4MDQzMzEwWhcNMjYw
NzA2MDQzMzEwWjB2MQswCQYDVQQIEwJLQTELMAkGA1UEBhMCSU4xHjAcBgNVBAMU
FTEyOF9DQUxDVVRUQUNBX3NlcnZlcjEpMCcGCSqGSIb3DQEJARYaMTI4X0NBTENV
VFRBQ0FAdGVzdF9jYS5jb20xDzANBgNVBAoTBkNJVFJJWDCCASIwDQYJKoZIhvcN
AQEBBQADggEPADCCAQoCggEBAOANFsICivLan3EIyFMXP/aszaUjWK2DRgJOvTLr
zx0hWHJTZJRGxbY12f8z5f6Df8jc1BJ1dpt16QLZU9zZ5d9gnWTN8RpuB+BIUBXi
88BxZ0rVCDYKiyrwfkiIGXKWKwZh03I3nkk0WxT9XqTTGpvoy5BZle9gtlRLh/yT
e8IvRDJvD1H/s1ZYaVGnPqF8DEhTcGWMhYrHNDfOl4m2oFWGISvYg/e4/wI1JGPE
jTapITkqL+TMI3H3w+HUC1vRoGcyJRZOssx1ksfxQNArOAl9OlbFuEkPcq14lsWT
HD9SwBnrFhfCXnHqx+LV6EHEw8UDMMzCWBR7dA3vbKY3uUcCAwEAAaOCAS8wggEr
MBEGCWCGSAGG+EIBAQQEAwIGQDAdBgNVHQ4EFgQU+ThNCEK1TN8zdtwTWWwB0In4
og4wgbgGA1UdIwSBsDCBrYAUNy57J0ZLz0cQrCsuutDzZnXrUnWhgYmkgYYwgYMx
FjAUBgNVBAMUDUNBTENVVFRBQ0FfQ0ExCzAJBgNVBAYTAklOMQ8wDQYDVQQKEwZD
SVRSSVgxDDAKBgNVBAsTA0FORzELMAkGA1UECBMCS0ExMDAuBgkqhkiG9w0BCQEW
IUNBTENVVFRBQ0FfQ0FAQ0FMQ1VUVEFDQV9tYWlsLmNvbYIJAKXGRw7mBjcYMDwG
CCsGAQUFBwEBBDAwLjAsBggrBgEFBQcwAYYgaHR0cDovLzE3Mi4xOC4xMC4xL3Jl
c3BvbmRlcnBhdGgwDQYJKoZIhvcNAQELBQADggEBAHZXBW1vEWxh3gSae3UFB0OG
z0NCtDDlFcj93I+uRjJ9ExqUqk8RVQAhEGijBBNxZE8E8iosC9ItqVMsEyh0jgOJ
dWhlDAJ39fq+g46hLIl6lvLZudH0f9wcBsJvFZIQ+HN6vI6KBtP0vZh86MnBJqHx
tVxxtbOWX9TajoauwWCZ3bXkCvazmU59YwDMghyhvbNSZRHmeKbolU3sjEYEnuda
OZ/MZCCqDRSynyQiOAH+/upmcmVPV06WUF8LzjPOJYSlH8MHwAbicxJoq7mdipIw
/jkp5b5VtbtJm+sNMlBUMcBufB2I5Cd3virrAbZnHug9EXxaOftaiZOPCHU9eCY=
-----END CERTIFICATE-----
