Certificate:
    Data:
        Version: 3 (0x2)
        Serial Number: 11042563100203 (0xa0b0c0d0e2b)
    Signature Algorithm: sha256WithRSAEncryption
        Issuer: CN=OOTYCA_CA, C=IN, O=CITRIX, OU=ANG, ST=KA/emailAddress=OOTYCA_CA@OOTYCA_mail.com
        Validity
            Not Before: Jul  8 04:37:10 2016 GMT
            Not After : Jul  6 04:37:10 2026 GMT
        Subject: ST=KA, C=IN, CN=129_OOTYCA_server/emailAddress=129_OOTYCA@test_ca.com, O=CITRIX
        Subject Public Key Info:
            Public Key Algorithm: rsaEncryption
                Public-Key: (2048 bit)
                Modulus:
                    00:ba:d7:5c:9b:fd:f7:b3:e7:18:ac:23:59:80:31:
                    1d:4d:ec:4e:b3:9a:37:d1:58:d1:22:a5:8f:36:d1:
                    68:0f:72:2d:46:75:66:ed:76:b9:f6:8e:01:03:0c:
                    df:ee:6b:f1:a4:13:c6:d9:75:4d:d9:e5:ba:b9:6b:
                    00:5f:39:af:53:f2:5d:2e:96:bf:72:72:95:7c:6e:
                    3d:98:35:29:f2:2f:e2:a8:f9:21:d3:ec:96:db:66:
                    43:6f:e7:22:b5:be:c8:99:65:b2:30:a8:cf:1f:47:
                    19:04:32:2a:3a:7c:a3:a3:40:78:67:e7:97:40:59:
                    21:8c:ac:7f:71:d9:fb:11:20:98:69:57:75:73:26:
                    c8:35:4c:78:0b:56:1b:2a:8e:10:8e:ec:af:70:69:
                    e3:29:2d:9c:97:59:7b:b0:2e:78:37:f1:49:44:af:
                    6d:94:9f:c6:64:ba:40:cc:4e:22:5b:e0:c6:42:13:
                    41:eb:81:d5:84:b1:f6:90:41:78:1a:74:fb:aa:29:
                    4f:7e:79:14:d8:36:7f:68:74:28:17:9f:bc:1c:d6:
                    ff:f4:90:c3:aa:9e:b8:23:1e:51:83:15:a9:c3:59:
                    99:23:ef:61:97:2d:ed:be:e5:f7:c7:72:7c:b1:79:
                    c4:92:32:1a:f4:bb:e8:34:6e:59:0a:48:ce:58:eb:
                    09:95
                Exponent: 65537 (0x10001)
        X509v3 extensions:
            Netscape Cert Type: 
                SSL Server
            X509v3 Subject Key Identifier: 
                74:CA:AE:0E:E8:A5:5A:05:19:9F:D1:81:AA:47:75:A6:2A:E8:35:8C
            X509v3 Authority Key Identifier: 
                keyid:9E:A0:B1:FE:A8:B8:21:30:13:39:F2:C3:C1:A8:43:CB:5D:73:FC:B5
                DirName:/CN=OOTYCA_CA/C=IN/O=CITRIX/OU=ANG/ST=KA/emailAddress=OOTYCA_CA@OOTYCA_mail.com
                serial:AA:C2:AB:74:21:09:60:FF

            Authority Information Access: 
                OCSP - URI:http://172.25.10.1/responderpath

    Signature Algorithm: sha256WithRSAEncryption
         9d:71:fc:00:cf:9f:3a:f1:eb:a6:b5:34:d2:2e:f1:01:49:e3:
         a0:75:85:5d:6a:70:45:bb:a7:06:13:be:41:11:23:f2:b6:04:
         0e:b5:4d:40:fe:09:b5:bf:ff:09:eb:ea:5d:f9:45:1a:67:ec:
         f9:3b:35:e9:18:7b:ce:f5:35:50:14:d6:18:57:a5:5e:9e:7b:
         eb:ac:62:6e:80:91:6d:19:0a:f8:0f:a8:96:4f:9a:4a:fa:c6:
         cc:ae:a5:e5:ca:7c:0a:f1:34:05:24:fb:c3:7f:df:f8:84:be:
         50:7b:db:f8:4c:31:0f:b0:cd:0f:c3:17:7d:f6:3d:fa:c8:f7:
         b8:af:c3:09:63:a7:d8:b2:0e:4b:bc:9f:a0:71:6f:9b:a2:66:
         82:e5:21:ce:8f:4b:f5:13:e6:d7:2c:75:49:77:82:2a:fd:ad:
         cd:1c:51:bc:7b:ba:af:6a:0f:12:6d:7d:1b:d1:97:0f:3f:9e:
         e7:bb:91:59:37:ac:00:86:92:90:cb:3b:bb:40:09:f0:8a:bd:
         18:c0:7d:03:ed:0f:92:9d:f5:81:9d:65:84:2b:5f:8a:27:3a:
         e6:c4:f9:6b:74:f4:a8:ef:db:5f:6b:7d:24:8b:48:58:0c:71:
         8d:a7:4c:da:dd:68:34:bf:9c:2c:12:3c:f1:61:18:4a:89:05:
         33:c8:89:b1
-----BEGIN CERTIFICATE-----
MIIEhzCCA2+gAwIBAgIGCgsMDQ4rMA0GCSqGSIb3DQEBCwUAMHcxEjAQBgNVBAMU
CU9PVFlDQV9DQTELMAkGA1UEBhMCSU4xDzANBgNVBAoTBkNJVFJJWDEMMAoGA1UE
CxMDQU5HMQswCQYDVQQIEwJLQTEoMCYGCSqGSIb3DQEJARYZT09UWUNBX0NBQE9P
VFlDQV9tYWlsLmNvbTAeFw0xNjA3MDgwNDM3MTBaFw0yNjA3MDYwNDM3MTBaMG4x
CzAJBgNVBAgTAktBMQswCQYDVQQGEwJJTjEaMBgGA1UEAxQRMTI5X09PVFlDQV9z
ZXJ2ZXIxJTAjBgkqhkiG9w0BCQEWFjEyOV9PT1RZQ0FAdGVzdF9jYS5jb20xDzAN
BgNVBAoTBkNJVFJJWDCCASIwDQYJKoZIhvcNAQEBBQADggEPADCCAQoCggEBALrX
XJv997PnGKwjWYAxHU3sTrOaN9FY0SKljzbRaA9yLUZ1Zu12ufaOAQMM3+5r8aQT
xtl1TdnlurlrAF85r1PyXS6Wv3JylXxuPZg1KfIv4qj5IdPslttmQ2/nIrW+yJll
sjCozx9HGQQyKjp8o6NAeGfnl0BZIYysf3HZ+xEgmGlXdXMmyDVMeAtWGyqOEI7s
r3Bp4yktnJdZe7AueDfxSUSvbZSfxmS6QMxOIlvgxkITQeuB1YSx9pBBeBp0+6op
T355FNg2f2h0KBefvBzW//SQw6qeuCMeUYMVqcNZmSPvYZct7b7l98dyfLF5xJIy
GvS76DRuWQpIzljrCZUCAwEAAaOCASAwggEcMBEGCWCGSAGG+EIBAQQEAwIGQDAd
BgNVHQ4EFgQUdMquDuilWgUZn9GBqkd1piroNYwwgakGA1UdIwSBoTCBnoAUnqCx
/qi4ITATOfLDwahDy11z/LWhe6R5MHcxEjAQBgNVBAMUCU9PVFlDQV9DQTELMAkG
A1UEBhMCSU4xDzANBgNVBAoTBkNJVFJJWDEMMAoGA1UECxMDQU5HMQswCQYDVQQI
EwJLQTEoMCYGCSqGSIb3DQEJARYZT09UWUNBX0NBQE9PVFlDQV9tYWlsLmNvbYIJ
AKrCq3QhCWD/MDwGCCsGAQUFBwEBBDAwLjAsBggrBgEFBQcwAYYgaHR0cDovLzE3
Mi4yNS4xMC4xL3Jlc3BvbmRlcnBhdGgwDQYJKoZIhvcNAQELBQADggEBAJ1x/ADP
nzrx66a1NNIu8QFJ46B1hV1qcEW7pwYTvkERI/K2BA61TUD+CbW//wnr6l35RRpn
7Pk7NekYe871NVAU1hhXpV6ee+usYm6AkW0ZCvgPqJZPmkr6xsyupeXKfArxNAUk
+8N/3/iEvlB72/hMMQ+wzQ/DF332PfrI97ivwwljp9iyDku8n6Bxb5uiZoLlIc6P
S/UT5tcsdUl3gir9rc0cUbx7uq9qDxJtfRvRlw8/nue7kVk3rACGkpDLO7tACfCK
vRjAfQPtD5Kd9YGdZYQrX4onOubE+Wt09Kjv219rfSSLSFgMcY2nTNrdaDS/nCwS
PPFhGEqJBTPIibE=
-----END CERTIFICATE-----
