Certificate:
    Data:
        Version: 3 (0x2)
        Serial Number: 11042563100203 (0xa0b0c0d0e2b)
    Signature Algorithm: sha256WithRSAEncryption
        Issuer: CN=PATNACA_CA, C=IN, O=CITRIX, OU=ANG, ST=KA/emailAddress=PATNACA_CA@PATNACA_mail.com
        Validity
            Not Before: Jul  8 04:38:29 2016 GMT
            Not After : Jul  6 04:38:29 2026 GMT
        Subject: ST=KA, C=IN, CN=129_PATNACA_server/emailAddress=129_PATNACA@test_ca.com, O=CITRIX
        Subject Public Key Info:
            Public Key Algorithm: rsaEncryption
                Public-Key: (2048 bit)
                Modulus:
                    00:a3:5d:21:77:1f:5b:1b:ee:83:46:b4:33:77:6b:
                    3e:2c:44:83:14:a6:5a:76:96:0a:09:4e:cb:cc:95:
                    88:e3:c1:8b:2e:79:45:9c:46:6c:1c:6a:87:a2:7d:
                    e8:6e:de:a5:ba:10:4b:dd:a3:ea:ca:06:7b:c7:5c:
                    a6:4d:1a:5c:40:fb:97:4e:83:b5:7a:3b:9d:83:77:
                    db:6b:b2:c9:1d:8b:68:7d:99:9e:b8:83:e2:7d:0a:
                    5e:02:a2:f0:e9:6e:5f:2e:f1:b6:cb:fd:95:19:b2:
                    63:52:bc:2f:1a:b9:c7:84:df:03:51:19:df:a4:a9:
                    53:82:d8:82:51:46:bb:3f:c3:73:6a:e9:18:09:91:
                    6c:bb:38:01:f3:64:c3:95:88:b7:d6:28:f2:41:c2:
                    62:63:ff:be:77:1d:f2:f2:b4:7c:b6:b1:30:e7:4a:
                    64:3a:4f:ef:ab:cc:6a:93:3b:df:f7:94:6f:3e:7f:
                    bf:53:64:f3:69:20:52:ab:3a:3e:c1:40:91:b5:35:
                    06:61:71:80:44:6e:f5:13:95:2a:42:a4:0b:3c:50:
                    fc:87:1a:20:cc:73:dc:f2:25:4e:08:15:7d:13:89:
                    81:27:d7:42:a1:d6:1b:1b:fb:72:e0:e2:b3:e9:cc:
                    ad:27:df:e6:ee:87:83:bf:a2:c6:b5:ae:ff:bc:3e:
                    74:bf
                Exponent: 65537 (0x10001)
        X509v3 extensions:
            Netscape Cert Type: 
                SSL Server
            X509v3 Subject Key Identifier: 
                D4:97:5A:AA:6C:04:87:80:AA:04:34:31:46:91:DF:67:54:38:46:25
            X509v3 Authority Key Identifier: 
                keyid:FF:DF:C4:8D:AF:64:E1:E3:17:FA:96:EE:F1:75:A7:ED:A7:C3:91:B8
                DirName:/CN=PATNACA_CA/C=IN/O=CITRIX/OU=ANG/ST=KA/emailAddress=PATNACA_CA@PATNACA_mail.com
                serial:9F:2E:15:76:F0:BD:C1:6F

            Authority Information Access: 
                OCSP - URI:http://172.26.10.1/responderpath

    Signature Algorithm: sha256WithRSAEncryption
         1b:b4:c7:22:7f:33:71:66:df:fd:f2:1e:82:21:9d:7c:af:7a:
         a3:2b:36:4a:90:09:05:e7:b4:a5:8b:4c:4b:12:53:d5:b1:9b:
         bb:3e:66:cf:94:04:8e:3e:8e:0d:b1:ce:27:c7:40:fa:af:8d:
         13:53:79:aa:61:77:a0:3f:f4:6e:a4:5f:6e:95:58:38:c7:d3:
         2e:07:d4:ba:4d:80:87:ca:0c:0f:82:67:88:0e:58:57:dd:92:
         4b:20:01:01:c7:99:fa:de:82:1a:77:6f:e9:d0:d3:8c:10:46:
         cd:4e:d2:c2:78:e3:a6:c1:cc:7a:33:2b:bb:b4:7e:9e:43:99:
         ad:30:53:2b:c1:70:40:f4:9e:50:80:78:db:35:46:b8:7e:71:
         32:9f:99:a0:82:0c:fa:cd:e7:2d:dc:78:d0:f4:04:ad:77:8f:
         9a:10:35:f7:08:46:de:23:42:f3:13:86:10:a4:64:04:9f:4e:
         32:8e:a6:6a:eb:40:43:1c:62:df:8a:86:81:e7:de:69:98:18:
         5d:b1:1f:20:c9:11:24:27:5c:0c:d9:36:82:02:c8:e7:00:2b:
         e0:c9:7b:d4:5e:ec:6a:51:33:78:62:b8:a2:fd:62:6a:a2:05:
         91:3f:79:af:56:d7:c3:7e:dc:cd:30:9e:99:80:2d:64:99:8a:
         71:5e:b1:cf
-----BEGIN CERTIFICATE-----
MIIEjzCCA3egAwIBAgIGCgsMDQ4rMA0GCSqGSIb3DQEBCwUAMHoxEzARBgNVBAMU
ClBBVE5BQ0FfQ0ExCzAJBgNVBAYTAklOMQ8wDQYDVQQKEwZDSVRSSVgxDDAKBgNV
BAsTA0FORzELMAkGA1UECBMCS0ExKjAoBgkqhkiG9w0BCQEWG1BBVE5BQ0FfQ0FA
UEFUTkFDQV9tYWlsLmNvbTAeFw0xNjA3MDgwNDM4MjlaFw0yNjA3MDYwNDM4Mjla
MHAxCzAJBgNVBAgTAktBMQswCQYDVQQGEwJJTjEbMBkGA1UEAxQSMTI5X1BBVE5B
Q0Ffc2VydmVyMSYwJAYJKoZIhvcNAQkBFhcxMjlfUEFUTkFDQUB0ZXN0X2NhLmNv
bTEPMA0GA1UEChMGQ0lUUklYMIIBIjANBgkqhkiG9w0BAQEFAAOCAQ8AMIIBCgKC
AQEAo10hdx9bG+6DRrQzd2s+LESDFKZadpYKCU7LzJWI48GLLnlFnEZsHGqHon3o
bt6luhBL3aPqygZ7x1ymTRpcQPuXToO1ejudg3fba7LJHYtofZmeuIPifQpeAqLw
6W5fLvG2y/2VGbJjUrwvGrnHhN8DURnfpKlTgtiCUUa7P8NzaukYCZFsuzgB82TD
lYi31ijyQcJiY/++dx3y8rR8trEw50pkOk/vq8xqkzvf95RvPn+/U2TzaSBSqzo+
wUCRtTUGYXGARG71E5UqQqQLPFD8hxogzHPc8iVOCBV9E4mBJ9dCodYbG/ty4OKz
6cytJ9/m7oeDv6LGta7/vD50vwIDAQABo4IBIzCCAR8wEQYJYIZIAYb4QgEBBAQD
AgZAMB0GA1UdDgQWBBTUl1qqbASHgKoENDFGkd9nVDhGJTCBrAYDVR0jBIGkMIGh
gBT/38SNr2Th4xf6lu7xdaftp8ORuKF+pHwwejETMBEGA1UEAxQKUEFUTkFDQV9D
QTELMAkGA1UEBhMCSU4xDzANBgNVBAoTBkNJVFJJWDEMMAoGA1UECxMDQU5HMQsw
CQYDVQQIEwJLQTEqMCgGCSqGSIb3DQEJARYbUEFUTkFDQV9DQUBQQVROQUNBX21h
aWwuY29tggkAny4VdvC9wW8wPAYIKwYBBQUHAQEEMDAuMCwGCCsGAQUFBzABhiBo
dHRwOi8vMTcyLjI2LjEwLjEvcmVzcG9uZGVycGF0aDANBgkqhkiG9w0BAQsFAAOC
AQEAG7THIn8zcWbf/fIegiGdfK96oys2SpAJBee0pYtMSxJT1bGbuz5mz5QEjj6O
DbHOJ8dA+q+NE1N5qmF3oD/0bqRfbpVYOMfTLgfUuk2Ah8oMD4JniA5YV92SSyAB
AceZ+t6CGndv6dDTjBBGzU7SwnjjpsHMejMru7R+nkOZrTBTK8FwQPSeUIB42zVG
uH5xMp+ZoIIM+s3nLdx40PQErXePmhA19whG3iNC8xOGEKRkBJ9OMo6mautAQxxi
34qGgefeaZgYXbEfIMkRJCdcDNk2ggLI5wAr4Ml71F7salEzeGK4ov1iaqIFkT95
r1bXw37czTCemYAtZJmKcV6xzw==
-----END CERTIFICATE-----
