Certificate:
    Data:
        Version: 3 (0x2)
        Serial Number: 11042563100203 (0xa0b0c0d0e2b)
    Signature Algorithm: sha256WithRSAEncryption
        Issuer: CN=MYSORECA_CA, C=IN, O=CITRIX, OU=ANG, ST=KA/emailAddress=MYSORECA_CA@MYSORECA_mail.com
        Validity
            Not Before: Jul  8 04:36:37 2016 GMT
            Not After : Jul  6 04:36:37 2026 GMT
        Subject: ST=KA, C=IN, CN=129_MYSORECA_server/emailAddress=129_MYSORECA@test_ca.com, O=CITRIX
        Subject Public Key Info:
            Public Key Algorithm: rsaEncryption
                Public-Key: (2048 bit)
                Modulus:
                    00:a2:1b:cb:2c:f0:05:b8:c2:d4:7d:aa:85:61:75:
                    e0:59:ae:a7:96:b3:c5:07:f7:b3:bc:bb:ba:3c:2c:
                    ec:78:95:7d:d2:6f:29:f1:78:31:3c:fb:e5:3d:63:
                    05:e2:49:87:8c:4f:ec:56:25:e9:59:1a:99:41:58:
                    f8:f3:6b:b9:4e:cb:a4:72:b9:53:25:0c:56:4f:a6:
                    32:9f:b0:0f:42:a4:92:dd:6e:e5:d2:8f:d3:14:b7:
                    22:50:c8:3c:65:85:35:3f:dc:ed:b1:24:07:ac:77:
                    a4:0d:6c:70:ef:30:27:97:bd:fe:5b:17:f1:7b:25:
                    f7:7a:8d:e3:e2:d5:ba:f8:25:a8:fd:89:d6:33:bb:
                    34:02:b1:31:4b:ff:52:41:15:12:84:b3:20:20:7c:
                    9e:7d:cd:ef:2a:33:23:47:04:a5:56:69:6a:4f:32:
                    fa:b1:a2:28:af:ba:f6:f6:bc:b5:a6:7d:1d:80:45:
                    5a:de:67:41:42:96:a1:11:d4:1c:5c:f5:05:ac:a9:
                    d6:0b:6d:22:01:c2:33:8e:9a:f8:25:7c:59:d2:53:
                    6c:f9:a2:10:0d:b0:07:a0:a5:90:be:4d:04:29:87:
                    a0:08:8a:35:85:90:2e:76:06:df:fa:ef:df:bf:3e:
                    86:af:8b:b2:fe:c2:a7:02:36:79:e6:95:a6:b7:3b:
                    53:8f
                Exponent: 65537 (0x10001)
        X509v3 extensions:
            Netscape Cert Type: 
                SSL Server
            X509v3 Subject Key Identifier: 
                C1:6C:52:68:36:23:61:C8:90:82:7F:1E:A0:9B:A1:02:96:24:7A:B0
            X509v3 Authority Key Identifier: 
                keyid:C6:18:DA:E4:16:A1:1E:60:AE:18:00:F5:A7:DF:0A:8B:65:4D:36:95
                DirName:/CN=MYSORECA_CA/C=IN/O=CITRIX/OU=ANG/ST=KA/emailAddress=MYSORECA_CA@MYSORECA_mail.com
                serial:D5:74:54:E9:D5:CF:C9:F6

            Authority Information Access: 
                OCSP - URI:http://172.24.10.1/responderpath

    Signature Algorithm: sha256WithRSAEncryption
         04:68:2d:f0:88:23:52:f7:d4:41:f1:bb:e0:7b:ba:43:5e:82:
         2d:65:e9:08:3d:e6:09:4d:de:6c:97:32:12:8b:c3:d0:95:2d:
         d2:ca:31:f6:61:0b:54:ea:f5:22:84:72:f5:63:70:f0:7a:8d:
         f4:8d:90:5c:8d:d6:bf:bb:ab:f2:a9:1c:49:1e:09:1c:69:9e:
         e8:0e:ad:91:80:30:6d:02:ba:7b:8b:bb:01:33:0e:6b:31:83:
         90:e3:d0:b8:4f:1c:75:a6:81:9d:a9:54:be:72:03:d7:3d:43:
         1e:3a:ae:2e:50:47:3b:93:d5:56:93:3f:13:5b:fc:91:be:fd:
         e0:bc:9d:c3:a7:a2:c0:c9:ee:37:c2:5f:ae:3b:7d:ff:67:6c:
         7c:79:ab:9a:70:ed:d7:b0:71:ef:49:5f:86:7f:45:7a:89:bd:
         cc:3b:a7:19:5e:72:1a:24:8a:3a:d6:51:54:b9:bd:66:23:73:
         e3:66:52:78:1a:01:8c:19:c4:2e:7e:00:fa:80:56:6c:31:7d:
         8c:4e:78:93:67:11:f3:d4:55:8c:12:94:bd:1d:5d:91:ae:78:
         f3:86:3f:50:96:6d:cc:fa:1a:29:60:24:1b:e0:4d:29:a9:3d:
         79:34:75:fb:fa:b0:fc:79:9f:ad:2c:a4:59:09:87:3e:78:8a:
         42:6e:1d:65
-----BEGIN CERTIFICATE-----
MIIEmDCCA4CgAwIBAgIGCgsMDQ4rMA0GCSqGSIb3DQEBCwUAMH0xFDASBgNVBAMU
C01ZU09SRUNBX0NBMQswCQYDVQQGEwJJTjEPMA0GA1UEChMGQ0lUUklYMQwwCgYD
VQQLEwNBTkcxCzAJBgNVBAgTAktBMSwwKgYJKoZIhvcNAQkBFh1NWVNPUkVDQV9D
QUBNWVNPUkVDQV9tYWlsLmNvbTAeFw0xNjA3MDgwNDM2MzdaFw0yNjA3MDYwNDM2
MzdaMHIxCzAJBgNVBAgTAktBMQswCQYDVQQGEwJJTjEcMBoGA1UEAxQTMTI5X01Z
U09SRUNBX3NlcnZlcjEnMCUGCSqGSIb3DQEJARYYMTI5X01ZU09SRUNBQHRlc3Rf
Y2EuY29tMQ8wDQYDVQQKEwZDSVRSSVgwggEiMA0GCSqGSIb3DQEBAQUAA4IBDwAw
ggEKAoIBAQCiG8ss8AW4wtR9qoVhdeBZrqeWs8UH97O8u7o8LOx4lX3SbynxeDE8
++U9YwXiSYeMT+xWJelZGplBWPjza7lOy6RyuVMlDFZPpjKfsA9CpJLdbuXSj9MU
tyJQyDxlhTU/3O2xJAesd6QNbHDvMCeXvf5bF/F7Jfd6jePi1br4Jaj9idYzuzQC
sTFL/1JBFRKEsyAgfJ59ze8qMyNHBKVWaWpPMvqxoiivuvb2vLWmfR2ARVreZ0FC
lqER1Bxc9QWsqdYLbSIBwjOOmvglfFnSU2z5ohANsAegpZC+TQQph6AIijWFkC52
Bt/679+/Poavi7L+wqcCNnnmlaa3O1OPAgMBAAGjggEnMIIBIzARBglghkgBhvhC
AQEEBAMCBkAwHQYDVR0OBBYEFMFsUmg2I2HIkIJ/HqCboQKWJHqwMIGwBgNVHSME
gagwgaWAFMYY2uQWoR5grhgA9affCotlTTaVoYGBpH8wfTEUMBIGA1UEAxQLTVlT
T1JFQ0FfQ0ExCzAJBgNVBAYTAklOMQ8wDQYDVQQKEwZDSVRSSVgxDDAKBgNVBAsT
A0FORzELMAkGA1UECBMCS0ExLDAqBgkqhkiG9w0BCQEWHU1ZU09SRUNBX0NBQE1Z
U09SRUNBX21haWwuY29tggkA1XRU6dXPyfYwPAYIKwYBBQUHAQEEMDAuMCwGCCsG
AQUFBzABhiBodHRwOi8vMTcyLjI0LjEwLjEvcmVzcG9uZGVycGF0aDANBgkqhkiG
9w0BAQsFAAOCAQEABGgt8IgjUvfUQfG74Hu6Q16CLWXpCD3mCU3ebJcyEovD0JUt
0sox9mELVOr1IoRy9WNw8HqN9I2QXI3Wv7ur8qkcSR4JHGme6A6tkYAwbQK6e4u7
ATMOazGDkOPQuE8cdaaBnalUvnID1z1DHjquLlBHO5PVVpM/E1v8kb794Lydw6ei
wMnuN8Jfrjt9/2dsfHmrmnDt17Bx70lfhn9Feom9zDunGV5yGiSKOtZRVLm9ZiNz
42ZSeBoBjBnELn4A+oBWbDF9jE54k2cR89RVjBKUvR1dka5484Y/UJZtzPoaKWAk
G+BNKak9eTR1+/qw/HmfrSykWQmHPniKQm4dZQ==
-----END CERTIFICATE-----
