Certificate:
    Data:
        Version: 3 (0x2)
        Serial Number: 11042563100203 (0xa0b0c0d0e2b)
    Signature Algorithm: sha256WithRSAEncryption
        Issuer: CN=GOACA_CA, C=IN, O=CITRIX, OU=ANG, ST=KA/emailAddress=GOACA_CA@GOACA_mail.com
        Validity
            Not Before: Jul  8 04:35:00 2016 GMT
            Not After : Jul  6 04:35:00 2026 GMT
        Subject: ST=KA, C=IN, CN=129_GOACA_server/emailAddress=129_GOACA@test_ca.com, O=CITRIX
        Subject Public Key Info:
            Public Key Algorithm: rsaEncryption
                Public-Key: (2048 bit)
                Modulus:
                    00:d6:69:12:aa:dd:9f:20:ea:10:53:ac:03:d9:2b:
                    14:b5:ac:78:91:0c:9d:a8:7b:9f:f5:1f:e8:56:a5:
                    d3:a5:a3:0b:c5:e8:20:43:52:46:0c:27:2c:c6:3f:
                    89:bf:c6:e4:be:76:25:d3:9b:b0:ed:78:4a:6b:8a:
                    34:1e:4e:43:c9:ce:7e:a7:4e:bd:75:c3:6f:ba:69:
                    eb:05:00:6d:ae:7c:5d:40:41:64:51:17:09:8c:f3:
                    25:28:a5:29:8f:9b:62:67:75:b3:7c:51:54:e4:6c:
                    f2:03:7e:8c:65:1a:37:91:7f:80:46:95:17:1f:a0:
                    56:bb:d3:9b:28:c1:b1:a5:35:02:0e:60:ed:9f:cf:
                    c2:07:e2:45:24:39:9a:d0:4b:f9:b1:af:e6:82:02:
                    af:ae:48:02:69:c4:91:67:f5:c4:40:03:6b:eb:55:
                    4c:59:3e:7f:d3:0d:5b:bf:86:9f:c6:5f:59:03:bf:
                    34:de:c1:77:9a:d9:83:1a:aa:01:50:b4:22:c6:21:
                    ba:fa:46:37:f9:57:fe:b4:93:f5:67:17:f7:7c:49:
                    7c:96:f5:43:fa:06:c8:f0:69:a2:ae:72:40:fb:a9:
                    c1:09:3c:d4:89:da:48:26:07:ef:45:44:03:54:10:
                    4e:d6:18:82:7e:a7:0f:ba:83:24:89:c1:ca:12:73:
                    cb:69
                Exponent: 65537 (0x10001)
        X509v3 extensions:
            Netscape Cert Type: 
                SSL Server
            X509v3 Subject Key Identifier: 
                38:B1:4E:D8:B4:83:B0:38:EB:54:90:B0:1C:EC:2F:59:0E:6C:6D:36
            X509v3 Authority Key Identifier: 
                keyid:81:03:00:D4:DC:70:D9:A7:03:08:1E:DC:9B:4C:AC:E6:59:CD:39:68
                DirName:/CN=GOACA_CA/C=IN/O=CITRIX/OU=ANG/ST=KA/emailAddress=GOACA_CA@GOACA_mail.com
                serial:FC:8B:0A:90:01:17:5F:1C

            Authority Information Access: 
                OCSP - URI:http://172.21.10.1/responderpath

    Signature Algorithm: sha256WithRSAEncryption
         6e:0b:44:9e:c7:1c:42:5f:67:fa:ee:be:4b:1b:4a:ef:90:d2:
         03:ea:23:a2:e3:26:8a:dd:10:72:19:22:7c:ef:e7:e7:4a:c3:
         ee:65:d7:54:27:93:22:ea:29:f7:16:dd:c8:f6:b5:78:24:bf:
         5f:c1:fb:e8:55:9e:10:64:24:28:b4:48:ac:5c:48:13:d5:ca:
         d7:3a:91:ba:be:27:5e:d2:e8:ee:db:38:c4:05:6c:f1:13:68:
         e3:d7:07:15:a5:30:18:92:19:cb:14:42:24:93:35:36:c0:35:
         42:38:9b:65:79:4b:c0:a3:fc:4e:1d:e0:d4:1e:9b:e6:9e:2f:
         98:11:2e:39:01:87:33:94:6a:08:81:ca:b3:0b:0c:15:5d:0b:
         a1:73:b2:8d:9e:15:07:9e:0e:a5:0c:e5:3f:67:85:bd:23:c3:
         60:8f:24:1d:90:60:eb:73:3f:83:13:90:04:d3:9b:f9:13:a2:
         6c:cb:13:45:4d:57:c9:9d:a6:87:a5:ed:80:2e:be:85:b4:43:
         99:cd:80:ec:c0:90:d9:d7:df:8f:1a:81:b8:6b:27:e6:a2:5e:
         71:34:21:01:4c:85:82:6a:35:9e:70:83:71:cd:7c:34:2f:a6:
         ec:a3:40:78:df:5b:0a:0b:64:c7:75:05:9f:00:8f:b1:0f:16:
         6e:b6:a3:a9
-----BEGIN CERTIFICATE-----
MIIEfzCCA2egAwIBAgIGCgsMDQ4rMA0GCSqGSIb3DQEBCwUAMHQxETAPBgNVBAMU
CEdPQUNBX0NBMQswCQYDVQQGEwJJTjEPMA0GA1UEChMGQ0lUUklYMQwwCgYDVQQL
EwNBTkcxCzAJBgNVBAgTAktBMSYwJAYJKoZIhvcNAQkBFhdHT0FDQV9DQUBHT0FD
QV9tYWlsLmNvbTAeFw0xNjA3MDgwNDM1MDBaFw0yNjA3MDYwNDM1MDBaMGwxCzAJ
BgNVBAgTAktBMQswCQYDVQQGEwJJTjEZMBcGA1UEAxQQMTI5X0dPQUNBX3NlcnZl
cjEkMCIGCSqGSIb3DQEJARYVMTI5X0dPQUNBQHRlc3RfY2EuY29tMQ8wDQYDVQQK
EwZDSVRSSVgwggEiMA0GCSqGSIb3DQEBAQUAA4IBDwAwggEKAoIBAQDWaRKq3Z8g
6hBTrAPZKxS1rHiRDJ2oe5/1H+hWpdOlowvF6CBDUkYMJyzGP4m/xuS+diXTm7Dt
eEprijQeTkPJzn6nTr11w2+6aesFAG2ufF1AQWRRFwmM8yUopSmPm2JndbN8UVTk
bPIDfoxlGjeRf4BGlRcfoFa705sowbGlNQIOYO2fz8IH4kUkOZrQS/mxr+aCAq+u
SAJpxJFn9cRAA2vrVUxZPn/TDVu/hp/GX1kDvzTewXea2YMaqgFQtCLGIbr6Rjf5
V/60k/VnF/d8SXyW9UP6BsjwaaKuckD7qcEJPNSJ2kgmB+9FRANUEE7WGIJ+pw+6
gySJwcoSc8tpAgMBAAGjggEdMIIBGTARBglghkgBhvhCAQEEBAMCBkAwHQYDVR0O
BBYEFDixTti0g7A461SQsBzsL1kObG02MIGmBgNVHSMEgZ4wgZuAFIEDANTccNmn
Awge3JtMrOZZzTlooXikdjB0MREwDwYDVQQDFAhHT0FDQV9DQTELMAkGA1UEBhMC
SU4xDzANBgNVBAoTBkNJVFJJWDEMMAoGA1UECxMDQU5HMQswCQYDVQQIEwJLQTEm
MCQGCSqGSIb3DQEJARYXR09BQ0FfQ0FAR09BQ0FfbWFpbC5jb22CCQD8iwqQARdf
HDA8BggrBgEFBQcBAQQwMC4wLAYIKwYBBQUHMAGGIGh0dHA6Ly8xNzIuMjEuMTAu
MS9yZXNwb25kZXJwYXRoMA0GCSqGSIb3DQEBCwUAA4IBAQBuC0SexxxCX2f67r5L
G0rvkNID6iOi4yaK3RByGSJ87+fnSsPuZddUJ5Mi6in3Ft3I9rV4JL9fwfvoVZ4Q
ZCQotEisXEgT1crXOpG6vide0uju2zjEBWzxE2jj1wcVpTAYkhnLFEIkkzU2wDVC
OJtleUvAo/xOHeDUHpvmni+YES45AYczlGoIgcqzCwwVXQuhc7KNnhUHng6lDOU/
Z4W9I8NgjyQdkGDrcz+DE5AE05v5E6JsyxNFTVfJnaaHpe2ALr6FtEOZzYDswJDZ
19+PGoG4ayfmol5xNCEBTIWCajWecINxzXw0L6bso0B431sKC2THdQWfAI+xDxZu
tqOp
-----END CERTIFICATE-----
