Certificate:
    Data:
        Version: 3 (0x2)
        Serial Number: 11042563100203 (0xa0b0c0d0e2b)
    Signature Algorithm: sha256WithRSAEncryption
        Issuer: CN=BANGALORECA_CA, C=IN, O=CITRIX, OU=ANG, ST=KA/emailAddress=BANGALORECA_CA@BANGALORECA_mail.com
        Validity
            Not Before: Jul  8 04:31:27 2016 GMT
            Not After : Jul  6 04:31:27 2026 GMT
        Subject: ST=KA, C=IN, CN=129_BANGALORECA_server/emailAddress=129_BANGALORECA@test_ca.com, O=CITRIX
        Subject Public Key Info:
            Public Key Algorithm: rsaEncryption
                Public-Key: (2048 bit)
                Modulus:
                    00:ba:89:01:db:10:3b:59:5a:75:e9:ec:ce:71:c1:
                    7a:b1:f7:09:28:0a:61:4e:3e:7f:2c:31:4a:9a:02:
                    c0:5e:7c:71:48:64:85:c3:a1:be:a5:85:01:d5:75:
                    07:db:31:bf:eb:8d:db:7a:ea:85:7b:d5:cb:c4:1e:
                    12:02:8d:dd:9b:50:32:37:1c:88:15:e0:0f:26:45:
                    9d:dd:6c:e6:2d:7f:19:7e:ad:a3:8b:2b:7c:f8:70:
                    37:77:de:03:29:f6:33:2a:75:52:da:aa:1c:c4:90:
                    07:52:ec:79:c2:45:33:1e:be:3f:10:fc:04:6b:23:
                    67:fa:f1:cd:9a:b2:da:2f:34:a0:f4:e1:38:8d:5c:
                    35:aa:e3:f4:78:33:10:9c:01:ad:51:9c:a1:e6:42:
                    45:90:75:41:63:b5:bc:14:43:99:44:92:9d:f1:f7:
                    4f:cc:02:5e:b4:40:00:be:13:5f:23:69:11:9d:55:
                    2a:5d:b9:0c:5d:ca:ed:3c:dc:ed:a9:e5:b2:40:f6:
                    55:f1:bf:08:4d:de:b1:bc:94:2a:f6:2b:a2:1a:cc:
                    5a:4a:ee:b3:24:ca:37:b6:15:a0:f2:f7:02:18:51:
                    b9:92:a1:f5:6b:80:86:7f:6b:a5:c3:34:e3:95:07:
                    87:a3:f8:15:94:3a:c8:3b:56:35:5f:61:87:dc:9c:
                    d0:af
                Exponent: 65537 (0x10001)
        X509v3 extensions:
            Netscape Cert Type: 
                SSL Server
            X509v3 Subject Key Identifier: 
                53:14:0E:09:D7:A7:11:59:A4:67:18:52:51:95:0D:A0:40:B7:7B:BC
            X509v3 Authority Key Identifier: 
                keyid:3B:D6:D1:53:18:87:05:22:BB:EE:C3:0F:F5:CE:0F:6B:A2:93:A7:B8
                DirName:/CN=BANGALORECA_CA/C=IN/O=CITRIX/OU=ANG/ST=KA/emailAddress=BANGALORECA_CA@BANGALORECA_mail.com
                serial:A1:AC:B4:DA:46:53:58:40

            Authority Information Access: 
                OCSP - URI:http://172.16.10.1/responderpath

    Signature Algorithm: sha256WithRSAEncryption
         a8:30:03:97:2d:22:a6:8a:3b:bf:82:fe:e9:37:e3:7d:b6:d3:
         bf:5e:d0:8b:5b:40:bb:c2:9d:44:25:66:89:0d:25:5a:f1:5e:
         34:9b:f6:fc:93:4b:e6:e7:c7:03:e2:64:f6:d9:cb:bb:c4:b2:
         8b:b8:99:c7:5b:da:fe:08:ae:3b:2c:dc:26:c2:d6:35:f3:67:
         41:09:6a:78:dc:46:63:d2:b5:ea:32:0b:69:38:c8:b4:8a:e9:
         d1:d0:34:80:ab:02:cd:70:f1:6b:99:d5:23:3a:85:bf:bf:56:
         c6:ef:de:fc:5b:7c:de:92:ba:b9:f1:53:06:f6:ba:28:0b:90:
         6a:40:46:2b:16:48:23:6e:d2:28:a4:e1:ed:24:4b:46:13:1f:
         13:1a:e5:20:95:73:de:ea:a0:56:05:8a:93:fb:39:cf:3f:37:
         d4:be:b5:e5:88:38:45:96:77:e3:8b:5a:3e:91:e7:8f:af:9e:
         3e:da:f9:41:21:be:5e:29:fb:c9:6a:09:21:70:04:e7:33:e8:
         93:53:92:f3:26:b4:84:1c:fb:4b:e2:eb:14:29:ea:9e:7e:ae:
         a2:ef:38:83:79:41:c8:8f:3d:8b:62:89:af:19:81:1e:7b:dd:
         c3:ae:3d:58:51:b3:1c:b6:7c:79:d9:5e:d6:83:a0:66:9e:2e:
         a3:c3:df:e8
-----BEGIN CERTIFICATE-----
MIIEszCCA5ugAwIBAgIGCgsMDQ4rMA0GCSqGSIb3DQEBCwUAMIGGMRcwFQYDVQQD
FA5CQU5HQUxPUkVDQV9DQTELMAkGA1UEBhMCSU4xDzANBgNVBAoTBkNJVFJJWDEM
MAoGA1UECxMDQU5HMQswCQYDVQQIEwJLQTEyMDAGCSqGSIb3DQEJARYjQkFOR0FM
T1JFQ0FfQ0FAQkFOR0FMT1JFQ0FfbWFpbC5jb20wHhcNMTYwNzA4MDQzMTI3WhcN
MjYwNzA2MDQzMTI3WjB4MQswCQYDVQQIEwJLQTELMAkGA1UEBhMCSU4xHzAdBgNV
BAMUFjEyOV9CQU5HQUxPUkVDQV9zZXJ2ZXIxKjAoBgkqhkiG9w0BCQEWGzEyOV9C
QU5HQUxPUkVDQUB0ZXN0X2NhLmNvbTEPMA0GA1UEChMGQ0lUUklYMIIBIjANBgkq
hkiG9w0BAQEFAAOCAQ8AMIIBCgKCAQEAuokB2xA7WVp16ezOccF6sfcJKAphTj5/
LDFKmgLAXnxxSGSFw6G+pYUB1XUH2zG/643beuqFe9XLxB4SAo3dm1AyNxyIFeAP
JkWd3WzmLX8Zfq2jiyt8+HA3d94DKfYzKnVS2qocxJAHUux5wkUzHr4/EPwEayNn
+vHNmrLaLzSg9OE4jVw1quP0eDMQnAGtUZyh5kJFkHVBY7W8FEOZRJKd8fdPzAJe
tEAAvhNfI2kRnVUqXbkMXcrtPNztqeWyQPZV8b8ITd6xvJQq9iuiGsxaSu6zJMo3
thWg8vcCGFG5kqH1a4CGf2ulwzTjlQeHo/gVlDrIO1Y1X2GH3JzQrwIDAQABo4IB
MjCCAS4wEQYJYIZIAYb4QgEBBAQDAgZAMB0GA1UdDgQWBBRTFA4J16cRWaRnGFJR
lQ2gQLd7vDCBuwYDVR0jBIGzMIGwgBQ71tFTGIcFIrvuww/1zg9ropOnuKGBjKSB
iTCBhjEXMBUGA1UEAxQOQkFOR0FMT1JFQ0FfQ0ExCzAJBgNVBAYTAklOMQ8wDQYD
VQQKEwZDSVRSSVgxDDAKBgNVBAsTA0FORzELMAkGA1UECBMCS0ExMjAwBgkqhkiG
9w0BCQEWI0JBTkdBTE9SRUNBX0NBQEJBTkdBTE9SRUNBX21haWwuY29tggkAoay0
2kZTWEAwPAYIKwYBBQUHAQEEMDAuMCwGCCsGAQUFBzABhiBodHRwOi8vMTcyLjE2
LjEwLjEvcmVzcG9uZGVycGF0aDANBgkqhkiG9w0BAQsFAAOCAQEAqDADly0ipoo7
v4L+6TfjfbbTv17Qi1tAu8KdRCVmiQ0lWvFeNJv2/JNL5ufHA+Jk9tnLu8Syi7iZ
x1va/giuOyzcJsLWNfNnQQlqeNxGY9K16jILaTjItIrp0dA0gKsCzXDxa5nVIzqF
v79Wxu/e/Ft83pK6ufFTBva6KAuQakBGKxZII27SKKTh7SRLRhMfExrlIJVz3uqg
VgWKk/s5zz831L615Yg4RZZ344taPpHnj6+ePtr5QSG+Xin7yWoJIXAE5zPok1OS
8ya0hBz7S+LrFCnqnn6uou84g3lByI89i2KJrxmBHnvdw649WFGzHLZ8edle1oOg
Zp4uo8Pf6A==
-----END CERTIFICATE-----
