Certificate:
    Data:
        Version: 3 (0x2)
        Serial Number: 11042563100203 (0xa0b0c0d0e2b)
    Signature Algorithm: sha256WithRSAEncryption
        Issuer: CN=DELHICA_CA, C=IN, O=CITRIX, OU=ANG, ST=KA/emailAddress=DELHICA_CA@DELHICA_mail.com
        Validity
            Not Before: Jul  8 04:34:29 2016 GMT
            Not After : Jul  6 04:34:29 2026 GMT
        Subject: ST=KA, C=IN, CN=129_DELHICA_server/emailAddress=129_DELHICA@test_ca.com, O=CITRIX
        Subject Public Key Info:
            Public Key Algorithm: rsaEncryption
                Public-Key: (2048 bit)
                Modulus:
                    00:bf:b4:a2:23:bb:55:0c:f2:75:da:14:24:27:44:
                    2a:57:69:f0:4e:d5:e6:7f:2d:61:48:1f:ae:d3:c2:
                    7c:88:51:9c:7b:ae:d0:40:79:fc:68:b5:67:71:ee:
                    c6:54:a1:a7:7d:ee:e6:18:a0:85:f0:93:55:08:f2:
                    2a:28:99:c6:e3:56:43:2f:99:23:75:d7:31:49:bc:
                    14:58:65:e2:42:64:a7:4c:7c:e0:5f:57:81:49:e9:
                    28:db:ff:75:f7:11:d4:49:c5:e5:2a:57:90:e2:aa:
                    23:24:53:fe:f6:cc:05:f7:04:d2:61:35:1f:88:c6:
                    8e:8e:0a:3c:11:72:38:48:15:cb:65:19:3d:6b:fc:
                    8b:ad:44:5b:72:03:7b:d1:e2:48:f7:26:66:42:73:
                    de:6d:32:3e:11:14:f8:ba:85:e1:32:ec:7f:ff:22:
                    0a:c1:a9:1a:7c:35:d1:bc:fb:ea:9e:86:a1:ae:c4:
                    ff:51:2e:96:fc:56:fb:b7:0a:58:ca:55:75:fb:bc:
                    2c:c0:b8:44:94:c1:b2:f8:c0:7d:4e:06:80:50:6f:
                    97:d1:04:09:4c:23:e4:d9:67:d1:11:6c:68:d9:73:
                    af:4a:0f:fe:73:fc:a4:f4:b8:87:99:08:9d:b4:d5:
                    fb:23:f5:e3:86:97:0c:85:75:e4:eb:6b:3c:58:62:
                    07:29
                Exponent: 65537 (0x10001)
        X509v3 extensions:
            Netscape Cert Type: 
                SSL Server
            X509v3 Subject Key Identifier: 
                C9:F0:AA:6B:48:A2:E0:15:8F:AA:A6:1B:89:03:03:36:2A:17:B6:AF
            X509v3 Authority Key Identifier: 
                keyid:D7:37:52:01:DC:2C:7A:57:85:CA:30:39:30:F0:D5:5D:5A:31:03:02
                DirName:/CN=DELHICA_CA/C=IN/O=CITRIX/OU=ANG/ST=KA/emailAddress=DELHICA_CA@DELHICA_mail.com
                serial:94:59:DC:51:4E:A5:13:27

            Authority Information Access: 
                OCSP - URI:http://172.20.10.1/responderpath

    Signature Algorithm: sha256WithRSAEncryption
         8a:e0:28:3a:6f:d7:fd:4a:11:df:ce:30:e5:a3:84:92:1c:0d:
         57:8f:e9:f8:35:38:ee:9b:bc:02:b9:99:f6:ef:c6:44:18:07:
         22:d6:12:5c:d2:c1:21:06:97:e0:2b:70:46:90:08:8d:60:e9:
         b7:6f:1f:93:ca:12:b7:8f:e5:25:8b:1f:8b:08:95:c0:32:e7:
         32:50:06:a3:97:5f:33:d0:d5:8a:88:1e:cb:9a:f6:28:f1:46:
         57:8f:b4:e8:41:84:5a:9f:9f:27:b7:c8:32:12:52:7c:2a:d3:
         cc:21:e2:45:2f:d2:8b:69:c0:f5:45:39:6b:d2:d2:c4:07:fb:
         1e:50:8e:db:0a:eb:87:b7:7d:fa:5a:57:fe:e3:65:fb:4c:10:
         96:a4:ed:61:42:2d:bb:80:3b:93:7a:37:46:d6:86:1b:a8:5e:
         3d:cc:a1:f4:45:e0:5d:92:23:d5:59:26:e2:53:38:41:a8:51:
         64:4d:29:cf:3b:4b:ea:34:24:65:1c:a0:ad:01:66:57:b7:c6:
         2f:6e:7d:f9:33:8a:1e:8c:e3:bd:14:a3:a9:14:d7:13:17:31:
         1d:5f:38:de:ba:1c:02:17:80:8f:fb:61:b9:89:7d:f2:00:9f:
         58:30:b0:87:8d:1b:23:bf:e2:d6:34:f9:d8:9a:6b:97:97:ad:
         9f:1d:43:97
-----BEGIN CERTIFICATE-----
MIIEjzCCA3egAwIBAgIGCgsMDQ4rMA0GCSqGSIb3DQEBCwUAMHoxEzARBgNVBAMU
CkRFTEhJQ0FfQ0ExCzAJBgNVBAYTAklOMQ8wDQYDVQQKEwZDSVRSSVgxDDAKBgNV
BAsTA0FORzELMAkGA1UECBMCS0ExKjAoBgkqhkiG9w0BCQEWG0RFTEhJQ0FfQ0FA
REVMSElDQV9tYWlsLmNvbTAeFw0xNjA3MDgwNDM0MjlaFw0yNjA3MDYwNDM0Mjla
MHAxCzAJBgNVBAgTAktBMQswCQYDVQQGEwJJTjEbMBkGA1UEAxQSMTI5X0RFTEhJ
Q0Ffc2VydmVyMSYwJAYJKoZIhvcNAQkBFhcxMjlfREVMSElDQUB0ZXN0X2NhLmNv
bTEPMA0GA1UEChMGQ0lUUklYMIIBIjANBgkqhkiG9w0BAQEFAAOCAQ8AMIIBCgKC
AQEAv7SiI7tVDPJ12hQkJ0QqV2nwTtXmfy1hSB+u08J8iFGce67QQHn8aLVnce7G
VKGnfe7mGKCF8JNVCPIqKJnG41ZDL5kjddcxSbwUWGXiQmSnTHzgX1eBSeko2/91
9xHUScXlKleQ4qojJFP+9swF9wTSYTUfiMaOjgo8EXI4SBXLZRk9a/yLrURbcgN7
0eJI9yZmQnPebTI+ERT4uoXhMux//yIKwakafDXRvPvqnoahrsT/US6W/Fb7twpY
ylV1+7wswLhElMGy+MB9TgaAUG+X0QQJTCPk2WfREWxo2XOvSg/+c/yk9LiHmQid
tNX7I/XjhpcMhXXk62s8WGIHKQIDAQABo4IBIzCCAR8wEQYJYIZIAYb4QgEBBAQD
AgZAMB0GA1UdDgQWBBTJ8KprSKLgFY+qphuJAwM2Khe2rzCBrAYDVR0jBIGkMIGh
gBTXN1IB3Cx6V4XKMDkw8NVdWjEDAqF+pHwwejETMBEGA1UEAxQKREVMSElDQV9D
QTELMAkGA1UEBhMCSU4xDzANBgNVBAoTBkNJVFJJWDEMMAoGA1UECxMDQU5HMQsw
CQYDVQQIEwJLQTEqMCgGCSqGSIb3DQEJARYbREVMSElDQV9DQUBERUxISUNBX21h
aWwuY29tggkAlFncUU6lEycwPAYIKwYBBQUHAQEEMDAuMCwGCCsGAQUFBzABhiBo
dHRwOi8vMTcyLjIwLjEwLjEvcmVzcG9uZGVycGF0aDANBgkqhkiG9w0BAQsFAAOC
AQEAiuAoOm/X/UoR384w5aOEkhwNV4/p+DU47pu8ArmZ9u/GRBgHItYSXNLBIQaX
4CtwRpAIjWDpt28fk8oSt4/lJYsfiwiVwDLnMlAGo5dfM9DViogey5r2KPFGV4+0
6EGEWp+fJ7fIMhJSfCrTzCHiRS/Si2nA9UU5a9LSxAf7HlCO2wrrh7d9+lpX/uNl
+0wQlqTtYUItu4A7k3o3RtaGG6hePcyh9EXgXZIj1Vkm4lM4QahRZE0pzztL6jQk
ZRygrQFmV7fGL259+TOKHozjvRSjqRTXExcxHV843rocAheAj/thuYl98gCfWDCw
h40bI7/i1jT52Jprl5etnx1Dlw==
-----END CERTIFICATE-----
