Certificate:
    Data:
        Version: 3 (0x2)
        Serial Number: 11042563100203 (0xa0b0c0d0e2b)
    Signature Algorithm: sha256WithRSAEncryption
        Issuer: CN=BHOPALCA_CA, C=IN, O=CITRIX, OU=ANG, ST=KA/emailAddress=BHOPALCA_CA@BHOPALCA_mail.com
        Validity
            Not Before: Jul  8 04:32:40 2016 GMT
            Not After : Jul  6 04:32:40 2026 GMT
        Subject: ST=KA, C=IN, CN=129_BHOPALCA_server/emailAddress=129_BHOPALCA@test_ca.com, O=CITRIX
        Subject Public Key Info:
            Public Key Algorithm: rsaEncryption
                Public-Key: (2048 bit)
                Modulus:
                    00:ab:e1:6d:87:07:b1:68:01:7e:4d:46:76:9b:23:
                    a7:00:1f:ea:53:a4:5b:f6:2f:17:ca:12:07:3f:bd:
                    ef:b7:1f:d8:a2:b6:22:4f:e0:6c:f6:69:34:2d:62:
                    a3:a7:ad:ba:de:3a:e0:fb:ff:79:93:f9:7d:b2:ff:
                    ce:34:28:02:95:d8:ce:67:4a:2d:0f:95:93:09:cf:
                    32:b9:f5:0c:2a:65:f4:a1:69:f3:78:f4:e5:ff:81:
                    f4:57:b2:7d:2e:6a:8e:f5:a0:f5:9f:d4:00:a5:75:
                    80:86:37:cf:11:e5:7d:f4:44:52:4a:db:07:53:d2:
                    61:be:eb:8c:c8:fc:4b:80:d1:6b:df:3f:ae:20:4b:
                    64:54:49:f0:3e:58:42:ff:3d:67:3e:51:e0:fb:51:
                    f3:6c:34:2b:e3:4b:e0:83:21:8c:2b:a2:ea:26:89:
                    5c:3d:f4:2c:d4:6f:f0:1c:52:35:d5:74:d4:93:d8:
                    a7:3b:8e:77:41:7d:6d:68:d7:0d:0d:20:a6:04:83:
                    39:6c:82:ee:4a:d2:d1:c3:ba:90:f4:39:55:8e:03:
                    d9:81:a6:a1:d7:41:ab:98:e5:1f:40:d6:47:4d:b8:
                    19:0b:b5:f2:13:c0:2d:5d:7b:78:48:aa:e4:7b:79:
                    15:3e:dc:46:60:7a:30:ba:02:42:71:ba:fe:d6:86:
                    9c:d1
                Exponent: 65537 (0x10001)
        X509v3 extensions:
            Netscape Cert Type: 
                SSL Server
            X509v3 Subject Key Identifier: 
                2A:01:B1:27:34:66:AE:E8:55:42:44:24:80:45:05:4E:9A:95:1E:75
            X509v3 Authority Key Identifier: 
                keyid:A6:66:0E:59:0F:3C:5C:11:35:B2:B3:99:59:A9:D3:A6:B1:5E:95:D2
                DirName:/CN=BHOPALCA_CA/C=IN/O=CITRIX/OU=ANG/ST=KA/emailAddress=BHOPALCA_CA@BHOPALCA_mail.com
                serial:BE:89:55:F3:65:28:17:9A

            Authority Information Access: 
                OCSP - URI:http://172.17.10.1/responderpath

    Signature Algorithm: sha256WithRSAEncryption
         82:d1:9a:59:c1:0c:4e:2a:fd:36:29:97:32:16:92:72:83:31:
         81:71:09:85:25:5b:37:96:c2:52:e3:49:4c:73:79:f6:67:ae:
         31:a4:af:d0:6c:c5:6a:ec:17:1e:56:ac:21:a3:c4:d9:fe:9e:
         5c:8c:de:bc:01:49:a4:b5:d1:5e:6c:31:6f:9b:0a:b1:f2:b8:
         2b:48:90:d2:3f:12:15:b5:fa:b2:13:8c:38:ae:62:36:76:95:
         28:66:18:89:1b:c7:bc:db:f0:89:ae:09:06:3b:c6:4b:71:96:
         f1:6b:d4:d4:02:9d:65:10:77:24:ab:00:1e:a9:5c:44:8f:02:
         9c:32:2a:36:47:da:2b:ce:41:c1:bc:c6:2b:83:d5:d4:d4:f7:
         b3:7e:f1:11:a1:06:7e:6c:62:85:0e:6e:b3:dd:a7:24:fe:37:
         16:db:ec:5f:36:60:e9:49:bc:f9:ee:84:18:d3:1e:bc:00:8c:
         70:7d:cf:00:ce:1e:0d:46:72:44:73:e7:2c:b1:e1:a4:cb:82:
         22:64:b5:be:f1:7e:ca:2c:e2:52:77:3b:52:3b:e6:ab:f5:cb:
         32:b6:0c:45:cc:e0:da:7b:45:f5:31:84:ad:94:93:f0:57:fd:
         f4:6c:e5:4d:13:db:43:de:16:2a:22:dc:a6:0a:4e:22:27:05:
         74:85:36:89
-----BEGIN CERTIFICATE-----
MIIEmDCCA4CgAwIBAgIGCgsMDQ4rMA0GCSqGSIb3DQEBCwUAMH0xFDASBgNVBAMU
C0JIT1BBTENBX0NBMQswCQYDVQQGEwJJTjEPMA0GA1UEChMGQ0lUUklYMQwwCgYD
VQQLEwNBTkcxCzAJBgNVBAgTAktBMSwwKgYJKoZIhvcNAQkBFh1CSE9QQUxDQV9D
QUBCSE9QQUxDQV9tYWlsLmNvbTAeFw0xNjA3MDgwNDMyNDBaFw0yNjA3MDYwNDMy
NDBaMHIxCzAJBgNVBAgTAktBMQswCQYDVQQGEwJJTjEcMBoGA1UEAxQTMTI5X0JI
T1BBTENBX3NlcnZlcjEnMCUGCSqGSIb3DQEJARYYMTI5X0JIT1BBTENBQHRlc3Rf
Y2EuY29tMQ8wDQYDVQQKEwZDSVRSSVgwggEiMA0GCSqGSIb3DQEBAQUAA4IBDwAw
ggEKAoIBAQCr4W2HB7FoAX5NRnabI6cAH+pTpFv2LxfKEgc/ve+3H9iitiJP4Gz2
aTQtYqOnrbreOuD7/3mT+X2y/840KAKV2M5nSi0PlZMJzzK59QwqZfShafN49OX/
gfRXsn0uao71oPWf1ACldYCGN88R5X30RFJK2wdT0mG+64zI/EuA0WvfP64gS2RU
SfA+WEL/PWc+UeD7UfNsNCvjS+CDIYwrouomiVw99CzUb/AcUjXVdNST2Kc7jndB
fW1o1w0NIKYEgzlsgu5K0tHDupD0OVWOA9mBpqHXQauY5R9A1kdNuBkLtfITwC1d
e3hIquR7eRU+3EZgejC6AkJxuv7WhpzRAgMBAAGjggEnMIIBIzARBglghkgBhvhC
AQEEBAMCBkAwHQYDVR0OBBYEFCoBsSc0Zq7oVUJEJIBFBU6alR51MIGwBgNVHSME
gagwgaWAFKZmDlkPPFwRNbKzmVmp06axXpXSoYGBpH8wfTEUMBIGA1UEAxQLQkhP
UEFMQ0FfQ0ExCzAJBgNVBAYTAklOMQ8wDQYDVQQKEwZDSVRSSVgxDDAKBgNVBAsT
A0FORzELMAkGA1UECBMCS0ExLDAqBgkqhkiG9w0BCQEWHUJIT1BBTENBX0NBQEJI
T1BBTENBX21haWwuY29tggkAvolV82UoF5owPAYIKwYBBQUHAQEEMDAuMCwGCCsG
AQUFBzABhiBodHRwOi8vMTcyLjE3LjEwLjEvcmVzcG9uZGVycGF0aDANBgkqhkiG
9w0BAQsFAAOCAQEAgtGaWcEMTir9NimXMhaScoMxgXEJhSVbN5bCUuNJTHN59meu
MaSv0GzFauwXHlasIaPE2f6eXIzevAFJpLXRXmwxb5sKsfK4K0iQ0j8SFbX6shOM
OK5iNnaVKGYYiRvHvNvwia4JBjvGS3GW8WvU1AKdZRB3JKsAHqlcRI8CnDIqNkfa
K85BwbzGK4PV1NT3s37xEaEGfmxihQ5us92nJP43FtvsXzZg6Um8+e6EGNMevACM
cH3PAM4eDUZyRHPnLLHhpMuCImS1vvF+yiziUnc7Ujvmq/XLMrYMRczg2ntF9TGE
rZST8Ff99GzlTRPbQ94WKiLcpgpOIicFdIU2iQ==
-----END CERTIFICATE-----
