Certificate:
    Data:
        Version: 3 (0x2)
        Serial Number: 11042563100203 (0xa0b0c0d0e2b)
    Signature Algorithm: sha256WithRSAEncryption
        Issuer: CN=SHILLONGCA_CA, C=IN, O=CITRIX, OU=ANG, ST=KA/emailAddress=SHILLONGCA_CA@SHILLONGCA_mail.com
        Validity
            Not Before: Jul  8 04:40:13 2016 GMT
            Not After : Jul  6 04:40:13 2026 GMT
        Subject: ST=KA, C=IN, CN=129_SHILLONGCA_server/emailAddress=129_SHILLONGCA@test_ca.com, O=CITRIX
        Subject Public Key Info:
            Public Key Algorithm: rsaEncryption
                Public-Key: (2048 bit)
                Modulus:
                    00:c5:cd:1c:05:e8:a9:dd:24:04:0a:d5:dd:9c:fe:
                    e5:4c:fc:70:f1:40:3e:5e:bf:bd:14:7b:4c:07:bb:
                    7a:5f:04:7c:cc:cf:22:da:fc:53:23:e3:c2:2e:2f:
                    f3:3f:ec:a9:8d:b5:1f:0c:c6:78:9a:0c:f7:1a:0a:
                    15:e0:25:69:83:da:39:ab:54:7d:43:0f:f0:25:ec:
                    cb:12:90:57:c3:d9:1d:be:f2:cc:5e:5f:b2:20:bc:
                    54:24:ab:72:f9:16:bc:cf:fc:da:c7:5c:2b:ae:0b:
                    29:11:df:17:ea:36:74:8d:51:bb:e6:63:55:c3:22:
                    3e:73:5b:e7:99:c6:9a:66:b0:db:42:ca:88:4a:99:
                    7d:90:cc:df:ef:89:46:ae:cd:d4:ed:22:29:d6:04:
                    f2:d5:68:02:b7:f2:75:e4:62:e5:99:40:f1:50:dd:
                    70:82:18:48:1b:f5:07:64:e0:d0:74:ac:9e:85:64:
                    37:e1:5c:2f:29:c4:ea:62:e0:6d:a5:e8:ed:17:a4:
                    14:d4:0a:4a:b6:9e:fe:84:f9:aa:96:73:2c:e9:05:
                    10:10:20:3f:76:36:c1:19:7a:f3:7c:94:f5:45:ab:
                    0a:3f:87:44:99:6c:a8:0d:7d:89:f9:90:ca:35:29:
                    3b:f7:f1:3b:18:54:2a:36:32:36:30:cf:b7:23:e8:
                    f1:39
                Exponent: 65537 (0x10001)
        X509v3 extensions:
            Netscape Cert Type: 
                SSL Server
            X509v3 Subject Key Identifier: 
                D0:95:FB:66:4A:C9:7D:D7:E4:8C:65:11:41:7C:A5:8F:E5:8B:5C:B2
            X509v3 Authority Key Identifier: 
                keyid:FA:E9:1F:A5:AF:8B:4E:18:FF:EF:B7:EA:8F:FB:98:BC:59:23:81:DF
                DirName:/CN=SHILLONGCA_CA/C=IN/O=CITRIX/OU=ANG/ST=KA/emailAddress=SHILLONGCA_CA@SHILLONGCA_mail.com
                serial:FB:D0:92:FD:A2:7C:35:0C

            Authority Information Access: 
                OCSP - URI:http://172.28.10.1/responderpath

    Signature Algorithm: sha256WithRSAEncryption
         0c:c7:03:1b:9e:0c:83:e0:c8:3e:2d:f8:d0:37:09:57:ec:3d:
         cb:af:5c:88:0a:d2:08:3c:bf:fc:81:bb:a5:c6:f3:61:83:ca:
         d5:3b:e0:c3:5f:0c:7b:fa:c8:7e:34:bb:28:c4:89:e3:9c:fc:
         7e:3b:6c:c1:d3:c7:b5:a3:42:b7:61:e5:e3:e9:a9:ab:93:0d:
         2e:95:7d:57:39:13:f6:ee:a4:71:32:47:b9:74:bf:1a:fc:9a:
         ed:76:ad:58:bb:e6:f2:ed:e8:89:87:4b:30:53:30:21:64:83:
         36:85:90:fb:dd:cf:ba:76:c2:97:25:52:6a:1a:3e:0a:de:59:
         28:85:14:8d:b1:2c:66:f5:5d:b1:e5:b0:2b:a0:04:87:9c:92:
         4d:b0:94:4b:08:59:d6:02:ae:9b:d0:71:a9:fa:0c:37:65:65:
         b6:7c:ee:7e:cb:fc:5e:95:ef:67:1b:c5:fd:ae:3d:71:cf:cd:
         bb:a6:d9:b2:14:1b:67:47:ab:f9:67:5a:5b:7b:dd:2c:5b:8c:
         6f:97:85:76:18:7a:21:17:f9:bc:2b:8f:46:5d:b6:ca:d1:be:
         a9:ea:6b:f2:5d:70:53:30:f1:41:47:1f:74:28:3b:85:a5:40:
         c9:6a:a0:37:b5:74:5b:46:71:92:49:85:d9:57:bf:30:cb:97:
         f5:40:a1:70
-----BEGIN CERTIFICATE-----
MIIEqzCCA5OgAwIBAgIGCgsMDQ4rMA0GCSqGSIb3DQEBCwUAMIGDMRYwFAYDVQQD
FA1TSElMTE9OR0NBX0NBMQswCQYDVQQGEwJJTjEPMA0GA1UEChMGQ0lUUklYMQww
CgYDVQQLEwNBTkcxCzAJBgNVBAgTAktBMTAwLgYJKoZIhvcNAQkBFiFTSElMTE9O
R0NBX0NBQFNISUxMT05HQ0FfbWFpbC5jb20wHhcNMTYwNzA4MDQ0MDEzWhcNMjYw
NzA2MDQ0MDEzWjB2MQswCQYDVQQIEwJLQTELMAkGA1UEBhMCSU4xHjAcBgNVBAMU
FTEyOV9TSElMTE9OR0NBX3NlcnZlcjEpMCcGCSqGSIb3DQEJARYaMTI5X1NISUxM
T05HQ0FAdGVzdF9jYS5jb20xDzANBgNVBAoTBkNJVFJJWDCCASIwDQYJKoZIhvcN
AQEBBQADggEPADCCAQoCggEBAMXNHAXoqd0kBArV3Zz+5Uz8cPFAPl6/vRR7TAe7
el8EfMzPItr8UyPjwi4v8z/sqY21HwzGeJoM9xoKFeAlaYPaOatUfUMP8CXsyxKQ
V8PZHb7yzF5fsiC8VCSrcvkWvM/82sdcK64LKRHfF+o2dI1Ru+ZjVcMiPnNb55nG
mmaw20LKiEqZfZDM3++JRq7N1O0iKdYE8tVoArfydeRi5ZlA8VDdcIIYSBv1B2Tg
0HSsnoVkN+FcLynE6mLgbaXo7RekFNQKSrae/oT5qpZzLOkFEBAgP3Y2wRl683yU
9UWrCj+HRJlsqA19ifmQyjUpO/fxOxhUKjYyNjDPtyPo8TkCAwEAAaOCAS8wggEr
MBEGCWCGSAGG+EIBAQQEAwIGQDAdBgNVHQ4EFgQU0JX7ZkrJfdfkjGURQXylj+WL
XLIwgbgGA1UdIwSBsDCBrYAU+ukfpa+LThj/77fqj/uYvFkjgd+hgYmkgYYwgYMx
FjAUBgNVBAMUDVNISUxMT05HQ0FfQ0ExCzAJBgNVBAYTAklOMQ8wDQYDVQQKEwZD
SVRSSVgxDDAKBgNVBAsTA0FORzELMAkGA1UECBMCS0ExMDAuBgkqhkiG9w0BCQEW
IVNISUxMT05HQ0FfQ0FAU0hJTExPTkdDQV9tYWlsLmNvbYIJAPvQkv2ifDUMMDwG
CCsGAQUFBwEBBDAwLjAsBggrBgEFBQcwAYYgaHR0cDovLzE3Mi4yOC4xMC4xL3Jl
c3BvbmRlcnBhdGgwDQYJKoZIhvcNAQELBQADggEBAAzHAxueDIPgyD4t+NA3CVfs
PcuvXIgK0gg8v/yBu6XG82GDytU74MNfDHv6yH40uyjEieOc/H47bMHTx7WjQrdh
5ePpqauTDS6VfVc5E/bupHEyR7l0vxr8mu12rVi75vLt6ImHSzBTMCFkgzaFkPvd
z7p2wpclUmoaPgreWSiFFI2xLGb1XbHlsCugBIeckk2wlEsIWdYCrpvQcan6DDdl
ZbZ87n7L/F6V72cbxf2uPXHPzbum2bIUG2dHq/lnWlt73SxbjG+XhXYYeiEX+bwr
j0ZdtsrRvqnqa/JdcFMw8UFHH3QoO4WlQMlqoDe1dFtGcZJJhdlXvzDLl/VAoXA=
-----END CERTIFICATE-----
