Certificate:
    Data:
        Version: 3 (0x2)
        Serial Number: 11042563100204 (0xa0b0c0d0e2c)
    Signature Algorithm: sha256WithRSAEncryption
        Issuer: CN=DELHICA_CA, C=IN, O=CITRIX, OU=ANG, ST=KA/emailAddress=DELHICA_CA@DELHICA_mail.com
        Validity
            Not Before: Jul  8 04:34:29 2016 GMT
            Not After : Jul  6 04:34:29 2026 GMT
        Subject: ST=KA, C=IN, CN=130_DELHICA_server/emailAddress=130_DELHICA@test_ca.com, O=CITRIX
        Subject Public Key Info:
            Public Key Algorithm: rsaEncryption
                Public-Key: (2048 bit)
                Modulus:
                    00:ba:ea:b1:f7:39:2f:4a:c2:c2:5d:4e:5a:cf:c0:
                    72:93:42:5c:fc:2b:43:22:a8:b9:6d:12:d4:4b:fe:
                    b1:d5:aa:53:3b:ab:39:a1:21:fb:45:2f:9a:68:1c:
                    32:e4:a7:38:f3:6a:44:56:64:75:65:38:50:5c:96:
                    43:32:9c:03:8f:bd:49:9f:1b:31:a4:5a:dc:12:6b:
                    2f:4a:6c:ba:af:57:7c:03:58:96:51:e9:47:e5:93:
                    0a:bc:55:8e:07:9d:6c:91:46:c3:8b:64:83:96:54:
                    3d:25:4c:16:82:03:4f:d8:d4:ca:46:1e:bf:d9:ad:
                    ee:3b:dd:9e:92:c1:db:a5:69:b0:d0:d4:f9:65:e3:
                    83:39:19:1b:ee:14:35:ec:bb:64:ea:39:79:3d:f5:
                    7d:c2:c2:3f:eb:90:3b:d6:95:84:9b:b5:2d:e8:f7:
                    7a:2d:54:39:2c:a8:06:22:7d:c9:7d:cb:9e:03:4e:
                    59:22:5c:c2:bb:4c:cd:d9:3f:e2:50:48:a0:c0:6f:
                    67:4e:14:a6:d8:94:4a:bf:94:b4:ab:6c:4a:8b:67:
                    fb:ad:7c:16:25:56:1d:07:bb:64:53:aa:46:85:c8:
                    e2:48:ad:58:96:d5:e6:05:3d:02:c1:d5:5b:51:6c:
                    8c:e6:92:eb:79:3d:32:9c:6a:08:b8:8c:68:47:5d:
                    67:a1
                Exponent: 65537 (0x10001)
        X509v3 extensions:
            Netscape Cert Type: 
                SSL Server
            X509v3 Subject Key Identifier: 
                30:BD:56:88:95:7C:2D:0E:27:04:8B:28:BC:75:BD:D3:43:9D:4E:CE
            X509v3 Authority Key Identifier: 
                keyid:D7:37:52:01:DC:2C:7A:57:85:CA:30:39:30:F0:D5:5D:5A:31:03:02
                DirName:/CN=DELHICA_CA/C=IN/O=CITRIX/OU=ANG/ST=KA/emailAddress=DELHICA_CA@DELHICA_mail.com
                serial:94:59:DC:51:4E:A5:13:27

            Authority Information Access: 
                OCSP - URI:http://172.20.10.1/responderpath

    Signature Algorithm: sha256WithRSAEncryption
         e4:71:93:f6:21:82:58:05:d0:01:35:03:46:b3:b3:8c:5b:8c:
         a3:ba:71:56:6d:4f:fb:28:75:b7:89:de:cf:ba:4a:d0:5f:f3:
         da:4f:f7:5e:5b:2d:6e:9b:a0:6a:f5:77:f5:1b:31:ad:c6:e4:
         1b:7a:5a:61:ef:b8:14:04:3f:1c:b5:c6:fd:74:89:56:c0:c8:
         44:92:05:2b:48:a4:c7:be:9f:9b:1a:82:37:cc:35:d6:b3:97:
         0d:d8:5c:65:7a:35:b3:20:b5:b3:84:c7:f1:f7:6a:76:46:d7:
         f2:6a:7a:c8:f0:47:7f:50:20:bb:e8:af:fa:e5:52:3d:71:ca:
         9d:3b:03:96:f7:01:4f:9a:ca:88:15:85:b2:00:02:e4:70:06:
         7f:73:48:56:ba:aa:4f:a2:73:a6:38:9a:06:1c:f4:6c:52:47:
         c2:91:30:91:0d:37:2e:8c:bc:42:ea:e9:9e:7c:a4:2a:13:1b:
         ae:1c:dd:a7:5f:6f:a4:29:07:85:8f:53:63:b9:e0:74:2d:30:
         d8:b3:66:dd:05:77:88:00:30:16:be:05:2f:5f:b1:60:3c:54:
         5e:79:c2:cc:4b:bf:9d:0b:6b:f8:30:d1:e2:73:13:f5:07:b4:
         5e:cb:11:d3:a1:48:9c:a6:b2:53:51:a5:9e:e0:69:35:a7:ed:
         23:c5:66:72
-----BEGIN CERTIFICATE-----
MIIEjzCCA3egAwIBAgIGCgsMDQ4sMA0GCSqGSIb3DQEBCwUAMHoxEzARBgNVBAMU
CkRFTEhJQ0FfQ0ExCzAJBgNVBAYTAklOMQ8wDQYDVQQKEwZDSVRSSVgxDDAKBgNV
BAsTA0FORzELMAkGA1UECBMCS0ExKjAoBgkqhkiG9w0BCQEWG0RFTEhJQ0FfQ0FA
REVMSElDQV9tYWlsLmNvbTAeFw0xNjA3MDgwNDM0MjlaFw0yNjA3MDYwNDM0Mjla
MHAxCzAJBgNVBAgTAktBMQswCQYDVQQGEwJJTjEbMBkGA1UEAxQSMTMwX0RFTEhJ
Q0Ffc2VydmVyMSYwJAYJKoZIhvcNAQkBFhcxMzBfREVMSElDQUB0ZXN0X2NhLmNv
bTEPMA0GA1UEChMGQ0lUUklYMIIBIjANBgkqhkiG9w0BAQEFAAOCAQ8AMIIBCgKC
AQEAuuqx9zkvSsLCXU5az8Byk0Jc/CtDIqi5bRLUS/6x1apTO6s5oSH7RS+aaBwy
5Kc482pEVmR1ZThQXJZDMpwDj71JnxsxpFrcEmsvSmy6r1d8A1iWUelH5ZMKvFWO
B51skUbDi2SDllQ9JUwWggNP2NTKRh6/2a3uO92eksHbpWmw0NT5ZeODORkb7hQ1
7Ltk6jl5PfV9wsI/65A71pWEm7Ut6Pd6LVQ5LKgGIn3JfcueA05ZIlzCu0zN2T/i
UEigwG9nThSm2JRKv5S0q2xKi2f7rXwWJVYdB7tkU6pGhcjiSK1YltXmBT0CwdVb
UWyM5pLreT0ynGoIuIxoR11noQIDAQABo4IBIzCCAR8wEQYJYIZIAYb4QgEBBAQD
AgZAMB0GA1UdDgQWBBQwvVaIlXwtDicEiyi8db3TQ51OzjCBrAYDVR0jBIGkMIGh
gBTXN1IB3Cx6V4XKMDkw8NVdWjEDAqF+pHwwejETMBEGA1UEAxQKREVMSElDQV9D
QTELMAkGA1UEBhMCSU4xDzANBgNVBAoTBkNJVFJJWDEMMAoGA1UECxMDQU5HMQsw
CQYDVQQIEwJLQTEqMCgGCSqGSIb3DQEJARYbREVMSElDQV9DQUBERUxISUNBX21h
aWwuY29tggkAlFncUU6lEycwPAYIKwYBBQUHAQEEMDAuMCwGCCsGAQUFBzABhiBo
dHRwOi8vMTcyLjIwLjEwLjEvcmVzcG9uZGVycGF0aDANBgkqhkiG9w0BAQsFAAOC
AQEA5HGT9iGCWAXQATUDRrOzjFuMo7pxVm1P+yh1t4nez7pK0F/z2k/3Xlstbpug
avV39RsxrcbkG3paYe+4FAQ/HLXG/XSJVsDIRJIFK0ikx76fmxqCN8w11rOXDdhc
ZXo1syC1s4TH8fdqdkbX8mp6yPBHf1Agu+iv+uVSPXHKnTsDlvcBT5rKiBWFsgAC
5HAGf3NIVrqqT6JzpjiaBhz0bFJHwpEwkQ03Loy8QurpnnykKhMbrhzdp19vpCkH
hY9TY7ngdC0w2LNm3QV3iAAwFr4FL1+xYDxUXnnCzEu/nQtr+DDR4nMT9Qe0XssR
06FInKayU1GlnuBpNaftI8Vmcg==
-----END CERTIFICATE-----
