Certificate:
    Data:
        Version: 3 (0x2)
        Serial Number: 11042563100204 (0xa0b0c0d0e2c)
    Signature Algorithm: sha256WithRSAEncryption
        Issuer: CN=BHOPALCA_CA, C=IN, O=CITRIX, OU=ANG, ST=KA/emailAddress=BHOPALCA_CA@BHOPALCA_mail.com
        Validity
            Not Before: Jul  8 04:32:40 2016 GMT
            Not After : Jul  6 04:32:40 2026 GMT
        Subject: ST=KA, C=IN, CN=130_BHOPALCA_server/emailAddress=130_BHOPALCA@test_ca.com, O=CITRIX
        Subject Public Key Info:
            Public Key Algorithm: rsaEncryption
                Public-Key: (2048 bit)
                Modulus:
                    00:d3:6a:0f:55:52:ad:89:78:c6:2c:e7:90:e1:55:
                    33:a2:5e:db:01:dc:52:a9:1f:77:72:78:11:b1:5e:
                    6b:21:67:78:8e:74:96:5d:22:8e:cd:a5:0f:d6:e8:
                    cc:55:7a:ba:af:3d:f2:35:d0:21:b4:49:34:38:ef:
                    21:0e:09:a8:ba:6a:58:6f:64:57:31:a6:fb:e8:f9:
                    2d:a1:c2:72:32:b5:dc:ef:a8:62:f0:e3:31:38:52:
                    e5:47:d4:56:b0:07:ba:80:dc:1b:36:7a:a1:50:d0:
                    53:d0:68:c5:3b:2c:26:94:b1:6b:b4:27:44:38:51:
                    37:64:ff:4b:cf:26:50:8c:a8:41:d2:ce:87:ab:ef:
                    f5:02:01:5c:fe:04:19:1c:ed:1c:b2:b1:9d:2d:ad:
                    21:e5:af:b8:61:b8:08:1d:d1:38:6c:46:1c:d9:7e:
                    99:a6:9c:b9:99:f8:1c:a3:4c:56:3c:20:10:05:df:
                    4f:5e:d6:f5:4a:86:5e:b2:79:30:6a:98:1a:8a:7f:
                    a8:aa:cf:55:be:3f:2e:c3:cf:05:65:25:d8:3d:ff:
                    aa:fc:08:2f:9e:39:53:f3:36:95:c3:28:d8:bd:18:
                    10:6e:46:65:a3:0a:61:1b:6c:4c:5e:a7:ef:e0:be:
                    69:35:88:6a:98:02:d1:7b:da:d5:bd:69:de:df:ac:
                    06:fb
                Exponent: 65537 (0x10001)
        X509v3 extensions:
            Netscape Cert Type: 
                SSL Server
            X509v3 Subject Key Identifier: 
                28:48:E1:43:9A:99:06:C7:04:70:D8:B1:6E:4A:C0:1E:7A:7A:FE:0C
            X509v3 Authority Key Identifier: 
                keyid:A6:66:0E:59:0F:3C:5C:11:35:B2:B3:99:59:A9:D3:A6:B1:5E:95:D2
                DirName:/CN=BHOPALCA_CA/C=IN/O=CITRIX/OU=ANG/ST=KA/emailAddress=BHOPALCA_CA@BHOPALCA_mail.com
                serial:BE:89:55:F3:65:28:17:9A

            Authority Information Access: 
                OCSP - URI:http://172.17.10.1/responderpath

    Signature Algorithm: sha256WithRSAEncryption
         03:1c:c1:78:d5:8d:cb:67:65:25:81:df:1d:b4:60:0d:85:a0:
         94:16:50:39:a0:da:98:c8:db:f2:d3:a1:e9:cb:c7:25:18:61:
         dd:1d:f8:1b:91:f9:4c:e1:d8:ef:98:a7:f4:31:54:01:95:91:
         aa:ea:dd:59:f7:f8:71:a9:38:a1:ac:bf:52:07:32:62:8a:a0:
         29:6f:35:2b:f3:9f:05:a7:2e:7f:8e:61:bb:62:24:3d:62:cf:
         a5:50:77:16:d5:26:81:34:bf:3b:55:e3:90:7e:d2:95:05:2c:
         6f:1b:5f:7f:e8:ad:27:04:5f:c7:58:62:62:49:ed:3c:56:1f:
         57:31:a1:28:ef:53:4e:04:a6:fd:73:9a:55:55:50:d5:1f:6d:
         bd:06:12:18:8c:77:13:22:c6:62:ee:9c:31:af:f8:ff:45:c4:
         53:3f:cf:f3:6b:6a:0f:85:96:f3:d4:12:68:b0:b8:cc:9f:7b:
         87:1e:da:a7:5c:12:f0:c7:a2:a4:11:0f:90:34:0e:a8:85:cb:
         62:92:51:6c:a7:99:38:08:99:fa:07:ca:73:d7:a2:57:80:60:
         65:9d:fb:10:4e:1e:b3:ad:a0:7f:05:98:b4:75:f2:ba:4e:f1:
         e8:3d:d4:b2:32:eb:a6:8f:61:be:15:97:4c:5b:a0:54:fb:eb:
         b7:89:21:0e
-----BEGIN CERTIFICATE-----
MIIEmDCCA4CgAwIBAgIGCgsMDQ4sMA0GCSqGSIb3DQEBCwUAMH0xFDASBgNVBAMU
C0JIT1BBTENBX0NBMQswCQYDVQQGEwJJTjEPMA0GA1UEChMGQ0lUUklYMQwwCgYD
VQQLEwNBTkcxCzAJBgNVBAgTAktBMSwwKgYJKoZIhvcNAQkBFh1CSE9QQUxDQV9D
QUBCSE9QQUxDQV9tYWlsLmNvbTAeFw0xNjA3MDgwNDMyNDBaFw0yNjA3MDYwNDMy
NDBaMHIxCzAJBgNVBAgTAktBMQswCQYDVQQGEwJJTjEcMBoGA1UEAxQTMTMwX0JI
T1BBTENBX3NlcnZlcjEnMCUGCSqGSIb3DQEJARYYMTMwX0JIT1BBTENBQHRlc3Rf
Y2EuY29tMQ8wDQYDVQQKEwZDSVRSSVgwggEiMA0GCSqGSIb3DQEBAQUAA4IBDwAw
ggEKAoIBAQDTag9VUq2JeMYs55DhVTOiXtsB3FKpH3dyeBGxXmshZ3iOdJZdIo7N
pQ/W6MxVerqvPfI10CG0STQ47yEOCai6alhvZFcxpvvo+S2hwnIytdzvqGLw4zE4
UuVH1FawB7qA3Bs2eqFQ0FPQaMU7LCaUsWu0J0Q4UTdk/0vPJlCMqEHSzoer7/UC
AVz+BBkc7RyysZ0trSHlr7hhuAgd0ThsRhzZfpmmnLmZ+ByjTFY8IBAF309e1vVK
hl6yeTBqmBqKf6iqz1W+Py7DzwVlJdg9/6r8CC+eOVPzNpXDKNi9GBBuRmWjCmEb
bExep+/gvmk1iGqYAtF72tW9ad7frAb7AgMBAAGjggEnMIIBIzARBglghkgBhvhC
AQEEBAMCBkAwHQYDVR0OBBYEFChI4UOamQbHBHDYsW5KwB56ev4MMIGwBgNVHSME
gagwgaWAFKZmDlkPPFwRNbKzmVmp06axXpXSoYGBpH8wfTEUMBIGA1UEAxQLQkhP
UEFMQ0FfQ0ExCzAJBgNVBAYTAklOMQ8wDQYDVQQKEwZDSVRSSVgxDDAKBgNVBAsT
A0FORzELMAkGA1UECBMCS0ExLDAqBgkqhkiG9w0BCQEWHUJIT1BBTENBX0NBQEJI
T1BBTENBX21haWwuY29tggkAvolV82UoF5owPAYIKwYBBQUHAQEEMDAuMCwGCCsG
AQUFBzABhiBodHRwOi8vMTcyLjE3LjEwLjEvcmVzcG9uZGVycGF0aDANBgkqhkiG
9w0BAQsFAAOCAQEAAxzBeNWNy2dlJYHfHbRgDYWglBZQOaDamMjb8tOh6cvHJRhh
3R34G5H5TOHY75in9DFUAZWRqurdWff4cak4oay/UgcyYoqgKW81K/OfBacuf45h
u2IkPWLPpVB3FtUmgTS/O1XjkH7SlQUsbxtff+itJwRfx1hiYkntPFYfVzGhKO9T
TgSm/XOaVVVQ1R9tvQYSGIx3EyLGYu6cMa/4/0XEUz/P82tqD4WW89QSaLC4zJ97
hx7ap1wS8MeipBEPkDQOqIXLYpJRbKeZOAiZ+gfKc9eiV4BgZZ37EE4es62gfwWY
tHXyuk7x6D3UsjLrpo9hvhWXTFugVPvrt4khDg==
-----END CERTIFICATE-----
