Certificate:
    Data:
        Version: 3 (0x2)
        Serial Number: 11042563100204 (0xa0b0c0d0e2c)
    Signature Algorithm: sha256WithRSAEncryption
        Issuer: CN=OOTYCA_CA, C=IN, O=CITRIX, OU=ANG, ST=KA/emailAddress=OOTYCA_CA@OOTYCA_mail.com
        Validity
            Not Before: Jul  8 04:37:11 2016 GMT
            Not After : Jul  6 04:37:11 2026 GMT
        Subject: ST=KA, C=IN, CN=130_OOTYCA_server/emailAddress=130_OOTYCA@test_ca.com, O=CITRIX
        Subject Public Key Info:
            Public Key Algorithm: rsaEncryption
                Public-Key: (2048 bit)
                Modulus:
                    00:ac:cd:30:ba:06:23:8f:6f:2d:0f:08:85:c7:14:
                    58:f4:45:bb:6e:7a:bc:d3:e9:ea:d1:df:e1:c2:f1:
                    97:e7:21:d1:f9:69:77:7a:a0:73:ab:14:6e:02:d0:
                    31:27:26:ef:9c:1f:16:1e:f8:9e:a1:c7:bc:57:19:
                    ed:26:f1:1a:94:f5:a8:6c:13:dc:06:4d:ed:22:3b:
                    4c:62:67:98:cd:b7:99:f0:55:59:6a:39:45:3d:36:
                    49:4b:18:04:21:39:a3:ce:d8:c1:b9:7c:88:60:2f:
                    da:ad:4a:b6:3f:04:4b:14:77:83:e1:0c:d2:56:d1:
                    54:bb:9a:50:73:e9:a1:c9:01:d8:4a:4a:27:dd:bf:
                    fb:34:be:b3:d7:c3:15:9a:b6:5f:84:ce:03:d2:32:
                    ba:09:a6:76:17:d6:83:af:b9:38:b3:6c:c6:76:5d:
                    6e:72:9e:2b:68:b8:0e:81:7a:2b:d3:98:80:a7:18:
                    aa:6a:fd:80:a0:77:7c:8e:8f:78:93:9c:b0:bf:cd:
                    f4:9b:9f:be:0d:4c:ba:de:34:db:9e:44:02:aa:e4:
                    16:46:25:d9:cf:ac:2e:55:16:17:35:e0:86:2e:5e:
                    f2:d8:a4:77:69:c6:b0:97:e4:b1:f2:c3:fe:f2:b4:
                    e8:af:b4:a8:a3:ad:d8:57:0a:be:83:6a:1b:be:4f:
                    e8:b5
                Exponent: 65537 (0x10001)
        X509v3 extensions:
            Netscape Cert Type: 
                SSL Server
            X509v3 Subject Key Identifier: 
                36:56:43:A5:70:BD:31:34:74:0B:0A:BF:26:D8:64:95:FF:06:BA:FC
            X509v3 Authority Key Identifier: 
                keyid:9E:A0:B1:FE:A8:B8:21:30:13:39:F2:C3:C1:A8:43:CB:5D:73:FC:B5
                DirName:/CN=OOTYCA_CA/C=IN/O=CITRIX/OU=ANG/ST=KA/emailAddress=OOTYCA_CA@OOTYCA_mail.com
                serial:AA:C2:AB:74:21:09:60:FF

            Authority Information Access: 
                OCSP - URI:http://172.25.10.1/responderpath

    Signature Algorithm: sha256WithRSAEncryption
         29:9e:3b:4c:db:b7:ed:24:1b:13:a8:f3:30:6a:5c:4e:8d:f6:
         dd:1f:97:75:9d:59:2c:85:f4:e8:ee:f7:27:5f:79:8c:d2:91:
         00:dc:bf:c4:43:df:6a:46:72:31:fd:a4:94:a1:b0:d9:54:76:
         f9:c4:bb:f9:03:0b:d1:96:3e:f3:0b:05:e5:cb:f9:76:1d:42:
         9d:17:9b:47:30:ae:29:5a:13:a4:66:22:31:e6:f7:f8:08:1b:
         1d:95:66:aa:40:a0:2f:69:bb:03:ce:c3:09:e2:bf:e9:25:01:
         eb:d1:0e:83:55:7e:a7:05:7e:82:88:48:28:93:4d:19:8c:06:
         d6:51:86:1e:c2:92:dd:2c:8f:68:d9:6b:1d:b8:83:a0:0f:fd:
         df:98:d0:18:8c:7d:22:2f:4b:7f:be:bf:c0:c8:cd:69:fc:d3:
         6a:6b:08:66:ad:41:50:e1:25:ae:fe:07:42:35:8f:8b:41:a2:
         4c:cd:73:80:15:21:66:92:2e:31:b5:8a:53:51:12:54:8c:2f:
         f0:96:ab:7c:a5:4a:19:3d:b7:48:3a:b4:33:46:72:8f:17:bf:
         e3:5c:3b:47:27:c5:de:fd:a2:68:9e:97:d1:07:f9:27:da:f5:
         99:7b:a7:21:b1:ae:e9:0c:ae:ba:76:74:79:a7:28:17:cd:9a:
         e4:78:08:2e
-----BEGIN CERTIFICATE-----
MIIEhzCCA2+gAwIBAgIGCgsMDQ4sMA0GCSqGSIb3DQEBCwUAMHcxEjAQBgNVBAMU
CU9PVFlDQV9DQTELMAkGA1UEBhMCSU4xDzANBgNVBAoTBkNJVFJJWDEMMAoGA1UE
CxMDQU5HMQswCQYDVQQIEwJLQTEoMCYGCSqGSIb3DQEJARYZT09UWUNBX0NBQE9P
VFlDQV9tYWlsLmNvbTAeFw0xNjA3MDgwNDM3MTFaFw0yNjA3MDYwNDM3MTFaMG4x
CzAJBgNVBAgTAktBMQswCQYDVQQGEwJJTjEaMBgGA1UEAxQRMTMwX09PVFlDQV9z
ZXJ2ZXIxJTAjBgkqhkiG9w0BCQEWFjEzMF9PT1RZQ0FAdGVzdF9jYS5jb20xDzAN
BgNVBAoTBkNJVFJJWDCCASIwDQYJKoZIhvcNAQEBBQADggEPADCCAQoCggEBAKzN
MLoGI49vLQ8IhccUWPRFu256vNPp6tHf4cLxl+ch0flpd3qgc6sUbgLQMScm75wf
Fh74nqHHvFcZ7SbxGpT1qGwT3AZN7SI7TGJnmM23mfBVWWo5RT02SUsYBCE5o87Y
wbl8iGAv2q1Ktj8ESxR3g+EM0lbRVLuaUHPpockB2EpKJ92/+zS+s9fDFZq2X4TO
A9IyugmmdhfWg6+5OLNsxnZdbnKeK2i4DoF6K9OYgKcYqmr9gKB3fI6PeJOcsL/N
9Jufvg1Mut40255EAqrkFkYl2c+sLlUWFzXghi5e8tikd2nGsJfksfLD/vK06K+0
qKOt2FcKvoNqG75P6LUCAwEAAaOCASAwggEcMBEGCWCGSAGG+EIBAQQEAwIGQDAd
BgNVHQ4EFgQUNlZDpXC9MTR0Cwq/Jthklf8GuvwwgakGA1UdIwSBoTCBnoAUnqCx
/qi4ITATOfLDwahDy11z/LWhe6R5MHcxEjAQBgNVBAMUCU9PVFlDQV9DQTELMAkG
A1UEBhMCSU4xDzANBgNVBAoTBkNJVFJJWDEMMAoGA1UECxMDQU5HMQswCQYDVQQI
EwJLQTEoMCYGCSqGSIb3DQEJARYZT09UWUNBX0NBQE9PVFlDQV9tYWlsLmNvbYIJ
AKrCq3QhCWD/MDwGCCsGAQUFBwEBBDAwLjAsBggrBgEFBQcwAYYgaHR0cDovLzE3
Mi4yNS4xMC4xL3Jlc3BvbmRlcnBhdGgwDQYJKoZIhvcNAQELBQADggEBACmeO0zb
t+0kGxOo8zBqXE6N9t0fl3WdWSyF9Oju9ydfeYzSkQDcv8RD32pGcjH9pJShsNlU
dvnEu/kDC9GWPvMLBeXL+XYdQp0Xm0cwrilaE6RmIjHm9/gIGx2VZqpAoC9puwPO
wwniv+klAevRDoNVfqcFfoKISCiTTRmMBtZRhh7Ckt0sj2jZax24g6AP/d+Y0BiM
fSIvS3++v8DIzWn802prCGatQVDhJa7+B0I1j4tBokzNc4AVIWaSLjG1ilNRElSM
L/CWq3ylShk9t0g6tDNGco8Xv+NcO0cnxd79omiel9EH+Sfa9Zl7pyGxrukMrrp2
dHmnKBfNmuR4CC4=
-----END CERTIFICATE-----
