Certificate:
    Data:
        Version: 3 (0x2)
        Serial Number: 11042563100204 (0xa0b0c0d0e2c)
    Signature Algorithm: sha256WithRSAEncryption
        Issuer: CN=PATNACA_CA, C=IN, O=CITRIX, OU=ANG, ST=KA/emailAddress=PATNACA_CA@PATNACA_mail.com
        Validity
            Not Before: Jul  8 04:38:29 2016 GMT
            Not After : Jul  6 04:38:29 2026 GMT
        Subject: ST=KA, C=IN, CN=130_PATNACA_server/emailAddress=130_PATNACA@test_ca.com, O=CITRIX
        Subject Public Key Info:
            Public Key Algorithm: rsaEncryption
                Public-Key: (2048 bit)
                Modulus:
                    00:d8:f2:50:db:de:97:1b:37:43:ff:38:bb:5f:00:
                    f3:f1:ae:72:e6:ab:e2:7b:5b:13:f8:d8:be:1d:0d:
                    39:2a:c8:62:49:06:74:4f:03:e9:44:a7:4f:64:c3:
                    40:33:9d:67:5d:b3:af:6d:d2:ce:cb:6a:74:7d:cc:
                    f8:d8:a5:3c:5e:82:35:1a:a8:59:e2:60:4a:4f:08:
                    84:8d:43:f3:23:84:78:8a:07:86:25:d3:b2:6b:93:
                    58:9f:9a:39:9f:b6:ed:ff:6a:45:07:92:2c:e5:35:
                    23:fe:77:04:c1:fd:d2:8f:ae:b3:fe:f9:39:d9:37:
                    e0:d6:c7:0a:04:41:dc:95:68:93:8b:fa:60:5b:e9:
                    fc:2a:ed:78:7f:15:b3:b8:6a:4d:64:49:e8:b0:ad:
                    a7:d7:71:3b:48:87:e9:b3:08:66:67:75:1a:b3:da:
                    68:dc:38:b7:2a:21:db:4d:7c:42:f7:85:f7:fa:1a:
                    1f:84:ff:2a:a5:cc:0d:3c:50:2b:b7:f4:a8:8c:09:
                    49:61:f3:11:7e:91:eb:d0:0e:3a:78:ed:67:d3:6b:
                    62:a5:56:bb:56:a6:9d:3b:ca:a7:4d:9f:0f:bf:5f:
                    62:84:6e:b2:36:1f:f4:63:ae:ae:43:65:14:2a:10:
                    a4:91:fb:9d:5b:6d:f4:63:ff:58:7d:d5:af:65:54:
                    83:55
                Exponent: 65537 (0x10001)
        X509v3 extensions:
            Netscape Cert Type: 
                SSL Server
            X509v3 Subject Key Identifier: 
                52:F8:DA:83:91:A2:BB:DC:12:5D:1C:FD:D1:53:9A:B8:5A:75:4E:BA
            X509v3 Authority Key Identifier: 
                keyid:FF:DF:C4:8D:AF:64:E1:E3:17:FA:96:EE:F1:75:A7:ED:A7:C3:91:B8
                DirName:/CN=PATNACA_CA/C=IN/O=CITRIX/OU=ANG/ST=KA/emailAddress=PATNACA_CA@PATNACA_mail.com
                serial:9F:2E:15:76:F0:BD:C1:6F

            Authority Information Access: 
                OCSP - URI:http://172.26.10.1/responderpath

    Signature Algorithm: sha256WithRSAEncryption
         37:0e:02:89:41:f3:36:c6:1c:d7:5b:d2:62:83:cf:c9:d3:12:
         32:b0:4d:c5:c8:e4:6d:87:41:50:a1:fc:37:b3:50:8c:8e:1a:
         53:4e:fe:21:de:47:a1:42:ae:2c:b5:c3:67:0c:73:cc:d5:ba:
         a3:67:79:27:6a:d1:5c:3f:3c:02:00:5c:c5:26:95:03:81:6c:
         cb:3a:8c:d9:2b:1e:6e:87:c9:98:a1:e1:c1:ed:81:d6:51:e3:
         36:19:c4:14:fc:ca:ed:45:53:17:19:a7:0e:bb:87:8c:d6:2b:
         ce:bc:af:55:18:75:7a:43:bc:30:0a:3f:89:4c:4f:16:7e:7b:
         03:4f:49:28:e6:a8:d7:a9:7e:eb:08:f0:68:9e:ed:33:51:09:
         b7:fb:bb:dc:bb:7e:49:d7:c5:1c:de:c3:47:3a:48:57:72:c0:
         bf:cf:99:b6:8e:60:cc:42:ec:62:78:2a:ba:13:d7:98:0f:f1:
         17:52:5d:4a:3a:a9:a2:44:3d:76:ae:1c:45:34:2a:fb:fe:bc:
         42:ab:0a:e8:37:dc:fc:bb:cf:77:06:4f:76:7c:38:f0:ce:47:
         b9:b6:07:5e:09:95:09:38:dd:41:d9:b0:0c:6d:03:16:6c:e5:
         aa:50:4f:a6:b6:cd:67:40:d2:bc:3a:bd:3e:97:74:35:55:ae:
         48:03:a2:bd
-----BEGIN CERTIFICATE-----
MIIEjzCCA3egAwIBAgIGCgsMDQ4sMA0GCSqGSIb3DQEBCwUAMHoxEzARBgNVBAMU
ClBBVE5BQ0FfQ0ExCzAJBgNVBAYTAklOMQ8wDQYDVQQKEwZDSVRSSVgxDDAKBgNV
BAsTA0FORzELMAkGA1UECBMCS0ExKjAoBgkqhkiG9w0BCQEWG1BBVE5BQ0FfQ0FA
UEFUTkFDQV9tYWlsLmNvbTAeFw0xNjA3MDgwNDM4MjlaFw0yNjA3MDYwNDM4Mjla
MHAxCzAJBgNVBAgTAktBMQswCQYDVQQGEwJJTjEbMBkGA1UEAxQSMTMwX1BBVE5B
Q0Ffc2VydmVyMSYwJAYJKoZIhvcNAQkBFhcxMzBfUEFUTkFDQUB0ZXN0X2NhLmNv
bTEPMA0GA1UEChMGQ0lUUklYMIIBIjANBgkqhkiG9w0BAQEFAAOCAQ8AMIIBCgKC
AQEA2PJQ296XGzdD/zi7XwDz8a5y5qvie1sT+Ni+HQ05KshiSQZ0TwPpRKdPZMNA
M51nXbOvbdLOy2p0fcz42KU8XoI1GqhZ4mBKTwiEjUPzI4R4igeGJdOya5NYn5o5
n7bt/2pFB5Is5TUj/ncEwf3Sj66z/vk52Tfg1scKBEHclWiTi/pgW+n8Ku14fxWz
uGpNZEnosK2n13E7SIfpswhmZ3Uas9po3Di3KiHbTXxC94X3+hofhP8qpcwNPFAr
t/SojAlJYfMRfpHr0A46eO1n02tipVa7VqadO8qnTZ8Pv19ihG6yNh/0Y66uQ2UU
KhCkkfudW230Y/9YfdWvZVSDVQIDAQABo4IBIzCCAR8wEQYJYIZIAYb4QgEBBAQD
AgZAMB0GA1UdDgQWBBRS+NqDkaK73BJdHP3RU5q4WnVOujCBrAYDVR0jBIGkMIGh
gBT/38SNr2Th4xf6lu7xdaftp8ORuKF+pHwwejETMBEGA1UEAxQKUEFUTkFDQV9D
QTELMAkGA1UEBhMCSU4xDzANBgNVBAoTBkNJVFJJWDEMMAoGA1UECxMDQU5HMQsw
CQYDVQQIEwJLQTEqMCgGCSqGSIb3DQEJARYbUEFUTkFDQV9DQUBQQVROQUNBX21h
aWwuY29tggkAny4VdvC9wW8wPAYIKwYBBQUHAQEEMDAuMCwGCCsGAQUFBzABhiBo
dHRwOi8vMTcyLjI2LjEwLjEvcmVzcG9uZGVycGF0aDANBgkqhkiG9w0BAQsFAAOC
AQEANw4CiUHzNsYc11vSYoPPydMSMrBNxcjkbYdBUKH8N7NQjI4aU07+Id5HoUKu
LLXDZwxzzNW6o2d5J2rRXD88AgBcxSaVA4FsyzqM2SsebofJmKHhwe2B1lHjNhnE
FPzK7UVTFxmnDruHjNYrzryvVRh1ekO8MAo/iUxPFn57A09JKOao16l+6wjwaJ7t
M1EJt/u73Lt+SdfFHN7DRzpIV3LAv8+Zto5gzELsYngquhPXmA/xF1JdSjqpokQ9
dq4cRTQq+/68QqsK6Dfc/LvPdwZPdnw48M5HubYHXgmVCTjdQdmwDG0DFmzlqlBP
prbNZ0DSvDq9Ppd0NVWuSAOivQ==
-----END CERTIFICATE-----
