Certificate:
    Data:
        Version: 3 (0x2)
        Serial Number: 11042563100204 (0xa0b0c0d0e2c)
    Signature Algorithm: sha256WithRSAEncryption
        Issuer: CN=CALCUTTACA_CA, C=IN, O=CITRIX, OU=ANG, ST=KA/emailAddress=CALCUTTACA_CA@CALCUTTACA_mail.com
        Validity
            Not Before: Jul  8 04:33:11 2016 GMT
            Not After : Jul  6 04:33:11 2026 GMT
        Subject: ST=KA, C=IN, CN=130_CALCUTTACA_server/emailAddress=130_CALCUTTACA@test_ca.com, O=CITRIX
        Subject Public Key Info:
            Public Key Algorithm: rsaEncryption
                Public-Key: (2048 bit)
                Modulus:
                    00:bb:df:7b:ca:6f:8b:91:9c:21:02:f2:14:9c:52:
                    a3:97:ef:3b:d7:9e:00:ab:77:32:d0:00:10:a0:6a:
                    84:4c:19:0d:62:af:7e:ed:94:c8:8a:e7:78:e0:f9:
                    bf:6b:53:84:9f:68:69:3b:e7:e7:79:29:e3:ba:ad:
                    bb:e4:b2:a2:53:c1:e8:8c:35:45:dd:35:8c:22:64:
                    78:c7:15:7a:37:68:d9:93:eb:2a:ae:a2:01:73:c9:
                    a0:32:95:32:3a:7d:a4:bf:bf:f4:1a:f4:35:a3:29:
                    2e:72:de:af:21:43:35:a6:69:bc:27:60:88:6d:4d:
                    24:24:93:cb:d5:8a:eb:f2:68:39:bf:68:8c:4f:c5:
                    dd:c9:96:2e:25:8f:79:8d:b2:af:14:fa:de:e7:b2:
                    f2:23:3a:63:7c:ab:96:83:ce:b6:51:a0:6e:70:84:
                    87:1b:a6:36:76:e8:84:07:6f:a6:9b:8f:e8:be:bc:
                    c1:20:fc:df:0e:95:d2:85:8b:cf:8c:71:09:d3:21:
                    bd:39:22:dc:93:95:84:68:d6:e8:a6:49:97:af:93:
                    ed:d9:7c:63:3f:c9:b4:6b:08:e0:d3:38:0a:e2:e8:
                    f2:90:52:e4:60:8f:b3:a2:f0:c1:2c:9a:b2:62:5b:
                    65:46:75:6b:95:3f:9e:97:13:18:ca:e5:87:82:55:
                    ec:c5
                Exponent: 65537 (0x10001)
        X509v3 extensions:
            Netscape Cert Type: 
                SSL Server
            X509v3 Subject Key Identifier: 
                1A:26:C2:BE:D2:94:13:BF:49:2C:89:91:B3:76:FF:4F:ED:A5:B7:E0
            X509v3 Authority Key Identifier: 
                keyid:37:2E:7B:27:46:4B:CF:47:10:AC:2B:2E:BA:D0:F3:66:75:EB:52:75
                DirName:/CN=CALCUTTACA_CA/C=IN/O=CITRIX/OU=ANG/ST=KA/emailAddress=CALCUTTACA_CA@CALCUTTACA_mail.com
                serial:A5:C6:47:0E:E6:06:37:18

            Authority Information Access: 
                OCSP - URI:http://172.18.10.1/responderpath

    Signature Algorithm: sha256WithRSAEncryption
         82:75:c1:8e:58:20:28:f5:11:68:49:06:8c:74:5b:d1:c6:d0:
         ec:fa:1f:12:b3:9f:62:ca:2b:c5:6d:f6:4e:70:b7:b6:36:f3:
         cd:a4:2a:5c:9f:9f:1a:dc:24:a8:94:e4:28:20:16:3f:86:6f:
         ed:c0:bc:d7:43:25:db:dd:48:d0:ec:5c:04:de:a0:9a:b3:bc:
         28:3c:1b:80:c5:8e:d6:76:7c:8e:aa:85:be:b6:6c:d2:53:c3:
         91:5b:db:48:0c:4c:0b:32:50:2a:2e:fc:7d:51:99:97:d3:19:
         61:01:c6:89:71:4f:d9:a3:39:aa:c0:09:43:0b:f9:4e:8b:35:
         c2:05:a5:68:84:01:1e:81:19:41:aa:ae:4e:08:d1:1c:5b:9c:
         c4:c0:a3:b2:33:61:d3:52:17:a3:e2:d4:25:9b:d6:81:05:bc:
         e0:9e:e8:49:92:8d:23:dc:79:47:0e:81:9b:b7:e7:ba:a9:a7:
         09:ed:7d:d1:3b:8d:a8:16:44:ef:03:a9:09:76:fd:f8:6e:ea:
         e2:3d:b5:ab:dd:6f:7e:c4:cc:98:75:bb:21:8b:ae:2f:26:5c:
         23:31:76:d5:db:63:02:07:0f:e7:5b:44:0a:aa:b2:40:4c:0c:
         51:63:4b:85:0a:8d:65:11:7f:39:16:60:7c:c1:d8:41:70:73:
         fd:69:d1:cf
-----BEGIN CERTIFICATE-----
MIIEqzCCA5OgAwIBAgIGCgsMDQ4sMA0GCSqGSIb3DQEBCwUAMIGDMRYwFAYDVQQD
FA1DQUxDVVRUQUNBX0NBMQswCQYDVQQGEwJJTjEPMA0GA1UEChMGQ0lUUklYMQww
CgYDVQQLEwNBTkcxCzAJBgNVBAgTAktBMTAwLgYJKoZIhvcNAQkBFiFDQUxDVVRU
QUNBX0NBQENBTENVVFRBQ0FfbWFpbC5jb20wHhcNMTYwNzA4MDQzMzExWhcNMjYw
NzA2MDQzMzExWjB2MQswCQYDVQQIEwJLQTELMAkGA1UEBhMCSU4xHjAcBgNVBAMU
FTEzMF9DQUxDVVRUQUNBX3NlcnZlcjEpMCcGCSqGSIb3DQEJARYaMTMwX0NBTENV
VFRBQ0FAdGVzdF9jYS5jb20xDzANBgNVBAoTBkNJVFJJWDCCASIwDQYJKoZIhvcN
AQEBBQADggEPADCCAQoCggEBALvfe8pvi5GcIQLyFJxSo5fvO9eeAKt3MtAAEKBq
hEwZDWKvfu2UyIrneOD5v2tThJ9oaTvn53kp47qtu+SyolPB6Iw1Rd01jCJkeMcV
ejdo2ZPrKq6iAXPJoDKVMjp9pL+/9Br0NaMpLnLeryFDNaZpvCdgiG1NJCSTy9WK
6/JoOb9ojE/F3cmWLiWPeY2yrxT63uey8iM6Y3yrloPOtlGgbnCEhxumNnbohAdv
ppuP6L68wSD83w6V0oWLz4xxCdMhvTki3JOVhGjW6KZJl6+T7dl8Yz/JtGsI4NM4
CuLo8pBS5GCPs6LwwSyasmJbZUZ1a5U/npcTGMrlh4JV7MUCAwEAAaOCAS8wggEr
MBEGCWCGSAGG+EIBAQQEAwIGQDAdBgNVHQ4EFgQUGibCvtKUE79JLImRs3b/T+2l
t+AwgbgGA1UdIwSBsDCBrYAUNy57J0ZLz0cQrCsuutDzZnXrUnWhgYmkgYYwgYMx
FjAUBgNVBAMUDUNBTENVVFRBQ0FfQ0ExCzAJBgNVBAYTAklOMQ8wDQYDVQQKEwZD
SVRSSVgxDDAKBgNVBAsTA0FORzELMAkGA1UECBMCS0ExMDAuBgkqhkiG9w0BCQEW
IUNBTENVVFRBQ0FfQ0FAQ0FMQ1VUVEFDQV9tYWlsLmNvbYIJAKXGRw7mBjcYMDwG
CCsGAQUFBwEBBDAwLjAsBggrBgEFBQcwAYYgaHR0cDovLzE3Mi4xOC4xMC4xL3Jl
c3BvbmRlcnBhdGgwDQYJKoZIhvcNAQELBQADggEBAIJ1wY5YICj1EWhJBox0W9HG
0Oz6HxKzn2LKK8Vt9k5wt7Y2882kKlyfnxrcJKiU5CggFj+Gb+3AvNdDJdvdSNDs
XATeoJqzvCg8G4DFjtZ2fI6qhb62bNJTw5Fb20gMTAsyUCou/H1RmZfTGWEBxolx
T9mjOarACUML+U6LNcIFpWiEAR6BGUGqrk4I0RxbnMTAo7IzYdNSF6Pi1CWb1oEF
vOCe6EmSjSPceUcOgZu357qppwntfdE7jagWRO8DqQl2/fhu6uI9tavdb37EzJh1
uyGLri8mXCMxdtXbYwIHD+dbRAqqskBMDFFjS4UKjWURfzkWYHzB2EFwc/1p0c8=
-----END CERTIFICATE-----
