Certificate:
    Data:
        Version: 3 (0x2)
        Serial Number: 11042563100204 (0xa0b0c0d0e2c)
    Signature Algorithm: sha256WithRSAEncryption
        Issuer: CN=GOACA_CA, C=IN, O=CITRIX, OU=ANG, ST=KA/emailAddress=GOACA_CA@GOACA_mail.com
        Validity
            Not Before: Jul  8 04:35:01 2016 GMT
            Not After : Jul  6 04:35:01 2026 GMT
        Subject: ST=KA, C=IN, CN=130_GOACA_server/emailAddress=130_GOACA@test_ca.com, O=CITRIX
        Subject Public Key Info:
            Public Key Algorithm: rsaEncryption
                Public-Key: (2048 bit)
                Modulus:
                    00:f2:71:1e:85:c0:08:66:b2:42:f0:b0:07:07:f3:
                    e3:47:25:46:03:2f:3a:8e:41:eb:66:aa:75:17:90:
                    9d:26:1f:f1:1f:46:ab:1f:5c:66:6f:16:9a:d1:4f:
                    d8:ac:93:9d:fe:ac:f3:ae:3b:6b:52:a0:e5:5f:5d:
                    09:f7:30:4d:c3:db:ad:d3:60:61:ed:9b:f9:6e:43:
                    30:8e:e8:25:0a:e6:b1:86:3c:e1:f5:60:06:02:bd:
                    45:a9:17:81:88:20:74:ea:43:f4:3d:b5:c9:80:e9:
                    de:a6:6b:b3:d0:5e:bd:9f:1e:5f:87:98:9d:4d:36:
                    a2:68:11:7c:b2:34:33:c4:f9:4d:8f:89:b1:ca:4c:
                    c2:00:9f:7e:a2:92:76:80:1e:15:6a:07:87:c5:62:
                    f2:ef:54:e8:f5:aa:90:22:64:43:23:05:56:c7:66:
                    fe:ff:ef:68:d6:ae:bc:d8:29:0d:7e:18:93:b9:f9:
                    3a:f0:13:4e:dc:6b:c2:bb:d5:53:b3:d2:2a:8a:81:
                    6b:1c:77:74:bf:96:7e:6d:e1:67:35:ae:86:28:1a:
                    22:ed:4f:51:ef:a3:7b:42:07:ef:8e:54:75:67:f0:
                    b6:e8:75:70:0b:15:1f:68:ab:c1:4b:75:8a:6b:a5:
                    40:fb:d9:d0:d3:61:0f:98:77:fa:8f:fe:51:8b:ef:
                    c3:8f
                Exponent: 65537 (0x10001)
        X509v3 extensions:
            Netscape Cert Type: 
                SSL Server
            X509v3 Subject Key Identifier: 
                1E:3E:65:64:B8:73:FD:73:B7:9B:9E:98:94:E5:B9:10:64:BE:77:7B
            X509v3 Authority Key Identifier: 
                keyid:81:03:00:D4:DC:70:D9:A7:03:08:1E:DC:9B:4C:AC:E6:59:CD:39:68
                DirName:/CN=GOACA_CA/C=IN/O=CITRIX/OU=ANG/ST=KA/emailAddress=GOACA_CA@GOACA_mail.com
                serial:FC:8B:0A:90:01:17:5F:1C

            Authority Information Access: 
                OCSP - URI:http://172.21.10.1/responderpath

    Signature Algorithm: sha256WithRSAEncryption
         00:2c:ce:80:a1:21:ba:98:2a:17:d6:98:cd:5e:b6:69:ba:29:
         98:2d:0f:02:2a:f2:25:5b:9c:93:2b:58:2e:35:77:5c:3a:ff:
         5a:0d:30:0a:ca:d9:41:fd:70:0c:3e:0c:4c:25:a6:01:10:46:
         0f:06:3f:1d:b9:69:74:2e:9a:eb:08:9e:bb:4d:21:32:da:c7:
         7a:56:a8:76:3b:5f:d3:4b:2a:b0:47:c1:75:19:fa:0f:f7:70:
         02:a3:48:75:f4:08:e7:98:47:5f:ef:46:82:46:e1:c9:c3:51:
         b4:af:ae:c3:2d:ec:09:2f:f7:82:75:05:d3:d7:8b:59:46:d1:
         bf:d8:0b:2e:38:33:61:22:0f:c3:20:27:aa:bf:fc:50:0b:a3:
         69:57:80:a4:86:56:81:ee:c2:53:f6:99:c8:6a:ef:d6:5a:3d:
         3e:87:c5:c4:1a:03:4c:12:79:d7:75:bf:48:c4:f0:17:d4:bf:
         6b:a8:5f:b8:15:1d:77:cb:c1:17:5b:07:23:b1:ae:6f:42:d1:
         6e:01:ac:38:67:a0:98:6d:dc:da:81:a4:c6:01:89:89:85:b1:
         b6:8e:df:ae:ee:1d:54:39:c3:cd:18:34:91:ce:f7:ce:06:b7:
         90:03:8a:18:cc:d3:bf:bf:9b:95:54:7b:d0:93:5e:d8:96:ca:
         89:0a:c6:75
-----BEGIN CERTIFICATE-----
MIIEfzCCA2egAwIBAgIGCgsMDQ4sMA0GCSqGSIb3DQEBCwUAMHQxETAPBgNVBAMU
CEdPQUNBX0NBMQswCQYDVQQGEwJJTjEPMA0GA1UEChMGQ0lUUklYMQwwCgYDVQQL
EwNBTkcxCzAJBgNVBAgTAktBMSYwJAYJKoZIhvcNAQkBFhdHT0FDQV9DQUBHT0FD
QV9tYWlsLmNvbTAeFw0xNjA3MDgwNDM1MDFaFw0yNjA3MDYwNDM1MDFaMGwxCzAJ
BgNVBAgTAktBMQswCQYDVQQGEwJJTjEZMBcGA1UEAxQQMTMwX0dPQUNBX3NlcnZl
cjEkMCIGCSqGSIb3DQEJARYVMTMwX0dPQUNBQHRlc3RfY2EuY29tMQ8wDQYDVQQK
EwZDSVRSSVgwggEiMA0GCSqGSIb3DQEBAQUAA4IBDwAwggEKAoIBAQDycR6FwAhm
skLwsAcH8+NHJUYDLzqOQetmqnUXkJ0mH/EfRqsfXGZvFprRT9isk53+rPOuO2tS
oOVfXQn3ME3D263TYGHtm/luQzCO6CUK5rGGPOH1YAYCvUWpF4GIIHTqQ/Q9tcmA
6d6ma7PQXr2fHl+HmJ1NNqJoEXyyNDPE+U2PibHKTMIAn36iknaAHhVqB4fFYvLv
VOj1qpAiZEMjBVbHZv7/72jWrrzYKQ1+GJO5+TrwE07ca8K71VOz0iqKgWscd3S/
ln5t4Wc1roYoGiLtT1Hvo3tCB++OVHVn8LbodXALFR9oq8FLdYprpUD72dDTYQ+Y
d/qP/lGL78OPAgMBAAGjggEdMIIBGTARBglghkgBhvhCAQEEBAMCBkAwHQYDVR0O
BBYEFB4+ZWS4c/1zt5uemJTluRBkvnd7MIGmBgNVHSMEgZ4wgZuAFIEDANTccNmn
Awge3JtMrOZZzTlooXikdjB0MREwDwYDVQQDFAhHT0FDQV9DQTELMAkGA1UEBhMC
SU4xDzANBgNVBAoTBkNJVFJJWDEMMAoGA1UECxMDQU5HMQswCQYDVQQIEwJLQTEm
MCQGCSqGSIb3DQEJARYXR09BQ0FfQ0FAR09BQ0FfbWFpbC5jb22CCQD8iwqQARdf
HDA8BggrBgEFBQcBAQQwMC4wLAYIKwYBBQUHMAGGIGh0dHA6Ly8xNzIuMjEuMTAu
MS9yZXNwb25kZXJwYXRoMA0GCSqGSIb3DQEBCwUAA4IBAQAALM6AoSG6mCoX1pjN
XrZpuimYLQ8CKvIlW5yTK1guNXdcOv9aDTAKytlB/XAMPgxMJaYBEEYPBj8duWl0
LprrCJ67TSEy2sd6Vqh2O1/TSyqwR8F1GfoP93ACo0h19AjnmEdf70aCRuHJw1G0
r67DLewJL/eCdQXT14tZRtG/2AsuODNhIg/DICeqv/xQC6NpV4CkhlaB7sJT9pnI
au/WWj0+h8XEGgNMEnnXdb9IxPAX1L9rqF+4FR13y8EXWwcjsa5vQtFuAaw4Z6CY
bdzagaTGAYmJhbG2jt+u7h1UOcPNGDSRzvfOBreQA4oYzNO/v5uVVHvQk17YlsqJ
CsZ1
-----END CERTIFICATE-----
