Certificate:
    Data:
        Version: 3 (0x2)
        Serial Number: 11042563100205 (0xa0b0c0d0e2d)
    Signature Algorithm: sha256WithRSAEncryption
        Issuer: CN=BANGALORECA_CA, C=IN, O=CITRIX, OU=ANG, ST=KA/emailAddress=BANGALORECA_CA@BANGALORECA_mail.com
        Validity
            Not Before: Jul  8 04:31:28 2016 GMT
            Not After : Jul  6 04:31:28 2026 GMT
        Subject: ST=KA, C=IN, CN=131_BANGALORECA_server/emailAddress=131_BANGALORECA@test_ca.com, O=CITRIX
        Subject Public Key Info:
            Public Key Algorithm: rsaEncryption
                Public-Key: (2048 bit)
                Modulus:
                    00:eb:af:62:94:f9:03:73:d2:5c:42:b1:36:6f:cb:
                    98:88:7e:fb:f7:84:19:1b:99:30:3c:5a:9d:71:c7:
                    3e:57:08:ee:93:4a:dc:f3:78:2a:44:f9:b7:94:2d:
                    db:de:49:f3:41:fb:47:c9:08:56:41:13:fe:b4:c3:
                    77:b8:49:2f:8b:8c:20:c0:d0:06:45:f2:12:4f:59:
                    3b:22:32:fe:6a:ea:03:ca:f5:76:75:5a:f2:27:48:
                    99:a2:03:f4:d7:11:50:95:54:65:a7:d7:e0:08:ed:
                    a4:6b:b5:50:b3:99:8b:ad:ab:fe:1d:41:99:af:41:
                    a7:b2:9c:d0:5c:bd:02:48:67:89:fa:1f:fa:4d:16:
                    68:1c:f7:8f:99:bc:a7:e7:de:b9:b9:27:a0:87:59:
                    f9:4b:84:a8:03:cb:74:00:ed:42:58:b4:a8:d9:bb:
                    7c:34:65:26:6f:26:07:f0:4c:dd:6a:ca:7c:31:de:
                    39:3d:e4:40:4f:12:19:09:22:59:ca:63:5e:d9:82:
                    dc:0a:d7:9a:71:cc:f8:34:5f:df:50:81:f0:9f:88:
                    d0:f3:0b:35:30:12:a2:8d:f6:5b:86:ba:da:4b:2b:
                    8b:b9:c4:b4:f2:1d:cb:7d:44:cd:17:ef:b5:d9:05:
                    e9:34:8b:7c:d7:d8:cb:15:5d:bf:20:9e:f3:50:ba:
                    81:b3
                Exponent: 65537 (0x10001)
        X509v3 extensions:
            Netscape Cert Type: 
                SSL Server
            X509v3 Subject Key Identifier: 
                26:C8:63:54:85:B0:03:93:A4:D4:32:D4:17:AE:61:6F:6E:C8:A2:A3
            X509v3 Authority Key Identifier: 
                keyid:3B:D6:D1:53:18:87:05:22:BB:EE:C3:0F:F5:CE:0F:6B:A2:93:A7:B8
                DirName:/CN=BANGALORECA_CA/C=IN/O=CITRIX/OU=ANG/ST=KA/emailAddress=BANGALORECA_CA@BANGALORECA_mail.com
                serial:A1:AC:B4:DA:46:53:58:40

            Authority Information Access: 
                OCSP - URI:http://172.16.20.1/responderpath

    Signature Algorithm: sha256WithRSAEncryption
         8b:67:e7:ed:b1:9a:f4:dc:9f:30:bb:e8:41:0b:ac:43:66:7b:
         67:cc:2c:43:af:ba:f5:06:a1:e7:cf:19:fb:ef:da:93:92:54:
         e9:b5:96:9f:fa:50:5a:6b:fb:61:0b:10:5a:18:08:eb:48:20:
         c8:22:b8:f4:f1:df:6d:ce:9f:92:cb:0b:bc:4c:09:d8:78:65:
         c1:34:74:04:c9:80:7e:40:b9:5f:74:bc:24:de:55:5c:dc:45:
         84:39:ff:af:4a:5c:5f:2e:94:49:98:fa:5a:4a:88:22:7d:fc:
         d1:5b:26:5f:8f:76:03:8e:7b:7d:25:1c:35:86:9b:2f:2e:d5:
         35:b8:dc:8b:cc:67:6b:ff:5b:ba:dc:ef:97:5a:4c:6b:9d:c6:
         b6:26:f4:c8:da:d6:6f:d6:25:68:bd:74:c7:99:c4:65:ae:05:
         6c:e4:62:bd:0a:95:7a:8b:31:80:fb:d2:d5:66:f7:99:59:c1:
         1c:ab:89:95:6e:b9:40:2d:c6:24:d7:50:04:e4:f1:db:77:fc:
         0e:44:73:15:ba:13:0d:ef:d1:fa:4c:d4:76:92:65:d7:c5:fa:
         a3:da:3f:6d:05:cd:9d:db:6c:b1:7c:df:58:08:bf:f6:68:d0:
         7a:e0:f5:fe:25:9a:b7:c7:35:b7:d1:96:57:c9:4a:08:7a:3a:
         cf:f2:e3:0b
-----BEGIN CERTIFICATE-----
MIIEszCCA5ugAwIBAgIGCgsMDQ4tMA0GCSqGSIb3DQEBCwUAMIGGMRcwFQYDVQQD
FA5CQU5HQUxPUkVDQV9DQTELMAkGA1UEBhMCSU4xDzANBgNVBAoTBkNJVFJJWDEM
MAoGA1UECxMDQU5HMQswCQYDVQQIEwJLQTEyMDAGCSqGSIb3DQEJARYjQkFOR0FM
T1JFQ0FfQ0FAQkFOR0FMT1JFQ0FfbWFpbC5jb20wHhcNMTYwNzA4MDQzMTI4WhcN
MjYwNzA2MDQzMTI4WjB4MQswCQYDVQQIEwJLQTELMAkGA1UEBhMCSU4xHzAdBgNV
BAMUFjEzMV9CQU5HQUxPUkVDQV9zZXJ2ZXIxKjAoBgkqhkiG9w0BCQEWGzEzMV9C
QU5HQUxPUkVDQUB0ZXN0X2NhLmNvbTEPMA0GA1UEChMGQ0lUUklYMIIBIjANBgkq
hkiG9w0BAQEFAAOCAQ8AMIIBCgKCAQEA669ilPkDc9JcQrE2b8uYiH7794QZG5kw
PFqdccc+Vwjuk0rc83gqRPm3lC3b3knzQftHyQhWQRP+tMN3uEkvi4wgwNAGRfIS
T1k7IjL+auoDyvV2dVryJ0iZogP01xFQlVRlp9fgCO2ka7VQs5mLrav+HUGZr0Gn
spzQXL0CSGeJ+h/6TRZoHPePmbyn5965uSegh1n5S4SoA8t0AO1CWLSo2bt8NGUm
byYH8Ezdasp8Md45PeRATxIZCSJZymNe2YLcCteaccz4NF/fUIHwn4jQ8ws1MBKi
jfZbhrraSyuLucS08h3LfUTNF++12QXpNIt819jLFV2/IJ7zULqBswIDAQABo4IB
MjCCAS4wEQYJYIZIAYb4QgEBBAQDAgZAMB0GA1UdDgQWBBQmyGNUhbADk6TUMtQX
rmFvbsiiozCBuwYDVR0jBIGzMIGwgBQ71tFTGIcFIrvuww/1zg9ropOnuKGBjKSB
iTCBhjEXMBUGA1UEAxQOQkFOR0FMT1JFQ0FfQ0ExCzAJBgNVBAYTAklOMQ8wDQYD
VQQKEwZDSVRSSVgxDDAKBgNVBAsTA0FORzELMAkGA1UECBMCS0ExMjAwBgkqhkiG
9w0BCQEWI0JBTkdBTE9SRUNBX0NBQEJBTkdBTE9SRUNBX21haWwuY29tggkAoay0
2kZTWEAwPAYIKwYBBQUHAQEEMDAuMCwGCCsGAQUFBzABhiBodHRwOi8vMTcyLjE2
LjIwLjEvcmVzcG9uZGVycGF0aDANBgkqhkiG9w0BAQsFAAOCAQEAi2fn7bGa9Nyf
MLvoQQusQ2Z7Z8wsQ6+69Qah588Z++/ak5JU6bWWn/pQWmv7YQsQWhgI60ggyCK4
9PHfbc6fkssLvEwJ2HhlwTR0BMmAfkC5X3S8JN5VXNxFhDn/r0pcXy6USZj6WkqI
In380VsmX492A457fSUcNYabLy7VNbjci8xna/9butzvl1pMa53Gtib0yNrWb9Yl
aL10x5nEZa4FbORivQqVeosxgPvS1Wb3mVnBHKuJlW65QC3GJNdQBOTx23f8DkRz
FboTDe/R+kzUdpJl18X6o9o/bQXNndtssXzfWAi/9mjQeuD1/iWat8c1t9GWV8lK
CHo6z/LjCw==
-----END CERTIFICATE-----
