Certificate:
    Data:
        Version: 3 (0x2)
        Serial Number: 11042563100205 (0xa0b0c0d0e2d)
    Signature Algorithm: sha256WithRSAEncryption
        Issuer: CN=CALCUTTACA_CA, C=IN, O=CITRIX, OU=ANG, ST=KA/emailAddress=CALCUTTACA_CA@CALCUTTACA_mail.com
        Validity
            Not Before: Jul  8 04:33:11 2016 GMT
            Not After : Jul  6 04:33:11 2026 GMT
        Subject: ST=KA, C=IN, CN=131_CALCUTTACA_server/emailAddress=131_CALCUTTACA@test_ca.com, O=CITRIX
        Subject Public Key Info:
            Public Key Algorithm: rsaEncryption
                Public-Key: (2048 bit)
                Modulus:
                    00:e7:e3:fe:ea:1f:44:fa:40:b7:ce:e9:e6:09:16:
                    96:31:b9:a5:49:31:2a:d2:1b:29:f7:ef:06:a7:27:
                    d7:bf:b8:44:c7:49:05:64:06:70:82:f5:5c:99:53:
                    49:7b:a4:0f:ec:2a:8c:cb:4d:a9:8b:36:9a:18:fe:
                    de:ac:65:4c:e0:56:c5:78:5d:c6:a9:53:6c:b6:5f:
                    f0:f2:14:07:d5:12:45:6f:4a:05:3e:e5:57:72:cc:
                    cc:15:2d:e4:9a:3b:59:6b:e5:83:55:ed:a5:19:b2:
                    c1:eb:80:bb:72:50:f5:20:1f:cb:df:23:4f:1f:2f:
                    f3:43:5d:68:73:85:24:9c:72:55:05:29:e4:46:a4:
                    3d:30:41:a1:1b:77:fb:eb:e3:39:78:1c:24:5c:65:
                    6a:63:fb:fe:fa:e2:ec:cb:7f:a5:82:e6:f6:7e:0c:
                    a5:a8:03:56:c9:a2:c4:b0:a3:3c:5f:9c:85:73:d6:
                    12:4c:b4:d8:83:a8:64:aa:28:78:bf:01:22:31:c3:
                    dc:5d:a6:f6:f4:85:92:0b:80:e7:9e:a8:ad:fa:93:
                    8c:34:c7:b4:9e:c2:fd:5f:0d:86:e6:d2:94:08:9d:
                    96:bc:5f:1b:07:22:8e:7a:d8:2e:6a:19:ce:db:ab:
                    4f:d9:2c:3b:77:b6:b9:3f:5e:fa:70:4d:11:71:7b:
                    91:9b
                Exponent: 65537 (0x10001)
        X509v3 extensions:
            Netscape Cert Type: 
                SSL Server
            X509v3 Subject Key Identifier: 
                C2:A3:3E:ED:C6:13:D0:05:74:32:B9:2B:58:24:4C:81:8C:A8:D5:AF
            X509v3 Authority Key Identifier: 
                keyid:37:2E:7B:27:46:4B:CF:47:10:AC:2B:2E:BA:D0:F3:66:75:EB:52:75
                DirName:/CN=CALCUTTACA_CA/C=IN/O=CITRIX/OU=ANG/ST=KA/emailAddress=CALCUTTACA_CA@CALCUTTACA_mail.com
                serial:A5:C6:47:0E:E6:06:37:18

            Authority Information Access: 
                OCSP - URI:http://172.18.20.1/responderpath

    Signature Algorithm: sha256WithRSAEncryption
         13:fe:a1:85:6f:10:63:20:3d:51:b0:31:dd:35:14:7c:be:f9:
         2d:57:82:3d:21:40:20:70:2f:7b:4b:29:b2:7c:c9:aa:f2:4a:
         89:b6:22:e7:9c:63:9b:f2:20:12:22:d7:31:92:d2:1a:05:d3:
         df:f1:7b:29:86:5e:26:34:b9:9b:b6:0f:0f:38:ce:97:7a:74:
         d1:3c:9f:65:ee:72:91:7a:c2:f3:f0:18:df:9f:1d:b9:40:4a:
         1b:01:9c:63:06:d2:5b:f1:e2:cd:94:d7:e5:09:81:b9:1c:ba:
         d7:b3:27:d9:c1:db:c9:d8:8d:84:df:6b:cc:be:ca:fc:bc:5f:
         78:c4:96:60:cd:cd:6a:ae:9f:04:35:ad:18:00:61:d2:e5:ff:
         e4:f9:43:8f:45:52:c8:83:ba:e4:44:0b:54:b2:d5:8b:6e:45:
         b7:79:c4:07:3a:bf:5d:1b:34:e3:0d:f0:b3:4c:d0:06:73:20:
         89:c2:f0:54:3f:f9:c6:6e:c5:78:e8:a9:3f:52:dd:7a:8a:43:
         ef:b2:91:c1:af:5d:d7:7f:06:a6:a3:d8:65:1a:a0:9e:d1:e2:
         02:6a:57:94:e2:06:e9:8c:65:1f:af:fa:8e:c3:c5:d2:87:97:
         58:e6:eb:02:3b:90:2a:09:1e:6b:d9:be:5a:4e:28:36:8e:8a:
         70:ce:06:6a
-----BEGIN CERTIFICATE-----
MIIEqzCCA5OgAwIBAgIGCgsMDQ4tMA0GCSqGSIb3DQEBCwUAMIGDMRYwFAYDVQQD
FA1DQUxDVVRUQUNBX0NBMQswCQYDVQQGEwJJTjEPMA0GA1UEChMGQ0lUUklYMQww
CgYDVQQLEwNBTkcxCzAJBgNVBAgTAktBMTAwLgYJKoZIhvcNAQkBFiFDQUxDVVRU
QUNBX0NBQENBTENVVFRBQ0FfbWFpbC5jb20wHhcNMTYwNzA4MDQzMzExWhcNMjYw
NzA2MDQzMzExWjB2MQswCQYDVQQIEwJLQTELMAkGA1UEBhMCSU4xHjAcBgNVBAMU
FTEzMV9DQUxDVVRUQUNBX3NlcnZlcjEpMCcGCSqGSIb3DQEJARYaMTMxX0NBTENV
VFRBQ0FAdGVzdF9jYS5jb20xDzANBgNVBAoTBkNJVFJJWDCCASIwDQYJKoZIhvcN
AQEBBQADggEPADCCAQoCggEBAOfj/uofRPpAt87p5gkWljG5pUkxKtIbKffvBqcn
17+4RMdJBWQGcIL1XJlTSXukD+wqjMtNqYs2mhj+3qxlTOBWxXhdxqlTbLZf8PIU
B9USRW9KBT7lV3LMzBUt5Jo7WWvlg1XtpRmyweuAu3JQ9SAfy98jTx8v80NdaHOF
JJxyVQUp5EakPTBBoRt3++vjOXgcJFxlamP7/vri7Mt/pYLm9n4MpagDVsmixLCj
PF+chXPWEky02IOoZKooeL8BIjHD3F2m9vSFkguA556orfqTjDTHtJ7C/V8NhubS
lAidlrxfGwcijnrYLmoZzturT9ksO3e2uT9e+nBNEXF7kZsCAwEAAaOCAS8wggEr
MBEGCWCGSAGG+EIBAQQEAwIGQDAdBgNVHQ4EFgQUwqM+7cYT0AV0MrkrWCRMgYyo
1a8wgbgGA1UdIwSBsDCBrYAUNy57J0ZLz0cQrCsuutDzZnXrUnWhgYmkgYYwgYMx
FjAUBgNVBAMUDUNBTENVVFRBQ0FfQ0ExCzAJBgNVBAYTAklOMQ8wDQYDVQQKEwZD
SVRSSVgxDDAKBgNVBAsTA0FORzELMAkGA1UECBMCS0ExMDAuBgkqhkiG9w0BCQEW
IUNBTENVVFRBQ0FfQ0FAQ0FMQ1VUVEFDQV9tYWlsLmNvbYIJAKXGRw7mBjcYMDwG
CCsGAQUFBwEBBDAwLjAsBggrBgEFBQcwAYYgaHR0cDovLzE3Mi4xOC4yMC4xL3Jl
c3BvbmRlcnBhdGgwDQYJKoZIhvcNAQELBQADggEBABP+oYVvEGMgPVGwMd01FHy+
+S1Xgj0hQCBwL3tLKbJ8yarySom2IuecY5vyIBIi1zGS0hoF09/xeymGXiY0uZu2
Dw84zpd6dNE8n2XucpF6wvPwGN+fHblAShsBnGMG0lvx4s2U1+UJgbkcutezJ9nB
28nYjYTfa8y+yvy8X3jElmDNzWqunwQ1rRgAYdLl/+T5Q49FUsiDuuREC1Sy1Ytu
Rbd5xAc6v10bNOMN8LNM0AZzIInC8FQ/+cZuxXjoqT9S3XqKQ++ykcGvXdd/Bqaj
2GUaoJ7R4gJqV5TiBumMZR+v+o7DxdKHl1jm6wI7kCoJHmvZvlpOKDaOinDOBmo=
-----END CERTIFICATE-----
