Certificate:
    Data:
        Version: 3 (0x2)
        Serial Number: 11042563100205 (0xa0b0c0d0e2d)
    Signature Algorithm: sha256WithRSAEncryption
        Issuer: CN=PATNACA_CA, C=IN, O=CITRIX, OU=ANG, ST=KA/emailAddress=PATNACA_CA@PATNACA_mail.com
        Validity
            Not Before: Jul  8 04:38:29 2016 GMT
            Not After : Jul  6 04:38:29 2026 GMT
        Subject: ST=KA, C=IN, CN=131_PATNACA_server/emailAddress=131_PATNACA@test_ca.com, O=CITRIX
        Subject Public Key Info:
            Public Key Algorithm: rsaEncryption
                Public-Key: (2048 bit)
                Modulus:
                    00:b9:f3:9c:95:19:30:2c:d0:7b:a0:b1:a3:55:45:
                    1f:7f:c0:9f:bb:09:52:18:1a:1e:78:a8:bc:67:dd:
                    47:cb:39:f3:f2:3a:69:a6:cf:30:7f:ee:63:88:54:
                    88:16:b8:12:53:7b:94:78:5d:bd:55:5b:8e:5b:19:
                    11:a0:ba:9d:03:1b:64:42:71:ab:cc:b4:1d:60:45:
                    68:70:51:99:0f:e6:c6:04:54:07:9f:4b:b7:aa:79:
                    16:cf:94:e2:f3:75:38:67:db:97:c3:3f:bf:de:de:
                    89:12:1b:80:68:cf:56:5b:db:5e:a5:08:0e:00:6e:
                    f1:77:91:8e:0d:c1:f4:d2:5a:c8:de:99:e8:78:5b:
                    75:2b:9c:52:d3:cd:40:da:3e:bd:0a:12:6e:cf:68:
                    81:9c:9f:e2:ad:a7:a8:16:4f:a9:cc:80:37:63:f8:
                    a0:06:e8:f3:cc:fe:2a:22:83:ae:41:ae:b6:e1:0a:
                    70:9a:d0:d7:58:b1:e6:d7:f3:d3:d1:f1:f1:74:e8:
                    22:f4:2d:b1:be:4e:07:39:be:ea:74:cd:dc:e3:e9:
                    6f:4f:5f:0e:05:d4:08:02:0a:34:5c:e3:cb:11:03:
                    2d:8d:dd:49:4b:f7:07:e8:65:b3:70:6f:7f:01:29:
                    1b:ff:7f:0a:d4:c3:05:a2:1b:fe:ee:54:80:3e:ec:
                    ec:eb
                Exponent: 65537 (0x10001)
        X509v3 extensions:
            Netscape Cert Type: 
                SSL Server
            X509v3 Subject Key Identifier: 
                4E:52:68:F7:14:EE:32:2F:05:A2:23:8A:30:93:8A:70:F6:2B:2D:40
            X509v3 Authority Key Identifier: 
                keyid:FF:DF:C4:8D:AF:64:E1:E3:17:FA:96:EE:F1:75:A7:ED:A7:C3:91:B8
                DirName:/CN=PATNACA_CA/C=IN/O=CITRIX/OU=ANG/ST=KA/emailAddress=PATNACA_CA@PATNACA_mail.com
                serial:9F:2E:15:76:F0:BD:C1:6F

            Authority Information Access: 
                OCSP - URI:http://172.26.20.1/responderpath

    Signature Algorithm: sha256WithRSAEncryption
         01:10:f1:3f:58:7c:d5:a9:98:d4:26:d9:07:70:bd:ae:cc:c2:
         70:22:48:a1:fb:2b:2f:f3:03:bc:4a:dd:17:13:d9:03:30:93:
         6d:f7:ba:43:9b:c6:fb:5f:b0:91:54:73:75:ee:97:10:7a:a3:
         3e:d9:ea:98:2d:e5:5a:c9:d9:45:c0:28:68:79:d9:69:62:a9:
         56:b2:ac:ad:04:cb:14:21:70:71:97:b7:47:93:30:14:b4:cc:
         d3:7c:22:b4:21:f4:c8:9e:c6:4d:41:71:1d:be:4b:e7:c4:22:
         98:b1:ac:20:80:39:8e:ae:8a:8e:ba:93:e6:f3:41:c7:9b:83:
         b4:be:4e:90:5a:1d:48:65:17:03:2b:bd:d8:e7:9a:d9:48:73:
         dc:8e:93:4c:52:27:de:bd:a6:30:43:7a:a3:96:36:d9:7a:98:
         40:6a:aa:34:a5:aa:7f:48:3b:ab:d3:a5:76:1a:0f:64:b9:81:
         99:dd:ee:a7:2e:bf:3a:3a:75:95:58:4a:53:51:d2:6e:3b:97:
         4a:08:eb:7f:c1:83:61:4c:9d:f6:f9:8f:2c:95:57:e5:30:59:
         af:1c:23:70:ef:4c:99:0b:ab:e7:3a:c8:2e:13:2b:8e:f6:13:
         0c:ac:1c:6a:15:d9:96:09:c1:72:d5:0b:36:76:dd:37:74:89:
         64:f9:45:f6
-----BEGIN CERTIFICATE-----
MIIEjzCCA3egAwIBAgIGCgsMDQ4tMA0GCSqGSIb3DQEBCwUAMHoxEzARBgNVBAMU
ClBBVE5BQ0FfQ0ExCzAJBgNVBAYTAklOMQ8wDQYDVQQKEwZDSVRSSVgxDDAKBgNV
BAsTA0FORzELMAkGA1UECBMCS0ExKjAoBgkqhkiG9w0BCQEWG1BBVE5BQ0FfQ0FA
UEFUTkFDQV9tYWlsLmNvbTAeFw0xNjA3MDgwNDM4MjlaFw0yNjA3MDYwNDM4Mjla
MHAxCzAJBgNVBAgTAktBMQswCQYDVQQGEwJJTjEbMBkGA1UEAxQSMTMxX1BBVE5B
Q0Ffc2VydmVyMSYwJAYJKoZIhvcNAQkBFhcxMzFfUEFUTkFDQUB0ZXN0X2NhLmNv
bTEPMA0GA1UEChMGQ0lUUklYMIIBIjANBgkqhkiG9w0BAQEFAAOCAQ8AMIIBCgKC
AQEAufOclRkwLNB7oLGjVUUff8CfuwlSGBoeeKi8Z91Hyznz8jppps8wf+5jiFSI
FrgSU3uUeF29VVuOWxkRoLqdAxtkQnGrzLQdYEVocFGZD+bGBFQHn0u3qnkWz5Ti
83U4Z9uXwz+/3t6JEhuAaM9WW9tepQgOAG7xd5GODcH00lrI3pnoeFt1K5xS081A
2j69ChJuz2iBnJ/iraeoFk+pzIA3Y/igBujzzP4qIoOuQa624QpwmtDXWLHm1/PT
0fHxdOgi9C2xvk4HOb7qdM3c4+lvT18OBdQIAgo0XOPLEQMtjd1JS/cH6GWzcG9/
ASkb/38K1MMFohv+7lSAPuzs6wIDAQABo4IBIzCCAR8wEQYJYIZIAYb4QgEBBAQD
AgZAMB0GA1UdDgQWBBROUmj3FO4yLwWiI4owk4pw9istQDCBrAYDVR0jBIGkMIGh
gBT/38SNr2Th4xf6lu7xdaftp8ORuKF+pHwwejETMBEGA1UEAxQKUEFUTkFDQV9D
QTELMAkGA1UEBhMCSU4xDzANBgNVBAoTBkNJVFJJWDEMMAoGA1UECxMDQU5HMQsw
CQYDVQQIEwJLQTEqMCgGCSqGSIb3DQEJARYbUEFUTkFDQV9DQUBQQVROQUNBX21h
aWwuY29tggkAny4VdvC9wW8wPAYIKwYBBQUHAQEEMDAuMCwGCCsGAQUFBzABhiBo
dHRwOi8vMTcyLjI2LjIwLjEvcmVzcG9uZGVycGF0aDANBgkqhkiG9w0BAQsFAAOC
AQEAARDxP1h81amY1CbZB3C9rszCcCJIofsrL/MDvErdFxPZAzCTbfe6Q5vG+1+w
kVRzde6XEHqjPtnqmC3lWsnZRcAoaHnZaWKpVrKsrQTLFCFwcZe3R5MwFLTM03wi
tCH0yJ7GTUFxHb5L58QimLGsIIA5jq6KjrqT5vNBx5uDtL5OkFodSGUXAyu92Oea
2Uhz3I6TTFIn3r2mMEN6o5Y22XqYQGqqNKWqf0g7q9OldhoPZLmBmd3upy6/Ojp1
lVhKU1HSbjuXSgjrf8GDYUyd9vmPLJVX5TBZrxwjcO9MmQur5zrILhMrjvYTDKwc
ahXZlgnBctULNnbdN3SJZPlF9g==
-----END CERTIFICATE-----
