Certificate:
    Data:
        Version: 3 (0x2)
        Serial Number: 11042563100205 (0xa0b0c0d0e2d)
    Signature Algorithm: sha256WithRSAEncryption
        Issuer: CN=DELHICA_CA, C=IN, O=CITRIX, OU=ANG, ST=KA/emailAddress=DELHICA_CA@DELHICA_mail.com
        Validity
            Not Before: Jul  8 04:34:30 2016 GMT
            Not After : Jul  6 04:34:30 2026 GMT
        Subject: ST=KA, C=IN, CN=131_DELHICA_server/emailAddress=131_DELHICA@test_ca.com, O=CITRIX
        Subject Public Key Info:
            Public Key Algorithm: rsaEncryption
                Public-Key: (2048 bit)
                Modulus:
                    00:a0:dd:09:77:c2:9d:0d:67:9a:31:16:c7:74:1f:
                    b7:05:cd:33:fd:40:9e:21:be:6d:7c:5e:fc:ac:72:
                    0c:1c:c1:b3:79:6b:c1:42:42:66:97:f1:97:1c:58:
                    19:64:8c:86:d4:3b:c6:e8:6f:37:e5:b3:88:51:f2:
                    68:c6:1d:06:15:f1:fd:48:30:47:9d:33:18:d2:5d:
                    f7:82:ad:68:31:72:ac:b3:17:0b:1b:cf:37:4a:83:
                    6a:30:9e:5f:d5:73:ad:16:be:31:a2:df:c0:18:62:
                    31:f1:2e:5e:d9:eb:1a:5f:a3:3b:4e:09:39:a7:39:
                    ee:44:b8:59:98:a0:a1:96:1c:f6:16:ba:e1:41:cc:
                    5d:16:02:40:b5:39:7f:a3:a5:48:81:71:fa:32:2b:
                    10:98:bc:9d:ac:2d:e3:1f:c7:ed:b7:a9:ca:63:88:
                    3c:ce:c4:22:07:ad:1a:1f:79:e3:1f:4c:a6:1e:a8:
                    59:d4:85:50:78:17:fc:17:b7:9f:4d:f7:75:70:6f:
                    c9:16:e9:48:0c:03:88:eb:4c:ba:b7:70:c3:e5:00:
                    11:a5:1a:e0:c6:71:20:ee:46:59:69:58:2a:e0:f3:
                    10:84:8e:ec:8b:de:b7:26:79:17:df:7a:90:ff:6a:
                    a7:93:db:c6:a0:3f:9d:31:f0:56:0f:f0:2e:ef:69:
                    f5:ed
                Exponent: 65537 (0x10001)
        X509v3 extensions:
            Netscape Cert Type: 
                SSL Server
            X509v3 Subject Key Identifier: 
                22:00:75:7E:25:31:A4:90:44:4C:D1:AD:17:8F:00:CA:91:38:F5:A4
            X509v3 Authority Key Identifier: 
                keyid:D7:37:52:01:DC:2C:7A:57:85:CA:30:39:30:F0:D5:5D:5A:31:03:02
                DirName:/CN=DELHICA_CA/C=IN/O=CITRIX/OU=ANG/ST=KA/emailAddress=DELHICA_CA@DELHICA_mail.com
                serial:94:59:DC:51:4E:A5:13:27

            Authority Information Access: 
                OCSP - URI:http://172.20.20.1/responderpath

    Signature Algorithm: sha256WithRSAEncryption
         be:b6:77:cc:28:eb:f6:34:13:d4:c2:d5:9e:f9:ea:91:1d:8f:
         4c:95:e2:c8:61:85:4b:45:99:0a:eb:13:b4:a3:c2:88:84:3b:
         cc:00:b1:de:c7:55:c8:2f:16:07:74:06:94:88:f3:db:4d:a9:
         9f:e5:9c:93:53:71:f4:e9:5c:6b:4f:ee:d4:ec:de:26:78:07:
         67:ff:2a:a6:c9:b7:fb:d2:7b:a3:00:58:99:e4:c4:68:d7:9f:
         7d:7d:5f:91:7e:ea:77:ce:1c:82:3c:82:a8:a3:49:dc:8a:1a:
         eb:84:f2:5c:4d:56:26:e9:36:96:9f:63:02:d2:12:f6:80:a3:
         d3:df:b0:c0:34:b6:f5:72:17:83:56:af:f2:a6:30:60:d4:05:
         8a:87:e6:0f:5e:ad:65:f0:b3:6f:94:73:cf:49:77:c8:1f:50:
         ab:e3:0d:69:2d:66:bd:a8:ea:5c:aa:de:56:33:9b:3e:4f:94:
         3b:08:c6:67:b2:71:62:e8:37:6d:74:c7:59:af:ae:22:9c:19:
         a5:2a:69:e9:0b:fc:90:34:8d:e6:6b:d7:ee:4c:a8:64:80:93:
         96:e5:64:a6:8f:39:df:86:3f:71:5a:64:dd:ac:34:2a:a8:6a:
         7e:a1:21:81:a6:6a:ef:f1:87:6e:03:c4:7f:49:ca:dd:c8:d6:
         ea:00:8b:74
-----BEGIN CERTIFICATE-----
MIIEjzCCA3egAwIBAgIGCgsMDQ4tMA0GCSqGSIb3DQEBCwUAMHoxEzARBgNVBAMU
CkRFTEhJQ0FfQ0ExCzAJBgNVBAYTAklOMQ8wDQYDVQQKEwZDSVRSSVgxDDAKBgNV
BAsTA0FORzELMAkGA1UECBMCS0ExKjAoBgkqhkiG9w0BCQEWG0RFTEhJQ0FfQ0FA
REVMSElDQV9tYWlsLmNvbTAeFw0xNjA3MDgwNDM0MzBaFw0yNjA3MDYwNDM0MzBa
MHAxCzAJBgNVBAgTAktBMQswCQYDVQQGEwJJTjEbMBkGA1UEAxQSMTMxX0RFTEhJ
Q0Ffc2VydmVyMSYwJAYJKoZIhvcNAQkBFhcxMzFfREVMSElDQUB0ZXN0X2NhLmNv
bTEPMA0GA1UEChMGQ0lUUklYMIIBIjANBgkqhkiG9w0BAQEFAAOCAQ8AMIIBCgKC
AQEAoN0Jd8KdDWeaMRbHdB+3Bc0z/UCeIb5tfF78rHIMHMGzeWvBQkJml/GXHFgZ
ZIyG1DvG6G835bOIUfJoxh0GFfH9SDBHnTMY0l33gq1oMXKssxcLG883SoNqMJ5f
1XOtFr4xot/AGGIx8S5e2esaX6M7Tgk5pznuRLhZmKChlhz2FrrhQcxdFgJAtTl/
o6VIgXH6MisQmLydrC3jH8ftt6nKY4g8zsQiB60aH3njH0ymHqhZ1IVQeBf8F7ef
Tfd1cG/JFulIDAOI60y6t3DD5QARpRrgxnEg7kZZaVgq4PMQhI7si963JnkX33qQ
/2qnk9vGoD+dMfBWD/Au72n17QIDAQABo4IBIzCCAR8wEQYJYIZIAYb4QgEBBAQD
AgZAMB0GA1UdDgQWBBQiAHV+JTGkkERM0a0XjwDKkTj1pDCBrAYDVR0jBIGkMIGh
gBTXN1IB3Cx6V4XKMDkw8NVdWjEDAqF+pHwwejETMBEGA1UEAxQKREVMSElDQV9D
QTELMAkGA1UEBhMCSU4xDzANBgNVBAoTBkNJVFJJWDEMMAoGA1UECxMDQU5HMQsw
CQYDVQQIEwJLQTEqMCgGCSqGSIb3DQEJARYbREVMSElDQV9DQUBERUxISUNBX21h
aWwuY29tggkAlFncUU6lEycwPAYIKwYBBQUHAQEEMDAuMCwGCCsGAQUFBzABhiBo
dHRwOi8vMTcyLjIwLjIwLjEvcmVzcG9uZGVycGF0aDANBgkqhkiG9w0BAQsFAAOC
AQEAvrZ3zCjr9jQT1MLVnvnqkR2PTJXiyGGFS0WZCusTtKPCiIQ7zACx3sdVyC8W
B3QGlIjz202pn+Wck1Nx9Olca0/u1OzeJngHZ/8qpsm3+9J7owBYmeTEaNeffX1f
kX7qd84cgjyCqKNJ3Ioa64TyXE1WJuk2lp9jAtIS9oCj09+wwDS29XIXg1av8qYw
YNQFiofmD16tZfCzb5Rzz0l3yB9Qq+MNaS1mvajqXKreVjObPk+UOwjGZ7JxYug3
bXTHWa+uIpwZpSpp6Qv8kDSN5mvX7kyoZICTluVkpo8534Y/cVpk3aw0KqhqfqEh
gaZq7/GHbgPEf0nK3cjW6gCLdA==
-----END CERTIFICATE-----
