Certificate:
    Data:
        Version: 3 (0x2)
        Serial Number: 11042563100205 (0xa0b0c0d0e2d)
    Signature Algorithm: sha256WithRSAEncryption
        Issuer: CN=RANCHICA_CA, C=IN, O=CITRIX, OU=ANG, ST=KA/emailAddress=RANCHICA_CA@RANCHICA_mail.com
        Validity
            Not Before: Jul  8 04:38:55 2016 GMT
            Not After : Jul  6 04:38:55 2026 GMT
        Subject: ST=KA, C=IN, CN=131_RANCHICA_server/emailAddress=131_RANCHICA@test_ca.com, O=CITRIX
        Subject Public Key Info:
            Public Key Algorithm: rsaEncryption
                Public-Key: (2048 bit)
                Modulus:
                    00:9e:94:fe:dc:6b:fa:0f:b4:27:3e:ec:d9:21:b7:
                    03:53:0e:1d:88:69:d2:ea:d4:18:17:4f:3d:5b:79:
                    ad:23:fc:59:dd:da:a4:b0:13:58:85:94:e8:a2:a0:
                    3b:dc:7f:cf:03:6b:a0:e1:b3:dc:9d:07:9b:4d:5b:
                    f5:57:85:ee:5f:08:98:df:3a:20:60:d3:a5:60:de:
                    4e:3f:79:36:da:cb:8c:7d:ae:d1:3a:05:8d:47:12:
                    80:95:a0:cf:16:a9:3f:8f:08:22:ae:3d:ec:5d:0d:
                    c7:90:a7:ad:1d:21:d1:d4:19:60:99:ec:da:7c:ba:
                    b2:6a:ea:32:c1:09:81:99:54:76:6c:18:80:08:d3:
                    df:ec:95:d6:0e:19:ca:ff:42:81:7d:29:cb:5a:a4:
                    35:96:ba:e3:6d:ae:69:27:a6:53:18:36:96:dc:60:
                    3f:20:7c:96:10:6c:77:43:a2:fc:51:76:b8:be:4b:
                    42:6d:37:fc:b9:e6:44:0e:a9:f2:46:13:f1:87:ba:
                    76:cd:ad:b8:64:6a:1a:34:a1:15:ef:46:3c:53:6d:
                    ed:ea:5f:d6:18:03:5e:bf:c8:20:3c:f5:60:60:81:
                    bd:24:34:65:b9:dc:7c:5f:67:a9:55:6d:bf:b1:39:
                    01:d0:ab:c7:ef:53:fe:c0:74:4a:a3:dc:40:4a:91:
                    6f:e5
                Exponent: 65537 (0x10001)
        X509v3 extensions:
            Netscape Cert Type: 
                SSL Server
            X509v3 Subject Key Identifier: 
                B5:70:AC:25:CD:99:81:87:46:EF:A1:9D:F0:1E:94:19:31:62:64:45
            X509v3 Authority Key Identifier: 
                keyid:A7:10:6F:5D:0C:9F:9C:A2:F4:39:92:A3:7D:5C:B8:C0:25:71:BF:39
                DirName:/CN=RANCHICA_CA/C=IN/O=CITRIX/OU=ANG/ST=KA/emailAddress=RANCHICA_CA@RANCHICA_mail.com
                serial:E7:09:A4:3D:1C:C7:45:B1

            Authority Information Access: 
                OCSP - URI:http://172.27.20.1/responderpath

    Signature Algorithm: sha256WithRSAEncryption
         37:dd:0e:d2:de:6b:35:4c:84:00:c1:1f:da:b9:34:c6:14:99:
         66:1e:d8:39:c3:e7:6e:30:f1:88:41:62:55:77:20:e6:0f:08:
         b4:3a:99:e9:c8:61:ef:2d:98:75:f3:5b:11:69:dd:62:d6:f4:
         c4:42:0d:4d:01:b6:34:63:2a:91:88:3a:2d:26:a8:e7:ef:30:
         43:3f:11:5a:ac:8d:ec:4f:a9:86:0b:a2:23:7d:ce:16:4f:9c:
         1a:fd:c1:af:8e:80:8b:ee:e6:8f:99:66:f1:b8:1a:17:8d:72:
         ba:9b:da:f0:14:5b:c7:52:07:86:49:a5:71:34:db:cc:df:91:
         ca:0a:0e:a0:64:2b:a1:92:32:d7:51:65:19:02:84:dd:ba:2b:
         91:b5:e3:c0:d3:8e:07:03:e8:38:88:41:06:0b:38:3e:e1:4a:
         2a:c4:a9:b9:40:4a:df:67:99:f1:f6:d1:ef:a2:0f:b6:f5:fc:
         65:e9:d1:d8:a5:0c:32:78:ca:ce:39:ce:5c:72:d6:04:89:16:
         9e:22:fd:c3:6b:eb:40:2c:bf:82:47:0e:c3:d8:bb:d6:15:ad:
         90:6f:25:01:35:dc:6c:54:0a:89:44:b1:69:2d:9e:41:0f:99:
         e4:8a:61:0c:9f:9d:45:4b:bc:9d:12:50:4d:a3:ac:5a:1a:81:
         a0:5d:6f:cc
-----BEGIN CERTIFICATE-----
MIIEmDCCA4CgAwIBAgIGCgsMDQ4tMA0GCSqGSIb3DQEBCwUAMH0xFDASBgNVBAMU
C1JBTkNISUNBX0NBMQswCQYDVQQGEwJJTjEPMA0GA1UEChMGQ0lUUklYMQwwCgYD
VQQLEwNBTkcxCzAJBgNVBAgTAktBMSwwKgYJKoZIhvcNAQkBFh1SQU5DSElDQV9D
QUBSQU5DSElDQV9tYWlsLmNvbTAeFw0xNjA3MDgwNDM4NTVaFw0yNjA3MDYwNDM4
NTVaMHIxCzAJBgNVBAgTAktBMQswCQYDVQQGEwJJTjEcMBoGA1UEAxQTMTMxX1JB
TkNISUNBX3NlcnZlcjEnMCUGCSqGSIb3DQEJARYYMTMxX1JBTkNISUNBQHRlc3Rf
Y2EuY29tMQ8wDQYDVQQKEwZDSVRSSVgwggEiMA0GCSqGSIb3DQEBAQUAA4IBDwAw
ggEKAoIBAQCelP7ca/oPtCc+7NkhtwNTDh2IadLq1BgXTz1bea0j/Fnd2qSwE1iF
lOiioDvcf88Da6Dhs9ydB5tNW/VXhe5fCJjfOiBg06Vg3k4/eTbay4x9rtE6BY1H
EoCVoM8WqT+PCCKuPexdDceQp60dIdHUGWCZ7Np8urJq6jLBCYGZVHZsGIAI09/s
ldYOGcr/QoF9KctapDWWuuNtrmknplMYNpbcYD8gfJYQbHdDovxRdri+S0JtN/y5
5kQOqfJGE/GHunbNrbhkaho0oRXvRjxTbe3qX9YYA16/yCA89WBggb0kNGW53Hxf
Z6lVbb+xOQHQq8fvU/7AdEqj3EBKkW/lAgMBAAGjggEnMIIBIzARBglghkgBhvhC
AQEEBAMCBkAwHQYDVR0OBBYEFLVwrCXNmYGHRu+hnfAelBkxYmRFMIGwBgNVHSME
gagwgaWAFKcQb10Mn5yi9DmSo31cuMAlcb85oYGBpH8wfTEUMBIGA1UEAxQLUkFO
Q0hJQ0FfQ0ExCzAJBgNVBAYTAklOMQ8wDQYDVQQKEwZDSVRSSVgxDDAKBgNVBAsT
A0FORzELMAkGA1UECBMCS0ExLDAqBgkqhkiG9w0BCQEWHVJBTkNISUNBX0NBQFJB
TkNISUNBX21haWwuY29tggkA5wmkPRzHRbEwPAYIKwYBBQUHAQEEMDAuMCwGCCsG
AQUFBzABhiBodHRwOi8vMTcyLjI3LjIwLjEvcmVzcG9uZGVycGF0aDANBgkqhkiG
9w0BAQsFAAOCAQEAN90O0t5rNUyEAMEf2rk0xhSZZh7YOcPnbjDxiEFiVXcg5g8I
tDqZ6chh7y2YdfNbEWndYtb0xEINTQG2NGMqkYg6LSao5+8wQz8RWqyN7E+phgui
I33OFk+cGv3Br46Ai+7mj5lm8bgaF41yupva8BRbx1IHhkmlcTTbzN+RygoOoGQr
oZIy11FlGQKE3borkbXjwNOOBwPoOIhBBgs4PuFKKsSpuUBK32eZ8fbR76IPtvX8
ZenR2KUMMnjKzjnOXHLWBIkWniL9w2vrQCy/gkcOw9i71hWtkG8lATXcbFQKiUSx
aS2eQQ+Z5IphDJ+dRUu8nRJQTaOsWhqBoF1vzA==
-----END CERTIFICATE-----
