Certificate:
    Data:
        Version: 3 (0x2)
        Serial Number: 11042563100206 (0xa0b0c0d0e2e)
    Signature Algorithm: sha256WithRSAEncryption
        Issuer: CN=GOACA_CA, C=IN, O=CITRIX, OU=ANG, ST=KA/emailAddress=GOACA_CA@GOACA_mail.com
        Validity
            Not Before: Jul  8 04:35:01 2016 GMT
            Not After : Jul  6 04:35:01 2026 GMT
        Subject: ST=KA, C=IN, CN=132_GOACA_server/emailAddress=132_GOACA@test_ca.com, O=CITRIX
        Subject Public Key Info:
            Public Key Algorithm: rsaEncryption
                Public-Key: (2048 bit)
                Modulus:
                    00:b2:81:c4:1a:ac:c0:67:6e:09:5a:47:f6:3a:cb:
                    ab:e6:76:91:b5:cf:6b:37:d6:e7:12:21:21:db:99:
                    ac:3b:95:be:7a:d0:bb:c4:2b:67:9c:1b:34:d4:24:
                    3f:c9:a2:5c:bc:29:d7:5e:43:bd:7b:b1:2a:1e:49:
                    8c:3e:7a:0c:5e:d8:1a:98:7a:cb:1a:a2:cf:2b:59:
                    46:20:f3:f8:86:f9:97:d6:fc:ea:73:bd:ec:51:4c:
                    5f:31:80:09:b2:74:fd:44:0d:43:8e:9d:cf:e4:5d:
                    07:4a:20:f4:ac:9a:b8:38:31:77:f7:53:08:6b:a3:
                    e0:f9:61:6e:46:2b:d3:7d:8d:1b:62:43:bc:55:56:
                    d1:0e:24:64:ef:77:3e:09:82:8a:18:9b:a1:59:1e:
                    74:66:c9:07:7b:f7:dc:e2:de:8a:2d:d5:54:0f:7a:
                    60:2f:b2:c3:02:ab:23:99:d9:60:af:1b:85:74:5c:
                    ab:60:73:e2:99:74:75:eb:f3:3f:a6:91:aa:ff:ab:
                    76:e7:d1:c0:c4:15:c0:06:85:f8:63:0e:d0:e1:44:
                    ec:01:9d:46:99:a8:c9:b5:ae:5a:e9:ba:42:40:da:
                    ed:67:d5:ea:20:16:80:a7:db:2d:ac:09:53:33:eb:
                    92:0f:87:c3:97:33:7a:de:2f:87:10:c8:e9:72:20:
                    5e:bf
                Exponent: 65537 (0x10001)
        X509v3 extensions:
            Netscape Cert Type: 
                SSL Server
            X509v3 Subject Key Identifier: 
                27:58:36:37:70:C8:81:78:A3:A8:4C:FD:62:6B:70:FA:E4:A2:23:3F
            X509v3 Authority Key Identifier: 
                keyid:81:03:00:D4:DC:70:D9:A7:03:08:1E:DC:9B:4C:AC:E6:59:CD:39:68
                DirName:/CN=GOACA_CA/C=IN/O=CITRIX/OU=ANG/ST=KA/emailAddress=GOACA_CA@GOACA_mail.com
                serial:FC:8B:0A:90:01:17:5F:1C

            Authority Information Access: 
                OCSP - URI:http://172.21.20.1/responderpath

    Signature Algorithm: sha256WithRSAEncryption
         c4:44:86:0f:2a:0f:29:ab:8a:be:18:eb:84:27:c7:24:9c:ec:
         67:99:90:3e:9e:80:2f:1c:01:2f:73:d0:5e:1e:70:38:ba:c4:
         08:4c:28:cc:aa:a4:60:ee:1f:d9:ab:20:9d:0a:e2:d0:9a:f5:
         d0:9e:53:84:03:8e:ab:e2:cc:b2:80:a7:f6:f9:cf:89:a9:07:
         d5:4a:09:86:cc:a3:7d:f9:f6:e1:89:af:1e:80:60:e8:46:1f:
         17:4e:47:11:79:0f:71:c0:ee:bf:93:ae:24:b3:53:ec:d9:53:
         57:91:0d:72:6f:9a:bd:0f:d6:05:6b:f9:7b:24:0f:ea:94:aa:
         04:fc:14:c8:43:77:c3:aa:36:12:f9:1c:cb:ba:55:b3:9b:c1:
         7b:40:f9:d0:cd:55:1c:86:2c:77:0b:dc:04:ec:47:16:0f:de:
         58:83:20:19:84:14:d8:c4:68:22:44:3d:04:ac:94:33:07:32:
         2a:37:cb:07:f6:bd:43:9e:87:47:90:50:ee:6a:56:a4:f7:1c:
         9d:6a:39:98:6b:02:fc:ed:2e:b9:03:fa:a6:44:8b:db:73:3f:
         88:10:a9:ce:6c:2f:70:90:7b:02:83:8c:88:e2:15:16:db:39:
         10:3e:09:8a:51:00:ae:98:99:94:f7:61:58:d1:89:f1:1d:9b:
         4c:e7:c9:4a
-----BEGIN CERTIFICATE-----
MIIEfzCCA2egAwIBAgIGCgsMDQ4uMA0GCSqGSIb3DQEBCwUAMHQxETAPBgNVBAMU
CEdPQUNBX0NBMQswCQYDVQQGEwJJTjEPMA0GA1UEChMGQ0lUUklYMQwwCgYDVQQL
EwNBTkcxCzAJBgNVBAgTAktBMSYwJAYJKoZIhvcNAQkBFhdHT0FDQV9DQUBHT0FD
QV9tYWlsLmNvbTAeFw0xNjA3MDgwNDM1MDFaFw0yNjA3MDYwNDM1MDFaMGwxCzAJ
BgNVBAgTAktBMQswCQYDVQQGEwJJTjEZMBcGA1UEAxQQMTMyX0dPQUNBX3NlcnZl
cjEkMCIGCSqGSIb3DQEJARYVMTMyX0dPQUNBQHRlc3RfY2EuY29tMQ8wDQYDVQQK
EwZDSVRSSVgwggEiMA0GCSqGSIb3DQEBAQUAA4IBDwAwggEKAoIBAQCygcQarMBn
bglaR/Y6y6vmdpG1z2s31ucSISHbmaw7lb560LvEK2ecGzTUJD/Joly8KddeQ717
sSoeSYw+egxe2BqYessaos8rWUYg8/iG+ZfW/OpzvexRTF8xgAmydP1EDUOOnc/k
XQdKIPSsmrg4MXf3Uwhro+D5YW5GK9N9jRtiQ7xVVtEOJGTvdz4JgooYm6FZHnRm
yQd799zi3oot1VQPemAvssMCqyOZ2WCvG4V0XKtgc+KZdHXr8z+mkar/q3bn0cDE
FcAGhfhjDtDhROwBnUaZqMm1rlrpukJA2u1n1eogFoCn2y2sCVMz65IPh8OXM3re
L4cQyOlyIF6/AgMBAAGjggEdMIIBGTARBglghkgBhvhCAQEEBAMCBkAwHQYDVR0O
BBYEFCdYNjdwyIF4o6hM/WJrcPrkoiM/MIGmBgNVHSMEgZ4wgZuAFIEDANTccNmn
Awge3JtMrOZZzTlooXikdjB0MREwDwYDVQQDFAhHT0FDQV9DQTELMAkGA1UEBhMC
SU4xDzANBgNVBAoTBkNJVFJJWDEMMAoGA1UECxMDQU5HMQswCQYDVQQIEwJLQTEm
MCQGCSqGSIb3DQEJARYXR09BQ0FfQ0FAR09BQ0FfbWFpbC5jb22CCQD8iwqQARdf
HDA8BggrBgEFBQcBAQQwMC4wLAYIKwYBBQUHMAGGIGh0dHA6Ly8xNzIuMjEuMjAu
MS9yZXNwb25kZXJwYXRoMA0GCSqGSIb3DQEBCwUAA4IBAQDERIYPKg8pq4q+GOuE
J8cknOxnmZA+noAvHAEvc9BeHnA4usQITCjMqqRg7h/ZqyCdCuLQmvXQnlOEA46r
4syygKf2+c+JqQfVSgmGzKN9+fbhia8egGDoRh8XTkcReQ9xwO6/k64ks1Ps2VNX
kQ1yb5q9D9YFa/l7JA/qlKoE/BTIQ3fDqjYS+RzLulWzm8F7QPnQzVUchix3C9wE
7EcWD95YgyAZhBTYxGgiRD0ErJQzBzIqN8sH9r1DnodHkFDualak9xydajmYawL8
7S65A/qmRIvbcz+IEKnObC9wkHsCg4yI4hUW2zkQPgmKUQCumJmU92FY0YnxHZtM
58lK
-----END CERTIFICATE-----
