Certificate:
    Data:
        Version: 3 (0x2)
        Serial Number: 11042563100206 (0xa0b0c0d0e2e)
    Signature Algorithm: sha256WithRSAEncryption
        Issuer: CN=CALCUTTACA_CA, C=IN, O=CITRIX, OU=ANG, ST=KA/emailAddress=CALCUTTACA_CA@CALCUTTACA_mail.com
        Validity
            Not Before: Jul  8 04:33:11 2016 GMT
            Not After : Jul  6 04:33:11 2026 GMT
        Subject: ST=KA, C=IN, CN=132_CALCUTTACA_server/emailAddress=132_CALCUTTACA@test_ca.com, O=CITRIX
        Subject Public Key Info:
            Public Key Algorithm: rsaEncryption
                Public-Key: (2048 bit)
                Modulus:
                    00:e5:1c:69:ae:78:31:69:42:e4:6a:34:31:9f:d6:
                    a0:16:39:5b:76:f2:fe:6d:98:b0:4a:e5:d2:0b:56:
                    13:ec:4b:91:fa:fc:4c:1e:db:23:14:e7:a8:d2:50:
                    bf:8a:2b:41:06:23:e0:ae:e7:a7:23:c5:b9:e6:c2:
                    d7:e0:30:d4:01:76:1f:93:fb:45:6b:97:38:d7:40:
                    d7:ee:99:03:92:b0:4d:83:8b:1f:89:e6:49:22:b7:
                    47:dc:5d:de:64:a4:5a:d3:e0:7d:fc:fb:06:f0:ae:
                    d7:b2:c4:ff:20:7d:f0:a7:7d:3e:7e:2f:d5:4d:55:
                    f6:ae:29:96:9b:1a:72:6c:28:73:8d:1c:8a:bf:07:
                    33:a7:eb:03:e5:32:ad:d2:4f:5b:79:13:f2:1c:7d:
                    0c:8c:46:f5:be:10:31:4c:15:6d:f6:16:e2:51:fe:
                    5b:eb:84:bc:b8:ee:31:a8:ba:6d:da:e3:ac:96:20:
                    42:60:23:db:30:44:0a:17:e5:36:37:f8:ec:36:62:
                    4e:d5:1e:a7:1f:05:01:4c:68:41:2a:8c:18:87:31:
                    22:97:70:44:20:6f:43:8b:04:b0:e4:22:65:bd:37:
                    ae:38:60:00:2b:46:7f:37:c8:a1:27:a6:6a:9e:39:
                    6b:ca:be:e8:04:79:d0:bb:fe:9b:59:f6:bd:b6:16:
                    93:b7
                Exponent: 65537 (0x10001)
        X509v3 extensions:
            Netscape Cert Type: 
                SSL Server
            X509v3 Subject Key Identifier: 
                97:96:F5:FC:32:7E:1A:CA:BD:B7:D8:A2:B5:9E:DB:B3:1A:77:DC:A9
            X509v3 Authority Key Identifier: 
                keyid:37:2E:7B:27:46:4B:CF:47:10:AC:2B:2E:BA:D0:F3:66:75:EB:52:75
                DirName:/CN=CALCUTTACA_CA/C=IN/O=CITRIX/OU=ANG/ST=KA/emailAddress=CALCUTTACA_CA@CALCUTTACA_mail.com
                serial:A5:C6:47:0E:E6:06:37:18

            Authority Information Access: 
                OCSP - URI:http://172.18.20.1/responderpath

    Signature Algorithm: sha256WithRSAEncryption
         23:95:01:92:e0:41:2e:13:fc:c6:0e:0a:f9:57:1e:8c:88:1e:
         5e:2c:d3:6e:2c:1b:c6:f2:ee:23:8e:cd:d3:dc:62:f0:16:43:
         41:34:94:10:f1:f0:a1:87:4e:5e:c0:6f:fa:04:fb:e8:a6:cb:
         4b:71:e2:25:0d:06:a1:bd:a8:6d:df:1a:3a:08:ad:a4:f8:7f:
         d9:d6:76:be:b1:d5:4b:e9:bc:78:ca:4f:5d:8a:92:d5:ab:9f:
         0f:93:08:c7:43:51:13:74:9d:cc:ce:f8:28:62:87:52:23:f1:
         4e:e0:4a:29:ef:95:d4:7e:19:de:c0:d5:f1:74:47:02:7a:21:
         af:fe:fd:0b:24:52:72:81:d7:ab:12:ef:0f:03:dd:2c:9b:66:
         2e:05:7e:1b:3d:0f:17:27:55:cc:d5:f3:3b:cc:f1:c2:1b:df:
         2a:10:7b:17:cd:33:1c:28:14:59:6c:c7:79:6a:46:b8:d9:13:
         40:3e:e0:0f:ab:2f:40:8b:2a:e1:39:ce:ed:49:2c:41:0a:f3:
         c9:9c:a0:df:f8:bb:19:9f:89:8d:ab:fa:fc:2d:2e:6b:76:aa:
         2d:cf:22:d3:0d:ed:20:10:2e:6d:23:71:6b:14:33:06:32:09:
         ba:a8:66:5f:c0:3c:25:98:be:83:b1:45:72:7f:14:34:12:ef:
         4a:f5:88:2c
-----BEGIN CERTIFICATE-----
MIIEqzCCA5OgAwIBAgIGCgsMDQ4uMA0GCSqGSIb3DQEBCwUAMIGDMRYwFAYDVQQD
FA1DQUxDVVRUQUNBX0NBMQswCQYDVQQGEwJJTjEPMA0GA1UEChMGQ0lUUklYMQww
CgYDVQQLEwNBTkcxCzAJBgNVBAgTAktBMTAwLgYJKoZIhvcNAQkBFiFDQUxDVVRU
QUNBX0NBQENBTENVVFRBQ0FfbWFpbC5jb20wHhcNMTYwNzA4MDQzMzExWhcNMjYw
NzA2MDQzMzExWjB2MQswCQYDVQQIEwJLQTELMAkGA1UEBhMCSU4xHjAcBgNVBAMU
FTEzMl9DQUxDVVRUQUNBX3NlcnZlcjEpMCcGCSqGSIb3DQEJARYaMTMyX0NBTENV
VFRBQ0FAdGVzdF9jYS5jb20xDzANBgNVBAoTBkNJVFJJWDCCASIwDQYJKoZIhvcN
AQEBBQADggEPADCCAQoCggEBAOUcaa54MWlC5Go0MZ/WoBY5W3by/m2YsErl0gtW
E+xLkfr8TB7bIxTnqNJQv4orQQYj4K7npyPFuebC1+Aw1AF2H5P7RWuXONdA1+6Z
A5KwTYOLH4nmSSK3R9xd3mSkWtPgffz7BvCu17LE/yB98Kd9Pn4v1U1V9q4plpsa
cmwoc40cir8HM6frA+UyrdJPW3kT8hx9DIxG9b4QMUwVbfYW4lH+W+uEvLjuMai6
bdrjrJYgQmAj2zBEChflNjf47DZiTtUepx8FAUxoQSqMGIcxIpdwRCBvQ4sEsOQi
Zb03rjhgACtGfzfIoSemap45a8q+6AR50Lv+m1n2vbYWk7cCAwEAAaOCAS8wggEr
MBEGCWCGSAGG+EIBAQQEAwIGQDAdBgNVHQ4EFgQUl5b1/DJ+Gsq9t9iitZ7bsxp3
3KkwgbgGA1UdIwSBsDCBrYAUNy57J0ZLz0cQrCsuutDzZnXrUnWhgYmkgYYwgYMx
FjAUBgNVBAMUDUNBTENVVFRBQ0FfQ0ExCzAJBgNVBAYTAklOMQ8wDQYDVQQKEwZD
SVRSSVgxDDAKBgNVBAsTA0FORzELMAkGA1UECBMCS0ExMDAuBgkqhkiG9w0BCQEW
IUNBTENVVFRBQ0FfQ0FAQ0FMQ1VUVEFDQV9tYWlsLmNvbYIJAKXGRw7mBjcYMDwG
CCsGAQUFBwEBBDAwLjAsBggrBgEFBQcwAYYgaHR0cDovLzE3Mi4xOC4yMC4xL3Jl
c3BvbmRlcnBhdGgwDQYJKoZIhvcNAQELBQADggEBACOVAZLgQS4T/MYOCvlXHoyI
Hl4s024sG8by7iOOzdPcYvAWQ0E0lBDx8KGHTl7Ab/oE++imy0tx4iUNBqG9qG3f
GjoIraT4f9nWdr6x1UvpvHjKT12KktWrnw+TCMdDURN0nczO+Chih1Ij8U7gSinv
ldR+Gd7A1fF0RwJ6Ia/+/QskUnKB16sS7w8D3SybZi4Ffhs9DxcnVczV8zvM8cIb
3yoQexfNMxwoFFlsx3lqRrjZE0A+4A+rL0CLKuE5zu1JLEEK88mcoN/4uxmfiY2r
+vwtLmt2qi3PItMN7SAQLm0jcWsUMwYyCbqoZl/APCWYvoOxRXJ/FDQS70r1iCw=
-----END CERTIFICATE-----
