Certificate:
    Data:
        Version: 3 (0x2)
        Serial Number: 11042563100206 (0xa0b0c0d0e2e)
    Signature Algorithm: sha256WithRSAEncryption
        Issuer: CN=KOCHICA_CA, C=IN, O=CITRIX, OU=ANG, ST=KA/emailAddress=KOCHICA_CA@KOCHICA_mail.com
        Validity
            Not Before: Jul  8 04:35:26 2016 GMT
            Not After : Jul  6 04:35:26 2026 GMT
        Subject: ST=KA, C=IN, CN=132_KOCHICA_server/emailAddress=132_KOCHICA@test_ca.com, O=CITRIX
        Subject Public Key Info:
            Public Key Algorithm: rsaEncryption
                Public-Key: (2048 bit)
                Modulus:
                    00:a0:1d:41:7d:d2:15:25:93:21:0e:27:c3:a3:c0:
                    e8:e9:75:da:a8:b9:c1:7b:c8:8c:80:00:1c:1a:20:
                    6d:62:93:12:16:53:92:1c:e8:77:9b:68:65:be:6e:
                    61:4e:d8:48:11:74:42:a0:33:ab:23:3b:b3:08:8b:
                    64:ca:c3:14:0a:07:11:78:8c:4f:ff:f8:d0:8b:cc:
                    ac:c4:d7:24:6b:82:4e:8e:ca:49:15:71:17:bd:65:
                    13:84:4e:24:ff:ac:d7:b7:a9:99:d4:d6:09:31:7c:
                    b0:b1:5b:ff:34:7e:52:5c:25:61:05:9d:f2:4b:d0:
                    38:da:6d:99:28:ea:17:94:7b:ed:42:d6:ad:d2:05:
                    0f:6f:05:e8:f7:f5:32:91:ae:45:89:09:e2:7e:66:
                    07:11:47:62:5c:c3:54:93:28:b6:86:7f:bd:8b:62:
                    82:56:de:e3:53:75:7a:93:a1:28:af:03:4e:ec:27:
                    ae:e7:e3:21:4d:6c:5c:aa:7d:1a:5a:67:0f:da:d7:
                    a1:8f:a6:5f:c2:c5:95:2f:64:5d:61:63:f3:8a:77:
                    46:86:a9:cc:80:1e:d7:7b:87:f0:8c:74:42:fe:6d:
                    cf:ff:85:ab:38:54:aa:c8:a4:6d:99:d4:b7:46:24:
                    28:a6:e0:46:77:67:89:ca:a9:a4:74:c3:03:79:0f:
                    30:99
                Exponent: 65537 (0x10001)
        X509v3 extensions:
            Netscape Cert Type: 
                SSL Server
            X509v3 Subject Key Identifier: 
                50:85:ED:6B:2B:D8:B2:AE:C0:FA:9A:49:A4:36:C8:D2:CB:B2:FE:BB
            X509v3 Authority Key Identifier: 
                keyid:BD:BB:95:76:5C:F9:2D:21:29:42:22:FD:91:AF:B8:39:24:AA:7E:37
                DirName:/CN=KOCHICA_CA/C=IN/O=CITRIX/OU=ANG/ST=KA/emailAddress=KOCHICA_CA@KOCHICA_mail.com
                serial:E1:10:ED:B2:3C:3D:E3:71

            Authority Information Access: 
                OCSP - URI:http://172.22.20.1/responderpath

    Signature Algorithm: sha256WithRSAEncryption
         87:3e:a5:eb:ec:a4:62:14:19:da:9b:4a:c7:76:95:09:15:cc:
         d4:e6:87:f7:8a:0f:59:cd:44:72:cd:e3:15:47:50:47:02:15:
         80:47:92:fc:e7:8a:2b:59:17:41:c2:31:d5:b1:81:ea:c7:57:
         61:42:5e:00:aa:b6:eb:78:ef:df:20:d7:7b:6f:a2:74:95:c8:
         86:fe:4d:25:fc:3a:c0:97:46:76:4c:b9:67:bd:6f:12:0a:a8:
         da:44:17:19:a4:ba:fc:8a:fb:67:56:c0:92:6e:a0:32:23:bf:
         a6:79:aa:77:e6:1f:d1:0a:a3:28:63:cb:5f:8c:79:7b:a9:ce:
         37:21:54:fe:24:80:8f:91:5f:35:c2:f2:aa:a4:08:e1:3c:b6:
         94:d9:e8:6a:a8:48:41:f7:86:a7:06:13:42:d0:99:26:13:b4:
         3e:b7:0a:51:4f:ce:9c:f4:cf:2a:54:7d:1a:49:a9:f1:4f:8c:
         2d:69:c4:80:8c:f7:7b:43:e6:77:e4:fd:ac:47:5a:61:5f:9e:
         24:ca:8e:47:e8:1d:20:12:8c:e0:78:9f:2d:e6:1f:68:c8:b9:
         66:6e:f7:c8:a5:24:a2:2b:0d:48:d4:72:4c:a7:e7:5c:25:85:
         60:11:1f:7a:53:89:1d:df:a2:fb:92:0c:5b:5d:f5:cc:e2:f9:
         5d:bc:e0:e3
-----BEGIN CERTIFICATE-----
MIIEjzCCA3egAwIBAgIGCgsMDQ4uMA0GCSqGSIb3DQEBCwUAMHoxEzARBgNVBAMU
CktPQ0hJQ0FfQ0ExCzAJBgNVBAYTAklOMQ8wDQYDVQQKEwZDSVRSSVgxDDAKBgNV
BAsTA0FORzELMAkGA1UECBMCS0ExKjAoBgkqhkiG9w0BCQEWG0tPQ0hJQ0FfQ0FA
S09DSElDQV9tYWlsLmNvbTAeFw0xNjA3MDgwNDM1MjZaFw0yNjA3MDYwNDM1MjZa
MHAxCzAJBgNVBAgTAktBMQswCQYDVQQGEwJJTjEbMBkGA1UEAxQSMTMyX0tPQ0hJ
Q0Ffc2VydmVyMSYwJAYJKoZIhvcNAQkBFhcxMzJfS09DSElDQUB0ZXN0X2NhLmNv
bTEPMA0GA1UEChMGQ0lUUklYMIIBIjANBgkqhkiG9w0BAQEFAAOCAQ8AMIIBCgKC
AQEAoB1BfdIVJZMhDifDo8Do6XXaqLnBe8iMgAAcGiBtYpMSFlOSHOh3m2hlvm5h
TthIEXRCoDOrIzuzCItkysMUCgcReIxP//jQi8ysxNcka4JOjspJFXEXvWUThE4k
/6zXt6mZ1NYJMXywsVv/NH5SXCVhBZ3yS9A42m2ZKOoXlHvtQtat0gUPbwXo9/Uy
ka5FiQnifmYHEUdiXMNUkyi2hn+9i2KCVt7jU3V6k6EorwNO7Ceu5+MhTWxcqn0a
WmcP2tehj6ZfwsWVL2RdYWPzindGhqnMgB7Xe4fwjHRC/m3P/4WrOFSqyKRtmdS3
RiQopuBGd2eJyqmkdMMDeQ8wmQIDAQABo4IBIzCCAR8wEQYJYIZIAYb4QgEBBAQD
AgZAMB0GA1UdDgQWBBRQhe1rK9iyrsD6mkmkNsjSy7L+uzCBrAYDVR0jBIGkMIGh
gBS9u5V2XPktISlCIv2Rr7g5JKp+N6F+pHwwejETMBEGA1UEAxQKS09DSElDQV9D
QTELMAkGA1UEBhMCSU4xDzANBgNVBAoTBkNJVFJJWDEMMAoGA1UECxMDQU5HMQsw
CQYDVQQIEwJLQTEqMCgGCSqGSIb3DQEJARYbS09DSElDQV9DQUBLT0NISUNBX21h
aWwuY29tggkA4RDtsjw943EwPAYIKwYBBQUHAQEEMDAuMCwGCCsGAQUFBzABhiBo
dHRwOi8vMTcyLjIyLjIwLjEvcmVzcG9uZGVycGF0aDANBgkqhkiG9w0BAQsFAAOC
AQEAhz6l6+ykYhQZ2ptKx3aVCRXM1OaH94oPWc1Ecs3jFUdQRwIVgEeS/OeKK1kX
QcIx1bGB6sdXYUJeAKq263jv3yDXe2+idJXIhv5NJfw6wJdGdky5Z71vEgqo2kQX
GaS6/Ir7Z1bAkm6gMiO/pnmqd+Yf0QqjKGPLX4x5e6nONyFU/iSAj5FfNcLyqqQI
4Ty2lNnoaqhIQfeGpwYTQtCZJhO0PrcKUU/OnPTPKlR9Gkmp8U+MLWnEgIz3e0Pm
d+T9rEdaYV+eJMqOR+gdIBKM4HifLeYfaMi5Zm73yKUkoisNSNRyTKfnXCWFYBEf
elOJHd+i+5IMW131zOL5Xbzg4w==
-----END CERTIFICATE-----
