Certificate:
    Data:
        Version: 3 (0x2)
        Serial Number: 11042563100206 (0xa0b0c0d0e2e)
    Signature Algorithm: sha256WithRSAEncryption
        Issuer: CN=BHOPALCA_CA, C=IN, O=CITRIX, OU=ANG, ST=KA/emailAddress=BHOPALCA_CA@BHOPALCA_mail.com
        Validity
            Not Before: Jul  8 04:32:40 2016 GMT
            Not After : Jul  6 04:32:40 2026 GMT
        Subject: ST=KA, C=IN, CN=132_BHOPALCA_server/emailAddress=132_BHOPALCA@test_ca.com, O=CITRIX
        Subject Public Key Info:
            Public Key Algorithm: rsaEncryption
                Public-Key: (2048 bit)
                Modulus:
                    00:a7:c8:80:49:7c:2f:90:5f:6f:26:c4:4c:87:57:
                    9b:eb:23:21:b5:2e:a7:c9:35:9b:7c:67:53:43:44:
                    a3:cb:d5:8e:7d:f3:a5:71:3e:18:0e:4e:a4:08:e4:
                    53:5f:1d:1c:78:67:82:0a:4e:ad:fa:8c:e2:e7:32:
                    33:4b:88:f2:91:03:58:9a:a7:f9:ab:fb:38:e1:36:
                    f6:6c:d9:8f:d8:a5:61:54:1c:c9:ba:fb:cd:b6:91:
                    8c:9e:8c:39:d5:46:a3:0d:a6:2a:23:8d:c4:29:06:
                    14:1f:30:1c:a1:1f:01:43:42:a0:d1:ea:84:39:93:
                    2d:98:3e:26:6a:d7:c9:5c:a2:8c:d3:3f:79:c6:28:
                    94:85:2e:e7:11:3e:80:c8:70:7a:87:ad:b5:60:f1:
                    7a:d8:b1:f2:a6:21:78:f2:06:18:03:07:05:4b:ce:
                    45:56:81:e6:f6:23:a3:a8:a4:3c:6b:10:af:08:a2:
                    f5:cd:c8:35:1f:6e:c5:be:12:b1:1f:93:73:ff:8a:
                    c9:a3:bc:9b:b4:5b:3c:b8:89:44:c9:9d:1a:6d:a8:
                    d4:8d:84:28:54:da:d0:2e:52:91:23:d4:7f:0b:c8:
                    83:a5:63:4e:fe:39:63:1d:60:f2:3a:1a:92:23:56:
                    9b:62:4c:36:c4:9f:01:c2:8f:82:e4:40:23:05:bb:
                    12:eb
                Exponent: 65537 (0x10001)
        X509v3 extensions:
            Netscape Cert Type: 
                SSL Server
            X509v3 Subject Key Identifier: 
                70:D4:CE:F6:70:DB:A1:40:77:9B:5F:09:9E:98:C4:30:4A:D9:76:F0
            X509v3 Authority Key Identifier: 
                keyid:A6:66:0E:59:0F:3C:5C:11:35:B2:B3:99:59:A9:D3:A6:B1:5E:95:D2
                DirName:/CN=BHOPALCA_CA/C=IN/O=CITRIX/OU=ANG/ST=KA/emailAddress=BHOPALCA_CA@BHOPALCA_mail.com
                serial:BE:89:55:F3:65:28:17:9A

            Authority Information Access: 
                OCSP - URI:http://172.17.20.1/responderpath

    Signature Algorithm: sha256WithRSAEncryption
         28:7f:77:93:d1:f7:5a:af:eb:cb:c8:63:03:44:bc:b5:ae:f2:
         b9:e9:48:67:49:e0:34:22:97:4b:e0:19:9f:12:cb:c4:dc:63:
         9f:45:d2:0b:01:a2:df:eb:2b:02:45:e4:39:31:b1:fe:3d:d9:
         67:fb:64:0d:82:82:5d:57:88:b9:29:57:62:f7:8b:d7:4f:ce:
         d8:f5:cc:db:e3:66:47:07:44:28:a0:f6:a0:fe:26:88:fa:96:
         97:ef:c3:7f:47:9a:2d:b1:d2:6f:9b:5d:69:ea:ec:e1:31:ed:
         70:e9:d3:4a:57:e3:0b:c0:77:a6:e8:0e:a1:b5:0c:b6:a7:39:
         64:4f:0f:23:7d:24:31:95:31:c9:e2:99:b1:e2:50:32:5d:ba:
         a1:8e:2b:cb:d5:c6:de:94:78:57:6f:e8:8b:6e:65:4f:40:89:
         8e:05:a3:62:fd:53:03:1f:da:90:d4:51:ee:24:82:aa:9b:2c:
         f0:42:34:c6:81:3a:13:a4:b3:08:96:3d:fa:dc:24:18:b0:56:
         a6:38:11:04:a0:da:85:29:16:4d:01:3d:72:3e:8c:7e:59:8d:
         74:27:a7:a1:c0:83:d7:68:6e:99:8b:f0:91:8c:09:aa:22:9c:
         eb:26:e8:a3:79:e3:9f:a1:1b:dc:2b:a4:2d:37:fe:c0:6b:27:
         a3:d3:6e:d1
-----BEGIN CERTIFICATE-----
MIIEmDCCA4CgAwIBAgIGCgsMDQ4uMA0GCSqGSIb3DQEBCwUAMH0xFDASBgNVBAMU
C0JIT1BBTENBX0NBMQswCQYDVQQGEwJJTjEPMA0GA1UEChMGQ0lUUklYMQwwCgYD
VQQLEwNBTkcxCzAJBgNVBAgTAktBMSwwKgYJKoZIhvcNAQkBFh1CSE9QQUxDQV9D
QUBCSE9QQUxDQV9tYWlsLmNvbTAeFw0xNjA3MDgwNDMyNDBaFw0yNjA3MDYwNDMy
NDBaMHIxCzAJBgNVBAgTAktBMQswCQYDVQQGEwJJTjEcMBoGA1UEAxQTMTMyX0JI
T1BBTENBX3NlcnZlcjEnMCUGCSqGSIb3DQEJARYYMTMyX0JIT1BBTENBQHRlc3Rf
Y2EuY29tMQ8wDQYDVQQKEwZDSVRSSVgwggEiMA0GCSqGSIb3DQEBAQUAA4IBDwAw
ggEKAoIBAQCnyIBJfC+QX28mxEyHV5vrIyG1LqfJNZt8Z1NDRKPL1Y5986VxPhgO
TqQI5FNfHRx4Z4IKTq36jOLnMjNLiPKRA1iap/mr+zjhNvZs2Y/YpWFUHMm6+822
kYyejDnVRqMNpiojjcQpBhQfMByhHwFDQqDR6oQ5ky2YPiZq18lcoozTP3nGKJSF
LucRPoDIcHqHrbVg8XrYsfKmIXjyBhgDBwVLzkVWgeb2I6OopDxrEK8IovXNyDUf
bsW+ErEfk3P/ismjvJu0Wzy4iUTJnRptqNSNhChU2tAuUpEj1H8LyIOlY07+OWMd
YPI6GpIjVptiTDbEnwHCj4LkQCMFuxLrAgMBAAGjggEnMIIBIzARBglghkgBhvhC
AQEEBAMCBkAwHQYDVR0OBBYEFHDUzvZw26FAd5tfCZ6YxDBK2XbwMIGwBgNVHSME
gagwgaWAFKZmDlkPPFwRNbKzmVmp06axXpXSoYGBpH8wfTEUMBIGA1UEAxQLQkhP
UEFMQ0FfQ0ExCzAJBgNVBAYTAklOMQ8wDQYDVQQKEwZDSVRSSVgxDDAKBgNVBAsT
A0FORzELMAkGA1UECBMCS0ExLDAqBgkqhkiG9w0BCQEWHUJIT1BBTENBX0NBQEJI
T1BBTENBX21haWwuY29tggkAvolV82UoF5owPAYIKwYBBQUHAQEEMDAuMCwGCCsG
AQUFBzABhiBodHRwOi8vMTcyLjE3LjIwLjEvcmVzcG9uZGVycGF0aDANBgkqhkiG
9w0BAQsFAAOCAQEAKH93k9H3Wq/ry8hjA0S8ta7yuelIZ0ngNCKXS+AZnxLLxNxj
n0XSCwGi3+srAkXkOTGx/j3ZZ/tkDYKCXVeIuSlXYveL10/O2PXM2+NmRwdEKKD2
oP4miPqWl+/Df0eaLbHSb5tdaers4THtcOnTSlfjC8B3pugOobUMtqc5ZE8PI30k
MZUxyeKZseJQMl26oY4ry9XG3pR4V2/oi25lT0CJjgWjYv1TAx/akNRR7iSCqpss
8EI0xoE6E6SzCJY9+twkGLBWpjgRBKDahSkWTQE9cj6MflmNdCenocCD12humYvw
kYwJqiKc6yboo3njn6Eb3CukLTf+wGsno9Nu0Q==
-----END CERTIFICATE-----
