Certificate:
    Data:
        Version: 3 (0x2)
        Serial Number: 11042563100207 (0xa0b0c0d0e2f)
    Signature Algorithm: sha256WithRSAEncryption
        Issuer: CN=MUMBAICA_CA, C=IN, O=CITRIX, OU=ANG, ST=KA/emailAddress=MUMBAICA_CA@MUMBAICA_mail.com
        Validity
            Not Before: Jul  8 04:35:54 2016 GMT
            Not After : Jul  6 04:35:54 2026 GMT
        Subject: ST=KA, C=IN, CN=133_MUMBAICA_server/emailAddress=133_MUMBAICA@test_ca.com, O=CITRIX
        Subject Public Key Info:
            Public Key Algorithm: rsaEncryption
                Public-Key: (2048 bit)
                Modulus:
                    00:ad:8e:58:23:bd:87:e9:01:d3:2b:9b:65:b1:d3:
                    d6:98:f9:7b:ce:f5:71:76:7a:d1:5b:cc:3f:7f:2a:
                    cd:69:3d:38:b1:22:b5:a6:f1:2c:a2:25:87:cd:ad:
                    eb:c0:ce:58:8e:6f:a6:cf:22:5d:42:15:81:5a:38:
                    30:d9:ef:a3:86:d0:52:20:27:01:7e:4e:60:59:27:
                    82:0b:72:63:6a:26:e5:e6:23:86:de:2f:c1:2a:c1:
                    c0:48:8e:5c:11:2d:b1:a0:37:4f:2b:ea:ac:26:b7:
                    19:dc:34:d2:6d:38:32:4f:db:33:e3:5a:0e:79:58:
                    58:f5:9a:13:f5:c6:81:f4:8e:e6:f2:5d:ed:8e:f5:
                    c9:89:a7:a1:8a:85:27:b7:70:a5:2d:e5:de:56:1a:
                    ec:b9:03:1c:ba:a5:8c:71:55:ba:3e:05:77:e7:90:
                    a4:1e:c2:01:3a:e3:bf:bb:a8:2b:b6:6f:e8:1f:40:
                    cd:71:63:05:66:ea:ad:4b:1e:14:7f:39:35:15:a6:
                    67:9c:01:6a:cf:5c:9c:48:d1:b3:3b:52:14:f0:0d:
                    69:70:a4:20:8d:7b:92:e8:8d:81:74:33:dd:03:4d:
                    f5:c7:da:f6:42:c4:b5:95:bc:28:0b:76:01:cf:59:
                    eb:e8:ac:9b:2d:5b:84:24:cc:0b:48:bb:d0:c2:74:
                    22:9d
                Exponent: 65537 (0x10001)
        X509v3 extensions:
            Netscape Cert Type: 
                SSL Server
            X509v3 Subject Key Identifier: 
                A1:0B:DA:AD:38:3A:B9:81:8B:1D:78:28:E5:C6:CA:DA:69:69:87:C1
            X509v3 Authority Key Identifier: 
                keyid:37:79:BF:65:19:98:28:32:4E:EF:3E:44:14:19:A9:83:2B:AF:05:7A
                DirName:/CN=MUMBAICA_CA/C=IN/O=CITRIX/OU=ANG/ST=KA/emailAddress=MUMBAICA_CA@MUMBAICA_mail.com
                serial:EE:B1:37:EE:F6:D2:14:91

            Authority Information Access: 
                OCSP - URI:http://172.23.20.1/responderpath

    Signature Algorithm: sha256WithRSAEncryption
         88:d3:8c:f2:22:e8:d3:37:b6:e5:9e:8d:b7:23:da:f2:ff:64:
         69:cf:67:17:b2:20:0f:6b:49:6c:e0:da:fc:68:d3:86:17:de:
         43:e3:be:84:4c:e8:db:60:b4:16:fc:4c:19:f5:c6:04:a6:ad:
         79:cc:68:80:b3:7d:61:12:ed:3d:6e:21:96:67:54:8e:18:27:
         38:56:ee:9c:32:0c:00:5b:e8:a1:85:bd:7f:92:e5:54:b9:3a:
         73:44:da:68:8a:60:5b:19:9b:7c:1e:0b:6c:c3:97:68:c9:3e:
         40:ed:cc:97:4f:92:ef:cb:2f:97:77:60:93:44:64:e6:e5:89:
         73:07:cd:02:35:98:19:88:8d:2f:f4:4f:7f:77:20:63:d5:9e:
         5e:a6:e4:bc:77:8c:12:0d:ab:5b:bb:d8:e6:6b:9a:7b:15:84:
         8a:6c:b8:79:d1:07:cc:fc:3d:1a:79:84:af:f8:a8:fb:a6:e8:
         a4:5d:2d:cc:e3:39:96:c6:19:f9:8f:fe:0b:d0:42:80:ba:0e:
         5b:6c:90:e1:e2:ef:3f:68:bd:f0:50:70:83:d2:57:63:5c:b5:
         49:6a:c2:85:06:f9:12:ca:2c:e3:e9:74:da:41:8f:62:2f:e5:
         8e:1c:d3:c1:34:cb:6b:15:f6:cf:17:49:bc:f8:19:9b:24:b0:
         57:9a:60:6c
-----BEGIN CERTIFICATE-----
MIIEmDCCA4CgAwIBAgIGCgsMDQ4vMA0GCSqGSIb3DQEBCwUAMH0xFDASBgNVBAMU
C01VTUJBSUNBX0NBMQswCQYDVQQGEwJJTjEPMA0GA1UEChMGQ0lUUklYMQwwCgYD
VQQLEwNBTkcxCzAJBgNVBAgTAktBMSwwKgYJKoZIhvcNAQkBFh1NVU1CQUlDQV9D
QUBNVU1CQUlDQV9tYWlsLmNvbTAeFw0xNjA3MDgwNDM1NTRaFw0yNjA3MDYwNDM1
NTRaMHIxCzAJBgNVBAgTAktBMQswCQYDVQQGEwJJTjEcMBoGA1UEAxQTMTMzX01V
TUJBSUNBX3NlcnZlcjEnMCUGCSqGSIb3DQEJARYYMTMzX01VTUJBSUNBQHRlc3Rf
Y2EuY29tMQ8wDQYDVQQKEwZDSVRSSVgwggEiMA0GCSqGSIb3DQEBAQUAA4IBDwAw
ggEKAoIBAQCtjlgjvYfpAdMrm2Wx09aY+XvO9XF2etFbzD9/Ks1pPTixIrWm8Syi
JYfNrevAzliOb6bPIl1CFYFaODDZ76OG0FIgJwF+TmBZJ4ILcmNqJuXmI4beL8Eq
wcBIjlwRLbGgN08r6qwmtxncNNJtODJP2zPjWg55WFj1mhP1xoH0jubyXe2O9cmJ
p6GKhSe3cKUt5d5WGuy5Axy6pYxxVbo+BXfnkKQewgE647+7qCu2b+gfQM1xYwVm
6q1LHhR/OTUVpmecAWrPXJxI0bM7UhTwDWlwpCCNe5LojYF0M90DTfXH2vZCxLWV
vCgLdgHPWevorJstW4QkzAtIu9DCdCKdAgMBAAGjggEnMIIBIzARBglghkgBhvhC
AQEEBAMCBkAwHQYDVR0OBBYEFKEL2q04OrmBix14KOXGytppaYfBMIGwBgNVHSME
gagwgaWAFDd5v2UZmCgyTu8+RBQZqYMrrwV6oYGBpH8wfTEUMBIGA1UEAxQLTVVN
QkFJQ0FfQ0ExCzAJBgNVBAYTAklOMQ8wDQYDVQQKEwZDSVRSSVgxDDAKBgNVBAsT
A0FORzELMAkGA1UECBMCS0ExLDAqBgkqhkiG9w0BCQEWHU1VTUJBSUNBX0NBQE1V
TUJBSUNBX21haWwuY29tggkA7rE37vbSFJEwPAYIKwYBBQUHAQEEMDAuMCwGCCsG
AQUFBzABhiBodHRwOi8vMTcyLjIzLjIwLjEvcmVzcG9uZGVycGF0aDANBgkqhkiG
9w0BAQsFAAOCAQEAiNOM8iLo0ze25Z6NtyPa8v9kac9nF7IgD2tJbODa/GjThhfe
Q+O+hEzo22C0FvxMGfXGBKatecxogLN9YRLtPW4hlmdUjhgnOFbunDIMAFvooYW9
f5LlVLk6c0TaaIpgWxmbfB4LbMOXaMk+QO3Ml0+S78svl3dgk0Rk5uWJcwfNAjWY
GYiNL/RPf3cgY9WeXqbkvHeMEg2rW7vY5muaexWEimy4edEHzPw9GnmEr/io+6bo
pF0tzOM5lsYZ+Y/+C9BCgLoOW2yQ4eLvP2i98FBwg9JXY1y1SWrChQb5Esos4+l0
2kGPYi/ljhzTwTTLaxX2zxdJvPgZmySwV5pgbA==
-----END CERTIFICATE-----
