Certificate:
    Data:
        Version: 3 (0x2)
        Serial Number: 11042563100207 (0xa0b0c0d0e2f)
    Signature Algorithm: sha256WithRSAEncryption
        Issuer: CN=BANGALORECA_CA, C=IN, O=CITRIX, OU=ANG, ST=KA/emailAddress=BANGALORECA_CA@BANGALORECA_mail.com
        Validity
            Not Before: Jul  8 04:31:28 2016 GMT
            Not After : Jul  6 04:31:28 2026 GMT
        Subject: ST=KA, C=IN, CN=133_BANGALORECA_server/emailAddress=133_BANGALORECA@test_ca.com, O=CITRIX
        Subject Public Key Info:
            Public Key Algorithm: rsaEncryption
                Public-Key: (2048 bit)
                Modulus:
                    00:d9:a0:44:39:f7:d4:d5:73:16:07:80:51:a7:99:
                    39:20:d9:d6:78:37:a5:80:c8:78:3b:b4:cc:31:0b:
                    f7:87:91:3a:c7:64:0f:e4:79:e3:04:b7:9f:41:f5:
                    60:38:59:7d:5f:1c:be:f9:7f:9b:1f:9e:f1:e4:c6:
                    df:d5:d8:2e:6b:39:bb:12:6b:3d:ff:0a:d4:66:3a:
                    9a:e0:76:a4:66:78:cc:45:82:df:38:44:b0:f3:e3:
                    84:79:c5:1b:b0:8e:fb:8c:65:4f:79:26:2d:73:74:
                    4f:09:9a:e5:0d:40:a0:aa:ca:ee:2d:32:20:32:25:
                    cd:c9:8e:97:cc:1c:79:db:e5:7a:b0:13:8b:dc:0e:
                    f4:27:58:2d:05:6d:35:b4:79:5b:e3:8a:f5:b4:95:
                    f0:5e:a2:6e:d9:27:db:93:48:b4:35:39:a4:64:fb:
                    39:26:90:f4:76:e2:0a:13:67:56:ad:b9:f1:fe:dd:
                    33:b4:bb:f2:da:01:36:f3:ea:d5:1d:0d:1b:62:f6:
                    f6:c7:0f:b9:63:e8:9c:ed:c7:f1:6f:d8:dd:fb:8c:
                    66:54:25:21:e4:3e:5d:86:34:04:9a:b8:63:84:5c:
                    55:00:d2:81:87:02:94:92:80:81:3f:11:cc:50:52:
                    ef:e5:56:19:85:44:8b:3f:cd:41:25:12:7a:bc:d7:
                    ed:25
                Exponent: 65537 (0x10001)
        X509v3 extensions:
            Netscape Cert Type: 
                SSL Server
            X509v3 Subject Key Identifier: 
                A9:5D:D3:85:89:7A:18:65:D0:B2:C6:11:F6:F7:FC:29:E0:4B:B0:51
            X509v3 Authority Key Identifier: 
                keyid:3B:D6:D1:53:18:87:05:22:BB:EE:C3:0F:F5:CE:0F:6B:A2:93:A7:B8
                DirName:/CN=BANGALORECA_CA/C=IN/O=CITRIX/OU=ANG/ST=KA/emailAddress=BANGALORECA_CA@BANGALORECA_mail.com
                serial:A1:AC:B4:DA:46:53:58:40

            Authority Information Access: 
                OCSP - URI:http://172.16.20.1/responderpath

    Signature Algorithm: sha256WithRSAEncryption
         37:ab:3b:32:ea:bf:11:2c:fe:e2:2a:29:42:84:e1:00:46:3b:
         58:8b:68:6b:01:85:f0:1a:0e:8f:99:67:7a:83:82:21:3e:22:
         a8:c0:84:29:d5:9d:12:14:a3:ad:14:0f:a5:89:e9:0d:9b:f3:
         07:64:0c:78:13:6c:88:53:7a:c4:e5:07:b4:21:9d:c3:4a:a6:
         83:ab:f6:8f:42:e2:20:29:4b:75:69:7c:54:ca:6d:8d:71:a4:
         d2:04:4b:be:8d:4e:e0:b3:46:6a:e1:5e:ad:87:a7:dd:1d:66:
         73:0a:7e:65:8a:72:9b:2b:67:45:2f:f5:a9:20:54:f2:08:3f:
         42:ca:6e:d8:84:35:25:b2:ab:f3:de:b1:34:b0:8d:6c:a6:43:
         a1:ef:8f:30:ea:05:fe:25:4e:f4:f7:c6:45:28:9c:6d:93:5c:
         e7:54:cc:62:2c:46:dc:84:44:83:5f:8c:20:6c:e0:8e:8b:3a:
         90:7c:1c:29:c4:2f:a2:5c:12:5d:db:49:fa:a5:f3:3f:2d:cd:
         c1:5a:a4:69:71:98:ff:f2:84:0d:e7:38:83:ed:49:6f:5a:16:
         69:72:ab:5a:7d:2a:fe:98:5a:ff:f9:e3:69:e7:f8:54:6b:5c:
         98:76:2d:cd:a4:a5:de:b8:d2:01:25:7d:86:02:57:0f:42:8a:
         c2:64:c1:11
-----BEGIN CERTIFICATE-----
MIIEszCCA5ugAwIBAgIGCgsMDQ4vMA0GCSqGSIb3DQEBCwUAMIGGMRcwFQYDVQQD
FA5CQU5HQUxPUkVDQV9DQTELMAkGA1UEBhMCSU4xDzANBgNVBAoTBkNJVFJJWDEM
MAoGA1UECxMDQU5HMQswCQYDVQQIEwJLQTEyMDAGCSqGSIb3DQEJARYjQkFOR0FM
T1JFQ0FfQ0FAQkFOR0FMT1JFQ0FfbWFpbC5jb20wHhcNMTYwNzA4MDQzMTI4WhcN
MjYwNzA2MDQzMTI4WjB4MQswCQYDVQQIEwJLQTELMAkGA1UEBhMCSU4xHzAdBgNV
BAMUFjEzM19CQU5HQUxPUkVDQV9zZXJ2ZXIxKjAoBgkqhkiG9w0BCQEWGzEzM19C
QU5HQUxPUkVDQUB0ZXN0X2NhLmNvbTEPMA0GA1UEChMGQ0lUUklYMIIBIjANBgkq
hkiG9w0BAQEFAAOCAQ8AMIIBCgKCAQEA2aBEOffU1XMWB4BRp5k5INnWeDelgMh4
O7TMMQv3h5E6x2QP5HnjBLefQfVgOFl9Xxy++X+bH57x5Mbf1dguazm7Ems9/wrU
Zjqa4HakZnjMRYLfOESw8+OEecUbsI77jGVPeSYtc3RPCZrlDUCgqsruLTIgMiXN
yY6XzBx52+V6sBOL3A70J1gtBW01tHlb44r1tJXwXqJu2Sfbk0i0NTmkZPs5JpD0
duIKE2dWrbnx/t0ztLvy2gE28+rVHQ0bYvb2xw+5Y+ic7cfxb9jd+4xmVCUh5D5d
hjQEmrhjhFxVANKBhwKUkoCBPxHMUFLv5VYZhUSLP81BJRJ6vNftJQIDAQABo4IB
MjCCAS4wEQYJYIZIAYb4QgEBBAQDAgZAMB0GA1UdDgQWBBSpXdOFiXoYZdCyxhH2
9/wp4EuwUTCBuwYDVR0jBIGzMIGwgBQ71tFTGIcFIrvuww/1zg9ropOnuKGBjKSB
iTCBhjEXMBUGA1UEAxQOQkFOR0FMT1JFQ0FfQ0ExCzAJBgNVBAYTAklOMQ8wDQYD
VQQKEwZDSVRSSVgxDDAKBgNVBAsTA0FORzELMAkGA1UECBMCS0ExMjAwBgkqhkiG
9w0BCQEWI0JBTkdBTE9SRUNBX0NBQEJBTkdBTE9SRUNBX21haWwuY29tggkAoay0
2kZTWEAwPAYIKwYBBQUHAQEEMDAuMCwGCCsGAQUFBzABhiBodHRwOi8vMTcyLjE2
LjIwLjEvcmVzcG9uZGVycGF0aDANBgkqhkiG9w0BAQsFAAOCAQEAN6s7Muq/ESz+
4iopQoThAEY7WItoawGF8BoOj5lneoOCIT4iqMCEKdWdEhSjrRQPpYnpDZvzB2QM
eBNsiFN6xOUHtCGdw0qmg6v2j0LiIClLdWl8VMptjXGk0gRLvo1O4LNGauFerYen
3R1mcwp+ZYpymytnRS/1qSBU8gg/Qspu2IQ1JbKr896xNLCNbKZDoe+PMOoF/iVO
9PfGRSicbZNc51TMYixG3IREg1+MIGzgjos6kHwcKcQvolwSXdtJ+qXzPy3NwVqk
aXGY//KEDec4g+1Jb1oWaXKrWn0q/pha//njaef4VGtcmHYtzaSl3rjSASV9hgJX
D0KKwmTBEQ==
-----END CERTIFICATE-----
