Certificate:
    Data:
        Version: 3 (0x2)
        Serial Number: 11042563100207 (0xa0b0c0d0e2f)
    Signature Algorithm: sha256WithRSAEncryption
        Issuer: CN=RANCHICA_CA, C=IN, O=CITRIX, OU=ANG, ST=KA/emailAddress=RANCHICA_CA@RANCHICA_mail.com
        Validity
            Not Before: Jul  8 04:38:55 2016 GMT
            Not After : Jul  6 04:38:55 2026 GMT
        Subject: ST=KA, C=IN, CN=133_RANCHICA_server/emailAddress=133_RANCHICA@test_ca.com, O=CITRIX
        Subject Public Key Info:
            Public Key Algorithm: rsaEncryption
                Public-Key: (2048 bit)
                Modulus:
                    00:e4:ed:24:d7:9a:2d:26:a0:ca:7d:73:16:81:91:
                    48:82:25:eb:46:c9:ef:f1:0e:94:e4:d0:1f:0a:cf:
                    98:ed:32:07:7b:c5:12:54:de:80:3c:af:84:8f:cc:
                    c8:62:77:83:5d:b9:0b:c9:09:4d:22:28:e0:2e:32:
                    64:c1:95:6a:b6:4e:bc:f0:8b:8a:11:d7:f8:b5:83:
                    b3:15:b4:99:6e:18:50:7b:82:12:19:1b:57:6e:c5:
                    8e:12:f6:e6:87:80:2c:e7:e9:ff:13:81:2b:74:a7:
                    71:00:0a:46:b6:7b:a4:de:36:57:55:29:a4:ec:ce:
                    1f:b9:15:0c:fb:20:48:60:57:ff:10:98:82:7d:42:
                    7d:18:bf:9f:7d:b3:44:e3:3d:78:ba:7b:a0:24:0c:
                    80:f9:b7:9e:60:14:16:70:cc:a3:f0:77:07:19:e0:
                    45:67:bb:a8:2f:73:df:34:fd:61:fc:d6:a3:e3:cc:
                    f4:b7:f8:47:96:ac:2a:bb:65:13:16:17:1b:be:85:
                    89:5c:89:91:27:e8:de:3a:00:8b:9b:6f:da:0f:d8:
                    8d:d5:2d:a4:47:12:14:85:9b:b7:12:6f:9c:8a:71:
                    39:69:69:5f:31:50:72:ed:7e:19:2f:8f:35:4c:53:
                    62:48:fb:36:c7:77:eb:9a:5b:3d:a2:55:c1:fa:bb:
                    57:79
                Exponent: 65537 (0x10001)
        X509v3 extensions:
            Netscape Cert Type: 
                SSL Server
            X509v3 Subject Key Identifier: 
                30:F6:54:AB:80:BA:54:B2:3C:E6:76:D6:BC:B6:68:78:A1:C7:F8:36
            X509v3 Authority Key Identifier: 
                keyid:A7:10:6F:5D:0C:9F:9C:A2:F4:39:92:A3:7D:5C:B8:C0:25:71:BF:39
                DirName:/CN=RANCHICA_CA/C=IN/O=CITRIX/OU=ANG/ST=KA/emailAddress=RANCHICA_CA@RANCHICA_mail.com
                serial:E7:09:A4:3D:1C:C7:45:B1

            Authority Information Access: 
                OCSP - URI:http://172.27.20.1/responderpath

    Signature Algorithm: sha256WithRSAEncryption
         3e:0b:82:2e:fc:d9:39:fa:71:24:8b:e0:b3:d7:f0:8e:a7:8f:
         d9:95:c6:48:4a:0f:0a:53:00:70:27:aa:89:61:41:7e:f5:5f:
         d0:4c:83:56:ef:bb:e6:ec:88:3a:61:ed:24:f2:d3:16:df:c0:
         4a:20:87:83:9a:c5:6c:0a:11:93:aa:ab:25:84:22:7f:29:32:
         7c:d4:f4:e0:b1:68:38:2a:e6:70:99:b8:45:48:a4:75:ed:ff:
         91:46:7d:69:6d:5f:32:18:49:33:7f:7b:3d:83:09:2d:f1:c5:
         b3:e9:2d:1a:fb:31:fe:4e:27:0a:31:81:22:80:c6:7e:37:e1:
         ce:07:fe:ba:c3:a1:0e:2c:5e:d4:ea:e4:94:46:d4:22:a3:a7:
         b6:1e:e1:ca:ab:a0:ca:9d:7f:9b:1a:3f:67:32:c5:70:f8:55:
         00:d5:18:a2:6b:8c:08:f5:28:71:06:59:01:02:8a:24:cc:f1:
         a0:fd:3c:8b:6d:17:15:37:a5:68:27:b3:99:c2:ec:a9:c2:81:
         e3:73:5c:d5:8e:cc:a5:6f:f0:29:d9:93:43:4a:b9:d4:a5:1e:
         a0:f5:04:e5:ee:ab:e9:3b:e5:ae:aa:54:e9:ce:98:fb:54:78:
         83:09:1f:82:64:c4:bb:8e:80:58:73:98:f5:e1:66:81:ff:33:
         01:02:5b:19
-----BEGIN CERTIFICATE-----
MIIEmDCCA4CgAwIBAgIGCgsMDQ4vMA0GCSqGSIb3DQEBCwUAMH0xFDASBgNVBAMU
C1JBTkNISUNBX0NBMQswCQYDVQQGEwJJTjEPMA0GA1UEChMGQ0lUUklYMQwwCgYD
VQQLEwNBTkcxCzAJBgNVBAgTAktBMSwwKgYJKoZIhvcNAQkBFh1SQU5DSElDQV9D
QUBSQU5DSElDQV9tYWlsLmNvbTAeFw0xNjA3MDgwNDM4NTVaFw0yNjA3MDYwNDM4
NTVaMHIxCzAJBgNVBAgTAktBMQswCQYDVQQGEwJJTjEcMBoGA1UEAxQTMTMzX1JB
TkNISUNBX3NlcnZlcjEnMCUGCSqGSIb3DQEJARYYMTMzX1JBTkNISUNBQHRlc3Rf
Y2EuY29tMQ8wDQYDVQQKEwZDSVRSSVgwggEiMA0GCSqGSIb3DQEBAQUAA4IBDwAw
ggEKAoIBAQDk7STXmi0moMp9cxaBkUiCJetGye/xDpTk0B8Kz5jtMgd7xRJU3oA8
r4SPzMhid4NduQvJCU0iKOAuMmTBlWq2Trzwi4oR1/i1g7MVtJluGFB7ghIZG1du
xY4S9uaHgCzn6f8TgSt0p3EACka2e6TeNldVKaTszh+5FQz7IEhgV/8QmIJ9Qn0Y
v599s0TjPXi6e6AkDID5t55gFBZwzKPwdwcZ4EVnu6gvc980/WH81qPjzPS3+EeW
rCq7ZRMWFxu+hYlciZEn6N46AIubb9oP2I3VLaRHEhSFm7cSb5yKcTlpaV8xUHLt
fhkvjzVMU2JI+zbHd+uaWz2iVcH6u1d5AgMBAAGjggEnMIIBIzARBglghkgBhvhC
AQEEBAMCBkAwHQYDVR0OBBYEFDD2VKuAulSyPOZ21ry2aHihx/g2MIGwBgNVHSME
gagwgaWAFKcQb10Mn5yi9DmSo31cuMAlcb85oYGBpH8wfTEUMBIGA1UEAxQLUkFO
Q0hJQ0FfQ0ExCzAJBgNVBAYTAklOMQ8wDQYDVQQKEwZDSVRSSVgxDDAKBgNVBAsT
A0FORzELMAkGA1UECBMCS0ExLDAqBgkqhkiG9w0BCQEWHVJBTkNISUNBX0NBQFJB
TkNISUNBX21haWwuY29tggkA5wmkPRzHRbEwPAYIKwYBBQUHAQEEMDAuMCwGCCsG
AQUFBzABhiBodHRwOi8vMTcyLjI3LjIwLjEvcmVzcG9uZGVycGF0aDANBgkqhkiG
9w0BAQsFAAOCAQEAPguCLvzZOfpxJIvgs9fwjqeP2ZXGSEoPClMAcCeqiWFBfvVf
0EyDVu+75uyIOmHtJPLTFt/ASiCHg5rFbAoRk6qrJYQifykyfNT04LFoOCrmcJm4
RUikde3/kUZ9aW1fMhhJM397PYMJLfHFs+ktGvsx/k4nCjGBIoDGfjfhzgf+usOh
Dixe1OrklEbUIqOnth7hyqugyp1/mxo/ZzLFcPhVANUYomuMCPUocQZZAQKKJMzx
oP08i20XFTelaCezmcLsqcKB43Nc1Y7MpW/wKdmTQ0q51KUeoPUE5e6r6TvlrqpU
6c6Y+1R4gwkfgmTEu46AWHOY9eFmgf8zAQJbGQ==
-----END CERTIFICATE-----
