Certificate:
    Data:
        Version: 3 (0x2)
        Serial Number: 11042563100207 (0xa0b0c0d0e2f)
    Signature Algorithm: sha256WithRSAEncryption
        Issuer: CN=SHILLONGCA_CA, C=IN, O=CITRIX, OU=ANG, ST=KA/emailAddress=SHILLONGCA_CA@SHILLONGCA_mail.com
        Validity
            Not Before: Jul  8 04:40:14 2016 GMT
            Not After : Jul  6 04:40:14 2026 GMT
        Subject: ST=KA, C=IN, CN=133_SHILLONGCA_server/emailAddress=133_SHILLONGCA@test_ca.com, O=CITRIX
        Subject Public Key Info:
            Public Key Algorithm: rsaEncryption
                Public-Key: (2048 bit)
                Modulus:
                    00:d6:65:24:96:14:e9:27:87:7f:ff:22:17:f7:6f:
                    7d:98:d1:35:e4:14:9c:15:45:e6:82:4d:03:0c:37:
                    84:79:65:6c:b5:cd:30:5e:86:ac:be:48:0d:9f:ee:
                    97:b3:4f:eb:71:86:ec:e3:75:3d:c3:76:cc:ee:3e:
                    5d:8e:cf:7b:bc:04:3d:66:de:56:1b:4e:ea:6a:6c:
                    13:c3:cf:b5:ea:55:f7:59:44:76:50:03:96:73:f6:
                    05:90:08:ad:21:62:1d:1b:12:b4:6b:f3:54:56:83:
                    5f:ca:03:48:13:41:c0:88:2a:ba:45:2d:a6:6f:bb:
                    5f:28:50:7b:5d:45:73:88:13:61:4d:cd:a0:2c:08:
                    bd:26:d6:34:a9:64:28:e0:41:5b:dc:7c:66:23:3a:
                    e5:db:37:bb:9c:20:6c:e6:83:57:ce:93:71:c6:af:
                    70:0b:bb:2c:80:2c:83:f9:af:1e:d5:42:78:55:55:
                    33:5d:80:d3:b3:66:cd:40:4a:ac:9e:1a:20:fd:7c:
                    a9:da:ab:84:66:fc:69:10:48:5c:79:48:0d:4b:2e:
                    ed:e2:66:7f:6d:8e:9f:f0:e2:8c:95:bb:cd:21:d0:
                    d5:bb:99:84:99:8e:c1:fb:0f:b6:3e:10:2e:9d:b4:
                    c3:1c:4b:ef:53:61:fa:52:8b:8e:c6:e8:02:d4:ea:
                    e0:19
                Exponent: 65537 (0x10001)
        X509v3 extensions:
            Netscape Cert Type: 
                SSL Server
            X509v3 Subject Key Identifier: 
                8B:63:36:71:EC:FA:DB:3C:D9:72:B3:EE:DE:9D:C9:9E:A4:E4:C9:56
            X509v3 Authority Key Identifier: 
                keyid:FA:E9:1F:A5:AF:8B:4E:18:FF:EF:B7:EA:8F:FB:98:BC:59:23:81:DF
                DirName:/CN=SHILLONGCA_CA/C=IN/O=CITRIX/OU=ANG/ST=KA/emailAddress=SHILLONGCA_CA@SHILLONGCA_mail.com
                serial:FB:D0:92:FD:A2:7C:35:0C

            Authority Information Access: 
                OCSP - URI:http://172.28.20.1/responderpath

    Signature Algorithm: sha256WithRSAEncryption
         4b:d9:57:a8:2e:d7:ea:f8:e4:0c:24:02:75:94:f3:ad:2e:98:
         03:1a:bd:f9:7b:50:91:eb:e3:7c:b6:16:7e:13:92:1a:c3:5b:
         79:37:53:b6:93:0d:a2:1b:24:b5:63:ea:ec:3c:38:b5:e2:c4:
         ec:dd:bc:b8:21:9a:4b:7f:2a:59:a7:22:49:85:31:09:c7:b5:
         12:7f:17:87:bc:28:b7:7e:2c:ae:5d:f7:70:3a:24:3e:e8:50:
         b5:23:f5:22:8f:bc:dc:b6:ae:3e:fe:e1:85:53:e1:41:8b:52:
         e4:c6:7e:1b:ea:55:5c:cf:2b:88:c5:cb:6e:04:55:06:80:22:
         fd:de:bf:14:c5:3b:70:b9:48:30:c6:a9:48:f7:16:3b:48:01:
         67:29:8a:77:5e:64:f6:70:f7:ee:91:86:b4:aa:fc:df:ab:26:
         c7:86:af:4c:63:e7:49:1f:81:ad:31:00:c0:04:f2:33:76:61:
         a7:36:23:6e:22:02:aa:54:5a:25:2d:2e:f6:bd:6a:dc:a4:fa:
         b5:39:3e:94:bf:08:39:81:1b:c6:70:c5:9e:d1:0b:ea:4f:b5:
         07:61:ea:9a:ac:9c:a8:aa:04:35:4d:47:0f:44:57:38:c9:fa:
         c1:88:c2:60:5a:64:c5:a2:84:c5:c6:0b:07:65:c4:b3:27:d8:
         89:20:e7:71
-----BEGIN CERTIFICATE-----
MIIEqzCCA5OgAwIBAgIGCgsMDQ4vMA0GCSqGSIb3DQEBCwUAMIGDMRYwFAYDVQQD
FA1TSElMTE9OR0NBX0NBMQswCQYDVQQGEwJJTjEPMA0GA1UEChMGQ0lUUklYMQww
CgYDVQQLEwNBTkcxCzAJBgNVBAgTAktBMTAwLgYJKoZIhvcNAQkBFiFTSElMTE9O
R0NBX0NBQFNISUxMT05HQ0FfbWFpbC5jb20wHhcNMTYwNzA4MDQ0MDE0WhcNMjYw
NzA2MDQ0MDE0WjB2MQswCQYDVQQIEwJLQTELMAkGA1UEBhMCSU4xHjAcBgNVBAMU
FTEzM19TSElMTE9OR0NBX3NlcnZlcjEpMCcGCSqGSIb3DQEJARYaMTMzX1NISUxM
T05HQ0FAdGVzdF9jYS5jb20xDzANBgNVBAoTBkNJVFJJWDCCASIwDQYJKoZIhvcN
AQEBBQADggEPADCCAQoCggEBANZlJJYU6SeHf/8iF/dvfZjRNeQUnBVF5oJNAww3
hHllbLXNMF6GrL5IDZ/ul7NP63GG7ON1PcN2zO4+XY7Pe7wEPWbeVhtO6mpsE8PP
tepV91lEdlADlnP2BZAIrSFiHRsStGvzVFaDX8oDSBNBwIgqukUtpm+7XyhQe11F
c4gTYU3NoCwIvSbWNKlkKOBBW9x8ZiM65ds3u5wgbOaDV86TccavcAu7LIAsg/mv
HtVCeFVVM12A07NmzUBKrJ4aIP18qdqrhGb8aRBIXHlIDUsu7eJmf22On/DijJW7
zSHQ1buZhJmOwfsPtj4QLp20wxxL71Nh+lKLjsboAtTq4BkCAwEAAaOCAS8wggEr
MBEGCWCGSAGG+EIBAQQEAwIGQDAdBgNVHQ4EFgQUi2M2cez62zzZcrPu3p3JnqTk
yVYwgbgGA1UdIwSBsDCBrYAU+ukfpa+LThj/77fqj/uYvFkjgd+hgYmkgYYwgYMx
FjAUBgNVBAMUDVNISUxMT05HQ0FfQ0ExCzAJBgNVBAYTAklOMQ8wDQYDVQQKEwZD
SVRSSVgxDDAKBgNVBAsTA0FORzELMAkGA1UECBMCS0ExMDAuBgkqhkiG9w0BCQEW
IVNISUxMT05HQ0FfQ0FAU0hJTExPTkdDQV9tYWlsLmNvbYIJAPvQkv2ifDUMMDwG
CCsGAQUFBwEBBDAwLjAsBggrBgEFBQcwAYYgaHR0cDovLzE3Mi4yOC4yMC4xL3Jl
c3BvbmRlcnBhdGgwDQYJKoZIhvcNAQELBQADggEBAEvZV6gu1+r45AwkAnWU860u
mAMavfl7UJHr43y2Fn4TkhrDW3k3U7aTDaIbJLVj6uw8OLXixOzdvLghmkt/Klmn
IkmFMQnHtRJ/F4e8KLd+LK5d93A6JD7oULUj9SKPvNy2rj7+4YVT4UGLUuTGfhvq
VVzPK4jFy24EVQaAIv3evxTFO3C5SDDGqUj3FjtIAWcpindeZPZw9+6RhrSq/N+r
JseGr0xj50kfga0xAMAE8jN2Yac2I24iAqpUWiUtLva9atyk+rU5PpS/CDmBG8Zw
xZ7RC+pPtQdh6pqsnKiqBDVNRw9EVzjJ+sGIwmBaZMWihMXGCwdlxLMn2Ikg53E=
-----END CERTIFICATE-----
