Certificate:
    Data:
        Version: 3 (0x2)
        Serial Number: 11042563100208 (0xa0b0c0d0e30)
    Signature Algorithm: sha256WithRSAEncryption
        Issuer: CN=GOACA_CA, C=IN, O=CITRIX, OU=ANG, ST=KA/emailAddress=GOACA_CA@GOACA_mail.com
        Validity
            Not Before: Jul  8 04:35:03 2016 GMT
            Not After : Jul  6 04:35:03 2026 GMT
        Subject: ST=KA, C=IN, CN=134_GOACA_server/emailAddress=134_GOACA@test_ca.com, O=CITRIX
        Subject Public Key Info:
            Public Key Algorithm: rsaEncryption
                Public-Key: (2048 bit)
                Modulus:
                    00:b7:36:64:83:2d:29:0f:78:ab:1e:96:56:a7:41:
                    f4:8f:02:db:74:0d:f8:b8:2a:16:27:6f:8a:81:5c:
                    85:42:56:19:3e:48:f4:3d:fb:d7:9e:8b:53:f0:49:
                    e1:8d:98:04:98:5e:3b:a8:e6:98:04:3c:ac:29:9e:
                    c1:96:d8:98:2c:70:6f:17:36:eb:c5:ec:4a:52:5e:
                    e1:55:e5:89:b5:7b:02:52:8f:ce:69:d9:50:0c:81:
                    9c:98:8e:9e:ce:02:fc:4b:e2:5e:f0:49:81:76:c6:
                    9c:0b:66:cd:35:50:f6:31:4d:c3:ed:20:0b:01:9b:
                    6f:fc:8c:77:f1:41:0d:ef:01:74:3b:7d:58:d2:20:
                    8c:08:c5:9d:f9:90:94:13:a3:7d:90:a9:fa:cf:3b:
                    27:40:73:a6:ee:90:b8:13:45:1f:dc:0f:a0:a5:c5:
                    80:56:13:2f:73:7b:40:fa:83:b2:95:84:ed:fa:d7:
                    1f:bc:e9:ba:04:74:d0:c9:a8:2a:1b:89:30:60:70:
                    a2:75:24:89:7e:c8:a8:73:7d:6e:2a:6e:d1:e0:d0:
                    e5:24:18:c7:c0:c0:58:dc:2d:f8:d9:00:fa:51:64:
                    b3:4a:39:80:37:c5:f7:68:a7:86:70:c3:4b:f0:8c:
                    26:ac:06:71:f1:c3:38:4e:05:5b:66:d9:78:8c:55:
                    98:cd
                Exponent: 65537 (0x10001)
        X509v3 extensions:
            Netscape Cert Type: 
                SSL Server
            X509v3 Subject Key Identifier: 
                D4:8B:6D:E9:17:C0:B8:1A:CB:EB:46:64:6E:97:C6:4C:88:FB:5F:80
            X509v3 Authority Key Identifier: 
                keyid:81:03:00:D4:DC:70:D9:A7:03:08:1E:DC:9B:4C:AC:E6:59:CD:39:68
                DirName:/CN=GOACA_CA/C=IN/O=CITRIX/OU=ANG/ST=KA/emailAddress=GOACA_CA@GOACA_mail.com
                serial:FC:8B:0A:90:01:17:5F:1C

            Authority Information Access: 
                OCSP - URI:http://172.21.20.1/responderpath

    Signature Algorithm: sha256WithRSAEncryption
         3e:d0:6a:6f:24:64:29:67:a4:ac:bd:a4:9e:e1:a4:e3:bc:fd:
         a4:d5:e5:19:d8:68:44:5c:3a:1d:89:3c:0e:d2:a5:d0:ea:5a:
         32:8f:5d:1a:b9:6c:99:af:d7:b3:bb:18:5c:a4:65:88:43:c6:
         ef:37:06:67:1a:de:84:f6:f2:2d:e7:14:71:aa:77:4c:5e:6b:
         4d:1e:5d:f1:d8:ec:a1:5a:00:b8:00:01:e8:b7:cf:07:51:0b:
         14:ff:98:f2:f9:2a:6e:0a:d1:61:94:89:b5:4a:04:3e:9e:7c:
         13:87:e0:13:79:26:a5:4e:9b:23:b3:3c:79:72:be:e2:10:ac:
         94:69:5b:0a:eb:f3:89:a3:b7:77:c9:7f:2a:36:b8:74:fe:86:
         cc:5a:15:ef:cb:a9:96:12:94:c1:d0:7d:71:97:e8:77:4b:d0:
         5a:22:d2:02:5d:5a:82:cd:f3:f3:35:85:a2:dc:d7:49:bc:62:
         1c:cf:5d:9d:7b:df:5e:c5:ec:cc:c8:35:b7:a2:61:67:66:e8:
         9d:05:9a:16:7d:9e:7f:9e:6f:93:a6:87:16:5b:74:eb:6f:5c:
         d2:cb:81:da:2f:af:ce:29:04:1c:70:1d:d2:1a:8e:82:de:3d:
         b3:73:55:72:59:b7:d2:c6:89:a0:fe:b5:cf:c5:a3:3f:27:5d:
         e2:f2:79:93
-----BEGIN CERTIFICATE-----
MIIEfzCCA2egAwIBAgIGCgsMDQ4wMA0GCSqGSIb3DQEBCwUAMHQxETAPBgNVBAMU
CEdPQUNBX0NBMQswCQYDVQQGEwJJTjEPMA0GA1UEChMGQ0lUUklYMQwwCgYDVQQL
EwNBTkcxCzAJBgNVBAgTAktBMSYwJAYJKoZIhvcNAQkBFhdHT0FDQV9DQUBHT0FD
QV9tYWlsLmNvbTAeFw0xNjA3MDgwNDM1MDNaFw0yNjA3MDYwNDM1MDNaMGwxCzAJ
BgNVBAgTAktBMQswCQYDVQQGEwJJTjEZMBcGA1UEAxQQMTM0X0dPQUNBX3NlcnZl
cjEkMCIGCSqGSIb3DQEJARYVMTM0X0dPQUNBQHRlc3RfY2EuY29tMQ8wDQYDVQQK
EwZDSVRSSVgwggEiMA0GCSqGSIb3DQEBAQUAA4IBDwAwggEKAoIBAQC3NmSDLSkP
eKsellanQfSPAtt0Dfi4KhYnb4qBXIVCVhk+SPQ9+9eei1PwSeGNmASYXjuo5pgE
PKwpnsGW2JgscG8XNuvF7EpSXuFV5Ym1ewJSj85p2VAMgZyYjp7OAvxL4l7wSYF2
xpwLZs01UPYxTcPtIAsBm2/8jHfxQQ3vAXQ7fVjSIIwIxZ35kJQTo32QqfrPOydA
c6bukLgTRR/cD6ClxYBWEy9ze0D6g7KVhO361x+86boEdNDJqCobiTBgcKJ1JIl+
yKhzfW4qbtHg0OUkGMfAwFjcLfjZAPpRZLNKOYA3xfdop4Zww0vwjCasBnHxwzhO
BVtm2XiMVZjNAgMBAAGjggEdMIIBGTARBglghkgBhvhCAQEEBAMCBkAwHQYDVR0O
BBYEFNSLbekXwLgay+tGZG6XxkyI+1+AMIGmBgNVHSMEgZ4wgZuAFIEDANTccNmn
Awge3JtMrOZZzTlooXikdjB0MREwDwYDVQQDFAhHT0FDQV9DQTELMAkGA1UEBhMC
SU4xDzANBgNVBAoTBkNJVFJJWDEMMAoGA1UECxMDQU5HMQswCQYDVQQIEwJLQTEm
MCQGCSqGSIb3DQEJARYXR09BQ0FfQ0FAR09BQ0FfbWFpbC5jb22CCQD8iwqQARdf
HDA8BggrBgEFBQcBAQQwMC4wLAYIKwYBBQUHMAGGIGh0dHA6Ly8xNzIuMjEuMjAu
MS9yZXNwb25kZXJwYXRoMA0GCSqGSIb3DQEBCwUAA4IBAQA+0GpvJGQpZ6SsvaSe
4aTjvP2k1eUZ2GhEXDodiTwO0qXQ6loyj10auWyZr9ezuxhcpGWIQ8bvNwZnGt6E
9vIt5xRxqndMXmtNHl3x2OyhWgC4AAHot88HUQsU/5jy+SpuCtFhlIm1SgQ+nnwT
h+ATeSalTpsjszx5cr7iEKyUaVsK6/OJo7d3yX8qNrh0/obMWhXvy6mWEpTB0H1x
l+h3S9BaItICXVqCzfPzNYWi3NdJvGIcz12de99exezMyDW3omFnZuidBZoWfZ5/
nm+TpocWW3Trb1zSy4HaL6/OKQQccB3SGo6C3j2zc1VyWbfSxomg/rXPxaM/J13i
8nmT
-----END CERTIFICATE-----
