Certificate:
    Data:
        Version: 3 (0x2)
        Serial Number: 11042563100208 (0xa0b0c0d0e30)
    Signature Algorithm: sha256WithRSAEncryption
        Issuer: CN=MYSORECA_CA, C=IN, O=CITRIX, OU=ANG, ST=KA/emailAddress=MYSORECA_CA@MYSORECA_mail.com
        Validity
            Not Before: Jul  8 04:36:38 2016 GMT
            Not After : Jul  6 04:36:38 2026 GMT
        Subject: ST=KA, C=IN, CN=134_MYSORECA_server/emailAddress=134_MYSORECA@test_ca.com, O=CITRIX
        Subject Public Key Info:
            Public Key Algorithm: rsaEncryption
                Public-Key: (2048 bit)
                Modulus:
                    00:d4:8b:fe:46:ed:39:56:7c:27:cc:59:79:f2:db:
                    5e:59:26:04:33:cc:e5:0c:3c:21:28:60:a1:20:a1:
                    84:0c:1d:13:51:29:a4:e0:da:be:6f:dd:3a:65:61:
                    9b:9f:2a:8e:34:c7:58:4c:dc:7b:3e:34:ca:af:8f:
                    eb:cb:1c:9c:45:be:69:84:c4:1b:15:47:b2:f1:7d:
                    0f:30:8b:e4:31:4e:c3:89:08:de:58:9e:2d:dc:19:
                    f3:33:c6:35:95:e8:5e:f4:28:8c:d8:7d:03:2b:92:
                    37:73:ba:d0:cf:a4:d9:52:b5:0b:87:d4:75:87:ca:
                    e0:8d:2a:eb:50:eb:d7:ef:4c:2e:89:73:70:a2:c7:
                    e1:c3:db:2b:5e:00:c4:8e:ea:8d:a7:54:6d:6e:fe:
                    3a:1a:a1:2e:7b:8d:88:1f:00:1a:0c:fc:09:e8:ad:
                    ca:66:0a:03:99:94:02:d0:31:3c:15:05:49:22:da:
                    82:e6:2f:6a:8f:4f:86:fd:39:a9:4a:07:93:1b:7d:
                    56:63:6e:27:ed:fd:79:3c:fe:15:b7:5d:1d:a4:1d:
                    d2:aa:b7:fe:20:61:29:79:66:35:12:ba:89:87:86:
                    02:0b:b8:98:46:63:a7:94:f8:79:82:92:f2:c4:4e:
                    df:e3:17:62:ee:68:e7:8c:42:27:d4:48:94:13:7f:
                    d7:cf
                Exponent: 65537 (0x10001)
        X509v3 extensions:
            Netscape Cert Type: 
                SSL Server
            X509v3 Subject Key Identifier: 
                24:4E:A9:21:01:BB:E9:B0:5E:28:60:FF:2A:95:64:59:3E:5E:05:88
            X509v3 Authority Key Identifier: 
                keyid:C6:18:DA:E4:16:A1:1E:60:AE:18:00:F5:A7:DF:0A:8B:65:4D:36:95
                DirName:/CN=MYSORECA_CA/C=IN/O=CITRIX/OU=ANG/ST=KA/emailAddress=MYSORECA_CA@MYSORECA_mail.com
                serial:D5:74:54:E9:D5:CF:C9:F6

            Authority Information Access: 
                OCSP - URI:http://172.24.20.1/responderpath

    Signature Algorithm: sha256WithRSAEncryption
         2b:8a:88:48:72:da:77:b1:58:24:84:cc:bd:92:4e:41:3a:39:
         31:21:00:1c:23:2f:62:21:79:9f:98:78:99:b5:16:37:db:25:
         cc:f2:01:9b:bc:dc:1f:1c:7a:6a:64:f5:8e:37:6c:12:38:a5:
         c0:1c:85:49:59:d9:7f:d5:3f:0c:0c:25:d5:bf:7f:37:e7:23:
         3c:cf:4e:48:7e:2b:96:96:0d:91:ea:4a:e9:5c:fc:fb:97:1b:
         30:ae:56:b9:d3:34:ce:a3:ef:a9:5b:d7:b9:14:72:81:b7:5e:
         65:1d:2f:c7:b6:46:2e:45:84:dc:3e:a6:18:50:05:a7:f5:75:
         7d:e1:14:dc:bf:30:e0:b0:c6:e2:60:15:b4:f4:a7:bb:50:e8:
         3c:94:e4:64:2a:d6:04:e6:e3:48:6b:a7:c5:2f:0a:42:14:b5:
         5e:09:6a:34:56:24:55:d8:a3:95:8d:55:e3:5b:15:5d:04:60:
         bf:58:5a:36:73:13:17:6d:e9:cc:76:c1:d6:7e:91:04:ac:ac:
         7d:70:c5:a9:73:ef:22:f9:a2:d7:89:b0:68:26:7d:ec:5b:ad:
         1d:90:e2:f5:fe:44:85:1f:e7:ab:af:16:b0:75:90:84:af:37:
         88:65:80:95:88:16:d4:78:83:b9:00:3a:6d:6f:e1:6f:5d:aa:
         16:0f:6d:80
-----BEGIN CERTIFICATE-----
MIIEmDCCA4CgAwIBAgIGCgsMDQ4wMA0GCSqGSIb3DQEBCwUAMH0xFDASBgNVBAMU
C01ZU09SRUNBX0NBMQswCQYDVQQGEwJJTjEPMA0GA1UEChMGQ0lUUklYMQwwCgYD
VQQLEwNBTkcxCzAJBgNVBAgTAktBMSwwKgYJKoZIhvcNAQkBFh1NWVNPUkVDQV9D
QUBNWVNPUkVDQV9tYWlsLmNvbTAeFw0xNjA3MDgwNDM2MzhaFw0yNjA3MDYwNDM2
MzhaMHIxCzAJBgNVBAgTAktBMQswCQYDVQQGEwJJTjEcMBoGA1UEAxQTMTM0X01Z
U09SRUNBX3NlcnZlcjEnMCUGCSqGSIb3DQEJARYYMTM0X01ZU09SRUNBQHRlc3Rf
Y2EuY29tMQ8wDQYDVQQKEwZDSVRSSVgwggEiMA0GCSqGSIb3DQEBAQUAA4IBDwAw
ggEKAoIBAQDUi/5G7TlWfCfMWXny215ZJgQzzOUMPCEoYKEgoYQMHRNRKaTg2r5v
3TplYZufKo40x1hM3Hs+NMqvj+vLHJxFvmmExBsVR7LxfQ8wi+QxTsOJCN5Yni3c
GfMzxjWV6F70KIzYfQMrkjdzutDPpNlStQuH1HWHyuCNKutQ69fvTC6Jc3Cix+HD
2yteAMSO6o2nVG1u/joaoS57jYgfABoM/AnorcpmCgOZlALQMTwVBUki2oLmL2qP
T4b9OalKB5MbfVZjbift/Xk8/hW3XR2kHdKqt/4gYSl5ZjUSuomHhgILuJhGY6eU
+HmCkvLETt/jF2LuaOeMQifUSJQTf9fPAgMBAAGjggEnMIIBIzARBglghkgBhvhC
AQEEBAMCBkAwHQYDVR0OBBYEFCROqSEBu+mwXihg/yqVZFk+XgWIMIGwBgNVHSME
gagwgaWAFMYY2uQWoR5grhgA9affCotlTTaVoYGBpH8wfTEUMBIGA1UEAxQLTVlT
T1JFQ0FfQ0ExCzAJBgNVBAYTAklOMQ8wDQYDVQQKEwZDSVRSSVgxDDAKBgNVBAsT
A0FORzELMAkGA1UECBMCS0ExLDAqBgkqhkiG9w0BCQEWHU1ZU09SRUNBX0NBQE1Z
U09SRUNBX21haWwuY29tggkA1XRU6dXPyfYwPAYIKwYBBQUHAQEEMDAuMCwGCCsG
AQUFBzABhiBodHRwOi8vMTcyLjI0LjIwLjEvcmVzcG9uZGVycGF0aDANBgkqhkiG
9w0BAQsFAAOCAQEAK4qISHLad7FYJITMvZJOQTo5MSEAHCMvYiF5n5h4mbUWN9sl
zPIBm7zcHxx6amT1jjdsEjilwByFSVnZf9U/DAwl1b9/N+cjPM9OSH4rlpYNkepK
6Vz8+5cbMK5WudM0zqPvqVvXuRRygbdeZR0vx7ZGLkWE3D6mGFAFp/V1feEU3L8w
4LDG4mAVtPSnu1DoPJTkZCrWBObjSGunxS8KQhS1XglqNFYkVdijlY1V41sVXQRg
v1haNnMTF23pzHbB1n6RBKysfXDFqXPvIvmi14mwaCZ97FutHZDi9f5EhR/nq68W
sHWQhK83iGWAlYgW1HiDuQA6bW/hb12qFg9tgA==
-----END CERTIFICATE-----
