Certificate:
    Data:
        Version: 3 (0x2)
        Serial Number: 11042563100208 (0xa0b0c0d0e30)
    Signature Algorithm: sha256WithRSAEncryption
        Issuer: CN=BANGALORECA_CA, C=IN, O=CITRIX, OU=ANG, ST=KA/emailAddress=BANGALORECA_CA@BANGALORECA_mail.com
        Validity
            Not Before: Jul  8 04:31:29 2016 GMT
            Not After : Jul  6 04:31:29 2026 GMT
        Subject: ST=KA, C=IN, CN=134_BANGALORECA_server/emailAddress=134_BANGALORECA@test_ca.com, O=CITRIX
        Subject Public Key Info:
            Public Key Algorithm: rsaEncryption
                Public-Key: (2048 bit)
                Modulus:
                    00:b7:ca:0f:01:f1:2f:ae:f5:55:a4:6f:a4:18:c0:
                    67:1d:45:ba:63:f7:a6:05:a1:4c:f0:51:20:16:31:
                    8f:3e:38:13:2a:09:ba:4b:74:39:4e:9d:02:16:ff:
                    bd:14:a1:8a:2d:19:87:6a:b3:84:dd:27:82:66:4c:
                    ed:99:0b:4a:61:39:f4:80:c9:f9:47:67:98:5e:be:
                    f1:6e:1e:a0:68:9d:78:b9:89:bc:46:05:4f:d6:d8:
                    61:bd:5b:a1:70:5e:da:6f:3d:a3:05:0f:63:e7:f4:
                    46:83:42:1d:85:ba:4d:42:79:4b:3e:15:4f:d1:6c:
                    4b:43:4e:d7:01:04:6b:89:8a:c3:3a:59:43:c3:26:
                    24:91:a9:a9:06:1c:8a:84:30:23:b2:77:83:ca:be:
                    05:cd:4d:99:a1:55:cd:84:73:be:43:54:71:ad:32:
                    6e:cf:00:6b:f7:5b:12:08:6e:13:33:0c:5f:a2:f5:
                    eb:0c:9f:da:94:ca:2b:a6:2e:89:72:f5:30:ee:6e:
                    e2:88:d1:81:df:63:85:59:d1:04:98:37:27:e2:df:
                    09:c9:a5:19:83:e9:b9:68:8f:c4:d9:29:36:7b:3a:
                    f9:df:96:ed:ed:13:4c:97:96:52:db:29:1d:7d:96:
                    34:29:27:c4:23:b9:98:71:86:67:e8:e5:d4:d6:c9:
                    40:9b
                Exponent: 65537 (0x10001)
        X509v3 extensions:
            Netscape Cert Type: 
                SSL Server
            X509v3 Subject Key Identifier: 
                A3:BE:62:88:D4:C0:08:26:0E:00:24:83:76:8D:B0:A4:9A:EB:B7:62
            X509v3 Authority Key Identifier: 
                keyid:3B:D6:D1:53:18:87:05:22:BB:EE:C3:0F:F5:CE:0F:6B:A2:93:A7:B8
                DirName:/CN=BANGALORECA_CA/C=IN/O=CITRIX/OU=ANG/ST=KA/emailAddress=BANGALORECA_CA@BANGALORECA_mail.com
                serial:A1:AC:B4:DA:46:53:58:40

            Authority Information Access: 
                OCSP - URI:http://172.16.20.1/responderpath

    Signature Algorithm: sha256WithRSAEncryption
         3f:50:1a:4c:70:d0:0e:3a:3c:39:ec:b1:dc:e2:f0:f8:0a:82:
         5d:ad:4f:b3:b8:ca:96:12:7a:86:dd:68:db:15:f1:b5:44:6b:
         37:5d:02:80:f5:2c:48:84:cc:5a:d1:ab:fa:d1:45:14:d6:fe:
         ea:12:44:ac:1a:55:44:93:5c:0f:21:db:f4:bf:64:ee:ea:2f:
         f1:3a:11:2c:73:a6:af:7e:ca:8d:98:46:bf:1d:15:18:52:98:
         64:57:bc:f3:85:77:4a:99:a9:cc:7a:7b:83:be:e8:18:43:4d:
         59:f0:d2:67:52:ee:dc:11:50:d6:fb:1f:8a:1c:d3:6e:bb:a2:
         40:ed:40:10:93:1b:c0:45:a2:5d:56:40:d3:d8:83:74:6c:c7:
         57:49:bd:e4:12:49:2b:14:12:02:b9:f3:a4:ea:0f:6d:92:ac:
         27:19:f8:77:f6:3a:7a:4c:e6:22:b9:8d:8e:e2:56:f0:a2:c7:
         9c:d8:ca:38:b7:fc:ef:81:24:06:b0:6c:5c:b2:bf:38:a3:a9:
         8d:fa:a5:34:50:bc:6a:aa:11:d3:70:d8:f9:64:77:18:fd:8d:
         6d:bd:7b:32:c7:27:7e:96:74:2a:7b:5a:d0:f8:e3:80:a6:fd:
         14:6a:f6:3d:40:ba:e4:d1:42:35:a5:6d:57:e5:64:8e:40:ff:
         45:1f:9e:47
-----BEGIN CERTIFICATE-----
MIIEszCCA5ugAwIBAgIGCgsMDQ4wMA0GCSqGSIb3DQEBCwUAMIGGMRcwFQYDVQQD
FA5CQU5HQUxPUkVDQV9DQTELMAkGA1UEBhMCSU4xDzANBgNVBAoTBkNJVFJJWDEM
MAoGA1UECxMDQU5HMQswCQYDVQQIEwJLQTEyMDAGCSqGSIb3DQEJARYjQkFOR0FM
T1JFQ0FfQ0FAQkFOR0FMT1JFQ0FfbWFpbC5jb20wHhcNMTYwNzA4MDQzMTI5WhcN
MjYwNzA2MDQzMTI5WjB4MQswCQYDVQQIEwJLQTELMAkGA1UEBhMCSU4xHzAdBgNV
BAMUFjEzNF9CQU5HQUxPUkVDQV9zZXJ2ZXIxKjAoBgkqhkiG9w0BCQEWGzEzNF9C
QU5HQUxPUkVDQUB0ZXN0X2NhLmNvbTEPMA0GA1UEChMGQ0lUUklYMIIBIjANBgkq
hkiG9w0BAQEFAAOCAQ8AMIIBCgKCAQEAt8oPAfEvrvVVpG+kGMBnHUW6Y/emBaFM
8FEgFjGPPjgTKgm6S3Q5Tp0CFv+9FKGKLRmHarOE3SeCZkztmQtKYTn0gMn5R2eY
Xr7xbh6gaJ14uYm8RgVP1thhvVuhcF7abz2jBQ9j5/RGg0IdhbpNQnlLPhVP0WxL
Q07XAQRriYrDOllDwyYkkampBhyKhDAjsneDyr4FzU2ZoVXNhHO+Q1RxrTJuzwBr
91sSCG4TMwxfovXrDJ/alMorpi6JcvUw7m7iiNGB32OFWdEEmDcn4t8JyaUZg+m5
aI/E2Sk2ezr535bt7RNMl5ZS2ykdfZY0KSfEI7mYcYZn6OXU1slAmwIDAQABo4IB
MjCCAS4wEQYJYIZIAYb4QgEBBAQDAgZAMB0GA1UdDgQWBBSjvmKI1MAIJg4AJIN2
jbCkmuu3YjCBuwYDVR0jBIGzMIGwgBQ71tFTGIcFIrvuww/1zg9ropOnuKGBjKSB
iTCBhjEXMBUGA1UEAxQOQkFOR0FMT1JFQ0FfQ0ExCzAJBgNVBAYTAklOMQ8wDQYD
VQQKEwZDSVRSSVgxDDAKBgNVBAsTA0FORzELMAkGA1UECBMCS0ExMjAwBgkqhkiG
9w0BCQEWI0JBTkdBTE9SRUNBX0NBQEJBTkdBTE9SRUNBX21haWwuY29tggkAoay0
2kZTWEAwPAYIKwYBBQUHAQEEMDAuMCwGCCsGAQUFBzABhiBodHRwOi8vMTcyLjE2
LjIwLjEvcmVzcG9uZGVycGF0aDANBgkqhkiG9w0BAQsFAAOCAQEAP1AaTHDQDjo8
Oeyx3OLw+AqCXa1Ps7jKlhJ6ht1o2xXxtURrN10CgPUsSITMWtGr+tFFFNb+6hJE
rBpVRJNcDyHb9L9k7uov8ToRLHOmr37KjZhGvx0VGFKYZFe884V3SpmpzHp7g77o
GENNWfDSZ1Lu3BFQ1vsfihzTbruiQO1AEJMbwEWiXVZA09iDdGzHV0m95BJJKxQS
ArnzpOoPbZKsJxn4d/Y6ekzmIrmNjuJW8KLHnNjKOLf874EkBrBsXLK/OKOpjfql
NFC8aqoR03DY+WR3GP2Nbb17MscnfpZ0Knta0PjjgKb9FGr2PUC65NFCNaVtV+Vk
jkD/RR+eRw==
-----END CERTIFICATE-----
