Certificate:
    Data:
        Version: 3 (0x2)
        Serial Number: 11042563100208 (0xa0b0c0d0e30)
    Signature Algorithm: sha256WithRSAEncryption
        Issuer: CN=BHOPALCA_CA, C=IN, O=CITRIX, OU=ANG, ST=KA/emailAddress=BHOPALCA_CA@BHOPALCA_mail.com
        Validity
            Not Before: Jul  8 04:32:41 2016 GMT
            Not After : Jul  6 04:32:41 2026 GMT
        Subject: ST=KA, C=IN, CN=134_BHOPALCA_server/emailAddress=134_BHOPALCA@test_ca.com, O=CITRIX
        Subject Public Key Info:
            Public Key Algorithm: rsaEncryption
                Public-Key: (2048 bit)
                Modulus:
                    00:bf:af:44:42:40:51:14:ff:8f:47:41:c7:43:2c:
                    7f:26:ef:d6:3a:90:ac:cf:c9:97:12:54:62:e8:14:
                    61:c8:43:e7:24:45:7d:4e:3b:5e:8f:a4:19:79:1d:
                    48:95:c9:7d:c0:b0:0e:57:f6:68:3f:4b:d7:8b:1f:
                    64:69:c0:f6:9d:1f:e0:53:66:ae:dc:46:c5:a4:b1:
                    40:ee:46:ed:32:4c:4d:e8:a8:6f:4c:47:51:4e:79:
                    27:73:1c:f1:b3:c5:7b:d3:d8:af:1b:02:2c:56:c4:
                    ec:fd:96:3b:dc:45:35:53:ac:6b:10:9f:6a:9b:61:
                    10:ca:ad:da:09:e2:a3:14:53:4d:b6:3c:a7:fa:78:
                    cd:b0:f9:98:48:18:82:11:78:fd:d2:a2:ea:bb:a5:
                    20:1d:bb:41:05:75:b2:c3:87:87:28:4a:cb:94:dd:
                    29:8c:38:7b:02:af:54:8b:a5:e8:2a:a3:41:64:86:
                    cc:51:b0:37:11:d9:ae:90:22:f9:57:ed:5b:48:b4:
                    95:d7:64:c1:17:71:04:eb:bd:0b:4e:83:ce:0f:64:
                    45:09:b9:fb:0a:43:19:26:74:8e:e3:29:22:9a:41:
                    0a:bf:0e:ca:18:47:37:c1:f0:55:31:e1:32:4a:0c:
                    b1:82:17:30:0c:02:66:36:d0:64:90:c4:88:67:b4:
                    e3:b1
                Exponent: 65537 (0x10001)
        X509v3 extensions:
            Netscape Cert Type: 
                SSL Server
            X509v3 Subject Key Identifier: 
                39:BF:67:14:59:91:38:38:FF:1B:EA:4D:22:7E:40:76:E0:01:4D:7D
            X509v3 Authority Key Identifier: 
                keyid:A6:66:0E:59:0F:3C:5C:11:35:B2:B3:99:59:A9:D3:A6:B1:5E:95:D2
                DirName:/CN=BHOPALCA_CA/C=IN/O=CITRIX/OU=ANG/ST=KA/emailAddress=BHOPALCA_CA@BHOPALCA_mail.com
                serial:BE:89:55:F3:65:28:17:9A

            Authority Information Access: 
                OCSP - URI:http://172.17.20.1/responderpath

    Signature Algorithm: sha256WithRSAEncryption
         70:1e:53:61:b3:0b:aa:12:82:73:a9:50:89:df:0d:0d:52:12:
         d3:7e:bd:1e:e0:af:61:e9:f6:82:a7:8e:93:e6:73:40:57:b8:
         3f:91:fa:2a:18:c7:1b:21:af:dd:e6:be:07:2f:6e:36:19:54:
         8d:9d:d7:97:c5:1d:b8:92:7e:a9:60:f2:2f:5a:4e:27:37:07:
         b2:da:d3:ab:7a:f8:e9:cf:13:2d:4d:d0:6d:0b:e9:2c:47:0a:
         91:03:91:46:cf:c4:10:73:5b:3c:5e:3a:85:84:7d:fd:ca:50:
         fc:bf:36:d3:7d:a1:3d:2c:c3:d8:88:66:e5:35:cb:78:29:68:
         33:55:bb:37:74:d2:1f:82:a5:5f:e3:a7:4a:de:99:e5:2a:32:
         ff:03:41:2f:89:ef:4a:af:7a:00:56:70:ff:68:9b:f2:d5:7b:
         25:c2:bd:f7:c6:ec:47:90:9a:af:ba:a5:33:4c:40:db:28:36:
         66:2f:84:e9:5a:43:fb:4f:dc:06:3f:37:9a:29:61:42:c9:90:
         35:d7:a9:c9:1f:9d:41:9a:b5:38:74:4a:fe:48:7b:28:4a:69:
         fd:57:08:dc:29:90:70:9c:21:d9:6a:69:18:8e:c8:67:26:47:
         03:ce:32:e3:5c:ba:c4:29:1c:15:c7:fb:0d:02:f0:6a:e3:7f:
         0d:6c:b7:d8
-----BEGIN CERTIFICATE-----
MIIEmDCCA4CgAwIBAgIGCgsMDQ4wMA0GCSqGSIb3DQEBCwUAMH0xFDASBgNVBAMU
C0JIT1BBTENBX0NBMQswCQYDVQQGEwJJTjEPMA0GA1UEChMGQ0lUUklYMQwwCgYD
VQQLEwNBTkcxCzAJBgNVBAgTAktBMSwwKgYJKoZIhvcNAQkBFh1CSE9QQUxDQV9D
QUBCSE9QQUxDQV9tYWlsLmNvbTAeFw0xNjA3MDgwNDMyNDFaFw0yNjA3MDYwNDMy
NDFaMHIxCzAJBgNVBAgTAktBMQswCQYDVQQGEwJJTjEcMBoGA1UEAxQTMTM0X0JI
T1BBTENBX3NlcnZlcjEnMCUGCSqGSIb3DQEJARYYMTM0X0JIT1BBTENBQHRlc3Rf
Y2EuY29tMQ8wDQYDVQQKEwZDSVRSSVgwggEiMA0GCSqGSIb3DQEBAQUAA4IBDwAw
ggEKAoIBAQC/r0RCQFEU/49HQcdDLH8m79Y6kKzPyZcSVGLoFGHIQ+ckRX1OO16P
pBl5HUiVyX3AsA5X9mg/S9eLH2RpwPadH+BTZq7cRsWksUDuRu0yTE3oqG9MR1FO
eSdzHPGzxXvT2K8bAixWxOz9ljvcRTVTrGsQn2qbYRDKrdoJ4qMUU022PKf6eM2w
+ZhIGIIReP3Souq7pSAdu0EFdbLDh4coSsuU3SmMOHsCr1SLpegqo0FkhsxRsDcR
2a6QIvlX7VtItJXXZMEXcQTrvQtOg84PZEUJufsKQxkmdI7jKSKaQQq/DsoYRzfB
8FUx4TJKDLGCFzAMAmY20GSQxIhntOOxAgMBAAGjggEnMIIBIzARBglghkgBhvhC
AQEEBAMCBkAwHQYDVR0OBBYEFDm/ZxRZkTg4/xvqTSJ+QHbgAU19MIGwBgNVHSME
gagwgaWAFKZmDlkPPFwRNbKzmVmp06axXpXSoYGBpH8wfTEUMBIGA1UEAxQLQkhP
UEFMQ0FfQ0ExCzAJBgNVBAYTAklOMQ8wDQYDVQQKEwZDSVRSSVgxDDAKBgNVBAsT
A0FORzELMAkGA1UECBMCS0ExLDAqBgkqhkiG9w0BCQEWHUJIT1BBTENBX0NBQEJI
T1BBTENBX21haWwuY29tggkAvolV82UoF5owPAYIKwYBBQUHAQEEMDAuMCwGCCsG
AQUFBzABhiBodHRwOi8vMTcyLjE3LjIwLjEvcmVzcG9uZGVycGF0aDANBgkqhkiG
9w0BAQsFAAOCAQEAcB5TYbMLqhKCc6lQid8NDVIS0369HuCvYen2gqeOk+ZzQFe4
P5H6KhjHGyGv3ea+By9uNhlUjZ3Xl8UduJJ+qWDyL1pOJzcHstrTq3r46c8TLU3Q
bQvpLEcKkQORRs/EEHNbPF46hYR9/cpQ/L82032hPSzD2Ihm5TXLeCloM1W7N3TS
H4KlX+OnSt6Z5Soy/wNBL4nvSq96AFZw/2ib8tV7JcK998bsR5Car7qlM0xA2yg2
Zi+E6VpD+0/cBj83milhQsmQNdepyR+dQZq1OHRK/kh7KEpp/VcI3CmQcJwh2Wpp
GI7IZyZHA84y41y6xCkcFcf7DQLwauN/DWy32A==
-----END CERTIFICATE-----
