Certificate:
    Data:
        Version: 3 (0x2)
        Serial Number: 11042563100209 (0xa0b0c0d0e31)
    Signature Algorithm: sha256WithRSAEncryption
        Issuer: CN=SHILLONGCA_CA, C=IN, O=CITRIX, OU=ANG, ST=KA/emailAddress=SHILLONGCA_CA@SHILLONGCA_mail.com
        Validity
            Not Before: Jul  8 04:40:15 2016 GMT
            Not After : Jul  6 04:40:15 2026 GMT
        Subject: ST=KA, C=IN, CN=135_SHILLONGCA_server/emailAddress=135_SHILLONGCA@test_ca.com, O=CITRIX
        Subject Public Key Info:
            Public Key Algorithm: rsaEncryption
                Public-Key: (2048 bit)
                Modulus:
                    00:cc:1a:7a:ac:f8:66:b0:dd:a0:b2:8f:3b:a7:cc:
                    8e:97:c9:d4:72:62:46:67:38:75:01:fe:76:53:b9:
                    3f:4e:8f:e9:89:54:2f:8b:63:08:58:e4:1b:0c:b8:
                    73:98:c6:2e:8c:91:5a:c2:21:97:f4:b2:aa:49:97:
                    0d:8c:5f:47:f8:a8:82:4b:be:c8:1a:12:94:13:22:
                    97:6d:eb:17:47:82:bc:43:7c:eb:57:18:e0:8b:89:
                    db:75:25:e5:6b:1d:19:5a:4f:93:cd:94:2e:ae:69:
                    4f:59:0b:5c:57:3e:ef:5e:16:21:34:e1:a6:c3:9a:
                    00:dd:87:63:42:96:44:d8:9c:69:a5:6d:54:de:b9:
                    8f:a3:ff:d1:d5:82:b2:3a:a6:58:e0:0e:4f:2e:c3:
                    44:26:56:12:01:96:53:d6:bf:11:10:c6:b3:72:fb:
                    51:44:3a:97:f4:5a:60:6f:99:5a:72:a4:49:2b:b3:
                    18:73:c0:22:e0:6e:94:3c:51:94:3c:d5:92:32:99:
                    e5:b0:bc:ff:24:7c:12:ea:b0:f0:15:17:8b:f8:d0:
                    eb:e9:60:9f:f8:14:a5:dc:4f:fd:3f:3f:84:89:cc:
                    b9:37:80:43:a6:ad:27:5a:10:f3:28:4a:33:95:3a:
                    89:ac:08:ee:11:ec:a4:97:54:97:a9:6c:0a:f3:93:
                    e7:7f
                Exponent: 65537 (0x10001)
        X509v3 extensions:
            Netscape Cert Type: 
                SSL Server
            X509v3 Subject Key Identifier: 
                E5:25:D4:2F:9A:06:CF:B3:1C:BC:04:58:BD:4E:EE:4B:28:47:F6:7C
            X509v3 Authority Key Identifier: 
                keyid:FA:E9:1F:A5:AF:8B:4E:18:FF:EF:B7:EA:8F:FB:98:BC:59:23:81:DF
                DirName:/CN=SHILLONGCA_CA/C=IN/O=CITRIX/OU=ANG/ST=KA/emailAddress=SHILLONGCA_CA@SHILLONGCA_mail.com
                serial:FB:D0:92:FD:A2:7C:35:0C

            Authority Information Access: 
                OCSP - URI:http://172.28.20.1/responderpath

    Signature Algorithm: sha256WithRSAEncryption
         8b:6c:a0:00:79:89:68:f9:bc:0c:05:59:25:cf:6b:a0:06:7f:
         50:20:8e:cb:7e:81:2d:f9:b8:66:e1:4f:bc:ef:46:68:fd:54:
         29:ea:5a:50:a8:cd:68:77:4c:e1:59:33:af:6c:31:2b:ab:95:
         54:e3:7f:30:d5:11:2d:cd:b8:5c:60:ef:77:c1:b5:08:80:6a:
         b8:0b:99:f7:49:fb:70:10:e6:bc:2f:80:c4:7b:38:01:c9:8c:
         0e:8b:97:7c:9c:37:55:36:fa:0a:3f:a6:68:8d:8b:b2:0a:32:
         c0:9a:77:c0:ca:2e:11:4e:a9:56:50:35:38:b8:29:63:98:ab:
         5f:f1:25:ca:6b:1f:75:c5:ee:6a:3e:6f:bc:17:29:96:7a:de:
         94:5b:39:4c:c5:28:e7:97:ed:85:69:7b:0d:e4:b6:4a:bb:3f:
         0f:31:ea:aa:99:db:27:fc:2b:ac:7a:e8:2c:33:79:0a:e5:03:
         b9:de:6e:7c:18:f8:ef:30:65:41:d8:76:ec:98:1f:86:42:ce:
         22:58:39:d4:ad:5c:5f:36:ae:2c:01:92:e6:af:6c:1b:a5:63:
         f8:e6:63:d0:03:6f:23:dc:7b:94:7f:f6:50:3c:c7:83:a9:d7:
         84:76:ce:a3:94:a0:8d:bd:b0:4c:75:88:e0:ef:94:2c:b0:85:
         c2:e5:67:56
-----BEGIN CERTIFICATE-----
MIIEqzCCA5OgAwIBAgIGCgsMDQ4xMA0GCSqGSIb3DQEBCwUAMIGDMRYwFAYDVQQD
FA1TSElMTE9OR0NBX0NBMQswCQYDVQQGEwJJTjEPMA0GA1UEChMGQ0lUUklYMQww
CgYDVQQLEwNBTkcxCzAJBgNVBAgTAktBMTAwLgYJKoZIhvcNAQkBFiFTSElMTE9O
R0NBX0NBQFNISUxMT05HQ0FfbWFpbC5jb20wHhcNMTYwNzA4MDQ0MDE1WhcNMjYw
NzA2MDQ0MDE1WjB2MQswCQYDVQQIEwJLQTELMAkGA1UEBhMCSU4xHjAcBgNVBAMU
FTEzNV9TSElMTE9OR0NBX3NlcnZlcjEpMCcGCSqGSIb3DQEJARYaMTM1X1NISUxM
T05HQ0FAdGVzdF9jYS5jb20xDzANBgNVBAoTBkNJVFJJWDCCASIwDQYJKoZIhvcN
AQEBBQADggEPADCCAQoCggEBAMwaeqz4ZrDdoLKPO6fMjpfJ1HJiRmc4dQH+dlO5
P06P6YlUL4tjCFjkGwy4c5jGLoyRWsIhl/SyqkmXDYxfR/iogku+yBoSlBMil23r
F0eCvEN861cY4IuJ23Ul5WsdGVpPk82ULq5pT1kLXFc+714WITThpsOaAN2HY0KW
RNicaaVtVN65j6P/0dWCsjqmWOAOTy7DRCZWEgGWU9a/ERDGs3L7UUQ6l/RaYG+Z
WnKkSSuzGHPAIuBulDxRlDzVkjKZ5bC8/yR8Euqw8BUXi/jQ6+lgn/gUpdxP/T8/
hInMuTeAQ6atJ1oQ8yhKM5U6iawI7hHspJdUl6lsCvOT538CAwEAAaOCAS8wggEr
MBEGCWCGSAGG+EIBAQQEAwIGQDAdBgNVHQ4EFgQU5SXUL5oGz7McvARYvU7uSyhH
9nwwgbgGA1UdIwSBsDCBrYAU+ukfpa+LThj/77fqj/uYvFkjgd+hgYmkgYYwgYMx
FjAUBgNVBAMUDVNISUxMT05HQ0FfQ0ExCzAJBgNVBAYTAklOMQ8wDQYDVQQKEwZD
SVRSSVgxDDAKBgNVBAsTA0FORzELMAkGA1UECBMCS0ExMDAuBgkqhkiG9w0BCQEW
IVNISUxMT05HQ0FfQ0FAU0hJTExPTkdDQV9tYWlsLmNvbYIJAPvQkv2ifDUMMDwG
CCsGAQUFBwEBBDAwLjAsBggrBgEFBQcwAYYgaHR0cDovLzE3Mi4yOC4yMC4xL3Jl
c3BvbmRlcnBhdGgwDQYJKoZIhvcNAQELBQADggEBAItsoAB5iWj5vAwFWSXPa6AG
f1Agjst+gS35uGbhT7zvRmj9VCnqWlCozWh3TOFZM69sMSurlVTjfzDVES3NuFxg
73fBtQiAargLmfdJ+3AQ5rwvgMR7OAHJjA6Ll3ycN1U2+go/pmiNi7IKMsCad8DK
LhFOqVZQNTi4KWOYq1/xJcprH3XF7mo+b7wXKZZ63pRbOUzFKOeX7YVpew3ktkq7
Pw8x6qqZ2yf8K6x66CwzeQrlA7nebnwY+O8wZUHYduyYH4ZCziJYOdStXF82riwB
kuavbBulY/jmY9ADbyPce5R/9lA8x4Op14R2zqOUoI29sEx1iODvlCywhcLlZ1Y=
-----END CERTIFICATE-----
