Certificate:
    Data:
        Version: 3 (0x2)
        Serial Number: 11042563100209 (0xa0b0c0d0e31)
    Signature Algorithm: sha256WithRSAEncryption
        Issuer: CN=OOTYCA_CA, C=IN, O=CITRIX, OU=ANG, ST=KA/emailAddress=OOTYCA_CA@OOTYCA_mail.com
        Validity
            Not Before: Jul  8 04:37:12 2016 GMT
            Not After : Jul  6 04:37:12 2026 GMT
        Subject: ST=KA, C=IN, CN=135_OOTYCA_server/emailAddress=135_OOTYCA@test_ca.com, O=CITRIX
        Subject Public Key Info:
            Public Key Algorithm: rsaEncryption
                Public-Key: (2048 bit)
                Modulus:
                    00:eb:48:aa:c9:f6:92:6f:f6:37:62:d2:a3:bb:9a:
                    a2:06:86:57:36:a5:8f:e0:7e:f0:a7:7d:bf:be:17:
                    19:b8:35:58:55:4b:7a:19:81:48:47:14:b0:72:61:
                    f1:22:35:dc:12:87:77:50:30:82:07:8c:a3:82:f0:
                    ca:7e:5e:91:da:85:bb:90:e2:82:a8:b5:eb:d8:5a:
                    06:19:6e:ff:86:65:c4:01:0d:44:ad:0d:21:69:49:
                    ce:3d:e8:e4:a2:cf:ce:e7:f1:85:55:72:1d:d8:ec:
                    46:1d:a0:02:b4:2d:e1:1a:5e:cf:8b:24:71:b6:e4:
                    7a:07:02:0c:cc:cb:30:6d:78:7f:18:5a:8b:6c:48:
                    2f:ed:7e:31:39:2a:68:70:8c:70:0e:85:f8:b2:f7:
                    65:da:20:b8:f3:07:52:94:76:95:94:e4:a0:84:fd:
                    7a:72:51:b0:ab:56:98:46:85:47:fc:0b:ea:8f:dd:
                    4c:86:99:cd:97:cf:95:09:ad:a4:20:d9:6e:95:3a:
                    9d:da:9b:eb:e6:00:64:15:96:a3:01:59:a1:ca:43:
                    27:d2:80:45:a4:04:06:e5:b2:28:0e:f5:d7:0e:94:
                    8f:df:6d:80:9a:63:7b:87:4e:dd:1b:9d:ed:e1:48:
                    8d:cc:ea:a8:26:0c:f5:aa:8f:06:dc:64:9f:de:e7:
                    9f:27
                Exponent: 65537 (0x10001)
        X509v3 extensions:
            Netscape Cert Type: 
                SSL Server
            X509v3 Subject Key Identifier: 
                D5:28:94:DE:23:E5:E8:C6:AF:C3:8B:C5:51:3A:3E:90:39:8E:3E:EE
            X509v3 Authority Key Identifier: 
                keyid:9E:A0:B1:FE:A8:B8:21:30:13:39:F2:C3:C1:A8:43:CB:5D:73:FC:B5
                DirName:/CN=OOTYCA_CA/C=IN/O=CITRIX/OU=ANG/ST=KA/emailAddress=OOTYCA_CA@OOTYCA_mail.com
                serial:AA:C2:AB:74:21:09:60:FF

            Authority Information Access: 
                OCSP - URI:http://172.25.20.1/responderpath

    Signature Algorithm: sha256WithRSAEncryption
         1d:83:de:22:ff:f6:2b:da:7c:a5:43:02:7f:a7:36:f7:ce:70:
         05:ad:9b:fe:27:d6:5d:20:84:a4:ea:9f:aa:69:cb:2d:75:80:
         78:98:94:65:b2:58:b3:ee:6c:a5:d0:e2:f2:27:06:4b:bb:2c:
         fb:35:4a:6c:52:0e:ff:25:38:63:17:c3:3d:a8:4f:fb:e1:e3:
         d8:a4:18:08:73:86:6e:f4:7f:30:b9:cb:65:a7:22:fd:3d:cd:
         23:ad:89:3c:43:9f:63:4f:42:01:ec:38:24:80:3c:a8:a7:37:
         55:91:bb:be:e3:d3:8a:ef:9f:cd:dc:31:72:23:dc:16:9f:d1:
         95:71:91:5f:ba:b9:85:c3:18:30:92:58:28:51:ec:ee:9b:a4:
         2b:22:1d:c2:1a:18:d9:b4:c8:77:79:43:91:6f:95:69:e7:8b:
         66:e5:e7:27:b4:2f:4b:7f:51:7c:e4:23:0b:25:f9:5e:a5:9c:
         a9:10:bd:1f:cd:40:f8:44:f3:13:7d:52:29:93:b1:1b:b1:af:
         6b:d4:4e:b4:1b:6f:f3:09:59:3b:c5:d0:26:25:30:04:ba:ae:
         3c:5f:f1:ec:89:99:3d:95:c1:53:ad:60:7c:b0:52:df:2a:fa:
         2f:06:39:5f:e5:85:dd:9f:e9:18:d3:38:06:e4:36:a1:69:e0:
         e3:8f:dc:66
-----BEGIN CERTIFICATE-----
MIIEhzCCA2+gAwIBAgIGCgsMDQ4xMA0GCSqGSIb3DQEBCwUAMHcxEjAQBgNVBAMU
CU9PVFlDQV9DQTELMAkGA1UEBhMCSU4xDzANBgNVBAoTBkNJVFJJWDEMMAoGA1UE
CxMDQU5HMQswCQYDVQQIEwJLQTEoMCYGCSqGSIb3DQEJARYZT09UWUNBX0NBQE9P
VFlDQV9tYWlsLmNvbTAeFw0xNjA3MDgwNDM3MTJaFw0yNjA3MDYwNDM3MTJaMG4x
CzAJBgNVBAgTAktBMQswCQYDVQQGEwJJTjEaMBgGA1UEAxQRMTM1X09PVFlDQV9z
ZXJ2ZXIxJTAjBgkqhkiG9w0BCQEWFjEzNV9PT1RZQ0FAdGVzdF9jYS5jb20xDzAN
BgNVBAoTBkNJVFJJWDCCASIwDQYJKoZIhvcNAQEBBQADggEPADCCAQoCggEBAOtI
qsn2km/2N2LSo7uaogaGVzalj+B+8Kd9v74XGbg1WFVLehmBSEcUsHJh8SI13BKH
d1AwggeMo4Lwyn5ekdqFu5Digqi169haBhlu/4ZlxAENRK0NIWlJzj3o5KLPzufx
hVVyHdjsRh2gArQt4Rpez4skcbbkegcCDMzLMG14fxhai2xIL+1+MTkqaHCMcA6F
+LL3ZdoguPMHUpR2lZTkoIT9enJRsKtWmEaFR/wL6o/dTIaZzZfPlQmtpCDZbpU6
ndqb6+YAZBWWowFZocpDJ9KARaQEBuWyKA711w6Uj99tgJpje4dO3Rud7eFIjczq
qCYM9aqPBtxkn97nnycCAwEAAaOCASAwggEcMBEGCWCGSAGG+EIBAQQEAwIGQDAd
BgNVHQ4EFgQU1SiU3iPl6Mavw4vFUTo+kDmOPu4wgakGA1UdIwSBoTCBnoAUnqCx
/qi4ITATOfLDwahDy11z/LWhe6R5MHcxEjAQBgNVBAMUCU9PVFlDQV9DQTELMAkG
A1UEBhMCSU4xDzANBgNVBAoTBkNJVFJJWDEMMAoGA1UECxMDQU5HMQswCQYDVQQI
EwJLQTEoMCYGCSqGSIb3DQEJARYZT09UWUNBX0NBQE9PVFlDQV9tYWlsLmNvbYIJ
AKrCq3QhCWD/MDwGCCsGAQUFBwEBBDAwLjAsBggrBgEFBQcwAYYgaHR0cDovLzE3
Mi4yNS4yMC4xL3Jlc3BvbmRlcnBhdGgwDQYJKoZIhvcNAQELBQADggEBAB2D3iL/
9ivafKVDAn+nNvfOcAWtm/4n1l0ghKTqn6ppyy11gHiYlGWyWLPubKXQ4vInBku7
LPs1SmxSDv8lOGMXwz2oT/vh49ikGAhzhm70fzC5y2WnIv09zSOtiTxDn2NPQgHs
OCSAPKinN1WRu77j04rvn83cMXIj3Baf0ZVxkV+6uYXDGDCSWChR7O6bpCsiHcIa
GNm0yHd5Q5FvlWnni2bl5ye0L0t/UXzkIwsl+V6lnKkQvR/NQPhE8xN9UimTsRux
r2vUTrQbb/MJWTvF0CYlMAS6rjxf8eyJmT2VwVOtYHywUt8q+i8GOV/lhd2f6RjT
OAbkNqFp4OOP3GY=
-----END CERTIFICATE-----
