Certificate:
    Data:
        Version: 3 (0x2)
        Serial Number: 11042563100209 (0xa0b0c0d0e31)
    Signature Algorithm: sha256WithRSAEncryption
        Issuer: CN=RANCHICA_CA, C=IN, O=CITRIX, OU=ANG, ST=KA/emailAddress=RANCHICA_CA@RANCHICA_mail.com
        Validity
            Not Before: Jul  8 04:38:56 2016 GMT
            Not After : Jul  6 04:38:56 2026 GMT
        Subject: ST=KA, C=IN, CN=135_RANCHICA_server/emailAddress=135_RANCHICA@test_ca.com, O=CITRIX
        Subject Public Key Info:
            Public Key Algorithm: rsaEncryption
                Public-Key: (2048 bit)
                Modulus:
                    00:b1:98:a2:fb:e4:d9:90:2f:b5:2f:32:f4:81:23:
                    5e:3d:3c:cd:11:d2:8c:e0:4f:6a:bd:82:84:fc:29:
                    06:30:e1:58:8c:54:6a:a4:8b:c3:dc:11:06:30:15:
                    dd:15:8c:34:19:03:dc:2b:6a:7e:cc:f1:38:67:dc:
                    b4:3b:0d:05:f3:aa:72:93:f7:bc:73:11:4e:fd:44:
                    e4:a8:b6:0f:2e:3f:a0:43:4f:73:a5:b1:99:f4:79:
                    2c:33:e3:8e:5c:f3:cd:3d:51:09:8a:2d:5d:de:bc:
                    28:c5:5a:d2:ef:ae:e1:a7:eb:a1:74:84:46:ed:0f:
                    21:17:98:c6:16:0c:49:ef:1a:90:4d:78:16:0d:0e:
                    dd:ab:8d:ee:77:c9:4d:42:a3:b7:13:ef:91:2b:1d:
                    9e:3c:8a:4a:82:61:75:63:53:0d:89:e0:e4:b9:31:
                    b4:41:df:df:76:ee:70:f4:45:32:65:a7:fc:1c:4d:
                    67:dd:b6:08:f2:07:70:13:dc:59:ff:df:bf:f3:0d:
                    4d:fa:74:61:2b:eb:45:db:d1:7e:ef:cb:ec:d0:f4:
                    51:af:0f:b0:52:14:df:9b:5b:3d:39:4e:27:c7:c4:
                    3a:3a:57:85:46:5a:6d:f1:29:6c:d4:0a:1c:8a:e7:
                    a5:60:61:cf:f9:49:ab:24:81:27:31:41:40:8d:e0:
                    e4:89
                Exponent: 65537 (0x10001)
        X509v3 extensions:
            Netscape Cert Type: 
                SSL Server
            X509v3 Subject Key Identifier: 
                9D:01:7E:99:2D:18:B7:F4:06:15:75:5F:BB:80:BD:50:C4:F7:9D:19
            X509v3 Authority Key Identifier: 
                keyid:A7:10:6F:5D:0C:9F:9C:A2:F4:39:92:A3:7D:5C:B8:C0:25:71:BF:39
                DirName:/CN=RANCHICA_CA/C=IN/O=CITRIX/OU=ANG/ST=KA/emailAddress=RANCHICA_CA@RANCHICA_mail.com
                serial:E7:09:A4:3D:1C:C7:45:B1

            Authority Information Access: 
                OCSP - URI:http://172.27.20.1/responderpath

    Signature Algorithm: sha256WithRSAEncryption
         32:8e:23:d0:d1:bd:b2:97:14:35:fa:65:95:6c:32:4d:03:88:
         ab:b5:a3:aa:8d:42:8e:7f:60:0f:20:68:b0:21:00:ef:d2:56:
         f6:5e:4a:74:61:20:44:75:e3:cb:94:88:c8:d9:f1:43:3b:90:
         f5:56:8e:b8:aa:df:f1:68:7a:97:f2:cc:95:4e:39:76:90:55:
         c6:5c:18:f2:d6:33:01:43:25:13:08:6f:05:c0:d3:2e:c8:dd:
         a3:83:75:2a:0e:71:1f:47:b9:49:09:70:02:29:16:26:49:37:
         ba:8a:84:aa:e1:ad:40:ce:34:28:75:a7:d4:a8:6e:9a:ef:ed:
         ff:00:79:a5:8d:f6:45:5c:6a:f0:7e:9d:4b:e0:ec:a8:4d:72:
         70:59:3b:3b:ca:1f:3c:28:b1:ae:79:b3:24:22:7e:70:b3:3c:
         9c:3f:29:dc:a9:f5:d9:43:82:df:53:e8:fa:f5:49:fc:25:01:
         aa:97:5e:e3:6b:ab:27:50:10:be:f3:17:f7:37:d8:bf:bc:29:
         2f:04:0c:6a:1c:32:95:d6:61:96:41:0d:a4:4b:33:90:fc:5b:
         27:93:b2:51:ba:b8:11:3a:b0:28:ac:a2:09:ad:bf:da:d2:a5:
         9a:1b:b6:95:89:0d:7f:4b:e7:82:c7:2b:9c:6f:4a:82:34:19:
         da:71:d7:64
-----BEGIN CERTIFICATE-----
MIIEmDCCA4CgAwIBAgIGCgsMDQ4xMA0GCSqGSIb3DQEBCwUAMH0xFDASBgNVBAMU
C1JBTkNISUNBX0NBMQswCQYDVQQGEwJJTjEPMA0GA1UEChMGQ0lUUklYMQwwCgYD
VQQLEwNBTkcxCzAJBgNVBAgTAktBMSwwKgYJKoZIhvcNAQkBFh1SQU5DSElDQV9D
QUBSQU5DSElDQV9tYWlsLmNvbTAeFw0xNjA3MDgwNDM4NTZaFw0yNjA3MDYwNDM4
NTZaMHIxCzAJBgNVBAgTAktBMQswCQYDVQQGEwJJTjEcMBoGA1UEAxQTMTM1X1JB
TkNISUNBX3NlcnZlcjEnMCUGCSqGSIb3DQEJARYYMTM1X1JBTkNISUNBQHRlc3Rf
Y2EuY29tMQ8wDQYDVQQKEwZDSVRSSVgwggEiMA0GCSqGSIb3DQEBAQUAA4IBDwAw
ggEKAoIBAQCxmKL75NmQL7UvMvSBI149PM0R0ozgT2q9goT8KQYw4ViMVGqki8Pc
EQYwFd0VjDQZA9wran7M8Thn3LQ7DQXzqnKT97xzEU79ROSotg8uP6BDT3OlsZn0
eSwz445c8809UQmKLV3evCjFWtLvruGn66F0hEbtDyEXmMYWDEnvGpBNeBYNDt2r
je53yU1Co7cT75ErHZ48ikqCYXVjUw2J4OS5MbRB39927nD0RTJlp/wcTWfdtgjy
B3AT3Fn/37/zDU36dGEr60Xb0X7vy+zQ9FGvD7BSFN+bWz05TifHxDo6V4VGWm3x
KWzUChyK56VgYc/5SaskgScxQUCN4OSJAgMBAAGjggEnMIIBIzARBglghkgBhvhC
AQEEBAMCBkAwHQYDVR0OBBYEFJ0BfpktGLf0BhV1X7uAvVDE950ZMIGwBgNVHSME
gagwgaWAFKcQb10Mn5yi9DmSo31cuMAlcb85oYGBpH8wfTEUMBIGA1UEAxQLUkFO
Q0hJQ0FfQ0ExCzAJBgNVBAYTAklOMQ8wDQYDVQQKEwZDSVRSSVgxDDAKBgNVBAsT
A0FORzELMAkGA1UECBMCS0ExLDAqBgkqhkiG9w0BCQEWHVJBTkNISUNBX0NBQFJB
TkNISUNBX21haWwuY29tggkA5wmkPRzHRbEwPAYIKwYBBQUHAQEEMDAuMCwGCCsG
AQUFBzABhiBodHRwOi8vMTcyLjI3LjIwLjEvcmVzcG9uZGVycGF0aDANBgkqhkiG
9w0BAQsFAAOCAQEAMo4j0NG9spcUNfpllWwyTQOIq7Wjqo1Cjn9gDyBosCEA79JW
9l5KdGEgRHXjy5SIyNnxQzuQ9VaOuKrf8Wh6l/LMlU45dpBVxlwY8tYzAUMlEwhv
BcDTLsjdo4N1Kg5xH0e5SQlwAikWJkk3uoqEquGtQM40KHWn1Khumu/t/wB5pY32
RVxq8H6dS+DsqE1ycFk7O8ofPCixrnmzJCJ+cLM8nD8p3Kn12UOC31Po+vVJ/CUB
qpde42urJ1AQvvMX9zfYv7wpLwQMahwyldZhlkENpEszkPxbJ5OyUbq4ETqwKKyi
Ca2/2tKlmhu2lYkNf0vngscrnG9KgjQZ2nHXZA==
-----END CERTIFICATE-----
