Certificate:
    Data:
        Version: 3 (0x2)
        Serial Number: 11042563100210 (0xa0b0c0d0e32)
    Signature Algorithm: sha256WithRSAEncryption
        Issuer: CN=MUMBAICA_CA, C=IN, O=CITRIX, OU=ANG, ST=KA/emailAddress=MUMBAICA_CA@MUMBAICA_mail.com
        Validity
            Not Before: Jul  8 04:35:55 2016 GMT
            Not After : Jul  6 04:35:55 2026 GMT
        Subject: ST=KA, C=IN, CN=136_MUMBAICA_server/emailAddress=136_MUMBAICA@test_ca.com, O=CITRIX
        Subject Public Key Info:
            Public Key Algorithm: rsaEncryption
                Public-Key: (2048 bit)
                Modulus:
                    00:ba:33:79:57:51:7c:e1:3f:ce:45:71:22:4b:fd:
                    17:c5:ba:f0:14:b4:7d:0a:d5:ec:42:2e:d7:e8:9b:
                    c2:90:31:8e:1b:be:77:e9:ec:e4:ef:b9:65:34:da:
                    f8:7b:3c:7a:cc:7c:94:06:66:11:90:9b:1a:94:99:
                    05:0e:13:f8:b1:ad:fb:aa:84:e5:f0:a2:ad:46:24:
                    03:fd:af:8b:bf:3c:5e:53:36:92:81:ce:eb:0d:9c:
                    91:48:23:2b:66:25:e1:61:af:72:e7:74:bd:23:23:
                    e9:1c:fa:01:f6:58:3b:d2:9f:91:31:39:48:fd:91:
                    99:3f:38:30:43:87:c6:0c:cf:eb:8f:c1:55:43:4d:
                    aa:0e:23:5d:67:b8:2f:f5:82:d2:ad:ce:de:18:c0:
                    39:2e:f6:6c:e1:7c:ba:ad:ae:14:ce:1c:61:66:0f:
                    fe:91:c7:08:58:16:f5:58:52:e8:e4:93:d6:f8:7f:
                    17:5b:a7:e2:7c:14:96:a1:d8:de:56:4f:db:7c:c0:
                    f5:31:c9:c9:01:73:b1:9a:b5:4a:cc:9c:54:7d:be:
                    86:8c:37:15:7e:74:99:a5:8f:37:bf:92:dd:bc:f8:
                    29:af:6e:23:7a:e6:4c:41:83:4c:3f:7d:7f:e9:53:
                    70:bd:f0:df:a8:35:04:c7:97:b0:02:24:ad:95:a7:
                    96:ad
                Exponent: 65537 (0x10001)
        X509v3 extensions:
            Netscape Cert Type: 
                SSL Server
            X509v3 Subject Key Identifier: 
                85:01:6F:36:67:75:92:53:ED:3F:89:29:2E:6C:29:B1:FF:B5:FD:EF
            X509v3 Authority Key Identifier: 
                keyid:37:79:BF:65:19:98:28:32:4E:EF:3E:44:14:19:A9:83:2B:AF:05:7A
                DirName:/CN=MUMBAICA_CA/C=IN/O=CITRIX/OU=ANG/ST=KA/emailAddress=MUMBAICA_CA@MUMBAICA_mail.com
                serial:EE:B1:37:EE:F6:D2:14:91

            Authority Information Access: 
                OCSP - URI:http://172.23.20.1/responderpath

    Signature Algorithm: sha256WithRSAEncryption
         65:af:4f:0c:3a:43:74:64:9d:5e:3e:bf:fe:d6:ce:02:7e:b8:
         f2:2f:64:a7:bf:6b:6c:33:98:22:e6:2e:0b:53:44:47:6b:e8:
         23:fe:5c:05:28:cb:17:af:28:89:30:8e:bb:f1:b8:ef:e2:08:
         d2:6e:58:e0:e1:a3:53:e0:67:61:bd:55:dd:f2:da:85:31:b3:
         7b:50:c9:97:fd:cc:e7:fd:9e:b1:72:12:c4:f5:72:fb:4e:b3:
         2a:cd:59:51:9d:15:94:4c:81:f6:7e:9f:39:9e:8c:d7:19:ba:
         28:13:84:2b:9d:ee:76:c9:0e:a2:98:e1:4e:2c:3a:be:83:56:
         60:fa:8a:81:61:89:02:15:87:31:04:b0:98:2f:c7:90:34:94:
         8e:28:6b:8f:60:45:bf:fc:8c:3c:c1:11:e5:31:c5:86:76:93:
         1b:70:44:5d:68:bf:b5:84:0a:4d:52:c5:1a:5f:5a:d8:8f:b0:
         88:43:b9:f3:41:a4:9b:2d:60:1f:f7:88:d6:6b:c0:c3:6c:15:
         04:eb:87:d1:39:d8:03:10:15:7b:43:51:7e:15:f9:c9:4e:be:
         f7:de:d5:53:9c:2d:6f:81:94:d7:3c:6e:7b:50:1e:bc:1d:4e:
         ed:a9:5b:7f:14:df:c9:a9:54:52:80:b0:aa:95:c0:2c:d7:d1:
         80:35:98:65
-----BEGIN CERTIFICATE-----
MIIEmDCCA4CgAwIBAgIGCgsMDQ4yMA0GCSqGSIb3DQEBCwUAMH0xFDASBgNVBAMU
C01VTUJBSUNBX0NBMQswCQYDVQQGEwJJTjEPMA0GA1UEChMGQ0lUUklYMQwwCgYD
VQQLEwNBTkcxCzAJBgNVBAgTAktBMSwwKgYJKoZIhvcNAQkBFh1NVU1CQUlDQV9D
QUBNVU1CQUlDQV9tYWlsLmNvbTAeFw0xNjA3MDgwNDM1NTVaFw0yNjA3MDYwNDM1
NTVaMHIxCzAJBgNVBAgTAktBMQswCQYDVQQGEwJJTjEcMBoGA1UEAxQTMTM2X01V
TUJBSUNBX3NlcnZlcjEnMCUGCSqGSIb3DQEJARYYMTM2X01VTUJBSUNBQHRlc3Rf
Y2EuY29tMQ8wDQYDVQQKEwZDSVRSSVgwggEiMA0GCSqGSIb3DQEBAQUAA4IBDwAw
ggEKAoIBAQC6M3lXUXzhP85FcSJL/RfFuvAUtH0K1exCLtfom8KQMY4bvnfp7OTv
uWU02vh7PHrMfJQGZhGQmxqUmQUOE/ixrfuqhOXwoq1GJAP9r4u/PF5TNpKBzusN
nJFIIytmJeFhr3LndL0jI+kc+gH2WDvSn5ExOUj9kZk/ODBDh8YMz+uPwVVDTaoO
I11nuC/1gtKtzt4YwDku9mzhfLqtrhTOHGFmD/6RxwhYFvVYUujkk9b4fxdbp+J8
FJah2N5WT9t8wPUxyckBc7GatUrMnFR9voaMNxV+dJmljze/kt28+CmvbiN65kxB
g0w/fX/pU3C98N+oNQTHl7ACJK2Vp5atAgMBAAGjggEnMIIBIzARBglghkgBhvhC
AQEEBAMCBkAwHQYDVR0OBBYEFIUBbzZndZJT7T+JKS5sKbH/tf3vMIGwBgNVHSME
gagwgaWAFDd5v2UZmCgyTu8+RBQZqYMrrwV6oYGBpH8wfTEUMBIGA1UEAxQLTVVN
QkFJQ0FfQ0ExCzAJBgNVBAYTAklOMQ8wDQYDVQQKEwZDSVRSSVgxDDAKBgNVBAsT
A0FORzELMAkGA1UECBMCS0ExLDAqBgkqhkiG9w0BCQEWHU1VTUJBSUNBX0NBQE1V
TUJBSUNBX21haWwuY29tggkA7rE37vbSFJEwPAYIKwYBBQUHAQEEMDAuMCwGCCsG
AQUFBzABhiBodHRwOi8vMTcyLjIzLjIwLjEvcmVzcG9uZGVycGF0aDANBgkqhkiG
9w0BAQsFAAOCAQEAZa9PDDpDdGSdXj6//tbOAn648i9kp79rbDOYIuYuC1NER2vo
I/5cBSjLF68oiTCOu/G47+II0m5Y4OGjU+BnYb1V3fLahTGze1DJl/3M5/2esXIS
xPVy+06zKs1ZUZ0VlEyB9n6fOZ6M1xm6KBOEK53udskOopjhTiw6voNWYPqKgWGJ
AhWHMQSwmC/HkDSUjihrj2BFv/yMPMER5THFhnaTG3BEXWi/tYQKTVLFGl9a2I+w
iEO580Gkmy1gH/eI1mvAw2wVBOuH0TnYAxAVe0NRfhX5yU6+997VU5wtb4GU1zxu
e1AevB1O7albfxTfyalUUoCwqpXALNfRgDWYZQ==
-----END CERTIFICATE-----
