Certificate:
    Data:
        Version: 3 (0x2)
        Serial Number: 11042563100210 (0xa0b0c0d0e32)
    Signature Algorithm: sha256WithRSAEncryption
        Issuer: CN=CALCUTTACA_CA, C=IN, O=CITRIX, OU=ANG, ST=KA/emailAddress=CALCUTTACA_CA@CALCUTTACA_mail.com
        Validity
            Not Before: Jul  8 04:33:13 2016 GMT
            Not After : Jul  6 04:33:13 2026 GMT
        Subject: ST=KA, C=IN, CN=136_CALCUTTACA_server/emailAddress=136_CALCUTTACA@test_ca.com, O=CITRIX
        Subject Public Key Info:
            Public Key Algorithm: rsaEncryption
                Public-Key: (2048 bit)
                Modulus:
                    00:cc:65:28:7f:71:bc:94:d4:64:77:8c:b8:d8:ae:
                    e1:5d:0f:04:32:c9:6b:a4:f1:48:3c:e6:43:9f:6c:
                    5a:73:12:64:41:f1:02:33:63:73:09:58:3a:13:cd:
                    ec:8f:fa:e0:95:49:94:44:57:19:be:25:8e:aa:93:
                    ab:8f:17:d4:26:77:30:9f:6c:2a:8f:b7:8a:e1:ec:
                    51:96:81:0c:da:24:bf:b8:08:93:8e:2e:2f:ee:8c:
                    a6:8f:6f:94:fb:a6:ab:50:d4:4a:c8:c5:c3:88:7b:
                    f9:f9:80:ef:7d:af:15:22:99:8c:f1:78:85:ae:cb:
                    fb:28:1e:7f:c6:7a:e2:f4:7e:a2:d3:7d:7b:38:bd:
                    f7:9f:e4:a9:10:9f:06:22:e2:6f:3b:ea:3a:5a:a5:
                    56:48:2b:15:fc:ac:8f:11:fd:14:32:64:61:d6:b8:
                    e4:7e:0a:d1:e1:0d:e8:2d:d0:6f:94:af:03:ce:7d:
                    19:36:35:2f:3f:54:03:36:25:13:0e:eb:dd:a8:6e:
                    07:43:b8:81:15:51:44:f8:a3:80:34:11:aa:27:eb:
                    d1:5a:00:e0:56:40:58:c0:1d:ff:29:a0:65:ea:eb:
                    c0:46:b3:4e:3d:ca:76:09:fe:ed:8c:71:79:08:33:
                    6b:6a:9f:d3:25:af:ad:75:cd:f9:24:ed:73:6d:8c:
                    d9:cf
                Exponent: 65537 (0x10001)
        X509v3 extensions:
            Netscape Cert Type: 
                SSL Server
            X509v3 Subject Key Identifier: 
                1D:E5:88:FB:5F:B7:A6:D5:98:25:99:BB:01:84:30:1A:1B:8D:46:48
            X509v3 Authority Key Identifier: 
                keyid:37:2E:7B:27:46:4B:CF:47:10:AC:2B:2E:BA:D0:F3:66:75:EB:52:75
                DirName:/CN=CALCUTTACA_CA/C=IN/O=CITRIX/OU=ANG/ST=KA/emailAddress=CALCUTTACA_CA@CALCUTTACA_mail.com
                serial:A5:C6:47:0E:E6:06:37:18

            Authority Information Access: 
                OCSP - URI:http://172.18.20.1/responderpath

    Signature Algorithm: sha256WithRSAEncryption
         23:7c:19:69:14:28:ad:e8:b3:8f:cf:e5:27:4c:1e:a7:0a:de:
         de:eb:f6:aa:b0:3d:dd:49:01:77:ce:e3:ed:00:86:18:d1:3f:
         73:7a:6f:ab:ea:64:54:a8:d0:d2:a8:17:11:49:f3:87:d6:05:
         ea:a6:eb:f1:18:bf:1b:90:78:2e:ac:7b:01:f9:f2:48:fc:4d:
         bc:45:c9:d0:35:8e:e6:28:16:9a:b4:25:85:d1:99:cc:5f:7d:
         96:14:73:70:56:96:6a:51:42:73:49:75:9a:67:d1:63:07:a0:
         65:66:36:0c:ea:46:fe:46:38:5f:8d:e6:f1:99:c3:0b:27:05:
         91:48:ac:9b:db:64:22:60:30:74:2e:38:d5:95:4b:9e:1e:46:
         46:9f:a7:0d:f9:fb:3c:4f:37:8a:2a:ea:a3:55:76:e3:97:9e:
         11:7c:2f:84:8b:b9:0b:04:c2:e1:4c:cc:6c:39:86:8e:a4:1f:
         a6:74:53:f6:84:fb:33:ce:98:66:27:6b:3d:f0:f1:c8:dd:83:
         b2:81:0f:f1:78:d2:a7:f7:6a:77:37:67:65:df:45:4e:e6:3e:
         f4:d8:d6:02:49:4b:87:60:49:cb:02:5d:59:08:ae:ad:08:f9:
         d5:24:bb:16:26:5c:df:69:01:3b:7e:35:7e:98:13:cf:73:2b:
         75:aa:d0:26
-----BEGIN CERTIFICATE-----
MIIEqzCCA5OgAwIBAgIGCgsMDQ4yMA0GCSqGSIb3DQEBCwUAMIGDMRYwFAYDVQQD
FA1DQUxDVVRUQUNBX0NBMQswCQYDVQQGEwJJTjEPMA0GA1UEChMGQ0lUUklYMQww
CgYDVQQLEwNBTkcxCzAJBgNVBAgTAktBMTAwLgYJKoZIhvcNAQkBFiFDQUxDVVRU
QUNBX0NBQENBTENVVFRBQ0FfbWFpbC5jb20wHhcNMTYwNzA4MDQzMzEzWhcNMjYw
NzA2MDQzMzEzWjB2MQswCQYDVQQIEwJLQTELMAkGA1UEBhMCSU4xHjAcBgNVBAMU
FTEzNl9DQUxDVVRUQUNBX3NlcnZlcjEpMCcGCSqGSIb3DQEJARYaMTM2X0NBTENV
VFRBQ0FAdGVzdF9jYS5jb20xDzANBgNVBAoTBkNJVFJJWDCCASIwDQYJKoZIhvcN
AQEBBQADggEPADCCAQoCggEBAMxlKH9xvJTUZHeMuNiu4V0PBDLJa6TxSDzmQ59s
WnMSZEHxAjNjcwlYOhPN7I/64JVJlERXGb4ljqqTq48X1CZ3MJ9sKo+3iuHsUZaB
DNokv7gIk44uL+6Mpo9vlPumq1DUSsjFw4h7+fmA732vFSKZjPF4ha7L+ygef8Z6
4vR+otN9ezi995/kqRCfBiLibzvqOlqlVkgrFfysjxH9FDJkYda45H4K0eEN6C3Q
b5SvA859GTY1Lz9UAzYlEw7r3ahuB0O4gRVRRPijgDQRqifr0VoA4FZAWMAd/ymg
ZerrwEazTj3Kdgn+7YxxeQgza2qf0yWvrXXN+STtc22M2c8CAwEAAaOCAS8wggEr
MBEGCWCGSAGG+EIBAQQEAwIGQDAdBgNVHQ4EFgQUHeWI+1+3ptWYJZm7AYQwGhuN
RkgwgbgGA1UdIwSBsDCBrYAUNy57J0ZLz0cQrCsuutDzZnXrUnWhgYmkgYYwgYMx
FjAUBgNVBAMUDUNBTENVVFRBQ0FfQ0ExCzAJBgNVBAYTAklOMQ8wDQYDVQQKEwZD
SVRSSVgxDDAKBgNVBAsTA0FORzELMAkGA1UECBMCS0ExMDAuBgkqhkiG9w0BCQEW
IUNBTENVVFRBQ0FfQ0FAQ0FMQ1VUVEFDQV9tYWlsLmNvbYIJAKXGRw7mBjcYMDwG
CCsGAQUFBwEBBDAwLjAsBggrBgEFBQcwAYYgaHR0cDovLzE3Mi4xOC4yMC4xL3Jl
c3BvbmRlcnBhdGgwDQYJKoZIhvcNAQELBQADggEBACN8GWkUKK3os4/P5SdMHqcK
3t7r9qqwPd1JAXfO4+0AhhjRP3N6b6vqZFSo0NKoFxFJ84fWBeqm6/EYvxuQeC6s
ewH58kj8TbxFydA1juYoFpq0JYXRmcxffZYUc3BWlmpRQnNJdZpn0WMHoGVmNgzq
Rv5GOF+N5vGZwwsnBZFIrJvbZCJgMHQuONWVS54eRkafpw35+zxPN4oq6qNVduOX
nhF8L4SLuQsEwuFMzGw5ho6kH6Z0U/aE+zPOmGYnaz3w8cjdg7KBD/F40qf3anc3
Z2XfRU7mPvTY1gJJS4dgScsCXVkIrq0I+dUkuxYmXN9pATt+NX6YE89zK3Wq0CY=
-----END CERTIFICATE-----
