Certificate:
    Data:
        Version: 3 (0x2)
        Serial Number: 11042563100210 (0xa0b0c0d0e32)
    Signature Algorithm: sha256WithRSAEncryption
        Issuer: CN=OOTYCA_CA, C=IN, O=CITRIX, OU=ANG, ST=KA/emailAddress=OOTYCA_CA@OOTYCA_mail.com
        Validity
            Not Before: Jul  8 04:37:12 2016 GMT
            Not After : Jul  6 04:37:12 2026 GMT
        Subject: ST=KA, C=IN, CN=136_OOTYCA_server/emailAddress=136_OOTYCA@test_ca.com, O=CITRIX
        Subject Public Key Info:
            Public Key Algorithm: rsaEncryption
                Public-Key: (2048 bit)
                Modulus:
                    00:ba:1f:33:75:2a:11:30:86:34:80:c8:c9:46:86:
                    12:e5:b5:f6:d4:b7:5a:66:bc:32:5f:aa:7f:5d:7f:
                    f4:8a:6f:41:ad:df:50:9f:ec:9c:25:1f:4e:7e:ed:
                    2f:33:d6:8e:78:c3:65:e3:f7:3b:83:c4:05:14:0e:
                    ff:81:35:7f:39:8f:37:a8:46:eb:0a:45:59:30:b5:
                    c1:52:41:b4:1f:c2:91:c2:c6:e3:48:57:c0:7e:5f:
                    8b:97:fb:44:c2:78:2c:d8:97:61:7a:e3:db:ca:73:
                    bd:94:92:98:49:77:61:57:59:d6:a7:84:ff:ce:e4:
                    3c:0d:97:be:20:eb:e4:bc:9d:47:9b:0e:0a:71:14:
                    97:04:64:45:7f:44:68:e9:a8:8b:08:1a:b9:6c:a8:
                    29:ac:88:50:b7:08:0d:d5:c7:cb:21:2d:44:a9:ad:
                    f0:a6:b2:bc:18:b5:8f:54:b7:c1:bb:df:1e:79:e9:
                    e4:d7:50:34:8e:2f:cb:51:00:a6:d7:e7:b2:5c:06:
                    75:d6:c1:df:fd:cf:e8:83:64:86:7f:b8:15:4b:e9:
                    fd:16:10:3e:de:98:73:15:aa:ce:05:d4:b5:0f:79:
                    6c:48:22:bf:4b:87:9d:84:97:8f:5d:c6:fa:4e:8c:
                    f2:82:2a:97:61:cf:89:21:85:a2:91:b8:bc:a2:20:
                    15:4f
                Exponent: 65537 (0x10001)
        X509v3 extensions:
            Netscape Cert Type: 
                SSL Server
            X509v3 Subject Key Identifier: 
                0F:EA:FD:F7:D5:5E:02:32:DE:2C:DE:0A:00:6B:0B:AB:95:A0:45:7D
            X509v3 Authority Key Identifier: 
                keyid:9E:A0:B1:FE:A8:B8:21:30:13:39:F2:C3:C1:A8:43:CB:5D:73:FC:B5
                DirName:/CN=OOTYCA_CA/C=IN/O=CITRIX/OU=ANG/ST=KA/emailAddress=OOTYCA_CA@OOTYCA_mail.com
                serial:AA:C2:AB:74:21:09:60:FF

            Authority Information Access: 
                OCSP - URI:http://172.25.20.1/responderpath

    Signature Algorithm: sha256WithRSAEncryption
         7d:81:1b:01:e9:bd:95:51:94:ba:6e:8b:62:4d:a7:96:9f:b9:
         fa:af:fd:09:fa:f2:d6:6f:ee:62:aa:5f:12:97:8f:32:b4:eb:
         8a:7a:33:06:68:2b:c4:de:2a:1f:e2:99:86:43:0a:b5:52:f1:
         0d:7f:c2:e1:4b:8d:3e:ca:6c:99:dd:d7:9a:6f:2b:be:b1:0d:
         13:77:31:79:99:4a:86:b6:38:e1:8a:6b:35:bd:ef:d8:9d:a9:
         63:9d:4e:88:fb:b7:67:b4:f5:0d:10:85:9f:32:1f:3c:0c:b7:
         df:64:d2:5d:de:d4:ff:38:04:81:29:22:01:ab:ff:04:25:25:
         c4:9c:b6:8a:1b:e8:52:03:f6:e7:31:b2:88:34:fe:43:5e:5b:
         5d:86:cd:6c:fa:94:cc:7e:67:22:aa:53:17:a7:f6:12:9c:c6:
         aa:39:00:60:db:26:48:70:b8:80:61:a8:a2:b1:6b:cf:26:00:
         50:f6:b9:f4:2e:6d:94:06:d2:ab:8c:d8:a4:a0:89:8a:a1:ef:
         e0:e6:02:84:0d:b1:b4:fe:17:20:4c:1f:2e:bb:a9:2e:71:fc:
         73:13:f5:47:be:26:3f:b5:83:a9:14:e9:9a:12:f7:a5:66:d2:
         ab:6e:a7:33:37:12:3a:a5:be:ad:bf:98:fb:59:0a:75:6b:9d:
         93:6e:e1:9a
-----BEGIN CERTIFICATE-----
MIIEhzCCA2+gAwIBAgIGCgsMDQ4yMA0GCSqGSIb3DQEBCwUAMHcxEjAQBgNVBAMU
CU9PVFlDQV9DQTELMAkGA1UEBhMCSU4xDzANBgNVBAoTBkNJVFJJWDEMMAoGA1UE
CxMDQU5HMQswCQYDVQQIEwJLQTEoMCYGCSqGSIb3DQEJARYZT09UWUNBX0NBQE9P
VFlDQV9tYWlsLmNvbTAeFw0xNjA3MDgwNDM3MTJaFw0yNjA3MDYwNDM3MTJaMG4x
CzAJBgNVBAgTAktBMQswCQYDVQQGEwJJTjEaMBgGA1UEAxQRMTM2X09PVFlDQV9z
ZXJ2ZXIxJTAjBgkqhkiG9w0BCQEWFjEzNl9PT1RZQ0FAdGVzdF9jYS5jb20xDzAN
BgNVBAoTBkNJVFJJWDCCASIwDQYJKoZIhvcNAQEBBQADggEPADCCAQoCggEBALof
M3UqETCGNIDIyUaGEuW19tS3Wma8Ml+qf11/9IpvQa3fUJ/snCUfTn7tLzPWjnjD
ZeP3O4PEBRQO/4E1fzmPN6hG6wpFWTC1wVJBtB/CkcLG40hXwH5fi5f7RMJ4LNiX
YXrj28pzvZSSmEl3YVdZ1qeE/87kPA2XviDr5LydR5sOCnEUlwRkRX9EaOmoiwga
uWyoKayIULcIDdXHyyEtRKmt8KayvBi1j1S3wbvfHnnp5NdQNI4vy1EAptfnslwG
ddbB3/3P6INkhn+4FUvp/RYQPt6YcxWqzgXUtQ95bEgiv0uHnYSXj13G+k6M8oIq
l2HPiSGFopG4vKIgFU8CAwEAAaOCASAwggEcMBEGCWCGSAGG+EIBAQQEAwIGQDAd
BgNVHQ4EFgQUD+r999VeAjLeLN4KAGsLq5WgRX0wgakGA1UdIwSBoTCBnoAUnqCx
/qi4ITATOfLDwahDy11z/LWhe6R5MHcxEjAQBgNVBAMUCU9PVFlDQV9DQTELMAkG
A1UEBhMCSU4xDzANBgNVBAoTBkNJVFJJWDEMMAoGA1UECxMDQU5HMQswCQYDVQQI
EwJLQTEoMCYGCSqGSIb3DQEJARYZT09UWUNBX0NBQE9PVFlDQV9tYWlsLmNvbYIJ
AKrCq3QhCWD/MDwGCCsGAQUFBwEBBDAwLjAsBggrBgEFBQcwAYYgaHR0cDovLzE3
Mi4yNS4yMC4xL3Jlc3BvbmRlcnBhdGgwDQYJKoZIhvcNAQELBQADggEBAH2BGwHp
vZVRlLpui2JNp5afufqv/Qn68tZv7mKqXxKXjzK064p6MwZoK8TeKh/imYZDCrVS
8Q1/wuFLjT7KbJnd15pvK76xDRN3MXmZSoa2OOGKazW979idqWOdToj7t2e09Q0Q
hZ8yHzwMt99k0l3e1P84BIEpIgGr/wQlJcSctoob6FID9ucxsog0/kNeW12GzWz6
lMx+ZyKqUxen9hKcxqo5AGDbJkhwuIBhqKKxa88mAFD2ufQubZQG0quM2KSgiYqh
7+DmAoQNsbT+FyBMHy67qS5x/HMT9Ue+Jj+1g6kU6ZoS96Vm0qtupzM3Ejqlvq2/
mPtZCnVrnZNu4Zo=
-----END CERTIFICATE-----
