Certificate:
    Data:
        Version: 3 (0x2)
        Serial Number: 11042563100210 (0xa0b0c0d0e32)
    Signature Algorithm: sha256WithRSAEncryption
        Issuer: CN=CHENNAICA_CA, C=IN, O=CITRIX, OU=ANG, ST=KA/emailAddress=CHENNAICA_CA@CHENNAICA_mail.com
        Validity
            Not Before: Jul  8 04:33:57 2016 GMT
            Not After : Jul  6 04:33:57 2026 GMT
        Subject: ST=KA, C=IN, CN=136_CHENNAICA_server/emailAddress=136_CHENNAICA@test_ca.com, O=CITRIX
        Subject Public Key Info:
            Public Key Algorithm: rsaEncryption
                Public-Key: (2048 bit)
                Modulus:
                    00:bb:c8:d3:bb:d5:29:e7:7a:15:1b:90:b3:cc:65:
                    8c:f6:72:f6:2d:7d:42:52:0f:1e:fe:a6:c0:f9:9c:
                    c5:80:d8:dc:e5:45:71:5c:8d:22:44:bc:98:ee:ba:
                    a9:40:c8:6a:16:73:36:04:1f:94:45:f7:c6:30:12:
                    7f:42:53:65:1d:2c:8d:9e:ac:fc:52:68:e8:1b:c7:
                    a8:f3:b5:0b:fd:c6:61:a4:ea:b5:81:29:e8:30:ad:
                    7a:8a:e4:67:31:2f:29:3e:35:33:36:c2:81:9f:9c:
                    44:cc:71:3c:a6:b2:73:59:32:aa:b4:8e:76:7d:fc:
                    bb:5e:e6:b7:85:f9:ad:ca:43:84:9a:1d:dd:52:2d:
                    90:52:1f:cc:f4:25:de:d4:4b:8d:25:44:4c:e5:10:
                    32:09:11:c5:ae:9e:ae:4a:d1:62:1d:73:e9:a1:63:
                    5a:4c:73:b9:b6:7e:a9:f9:bf:b3:56:a3:64:db:ec:
                    fd:56:05:b9:4a:6e:66:79:b3:d0:9f:16:58:e5:6b:
                    dc:b6:2a:4d:d9:f4:8e:58:8a:6b:e9:f7:9c:dd:f2:
                    38:1c:c7:59:05:3f:55:44:1c:e0:1a:18:eb:99:87:
                    30:51:e6:23:8f:44:f6:41:4f:87:cd:f9:c9:9c:7d:
                    45:4a:0d:e4:32:ee:47:f7:d7:d8:37:2e:82:eb:93:
                    31:a9
                Exponent: 65537 (0x10001)
        X509v3 extensions:
            Netscape Cert Type: 
                SSL Server
            X509v3 Subject Key Identifier: 
                D8:B5:21:9A:FF:B7:77:4B:13:C7:9D:8C:3C:59:38:6D:5E:3B:F5:E1
            X509v3 Authority Key Identifier: 
                keyid:BE:CA:53:AC:65:89:18:02:1E:F6:53:A2:50:12:94:60:EC:CC:05:FA
                DirName:/CN=CHENNAICA_CA/C=IN/O=CITRIX/OU=ANG/ST=KA/emailAddress=CHENNAICA_CA@CHENNAICA_mail.com
                serial:87:FB:C4:D4:5E:46:56:70

            Authority Information Access: 
                OCSP - URI:http://172.19.20.1/responderpath

    Signature Algorithm: sha256WithRSAEncryption
         63:40:32:87:f0:94:6f:3c:ba:01:7d:89:6c:8d:04:73:9e:1b:
         34:5c:73:e8:44:e7:47:64:51:d3:d8:b8:0e:15:58:99:92:38:
         6c:e2:a2:0b:5f:d0:8e:92:18:ad:a9:54:fc:39:5b:94:65:40:
         bd:45:51:bc:27:a8:c0:dc:cc:bf:4d:88:8e:3e:4a:f2:5e:33:
         06:d1:cd:9f:8f:47:a0:0f:05:f5:28:f3:24:ce:9d:b4:3b:d2:
         4d:cf:df:95:d4:9a:ba:4c:0c:db:f6:8a:8d:e6:20:a0:ae:94:
         fd:9c:e4:5a:57:1a:c8:00:4c:0e:e3:d9:57:d9:57:40:35:d1:
         6e:ea:1f:cc:5f:92:88:80:b1:53:b4:dc:9a:39:ed:73:9c:3a:
         8a:86:57:59:d7:7a:b5:4a:bd:f6:80:a1:d1:8b:fd:b6:aa:1e:
         96:17:3e:85:b3:41:d9:15:73:54:d1:c8:6b:da:34:96:38:f1:
         a5:ce:90:52:92:25:21:12:bc:18:8d:23:57:a6:5a:e9:fe:3e:
         a8:3d:21:48:99:db:1b:43:2f:42:35:8d:70:9a:b0:5c:bb:34:
         90:57:39:35:25:27:bd:0e:6e:1b:37:9d:80:b8:c2:ad:bb:fb:
         e6:f5:04:63:63:5b:c5:bb:b1:cb:58:db:08:60:9e:53:27:87:
         b9:de:d6:5b
-----BEGIN CERTIFICATE-----
MIIEozCCA4ugAwIBAgIGCgsMDQ4yMA0GCSqGSIb3DQEBCwUAMIGAMRUwEwYDVQQD
FAxDSEVOTkFJQ0FfQ0ExCzAJBgNVBAYTAklOMQ8wDQYDVQQKEwZDSVRSSVgxDDAK
BgNVBAsTA0FORzELMAkGA1UECBMCS0ExLjAsBgkqhkiG9w0BCQEWH0NIRU5OQUlD
QV9DQUBDSEVOTkFJQ0FfbWFpbC5jb20wHhcNMTYwNzA4MDQzMzU3WhcNMjYwNzA2
MDQzMzU3WjB0MQswCQYDVQQIEwJLQTELMAkGA1UEBhMCSU4xHTAbBgNVBAMUFDEz
Nl9DSEVOTkFJQ0Ffc2VydmVyMSgwJgYJKoZIhvcNAQkBFhkxMzZfQ0hFTk5BSUNB
QHRlc3RfY2EuY29tMQ8wDQYDVQQKEwZDSVRSSVgwggEiMA0GCSqGSIb3DQEBAQUA
A4IBDwAwggEKAoIBAQC7yNO71SnnehUbkLPMZYz2cvYtfUJSDx7+psD5nMWA2Nzl
RXFcjSJEvJjuuqlAyGoWczYEH5RF98YwEn9CU2UdLI2erPxSaOgbx6jztQv9xmGk
6rWBKegwrXqK5GcxLyk+NTM2woGfnETMcTymsnNZMqq0jnZ9/Lte5reF+a3KQ4Sa
Hd1SLZBSH8z0Jd7US40lREzlEDIJEcWunq5K0WIdc+mhY1pMc7m2fqn5v7NWo2Tb
7P1WBblKbmZ5s9CfFljla9y2Kk3Z9I5Yimvp95zd8jgcx1kFP1VEHOAaGOuZhzBR
5iOPRPZBT4fN+cmcfUVKDeQy7kf319g3LoLrkzGpAgMBAAGjggEsMIIBKDARBglg
hkgBhvhCAQEEBAMCBkAwHQYDVR0OBBYEFNi1IZr/t3dLE8edjDxZOG1eO/XhMIG1
BgNVHSMEga0wgaqAFL7KU6xliRgCHvZTolASlGDszAX6oYGGpIGDMIGAMRUwEwYD
VQQDFAxDSEVOTkFJQ0FfQ0ExCzAJBgNVBAYTAklOMQ8wDQYDVQQKEwZDSVRSSVgx
DDAKBgNVBAsTA0FORzELMAkGA1UECBMCS0ExLjAsBgkqhkiG9w0BCQEWH0NIRU5O
QUlDQV9DQUBDSEVOTkFJQ0FfbWFpbC5jb22CCQCH+8TUXkZWcDA8BggrBgEFBQcB
AQQwMC4wLAYIKwYBBQUHMAGGIGh0dHA6Ly8xNzIuMTkuMjAuMS9yZXNwb25kZXJw
YXRoMA0GCSqGSIb3DQEBCwUAA4IBAQBjQDKH8JRvPLoBfYlsjQRznhs0XHPoROdH
ZFHT2LgOFViZkjhs4qILX9COkhitqVT8OVuUZUC9RVG8J6jA3My/TYiOPkryXjMG
0c2fj0egDwX1KPMkzp20O9JNz9+V1Jq6TAzb9oqN5iCgrpT9nORaVxrIAEwO49lX
2VdANdFu6h/MX5KIgLFTtNyaOe1znDqKhldZ13q1Sr32gKHRi/22qh6WFz6Fs0HZ
FXNU0chr2jSWOPGlzpBSkiUhErwYjSNXplrp/j6oPSFImdsbQy9CNY1wmrBcuzSQ
Vzk1JSe9Dm4bN52AuMKtu/vm9QRjY1vFu7HLWNsIYJ5TJ4e53tZb
-----END CERTIFICATE-----
