Certificate:
    Data:
        Version: 3 (0x2)
        Serial Number: 11042563100211 (0xa0b0c0d0e33)
    Signature Algorithm: sha256WithRSAEncryption
        Issuer: CN=DELHICA_CA, C=IN, O=CITRIX, OU=ANG, ST=KA/emailAddress=DELHICA_CA@DELHICA_mail.com
        Validity
            Not Before: Jul  8 04:34:31 2016 GMT
            Not After : Jul  6 04:34:31 2026 GMT
        Subject: ST=KA, C=IN, CN=137_DELHICA_server/emailAddress=137_DELHICA@test_ca.com, O=CITRIX
        Subject Public Key Info:
            Public Key Algorithm: rsaEncryption
                Public-Key: (2048 bit)
                Modulus:
                    00:bc:b4:81:07:88:c7:5e:39:3c:09:f4:b7:94:cd:
                    3c:03:88:da:f3:67:d3:94:71:55:28:2d:5b:ad:68:
                    82:1e:bf:38:bb:51:77:cb:a3:d4:f7:7e:03:ca:90:
                    76:da:99:79:66:24:58:44:2b:d2:36:47:5e:cd:c0:
                    85:5a:bc:76:c1:d9:78:59:91:86:ab:b7:34:b1:69:
                    71:90:61:ce:3a:e2:e2:3e:79:0b:68:b6:bd:4b:21:
                    e0:8d:96:1c:8b:44:ee:55:5e:bd:d4:10:5e:47:ef:
                    a9:2e:d6:85:3c:73:89:a5:4f:3e:a0:1b:be:e2:03:
                    12:40:5f:4f:81:08:79:d8:85:69:ec:88:50:f1:4a:
                    eb:5f:a9:91:9d:2c:6e:a1:cb:c1:38:52:28:c6:a5:
                    f9:37:c3:22:32:da:da:63:64:34:b6:a4:00:40:62:
                    a3:20:e5:c5:3f:9f:5f:21:a6:20:de:95:1b:36:ea:
                    7a:87:8d:40:1a:82:5e:39:02:d8:28:fb:6d:08:0a:
                    aa:20:f7:99:18:fc:3c:80:05:24:37:24:43:c1:e9:
                    a1:f7:67:ee:dd:a0:0e:9a:d4:2a:e5:60:fd:bb:5a:
                    7c:40:0a:13:c0:e5:53:73:14:51:ee:5b:17:6d:7f:
                    cc:71:b8:33:3b:ac:8f:20:5c:df:b9:be:42:01:90:
                    ba:71
                Exponent: 65537 (0x10001)
        X509v3 extensions:
            Netscape Cert Type: 
                SSL Server
            X509v3 Subject Key Identifier: 
                4A:F1:68:40:3B:8B:FC:FA:7D:ED:C6:A1:D5:1F:67:B8:F2:B5:10:F8
            X509v3 Authority Key Identifier: 
                keyid:D7:37:52:01:DC:2C:7A:57:85:CA:30:39:30:F0:D5:5D:5A:31:03:02
                DirName:/CN=DELHICA_CA/C=IN/O=CITRIX/OU=ANG/ST=KA/emailAddress=DELHICA_CA@DELHICA_mail.com
                serial:94:59:DC:51:4E:A5:13:27

            Authority Information Access: 
                OCSP - URI:http://172.20.20.1/responderpath

    Signature Algorithm: sha256WithRSAEncryption
         5f:e6:af:7d:18:09:e7:7a:0a:7f:91:a4:d3:41:5e:01:c3:33:
         fc:09:98:dd:51:c1:2e:b8:22:80:9c:cd:83:50:43:50:95:7e:
         d5:80:69:6e:66:d1:9d:ba:4a:62:f0:31:56:89:79:11:2c:d6:
         0c:9d:af:8f:fa:98:de:d1:99:e2:5e:48:70:b7:83:75:4d:6d:
         00:74:d5:de:87:17:ca:18:db:e7:c7:f9:33:40:36:db:6c:55:
         b3:e3:b2:aa:d1:f1:e1:fa:6e:83:3e:43:d3:d5:6c:54:4b:6c:
         29:a0:88:05:27:64:06:30:25:e6:08:3b:ab:b6:0a:5f:30:4f:
         f7:77:6e:35:37:79:e3:96:ff:ed:ae:54:c7:f7:63:23:d1:ab:
         1d:1c:af:aa:f7:c5:3c:b6:54:12:fe:62:1f:6e:3d:2c:c0:a1:
         fa:80:9b:73:c4:33:57:f8:68:26:54:1b:17:8b:d5:66:ab:96:
         ca:ba:9c:9d:ae:b7:2c:cd:ef:ca:3f:72:45:b2:04:21:88:ce:
         c9:2a:db:31:42:0c:67:15:81:9b:73:5c:22:37:0c:7c:7d:69:
         18:07:62:e4:09:e9:1c:87:eb:3c:c6:28:9d:56:2e:a5:19:99:
         ef:4d:dd:e6:69:c9:8f:7a:25:f3:59:73:b2:2e:2b:b6:33:75:
         23:1f:92:25
-----BEGIN CERTIFICATE-----
MIIEjzCCA3egAwIBAgIGCgsMDQ4zMA0GCSqGSIb3DQEBCwUAMHoxEzARBgNVBAMU
CkRFTEhJQ0FfQ0ExCzAJBgNVBAYTAklOMQ8wDQYDVQQKEwZDSVRSSVgxDDAKBgNV
BAsTA0FORzELMAkGA1UECBMCS0ExKjAoBgkqhkiG9w0BCQEWG0RFTEhJQ0FfQ0FA
REVMSElDQV9tYWlsLmNvbTAeFw0xNjA3MDgwNDM0MzFaFw0yNjA3MDYwNDM0MzFa
MHAxCzAJBgNVBAgTAktBMQswCQYDVQQGEwJJTjEbMBkGA1UEAxQSMTM3X0RFTEhJ
Q0Ffc2VydmVyMSYwJAYJKoZIhvcNAQkBFhcxMzdfREVMSElDQUB0ZXN0X2NhLmNv
bTEPMA0GA1UEChMGQ0lUUklYMIIBIjANBgkqhkiG9w0BAQEFAAOCAQ8AMIIBCgKC
AQEAvLSBB4jHXjk8CfS3lM08A4ja82fTlHFVKC1brWiCHr84u1F3y6PU934DypB2
2pl5ZiRYRCvSNkdezcCFWrx2wdl4WZGGq7c0sWlxkGHOOuLiPnkLaLa9SyHgjZYc
i0TuVV691BBeR++pLtaFPHOJpU8+oBu+4gMSQF9PgQh52IVp7IhQ8UrrX6mRnSxu
ocvBOFIoxqX5N8MiMtraY2Q0tqQAQGKjIOXFP59fIaYg3pUbNup6h41AGoJeOQLY
KPttCAqqIPeZGPw8gAUkNyRDwemh92fu3aAOmtQq5WD9u1p8QAoTwOVTcxRR7lsX
bX/McbgzO6yPIFzfub5CAZC6cQIDAQABo4IBIzCCAR8wEQYJYIZIAYb4QgEBBAQD
AgZAMB0GA1UdDgQWBBRK8WhAO4v8+n3txqHVH2e48rUQ+DCBrAYDVR0jBIGkMIGh
gBTXN1IB3Cx6V4XKMDkw8NVdWjEDAqF+pHwwejETMBEGA1UEAxQKREVMSElDQV9D
QTELMAkGA1UEBhMCSU4xDzANBgNVBAoTBkNJVFJJWDEMMAoGA1UECxMDQU5HMQsw
CQYDVQQIEwJLQTEqMCgGCSqGSIb3DQEJARYbREVMSElDQV9DQUBERUxISUNBX21h
aWwuY29tggkAlFncUU6lEycwPAYIKwYBBQUHAQEEMDAuMCwGCCsGAQUFBzABhiBo
dHRwOi8vMTcyLjIwLjIwLjEvcmVzcG9uZGVycGF0aDANBgkqhkiG9w0BAQsFAAOC
AQEAX+avfRgJ53oKf5Gk00FeAcMz/AmY3VHBLrgigJzNg1BDUJV+1YBpbmbRnbpK
YvAxVol5ESzWDJ2vj/qY3tGZ4l5IcLeDdU1tAHTV3ocXyhjb58f5M0A222xVs+Oy
qtHx4fpugz5D09VsVEtsKaCIBSdkBjAl5gg7q7YKXzBP93duNTd545b/7a5Ux/dj
I9GrHRyvqvfFPLZUEv5iH249LMCh+oCbc8QzV/hoJlQbF4vVZquWyrqcna63LM3v
yj9yRbIEIYjOySrbMUIMZxWBm3NcIjcMfH1pGAdi5AnpHIfrPMYonVYupRmZ703d
5mnJj3ol81lzsi4rtjN1Ix+SJQ==
-----END CERTIFICATE-----
