Certificate:
    Data:
        Version: 3 (0x2)
        Serial Number: 11042563100211 (0xa0b0c0d0e33)
    Signature Algorithm: sha256WithRSAEncryption
        Issuer: CN=CALCUTTACA_CA, C=IN, O=CITRIX, OU=ANG, ST=KA/emailAddress=CALCUTTACA_CA@CALCUTTACA_mail.com
        Validity
            Not Before: Jul  8 04:33:14 2016 GMT
            Not After : Jul  6 04:33:14 2026 GMT
        Subject: ST=KA, C=IN, CN=137_CALCUTTACA_server/emailAddress=137_CALCUTTACA@test_ca.com, O=CITRIX
        Subject Public Key Info:
            Public Key Algorithm: rsaEncryption
                Public-Key: (2048 bit)
                Modulus:
                    00:cf:ee:96:de:2d:ca:ee:53:0c:b1:d2:72:6f:28:
                    b4:bc:1d:92:b0:0e:e6:2b:0b:8f:73:39:cd:4a:69:
                    c4:90:4c:39:6d:a2:73:97:ad:20:38:c5:4f:5d:2a:
                    32:fc:c3:19:52:95:75:6a:81:13:3f:09:bf:21:e7:
                    39:32:2d:bb:6a:f7:2c:78:90:c9:3d:b7:01:68:0a:
                    45:32:ec:33:1c:76:57:67:4a:9e:a1:3f:ce:cc:e0:
                    3a:56:c7:e6:b5:dc:6a:60:7f:38:38:54:4f:ce:b9:
                    7c:f4:65:f0:f0:dc:ce:2d:a5:a8:75:35:ee:79:9e:
                    39:b0:9c:39:fd:81:43:47:22:97:6e:e5:ca:47:38:
                    bd:e5:2f:bb:dd:1a:bc:f6:11:6e:7b:42:c2:69:c6:
                    57:d8:d1:da:9f:55:ab:da:18:8a:68:f8:6d:cc:c4:
                    56:bb:ab:c6:71:20:0c:c2:22:b8:5d:e9:72:64:25:
                    9f:a0:f3:cb:31:93:04:a1:7e:4e:a6:7b:e9:25:89:
                    20:34:b9:0f:c6:45:a2:5c:37:01:8f:42:77:7d:0e:
                    f3:28:9d:3d:35:cf:d4:4a:41:17:58:a6:51:ae:6d:
                    3f:b3:02:06:bd:c1:88:d3:d2:55:63:c8:64:18:fe:
                    f2:e7:e8:eb:7e:89:b6:ba:71:1c:d2:77:10:21:cf:
                    43:85
                Exponent: 65537 (0x10001)
        X509v3 extensions:
            Netscape Cert Type: 
                SSL Server
            X509v3 Subject Key Identifier: 
                42:DC:E3:2D:47:C3:24:68:7F:FB:BD:55:0F:4E:7D:5E:9B:85:BC:27
            X509v3 Authority Key Identifier: 
                keyid:37:2E:7B:27:46:4B:CF:47:10:AC:2B:2E:BA:D0:F3:66:75:EB:52:75
                DirName:/CN=CALCUTTACA_CA/C=IN/O=CITRIX/OU=ANG/ST=KA/emailAddress=CALCUTTACA_CA@CALCUTTACA_mail.com
                serial:A5:C6:47:0E:E6:06:37:18

            Authority Information Access: 
                OCSP - URI:http://172.18.20.1/responderpath

    Signature Algorithm: sha256WithRSAEncryption
         cb:8d:56:f1:5e:47:60:5d:08:11:82:c4:3f:02:ef:95:59:60:
         17:a8:a6:3c:c0:f7:ad:ef:04:0e:de:23:5a:d7:b1:6d:cc:54:
         b8:3b:b8:89:26:48:eb:40:47:fb:15:9d:ec:b2:1c:00:19:5b:
         be:07:4d:43:44:bc:0f:ab:88:73:28:12:6d:39:e8:46:b0:7a:
         47:a9:d5:a2:a8:59:30:ee:93:80:f2:bf:5f:9a:73:2e:dd:fd:
         cb:f2:0c:2c:e5:7c:eb:62:f8:0c:4c:d3:32:e5:c3:b0:d6:7e:
         6b:88:21:6d:e8:82:1f:01:3c:3f:ac:43:d2:f6:c3:4d:54:e1:
         f4:c0:e3:c5:a2:81:29:a0:58:41:4e:9b:a5:1d:9b:d5:6f:30:
         f9:ba:a5:34:ed:bd:c0:79:e0:79:59:e5:66:da:9e:2b:37:53:
         2c:78:16:9d:f3:83:a6:a2:db:50:72:4b:45:f7:f0:45:0c:6a:
         66:af:44:10:ff:1a:5a:67:39:f5:31:16:ee:d8:d7:95:43:93:
         a7:1f:04:0e:79:6c:49:ac:3a:77:8e:69:c1:fd:40:52:45:e2:
         aa:da:30:40:8e:85:c2:3c:de:c5:77:da:09:59:f1:e6:69:7c:
         bf:8b:3e:94:db:e7:ea:cc:64:31:53:24:34:9d:21:e9:27:04:
         4a:f7:54:e2
-----BEGIN CERTIFICATE-----
MIIEqzCCA5OgAwIBAgIGCgsMDQ4zMA0GCSqGSIb3DQEBCwUAMIGDMRYwFAYDVQQD
FA1DQUxDVVRUQUNBX0NBMQswCQYDVQQGEwJJTjEPMA0GA1UEChMGQ0lUUklYMQww
CgYDVQQLEwNBTkcxCzAJBgNVBAgTAktBMTAwLgYJKoZIhvcNAQkBFiFDQUxDVVRU
QUNBX0NBQENBTENVVFRBQ0FfbWFpbC5jb20wHhcNMTYwNzA4MDQzMzE0WhcNMjYw
NzA2MDQzMzE0WjB2MQswCQYDVQQIEwJLQTELMAkGA1UEBhMCSU4xHjAcBgNVBAMU
FTEzN19DQUxDVVRUQUNBX3NlcnZlcjEpMCcGCSqGSIb3DQEJARYaMTM3X0NBTENV
VFRBQ0FAdGVzdF9jYS5jb20xDzANBgNVBAoTBkNJVFJJWDCCASIwDQYJKoZIhvcN
AQEBBQADggEPADCCAQoCggEBAM/ult4tyu5TDLHScm8otLwdkrAO5isLj3M5zUpp
xJBMOW2ic5etIDjFT10qMvzDGVKVdWqBEz8JvyHnOTItu2r3LHiQyT23AWgKRTLs
Mxx2V2dKnqE/zszgOlbH5rXcamB/ODhUT865fPRl8PDczi2lqHU17nmeObCcOf2B
Q0cil27lykc4veUvu90avPYRbntCwmnGV9jR2p9Vq9oYimj4bczEVrurxnEgDMIi
uF3pcmQln6DzyzGTBKF+TqZ76SWJIDS5D8ZFolw3AY9Cd30O8yidPTXP1EpBF1im
Ua5tP7MCBr3BiNPSVWPIZBj+8ufo636JtrpxHNJ3ECHPQ4UCAwEAAaOCAS8wggEr
MBEGCWCGSAGG+EIBAQQEAwIGQDAdBgNVHQ4EFgQUQtzjLUfDJGh/+71VD059XpuF
vCcwgbgGA1UdIwSBsDCBrYAUNy57J0ZLz0cQrCsuutDzZnXrUnWhgYmkgYYwgYMx
FjAUBgNVBAMUDUNBTENVVFRBQ0FfQ0ExCzAJBgNVBAYTAklOMQ8wDQYDVQQKEwZD
SVRSSVgxDDAKBgNVBAsTA0FORzELMAkGA1UECBMCS0ExMDAuBgkqhkiG9w0BCQEW
IUNBTENVVFRBQ0FfQ0FAQ0FMQ1VUVEFDQV9tYWlsLmNvbYIJAKXGRw7mBjcYMDwG
CCsGAQUFBwEBBDAwLjAsBggrBgEFBQcwAYYgaHR0cDovLzE3Mi4xOC4yMC4xL3Jl
c3BvbmRlcnBhdGgwDQYJKoZIhvcNAQELBQADggEBAMuNVvFeR2BdCBGCxD8C75VZ
YBeopjzA963vBA7eI1rXsW3MVLg7uIkmSOtAR/sVneyyHAAZW74HTUNEvA+riHMo
Em056Eawekep1aKoWTDuk4Dyv1+acy7d/cvyDCzlfOti+AxM0zLlw7DWfmuIIW3o
gh8BPD+sQ9L2w01U4fTA48WigSmgWEFOm6Udm9VvMPm6pTTtvcB54HlZ5Wbanis3
Uyx4Fp3zg6ai21ByS0X38EUMamavRBD/GlpnOfUxFu7Y15VDk6cfBA55bEmsOneO
acH9QFJF4qraMECOhcI83sV32glZ8eZpfL+LPpTb5+rMZDFTJDSdIeknBEr3VOI=
-----END CERTIFICATE-----
