Certificate:
    Data:
        Version: 3 (0x2)
        Serial Number: 11042563100211 (0xa0b0c0d0e33)
    Signature Algorithm: sha256WithRSAEncryption
        Issuer: CN=BANGALORECA_CA, C=IN, O=CITRIX, OU=ANG, ST=KA/emailAddress=BANGALORECA_CA@BANGALORECA_mail.com
        Validity
            Not Before: Jul  8 04:31:30 2016 GMT
            Not After : Jul  6 04:31:30 2026 GMT
        Subject: ST=KA, C=IN, CN=137_BANGALORECA_server/emailAddress=137_BANGALORECA@test_ca.com, O=CITRIX
        Subject Public Key Info:
            Public Key Algorithm: rsaEncryption
                Public-Key: (2048 bit)
                Modulus:
                    00:d9:4d:bb:81:ed:5a:7f:db:1d:9e:2f:02:d6:02:
                    ef:89:2a:de:04:09:8e:ef:b8:ac:4c:9c:6b:21:61:
                    39:a6:01:cb:ad:31:b6:f5:09:3c:03:d3:01:b6:bd:
                    50:64:c1:26:43:a8:4d:69:ac:4f:cb:b9:6d:39:6c:
                    fd:9f:a3:e1:96:42:c0:6c:e5:3a:a7:93:43:55:e1:
                    63:97:cf:de:f8:45:bf:2a:bf:be:49:2d:b2:45:88:
                    9f:f6:d5:b3:8c:d0:ad:65:46:40:c5:ce:a8:ff:fe:
                    97:8c:d5:62:24:ab:92:cc:89:9d:77:23:20:95:a9:
                    fc:24:c7:c7:46:7f:38:0a:c6:54:70:7e:d9:ba:71:
                    a2:3d:55:e4:eb:d7:4a:d2:ea:ec:c1:e0:a0:0e:98:
                    25:9c:ae:a4:d7:ce:df:36:45:fb:d6:8d:5e:0a:0b:
                    0d:62:24:b9:a1:c0:c5:e2:ac:cd:08:ea:4b:6b:8a:
                    f8:d0:e3:7f:21:ac:2a:55:8a:d6:e1:98:8a:8e:6d:
                    14:88:03:97:a9:f8:7f:69:59:05:ae:a9:86:84:ac:
                    1d:24:d9:58:01:f8:8f:60:76:f3:33:0d:84:c2:ae:
                    c2:3d:0d:40:69:1d:26:e0:fc:35:45:9d:d3:0f:2f:
                    b1:94:b5:20:ed:e6:77:c4:0c:06:fb:3b:a9:19:10:
                    93:d5
                Exponent: 65537 (0x10001)
        X509v3 extensions:
            Netscape Cert Type: 
                SSL Server
            X509v3 Subject Key Identifier: 
                1D:8B:21:08:B2:91:26:EB:93:20:86:73:48:01:89:0A:DB:EB:06:F2
            X509v3 Authority Key Identifier: 
                keyid:3B:D6:D1:53:18:87:05:22:BB:EE:C3:0F:F5:CE:0F:6B:A2:93:A7:B8
                DirName:/CN=BANGALORECA_CA/C=IN/O=CITRIX/OU=ANG/ST=KA/emailAddress=BANGALORECA_CA@BANGALORECA_mail.com
                serial:A1:AC:B4:DA:46:53:58:40

            Authority Information Access: 
                OCSP - URI:http://172.16.20.1/responderpath

    Signature Algorithm: sha256WithRSAEncryption
         3d:c2:c2:41:b1:9c:41:14:e8:6b:9c:29:1e:83:45:b7:6f:55:
         32:26:9c:00:ee:1e:25:71:6f:9f:19:ce:54:66:da:0b:d9:fd:
         be:b1:0d:21:c7:96:2f:a9:ed:67:32:bb:33:56:eb:c3:02:9f:
         9a:a4:20:af:b9:d9:a0:ae:33:d6:45:99:0a:0d:94:92:48:62:
         4e:89:ec:c3:90:c5:10:34:cb:5d:dc:4e:2c:c9:25:5d:bb:88:
         97:8b:37:07:24:b1:79:cf:d1:f8:99:6c:71:1b:ee:21:e1:bf:
         3e:78:71:ba:ea:e6:65:30:d7:af:5c:36:0c:84:84:b6:b2:d3:
         58:0b:af:9f:b9:83:e8:02:76:a7:3c:65:c3:ed:4a:01:f9:bb:
         4a:4e:24:22:19:c5:29:94:97:96:98:31:c4:3a:ed:7b:34:5d:
         87:1e:46:d1:f4:22:0f:15:38:be:47:8a:9a:b1:af:1a:b6:72:
         b7:3b:bb:45:2b:2b:22:c4:60:0e:d5:72:e2:67:d1:b1:b9:6c:
         25:89:8f:36:83:e5:44:3d:8b:be:6e:3f:71:f3:f6:8e:1f:55:
         e1:0a:21:a7:16:58:05:90:19:26:ce:16:32:42:5f:1a:75:7c:
         54:4f:4d:e6:47:df:60:4b:7b:77:09:32:48:d8:1d:0d:df:7a:
         c7:aa:e0:ef
-----BEGIN CERTIFICATE-----
MIIEszCCA5ugAwIBAgIGCgsMDQ4zMA0GCSqGSIb3DQEBCwUAMIGGMRcwFQYDVQQD
FA5CQU5HQUxPUkVDQV9DQTELMAkGA1UEBhMCSU4xDzANBgNVBAoTBkNJVFJJWDEM
MAoGA1UECxMDQU5HMQswCQYDVQQIEwJLQTEyMDAGCSqGSIb3DQEJARYjQkFOR0FM
T1JFQ0FfQ0FAQkFOR0FMT1JFQ0FfbWFpbC5jb20wHhcNMTYwNzA4MDQzMTMwWhcN
MjYwNzA2MDQzMTMwWjB4MQswCQYDVQQIEwJLQTELMAkGA1UEBhMCSU4xHzAdBgNV
BAMUFjEzN19CQU5HQUxPUkVDQV9zZXJ2ZXIxKjAoBgkqhkiG9w0BCQEWGzEzN19C
QU5HQUxPUkVDQUB0ZXN0X2NhLmNvbTEPMA0GA1UEChMGQ0lUUklYMIIBIjANBgkq
hkiG9w0BAQEFAAOCAQ8AMIIBCgKCAQEA2U27ge1af9sdni8C1gLviSreBAmO77is
TJxrIWE5pgHLrTG29Qk8A9MBtr1QZMEmQ6hNaaxPy7ltOWz9n6PhlkLAbOU6p5ND
VeFjl8/e+EW/Kr++SS2yRYif9tWzjNCtZUZAxc6o//6XjNViJKuSzImddyMglan8
JMfHRn84CsZUcH7ZunGiPVXk69dK0ursweCgDpglnK6k187fNkX71o1eCgsNYiS5
ocDF4qzNCOpLa4r40ON/IawqVYrW4ZiKjm0UiAOXqfh/aVkFrqmGhKwdJNlYAfiP
YHbzMw2Ewq7CPQ1AaR0m4Pw1RZ3TDy+xlLUg7eZ3xAwG+zupGRCT1QIDAQABo4IB
MjCCAS4wEQYJYIZIAYb4QgEBBAQDAgZAMB0GA1UdDgQWBBQdiyEIspEm65MghnNI
AYkK2+sG8jCBuwYDVR0jBIGzMIGwgBQ71tFTGIcFIrvuww/1zg9ropOnuKGBjKSB
iTCBhjEXMBUGA1UEAxQOQkFOR0FMT1JFQ0FfQ0ExCzAJBgNVBAYTAklOMQ8wDQYD
VQQKEwZDSVRSSVgxDDAKBgNVBAsTA0FORzELMAkGA1UECBMCS0ExMjAwBgkqhkiG
9w0BCQEWI0JBTkdBTE9SRUNBX0NBQEJBTkdBTE9SRUNBX21haWwuY29tggkAoay0
2kZTWEAwPAYIKwYBBQUHAQEEMDAuMCwGCCsGAQUFBzABhiBodHRwOi8vMTcyLjE2
LjIwLjEvcmVzcG9uZGVycGF0aDANBgkqhkiG9w0BAQsFAAOCAQEAPcLCQbGcQRTo
a5wpHoNFt29VMiacAO4eJXFvnxnOVGbaC9n9vrENIceWL6ntZzK7M1brwwKfmqQg
r7nZoK4z1kWZCg2UkkhiTonsw5DFEDTLXdxOLMklXbuIl4s3BySxec/R+JlscRvu
IeG/PnhxuurmZTDXr1w2DISEtrLTWAuvn7mD6AJ2pzxlw+1KAfm7Sk4kIhnFKZSX
lpgxxDrtezRdhx5G0fQiDxU4vkeKmrGvGrZytzu7RSsrIsRgDtVy4mfRsblsJYmP
NoPlRD2Lvm4/cfP2jh9V4QohpxZYBZAZJs4WMkJfGnV8VE9N5kffYEt7dwkySNgd
Dd96x6rg7w==
-----END CERTIFICATE-----
