Certificate:
    Data:
        Version: 3 (0x2)
        Serial Number: 11042563100211 (0xa0b0c0d0e33)
    Signature Algorithm: sha256WithRSAEncryption
        Issuer: CN=BHOPALCA_CA, C=IN, O=CITRIX, OU=ANG, ST=KA/emailAddress=BHOPALCA_CA@BHOPALCA_mail.com
        Validity
            Not Before: Jul  8 04:32:42 2016 GMT
            Not After : Jul  6 04:32:42 2026 GMT
        Subject: ST=KA, C=IN, CN=137_BHOPALCA_server/emailAddress=137_BHOPALCA@test_ca.com, O=CITRIX
        Subject Public Key Info:
            Public Key Algorithm: rsaEncryption
                Public-Key: (2048 bit)
                Modulus:
                    00:e6:6c:33:bc:62:e1:32:82:0a:f9:c5:4d:3c:36:
                    cc:bc:69:18:ef:41:92:8e:5e:38:f9:8a:09:ac:f7:
                    33:a0:cd:91:fd:05:e3:7e:73:8f:b2:17:0e:ad:7b:
                    5b:d4:bb:26:f3:81:e3:27:a3:21:53:b7:ef:ef:f3:
                    ab:3c:46:c5:35:6b:33:29:f3:16:f0:76:d2:c3:b4:
                    c6:a2:3f:2f:83:18:a8:97:40:07:41:eb:27:38:1d:
                    52:2b:1f:31:3d:d3:d0:60:11:07:8d:88:42:03:0c:
                    2a:9f:89:db:ed:fe:ae:52:3c:a9:5b:2d:a6:fe:18:
                    d7:da:a7:a8:f5:d0:f1:ad:ef:dc:28:6b:22:61:a4:
                    4e:52:2f:cb:35:28:f9:c6:23:f7:ce:e0:fd:dd:67:
                    ce:c8:bd:12:79:7e:47:45:03:58:6e:8b:a0:9c:03:
                    7b:7f:1f:94:57:55:cc:41:18:33:2c:8e:ff:e5:b2:
                    89:05:aa:d9:6e:4c:3b:f0:1d:e6:4d:2c:53:f4:ef:
                    b3:25:0c:6a:13:b1:af:64:40:8a:26:93:99:05:d6:
                    4e:74:fb:07:97:57:50:5b:9e:60:bb:56:69:a8:85:
                    e7:97:d5:af:9d:5f:f7:ce:6d:9f:6b:aa:db:a0:f5:
                    a8:53:5b:99:d5:65:3c:31:35:dc:ff:88:70:a9:d4:
                    5e:f1
                Exponent: 65537 (0x10001)
        X509v3 extensions:
            Netscape Cert Type: 
                SSL Server
            X509v3 Subject Key Identifier: 
                D8:A0:20:89:5B:3D:9C:21:A0:B9:AF:13:6B:4F:C8:35:6F:8E:CD:00
            X509v3 Authority Key Identifier: 
                keyid:A6:66:0E:59:0F:3C:5C:11:35:B2:B3:99:59:A9:D3:A6:B1:5E:95:D2
                DirName:/CN=BHOPALCA_CA/C=IN/O=CITRIX/OU=ANG/ST=KA/emailAddress=BHOPALCA_CA@BHOPALCA_mail.com
                serial:BE:89:55:F3:65:28:17:9A

            Authority Information Access: 
                OCSP - URI:http://172.17.20.1/responderpath

    Signature Algorithm: sha256WithRSAEncryption
         38:f3:6f:30:8b:c8:5d:b9:31:ab:55:58:d1:fa:29:ed:f7:66:
         ae:38:2c:95:a9:9b:87:51:c1:55:ff:f3:24:20:fc:95:b7:60:
         6e:14:08:c1:6e:92:07:9a:18:ee:5e:0b:18:f7:b0:9e:84:4c:
         3f:7e:78:77:dc:8a:f9:2f:6c:17:62:7e:4d:e1:a0:a3:95:0f:
         77:be:77:e2:36:ff:dc:7a:a2:8a:02:be:cf:4e:08:4d:b1:14:
         b3:3c:da:0e:45:08:98:7d:de:0d:c7:1b:ac:0a:d7:8e:24:e9:
         86:0b:63:64:fb:d2:41:dc:e6:1b:a6:ab:48:e6:d1:3d:7c:78:
         bd:dc:7e:3b:4a:c5:af:c3:0b:e7:48:f5:28:f1:66:34:ff:8c:
         ee:1a:07:91:43:39:1d:1e:71:1a:0a:9d:76:8f:3b:e7:07:dd:
         c4:af:44:bb:6b:50:67:8d:f7:23:31:85:d7:57:e6:0f:bf:7c:
         9f:e6:42:0d:05:7b:85:60:96:2d:de:6c:23:ec:59:70:25:2e:
         13:f7:49:61:b5:30:b3:70:e3:c4:d0:3f:a5:d3:d2:14:80:9a:
         55:c8:e6:b5:d1:b0:b8:29:54:6c:24:9a:4e:1b:6c:e8:70:5c:
         62:8b:dd:70:16:02:6b:43:46:4a:7e:98:cb:80:55:fa:47:ae:
         5b:5d:04:88
-----BEGIN CERTIFICATE-----
MIIEmDCCA4CgAwIBAgIGCgsMDQ4zMA0GCSqGSIb3DQEBCwUAMH0xFDASBgNVBAMU
C0JIT1BBTENBX0NBMQswCQYDVQQGEwJJTjEPMA0GA1UEChMGQ0lUUklYMQwwCgYD
VQQLEwNBTkcxCzAJBgNVBAgTAktBMSwwKgYJKoZIhvcNAQkBFh1CSE9QQUxDQV9D
QUBCSE9QQUxDQV9tYWlsLmNvbTAeFw0xNjA3MDgwNDMyNDJaFw0yNjA3MDYwNDMy
NDJaMHIxCzAJBgNVBAgTAktBMQswCQYDVQQGEwJJTjEcMBoGA1UEAxQTMTM3X0JI
T1BBTENBX3NlcnZlcjEnMCUGCSqGSIb3DQEJARYYMTM3X0JIT1BBTENBQHRlc3Rf
Y2EuY29tMQ8wDQYDVQQKEwZDSVRSSVgwggEiMA0GCSqGSIb3DQEBAQUAA4IBDwAw
ggEKAoIBAQDmbDO8YuEyggr5xU08Nsy8aRjvQZKOXjj5igms9zOgzZH9BeN+c4+y
Fw6te1vUuybzgeMnoyFTt+/v86s8RsU1azMp8xbwdtLDtMaiPy+DGKiXQAdB6yc4
HVIrHzE909BgEQeNiEIDDCqfidvt/q5SPKlbLab+GNfap6j10PGt79woayJhpE5S
L8s1KPnGI/fO4P3dZ87IvRJ5fkdFA1hui6CcA3t/H5RXVcxBGDMsjv/lsokFqtlu
TDvwHeZNLFP077MlDGoTsa9kQIomk5kF1k50+weXV1BbnmC7VmmoheeX1a+dX/fO
bZ9rqtug9ahTW5nVZTwxNdz/iHCp1F7xAgMBAAGjggEnMIIBIzARBglghkgBhvhC
AQEEBAMCBkAwHQYDVR0OBBYEFNigIIlbPZwhoLmvE2tPyDVvjs0AMIGwBgNVHSME
gagwgaWAFKZmDlkPPFwRNbKzmVmp06axXpXSoYGBpH8wfTEUMBIGA1UEAxQLQkhP
UEFMQ0FfQ0ExCzAJBgNVBAYTAklOMQ8wDQYDVQQKEwZDSVRSSVgxDDAKBgNVBAsT
A0FORzELMAkGA1UECBMCS0ExLDAqBgkqhkiG9w0BCQEWHUJIT1BBTENBX0NBQEJI
T1BBTENBX21haWwuY29tggkAvolV82UoF5owPAYIKwYBBQUHAQEEMDAuMCwGCCsG
AQUFBzABhiBodHRwOi8vMTcyLjE3LjIwLjEvcmVzcG9uZGVycGF0aDANBgkqhkiG
9w0BAQsFAAOCAQEAOPNvMIvIXbkxq1VY0fop7fdmrjgslambh1HBVf/zJCD8lbdg
bhQIwW6SB5oY7l4LGPewnoRMP354d9yK+S9sF2J+TeGgo5UPd7534jb/3HqiigK+
z04ITbEUszzaDkUImH3eDccbrArXjiTphgtjZPvSQdzmG6arSObRPXx4vdx+O0rF
r8ML50j1KPFmNP+M7hoHkUM5HR5xGgqddo875wfdxK9Eu2tQZ433IzGF11fmD798
n+ZCDQV7hWCWLd5sI+xZcCUuE/dJYbUws3DjxNA/pdPSFICaVcjmtdGwuClUbCSa
Thts6HBcYovdcBYCa0NGSn6Yy4BV+keuW10EiA==
-----END CERTIFICATE-----
