Certificate:
    Data:
        Version: 3 (0x2)
        Serial Number: 11042563100211 (0xa0b0c0d0e33)
    Signature Algorithm: sha256WithRSAEncryption
        Issuer: CN=SHILLONGCA_CA, C=IN, O=CITRIX, OU=ANG, ST=KA/emailAddress=SHILLONGCA_CA@SHILLONGCA_mail.com
        Validity
            Not Before: Jul  8 04:40:15 2016 GMT
            Not After : Jul  6 04:40:15 2026 GMT
        Subject: ST=KA, C=IN, CN=137_SHILLONGCA_server/emailAddress=137_SHILLONGCA@test_ca.com, O=CITRIX
        Subject Public Key Info:
            Public Key Algorithm: rsaEncryption
                Public-Key: (2048 bit)
                Modulus:
                    00:b5:c5:49:c7:9e:2a:8d:e9:fb:bb:cc:ea:1c:a5:
                    fd:03:62:7a:c6:fb:fa:ef:59:c9:c3:fa:30:32:a1:
                    00:ac:b1:a7:1d:1d:4d:62:b3:6d:8d:e6:22:43:93:
                    fe:5e:67:bb:5d:2b:64:35:b7:6b:c3:96:1a:cf:75:
                    47:9a:4a:99:92:82:bc:7e:fb:06:b8:01:b0:86:b2:
                    fb:90:a6:7f:ce:11:90:6b:ea:a6:44:d7:7a:36:70:
                    d7:80:ee:16:10:7c:a2:23:f3:cc:1b:ee:40:50:bb:
                    5d:ec:01:a7:f0:6b:93:83:ae:a7:3c:b6:2c:e7:87:
                    8b:86:74:a0:f0:13:1a:b8:38:26:5f:76:1c:e9:41:
                    35:dc:8b:a9:3e:1b:d8:ed:b6:18:a4:d0:4a:82:03:
                    a9:5a:17:b5:b1:c1:d5:61:8a:db:e6:1c:51:d8:5a:
                    53:4c:b1:ad:8c:8f:34:85:13:26:3c:fa:bf:ae:21:
                    3e:53:65:99:1d:74:23:22:12:28:ca:45:2d:bb:33:
                    e7:0c:ab:fc:42:9e:76:e2:a3:fc:7f:af:3d:77:29:
                    7b:6e:89:e6:bc:ae:53:ce:26:9f:ca:b9:71:65:10:
                    4d:09:3b:26:48:c3:16:3c:b8:97:00:44:c9:93:ef:
                    00:fb:c8:88:af:41:73:18:d6:31:f3:12:a0:18:9c:
                    6d:a3
                Exponent: 65537 (0x10001)
        X509v3 extensions:
            Netscape Cert Type: 
                SSL Server
            X509v3 Subject Key Identifier: 
                E4:4D:A8:70:17:85:26:1A:97:57:3E:18:CA:F6:B3:C1:C5:B7:60:79
            X509v3 Authority Key Identifier: 
                keyid:FA:E9:1F:A5:AF:8B:4E:18:FF:EF:B7:EA:8F:FB:98:BC:59:23:81:DF
                DirName:/CN=SHILLONGCA_CA/C=IN/O=CITRIX/OU=ANG/ST=KA/emailAddress=SHILLONGCA_CA@SHILLONGCA_mail.com
                serial:FB:D0:92:FD:A2:7C:35:0C

            Authority Information Access: 
                OCSP - URI:http://172.28.20.1/responderpath

    Signature Algorithm: sha256WithRSAEncryption
         c1:37:bd:51:76:ed:88:98:99:65:50:fa:2d:5d:83:97:5a:86:
         31:7f:2f:1f:c6:98:39:e1:04:70:b8:89:6d:57:5a:ab:c6:f1:
         25:84:dc:84:73:5a:a2:65:7b:7f:6e:16:de:55:ac:1b:50:df:
         c4:e3:fa:53:a9:96:0d:f8:eb:49:d3:96:a4:d5:08:23:f7:6c:
         7b:79:f7:d0:91:33:be:f7:25:36:0e:0e:a0:70:5c:4f:2f:35:
         45:cb:56:07:15:c2:1c:57:5e:3d:49:38:77:3f:b6:dc:d4:c2:
         c7:a1:a7:4f:f6:4a:34:dc:74:d6:7b:7c:dc:3c:9a:10:e6:82:
         ea:8d:2f:84:e2:97:f6:11:33:b1:0b:57:ae:20:a8:f8:07:93:
         e2:f6:9c:44:0c:9e:06:c0:cd:3b:88:b4:e2:20:b5:e5:62:ed:
         98:d4:a3:e0:e6:52:99:ca:bb:8f:f8:87:0a:73:b0:08:e5:f7:
         14:4b:9f:31:64:bf:5c:ab:80:dc:05:b6:07:03:93:13:e4:bb:
         fa:fa:41:88:68:29:a3:ef:b7:2b:a0:ec:72:01:99:0d:2a:ed:
         1f:65:12:8f:9c:21:1e:9b:ef:06:1d:aa:5b:1c:40:bb:08:8e:
         be:84:b6:b1:b9:f1:6b:5f:fa:5a:e0:07:50:3e:b5:2d:e3:ac:
         4b:b0:dc:1a
-----BEGIN CERTIFICATE-----
MIIEqzCCA5OgAwIBAgIGCgsMDQ4zMA0GCSqGSIb3DQEBCwUAMIGDMRYwFAYDVQQD
FA1TSElMTE9OR0NBX0NBMQswCQYDVQQGEwJJTjEPMA0GA1UEChMGQ0lUUklYMQww
CgYDVQQLEwNBTkcxCzAJBgNVBAgTAktBMTAwLgYJKoZIhvcNAQkBFiFTSElMTE9O
R0NBX0NBQFNISUxMT05HQ0FfbWFpbC5jb20wHhcNMTYwNzA4MDQ0MDE1WhcNMjYw
NzA2MDQ0MDE1WjB2MQswCQYDVQQIEwJLQTELMAkGA1UEBhMCSU4xHjAcBgNVBAMU
FTEzN19TSElMTE9OR0NBX3NlcnZlcjEpMCcGCSqGSIb3DQEJARYaMTM3X1NISUxM
T05HQ0FAdGVzdF9jYS5jb20xDzANBgNVBAoTBkNJVFJJWDCCASIwDQYJKoZIhvcN
AQEBBQADggEPADCCAQoCggEBALXFSceeKo3p+7vM6hyl/QNiesb7+u9ZycP6MDKh
AKyxpx0dTWKzbY3mIkOT/l5nu10rZDW3a8OWGs91R5pKmZKCvH77BrgBsIay+5Cm
f84RkGvqpkTXejZw14DuFhB8oiPzzBvuQFC7XewBp/Brk4Oupzy2LOeHi4Z0oPAT
Grg4Jl92HOlBNdyLqT4b2O22GKTQSoIDqVoXtbHB1WGK2+YcUdhaU0yxrYyPNIUT
Jjz6v64hPlNlmR10IyISKMpFLbsz5wyr/EKeduKj/H+vPXcpe26J5ryuU84mn8q5
cWUQTQk7JkjDFjy4lwBEyZPvAPvIiK9BcxjWMfMSoBicbaMCAwEAAaOCAS8wggEr
MBEGCWCGSAGG+EIBAQQEAwIGQDAdBgNVHQ4EFgQU5E2ocBeFJhqXVz4YyvazwcW3
YHkwgbgGA1UdIwSBsDCBrYAU+ukfpa+LThj/77fqj/uYvFkjgd+hgYmkgYYwgYMx
FjAUBgNVBAMUDVNISUxMT05HQ0FfQ0ExCzAJBgNVBAYTAklOMQ8wDQYDVQQKEwZD
SVRSSVgxDDAKBgNVBAsTA0FORzELMAkGA1UECBMCS0ExMDAuBgkqhkiG9w0BCQEW
IVNISUxMT05HQ0FfQ0FAU0hJTExPTkdDQV9tYWlsLmNvbYIJAPvQkv2ifDUMMDwG
CCsGAQUFBwEBBDAwLjAsBggrBgEFBQcwAYYgaHR0cDovLzE3Mi4yOC4yMC4xL3Jl
c3BvbmRlcnBhdGgwDQYJKoZIhvcNAQELBQADggEBAME3vVF27YiYmWVQ+i1dg5da
hjF/Lx/GmDnhBHC4iW1XWqvG8SWE3IRzWqJle39uFt5VrBtQ38Tj+lOplg3460nT
lqTVCCP3bHt599CRM773JTYODqBwXE8vNUXLVgcVwhxXXj1JOHc/ttzUwsehp0/2
SjTcdNZ7fNw8mhDmguqNL4Til/YRM7ELV64gqPgHk+L2nEQMngbAzTuItOIgteVi
7ZjUo+DmUpnKu4/4hwpzsAjl9xRLnzFkv1yrgNwFtgcDkxPku/r6QYhoKaPvtyug
7HIBmQ0q7R9lEo+cIR6b7wYdqlscQLsIjr6EtrG58Wtf+lrgB1A+tS3jrEuw3Bo=
-----END CERTIFICATE-----
