Certificate:
    Data:
        Version: 3 (0x2)
        Serial Number: 11042563100212 (0xa0b0c0d0e34)
    Signature Algorithm: sha256WithRSAEncryption
        Issuer: CN=MUMBAICA_CA, C=IN, O=CITRIX, OU=ANG, ST=KA/emailAddress=MUMBAICA_CA@MUMBAICA_mail.com
        Validity
            Not Before: Jul  8 04:35:56 2016 GMT
            Not After : Jul  6 04:35:56 2026 GMT
        Subject: ST=KA, C=IN, CN=138_MUMBAICA_server/emailAddress=138_MUMBAICA@test_ca.com, O=CITRIX
        Subject Public Key Info:
            Public Key Algorithm: rsaEncryption
                Public-Key: (2048 bit)
                Modulus:
                    00:d9:7a:00:93:ec:2e:bb:51:bc:b1:11:a0:1d:ad:
                    1a:8f:d0:c9:8d:b4:7c:ba:97:b3:c4:e3:7c:af:74:
                    c8:86:eb:19:6a:f6:47:a1:0c:bf:07:f2:24:4f:38:
                    7b:78:02:eb:81:48:79:b1:24:e4:ee:1e:68:3e:0c:
                    b7:a3:5a:a3:88:cf:71:13:b2:6d:d2:bb:48:7a:08:
                    07:e0:1f:3e:35:91:63:88:75:f3:4b:6c:00:78:d1:
                    67:99:e2:60:c0:c4:98:f5:19:de:e1:d0:9e:d6:6c:
                    29:eb:fb:c4:a6:d6:60:09:0b:50:e6:df:78:7c:4c:
                    e4:06:79:80:f3:84:94:7b:d5:6a:27:10:b1:8c:86:
                    17:03:31:05:84:66:33:49:46:01:9d:00:89:9d:d4:
                    fa:c0:3b:51:ea:c0:f4:9a:72:42:6e:59:d4:24:46:
                    b5:74:fc:4d:13:c3:6a:0a:43:9f:e9:06:01:65:15:
                    f3:fd:0f:ac:c5:6d:ba:5d:86:80:2a:ca:ef:ab:ad:
                    d3:d6:9c:17:9e:21:23:77:9c:d9:56:30:08:39:78:
                    59:c2:c6:88:a1:2f:c7:55:12:cb:33:2c:62:0e:9a:
                    be:cf:e6:69:4b:be:b5:15:45:18:26:a3:6b:bc:a1:
                    13:67:aa:31:1c:77:c9:ac:bb:be:6f:79:78:a9:50:
                    88:37
                Exponent: 65537 (0x10001)
        X509v3 extensions:
            Netscape Cert Type: 
                SSL Server
            X509v3 Subject Key Identifier: 
                E9:07:41:F0:32:B7:06:8A:F0:60:F5:9B:7D:E0:E3:71:6F:81:2F:65
            X509v3 Authority Key Identifier: 
                keyid:37:79:BF:65:19:98:28:32:4E:EF:3E:44:14:19:A9:83:2B:AF:05:7A
                DirName:/CN=MUMBAICA_CA/C=IN/O=CITRIX/OU=ANG/ST=KA/emailAddress=MUMBAICA_CA@MUMBAICA_mail.com
                serial:EE:B1:37:EE:F6:D2:14:91

            Authority Information Access: 
                OCSP - URI:http://172.23.20.1/responderpath

    Signature Algorithm: sha256WithRSAEncryption
         03:ba:fb:71:59:b7:80:51:11:c1:40:39:8a:4a:9e:51:57:f1:
         06:97:ff:b7:90:a8:49:9e:a1:ba:28:f0:9c:58:ff:90:c6:a7:
         a2:64:0f:4b:ea:b4:e5:81:36:48:bf:78:5e:77:05:57:49:31:
         3b:88:0f:0c:9d:54:bc:82:a4:5f:4b:96:58:ce:54:9b:c7:51:
         7b:39:a7:c3:09:a4:13:dc:15:f0:d6:90:7a:74:5b:13:b2:b3:
         0d:95:cd:7c:b4:ec:d7:a1:8e:ae:ad:03:7c:4a:70:cd:ed:dd:
         83:a0:8e:45:57:b6:8b:f6:06:6c:be:84:e9:13:04:1d:07:bc:
         61:b2:3c:d8:bc:e6:19:a8:3d:0a:ae:28:71:1a:40:e4:2a:85:
         0a:b3:c3:de:6f:c8:e5:05:b9:22:ec:61:08:f7:cc:96:b2:5f:
         98:79:de:33:7e:80:cf:fa:93:a6:68:15:6f:64:d2:47:9c:36:
         6f:2b:e2:a6:ce:90:3f:c3:96:e0:e4:0b:cd:b8:82:4b:a2:d7:
         5d:2c:5f:93:12:f6:f1:cc:a2:34:bc:20:72:72:36:67:67:54:
         b7:d2:28:5f:cc:17:bb:e8:fb:f2:a7:f8:52:db:28:67:45:ee:
         70:50:f5:7b:ff:04:4b:93:60:98:c7:42:95:11:cc:e3:36:87:
         80:e3:e2:9e
-----BEGIN CERTIFICATE-----
MIIEmDCCA4CgAwIBAgIGCgsMDQ40MA0GCSqGSIb3DQEBCwUAMH0xFDASBgNVBAMU
C01VTUJBSUNBX0NBMQswCQYDVQQGEwJJTjEPMA0GA1UEChMGQ0lUUklYMQwwCgYD
VQQLEwNBTkcxCzAJBgNVBAgTAktBMSwwKgYJKoZIhvcNAQkBFh1NVU1CQUlDQV9D
QUBNVU1CQUlDQV9tYWlsLmNvbTAeFw0xNjA3MDgwNDM1NTZaFw0yNjA3MDYwNDM1
NTZaMHIxCzAJBgNVBAgTAktBMQswCQYDVQQGEwJJTjEcMBoGA1UEAxQTMTM4X01V
TUJBSUNBX3NlcnZlcjEnMCUGCSqGSIb3DQEJARYYMTM4X01VTUJBSUNBQHRlc3Rf
Y2EuY29tMQ8wDQYDVQQKEwZDSVRSSVgwggEiMA0GCSqGSIb3DQEBAQUAA4IBDwAw
ggEKAoIBAQDZegCT7C67UbyxEaAdrRqP0MmNtHy6l7PE43yvdMiG6xlq9kehDL8H
8iRPOHt4AuuBSHmxJOTuHmg+DLejWqOIz3ETsm3Su0h6CAfgHz41kWOIdfNLbAB4
0WeZ4mDAxJj1Gd7h0J7WbCnr+8Sm1mAJC1Dm33h8TOQGeYDzhJR71WonELGMhhcD
MQWEZjNJRgGdAImd1PrAO1HqwPSackJuWdQkRrV0/E0Tw2oKQ5/pBgFlFfP9D6zF
bbpdhoAqyu+rrdPWnBeeISN3nNlWMAg5eFnCxoihL8dVEsszLGIOmr7P5mlLvrUV
RRgmo2u8oRNnqjEcd8msu75veXipUIg3AgMBAAGjggEnMIIBIzARBglghkgBhvhC
AQEEBAMCBkAwHQYDVR0OBBYEFOkHQfAytwaK8GD1m33g43FvgS9lMIGwBgNVHSME
gagwgaWAFDd5v2UZmCgyTu8+RBQZqYMrrwV6oYGBpH8wfTEUMBIGA1UEAxQLTVVN
QkFJQ0FfQ0ExCzAJBgNVBAYTAklOMQ8wDQYDVQQKEwZDSVRSSVgxDDAKBgNVBAsT
A0FORzELMAkGA1UECBMCS0ExLDAqBgkqhkiG9w0BCQEWHU1VTUJBSUNBX0NBQE1V
TUJBSUNBX21haWwuY29tggkA7rE37vbSFJEwPAYIKwYBBQUHAQEEMDAuMCwGCCsG
AQUFBzABhiBodHRwOi8vMTcyLjIzLjIwLjEvcmVzcG9uZGVycGF0aDANBgkqhkiG
9w0BAQsFAAOCAQEAA7r7cVm3gFERwUA5ikqeUVfxBpf/t5CoSZ6huijwnFj/kMan
omQPS+q05YE2SL94XncFV0kxO4gPDJ1UvIKkX0uWWM5Um8dRezmnwwmkE9wV8NaQ
enRbE7KzDZXNfLTs16GOrq0DfEpwze3dg6CORVe2i/YGbL6E6RMEHQe8YbI82Lzm
Gag9Cq4ocRpA5CqFCrPD3m/I5QW5IuxhCPfMlrJfmHneM36Az/qTpmgVb2TSR5w2
byvips6QP8OW4OQLzbiCS6LXXSxfkxL28cyiNLwgcnI2Z2dUt9IoX8wXu+j78qf4
UtsoZ0XucFD1e/8ES5NgmMdClRHM4zaHgOPing==
-----END CERTIFICATE-----
