Certificate:
    Data:
        Version: 3 (0x2)
        Serial Number: 11042563100212 (0xa0b0c0d0e34)
    Signature Algorithm: sha256WithRSAEncryption
        Issuer: CN=RANCHICA_CA, C=IN, O=CITRIX, OU=ANG, ST=KA/emailAddress=RANCHICA_CA@RANCHICA_mail.com
        Validity
            Not Before: Jul  8 04:38:57 2016 GMT
            Not After : Jul  6 04:38:57 2026 GMT
        Subject: ST=KA, C=IN, CN=138_RANCHICA_server/emailAddress=138_RANCHICA@test_ca.com, O=CITRIX
        Subject Public Key Info:
            Public Key Algorithm: rsaEncryption
                Public-Key: (2048 bit)
                Modulus:
                    00:e1:0f:b6:17:64:1f:be:30:f9:49:a7:c6:5c:01:
                    38:06:8f:ff:88:67:67:7d:b0:bc:03:56:b3:06:ff:
                    2a:fc:2b:79:02:00:37:5d:45:38:fd:78:94:50:7d:
                    11:20:38:92:b9:31:bc:2f:b7:c3:bb:e4:3a:8d:e7:
                    a2:de:fa:f0:2b:f0:3e:0d:9f:58:91:3b:5a:b9:ab:
                    b9:ee:02:b9:1b:63:1c:b4:3a:e3:96:29:d6:71:8c:
                    fe:b7:4d:94:09:52:91:a0:e8:e9:4c:7e:e3:27:04:
                    17:ef:67:6f:40:af:54:fc:da:7b:64:e9:71:8f:b9:
                    46:da:8c:64:bb:25:8a:67:12:c0:20:f6:2a:f8:8c:
                    e3:1a:01:41:c9:4e:85:ae:1a:6f:2c:2a:99:d9:85:
                    b1:8d:1e:b8:e9:ea:bf:c0:6f:e1:45:21:68:ea:88:
                    08:e4:4e:88:c8:e7:14:c6:65:38:08:db:59:9f:8a:
                    23:ff:96:9d:a2:bd:a1:d7:ba:06:ce:d9:62:53:63:
                    dd:0a:4c:ad:d9:f8:39:6b:02:bb:90:e4:72:41:d2:
                    07:c7:27:25:f5:98:8a:56:2e:4c:0b:ac:e7:9a:69:
                    5c:5c:09:e0:54:fc:c8:e2:8a:f6:d8:b1:ec:ac:40:
                    3c:3c:18:3b:ce:ad:61:26:0b:2e:1b:fd:e1:ea:14:
                    2a:15
                Exponent: 65537 (0x10001)
        X509v3 extensions:
            Netscape Cert Type: 
                SSL Server
            X509v3 Subject Key Identifier: 
                9E:04:FD:BB:10:C1:22:67:69:F9:B9:69:1E:69:C1:52:81:C0:E4:A5
            X509v3 Authority Key Identifier: 
                keyid:A7:10:6F:5D:0C:9F:9C:A2:F4:39:92:A3:7D:5C:B8:C0:25:71:BF:39
                DirName:/CN=RANCHICA_CA/C=IN/O=CITRIX/OU=ANG/ST=KA/emailAddress=RANCHICA_CA@RANCHICA_mail.com
                serial:E7:09:A4:3D:1C:C7:45:B1

            Authority Information Access: 
                OCSP - URI:http://172.27.20.1/responderpath

    Signature Algorithm: sha256WithRSAEncryption
         15:e4:ba:f3:88:f7:76:f0:36:7b:28:f7:5b:26:33:1d:31:3f:
         23:35:b2:5c:09:73:eb:cc:a2:93:44:67:18:ec:46:c9:0e:83:
         da:e8:e2:4a:6b:7f:a0:26:4c:ae:56:62:fb:bd:e8:56:96:48:
         2f:97:c8:0b:5b:47:35:cc:8c:d6:71:1c:78:9e:ed:c2:3f:36:
         21:85:b7:11:99:0f:4d:61:7e:1d:53:a9:03:c8:2b:75:5d:03:
         90:6b:a1:62:af:f6:ab:5c:fd:8d:83:97:2d:7b:6f:9b:21:42:
         b1:ab:d0:f1:c6:ee:84:87:fe:84:8f:b8:5c:61:7f:4d:8c:85:
         05:aa:66:7c:e0:b3:e8:7d:79:a0:d8:3b:24:93:b8:86:96:89:
         36:fd:7d:1e:95:92:74:02:55:1d:8e:36:94:7f:c9:4c:0e:df:
         45:ae:b6:85:1b:94:c8:8d:84:b6:42:c1:73:f4:96:a0:2c:3e:
         8f:b5:28:90:01:0c:8f:d8:19:45:c3:7f:15:5c:d9:db:a4:79:
         b0:2e:96:e9:08:25:a7:9a:c4:ef:d3:9a:df:f3:51:70:31:84:
         7d:d6:63:70:c9:7c:43:60:0f:17:66:00:a0:c2:d8:9d:e2:62:
         77:a4:fd:e3:38:c9:12:c3:1c:91:83:ce:33:37:7a:54:2f:98:
         7b:ab:ab:46
-----BEGIN CERTIFICATE-----
MIIEmDCCA4CgAwIBAgIGCgsMDQ40MA0GCSqGSIb3DQEBCwUAMH0xFDASBgNVBAMU
C1JBTkNISUNBX0NBMQswCQYDVQQGEwJJTjEPMA0GA1UEChMGQ0lUUklYMQwwCgYD
VQQLEwNBTkcxCzAJBgNVBAgTAktBMSwwKgYJKoZIhvcNAQkBFh1SQU5DSElDQV9D
QUBSQU5DSElDQV9tYWlsLmNvbTAeFw0xNjA3MDgwNDM4NTdaFw0yNjA3MDYwNDM4
NTdaMHIxCzAJBgNVBAgTAktBMQswCQYDVQQGEwJJTjEcMBoGA1UEAxQTMTM4X1JB
TkNISUNBX3NlcnZlcjEnMCUGCSqGSIb3DQEJARYYMTM4X1JBTkNISUNBQHRlc3Rf
Y2EuY29tMQ8wDQYDVQQKEwZDSVRSSVgwggEiMA0GCSqGSIb3DQEBAQUAA4IBDwAw
ggEKAoIBAQDhD7YXZB++MPlJp8ZcATgGj/+IZ2d9sLwDVrMG/yr8K3kCADddRTj9
eJRQfREgOJK5Mbwvt8O75DqN56Le+vAr8D4Nn1iRO1q5q7nuArkbYxy0OuOWKdZx
jP63TZQJUpGg6OlMfuMnBBfvZ29Ar1T82ntk6XGPuUbajGS7JYpnEsAg9ir4jOMa
AUHJToWuGm8sKpnZhbGNHrjp6r/Ab+FFIWjqiAjkTojI5xTGZTgI21mfiiP/lp2i
vaHXugbO2WJTY90KTK3Z+DlrAruQ5HJB0gfHJyX1mIpWLkwLrOeaaVxcCeBU/Mji
ivbYseysQDw8GDvOrWEmCy4b/eHqFCoVAgMBAAGjggEnMIIBIzARBglghkgBhvhC
AQEEBAMCBkAwHQYDVR0OBBYEFJ4E/bsQwSJnafm5aR5pwVKBwOSlMIGwBgNVHSME
gagwgaWAFKcQb10Mn5yi9DmSo31cuMAlcb85oYGBpH8wfTEUMBIGA1UEAxQLUkFO
Q0hJQ0FfQ0ExCzAJBgNVBAYTAklOMQ8wDQYDVQQKEwZDSVRSSVgxDDAKBgNVBAsT
A0FORzELMAkGA1UECBMCS0ExLDAqBgkqhkiG9w0BCQEWHVJBTkNISUNBX0NBQFJB
TkNISUNBX21haWwuY29tggkA5wmkPRzHRbEwPAYIKwYBBQUHAQEEMDAuMCwGCCsG
AQUFBzABhiBodHRwOi8vMTcyLjI3LjIwLjEvcmVzcG9uZGVycGF0aDANBgkqhkiG
9w0BAQsFAAOCAQEAFeS684j3dvA2eyj3WyYzHTE/IzWyXAlz68yik0RnGOxGyQ6D
2ujiSmt/oCZMrlZi+73oVpZIL5fIC1tHNcyM1nEceJ7twj82IYW3EZkPTWF+HVOp
A8grdV0DkGuhYq/2q1z9jYOXLXtvmyFCsavQ8cbuhIf+hI+4XGF/TYyFBapmfOCz
6H15oNg7JJO4hpaJNv19HpWSdAJVHY42lH/JTA7fRa62hRuUyI2EtkLBc/SWoCw+
j7UokAEMj9gZRcN/FVzZ26R5sC6W6Qglp5rE79Oa3/NRcDGEfdZjcMl8Q2APF2YA
oMLYneJid6T94zjJEsMckYPOMzd6VC+Ye6urRg==
-----END CERTIFICATE-----
