Certificate:
    Data:
        Version: 3 (0x2)
        Serial Number: 11042563100212 (0xa0b0c0d0e34)
    Signature Algorithm: sha256WithRSAEncryption
        Issuer: CN=DELHICA_CA, C=IN, O=CITRIX, OU=ANG, ST=KA/emailAddress=DELHICA_CA@DELHICA_mail.com
        Validity
            Not Before: Jul  8 04:34:31 2016 GMT
            Not After : Jul  6 04:34:31 2026 GMT
        Subject: ST=KA, C=IN, CN=138_DELHICA_server/emailAddress=138_DELHICA@test_ca.com, O=CITRIX
        Subject Public Key Info:
            Public Key Algorithm: rsaEncryption
                Public-Key: (2048 bit)
                Modulus:
                    00:c4:26:16:cf:ae:4c:17:54:1d:75:36:56:55:52:
                    0d:f4:f4:f7:1f:53:5c:52:f1:dd:d4:4f:5b:61:b9:
                    41:4c:dc:e7:cd:d7:14:a6:03:42:e1:4c:eb:aa:0d:
                    98:8e:06:34:0b:fb:de:21:83:58:6f:2a:5d:45:76:
                    95:3f:32:34:ef:b7:9f:4f:5d:5e:c1:07:52:82:fe:
                    7f:9c:f9:17:60:3f:20:2c:98:e7:aa:c8:fc:3a:ed:
                    df:23:e5:41:5b:b4:5a:df:8d:91:5a:64:1c:3d:12:
                    13:f8:06:f8:69:c0:c1:ac:e9:47:ff:ba:c6:26:87:
                    e4:a4:7a:52:03:0e:44:4a:7d:13:31:67:66:1e:e5:
                    01:08:a7:5c:ee:0e:40:c2:f1:37:9b:86:69:90:95:
                    18:b6:b3:45:6f:97:e7:22:92:70:dc:f1:73:f0:77:
                    07:58:03:44:59:1c:c9:b7:95:25:26:41:ee:f5:6d:
                    f8:b2:94:38:d8:1e:22:08:a8:4d:87:79:96:aa:fe:
                    52:33:0d:48:96:15:98:ea:c4:06:9c:0d:44:48:70:
                    c3:cd:27:41:18:8c:e6:25:91:e3:2d:4c:f1:f2:94:
                    14:40:64:53:8e:a1:9a:d5:e2:8f:30:01:86:8e:5c:
                    80:10:4d:a1:8f:e9:00:29:ed:a6:6a:7d:c6:87:07:
                    df:0b
                Exponent: 65537 (0x10001)
        X509v3 extensions:
            Netscape Cert Type: 
                SSL Server
            X509v3 Subject Key Identifier: 
                34:4D:C1:46:A7:F0:58:6D:2E:22:D6:46:A2:2B:9C:3F:39:31:6B:8F
            X509v3 Authority Key Identifier: 
                keyid:D7:37:52:01:DC:2C:7A:57:85:CA:30:39:30:F0:D5:5D:5A:31:03:02
                DirName:/CN=DELHICA_CA/C=IN/O=CITRIX/OU=ANG/ST=KA/emailAddress=DELHICA_CA@DELHICA_mail.com
                serial:94:59:DC:51:4E:A5:13:27

            Authority Information Access: 
                OCSP - URI:http://172.20.20.1/responderpath

    Signature Algorithm: sha256WithRSAEncryption
         62:69:de:e6:db:21:c2:9a:85:0d:d2:1c:46:40:dd:36:c3:ca:
         77:7c:4d:30:5c:c9:e7:dc:ee:2c:82:26:93:65:be:6f:68:27:
         23:ff:92:90:c1:92:c2:2e:90:76:b7:25:e2:e6:38:9e:78:fc:
         47:d8:00:19:26:04:04:d2:74:fb:f8:46:0b:9c:5e:b5:8e:5c:
         92:ee:3d:df:e5:ae:cc:de:c3:30:1f:d4:b5:3b:cc:d5:49:4a:
         71:ac:c6:f8:ed:87:39:64:92:12:d9:02:1c:52:3f:b5:8c:30:
         13:0d:f2:78:01:f4:52:9e:d8:7b:fa:e7:89:f0:d0:0b:3a:65:
         b4:0c:10:c3:85:0a:5a:46:cc:95:b8:41:55:fd:84:32:31:fc:
         6b:ce:b6:34:73:b7:95:0c:c7:28:69:4d:b3:ee:69:35:8f:64:
         66:12:f6:54:8f:6d:86:83:46:27:77:ec:08:6a:e8:73:b7:32:
         9f:b6:4f:61:2d:75:30:c2:83:fd:e8:2c:86:ef:b0:bd:d4:98:
         f2:00:24:8f:1c:d3:79:2c:91:74:66:18:ff:7d:e4:a5:3d:3a:
         9e:a6:60:56:84:47:d3:80:d0:7e:83:d7:db:76:2a:07:fa:93:
         26:87:03:9e:9d:8b:95:6d:27:db:5c:74:ac:8c:3f:5d:e4:8c:
         82:75:71:ba
-----BEGIN CERTIFICATE-----
MIIEjzCCA3egAwIBAgIGCgsMDQ40MA0GCSqGSIb3DQEBCwUAMHoxEzARBgNVBAMU
CkRFTEhJQ0FfQ0ExCzAJBgNVBAYTAklOMQ8wDQYDVQQKEwZDSVRSSVgxDDAKBgNV
BAsTA0FORzELMAkGA1UECBMCS0ExKjAoBgkqhkiG9w0BCQEWG0RFTEhJQ0FfQ0FA
REVMSElDQV9tYWlsLmNvbTAeFw0xNjA3MDgwNDM0MzFaFw0yNjA3MDYwNDM0MzFa
MHAxCzAJBgNVBAgTAktBMQswCQYDVQQGEwJJTjEbMBkGA1UEAxQSMTM4X0RFTEhJ
Q0Ffc2VydmVyMSYwJAYJKoZIhvcNAQkBFhcxMzhfREVMSElDQUB0ZXN0X2NhLmNv
bTEPMA0GA1UEChMGQ0lUUklYMIIBIjANBgkqhkiG9w0BAQEFAAOCAQ8AMIIBCgKC
AQEAxCYWz65MF1QddTZWVVIN9PT3H1NcUvHd1E9bYblBTNznzdcUpgNC4Uzrqg2Y
jgY0C/veIYNYbypdRXaVPzI077efT11ewQdSgv5/nPkXYD8gLJjnqsj8Ou3fI+VB
W7Ra342RWmQcPRIT+Ab4acDBrOlH/7rGJofkpHpSAw5ESn0TMWdmHuUBCKdc7g5A
wvE3m4ZpkJUYtrNFb5fnIpJw3PFz8HcHWANEWRzJt5UlJkHu9W34spQ42B4iCKhN
h3mWqv5SMw1IlhWY6sQGnA1ESHDDzSdBGIzmJZHjLUzx8pQUQGRTjqGa1eKPMAGG
jlyAEE2hj+kAKe2man3GhwffCwIDAQABo4IBIzCCAR8wEQYJYIZIAYb4QgEBBAQD
AgZAMB0GA1UdDgQWBBQ0TcFGp/BYbS4i1kaiK5w/OTFrjzCBrAYDVR0jBIGkMIGh
gBTXN1IB3Cx6V4XKMDkw8NVdWjEDAqF+pHwwejETMBEGA1UEAxQKREVMSElDQV9D
QTELMAkGA1UEBhMCSU4xDzANBgNVBAoTBkNJVFJJWDEMMAoGA1UECxMDQU5HMQsw
CQYDVQQIEwJLQTEqMCgGCSqGSIb3DQEJARYbREVMSElDQV9DQUBERUxISUNBX21h
aWwuY29tggkAlFncUU6lEycwPAYIKwYBBQUHAQEEMDAuMCwGCCsGAQUFBzABhiBo
dHRwOi8vMTcyLjIwLjIwLjEvcmVzcG9uZGVycGF0aDANBgkqhkiG9w0BAQsFAAOC
AQEAYmne5tshwpqFDdIcRkDdNsPKd3xNMFzJ59zuLIImk2W+b2gnI/+SkMGSwi6Q
drcl4uY4nnj8R9gAGSYEBNJ0+/hGC5xetY5cku493+WuzN7DMB/UtTvM1UlKcazG
+O2HOWSSEtkCHFI/tYwwEw3yeAH0Up7Ye/rnifDQCzpltAwQw4UKWkbMlbhBVf2E
MjH8a862NHO3lQzHKGlNs+5pNY9kZhL2VI9thoNGJ3fsCGroc7cyn7ZPYS11MMKD
/egshu+wvdSY8gAkjxzTeSyRdGYY/33kpT06nqZgVoRH04DQfoPX23YqB/qTJocD
np2LlW0n21x0rIw/XeSMgnVxug==
-----END CERTIFICATE-----
