Certificate:
    Data:
        Version: 3 (0x2)
        Serial Number: 11042563100212 (0xa0b0c0d0e34)
    Signature Algorithm: sha256WithRSAEncryption
        Issuer: CN=PATNACA_CA, C=IN, O=CITRIX, OU=ANG, ST=KA/emailAddress=PATNACA_CA@PATNACA_mail.com
        Validity
            Not Before: Jul  8 04:38:30 2016 GMT
            Not After : Jul  6 04:38:30 2026 GMT
        Subject: ST=KA, C=IN, CN=138_PATNACA_server/emailAddress=138_PATNACA@test_ca.com, O=CITRIX
        Subject Public Key Info:
            Public Key Algorithm: rsaEncryption
                Public-Key: (2048 bit)
                Modulus:
                    00:e5:19:57:fc:b6:79:c8:5e:6d:17:34:54:b7:e7:
                    27:1c:58:37:24:fd:91:43:e5:76:fa:9a:c4:15:f8:
                    52:7e:fb:b0:77:b6:d3:16:d6:eb:2e:d5:ae:29:68:
                    5b:dd:2e:db:23:0d:1f:8a:5e:d6:73:b6:f7:39:86:
                    c3:f2:1d:16:06:88:7b:32:f2:60:5c:1c:d3:99:b5:
                    a1:f9:31:ab:29:0c:15:e7:6f:d8:b9:fc:4b:04:67:
                    6b:10:32:72:80:6a:94:c8:30:d5:7b:55:61:fd:b6:
                    fe:36:46:c3:02:46:90:da:69:b9:ed:25:a6:92:f7:
                    42:bf:f7:1e:d7:bb:84:1a:57:67:7d:33:58:26:35:
                    1a:75:61:25:cc:e1:e9:c3:08:ae:0b:cd:86:d8:eb:
                    3c:ee:8a:9b:a2:1d:1c:43:c9:3d:d5:81:b9:04:8b:
                    b2:ea:45:87:0d:2e:1b:ee:5e:c3:4f:d1:dc:e4:97:
                    5f:a5:f8:89:48:b8:ee:b9:d8:54:2c:06:6e:62:82:
                    b8:68:97:28:ca:e7:1e:5e:b2:dc:1b:64:a2:24:63:
                    7d:23:75:ef:a0:3c:95:04:75:14:3e:86:22:b8:58:
                    88:72:fa:f3:1c:67:a3:27:4b:fa:b6:d6:5b:3a:91:
                    39:7e:ba:5a:d7:64:e3:46:39:69:f0:e6:04:0c:56:
                    f7:fb
                Exponent: 65537 (0x10001)
        X509v3 extensions:
            Netscape Cert Type: 
                SSL Server
            X509v3 Subject Key Identifier: 
                F3:B3:31:EA:31:6D:9B:7F:06:F1:25:1F:30:96:D5:0B:D4:89:3E:00
            X509v3 Authority Key Identifier: 
                keyid:FF:DF:C4:8D:AF:64:E1:E3:17:FA:96:EE:F1:75:A7:ED:A7:C3:91:B8
                DirName:/CN=PATNACA_CA/C=IN/O=CITRIX/OU=ANG/ST=KA/emailAddress=PATNACA_CA@PATNACA_mail.com
                serial:9F:2E:15:76:F0:BD:C1:6F

            Authority Information Access: 
                OCSP - URI:http://172.26.20.1/responderpath

    Signature Algorithm: sha256WithRSAEncryption
         a7:57:2d:fb:4f:06:ae:94:53:b6:38:4c:43:ba:22:37:8f:90:
         33:66:69:87:09:fa:fb:55:c8:43:34:c4:08:9f:17:f2:dc:36:
         a4:18:ac:6f:60:e8:62:07:7c:4f:c8:36:8e:7f:c1:d8:d1:6a:
         f4:c0:8f:5c:65:2c:a8:fe:15:c1:af:59:7a:be:a4:18:8c:98:
         bb:c8:35:a6:f5:00:17:4b:14:53:03:1e:3f:7f:47:e6:c3:84:
         bb:84:7a:37:29:93:8c:ff:24:d5:09:63:9a:80:08:44:f8:71:
         61:67:bc:ed:84:e9:91:2a:c3:4b:48:44:d4:a3:24:50:46:20:
         f2:b5:89:a7:41:e6:45:7f:d0:38:49:8d:02:48:a7:d0:7c:29:
         26:27:22:2e:85:65:b4:7f:18:89:cd:7a:90:ce:f6:2b:45:5c:
         bf:d1:69:75:90:50:ff:6a:cb:a0:05:c3:29:a5:70:15:0e:f6:
         de:55:80:97:3c:27:26:ba:8a:44:58:c8:83:50:4a:05:c9:8f:
         94:be:6a:a9:ce:42:e3:71:84:68:12:a4:e4:29:5f:d5:f3:00:
         a8:7f:88:7e:93:29:39:a1:8c:86:33:c0:5b:2d:11:13:2c:20:
         0a:af:21:b7:9d:62:62:cd:26:01:8c:77:77:23:78:fa:b5:36:
         d1:34:2f:07
-----BEGIN CERTIFICATE-----
MIIEjzCCA3egAwIBAgIGCgsMDQ40MA0GCSqGSIb3DQEBCwUAMHoxEzARBgNVBAMU
ClBBVE5BQ0FfQ0ExCzAJBgNVBAYTAklOMQ8wDQYDVQQKEwZDSVRSSVgxDDAKBgNV
BAsTA0FORzELMAkGA1UECBMCS0ExKjAoBgkqhkiG9w0BCQEWG1BBVE5BQ0FfQ0FA
UEFUTkFDQV9tYWlsLmNvbTAeFw0xNjA3MDgwNDM4MzBaFw0yNjA3MDYwNDM4MzBa
MHAxCzAJBgNVBAgTAktBMQswCQYDVQQGEwJJTjEbMBkGA1UEAxQSMTM4X1BBVE5B
Q0Ffc2VydmVyMSYwJAYJKoZIhvcNAQkBFhcxMzhfUEFUTkFDQUB0ZXN0X2NhLmNv
bTEPMA0GA1UEChMGQ0lUUklYMIIBIjANBgkqhkiG9w0BAQEFAAOCAQ8AMIIBCgKC
AQEA5RlX/LZ5yF5tFzRUt+cnHFg3JP2RQ+V2+prEFfhSfvuwd7bTFtbrLtWuKWhb
3S7bIw0fil7Wc7b3OYbD8h0WBoh7MvJgXBzTmbWh+TGrKQwV52/YufxLBGdrEDJy
gGqUyDDVe1Vh/bb+NkbDAkaQ2mm57SWmkvdCv/ce17uEGldnfTNYJjUadWElzOHp
wwiuC82G2Os87oqboh0cQ8k91YG5BIuy6kWHDS4b7l7DT9Hc5JdfpfiJSLjuudhU
LAZuYoK4aJcoyuceXrLcG2SiJGN9I3XvoDyVBHUUPoYiuFiIcvrzHGejJ0v6ttZb
OpE5frpa12TjRjlp8OYEDFb3+wIDAQABo4IBIzCCAR8wEQYJYIZIAYb4QgEBBAQD
AgZAMB0GA1UdDgQWBBTzszHqMW2bfwbxJR8wltUL1Ik+ADCBrAYDVR0jBIGkMIGh
gBT/38SNr2Th4xf6lu7xdaftp8ORuKF+pHwwejETMBEGA1UEAxQKUEFUTkFDQV9D
QTELMAkGA1UEBhMCSU4xDzANBgNVBAoTBkNJVFJJWDEMMAoGA1UECxMDQU5HMQsw
CQYDVQQIEwJLQTEqMCgGCSqGSIb3DQEJARYbUEFUTkFDQV9DQUBQQVROQUNBX21h
aWwuY29tggkAny4VdvC9wW8wPAYIKwYBBQUHAQEEMDAuMCwGCCsGAQUFBzABhiBo
dHRwOi8vMTcyLjI2LjIwLjEvcmVzcG9uZGVycGF0aDANBgkqhkiG9w0BAQsFAAOC
AQEAp1ct+08GrpRTtjhMQ7oiN4+QM2Zphwn6+1XIQzTECJ8X8tw2pBisb2DoYgd8
T8g2jn/B2NFq9MCPXGUsqP4Vwa9Zer6kGIyYu8g1pvUAF0sUUwMeP39H5sOEu4R6
NymTjP8k1QljmoAIRPhxYWe87YTpkSrDS0hE1KMkUEYg8rWJp0HmRX/QOEmNAkin
0HwpJiciLoVltH8Yic16kM72K0Vcv9FpdZBQ/2rLoAXDKaVwFQ723lWAlzwnJrqK
RFjIg1BKBcmPlL5qqc5C43GEaBKk5Clf1fMAqH+IfpMpOaGMhjPAWy0REywgCq8h
t51iYs0mAYx3dyN4+rU20TQvBw==
-----END CERTIFICATE-----
