Certificate:
    Data:
        Version: 3 (0x2)
        Serial Number: 11042563100212 (0xa0b0c0d0e34)
    Signature Algorithm: sha256WithRSAEncryption
        Issuer: CN=BANGALORECA_CA, C=IN, O=CITRIX, OU=ANG, ST=KA/emailAddress=BANGALORECA_CA@BANGALORECA_mail.com
        Validity
            Not Before: Jul  8 04:31:30 2016 GMT
            Not After : Jul  6 04:31:30 2026 GMT
        Subject: ST=KA, C=IN, CN=138_BANGALORECA_server/emailAddress=138_BANGALORECA@test_ca.com, O=CITRIX
        Subject Public Key Info:
            Public Key Algorithm: rsaEncryption
                Public-Key: (2048 bit)
                Modulus:
                    00:e9:85:dc:1d:2a:6b:71:fc:ff:c2:b2:b6:cb:d2:
                    6f:fb:bb:68:26:08:5a:0e:c0:d4:4b:6f:4f:00:12:
                    32:17:6b:47:8e:8c:e1:2e:e7:f1:8b:86:4c:5e:b4:
                    5d:9c:83:52:65:37:70:e4:54:d7:70:c7:57:fc:62:
                    f3:0c:0f:d1:0f:53:20:1a:d6:ad:6b:13:bf:ba:9e:
                    86:b3:2a:21:02:86:1e:dd:1c:95:3c:ae:e6:ca:ac:
                    cb:53:8a:d1:5a:ec:10:e9:7f:91:1f:29:51:29:0e:
                    f2:8c:77:2a:a0:73:ac:de:05:66:aa:7b:58:d5:ba:
                    a0:79:45:48:ce:8e:a3:e2:37:a0:fa:dc:b0:0c:c8:
                    c8:82:30:08:31:83:e4:6b:cb:a5:80:3d:8f:2a:0a:
                    5f:62:9a:c7:d1:4c:af:4e:b7:f4:b9:48:96:64:bf:
                    86:ae:c5:74:27:ec:7b:45:4f:03:3f:3c:30:59:d1:
                    3d:70:71:f5:da:ca:e1:96:f9:20:f3:b9:7e:6d:c5:
                    52:d5:a6:ed:ff:e7:d8:6b:70:37:a1:1f:e5:6e:b4:
                    4a:f8:fa:0d:c4:83:75:98:6e:5a:3b:1b:05:9e:cf:
                    74:b4:87:5f:88:9c:06:29:37:a8:33:86:f0:c6:dd:
                    b6:ef:a9:d5:43:8b:4c:82:e7:e6:8c:15:46:dd:65:
                    67:6f
                Exponent: 65537 (0x10001)
        X509v3 extensions:
            Netscape Cert Type: 
                SSL Server
            X509v3 Subject Key Identifier: 
                9F:C7:1F:82:D2:E8:88:18:80:62:C1:BD:BD:D1:09:0A:80:E2:E6:1B
            X509v3 Authority Key Identifier: 
                keyid:3B:D6:D1:53:18:87:05:22:BB:EE:C3:0F:F5:CE:0F:6B:A2:93:A7:B8
                DirName:/CN=BANGALORECA_CA/C=IN/O=CITRIX/OU=ANG/ST=KA/emailAddress=BANGALORECA_CA@BANGALORECA_mail.com
                serial:A1:AC:B4:DA:46:53:58:40

            Authority Information Access: 
                OCSP - URI:http://172.16.20.1/responderpath

    Signature Algorithm: sha256WithRSAEncryption
         9e:f3:89:03:66:fc:6e:27:3e:bc:07:1e:9e:5c:15:77:a4:46:
         b2:82:f6:5a:cd:33:bd:05:91:31:15:6d:f3:a8:fe:04:da:9b:
         2c:3f:ce:cc:7f:f1:49:12:60:2f:a8:10:20:6b:1a:b2:92:df:
         f5:be:d8:32:61:7b:b8:26:f5:82:aa:d1:71:11:bd:e7:37:bd:
         fd:ed:ec:59:b8:c7:d3:f8:25:81:02:dd:59:ac:a0:09:b4:91:
         1b:42:07:2f:25:80:ef:c7:08:a7:b7:64:8b:7c:b5:b0:f9:d6:
         2d:5a:6c:c2:cf:ca:b2:47:a1:ff:1c:9c:2f:c0:04:ec:31:b2:
         01:4c:09:47:76:7e:72:17:f2:9b:4b:d4:ff:7f:45:2a:9a:6b:
         0a:19:4e:a6:98:c7:03:6c:ff:e8:ed:a7:b9:e1:66:ae:c6:73:
         dd:e7:3e:f8:10:a0:97:ac:cc:b8:24:c3:a9:6a:24:7b:be:57:
         d0:2d:b8:97:49:7a:c0:29:1b:1a:60:94:43:74:73:b8:55:5d:
         14:bb:66:ec:98:c4:bd:a8:bb:84:26:02:77:a5:d8:78:92:df:
         97:a2:78:60:2a:ae:9a:6b:3c:05:a5:d9:45:48:1d:e1:b5:b9:
         c4:7b:42:37:7c:b8:9d:e9:31:82:54:d2:81:c6:16:6c:39:47:
         38:24:5d:cd
-----BEGIN CERTIFICATE-----
MIIEszCCA5ugAwIBAgIGCgsMDQ40MA0GCSqGSIb3DQEBCwUAMIGGMRcwFQYDVQQD
FA5CQU5HQUxPUkVDQV9DQTELMAkGA1UEBhMCSU4xDzANBgNVBAoTBkNJVFJJWDEM
MAoGA1UECxMDQU5HMQswCQYDVQQIEwJLQTEyMDAGCSqGSIb3DQEJARYjQkFOR0FM
T1JFQ0FfQ0FAQkFOR0FMT1JFQ0FfbWFpbC5jb20wHhcNMTYwNzA4MDQzMTMwWhcN
MjYwNzA2MDQzMTMwWjB4MQswCQYDVQQIEwJLQTELMAkGA1UEBhMCSU4xHzAdBgNV
BAMUFjEzOF9CQU5HQUxPUkVDQV9zZXJ2ZXIxKjAoBgkqhkiG9w0BCQEWGzEzOF9C
QU5HQUxPUkVDQUB0ZXN0X2NhLmNvbTEPMA0GA1UEChMGQ0lUUklYMIIBIjANBgkq
hkiG9w0BAQEFAAOCAQ8AMIIBCgKCAQEA6YXcHSprcfz/wrK2y9Jv+7toJghaDsDU
S29PABIyF2tHjozhLufxi4ZMXrRdnINSZTdw5FTXcMdX/GLzDA/RD1MgGtataxO/
up6GsyohAoYe3RyVPK7myqzLU4rRWuwQ6X+RHylRKQ7yjHcqoHOs3gVmqntY1bqg
eUVIzo6j4jeg+tywDMjIgjAIMYPka8ulgD2PKgpfYprH0UyvTrf0uUiWZL+GrsV0
J+x7RU8DPzwwWdE9cHH12srhlvkg87l+bcVS1abt/+fYa3A3oR/lbrRK+PoNxIN1
mG5aOxsFns90tIdfiJwGKTeoM4bwxt2276nVQ4tMgufmjBVG3WVnbwIDAQABo4IB
MjCCAS4wEQYJYIZIAYb4QgEBBAQDAgZAMB0GA1UdDgQWBBSfxx+C0uiIGIBiwb29
0QkKgOLmGzCBuwYDVR0jBIGzMIGwgBQ71tFTGIcFIrvuww/1zg9ropOnuKGBjKSB
iTCBhjEXMBUGA1UEAxQOQkFOR0FMT1JFQ0FfQ0ExCzAJBgNVBAYTAklOMQ8wDQYD
VQQKEwZDSVRSSVgxDDAKBgNVBAsTA0FORzELMAkGA1UECBMCS0ExMjAwBgkqhkiG
9w0BCQEWI0JBTkdBTE9SRUNBX0NBQEJBTkdBTE9SRUNBX21haWwuY29tggkAoay0
2kZTWEAwPAYIKwYBBQUHAQEEMDAuMCwGCCsGAQUFBzABhiBodHRwOi8vMTcyLjE2
LjIwLjEvcmVzcG9uZGVycGF0aDANBgkqhkiG9w0BAQsFAAOCAQEAnvOJA2b8bic+
vAcenlwVd6RGsoL2Ws0zvQWRMRVt86j+BNqbLD/OzH/xSRJgL6gQIGsaspLf9b7Y
MmF7uCb1gqrRcRG95ze9/e3sWbjH0/glgQLdWaygCbSRG0IHLyWA78cIp7dki3y1
sPnWLVpsws/Kskeh/xycL8AE7DGyAUwJR3Z+chfym0vU/39FKpprChlOppjHA2z/
6O2nueFmrsZz3ec++BCgl6zMuCTDqWoke75X0C24l0l6wCkbGmCUQ3RzuFVdFLtm
7JjEvai7hCYCd6XYeJLfl6J4YCqumms8BaXZRUgd4bW5xHtCN3y4nekxglTSgcYW
bDlHOCRdzQ==
-----END CERTIFICATE-----
