Certificate:
    Data:
        Version: 3 (0x2)
        Serial Number: 11042563100213 (0xa0b0c0d0e35)
    Signature Algorithm: sha256WithRSAEncryption
        Issuer: CN=GOACA_CA, C=IN, O=CITRIX, OU=ANG, ST=KA/emailAddress=GOACA_CA@GOACA_mail.com
        Validity
            Not Before: Jul  8 04:35:05 2016 GMT
            Not After : Jul  6 04:35:05 2026 GMT
        Subject: ST=KA, C=IN, CN=139_GOACA_server/emailAddress=139_GOACA@test_ca.com, O=CITRIX
        Subject Public Key Info:
            Public Key Algorithm: rsaEncryption
                Public-Key: (2048 bit)
                Modulus:
                    00:cc:a2:39:95:72:3c:0b:27:eb:9d:13:27:ed:d2:
                    66:9a:a2:84:02:c1:ca:cb:49:33:7f:77:03:09:a7:
                    87:ec:ca:19:c1:c5:4c:c8:2e:4e:81:38:cf:23:3f:
                    fe:6e:3f:8f:4e:65:2a:62:66:68:c8:05:71:91:4e:
                    d0:81:9a:9c:ac:a1:75:f2:e5:5e:d7:0c:82:3e:c1:
                    ab:99:ca:39:46:0a:0e:ce:21:6d:f5:6a:6e:54:80:
                    1b:31:6f:e6:66:41:7b:82:43:65:61:3f:0b:38:6b:
                    5e:fa:2d:fb:88:27:eb:67:8b:6b:9b:3c:dd:7d:6b:
                    cd:68:33:c3:d6:b4:d2:24:f4:5d:3b:bc:57:c7:1c:
                    63:64:2b:c4:03:bd:bc:d4:de:59:40:d9:e8:67:00:
                    e5:dc:e0:7c:6f:42:64:64:31:98:64:b7:b6:53:93:
                    74:94:95:d0:ff:82:bc:65:77:89:29:79:8b:0e:1e:
                    c5:15:c1:b8:58:fc:da:ff:37:be:0c:51:3b:91:f4:
                    c1:68:a3:54:c8:ae:b3:dd:06:8c:98:20:ab:bf:a8:
                    7f:72:a4:c4:32:33:dc:6e:a3:f3:b6:fa:5b:f2:6d:
                    c6:fe:30:27:6a:77:b0:5c:af:f4:bf:df:b7:98:81:
                    c9:0e:d8:29:25:02:f2:fc:1c:dd:4d:f3:f4:5e:1e:
                    57:af
                Exponent: 65537 (0x10001)
        X509v3 extensions:
            Netscape Cert Type: 
                SSL Server
            X509v3 Subject Key Identifier: 
                2E:61:65:96:EE:2D:88:36:AB:55:F6:B6:F7:6E:92:2D:32:83:6F:5C
            X509v3 Authority Key Identifier: 
                keyid:81:03:00:D4:DC:70:D9:A7:03:08:1E:DC:9B:4C:AC:E6:59:CD:39:68
                DirName:/CN=GOACA_CA/C=IN/O=CITRIX/OU=ANG/ST=KA/emailAddress=GOACA_CA@GOACA_mail.com
                serial:FC:8B:0A:90:01:17:5F:1C

            Authority Information Access: 
                OCSP - URI:http://172.21.20.1/responderpath

    Signature Algorithm: sha256WithRSAEncryption
         92:94:9c:df:2b:95:ee:a3:e7:39:b4:bb:bd:5b:d6:13:5f:1a:
         b6:d2:59:d7:c7:ff:a3:e1:3a:11:a4:1a:7f:14:d4:ea:ea:df:
         0a:73:a6:a9:1e:40:5d:b0:cb:96:ac:7c:8f:c9:b5:d8:66:82:
         a4:31:8f:20:88:37:59:12:ae:55:e6:3e:04:20:10:35:06:ef:
         c7:07:be:e3:41:63:72:5a:af:66:27:7a:e7:18:40:0c:25:4f:
         40:02:29:46:b0:dd:79:ad:13:55:be:f4:ed:7f:d3:70:b6:4c:
         56:bd:02:9f:8e:1a:da:e7:0c:8a:c8:42:d3:27:94:5c:d8:1b:
         4b:4a:3b:67:9a:13:b0:d5:d5:1d:c4:f4:3c:95:a4:85:ad:cf:
         7c:b6:73:01:4d:b2:34:6d:42:3a:58:8f:39:23:88:8f:fa:9e:
         9a:8f:30:49:0d:d8:69:da:5e:fc:e6:cb:75:2e:be:69:ef:f4:
         21:c4:0a:68:3c:9c:06:fd:db:6e:a1:d3:56:26:02:83:ce:9b:
         cf:5f:0d:8f:93:13:61:43:3e:e9:ca:63:11:e8:39:18:c0:04:
         14:af:e6:c3:60:23:43:00:fe:76:0e:a7:bc:ad:d2:5c:f5:58:
         ab:4f:ea:c0:fe:09:eb:4e:f5:90:d6:58:8a:b8:eb:f6:c1:2a:
         93:17:9b:b0
-----BEGIN CERTIFICATE-----
MIIEfzCCA2egAwIBAgIGCgsMDQ41MA0GCSqGSIb3DQEBCwUAMHQxETAPBgNVBAMU
CEdPQUNBX0NBMQswCQYDVQQGEwJJTjEPMA0GA1UEChMGQ0lUUklYMQwwCgYDVQQL
EwNBTkcxCzAJBgNVBAgTAktBMSYwJAYJKoZIhvcNAQkBFhdHT0FDQV9DQUBHT0FD
QV9tYWlsLmNvbTAeFw0xNjA3MDgwNDM1MDVaFw0yNjA3MDYwNDM1MDVaMGwxCzAJ
BgNVBAgTAktBMQswCQYDVQQGEwJJTjEZMBcGA1UEAxQQMTM5X0dPQUNBX3NlcnZl
cjEkMCIGCSqGSIb3DQEJARYVMTM5X0dPQUNBQHRlc3RfY2EuY29tMQ8wDQYDVQQK
EwZDSVRSSVgwggEiMA0GCSqGSIb3DQEBAQUAA4IBDwAwggEKAoIBAQDMojmVcjwL
J+udEyft0maaooQCwcrLSTN/dwMJp4fsyhnBxUzILk6BOM8jP/5uP49OZSpiZmjI
BXGRTtCBmpysoXXy5V7XDII+wauZyjlGCg7OIW31am5UgBsxb+ZmQXuCQ2VhPws4
a176LfuIJ+tni2ubPN19a81oM8PWtNIk9F07vFfHHGNkK8QDvbzU3llA2ehnAOXc
4HxvQmRkMZhkt7ZTk3SUldD/grxld4kpeYsOHsUVwbhY/Nr/N74MUTuR9MFoo1TI
rrPdBoyYIKu/qH9ypMQyM9xuo/O2+lvybcb+MCdqd7Bcr/S/37eYgckO2CklAvL8
HN1N8/ReHlevAgMBAAGjggEdMIIBGTARBglghkgBhvhCAQEEBAMCBkAwHQYDVR0O
BBYEFC5hZZbuLYg2q1X2tvduki0yg29cMIGmBgNVHSMEgZ4wgZuAFIEDANTccNmn
Awge3JtMrOZZzTlooXikdjB0MREwDwYDVQQDFAhHT0FDQV9DQTELMAkGA1UEBhMC
SU4xDzANBgNVBAoTBkNJVFJJWDEMMAoGA1UECxMDQU5HMQswCQYDVQQIEwJLQTEm
MCQGCSqGSIb3DQEJARYXR09BQ0FfQ0FAR09BQ0FfbWFpbC5jb22CCQD8iwqQARdf
HDA8BggrBgEFBQcBAQQwMC4wLAYIKwYBBQUHMAGGIGh0dHA6Ly8xNzIuMjEuMjAu
MS9yZXNwb25kZXJwYXRoMA0GCSqGSIb3DQEBCwUAA4IBAQCSlJzfK5Xuo+c5tLu9
W9YTXxq20lnXx/+j4ToRpBp/FNTq6t8Kc6apHkBdsMuWrHyPybXYZoKkMY8giDdZ
Eq5V5j4EIBA1Bu/HB77jQWNyWq9mJ3rnGEAMJU9AAilGsN15rRNVvvTtf9NwtkxW
vQKfjhra5wyKyELTJ5Rc2BtLSjtnmhOw1dUdxPQ8laSFrc98tnMBTbI0bUI6WI85
I4iP+p6ajzBJDdhp2l785st1Lr5p7/QhxApoPJwG/dtuodNWJgKDzpvPXw2PkxNh
Qz7pymMR6DkYwAQUr+bDYCNDAP52Dqe8rdJc9VirT+rA/gnrTvWQ1liKuOv2wSqT
F5uw
-----END CERTIFICATE-----
