Certificate:
    Data:
        Version: 3 (0x2)
        Serial Number: 11042563100213 (0xa0b0c0d0e35)
    Signature Algorithm: sha256WithRSAEncryption
        Issuer: CN=PATNACA_CA, C=IN, O=CITRIX, OU=ANG, ST=KA/emailAddress=PATNACA_CA@PATNACA_mail.com
        Validity
            Not Before: Jul  8 04:38:31 2016 GMT
            Not After : Jul  6 04:38:31 2026 GMT
        Subject: ST=KA, C=IN, CN=139_PATNACA_server/emailAddress=139_PATNACA@test_ca.com, O=CITRIX
        Subject Public Key Info:
            Public Key Algorithm: rsaEncryption
                Public-Key: (2048 bit)
                Modulus:
                    00:b6:1c:72:fe:eb:b7:d3:7e:ef:56:97:63:6d:48:
                    70:57:ad:d7:05:3e:13:f0:87:ac:23:f3:51:62:7a:
                    f8:41:e6:29:55:b5:18:73:eb:0a:d8:fa:6f:af:a2:
                    da:86:5c:d5:09:db:46:28:28:6d:d0:1e:a9:46:a0:
                    aa:2e:34:99:39:7b:7f:e6:78:09:a5:71:f4:f2:20:
                    5f:4f:31:b3:e2:9f:13:54:9d:63:87:75:bf:fe:ca:
                    e8:70:6c:a8:8a:cd:a8:d4:c2:78:13:46:23:51:a9:
                    12:9c:70:de:88:ca:58:d5:03:b6:1d:98:d4:1b:64:
                    e6:e2:d7:5e:50:45:06:f5:9e:cb:77:b3:c9:75:21:
                    65:6c:80:42:0d:dc:6f:5b:ce:69:95:fc:a2:63:d8:
                    8f:8b:f1:79:af:ee:14:de:90:9c:43:a5:19:8d:ef:
                    06:1e:31:1c:1a:7e:ba:0d:e5:fe:4f:2a:26:ce:96:
                    c5:3e:6c:44:cf:79:cd:52:b8:2a:a2:79:b8:fe:5d:
                    5b:9a:5a:77:cf:f7:65:7b:fc:b2:b1:f0:8e:27:77:
                    03:09:4c:bb:e3:bb:09:fd:fa:a8:8c:20:0b:56:84:
                    69:ff:0a:3f:2a:61:29:93:6d:62:3c:26:0d:73:d5:
                    4e:f8:c1:dd:26:82:b8:a1:1d:50:50:e1:ae:06:6b:
                    5e:2d
                Exponent: 65537 (0x10001)
        X509v3 extensions:
            Netscape Cert Type: 
                SSL Server
            X509v3 Subject Key Identifier: 
                2C:20:BE:EE:5B:77:2A:18:FA:B0:F5:9F:64:97:C3:82:F7:80:E6:18
            X509v3 Authority Key Identifier: 
                keyid:FF:DF:C4:8D:AF:64:E1:E3:17:FA:96:EE:F1:75:A7:ED:A7:C3:91:B8
                DirName:/CN=PATNACA_CA/C=IN/O=CITRIX/OU=ANG/ST=KA/emailAddress=PATNACA_CA@PATNACA_mail.com
                serial:9F:2E:15:76:F0:BD:C1:6F

            Authority Information Access: 
                OCSP - URI:http://172.26.20.1/responderpath

    Signature Algorithm: sha256WithRSAEncryption
         63:05:db:0f:6b:cc:13:90:42:fd:32:ac:2f:1b:8a:2a:01:02:
         ba:63:8b:97:49:78:44:2a:14:28:7e:a0:75:75:04:bd:73:3f:
         a2:74:81:20:5e:70:f3:f2:9f:fc:1d:af:18:49:da:05:1c:ff:
         0f:99:d6:e8:43:5d:00:b5:0d:52:70:d3:6e:56:79:b5:22:82:
         37:03:94:f6:62:95:13:c4:83:f6:d5:dc:cb:85:b9:bf:11:14:
         a7:d1:11:c7:7a:e4:83:87:f7:8c:77:fb:b5:db:ea:14:90:f1:
         2c:c9:6b:62:08:b5:ee:70:a9:02:7f:12:c5:eb:95:eb:d0:47:
         f6:b4:49:99:d6:b1:85:33:ee:9a:07:e1:09:d8:cf:85:95:7a:
         44:ea:03:c0:6d:d0:eb:32:b5:57:7e:7c:b6:fc:e2:42:b9:5c:
         62:c8:da:f2:fb:e2:cd:54:d1:3c:1c:0e:89:dd:25:46:47:bd:
         66:19:20:96:3c:06:15:c8:27:44:32:d4:b2:56:78:ae:f2:db:
         05:e1:26:b3:69:95:dc:8c:a7:35:e6:0a:82:f8:64:cf:30:60:
         21:aa:56:90:3a:d6:de:12:ae:a0:f1:03:90:1d:12:72:42:87:
         6f:b3:15:b0:a9:63:28:2b:79:c9:b1:21:f5:24:64:9e:6c:78:
         2d:06:59:0c
-----BEGIN CERTIFICATE-----
MIIEjzCCA3egAwIBAgIGCgsMDQ41MA0GCSqGSIb3DQEBCwUAMHoxEzARBgNVBAMU
ClBBVE5BQ0FfQ0ExCzAJBgNVBAYTAklOMQ8wDQYDVQQKEwZDSVRSSVgxDDAKBgNV
BAsTA0FORzELMAkGA1UECBMCS0ExKjAoBgkqhkiG9w0BCQEWG1BBVE5BQ0FfQ0FA
UEFUTkFDQV9tYWlsLmNvbTAeFw0xNjA3MDgwNDM4MzFaFw0yNjA3MDYwNDM4MzFa
MHAxCzAJBgNVBAgTAktBMQswCQYDVQQGEwJJTjEbMBkGA1UEAxQSMTM5X1BBVE5B
Q0Ffc2VydmVyMSYwJAYJKoZIhvcNAQkBFhcxMzlfUEFUTkFDQUB0ZXN0X2NhLmNv
bTEPMA0GA1UEChMGQ0lUUklYMIIBIjANBgkqhkiG9w0BAQEFAAOCAQ8AMIIBCgKC
AQEAthxy/uu3037vVpdjbUhwV63XBT4T8IesI/NRYnr4QeYpVbUYc+sK2Ppvr6La
hlzVCdtGKCht0B6pRqCqLjSZOXt/5ngJpXH08iBfTzGz4p8TVJ1jh3W//srocGyo
is2o1MJ4E0YjUakSnHDeiMpY1QO2HZjUG2Tm4tdeUEUG9Z7Ld7PJdSFlbIBCDdxv
W85plfyiY9iPi/F5r+4U3pCcQ6UZje8GHjEcGn66DeX+TyomzpbFPmxEz3nNUrgq
onm4/l1bmlp3z/dle/yysfCOJ3cDCUy747sJ/fqojCALVoRp/wo/KmEpk21iPCYN
c9VO+MHdJoK4oR1QUOGuBmteLQIDAQABo4IBIzCCAR8wEQYJYIZIAYb4QgEBBAQD
AgZAMB0GA1UdDgQWBBQsIL7uW3cqGPqw9Z9kl8OC94DmGDCBrAYDVR0jBIGkMIGh
gBT/38SNr2Th4xf6lu7xdaftp8ORuKF+pHwwejETMBEGA1UEAxQKUEFUTkFDQV9D
QTELMAkGA1UEBhMCSU4xDzANBgNVBAoTBkNJVFJJWDEMMAoGA1UECxMDQU5HMQsw
CQYDVQQIEwJLQTEqMCgGCSqGSIb3DQEJARYbUEFUTkFDQV9DQUBQQVROQUNBX21h
aWwuY29tggkAny4VdvC9wW8wPAYIKwYBBQUHAQEEMDAuMCwGCCsGAQUFBzABhiBo
dHRwOi8vMTcyLjI2LjIwLjEvcmVzcG9uZGVycGF0aDANBgkqhkiG9w0BAQsFAAOC
AQEAYwXbD2vME5BC/TKsLxuKKgECumOLl0l4RCoUKH6gdXUEvXM/onSBIF5w8/Kf
/B2vGEnaBRz/D5nW6ENdALUNUnDTblZ5tSKCNwOU9mKVE8SD9tXcy4W5vxEUp9ER
x3rkg4f3jHf7tdvqFJDxLMlrYgi17nCpAn8SxeuV69BH9rRJmdaxhTPumgfhCdjP
hZV6ROoDwG3Q6zK1V358tvziQrlcYsja8vvizVTRPBwOid0lRke9ZhkgljwGFcgn
RDLUslZ4rvLbBeEms2mV3IynNeYKgvhkzzBgIapWkDrW3hKuoPEDkB0SckKHb7MV
sKljKCt5ybEh9SRknmx4LQZZDA==
-----END CERTIFICATE-----
