Certificate:
    Data:
        Version: 3 (0x2)
        Serial Number: 11042563100213 (0xa0b0c0d0e35)
    Signature Algorithm: sha256WithRSAEncryption
        Issuer: CN=BHOPALCA_CA, C=IN, O=CITRIX, OU=ANG, ST=KA/emailAddress=BHOPALCA_CA@BHOPALCA_mail.com
        Validity
            Not Before: Jul  8 04:32:43 2016 GMT
            Not After : Jul  6 04:32:43 2026 GMT
        Subject: ST=KA, C=IN, CN=139_BHOPALCA_server/emailAddress=139_BHOPALCA@test_ca.com, O=CITRIX
        Subject Public Key Info:
            Public Key Algorithm: rsaEncryption
                Public-Key: (2048 bit)
                Modulus:
                    00:bf:ab:79:da:e6:c3:e7:49:1d:54:f9:1f:6c:fb:
                    2a:92:6d:74:93:81:58:cf:1f:16:15:02:ef:de:eb:
                    bb:9a:b1:5a:16:b7:d2:9c:36:29:9c:f0:89:41:6a:
                    f6:cd:4d:49:d9:7d:e4:c0:13:a3:eb:88:79:52:5d:
                    b7:4b:13:09:09:c3:55:df:06:f4:d7:d0:8b:e8:e7:
                    24:a0:e7:60:d4:95:92:30:e4:48:94:c7:fa:57:bf:
                    71:2c:4d:a9:0e:c3:23:2a:e8:fc:4c:a5:bb:b7:5f:
                    ec:a7:6f:14:8f:78:46:dc:a1:eb:d9:3e:ce:a8:96:
                    4b:7c:40:58:75:e9:cc:a1:b9:2c:73:b2:7f:0b:a2:
                    00:4a:12:4c:28:b0:2a:1d:31:df:52:b4:d7:af:3d:
                    98:e0:1f:d6:2f:9c:df:aa:20:50:73:d1:20:f2:60:
                    6e:b8:57:4e:13:e6:33:7b:63:0f:d7:e0:a8:ef:a2:
                    7c:5b:18:b1:35:ab:27:39:3b:ca:c4:af:05:0a:b3:
                    b2:e3:8f:21:5e:d9:83:fd:ee:25:1d:39:9e:0b:76:
                    2b:3d:f7:69:10:17:03:38:d8:d7:a4:65:6d:a8:e0:
                    4f:db:97:48:1d:6c:06:3b:b3:45:e3:17:bd:bf:ae:
                    9d:ba:2d:f8:92:38:c9:07:6e:94:d1:8d:9c:6b:8a:
                    21:11
                Exponent: 65537 (0x10001)
        X509v3 extensions:
            Netscape Cert Type: 
                SSL Server
            X509v3 Subject Key Identifier: 
                5E:0D:A3:3A:E9:9D:71:18:21:83:A7:12:53:9C:7C:49:8D:14:45:DD
            X509v3 Authority Key Identifier: 
                keyid:A6:66:0E:59:0F:3C:5C:11:35:B2:B3:99:59:A9:D3:A6:B1:5E:95:D2
                DirName:/CN=BHOPALCA_CA/C=IN/O=CITRIX/OU=ANG/ST=KA/emailAddress=BHOPALCA_CA@BHOPALCA_mail.com
                serial:BE:89:55:F3:65:28:17:9A

            Authority Information Access: 
                OCSP - URI:http://172.17.20.1/responderpath

    Signature Algorithm: sha256WithRSAEncryption
         28:02:a7:be:61:28:e3:af:0b:49:41:72:01:06:83:0e:96:cb:
         4d:77:3e:c6:95:3b:08:95:d8:68:b5:67:d7:93:24:0d:34:88:
         5b:78:05:76:20:96:b6:47:03:f4:6c:a6:86:3f:ca:6b:b0:8f:
         00:3e:31:28:95:e9:28:a2:9f:88:c8:fe:6d:d8:de:ba:0b:b2:
         7a:a0:d5:4c:94:1d:64:9f:b1:2c:1e:5a:83:26:20:4a:11:cd:
         3a:cd:15:6d:7d:4d:74:3e:7e:ec:1d:83:b0:04:92:de:66:a7:
         c8:e6:f6:fe:ae:83:f8:99:7c:3b:50:d0:4c:ca:9f:c0:92:51:
         a2:fb:7d:f5:58:0e:57:f1:91:97:fe:3b:ad:a6:9a:a6:69:3a:
         a0:cb:2b:8d:6f:35:94:82:17:0c:af:f7:ba:cb:30:b0:ab:6d:
         9c:eb:95:d9:fd:1a:90:55:e7:12:65:14:1d:32:4c:86:84:e5:
         16:5f:b0:11:75:00:2a:3f:f5:03:45:0a:d0:a5:8c:82:b1:42:
         31:8f:3e:5c:80:24:45:d0:40:68:37:58:f4:93:3b:a9:37:e5:
         85:82:78:70:96:d2:b5:62:44:6d:be:49:03:b4:30:7d:08:15:
         b3:c3:62:92:44:24:be:40:02:6d:86:55:f4:c6:ef:a2:16:dd:
         5b:42:00:6a
-----BEGIN CERTIFICATE-----
MIIEmDCCA4CgAwIBAgIGCgsMDQ41MA0GCSqGSIb3DQEBCwUAMH0xFDASBgNVBAMU
C0JIT1BBTENBX0NBMQswCQYDVQQGEwJJTjEPMA0GA1UEChMGQ0lUUklYMQwwCgYD
VQQLEwNBTkcxCzAJBgNVBAgTAktBMSwwKgYJKoZIhvcNAQkBFh1CSE9QQUxDQV9D
QUBCSE9QQUxDQV9tYWlsLmNvbTAeFw0xNjA3MDgwNDMyNDNaFw0yNjA3MDYwNDMy
NDNaMHIxCzAJBgNVBAgTAktBMQswCQYDVQQGEwJJTjEcMBoGA1UEAxQTMTM5X0JI
T1BBTENBX3NlcnZlcjEnMCUGCSqGSIb3DQEJARYYMTM5X0JIT1BBTENBQHRlc3Rf
Y2EuY29tMQ8wDQYDVQQKEwZDSVRSSVgwggEiMA0GCSqGSIb3DQEBAQUAA4IBDwAw
ggEKAoIBAQC/q3na5sPnSR1U+R9s+yqSbXSTgVjPHxYVAu/e67uasVoWt9KcNimc
8IlBavbNTUnZfeTAE6PriHlSXbdLEwkJw1XfBvTX0Ivo5ySg52DUlZIw5EiUx/pX
v3EsTakOwyMq6PxMpbu3X+ynbxSPeEbcoevZPs6olkt8QFh16cyhuSxzsn8LogBK
EkwosCodMd9StNevPZjgH9YvnN+qIFBz0SDyYG64V04T5jN7Yw/X4KjvonxbGLE1
qyc5O8rErwUKs7LjjyFe2YP97iUdOZ4Ldis992kQFwM42NekZW2o4E/bl0gdbAY7
s0XjF72/rp26LfiSOMkHbpTRjZxriiERAgMBAAGjggEnMIIBIzARBglghkgBhvhC
AQEEBAMCBkAwHQYDVR0OBBYEFF4NozrpnXEYIYOnElOcfEmNFEXdMIGwBgNVHSME
gagwgaWAFKZmDlkPPFwRNbKzmVmp06axXpXSoYGBpH8wfTEUMBIGA1UEAxQLQkhP
UEFMQ0FfQ0ExCzAJBgNVBAYTAklOMQ8wDQYDVQQKEwZDSVRSSVgxDDAKBgNVBAsT
A0FORzELMAkGA1UECBMCS0ExLDAqBgkqhkiG9w0BCQEWHUJIT1BBTENBX0NBQEJI
T1BBTENBX21haWwuY29tggkAvolV82UoF5owPAYIKwYBBQUHAQEEMDAuMCwGCCsG
AQUFBzABhiBodHRwOi8vMTcyLjE3LjIwLjEvcmVzcG9uZGVycGF0aDANBgkqhkiG
9w0BAQsFAAOCAQEAKAKnvmEo468LSUFyAQaDDpbLTXc+xpU7CJXYaLVn15MkDTSI
W3gFdiCWtkcD9Gymhj/Ka7CPAD4xKJXpKKKfiMj+bdjeuguyeqDVTJQdZJ+xLB5a
gyYgShHNOs0VbX1NdD5+7B2DsASS3manyOb2/q6D+Jl8O1DQTMqfwJJRovt99VgO
V/GRl/47raaapmk6oMsrjW81lIIXDK/3usswsKttnOuV2f0akFXnEmUUHTJMhoTl
Fl+wEXUAKj/1A0UK0KWMgrFCMY8+XIAkRdBAaDdY9JM7qTflhYJ4cJbStWJEbb5J
A7QwfQgVs8NikkQkvkACbYZV9MbvohbdW0IAag==
-----END CERTIFICATE-----
