Certificate:
    Data:
        Version: 3 (0x2)
        Serial Number: 11042563100214 (0xa0b0c0d0e36)
    Signature Algorithm: sha256WithRSAEncryption
        Issuer: CN=CHENNAICA_CA, C=IN, O=CITRIX, OU=ANG, ST=KA/emailAddress=CHENNAICA_CA@CHENNAICA_mail.com
        Validity
            Not Before: Jul  8 04:33:58 2016 GMT
            Not After : Jul  6 04:33:58 2026 GMT
        Subject: ST=KA, C=IN, CN=140_CHENNAICA_server/emailAddress=140_CHENNAICA@test_ca.com, O=CITRIX
        Subject Public Key Info:
            Public Key Algorithm: rsaEncryption
                Public-Key: (2048 bit)
                Modulus:
                    00:df:62:b0:5a:28:f0:d0:57:ec:2b:95:58:da:4c:
                    fc:a1:38:21:c2:99:4d:ec:71:e1:98:66:01:a3:84:
                    79:c8:21:5f:d0:58:13:33:20:91:07:1a:7d:46:06:
                    0a:d3:9f:97:71:12:4c:00:11:b5:c6:02:5d:a3:83:
                    8d:a3:9d:a5:eb:58:89:09:b6:df:be:6f:8b:89:17:
                    7f:d3:c9:ab:75:c1:12:1b:d2:e4:fc:6d:30:51:30:
                    59:7d:2f:cf:de:5d:29:cb:61:7c:53:74:c8:be:69:
                    cd:1f:78:0d:41:c2:fd:ce:49:7e:9d:fe:e5:61:05:
                    71:ee:03:6f:31:97:8e:53:eb:4f:5e:20:ea:08:91:
                    f6:ac:1f:8a:67:07:d4:5e:a0:5f:f5:c6:4c:fb:a6:
                    d7:ff:4b:63:40:a6:92:a2:82:bf:8c:62:81:fe:31:
                    9a:2a:0a:67:6c:ac:57:26:bd:5a:ba:0f:c7:7d:8d:
                    dc:58:1e:be:4f:bb:d8:2f:e4:bf:b3:d1:ae:26:2c:
                    5b:88:a8:4a:2d:2e:60:8a:cd:64:3f:f0:6c:6e:23:
                    ea:34:27:16:36:7a:5b:34:cf:5e:24:d6:59:6b:bf:
                    af:3e:83:38:0b:a4:91:f9:4c:84:18:99:71:39:f0:
                    67:cd:41:42:01:45:33:cc:65:57:00:fd:c7:c2:28:
                    0f:dd
                Exponent: 65537 (0x10001)
        X509v3 extensions:
            Netscape Cert Type: 
                SSL Server
            X509v3 Subject Key Identifier: 
                F9:77:20:24:72:55:60:7E:39:89:57:F3:83:44:7E:20:CC:68:1B:5B
            X509v3 Authority Key Identifier: 
                keyid:BE:CA:53:AC:65:89:18:02:1E:F6:53:A2:50:12:94:60:EC:CC:05:FA
                DirName:/CN=CHENNAICA_CA/C=IN/O=CITRIX/OU=ANG/ST=KA/emailAddress=CHENNAICA_CA@CHENNAICA_mail.com
                serial:87:FB:C4:D4:5E:46:56:70

            Authority Information Access: 
                OCSP - URI:http://172.19.20.1/responderpath

    Signature Algorithm: sha256WithRSAEncryption
         0a:a9:af:63:81:68:3e:38:bf:3f:ee:af:a4:ad:cb:19:74:fb:
         e7:05:91:e1:27:6c:65:3e:03:de:79:ed:05:da:8f:85:d9:db:
         5d:04:50:52:a8:d3:3c:b1:88:19:d2:44:aa:09:69:51:60:95:
         53:b8:94:1e:2e:09:41:19:a3:f5:8f:1d:e2:ea:3f:4a:05:49:
         a8:36:15:7d:16:59:54:f2:d5:e9:18:8d:5f:b9:23:72:4f:52:
         93:2a:7a:8c:c7:c0:f6:fe:a5:8b:0e:7c:73:26:95:7f:c6:dd:
         ac:7a:ab:1f:66:33:d6:7c:e6:a5:c5:c9:c6:9d:9f:9f:04:6c:
         7b:43:6a:02:cf:6a:c6:ad:ee:54:35:0b:c1:36:96:22:41:25:
         50:63:7d:7a:79:e5:77:03:4b:ba:1c:04:f3:05:dc:a6:28:01:
         1d:f5:50:7e:76:df:28:78:0e:10:90:8f:b8:86:2e:ad:70:51:
         9c:9e:42:56:6d:5c:7a:d0:d2:cc:b7:9c:4b:f0:3b:79:13:12:
         3e:44:b4:5c:94:f3:bf:24:75:79:66:7d:20:37:b7:d3:a9:cb:
         15:2b:50:fc:86:93:3e:cc:d3:79:97:f1:f5:06:7f:21:67:0a:
         73:1f:0f:4e:2b:20:f3:f6:ac:d9:9f:1a:5c:fa:f2:28:08:33:
         73:2e:62:3f
-----BEGIN CERTIFICATE-----
MIIEozCCA4ugAwIBAgIGCgsMDQ42MA0GCSqGSIb3DQEBCwUAMIGAMRUwEwYDVQQD
FAxDSEVOTkFJQ0FfQ0ExCzAJBgNVBAYTAklOMQ8wDQYDVQQKEwZDSVRSSVgxDDAK
BgNVBAsTA0FORzELMAkGA1UECBMCS0ExLjAsBgkqhkiG9w0BCQEWH0NIRU5OQUlD
QV9DQUBDSEVOTkFJQ0FfbWFpbC5jb20wHhcNMTYwNzA4MDQzMzU4WhcNMjYwNzA2
MDQzMzU4WjB0MQswCQYDVQQIEwJLQTELMAkGA1UEBhMCSU4xHTAbBgNVBAMUFDE0
MF9DSEVOTkFJQ0Ffc2VydmVyMSgwJgYJKoZIhvcNAQkBFhkxNDBfQ0hFTk5BSUNB
QHRlc3RfY2EuY29tMQ8wDQYDVQQKEwZDSVRSSVgwggEiMA0GCSqGSIb3DQEBAQUA
A4IBDwAwggEKAoIBAQDfYrBaKPDQV+wrlVjaTPyhOCHCmU3sceGYZgGjhHnIIV/Q
WBMzIJEHGn1GBgrTn5dxEkwAEbXGAl2jg42jnaXrWIkJtt++b4uJF3/Tyat1wRIb
0uT8bTBRMFl9L8/eXSnLYXxTdMi+ac0feA1Bwv3OSX6d/uVhBXHuA28xl45T609e
IOoIkfasH4pnB9ReoF/1xkz7ptf/S2NAppKigr+MYoH+MZoqCmdsrFcmvVq6D8d9
jdxYHr5Pu9gv5L+z0a4mLFuIqEotLmCKzWQ/8GxuI+o0JxY2els0z14k1llrv68+
gzgLpJH5TIQYmXE58GfNQUIBRTPMZVcA/cfCKA/dAgMBAAGjggEsMIIBKDARBglg
hkgBhvhCAQEEBAMCBkAwHQYDVR0OBBYEFPl3ICRyVWB+OYlX84NEfiDMaBtbMIG1
BgNVHSMEga0wgaqAFL7KU6xliRgCHvZTolASlGDszAX6oYGGpIGDMIGAMRUwEwYD
VQQDFAxDSEVOTkFJQ0FfQ0ExCzAJBgNVBAYTAklOMQ8wDQYDVQQKEwZDSVRSSVgx
DDAKBgNVBAsTA0FORzELMAkGA1UECBMCS0ExLjAsBgkqhkiG9w0BCQEWH0NIRU5O
QUlDQV9DQUBDSEVOTkFJQ0FfbWFpbC5jb22CCQCH+8TUXkZWcDA8BggrBgEFBQcB
AQQwMC4wLAYIKwYBBQUHMAGGIGh0dHA6Ly8xNzIuMTkuMjAuMS9yZXNwb25kZXJw
YXRoMA0GCSqGSIb3DQEBCwUAA4IBAQAKqa9jgWg+OL8/7q+krcsZdPvnBZHhJ2xl
PgPeee0F2o+F2dtdBFBSqNM8sYgZ0kSqCWlRYJVTuJQeLglBGaP1jx3i6j9KBUmo
NhV9FllU8tXpGI1fuSNyT1KTKnqMx8D2/qWLDnxzJpV/xt2seqsfZjPWfOalxcnG
nZ+fBGx7Q2oCz2rGre5UNQvBNpYiQSVQY316eeV3A0u6HATzBdymKAEd9VB+dt8o
eA4QkI+4hi6tcFGcnkJWbVx60NLMt5xL8Dt5ExI+RLRclPO/JHV5Zn0gN7fTqcsV
K1D8hpM+zNN5l/H1Bn8hZwpzHw9OKyDz9qzZnxpc+vIoCDNzLmI/
-----END CERTIFICATE-----
