Certificate:
    Data:
        Version: 3 (0x2)
        Serial Number: 11042563100214 (0xa0b0c0d0e36)
    Signature Algorithm: sha256WithRSAEncryption
        Issuer: CN=GOACA_CA, C=IN, O=CITRIX, OU=ANG, ST=KA/emailAddress=GOACA_CA@GOACA_mail.com
        Validity
            Not Before: Jul  8 04:35:05 2016 GMT
            Not After : Jul  6 04:35:05 2026 GMT
        Subject: ST=KA, C=IN, CN=140_GOACA_server/emailAddress=140_GOACA@test_ca.com, O=CITRIX
        Subject Public Key Info:
            Public Key Algorithm: rsaEncryption
                Public-Key: (2048 bit)
                Modulus:
                    00:ae:49:2b:3e:11:9f:4e:66:89:fb:d3:57:78:00:
                    fe:e1:2f:34:9d:d2:3f:37:b5:58:8b:bf:05:23:da:
                    0f:3a:80:eb:c2:ee:f1:a4:8a:b9:a7:96:88:89:5e:
                    21:9a:7a:af:92:20:64:6f:aa:07:d2:f0:eb:50:f3:
                    6c:ee:b3:db:8e:1c:2b:e5:9a:e2:c9:68:9e:65:66:
                    ba:05:88:1d:15:46:36:6b:85:4d:24:23:1a:a1:65:
                    15:98:c2:42:61:b7:f6:80:fe:de:b0:14:75:d7:fc:
                    fd:c5:b7:f2:c6:ed:b4:b3:5c:77:97:f8:7d:b0:d3:
                    bb:3a:4d:ce:c5:4c:7f:9d:77:7e:1a:81:fd:b8:5d:
                    4f:c3:a0:52:56:01:4e:0e:44:e2:e2:5a:49:11:bc:
                    b8:0c:7e:b9:07:9b:00:10:e5:75:2b:fa:db:61:8d:
                    56:26:da:2c:1e:bd:58:3b:be:00:b2:59:66:d6:c0:
                    b9:a2:9c:f3:79:06:e3:01:db:ab:d8:f9:72:0d:ab:
                    da:bc:eb:0f:6b:e3:93:b0:ca:5a:5a:4c:21:81:0b:
                    10:7d:64:69:c0:f6:9b:2e:b4:dd:30:6c:49:c0:f6:
                    6b:24:90:46:33:f3:68:a7:8f:30:03:3a:40:06:ae:
                    63:83:62:f1:49:c8:53:67:71:42:ab:21:ca:89:2e:
                    35:69
                Exponent: 65537 (0x10001)
        X509v3 extensions:
            Netscape Cert Type: 
                SSL Server
            X509v3 Subject Key Identifier: 
                2C:B6:AB:3D:AE:8C:45:CB:8A:E3:39:B1:3E:17:50:F3:B2:D3:07:FC
            X509v3 Authority Key Identifier: 
                keyid:81:03:00:D4:DC:70:D9:A7:03:08:1E:DC:9B:4C:AC:E6:59:CD:39:68
                DirName:/CN=GOACA_CA/C=IN/O=CITRIX/OU=ANG/ST=KA/emailAddress=GOACA_CA@GOACA_mail.com
                serial:FC:8B:0A:90:01:17:5F:1C

            Authority Information Access: 
                OCSP - URI:http://172.21.20.1/responderpath

    Signature Algorithm: sha256WithRSAEncryption
         4c:38:18:0e:07:f2:3f:9d:4e:ea:60:94:16:6a:f8:de:60:f4:
         70:a8:9e:54:f4:11:5c:dd:f2:d8:99:ec:ad:dd:12:f7:ba:79:
         67:ec:e2:87:63:ff:f3:da:3a:ac:7c:39:b2:dd:b4:5a:66:ec:
         4d:4f:78:0a:9d:9f:b4:6d:5e:41:72:52:6b:fc:8e:13:b3:3a:
         4f:4c:8b:2d:81:e5:cb:c8:fb:1c:7d:2a:d9:a4:af:e0:f8:68:
         41:de:07:2c:8e:36:d7:98:85:b9:87:c6:89:c5:db:5e:1a:51:
         50:aa:9d:62:74:bd:13:34:0e:ec:b6:3c:a2:dc:2b:a1:3a:a1:
         d3:ca:ef:da:70:6d:d0:c0:a1:f4:8a:00:6b:34:6c:91:5b:be:
         f3:da:96:b9:8c:90:8f:ab:18:f9:3f:73:53:e9:62:6e:84:42:
         42:33:8d:ae:c6:75:17:8d:f1:5a:35:cd:99:2d:f5:7d:cb:9e:
         c5:02:0f:a3:21:13:d8:05:36:e0:f2:b9:50:93:47:92:c0:6e:
         33:06:ee:51:e3:fb:29:61:40:3d:13:24:07:57:64:31:ad:e4:
         40:67:7b:78:ca:8e:06:f1:e4:3b:ee:df:49:37:ac:35:dc:35:
         de:6e:8c:fc:9d:44:57:4c:01:45:d0:ec:f4:21:85:ba:f2:d3:
         45:28:67:47
-----BEGIN CERTIFICATE-----
MIIEfzCCA2egAwIBAgIGCgsMDQ42MA0GCSqGSIb3DQEBCwUAMHQxETAPBgNVBAMU
CEdPQUNBX0NBMQswCQYDVQQGEwJJTjEPMA0GA1UEChMGQ0lUUklYMQwwCgYDVQQL
EwNBTkcxCzAJBgNVBAgTAktBMSYwJAYJKoZIhvcNAQkBFhdHT0FDQV9DQUBHT0FD
QV9tYWlsLmNvbTAeFw0xNjA3MDgwNDM1MDVaFw0yNjA3MDYwNDM1MDVaMGwxCzAJ
BgNVBAgTAktBMQswCQYDVQQGEwJJTjEZMBcGA1UEAxQQMTQwX0dPQUNBX3NlcnZl
cjEkMCIGCSqGSIb3DQEJARYVMTQwX0dPQUNBQHRlc3RfY2EuY29tMQ8wDQYDVQQK
EwZDSVRSSVgwggEiMA0GCSqGSIb3DQEBAQUAA4IBDwAwggEKAoIBAQCuSSs+EZ9O
Zon701d4AP7hLzSd0j83tViLvwUj2g86gOvC7vGkirmnloiJXiGaeq+SIGRvqgfS
8OtQ82zus9uOHCvlmuLJaJ5lZroFiB0VRjZrhU0kIxqhZRWYwkJht/aA/t6wFHXX
/P3Ft/LG7bSzXHeX+H2w07s6Tc7FTH+dd34agf24XU/DoFJWAU4OROLiWkkRvLgM
frkHmwAQ5XUr+tthjVYm2iwevVg7vgCyWWbWwLminPN5BuMB26vY+XINq9q86w9r
45OwylpaTCGBCxB9ZGnA9psutN0wbEnA9mskkEYz82injzADOkAGrmODYvFJyFNn
cUKrIcqJLjVpAgMBAAGjggEdMIIBGTARBglghkgBhvhCAQEEBAMCBkAwHQYDVR0O
BBYEFCy2qz2ujEXLiuM5sT4XUPOy0wf8MIGmBgNVHSMEgZ4wgZuAFIEDANTccNmn
Awge3JtMrOZZzTlooXikdjB0MREwDwYDVQQDFAhHT0FDQV9DQTELMAkGA1UEBhMC
SU4xDzANBgNVBAoTBkNJVFJJWDEMMAoGA1UECxMDQU5HMQswCQYDVQQIEwJLQTEm
MCQGCSqGSIb3DQEJARYXR09BQ0FfQ0FAR09BQ0FfbWFpbC5jb22CCQD8iwqQARdf
HDA8BggrBgEFBQcBAQQwMC4wLAYIKwYBBQUHMAGGIGh0dHA6Ly8xNzIuMjEuMjAu
MS9yZXNwb25kZXJwYXRoMA0GCSqGSIb3DQEBCwUAA4IBAQBMOBgOB/I/nU7qYJQW
avjeYPRwqJ5U9BFc3fLYmeyt3RL3unln7OKHY//z2jqsfDmy3bRaZuxNT3gKnZ+0
bV5BclJr/I4TszpPTIstgeXLyPscfSrZpK/g+GhB3gcsjjbXmIW5h8aJxdteGlFQ
qp1idL0TNA7stjyi3CuhOqHTyu/acG3QwKH0igBrNGyRW77z2pa5jJCPqxj5P3NT
6WJuhEJCM42uxnUXjfFaNc2ZLfV9y57FAg+jIRPYBTbg8rlQk0eSwG4zBu5R4/sp
YUA9EyQHV2QxreRAZ3t4yo4G8eQ77t9JN6w13DXeboz8nURXTAFF0Oz0IYW68tNF
KGdH
-----END CERTIFICATE-----
