Certificate:
    Data:
        Version: 3 (0x2)
        Serial Number: 11042563100214 (0xa0b0c0d0e36)
    Signature Algorithm: sha256WithRSAEncryption
        Issuer: CN=BANGALORECA_CA, C=IN, O=CITRIX, OU=ANG, ST=KA/emailAddress=BANGALORECA_CA@BANGALORECA_mail.com
        Validity
            Not Before: Jul  8 04:31:31 2016 GMT
            Not After : Jul  6 04:31:31 2026 GMT
        Subject: ST=KA, C=IN, CN=140_BANGALORECA_server/emailAddress=140_BANGALORECA@test_ca.com, O=CITRIX
        Subject Public Key Info:
            Public Key Algorithm: rsaEncryption
                Public-Key: (2048 bit)
                Modulus:
                    00:b4:83:8b:fc:4c:3f:2a:47:d4:2f:ad:1b:df:d7:
                    f6:fc:ce:95:48:8a:de:91:17:1f:be:38:13:1f:76:
                    5c:3e:6d:23:81:be:97:b3:9b:a3:5f:9e:fd:30:54:
                    dc:1e:3d:4a:e9:fd:68:01:d2:a0:89:88:4c:08:67:
                    c0:e3:ff:0f:33:c7:95:95:46:1e:eb:13:2f:91:14:
                    2e:a0:ff:af:46:02:72:ee:52:91:b3:28:df:e2:81:
                    c7:3e:1f:6a:4f:71:2d:ae:54:0b:85:cd:1c:b8:c7:
                    b8:8b:86:42:c4:8e:3e:ac:3d:17:37:f2:2e:f0:d2:
                    c8:4b:22:9b:80:73:e6:1b:90:9d:f0:58:7c:5d:92:
                    c8:d2:24:42:9a:7f:32:58:3b:c7:31:90:c7:cf:b3:
                    42:d9:ec:5e:74:75:53:99:2d:eb:ab:36:3a:fb:e2:
                    22:8b:ab:5a:42:d8:81:e5:b1:c2:f5:cd:a7:59:f4:
                    5f:55:52:59:e1:14:22:e7:70:93:e7:72:26:7a:0c:
                    73:e3:3b:ab:1b:cb:71:0c:ca:29:38:03:a1:22:43:
                    7c:4c:61:0a:d5:ff:48:8a:6e:41:cf:c3:2a:60:6b:
                    7f:71:4f:33:11:52:3e:b7:e2:f2:96:5d:2d:8e:51:
                    b7:af:e2:9a:28:b6:26:74:d0:be:19:49:43:bd:db:
                    46:67
                Exponent: 65537 (0x10001)
        X509v3 extensions:
            Netscape Cert Type: 
                SSL Server
            X509v3 Subject Key Identifier: 
                7A:DB:CA:F7:89:E5:FF:C6:4D:3D:66:49:9D:95:7B:29:4D:61:32:5B
            X509v3 Authority Key Identifier: 
                keyid:3B:D6:D1:53:18:87:05:22:BB:EE:C3:0F:F5:CE:0F:6B:A2:93:A7:B8
                DirName:/CN=BANGALORECA_CA/C=IN/O=CITRIX/OU=ANG/ST=KA/emailAddress=BANGALORECA_CA@BANGALORECA_mail.com
                serial:A1:AC:B4:DA:46:53:58:40

            Authority Information Access: 
                OCSP - URI:http://172.16.20.1/responderpath

    Signature Algorithm: sha256WithRSAEncryption
         38:5b:a6:b5:9b:2f:e3:ee:7f:09:81:04:8c:9f:a0:4a:2d:70:
         89:a8:7e:1f:f9:fc:bf:9a:95:4f:d1:e4:e8:a0:b1:e5:e6:cb:
         ee:67:b3:2c:f1:62:f2:61:7a:c3:e9:32:51:a0:55:72:59:8b:
         73:09:93:0a:16:f8:1f:ad:8f:1f:6e:e0:57:f8:e4:52:37:1e:
         15:c9:a0:eb:81:18:d0:0d:09:9e:e2:9b:a4:86:9e:a3:76:31:
         83:fb:2d:b2:f0:fd:a2:70:82:48:ee:75:48:06:b3:c6:8c:cc:
         ac:3b:f7:b4:a2:f6:10:95:7c:84:a5:ca:be:e9:b9:c5:bc:bb:
         73:38:aa:a1:de:b8:db:70:78:84:82:55:01:a2:c0:6f:c7:c2:
         d6:e8:3b:f8:9b:dd:14:7a:9c:d3:32:8b:f6:2d:9c:48:68:07:
         1e:0f:b0:b7:5c:6f:59:8a:a3:31:f2:c2:8a:eb:6b:81:59:db:
         4f:0b:c8:ee:89:e8:72:67:21:e2:81:5a:20:e4:fa:b7:26:f8:
         f4:8e:87:ae:75:37:b5:b4:0f:a2:29:a2:8e:2a:c7:c4:09:0a:
         b2:8b:04:38:30:d7:8f:90:40:ea:8f:0f:a1:3f:73:06:9a:61:
         cb:0b:c5:b9:a9:c7:d2:00:e4:65:60:e2:8c:73:f4:dd:d4:c2:
         66:d8:09:87
-----BEGIN CERTIFICATE-----
MIIEszCCA5ugAwIBAgIGCgsMDQ42MA0GCSqGSIb3DQEBCwUAMIGGMRcwFQYDVQQD
FA5CQU5HQUxPUkVDQV9DQTELMAkGA1UEBhMCSU4xDzANBgNVBAoTBkNJVFJJWDEM
MAoGA1UECxMDQU5HMQswCQYDVQQIEwJLQTEyMDAGCSqGSIb3DQEJARYjQkFOR0FM
T1JFQ0FfQ0FAQkFOR0FMT1JFQ0FfbWFpbC5jb20wHhcNMTYwNzA4MDQzMTMxWhcN
MjYwNzA2MDQzMTMxWjB4MQswCQYDVQQIEwJLQTELMAkGA1UEBhMCSU4xHzAdBgNV
BAMUFjE0MF9CQU5HQUxPUkVDQV9zZXJ2ZXIxKjAoBgkqhkiG9w0BCQEWGzE0MF9C
QU5HQUxPUkVDQUB0ZXN0X2NhLmNvbTEPMA0GA1UEChMGQ0lUUklYMIIBIjANBgkq
hkiG9w0BAQEFAAOCAQ8AMIIBCgKCAQEAtIOL/Ew/KkfUL60b39f2/M6VSIrekRcf
vjgTH3ZcPm0jgb6Xs5ujX579MFTcHj1K6f1oAdKgiYhMCGfA4/8PM8eVlUYe6xMv
kRQuoP+vRgJy7lKRsyjf4oHHPh9qT3EtrlQLhc0cuMe4i4ZCxI4+rD0XN/Iu8NLI
SyKbgHPmG5Cd8Fh8XZLI0iRCmn8yWDvHMZDHz7NC2exedHVTmS3rqzY6++Iii6ta
QtiB5bHC9c2nWfRfVVJZ4RQi53CT53Imegxz4zurG8txDMopOAOhIkN8TGEK1f9I
im5Bz8MqYGt/cU8zEVI+t+Lyll0tjlG3r+KaKLYmdNC+GUlDvdtGZwIDAQABo4IB
MjCCAS4wEQYJYIZIAYb4QgEBBAQDAgZAMB0GA1UdDgQWBBR628r3ieX/xk09Zkmd
lXspTWEyWzCBuwYDVR0jBIGzMIGwgBQ71tFTGIcFIrvuww/1zg9ropOnuKGBjKSB
iTCBhjEXMBUGA1UEAxQOQkFOR0FMT1JFQ0FfQ0ExCzAJBgNVBAYTAklOMQ8wDQYD
VQQKEwZDSVRSSVgxDDAKBgNVBAsTA0FORzELMAkGA1UECBMCS0ExMjAwBgkqhkiG
9w0BCQEWI0JBTkdBTE9SRUNBX0NBQEJBTkdBTE9SRUNBX21haWwuY29tggkAoay0
2kZTWEAwPAYIKwYBBQUHAQEEMDAuMCwGCCsGAQUFBzABhiBodHRwOi8vMTcyLjE2
LjIwLjEvcmVzcG9uZGVycGF0aDANBgkqhkiG9w0BAQsFAAOCAQEAOFumtZsv4+5/
CYEEjJ+gSi1wiah+H/n8v5qVT9Hk6KCx5ebL7mezLPFi8mF6w+kyUaBVclmLcwmT
Chb4H62PH27gV/jkUjceFcmg64EY0A0JnuKbpIaeo3Yxg/stsvD9onCCSO51SAaz
xozMrDv3tKL2EJV8hKXKvum5xby7cziqod6423B4hIJVAaLAb8fC1ug7+JvdFHqc
0zKL9i2cSGgHHg+wt1xvWYqjMfLCiutrgVnbTwvI7onocmch4oFaIOT6tyb49I6H
rnU3tbQPoimijirHxAkKsosEODDXj5BA6o8PoT9zBpphywvFuanH0gDkZWDijHP0
3dTCZtgJhw==
-----END CERTIFICATE-----
