Certificate:
    Data:
        Version: 3 (0x2)
        Serial Number: 11042563100214 (0xa0b0c0d0e36)
    Signature Algorithm: sha256WithRSAEncryption
        Issuer: CN=OOTYCA_CA, C=IN, O=CITRIX, OU=ANG, ST=KA/emailAddress=OOTYCA_CA@OOTYCA_mail.com
        Validity
            Not Before: Jul  8 04:37:13 2016 GMT
            Not After : Jul  6 04:37:13 2026 GMT
        Subject: ST=KA, C=IN, CN=140_OOTYCA_server/emailAddress=140_OOTYCA@test_ca.com, O=CITRIX
        Subject Public Key Info:
            Public Key Algorithm: rsaEncryption
                Public-Key: (2048 bit)
                Modulus:
                    00:ad:56:84:c9:2b:d7:86:73:11:53:2a:1d:99:14:
                    01:1e:ef:b5:7d:e1:a3:f9:c6:8d:56:01:35:92:67:
                    20:34:ff:71:12:cc:aa:6a:3e:63:36:48:64:4d:30:
                    5a:cb:46:8e:4e:c5:a8:3c:a2:28:ef:d0:91:c0:ca:
                    7a:c2:7e:36:d4:8a:d5:a2:7d:53:77:7b:6f:d3:e0:
                    1a:d5:0d:b8:4c:54:9b:f4:5c:62:d9:f2:f7:73:ca:
                    c4:5e:b2:5e:35:bf:91:43:5a:b5:17:57:94:5c:76:
                    17:05:34:09:21:13:2d:11:aa:89:fb:21:05:f1:d4:
                    c5:5f:e8:7b:92:60:4a:db:43:62:5a:7f:24:78:17:
                    ba:f6:d2:36:4b:20:dd:87:ea:16:00:14:b6:f4:54:
                    fb:57:21:75:00:c9:f0:ce:5b:84:51:01:83:05:11:
                    71:46:c3:71:15:d9:de:ee:98:28:b4:f9:2f:98:c3:
                    c8:7e:d7:74:4a:97:8d:60:db:0b:7f:c6:07:d2:bf:
                    c1:d4:7c:dd:95:c8:ed:ba:98:f6:58:6a:bf:dd:3f:
                    11:96:fa:94:57:4f:45:01:2c:43:21:3b:41:e5:77:
                    a6:b7:73:53:7c:c8:ff:df:ea:40:85:27:c1:85:71:
                    82:96:1b:1c:c2:08:94:5b:45:99:81:e5:85:67:37:
                    0b:fd
                Exponent: 65537 (0x10001)
        X509v3 extensions:
            Netscape Cert Type: 
                SSL Server
            X509v3 Subject Key Identifier: 
                AD:EB:69:95:E6:CB:07:61:F2:2C:94:59:C1:49:9F:2D:97:6A:F8:EA
            X509v3 Authority Key Identifier: 
                keyid:9E:A0:B1:FE:A8:B8:21:30:13:39:F2:C3:C1:A8:43:CB:5D:73:FC:B5
                DirName:/CN=OOTYCA_CA/C=IN/O=CITRIX/OU=ANG/ST=KA/emailAddress=OOTYCA_CA@OOTYCA_mail.com
                serial:AA:C2:AB:74:21:09:60:FF

            Authority Information Access: 
                OCSP - URI:http://172.25.20.1/responderpath

    Signature Algorithm: sha256WithRSAEncryption
         90:37:4f:0d:d7:87:d1:04:71:fc:ee:64:3e:ab:82:e6:4d:f3:
         3b:d8:55:42:16:b5:32:7b:58:33:1c:94:f7:04:88:c8:5a:1c:
         bc:aa:19:c1:af:a5:a7:3c:f1:87:55:ac:dc:a5:57:2b:a1:b6:
         af:ff:37:81:91:b0:bf:fe:72:8b:d6:68:12:98:20:61:bd:5e:
         65:b8:37:79:32:6b:0f:c1:99:7f:a9:21:7c:e8:eb:e9:c1:6a:
         95:ba:46:89:38:88:00:82:6b:c1:f4:62:bd:1b:ef:5f:5b:5f:
         65:10:76:d7:2c:4e:e3:9e:fb:0d:a2:36:87:22:d4:7b:06:c7:
         a2:45:ae:8a:0b:9b:54:3f:2f:af:ef:a2:e5:e3:35:ab:74:78:
         19:fe:8d:98:8c:01:cb:01:f8:8a:e2:a7:5a:fd:95:25:fe:b3:
         0b:ff:9e:34:99:b2:8b:87:9a:5b:3e:b8:e1:49:95:78:d9:33:
         e5:df:fa:c4:6d:80:83:eb:28:05:d0:ce:5a:60:1e:6a:e7:0f:
         f0:56:e3:a7:cf:12:62:a4:e1:5f:c5:b2:27:82:41:e4:0c:bf:
         b1:0d:2b:5f:6a:29:e0:c2:e5:19:47:41:f0:67:5a:da:38:02:
         f1:7e:ca:4d:06:a2:75:92:5a:be:06:e7:97:0f:74:dd:03:3d:
         f8:54:76:2d
-----BEGIN CERTIFICATE-----
MIIEhzCCA2+gAwIBAgIGCgsMDQ42MA0GCSqGSIb3DQEBCwUAMHcxEjAQBgNVBAMU
CU9PVFlDQV9DQTELMAkGA1UEBhMCSU4xDzANBgNVBAoTBkNJVFJJWDEMMAoGA1UE
CxMDQU5HMQswCQYDVQQIEwJLQTEoMCYGCSqGSIb3DQEJARYZT09UWUNBX0NBQE9P
VFlDQV9tYWlsLmNvbTAeFw0xNjA3MDgwNDM3MTNaFw0yNjA3MDYwNDM3MTNaMG4x
CzAJBgNVBAgTAktBMQswCQYDVQQGEwJJTjEaMBgGA1UEAxQRMTQwX09PVFlDQV9z
ZXJ2ZXIxJTAjBgkqhkiG9w0BCQEWFjE0MF9PT1RZQ0FAdGVzdF9jYS5jb20xDzAN
BgNVBAoTBkNJVFJJWDCCASIwDQYJKoZIhvcNAQEBBQADggEPADCCAQoCggEBAK1W
hMkr14ZzEVMqHZkUAR7vtX3ho/nGjVYBNZJnIDT/cRLMqmo+YzZIZE0wWstGjk7F
qDyiKO/QkcDKesJ+NtSK1aJ9U3d7b9PgGtUNuExUm/RcYtny93PKxF6yXjW/kUNa
tRdXlFx2FwU0CSETLRGqifshBfHUxV/oe5JgSttDYlp/JHgXuvbSNksg3YfqFgAU
tvRU+1chdQDJ8M5bhFEBgwURcUbDcRXZ3u6YKLT5L5jDyH7XdEqXjWDbC3/GB9K/
wdR83ZXI7bqY9lhqv90/EZb6lFdPRQEsQyE7QeV3prdzU3zI/9/qQIUnwYVxgpYb
HMIIlFtFmYHlhWc3C/0CAwEAAaOCASAwggEcMBEGCWCGSAGG+EIBAQQEAwIGQDAd
BgNVHQ4EFgQUretplebLB2HyLJRZwUmfLZdq+OowgakGA1UdIwSBoTCBnoAUnqCx
/qi4ITATOfLDwahDy11z/LWhe6R5MHcxEjAQBgNVBAMUCU9PVFlDQV9DQTELMAkG
A1UEBhMCSU4xDzANBgNVBAoTBkNJVFJJWDEMMAoGA1UECxMDQU5HMQswCQYDVQQI
EwJLQTEoMCYGCSqGSIb3DQEJARYZT09UWUNBX0NBQE9PVFlDQV9tYWlsLmNvbYIJ
AKrCq3QhCWD/MDwGCCsGAQUFBwEBBDAwLjAsBggrBgEFBQcwAYYgaHR0cDovLzE3
Mi4yNS4yMC4xL3Jlc3BvbmRlcnBhdGgwDQYJKoZIhvcNAQELBQADggEBAJA3Tw3X
h9EEcfzuZD6rguZN8zvYVUIWtTJ7WDMclPcEiMhaHLyqGcGvpac88YdVrNylVyuh
tq//N4GRsL/+covWaBKYIGG9XmW4N3kyaw/BmX+pIXzo6+nBapW6Rok4iACCa8H0
Yr0b719bX2UQdtcsTuOe+w2iNoci1HsGx6JFrooLm1Q/L6/vouXjNat0eBn+jZiM
AcsB+Irip1r9lSX+swv/njSZsouHmls+uOFJlXjZM+Xf+sRtgIPrKAXQzlpgHmrn
D/BW46fPEmKk4V/FsieCQeQMv7ENK19qKeDC5RlHQfBnWto4AvF+yk0GonWSWr4G
55cPdN0DPfhUdi0=
-----END CERTIFICATE-----
