Certificate:
    Data:
        Version: 3 (0x2)
        Serial Number: 11042563100226 (0xa0b0c0d0e42)
    Signature Algorithm: sha1WithRSAEncryption
        Issuer: CN=OCSP_CATWO, ST=KA, C=IN/emailAddress=ocspcatwo@ocsptesting.com, O=CITRIX
        Validity
            Not Before: Jun 28 00:57:51 2016 GMT
            Not After : Jun 26 00:57:51 2026 GMT
        Subject: ST=KA, C=IN, CN=ocspcatwo_038_server/emailAddress=ocspcatwo_038@test_ca.com, O=CITRIX
        Subject Public Key Info:
            Public Key Algorithm: rsaEncryption
                Public-Key: (2048 bit)
                Modulus:
                    00:d6:4b:e9:ed:12:34:a3:07:50:a9:03:2a:68:41:
                    78:6f:01:c8:95:63:37:e8:8a:66:45:20:11:92:45:
                    ce:4a:cd:76:fb:7d:da:33:4d:21:fa:4d:e6:7a:5c:
                    d6:52:79:0e:3a:1d:58:3d:df:ff:0b:cf:a5:15:80:
                    7f:cd:d5:2f:47:6c:78:4f:c0:b7:88:42:18:d6:d2:
                    86:3f:ec:7c:d1:f4:f4:ed:61:e0:09:e8:8a:82:56:
                    4c:db:ce:f7:05:40:93:a6:36:f4:d1:20:08:54:27:
                    3f:20:25:58:3a:87:28:38:c0:89:56:34:17:57:73:
                    5f:41:ce:f4:aa:bc:44:a4:e9:5c:cc:98:98:f5:0d:
                    0b:47:d9:0b:07:ef:e1:4f:bf:64:1d:ba:5f:da:5b:
                    c7:e1:cf:8f:e9:b8:82:1a:91:45:32:b9:72:4d:ce:
                    d4:a7:fb:06:bf:eb:1c:5b:b8:9a:ee:ba:f6:49:53:
                    76:f7:36:49:fb:a0:c3:13:55:b5:be:bc:f5:9f:a4:
                    11:fc:69:fc:ae:49:8c:e3:64:f7:bf:1d:02:e3:b5:
                    74:ff:6c:76:69:10:ee:38:3f:20:04:d1:6f:56:ed:
                    ed:df:a2:c1:a9:06:07:63:17:da:32:6a:5e:08:63:
                    c7:1e:d2:f0:16:e2:75:00:83:ab:03:e6:d9:bb:fd:
                    c3:f3
                Exponent: 65537 (0x10001)
        X509v3 extensions:
            Netscape Cert Type: 
                SSL Server
            X509v3 Subject Key Identifier: 
                61:AC:2E:B9:5F:D3:A4:1D:9A:2B:82:A3:14:AD:0D:F8:A5:62:57:EF
            X509v3 Authority Key Identifier: 
                keyid:02:88:18:65:DF:25:91:21:D4:0A:68:78:D6:38:A0:5F:8F:17:1E:D3
                DirName:/CN=OCSP_CATWO/ST=KA/C=IN/emailAddress=ocspcatwo@ocsptesting.com/O=CITRIX
                serial:95:45:0F:EB:FA:5E:01:F6

            Authority Information Access: 
                OCSP - URI:http://ashoke.ocsp_catwo.citrite.net/responderpath

    Signature Algorithm: sha1WithRSAEncryption
         02:b6:c2:81:52:80:a9:d0:64:fd:dc:0b:3b:65:fa:df:71:db:
         8c:fb:d5:06:f3:9a:e4:f6:3e:54:e8:e2:0b:6b:ce:0c:39:72:
         44:a4:5e:7a:13:63:6f:3c:e1:70:5d:ab:90:a7:d5:64:87:77:
         9b:5c:17:cb:6f:d4:08:2f:cd:fd:3c:8b:c3:2e:90:da:75:d9:
         99:bd:50:f3:b1:ab:46:9b:83:a4:af:61:f5:70:6e:bc:24:29:
         88:be:a2:f1:1b:94:a0:10:ed:05:8f:85:4f:c5:be:85:8a:48:
         cc:da:88:4f:55:33:aa:22:82:75:e4:54:e2:92:b8:6c:81:3e:
         12:94:dc:89:d9:3d:10:f3:11:15:06:2c:6e:9b:41:d2:fa:d2:
         1f:79:c4:8b:f2:fa:01:c4:93:56:d3:1d:ed:f6:80:34:b7:8f:
         fa:ce:a9:5c:21:a8:33:43:1d:20:17:4a:e3:df:32:ad:40:ee:
         45:d8:65:70:6e:90:9f:e9:9a:18:1e:87:84:6a:2d:67:68:d3:
         46:97:e9:0a:b5:9d:78:64:6f:d5:23:d2:93:48:ea:6c:cc:c2:
         34:83:81:f1:47:22:51:21:52:bf:1d:2a:09:23:c8:4c:1a:e6:
         ee:b4:d3:3a:a7:c5:09:38:cd:95:6b:ac:7e:f6:d2:3e:69:72:
         54:de:98:3d
-----BEGIN CERTIFICATE-----
MIIEhTCCA22gAwIBAgIGCgsMDQ5CMA0GCSqGSIb3DQEBBQUAMGoxEzARBgNVBAMU
Ck9DU1BfQ0FUV08xCzAJBgNVBAgTAktBMQswCQYDVQQGEwJJTjEoMCYGCSqGSIb3
DQEJARYZb2NzcGNhdHdvQG9jc3B0ZXN0aW5nLmNvbTEPMA0GA1UEChMGQ0lUUklY
MB4XDTE2MDYyODAwNTc1MVoXDTI2MDYyNjAwNTc1MVowdDELMAkGA1UECBMCS0Ex
CzAJBgNVBAYTAklOMR0wGwYDVQQDFBRvY3NwY2F0d29fMDM4X3NlcnZlcjEoMCYG
CSqGSIb3DQEJARYZb2NzcGNhdHdvXzAzOEB0ZXN0X2NhLmNvbTEPMA0GA1UEChMG
Q0lUUklYMIIBIjANBgkqhkiG9w0BAQEFAAOCAQ8AMIIBCgKCAQEA1kvp7RI0owdQ
qQMqaEF4bwHIlWM36IpmRSARkkXOSs12+33aM00h+k3melzWUnkOOh1YPd//C8+l
FYB/zdUvR2x4T8C3iEIY1tKGP+x80fT07WHgCeiKglZM2873BUCTpjb00SAIVCc/
ICVYOocoOMCJVjQXV3NfQc70qrxEpOlczJiY9Q0LR9kLB+/hT79kHbpf2lvH4c+P
6biCGpFFMrlyTc7Up/sGv+scW7ia7rr2SVN29zZJ+6DDE1W1vrz1n6QR/Gn8rkmM
42T3vx0C47V0/2x2aRDuOD8gBNFvVu3t36LBqQYHYxfaMmpeCGPHHtLwFuJ1AIOr
A+bZu/3D8wIDAQABo4IBJTCCASEwEQYJYIZIAYb4QgEBBAQDAgZAMB0GA1UdDgQW
BBRhrC65X9OkHZorgqMUrQ34pWJX7zCBnAYDVR0jBIGUMIGRgBQCiBhl3yWRIdQK
aHjWOKBfjxce06FupGwwajETMBEGA1UEAxQKT0NTUF9DQVRXTzELMAkGA1UECBMC
S0ExCzAJBgNVBAYTAklOMSgwJgYJKoZIhvcNAQkBFhlvY3NwY2F0d29Ab2NzcHRl
c3RpbmcuY29tMQ8wDQYDVQQKEwZDSVRSSViCCQCVRQ/r+l4B9jBOBggrBgEFBQcB
AQRCMEAwPgYIKwYBBQUHMAGGMmh0dHA6Ly9hc2hva2Uub2NzcF9jYXR3by5jaXRy
aXRlLm5ldC9yZXNwb25kZXJwYXRoMA0GCSqGSIb3DQEBBQUAA4IBAQACtsKBUoCp
0GT93As7ZfrfcduM+9UG85rk9j5U6OILa84MOXJEpF56E2NvPOFwXauQp9Vkh3eb
XBfLb9QIL839PIvDLpDaddmZvVDzsatGm4Okr2H1cG68JCmIvqLxG5SgEO0Fj4VP
xb6FikjM2ohPVTOqIoJ15FTikrhsgT4SlNyJ2T0Q8xEVBixum0HS+tIfecSL8voB
xJNW0x3t9oA0t4/6zqlcIagzQx0gF0rj3zKtQO5F2GVwbpCf6ZoYHoeEai1naNNG
l+kKtZ14ZG/VI9KTSOpszMI0g4HxRyJRIVK/HSoJI8hMGubutNM6p8UJOM2Va6x+
9tI+aXJU3pg9
-----END CERTIFICATE-----
