Certificate:
    Data:
        Version: 3 (0x2)
        Serial Number: 1108152289061 (0x10203060725)
    Signature Algorithm: sha256WithRSAEncryption
        Issuer: CN=OCSP_CAONE, ST=KA, C=IN/emailAddress=ocsp_caone@ocsptest.com, O=CITRIX
        Validity
            Not Before: Jun 27 02:33:16 2016 GMT
            Not After : Jun 25 02:33:16 2026 GMT
        Subject: ST=KA, C=IN, CN=ocsp_caone_server_seven_server/emailAddress=ocsp_caone_server_seven@test_ca.com, O=CITRIX
        Subject Public Key Info:
            Public Key Algorithm: rsaEncryption
                Public-Key: (2048 bit)
                Modulus:
                    00:d5:94:4b:fc:3e:6f:a2:72:f3:82:05:9d:44:8e:
                    dd:b5:e3:af:bd:71:ed:cf:fa:ff:a3:30:f7:0f:d2:
                    ba:76:fc:c4:9a:6e:31:43:36:dd:0e:2a:ac:35:08:
                    df:2e:bb:82:69:af:e4:49:68:17:02:0b:63:ae:d8:
                    40:dc:e9:9b:11:11:71:98:64:04:a1:5c:66:0f:2f:
                    54:21:39:49:84:bc:f1:ba:2a:fd:67:63:84:21:57:
                    b1:af:ee:df:08:f6:d4:53:7e:b2:3d:f3:02:0c:71:
                    93:55:f4:03:7e:d1:26:a7:8a:06:f0:41:42:34:73:
                    98:b8:08:60:be:1b:e3:41:00:76:b5:29:aa:28:04:
                    d4:c0:bf:7e:86:94:71:ae:8c:c6:0d:7c:9d:76:6d:
                    85:f5:9a:1f:9a:ce:c6:1b:3a:39:58:92:60:a1:cf:
                    33:8b:6c:64:37:14:70:36:73:86:af:e5:cd:b5:ab:
                    50:a8:be:9d:26:4c:22:90:9f:a9:e8:70:1a:fe:4b:
                    af:1b:43:9f:55:17:d8:ba:72:22:65:03:c2:6d:86:
                    27:4b:b4:2a:86:d6:a3:e2:1d:c4:6f:07:b5:9e:7e:
                    69:e3:e1:7c:40:e2:33:f3:12:4d:7e:dd:a3:2b:44:
                    e4:84:24:47:44:8a:0a:17:0d:48:ff:11:96:0a:6b:
                    e6:f9
                Exponent: 65537 (0x10001)
        X509v3 extensions:
            Netscape Cert Type: 
                SSL Server
            X509v3 Subject Key Identifier: 
                03:F0:E8:3D:D8:20:A4:9B:3A:EA:70:B5:0C:D9:DB:E0:E1:BB:07:8D
            X509v3 Authority Key Identifier: 
                keyid:B7:5F:A4:77:93:33:C4:32:94:1C:8E:F1:0C:3B:DE:62:5E:E2:96:0E
                DirName:/CN=OCSP_CAONE/ST=KA/C=IN/emailAddress=ocsp_caone@ocsptest.com/O=CITRIX
                serial:A2:D9:70:A5:7D:CC:76:E4

            Authority Information Access: 
                OCSP - URI:http://172.16.10.21/responderpath

    Signature Algorithm: sha256WithRSAEncryption
         80:64:c4:63:47:1c:76:9b:8a:56:67:49:a9:8e:7f:f9:cb:b8:
         2f:a6:6a:52:e2:d9:ea:19:bc:aa:d9:65:17:0c:b2:d2:b8:f1:
         73:9f:57:67:f1:a8:bd:42:70:8e:e0:da:52:7a:88:4b:ab:08:
         90:aa:ff:f1:5c:f4:55:c1:9d:71:cd:1f:dd:36:34:13:4f:18:
         3f:c3:88:d1:33:fa:97:b6:47:0b:fb:92:b5:ed:e6:c4:d8:24:
         85:bf:3a:91:16:0f:c9:f3:36:db:c8:8c:43:3d:8c:e7:24:df:
         19:c4:e1:aa:ae:1d:92:78:af:ed:14:88:4f:0a:b7:2c:68:e1:
         75:be:ea:c8:70:70:a3:53:b1:be:fd:5d:23:13:62:19:4d:ed:
         4c:b6:12:c2:b9:29:60:cb:c7:65:53:16:34:88:5e:ef:b9:7d:
         29:a8:48:a1:21:a3:1e:8c:eb:14:df:af:f7:27:91:0c:56:66:
         ea:8f:20:87:43:7b:8b:78:8b:8e:b5:13:aa:f6:84:7f:0a:a2:
         c2:0f:50:ce:b0:3b:1d:9b:33:d5:0e:98:64:ec:9e:24:71:e6:
         05:ea:7b:e6:89:f0:1d:f9:28:5a:62:22:09:98:70:27:ca:8f:
         69:68:51:be:09:de:53:93:9e:ab:78:02:85:f3:85:41:c7:06:
         f5:51:0e:17
-----BEGIN CERTIFICATE-----
MIIEhTCCA22gAwIBAgIGAQIDBgclMA0GCSqGSIb3DQEBCwUAMGgxEzARBgNVBAMU
Ck9DU1BfQ0FPTkUxCzAJBgNVBAgTAktBMQswCQYDVQQGEwJJTjEmMCQGCSqGSIb3
DQEJARYXb2NzcF9jYW9uZUBvY3NwdGVzdC5jb20xDzANBgNVBAoTBkNJVFJJWDAe
Fw0xNjA2MjcwMjMzMTZaFw0yNjA2MjUwMjMzMTZaMIGIMQswCQYDVQQIEwJLQTEL
MAkGA1UEBhMCSU4xJzAlBgNVBAMUHm9jc3BfY2FvbmVfc2VydmVyX3NldmVuX3Nl
cnZlcjEyMDAGCSqGSIb3DQEJARYjb2NzcF9jYW9uZV9zZXJ2ZXJfc2V2ZW5AdGVz
dF9jYS5jb20xDzANBgNVBAoTBkNJVFJJWDCCASIwDQYJKoZIhvcNAQEBBQADggEP
ADCCAQoCggEBANWUS/w+b6Jy84IFnUSO3bXjr71x7c/6/6Mw9w/Sunb8xJpuMUM2
3Q4qrDUI3y67gmmv5EloFwILY67YQNzpmxERcZhkBKFcZg8vVCE5SYS88boq/Wdj
hCFXsa/u3wj21FN+sj3zAgxxk1X0A37RJqeKBvBBQjRzmLgIYL4b40EAdrUpqigE
1MC/foaUca6Mxg18nXZthfWaH5rOxhs6OViSYKHPM4tsZDcUcDZzhq/lzbWrUKi+
nSZMIpCfqehwGv5LrxtDn1UX2LpyImUDwm2GJ0u0KobWo+IdxG8HtZ5+aePhfEDi
M/MSTX7doytE5IQkR0SKChcNSP8Rlgpr5vkCAwEAAaOCARIwggEOMBEGCWCGSAGG
+EIBAQQEAwIGQDAdBgNVHQ4EFgQUA/DoPdggpJs66nC1DNnb4OG7B40wgZoGA1Ud
IwSBkjCBj4AUt1+kd5MzxDKUHI7xDDveYl7ilg6hbKRqMGgxEzARBgNVBAMUCk9D
U1BfQ0FPTkUxCzAJBgNVBAgTAktBMQswCQYDVQQGEwJJTjEmMCQGCSqGSIb3DQEJ
ARYXb2NzcF9jYW9uZUBvY3NwdGVzdC5jb20xDzANBgNVBAoTBkNJVFJJWIIJAKLZ
cKV9zHbkMD0GCCsGAQUFBwEBBDEwLzAtBggrBgEFBQcwAYYhaHR0cDovLzE3Mi4x
Ni4xMC4yMS9yZXNwb25kZXJwYXRoMA0GCSqGSIb3DQEBCwUAA4IBAQCAZMRjRxx2
m4pWZ0mpjn/5y7gvpmpS4tnqGbyq2WUXDLLSuPFzn1dn8ai9QnCO4NpSeohLqwiQ
qv/xXPRVwZ1xzR/dNjQTTxg/w4jRM/qXtkcL+5K17ebE2CSFvzqRFg/J8zbbyIxD
PYznJN8ZxOGqrh2SeK/tFIhPCrcsaOF1vurIcHCjU7G+/V0jE2IZTe1MthLCuSlg
y8dlUxY0iF7vuX0pqEihIaMejOsU36/3J5EMVmbqjyCHQ3uLeIuOtROq9oR/CqLC
D1DOsDsdmzPVDphk7J4kceYF6nvmifAd+ShaYiIJmHAnyo9paFG+Cd5Tk56reAKF
84VBxwb1UQ4X
-----END CERTIFICATE-----
