Certificate:
    Data:
        Version: 3 (0x2)
        Serial Number: 11042563100224 (0xa0b0c0d0e40)
    Signature Algorithm: sha1WithRSAEncryption
        Issuer: CN=OCSP_CATWO, ST=KA, C=IN/emailAddress=ocspcatwo@ocsptesting.com, O=CITRIX
        Validity
            Not Before: Jun 28 00:57:50 2016 GMT
            Not After : Jun 26 00:57:50 2026 GMT
        Subject: ST=KA, C=IN, CN=ocspcatwo_036_server/emailAddress=ocspcatwo_036@test_ca.com, O=CITRIX
        Subject Public Key Info:
            Public Key Algorithm: rsaEncryption
                Public-Key: (2048 bit)
                Modulus:
                    00:f1:e6:7c:f1:b1:97:1b:ba:db:f8:f8:a5:06:fd:
                    8a:39:3f:51:5a:ea:df:bd:76:46:ef:5c:30:12:2e:
                    73:7f:1f:58:fd:b3:31:ed:33:c3:c1:2b:9c:95:92:
                    d5:a9:af:70:0f:e1:40:f0:67:d3:2f:3d:ca:cf:42:
                    bd:1e:84:fc:5d:35:74:c1:34:81:26:6e:4f:ff:f4:
                    9e:ae:fe:fa:b8:3c:c1:be:67:ec:50:b1:49:7a:47:
                    7d:22:b9:03:78:c0:dc:17:35:da:48:0c:d5:98:60:
                    e2:ca:4e:db:a7:ee:ce:d3:7b:60:53:fc:3a:3c:a3:
                    e5:09:9d:e5:d4:43:1e:5d:1b:74:1d:cd:29:de:3f:
                    5d:e3:11:60:4c:fd:c8:fd:77:76:6e:ff:26:2d:a6:
                    13:0d:60:ec:2b:62:a8:db:67:59:e8:ec:a6:4a:2e:
                    25:3e:2f:28:38:1d:98:8c:73:2b:d6:da:58:ef:ca:
                    71:a0:12:0f:1d:d1:fb:22:e5:e3:57:47:80:b5:19:
                    96:6c:f8:26:32:9c:d0:a0:3f:c8:c0:8b:52:e5:de:
                    37:10:91:f6:97:4c:6e:39:21:e4:b4:89:47:57:5a:
                    58:ac:e8:e2:18:86:ab:0c:13:0a:25:c7:4d:cb:e6:
                    12:08:9d:91:b7:2c:91:69:78:ea:18:c5:c4:d2:04:
                    b2:4f
                Exponent: 65537 (0x10001)
        X509v3 extensions:
            Netscape Cert Type: 
                SSL Server
            X509v3 Subject Key Identifier: 
                08:E8:70:3A:6F:68:12:FA:A7:EB:2E:D5:2F:CB:D4:56:F5:01:BB:C5
            X509v3 Authority Key Identifier: 
                keyid:02:88:18:65:DF:25:91:21:D4:0A:68:78:D6:38:A0:5F:8F:17:1E:D3
                DirName:/CN=OCSP_CATWO/ST=KA/C=IN/emailAddress=ocspcatwo@ocsptesting.com/O=CITRIX
                serial:95:45:0F:EB:FA:5E:01:F6

            Authority Information Access: 
                OCSP - URI:http://ashoke.ocsp_catwo.citrite.net/responderpath

    Signature Algorithm: sha1WithRSAEncryption
         6f:2e:29:7a:f5:0b:57:30:57:fb:f5:1c:47:54:51:49:35:da:
         88:22:ce:a4:8d:4d:6c:08:18:af:3f:03:71:df:7e:c1:a6:6e:
         77:f4:d3:38:d2:16:6f:12:ea:97:8f:e7:8a:4c:c3:2b:a6:d3:
         ea:41:6b:15:ad:74:1b:24:ad:8e:63:51:02:91:82:60:58:25:
         f2:6d:61:20:6d:b5:5c:f0:46:c1:68:51:35:bc:55:86:19:b5:
         a7:e4:d5:56:5c:6c:16:fc:cc:7d:a0:35:9f:21:db:41:73:a1:
         db:3c:fa:4f:e4:0b:08:fc:d8:7a:9b:e9:59:43:d6:dd:a5:9d:
         9d:db:82:1b:ed:93:ed:d3:c6:54:9e:06:69:38:8b:ca:9c:54:
         a6:85:b6:d1:4c:d5:7b:7a:3b:8a:ed:2d:88:64:57:aa:1c:84:
         ac:db:ab:79:90:55:98:fc:41:fe:b4:f9:2f:f3:57:9d:89:ee:
         a9:21:ee:ba:68:1d:9f:84:ac:3c:65:95:73:7e:70:20:8f:72:
         e8:41:97:81:31:38:e3:b6:a7:70:29:f9:77:a1:b6:89:b6:45:
         0b:d0:ae:11:f9:f7:c6:d4:a7:b1:6e:7f:4d:5b:9a:94:ce:2c:
         1c:f9:2a:a5:50:1a:7d:c4:98:d9:cd:b5:d5:a4:20:59:7d:2b:
         d3:46:ca:dd
-----BEGIN CERTIFICATE-----
MIIEhTCCA22gAwIBAgIGCgsMDQ5AMA0GCSqGSIb3DQEBBQUAMGoxEzARBgNVBAMU
Ck9DU1BfQ0FUV08xCzAJBgNVBAgTAktBMQswCQYDVQQGEwJJTjEoMCYGCSqGSIb3
DQEJARYZb2NzcGNhdHdvQG9jc3B0ZXN0aW5nLmNvbTEPMA0GA1UEChMGQ0lUUklY
MB4XDTE2MDYyODAwNTc1MFoXDTI2MDYyNjAwNTc1MFowdDELMAkGA1UECBMCS0Ex
CzAJBgNVBAYTAklOMR0wGwYDVQQDFBRvY3NwY2F0d29fMDM2X3NlcnZlcjEoMCYG
CSqGSIb3DQEJARYZb2NzcGNhdHdvXzAzNkB0ZXN0X2NhLmNvbTEPMA0GA1UEChMG
Q0lUUklYMIIBIjANBgkqhkiG9w0BAQEFAAOCAQ8AMIIBCgKCAQEA8eZ88bGXG7rb
+PilBv2KOT9RWurfvXZG71wwEi5zfx9Y/bMx7TPDwSuclZLVqa9wD+FA8GfTLz3K
z0K9HoT8XTV0wTSBJm5P//Serv76uDzBvmfsULFJekd9IrkDeMDcFzXaSAzVmGDi
yk7bp+7O03tgU/w6PKPlCZ3l1EMeXRt0Hc0p3j9d4xFgTP3I/Xd2bv8mLaYTDWDs
K2Ko22dZ6OymSi4lPi8oOB2YjHMr1tpY78pxoBIPHdH7IuXjV0eAtRmWbPgmMpzQ
oD/IwItS5d43EJH2l0xuOSHktIlHV1pYrOjiGIarDBMKJcdNy+YSCJ2RtyyRaXjq
GMXE0gSyTwIDAQABo4IBJTCCASEwEQYJYIZIAYb4QgEBBAQDAgZAMB0GA1UdDgQW
BBQI6HA6b2gS+qfrLtUvy9RW9QG7xTCBnAYDVR0jBIGUMIGRgBQCiBhl3yWRIdQK
aHjWOKBfjxce06FupGwwajETMBEGA1UEAxQKT0NTUF9DQVRXTzELMAkGA1UECBMC
S0ExCzAJBgNVBAYTAklOMSgwJgYJKoZIhvcNAQkBFhlvY3NwY2F0d29Ab2NzcHRl
c3RpbmcuY29tMQ8wDQYDVQQKEwZDSVRSSViCCQCVRQ/r+l4B9jBOBggrBgEFBQcB
AQRCMEAwPgYIKwYBBQUHMAGGMmh0dHA6Ly9hc2hva2Uub2NzcF9jYXR3by5jaXRy
aXRlLm5ldC9yZXNwb25kZXJwYXRoMA0GCSqGSIb3DQEBBQUAA4IBAQBvLil69QtX
MFf79RxHVFFJNdqIIs6kjU1sCBivPwNx337Bpm539NM40hZvEuqXj+eKTMMrptPq
QWsVrXQbJK2OY1ECkYJgWCXybWEgbbVc8EbBaFE1vFWGGbWn5NVWXGwW/Mx9oDWf
IdtBc6HbPPpP5AsI/Nh6m+lZQ9bdpZ2d24Ib7ZPt08ZUngZpOIvKnFSmhbbRTNV7
ejuK7S2IZFeqHISs26t5kFWY/EH+tPkv81edie6pIe66aB2fhKw8ZZVzfnAgj3Lo
QZeBMTjjtqdwKfl3obaJtkUL0K4R+ffG1Kexbn9NW5qUziwc+SqlUBp9xJjZzbXV
pCBZfSvTRsrd
-----END CERTIFICATE-----
