Certificate:
    Data:
        Version: 3 (0x2)
        Serial Number: 11042563100192 (0xa0b0c0d0e20)
    Signature Algorithm: sha1WithRSAEncryption
        Issuer: CN=OCSP_CATWO, ST=KA, C=IN/emailAddress=ocspcatwo@ocsptesting.com, O=CITRIX
        Validity
            Not Before: Jun 28 00:49:34 2016 GMT
            Not After : Jun 26 00:49:34 2026 GMT
        Subject: ST=KA, C=IN, CN=004_server/emailAddress=004@test_ca.com, O=CITRIX
        Subject Public Key Info:
            Public Key Algorithm: rsaEncryption
                Public-Key: (2048 bit)
                Modulus:
                    00:a4:4f:cf:34:27:b2:bf:be:86:c1:50:cf:a9:5c:
                    90:e9:f4:1d:fd:1e:1b:ef:2f:4c:0b:7d:41:4e:8c:
                    4c:ae:ae:68:06:01:52:bc:34:1f:5b:21:ca:69:75:
                    ba:cb:ce:70:47:18:13:dd:3b:f7:d9:a7:e1:48:85:
                    bf:87:bc:d4:3b:c9:e3:74:e7:26:d4:36:93:4d:68:
                    8e:91:b0:71:92:ec:79:c0:ec:d8:97:14:4e:04:23:
                    34:d4:ac:6d:a5:0b:af:4c:c2:59:5b:71:c7:6b:3a:
                    c7:2f:57:74:c0:c5:6e:b9:e1:34:e2:9d:e1:38:bd:
                    ab:29:30:11:91:c3:a9:4e:18:00:5c:09:02:3c:b5:
                    ef:cd:64:4e:64:33:5d:cc:7b:1c:77:b7:88:5c:77:
                    7a:fa:4e:ed:4d:bb:4b:a0:2b:07:c2:de:2a:64:6b:
                    7d:04:8f:d2:0c:03:80:4c:a5:a4:3b:b5:08:99:d4:
                    1f:ef:29:42:33:8d:3e:a8:2d:8e:c2:6f:35:1a:a3:
                    3a:76:5a:2a:1d:da:34:dd:9a:2d:31:8c:56:75:5c:
                    c2:42:31:f6:94:f9:e1:72:d8:29:32:fc:58:38:c1:
                    de:f6:a5:d4:b1:83:37:fd:9e:2f:12:4c:0a:bd:36:
                    a4:b7:1e:35:5f:02:b5:15:97:6a:aa:bd:16:c7:29:
                    71:9f
                Exponent: 65537 (0x10001)
        X509v3 extensions:
            Netscape Cert Type: 
                SSL Server
            X509v3 Subject Key Identifier: 
                B2:A2:49:F7:A5:64:E7:3D:67:CE:D3:12:C3:EE:F4:DD:10:BC:52:29
            X509v3 Authority Key Identifier: 
                keyid:02:88:18:65:DF:25:91:21:D4:0A:68:78:D6:38:A0:5F:8F:17:1E:D3
                DirName:/CN=OCSP_CATWO/ST=KA/C=IN/emailAddress=ocspcatwo@ocsptesting.com/O=CITRIX
                serial:95:45:0F:EB:FA:5E:01:F6

            Authority Information Access: 
                OCSP - URI:http://172.18.10.21/responderpath

    Signature Algorithm: sha1WithRSAEncryption
         65:e0:84:5c:87:9e:fe:e4:84:31:c5:17:e0:a3:35:07:c9:f8:
         40:7d:23:8e:0c:34:7a:da:b9:70:20:aa:37:2b:b2:53:cf:53:
         bb:d6:ec:8e:dd:b1:96:bf:b4:3c:1f:3d:f9:28:bc:e6:b8:04:
         19:8b:1e:87:08:6d:6c:1f:ab:e9:ca:9a:d0:f7:b3:ce:48:9e:
         2a:3c:9d:f1:ec:fb:21:be:be:25:e1:f8:78:17:f2:cb:96:35:
         30:33:f9:79:c8:40:f6:a7:39:8a:a3:bd:8e:f7:17:1d:eb:0d:
         e7:c3:95:e9:69:db:9d:aa:ad:9c:f7:79:69:ac:d4:04:9d:0d:
         a0:e7:20:cb:82:b9:c7:65:d2:6d:a9:da:10:33:1a:8c:c7:71:
         55:a4:7c:a7:41:9c:67:19:e0:b0:2e:1c:44:a8:c5:2d:d2:2f:
         fb:dc:09:93:59:15:86:db:88:87:c7:2c:ff:96:09:bb:fd:d3:
         47:25:36:e2:0f:33:82:0d:87:6f:98:1f:52:06:23:34:95:c1:
         a7:fd:8c:ce:b9:54:c8:94:05:e3:c9:f1:f3:ce:ed:67:1e:69:
         97:c8:42:2f:11:eb:5a:72:8a:05:ff:e0:ee:fb:3a:ce:e8:50:
         fb:be:45:1c:aa:71:52:d6:cd:ed:99:e7:d2:59:6b:6c:eb:14:
         7d:16:28:d2
-----BEGIN CERTIFICATE-----
MIIEYDCCA0igAwIBAgIGCgsMDQ4gMA0GCSqGSIb3DQEBBQUAMGoxEzARBgNVBAMU
Ck9DU1BfQ0FUV08xCzAJBgNVBAgTAktBMQswCQYDVQQGEwJJTjEoMCYGCSqGSIb3
DQEJARYZb2NzcGNhdHdvQG9jc3B0ZXN0aW5nLmNvbTEPMA0GA1UEChMGQ0lUUklY
MB4XDTE2MDYyODAwNDkzNFoXDTI2MDYyNjAwNDkzNFowYDELMAkGA1UECBMCS0Ex
CzAJBgNVBAYTAklOMRMwEQYDVQQDFAowMDRfc2VydmVyMR4wHAYJKoZIhvcNAQkB
Fg8wMDRAdGVzdF9jYS5jb20xDzANBgNVBAoTBkNJVFJJWDCCASIwDQYJKoZIhvcN
AQEBBQADggEPADCCAQoCggEBAKRPzzQnsr++hsFQz6lckOn0Hf0eG+8vTAt9QU6M
TK6uaAYBUrw0H1shyml1usvOcEcYE90799mn4UiFv4e81DvJ43TnJtQ2k01ojpGw
cZLsecDs2JcUTgQjNNSsbaULr0zCWVtxx2s6xy9XdMDFbrnhNOKd4Ti9qykwEZHD
qU4YAFwJAjy1781kTmQzXcx7HHe3iFx3evpO7U27S6ArB8LeKmRrfQSP0gwDgEyl
pDu1CJnUH+8pQjONPqgtjsJvNRqjOnZaKh3aNN2aLTGMVnVcwkIx9pT54XLYKTL8
WDjB3val1LGDN/2eLxJMCr02pLceNV8CtRWXaqq9FscpcZ8CAwEAAaOCARQwggEQ
MBEGCWCGSAGG+EIBAQQEAwIGQDAdBgNVHQ4EFgQUsqJJ96Vk5z1nztMSw+703RC8
UikwgZwGA1UdIwSBlDCBkYAUAogYZd8lkSHUCmh41jigX48XHtOhbqRsMGoxEzAR
BgNVBAMUCk9DU1BfQ0FUV08xCzAJBgNVBAgTAktBMQswCQYDVQQGEwJJTjEoMCYG
CSqGSIb3DQEJARYZb2NzcGNhdHdvQG9jc3B0ZXN0aW5nLmNvbTEPMA0GA1UEChMG
Q0lUUklYggkAlUUP6/peAfYwPQYIKwYBBQUHAQEEMTAvMC0GCCsGAQUFBzABhiFo
dHRwOi8vMTcyLjE4LjEwLjIxL3Jlc3BvbmRlcnBhdGgwDQYJKoZIhvcNAQEFBQAD
ggEBAGXghFyHnv7khDHFF+CjNQfJ+EB9I44MNHrauXAgqjcrslPPU7vW7I7dsZa/
tDwfPfkovOa4BBmLHocIbWwfq+nKmtD3s85Inio8nfHs+yG+viXh+HgX8suWNTAz
+XnIQPanOYqjvY73Fx3rDefDlelp252qrZz3eWms1ASdDaDnIMuCucdl0m2p2hAz
GozHcVWkfKdBnGcZ4LAuHESoxS3SL/vcCZNZFYbbiIfHLP+WCbv900clNuIPM4IN
h2+YH1IGIzSVwaf9jM65VMiUBePJ8fPO7WceaZfIQi8R61pyigX/4O77Os7oUPu+
RRyqcVLWze2Z59JZa2zrFH0WKNI=
-----END CERTIFICATE-----
