Certificate:
    Data:
        Version: 3 (0x2)
        Serial Number: 11042563100235 (0xa0b0c0d0e4b)
    Signature Algorithm: sha1WithRSAEncryption
        Issuer: CN=OCSP_CATWO, ST=KA, C=IN/emailAddress=ocspcatwo@ocsptesting.com, O=CITRIX
        Validity
            Not Before: Jun 28 00:59:54 2016 GMT
            Not After : Jun 26 00:59:54 2026 GMT
        Subject: ST=KA, C=IN, CN=ocspcatwo_047_server/emailAddress=ocspcatwo_047@test_ca.com, O=CITRIX
        Subject Public Key Info:
            Public Key Algorithm: rsaEncryption
                Public-Key: (2048 bit)
                Modulus:
                    00:c7:26:d8:b5:ff:e9:fb:fc:b1:90:75:b1:fb:91:
                    8b:b2:0a:5a:b5:6f:1c:0d:30:cc:e7:88:5c:c7:68:
                    ea:24:d1:f9:42:45:21:58:d9:f3:cf:a7:99:80:d1:
                    1e:57:ae:15:0e:1e:7a:22:e7:16:40:9f:60:73:1f:
                    65:ad:15:c3:a2:c1:de:d8:08:89:ed:fc:2e:c0:e8:
                    d4:df:88:79:cc:3f:7c:f9:91:d1:1d:24:3e:08:d2:
                    d6:99:50:35:71:d8:fd:41:f4:15:40:f2:fc:2f:ed:
                    3f:00:a7:f9:77:37:f7:33:8b:b5:de:6c:59:98:0e:
                    1c:92:b7:20:be:16:37:1d:ca:18:f0:be:2b:ce:3e:
                    89:2b:02:6e:da:dc:80:fb:cb:84:4c:d9:9c:6b:ee:
                    10:c7:cf:46:3a:1e:d7:ff:0a:6f:20:af:86:c1:07:
                    3d:a1:d3:ac:6d:45:c8:4e:16:b1:0d:b1:91:e7:31:
                    f9:db:67:e5:a2:df:1a:cb:c8:5e:e4:22:b4:2f:b6:
                    84:fb:4a:e6:dd:06:37:a7:cb:ca:39:e1:6d:af:28:
                    ca:c7:a2:f7:fd:3d:a9:a2:4d:d7:1c:c8:43:55:be:
                    90:52:92:03:7e:35:0a:bf:d7:80:9e:87:7b:47:a7:
                    22:1e:14:2a:3b:a7:c3:79:28:d7:c7:71:d2:37:2a:
                    e5:81
                Exponent: 65537 (0x10001)
        X509v3 extensions:
            Netscape Cert Type: 
                SSL Server
            X509v3 Subject Key Identifier: 
                90:45:DD:B2:42:DA:D9:B0:41:BA:36:5F:C4:89:9A:28:83:96:7B:02
            X509v3 Authority Key Identifier: 
                keyid:02:88:18:65:DF:25:91:21:D4:0A:68:78:D6:38:A0:5F:8F:17:1E:D3
                DirName:/CN=OCSP_CATWO/ST=KA/C=IN/emailAddress=ocspcatwo@ocsptesting.com/O=CITRIX
                serial:95:45:0F:EB:FA:5E:01:F6

            Authority Information Access: 
                OCSP - URI:http://ashoke2.ocsp_catwo.citrite.net/responderpath

    Signature Algorithm: sha1WithRSAEncryption
         a9:eb:bd:38:76:aa:b8:ba:99:52:c9:e0:7e:af:dc:2f:9e:57:
         a6:d5:df:81:56:ed:06:d6:c8:40:af:a5:e8:16:a7:42:52:6e:
         53:37:19:29:96:16:30:fd:d0:10:9e:ed:dc:9f:4f:fb:a3:d5:
         5b:4d:3c:2f:3a:7e:8f:3d:7c:7b:85:16:7c:31:ae:00:41:b9:
         63:75:14:ee:a7:09:3d:5d:cf:ce:c3:d8:cf:ee:ae:37:89:68:
         83:6d:25:6f:ee:97:fb:f6:85:34:e3:89:85:27:57:33:ad:71:
         03:ce:04:2d:0c:2d:a6:8c:96:15:37:08:02:f9:c9:11:bb:34:
         af:fc:50:3e:ab:aa:95:83:3f:84:0d:da:6e:f2:37:60:41:b5:
         34:29:f0:7a:a9:10:70:71:68:a6:e4:47:a1:b8:aa:1d:15:af:
         2e:72:d9:fe:06:91:4d:ec:40:60:d6:f4:07:b3:86:9d:00:95:
         66:eb:98:5c:8a:f5:3d:c8:1e:cc:09:02:80:31:92:b2:1e:88:
         2e:f2:50:12:23:17:8b:38:73:d5:33:66:8b:26:f0:e9:29:db:
         69:ef:d8:bd:04:60:15:1f:d6:2f:31:57:db:4c:fc:9d:d3:ee:
         1a:23:d3:23:b0:94:58:db:64:d7:fd:2d:2a:8c:a0:7d:4f:8c:
         9a:f8:65:7e
-----BEGIN CERTIFICATE-----
MIIEhjCCA26gAwIBAgIGCgsMDQ5LMA0GCSqGSIb3DQEBBQUAMGoxEzARBgNVBAMU
Ck9DU1BfQ0FUV08xCzAJBgNVBAgTAktBMQswCQYDVQQGEwJJTjEoMCYGCSqGSIb3
DQEJARYZb2NzcGNhdHdvQG9jc3B0ZXN0aW5nLmNvbTEPMA0GA1UEChMGQ0lUUklY
MB4XDTE2MDYyODAwNTk1NFoXDTI2MDYyNjAwNTk1NFowdDELMAkGA1UECBMCS0Ex
CzAJBgNVBAYTAklOMR0wGwYDVQQDFBRvY3NwY2F0d29fMDQ3X3NlcnZlcjEoMCYG
CSqGSIb3DQEJARYZb2NzcGNhdHdvXzA0N0B0ZXN0X2NhLmNvbTEPMA0GA1UEChMG
Q0lUUklYMIIBIjANBgkqhkiG9w0BAQEFAAOCAQ8AMIIBCgKCAQEAxybYtf/p+/yx
kHWx+5GLsgpatW8cDTDM54hcx2jqJNH5QkUhWNnzz6eZgNEeV64VDh56IucWQJ9g
cx9lrRXDosHe2AiJ7fwuwOjU34h5zD98+ZHRHSQ+CNLWmVA1cdj9QfQVQPL8L+0/
AKf5dzf3M4u13mxZmA4ckrcgvhY3HcoY8L4rzj6JKwJu2tyA+8uETNmca+4Qx89G
Oh7X/wpvIK+GwQc9odOsbUXIThaxDbGR5zH522flot8ay8he5CK0L7aE+0rm3QY3
p8vKOeFtryjKx6L3/T2pok3XHMhDVb6QUpIDfjUKv9eAnod7R6ciHhQqO6fDeSjX
x3HSNyrlgQIDAQABo4IBJjCCASIwEQYJYIZIAYb4QgEBBAQDAgZAMB0GA1UdDgQW
BBSQRd2yQtrZsEG6Nl/EiZoog5Z7AjCBnAYDVR0jBIGUMIGRgBQCiBhl3yWRIdQK
aHjWOKBfjxce06FupGwwajETMBEGA1UEAxQKT0NTUF9DQVRXTzELMAkGA1UECBMC
S0ExCzAJBgNVBAYTAklOMSgwJgYJKoZIhvcNAQkBFhlvY3NwY2F0d29Ab2NzcHRl
c3RpbmcuY29tMQ8wDQYDVQQKEwZDSVRSSViCCQCVRQ/r+l4B9jBPBggrBgEFBQcB
AQRDMEEwPwYIKwYBBQUHMAGGM2h0dHA6Ly9hc2hva2UyLm9jc3BfY2F0d28uY2l0
cml0ZS5uZXQvcmVzcG9uZGVycGF0aDANBgkqhkiG9w0BAQUFAAOCAQEAqeu9OHaq
uLqZUsngfq/cL55XptXfgVbtBtbIQK+l6BanQlJuUzcZKZYWMP3QEJ7t3J9P+6PV
W008Lzp+jz18e4UWfDGuAEG5Y3UU7qcJPV3PzsPYz+6uN4log20lb+6X+/aFNOOJ
hSdXM61xA84ELQwtpoyWFTcIAvnJEbs0r/xQPquqlYM/hA3abvI3YEG1NCnweqkQ
cHFopuRHobiqHRWvLnLZ/gaRTexAYNb0B7OGnQCVZuuYXIr1PcgezAkCgDGSsh6I
LvJQEiMXizhz1TNmiybw6Snbae/YvQRgFR/WLzFX20z8ndPuGiPTI7CUWNtk1/0t
KoygfU+Mmvhlfg==
-----END CERTIFICATE-----
