Certificate:
    Data:
        Version: 3 (0x2)
        Serial Number: 11042563100202 (0xa0b0c0d0e2a)
    Signature Algorithm: sha1WithRSAEncryption
        Issuer: CN=OCSP_CATWO, ST=KA, C=IN/emailAddress=ocspcatwo@ocsptesting.com, O=CITRIX
        Validity
            Not Before: Jun 28 00:49:56 2016 GMT
            Not After : Jun 26 00:49:56 2026 GMT
        Subject: ST=KA, C=IN, CN=014_server/emailAddress=014@test_ca.com, O=CITRIX
        Subject Public Key Info:
            Public Key Algorithm: rsaEncryption
                Public-Key: (2048 bit)
                Modulus:
                    00:ce:6e:d7:51:51:84:b2:6d:b3:f9:4d:b6:8a:69:
                    5e:4e:fd:14:8a:84:16:45:c1:98:3f:31:ec:62:76:
                    be:16:32:73:e4:67:58:6d:10:52:2c:d0:ea:7a:0e:
                    53:f1:d0:67:c1:36:cd:e7:d4:91:11:bf:1a:0c:b5:
                    3e:40:b3:e0:84:53:e6:6b:d8:d0:3f:9f:ff:5b:49:
                    bd:75:0d:ce:82:02:3e:f4:c9:e3:66:b1:c2:39:d5:
                    16:6e:43:23:ac:37:0a:02:48:cc:3d:ef:5d:07:53:
                    f6:f1:ef:3c:04:13:58:34:77:c3:c5:b0:f3:86:e8:
                    77:81:55:70:3b:53:d2:5c:9a:cd:d5:ed:58:14:66:
                    f9:e7:0d:74:fe:37:2f:35:e3:95:cb:01:cd:c2:63:
                    2a:f7:3d:f8:f8:85:93:7d:27:db:88:9e:28:48:26:
                    a3:a6:ba:cd:4f:27:08:1b:65:dd:42:3f:31:3a:64:
                    f1:16:70:d7:0a:e8:4e:7f:7e:83:ba:3f:b8:54:f5:
                    60:4d:67:64:a4:bc:39:b9:10:ee:de:34:d9:85:d6:
                    8a:57:94:6c:c6:07:e3:77:d4:f8:45:9b:63:86:9a:
                    ae:59:4c:a2:49:79:5f:e4:b4:74:d7:7c:33:19:74:
                    f5:9d:ab:2c:16:85:09:e6:91:96:82:5a:dc:4a:e6:
                    98:6d
                Exponent: 65537 (0x10001)
        X509v3 extensions:
            Netscape Cert Type: 
                SSL Server
            X509v3 Subject Key Identifier: 
                B8:5D:B6:ED:C9:B2:5A:B5:F9:B7:F9:1B:4D:6A:68:FA:47:25:F6:DB
            X509v3 Authority Key Identifier: 
                keyid:02:88:18:65:DF:25:91:21:D4:0A:68:78:D6:38:A0:5F:8F:17:1E:D3
                DirName:/CN=OCSP_CATWO/ST=KA/C=IN/emailAddress=ocspcatwo@ocsptesting.com/O=CITRIX
                serial:95:45:0F:EB:FA:5E:01:F6

            Authority Information Access: 
                OCSP - URI:http://172.18.10.21/responderpath

    Signature Algorithm: sha1WithRSAEncryption
         b8:56:8d:65:d2:6a:b5:fb:63:4a:64:77:a0:ea:04:f8:50:cc:
         2f:93:45:00:c1:38:26:17:ae:80:db:8f:66:1c:fe:44:1b:99:
         0c:5c:7b:54:79:1e:4e:86:1b:02:f7:d5:fd:c4:85:94:c9:fe:
         c6:fe:b4:6d:4a:7b:e2:18:74:9b:f8:f7:77:c5:02:12:58:88:
         92:01:94:6f:b5:44:13:a2:91:55:d1:a1:aa:04:0e:dd:3e:b8:
         f9:b4:e1:14:e1:ef:50:75:32:12:20:4c:42:9f:c0:a0:5d:01:
         a8:64:a8:cb:d9:90:5a:05:b5:48:8a:d8:45:04:6c:7d:f3:e0:
         53:15:07:e9:9a:a4:e2:2f:85:dd:0b:34:7c:e5:f6:d4:ae:fc:
         6f:25:fc:ba:d2:b3:9c:83:33:7f:12:79:0e:fc:ff:88:40:fe:
         5c:24:00:b0:ab:f2:eb:af:6a:d0:b0:5a:25:bc:8c:5a:6c:2a:
         bc:84:0b:e2:9c:77:3d:2a:2e:15:7d:ac:46:54:fe:25:ba:81:
         4e:03:a5:f8:0f:ac:4c:13:17:5d:bc:e9:63:7a:87:a1:3f:8a:
         c5:10:62:54:f8:91:e8:20:21:74:ad:b8:ca:9a:c2:98:79:1d:
         5d:f2:a3:04:c0:1a:a6:48:5c:cc:b8:da:de:25:a2:ce:5e:4d:
         4f:4d:fa:d5
-----BEGIN CERTIFICATE-----
MIIEYDCCA0igAwIBAgIGCgsMDQ4qMA0GCSqGSIb3DQEBBQUAMGoxEzARBgNVBAMU
Ck9DU1BfQ0FUV08xCzAJBgNVBAgTAktBMQswCQYDVQQGEwJJTjEoMCYGCSqGSIb3
DQEJARYZb2NzcGNhdHdvQG9jc3B0ZXN0aW5nLmNvbTEPMA0GA1UEChMGQ0lUUklY
MB4XDTE2MDYyODAwNDk1NloXDTI2MDYyNjAwNDk1NlowYDELMAkGA1UECBMCS0Ex
CzAJBgNVBAYTAklOMRMwEQYDVQQDFAowMTRfc2VydmVyMR4wHAYJKoZIhvcNAQkB
Fg8wMTRAdGVzdF9jYS5jb20xDzANBgNVBAoTBkNJVFJJWDCCASIwDQYJKoZIhvcN
AQEBBQADggEPADCCAQoCggEBAM5u11FRhLJts/lNtoppXk79FIqEFkXBmD8x7GJ2
vhYyc+RnWG0QUizQ6noOU/HQZ8E2zefUkRG/Ggy1PkCz4IRT5mvY0D+f/1tJvXUN
zoICPvTJ42axwjnVFm5DI6w3CgJIzD3vXQdT9vHvPAQTWDR3w8Ww84bod4FVcDtT
0lyazdXtWBRm+ecNdP43LzXjlcsBzcJjKvc9+PiFk30n24ieKEgmo6a6zU8nCBtl
3UI/MTpk8RZw1wroTn9+g7o/uFT1YE1nZKS8ObkQ7t402YXWileUbMYH43fU+EWb
Y4aarllMokl5X+S0dNd8Mxl09Z2rLBaFCeaRloJa3ErmmG0CAwEAAaOCARQwggEQ
MBEGCWCGSAGG+EIBAQQEAwIGQDAdBgNVHQ4EFgQUuF227cmyWrX5t/kbTWpo+kcl
9tswgZwGA1UdIwSBlDCBkYAUAogYZd8lkSHUCmh41jigX48XHtOhbqRsMGoxEzAR
BgNVBAMUCk9DU1BfQ0FUV08xCzAJBgNVBAgTAktBMQswCQYDVQQGEwJJTjEoMCYG
CSqGSIb3DQEJARYZb2NzcGNhdHdvQG9jc3B0ZXN0aW5nLmNvbTEPMA0GA1UEChMG
Q0lUUklYggkAlUUP6/peAfYwPQYIKwYBBQUHAQEEMTAvMC0GCCsGAQUFBzABhiFo
dHRwOi8vMTcyLjE4LjEwLjIxL3Jlc3BvbmRlcnBhdGgwDQYJKoZIhvcNAQEFBQAD
ggEBALhWjWXSarX7Y0pkd6DqBPhQzC+TRQDBOCYXroDbj2Yc/kQbmQxce1R5Hk6G
GwL31f3EhZTJ/sb+tG1Ke+IYdJv493fFAhJYiJIBlG+1RBOikVXRoaoEDt0+uPm0
4RTh71B1MhIgTEKfwKBdAahkqMvZkFoFtUiK2EUEbH3z4FMVB+mapOIvhd0LNHzl
9tSu/G8l/LrSs5yDM38SeQ78/4hA/lwkALCr8uuvatCwWiW8jFpsKryEC+Kcdz0q
LhV9rEZU/iW6gU4DpfgPrEwTF1286WN6h6E/isUQYlT4keggIXStuMqawph5HV3y
owTAGqZIXMy42t4los5eTU9N+tU=
-----END CERTIFICATE-----
