Certificate:
    Data:
        Version: 3 (0x2)
        Serial Number: 11042563100201 (0xa0b0c0d0e29)
    Signature Algorithm: sha1WithRSAEncryption
        Issuer: CN=OCSP_CATWO, ST=KA, C=IN/emailAddress=ocspcatwo@ocsptesting.com, O=CITRIX
        Validity
            Not Before: Jun 28 00:49:54 2016 GMT
            Not After : Jun 26 00:49:54 2026 GMT
        Subject: ST=KA, C=IN, CN=013_server/emailAddress=013@test_ca.com, O=CITRIX
        Subject Public Key Info:
            Public Key Algorithm: rsaEncryption
                Public-Key: (2048 bit)
                Modulus:
                    00:e1:23:4e:1b:7f:28:17:be:af:02:ee:c4:a8:4a:
                    a2:95:13:3d:b7:d3:83:ac:b0:56:46:cc:d6:8c:87:
                    0f:ae:48:94:f8:ed:7c:2b:ec:c0:ea:87:de:e4:42:
                    17:59:bd:15:c2:0e:fa:09:82:c6:2c:b5:c7:27:a3:
                    97:be:2f:2d:a4:d9:5b:21:06:14:5b:be:71:50:e6:
                    2d:57:3a:22:46:90:c5:9a:0e:13:d6:33:f1:97:d5:
                    f4:ed:80:c1:50:33:44:38:a5:ff:1f:ce:72:bd:69:
                    3d:18:00:31:71:16:00:78:e5:59:c8:e4:2f:1c:cc:
                    11:7b:7d:23:f4:99:25:ca:12:81:4f:1a:e1:72:62:
                    40:1e:a1:4d:e2:4c:b6:10:88:78:7f:d2:a8:6b:70:
                    45:27:c8:a0:d9:6d:93:a3:b1:30:a5:31:77:eb:8d:
                    c6:3c:41:d0:9d:b9:a3:03:ce:bd:6b:a3:8c:8f:0d:
                    69:07:d9:20:b4:9d:99:c0:b6:03:5f:6f:ed:89:70:
                    fb:e4:19:a9:20:a2:56:4f:3b:e3:1a:b8:b9:45:2f:
                    49:64:24:e4:1c:22:b0:ef:21:c7:15:3b:e2:e1:99:
                    51:1f:c3:83:25:b4:a8:95:93:73:65:48:a0:22:6f:
                    0c:f2:d2:e2:a1:02:5c:b1:5f:73:e7:62:a6:06:23:
                    d4:45
                Exponent: 65537 (0x10001)
        X509v3 extensions:
            Netscape Cert Type: 
                SSL Server
            X509v3 Subject Key Identifier: 
                47:0B:61:96:B3:1C:5B:A3:1F:82:F8:EA:A0:1B:52:4D:FB:97:AC:8C
            X509v3 Authority Key Identifier: 
                keyid:02:88:18:65:DF:25:91:21:D4:0A:68:78:D6:38:A0:5F:8F:17:1E:D3
                DirName:/CN=OCSP_CATWO/ST=KA/C=IN/emailAddress=ocspcatwo@ocsptesting.com/O=CITRIX
                serial:95:45:0F:EB:FA:5E:01:F6

            Authority Information Access: 
                OCSP - URI:http://172.18.10.21/responderpath

    Signature Algorithm: sha1WithRSAEncryption
         19:59:b7:dd:78:6f:73:0b:9b:9f:6e:69:b1:84:34:db:88:33:
         76:2a:a3:cb:1a:3b:d1:b8:85:95:d7:a9:a3:32:9e:19:5a:b3:
         64:e9:48:ee:4d:e5:a9:b0:80:f2:bc:3f:04:7f:bc:cf:01:9e:
         e9:08:4f:0b:a7:01:ea:e0:49:4b:5b:2f:e8:98:40:8d:48:c3:
         3d:71:a7:ef:ef:d2:13:f1:6f:34:bf:96:97:3f:58:11:88:b8:
         17:c0:d1:dd:87:c2:f0:53:98:a0:af:55:ea:c0:16:6b:7b:57:
         bc:b4:df:ee:2a:47:99:b9:72:6b:a8:1c:81:4c:2e:c4:e9:52:
         4f:b2:e7:a7:ee:5d:4e:4f:5f:b1:b5:81:52:f4:43:54:15:11:
         ec:b6:f9:32:58:9d:c3:3e:21:ca:66:ae:d7:26:42:aa:c1:07:
         9a:90:38:25:82:a4:2d:38:1a:d5:10:1f:6e:ce:6f:29:9f:08:
         f1:c4:36:f3:f0:94:f6:6c:3d:e3:91:96:94:eb:b6:34:ba:26:
         57:6d:74:a8:cd:80:e6:17:03:48:39:5b:c6:3e:6b:3e:7a:64:
         e2:bc:52:70:c1:61:a6:d1:cf:4c:80:4d:2d:c7:a2:0e:ea:35:
         bf:3a:9c:63:0d:62:23:08:10:cf:f3:f0:c2:9e:ac:1c:a3:fd:
         17:a4:9d:c9
-----BEGIN CERTIFICATE-----
MIIEYDCCA0igAwIBAgIGCgsMDQ4pMA0GCSqGSIb3DQEBBQUAMGoxEzARBgNVBAMU
Ck9DU1BfQ0FUV08xCzAJBgNVBAgTAktBMQswCQYDVQQGEwJJTjEoMCYGCSqGSIb3
DQEJARYZb2NzcGNhdHdvQG9jc3B0ZXN0aW5nLmNvbTEPMA0GA1UEChMGQ0lUUklY
MB4XDTE2MDYyODAwNDk1NFoXDTI2MDYyNjAwNDk1NFowYDELMAkGA1UECBMCS0Ex
CzAJBgNVBAYTAklOMRMwEQYDVQQDFAowMTNfc2VydmVyMR4wHAYJKoZIhvcNAQkB
Fg8wMTNAdGVzdF9jYS5jb20xDzANBgNVBAoTBkNJVFJJWDCCASIwDQYJKoZIhvcN
AQEBBQADggEPADCCAQoCggEBAOEjTht/KBe+rwLuxKhKopUTPbfTg6ywVkbM1oyH
D65IlPjtfCvswOqH3uRCF1m9FcIO+gmCxiy1xyejl74vLaTZWyEGFFu+cVDmLVc6
IkaQxZoOE9Yz8ZfV9O2AwVAzRDil/x/Ocr1pPRgAMXEWAHjlWcjkLxzMEXt9I/SZ
JcoSgU8a4XJiQB6hTeJMthCIeH/SqGtwRSfIoNltk6OxMKUxd+uNxjxB0J25owPO
vWujjI8NaQfZILSdmcC2A19v7Ylw++QZqSCiVk874xq4uUUvSWQk5BwisO8hxxU7
4uGZUR/DgyW0qJWTc2VIoCJvDPLS4qECXLFfc+dipgYj1EUCAwEAAaOCARQwggEQ
MBEGCWCGSAGG+EIBAQQEAwIGQDAdBgNVHQ4EFgQURwthlrMcW6MfgvjqoBtSTfuX
rIwwgZwGA1UdIwSBlDCBkYAUAogYZd8lkSHUCmh41jigX48XHtOhbqRsMGoxEzAR
BgNVBAMUCk9DU1BfQ0FUV08xCzAJBgNVBAgTAktBMQswCQYDVQQGEwJJTjEoMCYG
CSqGSIb3DQEJARYZb2NzcGNhdHdvQG9jc3B0ZXN0aW5nLmNvbTEPMA0GA1UEChMG
Q0lUUklYggkAlUUP6/peAfYwPQYIKwYBBQUHAQEEMTAvMC0GCCsGAQUFBzABhiFo
dHRwOi8vMTcyLjE4LjEwLjIxL3Jlc3BvbmRlcnBhdGgwDQYJKoZIhvcNAQEFBQAD
ggEBABlZt914b3MLm59uabGENNuIM3Yqo8saO9G4hZXXqaMynhlas2TpSO5N5amw
gPK8PwR/vM8BnukITwunAergSUtbL+iYQI1Iwz1xp+/v0hPxbzS/lpc/WBGIuBfA
0d2HwvBTmKCvVerAFmt7V7y03+4qR5m5cmuoHIFMLsTpUk+y56fuXU5PX7G1gVL0
Q1QVEey2+TJYncM+IcpmrtcmQqrBB5qQOCWCpC04GtUQH27ObymfCPHENvPwlPZs
PeORlpTrtjS6JldtdKjNgOYXA0g5W8Y+az56ZOK8UnDBYabRz0yATS3Hog7qNb86
nGMNYiMIEM/z8MKerByj/Reknck=
-----END CERTIFICATE-----
