Certificate:
    Data:
        Version: 3 (0x2)
        Serial Number: 11042563100237 (0xa0b0c0d0e4d)
    Signature Algorithm: sha1WithRSAEncryption
        Issuer: CN=OCSP_CATWO, ST=KA, C=IN/emailAddress=ocspcatwo@ocsptesting.com, O=CITRIX
        Validity
            Not Before: Jun 28 01:00:04 2016 GMT
            Not After : Jun 26 01:00:04 2026 GMT
        Subject: ST=KA, C=IN, CN=ocspcatwo_049_server/emailAddress=ocspcatwo_049@test_ca.com, O=CITRIX
        Subject Public Key Info:
            Public Key Algorithm: rsaEncryption
                Public-Key: (2048 bit)
                Modulus:
                    00:ce:76:f9:32:7e:58:c6:10:0e:b2:b0:09:b1:de:
                    a6:59:7c:2a:6e:9a:4a:ac:a4:2e:ca:2a:17:85:c8:
                    3d:12:b1:20:fa:99:18:d1:36:32:bc:c2:12:52:3f:
                    e1:17:50:e5:b8:56:1c:d9:fd:2e:47:ed:08:75:71:
                    3b:7d:d5:fd:26:a6:c8:03:5c:5e:4f:6f:99:89:c8:
                    bf:9c:3a:60:fe:93:fc:5a:28:9a:3d:d5:c3:40:20:
                    f7:d6:00:34:34:45:9d:06:c0:86:b4:d8:29:a2:cf:
                    99:d7:20:1d:15:e4:6f:38:37:60:96:bf:70:d8:84:
                    c8:22:96:b8:86:aa:d1:63:5f:30:48:cd:8f:72:79:
                    da:ed:69:ce:47:69:e3:60:63:82:51:da:44:13:27:
                    7d:2e:36:48:4a:da:ea:2c:76:f6:2d:49:10:87:4a:
                    27:31:94:c9:ff:b2:a0:cc:dc:c3:1f:ab:d1:44:c2:
                    44:cc:90:4f:f0:3d:68:85:b4:a9:90:bf:93:6f:fc:
                    5f:4e:9c:07:05:e0:a0:73:18:15:ee:e3:fb:b7:37:
                    0a:7b:da:a6:de:fa:1a:7a:7f:b1:09:36:86:a6:19:
                    d3:6f:9c:8a:89:18:4a:01:63:7c:c7:86:22:af:c0:
                    6e:20:4b:5d:f7:a2:95:60:f0:13:2f:8a:51:b9:fe:
                    dc:85
                Exponent: 65537 (0x10001)
        X509v3 extensions:
            Netscape Cert Type: 
                SSL Server
            X509v3 Subject Key Identifier: 
                4C:0A:3E:12:84:92:8A:C7:86:91:EB:9B:DA:77:DD:2E:82:74:A6:D2
            X509v3 Authority Key Identifier: 
                keyid:02:88:18:65:DF:25:91:21:D4:0A:68:78:D6:38:A0:5F:8F:17:1E:D3
                DirName:/CN=OCSP_CATWO/ST=KA/C=IN/emailAddress=ocspcatwo@ocsptesting.com/O=CITRIX
                serial:95:45:0F:EB:FA:5E:01:F6

            Authority Information Access: 
                OCSP - URI:http://ashoke2.ocsp_catwo.citrite.net/responderpath

    Signature Algorithm: sha1WithRSAEncryption
         38:61:df:be:cb:0d:a0:35:1d:ca:34:28:f6:e3:d7:1f:9c:0d:
         b3:4c:be:d7:20:a5:ab:19:9a:f1:cc:f2:20:e1:dd:b6:c5:ed:
         f5:45:3a:0b:2e:c8:ff:ac:ba:75:5b:b4:60:35:43:73:04:d8:
         d7:6f:d3:59:13:2c:d7:9d:4f:3d:f9:15:1c:6b:05:15:47:5c:
         3b:c5:dc:bf:ea:80:ae:e0:c9:49:55:07:16:ae:3b:7d:aa:2b:
         9e:ef:4d:29:22:90:27:f4:e6:ba:9a:c2:01:a7:18:6b:ef:26:
         43:01:a5:fe:8e:09:2f:b2:71:10:0b:3f:e6:a7:1a:0e:66:c9:
         45:29:d1:85:1e:9e:dc:ab:3b:e1:b6:2c:b6:aa:68:60:bb:82:
         ef:0c:67:56:27:eb:42:64:49:c9:04:19:08:8a:02:40:43:85:
         76:f2:b0:40:b5:3a:9f:4b:53:be:e4:b3:1c:7c:35:db:63:9b:
         1a:34:33:8d:f5:5d:43:13:2f:70:f5:36:37:53:47:f1:f0:21:
         a5:48:1b:53:30:b0:73:f3:be:4d:82:fa:91:a3:0a:7f:3e:68:
         00:96:8f:8d:de:bb:22:48:f5:82:c2:55:23:af:2a:ec:19:4a:
         7d:1d:ea:e1:fe:42:fb:9f:fd:c8:78:bd:86:37:2f:2c:03:46:
         dc:0a:93:4e
-----BEGIN CERTIFICATE-----
MIIEhjCCA26gAwIBAgIGCgsMDQ5NMA0GCSqGSIb3DQEBBQUAMGoxEzARBgNVBAMU
Ck9DU1BfQ0FUV08xCzAJBgNVBAgTAktBMQswCQYDVQQGEwJJTjEoMCYGCSqGSIb3
DQEJARYZb2NzcGNhdHdvQG9jc3B0ZXN0aW5nLmNvbTEPMA0GA1UEChMGQ0lUUklY
MB4XDTE2MDYyODAxMDAwNFoXDTI2MDYyNjAxMDAwNFowdDELMAkGA1UECBMCS0Ex
CzAJBgNVBAYTAklOMR0wGwYDVQQDFBRvY3NwY2F0d29fMDQ5X3NlcnZlcjEoMCYG
CSqGSIb3DQEJARYZb2NzcGNhdHdvXzA0OUB0ZXN0X2NhLmNvbTEPMA0GA1UEChMG
Q0lUUklYMIIBIjANBgkqhkiG9w0BAQEFAAOCAQ8AMIIBCgKCAQEAznb5Mn5YxhAO
srAJsd6mWXwqbppKrKQuyioXhcg9ErEg+pkY0TYyvMISUj/hF1DluFYc2f0uR+0I
dXE7fdX9JqbIA1xeT2+Zici/nDpg/pP8WiiaPdXDQCD31gA0NEWdBsCGtNgpos+Z
1yAdFeRvODdglr9w2ITIIpa4hqrRY18wSM2Pcnna7WnOR2njYGOCUdpEEyd9LjZI
StrqLHb2LUkQh0onMZTJ/7KgzNzDH6vRRMJEzJBP8D1ohbSpkL+Tb/xfTpwHBeCg
cxgV7uP7tzcKe9qm3voaen+xCTaGphnTb5yKiRhKAWN8x4Yir8BuIEtd96KVYPAT
L4pRuf7chQIDAQABo4IBJjCCASIwEQYJYIZIAYb4QgEBBAQDAgZAMB0GA1UdDgQW
BBRMCj4ShJKKx4aR65vad90ugnSm0jCBnAYDVR0jBIGUMIGRgBQCiBhl3yWRIdQK
aHjWOKBfjxce06FupGwwajETMBEGA1UEAxQKT0NTUF9DQVRXTzELMAkGA1UECBMC
S0ExCzAJBgNVBAYTAklOMSgwJgYJKoZIhvcNAQkBFhlvY3NwY2F0d29Ab2NzcHRl
c3RpbmcuY29tMQ8wDQYDVQQKEwZDSVRSSViCCQCVRQ/r+l4B9jBPBggrBgEFBQcB
AQRDMEEwPwYIKwYBBQUHMAGGM2h0dHA6Ly9hc2hva2UyLm9jc3BfY2F0d28uY2l0
cml0ZS5uZXQvcmVzcG9uZGVycGF0aDANBgkqhkiG9w0BAQUFAAOCAQEAOGHfvssN
oDUdyjQo9uPXH5wNs0y+1yClqxma8czyIOHdtsXt9UU6Cy7I/6y6dVu0YDVDcwTY
12/TWRMs151PPfkVHGsFFUdcO8Xcv+qAruDJSVUHFq47faornu9NKSKQJ/TmuprC
AacYa+8mQwGl/o4JL7JxEAs/5qcaDmbJRSnRhR6e3Ks74bYstqpoYLuC7wxnVifr
QmRJyQQZCIoCQEOFdvKwQLU6n0tTvuSzHHw122ObGjQzjfVdQxMvcPU2N1NH8fAh
pUgbUzCwc/O+TYL6kaMKfz5oAJaPjd67Ikj1gsJVI68q7BlKfR3q4f5C+5/9yHi9
hjcvLANG3AqTTg==
-----END CERTIFICATE-----
