Certificate:
    Data:
        Version: 3 (0x2)
        Serial Number:
            0b:0c:0d:01:02:03:04:05:06:07:08:09:0f
    Signature Algorithm: sha1WithRSAEncryption
        Issuer: CN=OCSP_CATHREE, ST=KA, C=IN/emailAddress=ocspcathree@ocsptesting.com, O=CITRIX
        Validity
            Not Before: Jun 28 01:10:45 2016 GMT
            Not After : Jun 26 01:10:45 2026 GMT
        Subject: ST=KA, C=IN, CN=ocspcathree_006_server/emailAddress=ocspcathree_006@test_ca.com, O=CITRIX
        Subject Public Key Info:
            Public Key Algorithm: rsaEncryption
                Public-Key: (2048 bit)
                Modulus:
                    00:a7:1c:55:cb:ef:4e:0e:3f:50:4b:25:70:24:f2:
                    0a:90:78:ee:01:2b:c4:3d:27:6a:46:a6:d2:3d:87:
                    ab:b9:75:3b:15:ac:d1:0d:b6:cb:4c:1c:25:f0:f4:
                    b6:7b:a8:f7:cd:3f:fc:dd:9b:46:76:88:c2:09:67:
                    07:a8:75:5a:3a:8f:e1:5d:58:1e:6d:50:24:f4:e5:
                    72:db:f6:27:3d:c5:57:a7:60:84:1d:ed:69:65:f4:
                    4d:f0:33:9f:78:69:11:6e:45:e8:28:1d:d2:e7:16:
                    55:b2:d0:5a:f7:e5:dc:5a:db:0e:86:5d:f9:84:86:
                    e8:5c:1f:de:e0:17:07:a5:3b:b4:09:e4:f4:c7:67:
                    fb:cf:32:34:ef:33:d3:75:a7:6e:5f:80:08:dd:5a:
                    5d:0b:ce:ee:e1:d5:9a:8b:00:43:64:b4:20:a2:5e:
                    51:56:24:3d:41:e5:e1:dc:e2:75:fb:bc:67:fd:26:
                    59:f8:98:c3:61:a2:fb:a6:a9:51:ad:f3:c2:be:09:
                    1e:e9:7f:5e:aa:e3:86:a2:15:ef:2f:4f:fb:d7:60:
                    85:85:c0:e9:f8:dc:dd:33:3e:d1:6a:71:7e:46:7f:
                    8c:0f:fb:62:28:74:f4:79:82:db:90:27:4d:41:37:
                    a7:1e:64:7c:6e:78:b5:57:2f:81:cd:c8:14:37:23:
                    ae:7d
                Exponent: 65537 (0x10001)
        X509v3 extensions:
            Netscape Cert Type: 
                SSL Server
            X509v3 Subject Key Identifier: 
                A3:08:87:2B:65:FE:6A:EF:53:3C:90:68:4B:05:45:D1:D9:F9:69:0B
            X509v3 Authority Key Identifier: 
                keyid:96:54:A1:BC:07:1C:EF:D7:86:C2:A1:CD:13:A7:F6:9B:22:D8:59:81
                DirName:/CN=OCSP_CATHREE/ST=KA/C=IN/emailAddress=ocspcathree@ocsptesting.com/O=CITRIX
                serial:C1:1F:31:B0:75:6E:FF:4F

            Authority Information Access: 
                OCSP - URI:http://s6.ocsp_cathree.citrite.net/responderpath

    Signature Algorithm: sha1WithRSAEncryption
         5e:6c:bd:76:e7:d0:c6:7a:9f:e5:10:fb:ce:6b:25:42:67:68:
         3d:cc:28:5a:81:75:ae:6b:2e:6c:94:fb:d2:3f:4e:70:37:74:
         35:eb:64:99:39:23:b4:59:ed:3d:34:c7:ec:4b:7b:23:f1:1b:
         fd:c5:b8:15:7b:d9:e0:09:74:69:88:60:96:0d:96:a9:72:21:
         1e:e4:18:94:e5:d3:61:1d:8e:a3:74:e1:a2:e9:d1:fd:0c:4a:
         9e:b2:af:38:c6:54:e5:6c:72:56:4d:27:fa:c3:21:ad:34:47:
         4b:72:bc:88:25:f7:ad:2c:29:0a:0e:9f:f5:85:db:01:d4:35:
         aa:16:05:a7:fa:dd:3d:09:6d:73:52:04:0e:21:9f:d4:9a:60:
         27:7a:80:e0:97:78:c5:a0:85:91:f4:b8:f6:20:22:c9:b3:2b:
         bd:76:07:80:02:ca:1b:fb:5a:55:d7:f6:02:6d:f4:c5:73:a6:
         fa:21:a3:ba:87:e4:ff:f2:70:be:2d:d2:fd:c4:46:f7:cd:6f:
         8b:f8:c2:d0:f8:34:71:c7:85:cd:1b:0c:77:25:3a:e8:05:9b:
         d2:d5:3a:9b:68:89:9b:99:96:2d:33:f1:50:1c:bd:51:f6:7b:
         fb:90:c4:42:2d:72:9b:8d:f7:9d:96:c5:63:20:a8:ec:b4:92:
         59:b7:cb:f3
-----BEGIN CERTIFICATE-----
MIIEljCCA36gAwIBAgINCwwNAQIDBAUGBwgJDzANBgkqhkiG9w0BAQUFADBuMRUw
EwYDVQQDFAxPQ1NQX0NBVEhSRUUxCzAJBgNVBAgTAktBMQswCQYDVQQGEwJJTjEq
MCgGCSqGSIb3DQEJARYbb2NzcGNhdGhyZWVAb2NzcHRlc3RpbmcuY29tMQ8wDQYD
VQQKEwZDSVRSSVgwHhcNMTYwNjI4MDExMDQ1WhcNMjYwNjI2MDExMDQ1WjB4MQsw
CQYDVQQIEwJLQTELMAkGA1UEBhMCSU4xHzAdBgNVBAMUFm9jc3BjYXRocmVlXzAw
Nl9zZXJ2ZXIxKjAoBgkqhkiG9w0BCQEWG29jc3BjYXRocmVlXzAwNkB0ZXN0X2Nh
LmNvbTEPMA0GA1UEChMGQ0lUUklYMIIBIjANBgkqhkiG9w0BAQEFAAOCAQ8AMIIB
CgKCAQEApxxVy+9ODj9QSyVwJPIKkHjuASvEPSdqRqbSPYeruXU7FazRDbbLTBwl
8PS2e6j3zT/83ZtGdojCCWcHqHVaOo/hXVgebVAk9OVy2/YnPcVXp2CEHe1pZfRN
8DOfeGkRbkXoKB3S5xZVstBa9+XcWtsOhl35hIboXB/e4BcHpTu0CeT0x2f7zzI0
7zPTdaduX4AI3VpdC87u4dWaiwBDZLQgol5RViQ9QeXh3OJ1+7xn/SZZ+JjDYaL7
pqlRrfPCvgke6X9equOGohXvL0/712CFhcDp+NzdMz7RanF+Rn+MD/tiKHT0eYLb
kCdNQTenHmR8bni1Vy+BzcgUNyOufQIDAQABo4IBJzCCASMwEQYJYIZIAYb4QgEB
BAQDAgZAMB0GA1UdDgQWBBSjCIcrZf5q71M8kGhLBUXR2flpCzCBoAYDVR0jBIGY
MIGVgBSWVKG8Bxzv14bCoc0Tp/abIthZgaFypHAwbjEVMBMGA1UEAxQMT0NTUF9D
QVRIUkVFMQswCQYDVQQIEwJLQTELMAkGA1UEBhMCSU4xKjAoBgkqhkiG9w0BCQEW
G29jc3BjYXRocmVlQG9jc3B0ZXN0aW5nLmNvbTEPMA0GA1UEChMGQ0lUUklYggkA
wR8xsHVu/08wTAYIKwYBBQUHAQEEQDA+MDwGCCsGAQUFBzABhjBodHRwOi8vczYu
b2NzcF9jYXRocmVlLmNpdHJpdGUubmV0L3Jlc3BvbmRlcnBhdGgwDQYJKoZIhvcN
AQEFBQADggEBAF5svXbn0MZ6n+UQ+85rJUJnaD3MKFqBda5rLmyU+9I/TnA3dDXr
ZJk5I7RZ7T00x+xLeyPxG/3FuBV72eAJdGmIYJYNlqlyIR7kGJTl02EdjqN04aLp
0f0MSp6yrzjGVOVsclZNJ/rDIa00R0tyvIgl960sKQoOn/WF2wHUNaoWBaf63T0J
bXNSBA4hn9SaYCd6gOCXeMWghZH0uPYgIsmzK712B4ACyhv7WlXX9gJt9MVzpvoh
o7qH5P/ycL4t0v3ERvfNb4v4wtD4NHHHhc0bDHclOugFm9LVOptoiZuZli0z8VAc
vVH2e/uQxEItcpuN952WxWMgqOy0klm3y/M=
-----END CERTIFICATE-----
