Certificate:
    Data:
        Version: 3 (0x2)
        Serial Number: 11042563100214 (0xa0b0c0d0e36)
    Signature Algorithm: sha1WithRSAEncryption
        Issuer: CN=OCSP_CATWO, ST=KA, C=IN/emailAddress=ocspcatwo@ocsptesting.com, O=CITRIX
        Validity
            Not Before: Jun 28 00:50:39 2016 GMT
            Not After : Jun 26 00:50:39 2026 GMT
        Subject: ST=KA, C=IN, CN=026_server/emailAddress=026@test_ca.com, O=CITRIX
        Subject Public Key Info:
            Public Key Algorithm: rsaEncryption
                Public-Key: (2048 bit)
                Modulus:
                    00:d5:8d:5d:80:0c:a4:38:c3:5f:aa:32:a2:44:54:
                    06:a8:07:45:10:d9:ba:89:51:c4:7e:a4:d4:71:4a:
                    02:8c:b4:1f:19:2f:d2:65:47:4d:fe:49:5f:ee:ec:
                    28:c8:db:6c:d9:20:02:c9:4e:6f:de:a4:a1:fb:bd:
                    c5:0b:26:cc:27:3d:9a:53:d1:ba:05:24:2c:63:bf:
                    ed:d0:7c:3a:e7:19:31:70:b1:9c:68:65:d1:d6:11:
                    e6:ad:03:26:73:12:86:6b:bc:69:a3:1c:5b:98:7f:
                    97:5b:0d:59:95:21:5c:bf:53:92:8d:0b:36:76:43:
                    45:7e:8c:11:f1:cd:c1:05:24:36:b6:29:9f:6f:ab:
                    c7:a5:24:ac:6f:df:67:5e:78:39:8c:37:3c:6c:c9:
                    a3:29:98:bd:65:6f:6c:df:84:df:96:96:62:22:b9:
                    e8:91:f7:5e:c9:c7:75:95:72:d6:82:7f:b2:d1:00:
                    d9:00:c1:ef:fe:c0:ba:81:f5:34:b8:51:b9:f6:6b:
                    37:5a:c3:11:88:d9:95:01:d8:90:c6:5d:e7:8c:a8:
                    a6:69:c1:1e:32:48:29:da:de:56:87:40:f2:0a:98:
                    78:5b:67:8e:24:53:73:95:46:ed:f0:e6:e0:ba:43:
                    1b:f7:bc:43:3f:4d:16:31:aa:54:2d:2c:2e:d3:83:
                    3c:0f
                Exponent: 65537 (0x10001)
        X509v3 extensions:
            Netscape Cert Type: 
                SSL Server
            X509v3 Subject Key Identifier: 
                ED:7C:6D:05:47:CC:B4:63:BB:08:92:10:88:7E:24:B4:9B:86:5D:65
            X509v3 Authority Key Identifier: 
                keyid:02:88:18:65:DF:25:91:21:D4:0A:68:78:D6:38:A0:5F:8F:17:1E:D3
                DirName:/CN=OCSP_CATWO/ST=KA/C=IN/emailAddress=ocspcatwo@ocsptesting.com/O=CITRIX
                serial:95:45:0F:EB:FA:5E:01:F6

            Authority Information Access: 
                OCSP - URI:http://172.18.10.21/responderpath

    Signature Algorithm: sha1WithRSAEncryption
         38:39:d7:4d:52:a1:f4:3e:3c:3e:a9:68:74:ca:2f:d4:67:60:
         7f:c5:d0:fc:c9:45:80:33:1e:42:a1:15:5d:e7:08:01:ef:f7:
         f6:f8:45:14:bb:7f:9f:08:13:07:be:bd:d9:1b:12:57:01:a4:
         33:a9:2c:bd:7c:7d:6f:da:dc:75:8c:81:2b:2c:05:68:97:10:
         a3:10:a6:f9:13:11:1e:e1:a5:36:a7:1c:af:f5:37:a3:d3:9b:
         b5:d3:1c:f8:02:aa:55:5d:7c:de:6c:fe:b2:30:ec:4b:48:0f:
         7f:71:45:4e:3c:1b:ec:c5:e5:c3:2a:13:66:d1:50:c5:7b:7c:
         62:ae:1f:b3:45:f7:a7:b7:b2:e2:68:a3:5f:4e:ad:72:f3:1c:
         f2:11:1c:ba:63:17:e1:15:ba:4b:63:41:50:f0:88:ed:f6:91:
         c6:5d:c3:ee:49:4e:02:87:3b:5d:70:68:c0:17:c6:1e:34:fb:
         e9:e7:c5:6e:a7:7d:ab:00:3a:ee:81:2f:fa:78:23:fa:ca:1c:
         28:ba:76:0d:c4:58:8a:d8:24:9b:9b:7b:ba:8f:c2:ab:59:c5:
         6c:db:bd:1e:f6:21:7c:af:88:ce:1e:dc:2f:37:16:18:fd:e7:
         61:6d:2d:c0:1e:39:35:a0:32:d7:f2:d4:36:df:f6:84:53:c5:
         1f:a4:1c:be
-----BEGIN CERTIFICATE-----
MIIEYDCCA0igAwIBAgIGCgsMDQ42MA0GCSqGSIb3DQEBBQUAMGoxEzARBgNVBAMU
Ck9DU1BfQ0FUV08xCzAJBgNVBAgTAktBMQswCQYDVQQGEwJJTjEoMCYGCSqGSIb3
DQEJARYZb2NzcGNhdHdvQG9jc3B0ZXN0aW5nLmNvbTEPMA0GA1UEChMGQ0lUUklY
MB4XDTE2MDYyODAwNTAzOVoXDTI2MDYyNjAwNTAzOVowYDELMAkGA1UECBMCS0Ex
CzAJBgNVBAYTAklOMRMwEQYDVQQDFAowMjZfc2VydmVyMR4wHAYJKoZIhvcNAQkB
Fg8wMjZAdGVzdF9jYS5jb20xDzANBgNVBAoTBkNJVFJJWDCCASIwDQYJKoZIhvcN
AQEBBQADggEPADCCAQoCggEBANWNXYAMpDjDX6oyokRUBqgHRRDZuolRxH6k1HFK
Aoy0Hxkv0mVHTf5JX+7sKMjbbNkgAslOb96kofu9xQsmzCc9mlPRugUkLGO/7dB8
OucZMXCxnGhl0dYR5q0DJnMShmu8aaMcW5h/l1sNWZUhXL9Tko0LNnZDRX6MEfHN
wQUkNrYpn2+rx6UkrG/fZ154OYw3PGzJoymYvWVvbN+E35aWYiK56JH3XsnHdZVy
1oJ/stEA2QDB7/7AuoH1NLhRufZrN1rDEYjZlQHYkMZd54yopmnBHjJIKdreVodA
8gqYeFtnjiRTc5VG7fDm4LpDG/e8Qz9NFjGqVC0sLtODPA8CAwEAAaOCARQwggEQ
MBEGCWCGSAGG+EIBAQQEAwIGQDAdBgNVHQ4EFgQU7XxtBUfMtGO7CJIQiH4ktJuG
XWUwgZwGA1UdIwSBlDCBkYAUAogYZd8lkSHUCmh41jigX48XHtOhbqRsMGoxEzAR
BgNVBAMUCk9DU1BfQ0FUV08xCzAJBgNVBAgTAktBMQswCQYDVQQGEwJJTjEoMCYG
CSqGSIb3DQEJARYZb2NzcGNhdHdvQG9jc3B0ZXN0aW5nLmNvbTEPMA0GA1UEChMG
Q0lUUklYggkAlUUP6/peAfYwPQYIKwYBBQUHAQEEMTAvMC0GCCsGAQUFBzABhiFo
dHRwOi8vMTcyLjE4LjEwLjIxL3Jlc3BvbmRlcnBhdGgwDQYJKoZIhvcNAQEFBQAD
ggEBADg5101SofQ+PD6paHTKL9RnYH/F0PzJRYAzHkKhFV3nCAHv9/b4RRS7f58I
Ewe+vdkbElcBpDOpLL18fW/a3HWMgSssBWiXEKMQpvkTER7hpTanHK/1N6PTm7XT
HPgCqlVdfN5s/rIw7EtID39xRU48G+zF5cMqE2bRUMV7fGKuH7NF96e3suJoo19O
rXLzHPIRHLpjF+EVuktjQVDwiO32kcZdw+5JTgKHO11waMAXxh40++nnxW6nfasA
Ou6BL/p4I/rKHCi6dg3EWIrYJJube7qPwqtZxWzbvR72IXyviM4e3C83Fhj952Ft
LcAeOTWgMtfy1Dbf9oRTxR+kHL4=
-----END CERTIFICATE-----
