Certificate:
    Data:
        Version: 3 (0x2)
        Serial Number: 11042563100213 (0xa0b0c0d0e35)
    Signature Algorithm: sha1WithRSAEncryption
        Issuer: CN=OCSP_CATWO, ST=KA, C=IN/emailAddress=ocspcatwo@ocsptesting.com, O=CITRIX
        Validity
            Not Before: Jun 28 00:50:33 2016 GMT
            Not After : Jun 26 00:50:33 2026 GMT
        Subject: ST=KA, C=IN, CN=025_server/emailAddress=025@test_ca.com, O=CITRIX
        Subject Public Key Info:
            Public Key Algorithm: rsaEncryption
                Public-Key: (2048 bit)
                Modulus:
                    00:a5:8e:22:08:02:ca:45:bb:d3:9e:17:f7:a1:68:
                    77:75:15:70:d0:4e:40:33:50:1f:ad:25:4c:4e:85:
                    19:fc:9d:af:9f:35:e1:94:86:e9:25:7b:8c:47:5d:
                    cd:b1:d9:49:21:0b:3b:40:8d:09:6c:c7:ea:a6:bc:
                    e0:25:92:c4:b4:35:aa:f6:99:90:ec:77:57:32:76:
                    c1:0c:93:95:94:4d:7f:d7:5a:8e:b0:1e:56:d8:41:
                    f2:d1:41:1c:1b:cb:50:8c:fb:38:f1:ae:cd:05:8e:
                    a9:74:f4:10:24:71:c8:d3:91:2e:b4:3c:d8:6b:35:
                    3a:06:08:92:ad:ce:e1:e7:ca:88:06:35:53:b1:68:
                    1d:d1:0b:c0:51:cd:fa:55:4d:df:f6:47:11:e5:41:
                    d6:7f:af:c2:27:3c:30:a9:06:2b:bb:3d:8b:39:d8:
                    63:7e:78:46:74:ef:50:41:14:35:da:10:45:f7:d4:
                    55:e1:85:02:9e:04:60:bf:87:eb:03:35:b6:8c:cf:
                    10:fc:43:fd:8e:16:6b:8b:37:34:7b:52:62:89:7e:
                    4e:01:e8:19:13:48:e3:22:83:29:d3:e8:d0:9d:d2:
                    2d:25:c8:a1:85:71:a2:c2:0f:d6:33:f1:60:08:d1:
                    f5:fb:21:ac:aa:ce:7f:b1:45:69:aa:72:2f:4d:c8:
                    15:cf
                Exponent: 65537 (0x10001)
        X509v3 extensions:
            Netscape Cert Type: 
                SSL Server
            X509v3 Subject Key Identifier: 
                D6:80:F0:4D:36:1E:D8:81:38:3C:82:FB:E5:A2:BB:4E:66:1E:F5:EA
            X509v3 Authority Key Identifier: 
                keyid:02:88:18:65:DF:25:91:21:D4:0A:68:78:D6:38:A0:5F:8F:17:1E:D3
                DirName:/CN=OCSP_CATWO/ST=KA/C=IN/emailAddress=ocspcatwo@ocsptesting.com/O=CITRIX
                serial:95:45:0F:EB:FA:5E:01:F6

            Authority Information Access: 
                OCSP - URI:http://172.18.10.21/responderpath

    Signature Algorithm: sha1WithRSAEncryption
         11:db:db:69:b1:d9:d4:2c:ae:aa:cd:2c:5a:b8:e3:b9:ba:57:
         33:de:45:ca:31:97:c5:0a:80:a4:d1:ac:99:d1:7b:da:ef:33:
         39:37:bb:71:61:92:a5:78:4a:45:90:bc:aa:5d:b2:59:1b:ba:
         b1:42:3f:b9:da:cb:08:a6:32:f2:1a:41:4d:56:74:d0:01:d4:
         d9:12:aa:85:92:83:75:5e:25:4d:53:89:51:83:84:c2:60:6d:
         8f:cb:8c:31:ef:6e:9c:cb:ad:6e:65:a1:b7:04:dd:8e:57:74:
         be:e8:ce:4f:af:fb:84:59:51:10:3e:de:46:ef:70:d7:89:c8:
         66:5b:78:52:48:1f:71:ff:37:bf:5e:1e:84:42:90:ec:42:15:
         02:62:aa:26:95:ae:6b:43:8e:dd:71:93:55:9a:44:5c:a4:2f:
         75:68:9d:d1:25:f6:ec:f1:b6:9d:d3:e2:cd:76:f5:79:99:47:
         a3:7b:56:c3:4d:bb:58:99:24:da:ec:0c:c0:17:fd:19:60:0c:
         bd:28:df:7f:ba:14:0a:62:89:8c:99:44:7a:27:1b:52:0d:d4:
         5a:ca:ed:e8:d7:b1:12:89:a7:43:dc:35:7a:f6:ac:99:29:a3:
         b1:7a:4a:15:8b:38:44:43:c0:ae:94:59:72:03:dc:12:d8:90:
         6e:5e:cc:0b
-----BEGIN CERTIFICATE-----
MIIEYDCCA0igAwIBAgIGCgsMDQ41MA0GCSqGSIb3DQEBBQUAMGoxEzARBgNVBAMU
Ck9DU1BfQ0FUV08xCzAJBgNVBAgTAktBMQswCQYDVQQGEwJJTjEoMCYGCSqGSIb3
DQEJARYZb2NzcGNhdHdvQG9jc3B0ZXN0aW5nLmNvbTEPMA0GA1UEChMGQ0lUUklY
MB4XDTE2MDYyODAwNTAzM1oXDTI2MDYyNjAwNTAzM1owYDELMAkGA1UECBMCS0Ex
CzAJBgNVBAYTAklOMRMwEQYDVQQDFAowMjVfc2VydmVyMR4wHAYJKoZIhvcNAQkB
Fg8wMjVAdGVzdF9jYS5jb20xDzANBgNVBAoTBkNJVFJJWDCCASIwDQYJKoZIhvcN
AQEBBQADggEPADCCAQoCggEBAKWOIggCykW7054X96Fod3UVcNBOQDNQH60lTE6F
Gfydr5814ZSG6SV7jEddzbHZSSELO0CNCWzH6qa84CWSxLQ1qvaZkOx3VzJ2wQyT
lZRNf9dajrAeVthB8tFBHBvLUIz7OPGuzQWOqXT0ECRxyNORLrQ82Gs1OgYIkq3O
4efKiAY1U7FoHdELwFHN+lVN3/ZHEeVB1n+vwic8MKkGK7s9iznYY354RnTvUEEU
NdoQRffUVeGFAp4EYL+H6wM1tozPEPxD/Y4Wa4s3NHtSYol+TgHoGRNI4yKDKdPo
0J3SLSXIoYVxosIP1jPxYAjR9fshrKrOf7FFaapyL03IFc8CAwEAAaOCARQwggEQ
MBEGCWCGSAGG+EIBAQQEAwIGQDAdBgNVHQ4EFgQU1oDwTTYe2IE4PIL75aK7TmYe
9eowgZwGA1UdIwSBlDCBkYAUAogYZd8lkSHUCmh41jigX48XHtOhbqRsMGoxEzAR
BgNVBAMUCk9DU1BfQ0FUV08xCzAJBgNVBAgTAktBMQswCQYDVQQGEwJJTjEoMCYG
CSqGSIb3DQEJARYZb2NzcGNhdHdvQG9jc3B0ZXN0aW5nLmNvbTEPMA0GA1UEChMG
Q0lUUklYggkAlUUP6/peAfYwPQYIKwYBBQUHAQEEMTAvMC0GCCsGAQUFBzABhiFo
dHRwOi8vMTcyLjE4LjEwLjIxL3Jlc3BvbmRlcnBhdGgwDQYJKoZIhvcNAQEFBQAD
ggEBABHb22mx2dQsrqrNLFq447m6VzPeRcoxl8UKgKTRrJnRe9rvMzk3u3FhkqV4
SkWQvKpdslkburFCP7naywimMvIaQU1WdNAB1NkSqoWSg3VeJU1TiVGDhMJgbY/L
jDHvbpzLrW5lobcE3Y5XdL7ozk+v+4RZURA+3kbvcNeJyGZbeFJIH3H/N79eHoRC
kOxCFQJiqiaVrmtDjt1xk1WaRFykL3VondEl9uzxtp3T4s129XmZR6N7VsNNu1iZ
JNrsDMAX/RlgDL0o33+6FApiiYyZRHonG1IN1FrK7ejXsRKJp0PcNXr2rJkpo7F6
ShWLOERDwK6UWXID3BLYkG5ezAs=
-----END CERTIFICATE-----
