Certificate:
    Data:
        Version: 3 (0x2)
        Serial Number: 11042563100230 (0xa0b0c0d0e46)
    Signature Algorithm: sha1WithRSAEncryption
        Issuer: CN=OCSP_CATWO, ST=KA, C=IN/emailAddress=ocspcatwo@ocsptesting.com, O=CITRIX
        Validity
            Not Before: Jun 28 00:59:41 2016 GMT
            Not After : Jun 26 00:59:41 2026 GMT
        Subject: ST=KA, C=IN, CN=ocspcatwo_042_server/emailAddress=ocspcatwo_042@test_ca.com, O=CITRIX
        Subject Public Key Info:
            Public Key Algorithm: rsaEncryption
                Public-Key: (2048 bit)
                Modulus:
                    00:ae:1c:c1:4a:d5:1d:be:d6:97:fe:84:05:65:2c:
                    52:f3:37:be:e0:bc:1b:c7:24:a9:3d:77:8f:dd:a0:
                    d2:0a:96:1a:33:13:87:5e:03:90:1a:30:69:8c:18:
                    7b:cb:d9:b4:f3:da:54:30:32:98:f1:ba:04:44:60:
                    38:93:db:2a:15:d4:6c:a9:4e:fa:fa:ce:75:a1:50:
                    79:04:d9:d2:d0:e7:3a:36:05:4f:e1:0c:3b:3b:35:
                    47:bb:cc:4e:c5:b2:5e:c1:1d:31:98:c3:0e:29:d7:
                    9f:64:61:f5:fd:4a:7b:7c:cd:b2:d3:63:3f:d5:d4:
                    6e:30:dc:ea:86:f8:17:e7:58:ed:d3:32:70:1c:bf:
                    74:77:06:49:fe:1e:a8:4f:f0:d4:0d:9e:97:b8:c1:
                    0b:8b:e0:4b:27:ef:38:74:31:c3:16:f1:7a:74:4a:
                    94:b7:63:57:97:c9:d3:bf:eb:eb:f3:96:3d:41:0e:
                    c9:7f:11:db:43:e2:de:44:28:dc:88:97:c4:43:18:
                    8d:2a:de:f2:52:3a:88:03:4c:ff:89:85:12:29:1b:
                    31:31:1a:72:2c:19:26:e8:2c:e2:b2:39:11:a7:c2:
                    e6:71:99:aa:7c:2a:9f:a0:8f:57:77:6d:85:3a:3f:
                    71:1b:fe:39:72:92:31:e7:48:63:0e:d6:f5:ef:20:
                    24:eb
                Exponent: 65537 (0x10001)
        X509v3 extensions:
            Netscape Cert Type: 
                SSL Server
            X509v3 Subject Key Identifier: 
                9D:7E:C5:F2:D0:51:B8:E9:84:FE:62:CA:5C:69:6B:7B:0D:DF:76:34
            X509v3 Authority Key Identifier: 
                keyid:02:88:18:65:DF:25:91:21:D4:0A:68:78:D6:38:A0:5F:8F:17:1E:D3
                DirName:/CN=OCSP_CATWO/ST=KA/C=IN/emailAddress=ocspcatwo@ocsptesting.com/O=CITRIX
                serial:95:45:0F:EB:FA:5E:01:F6

            Authority Information Access: 
                OCSP - URI:http://ashoke2.ocsp_catwo.citrite.net/responderpath

    Signature Algorithm: sha1WithRSAEncryption
         0b:23:94:06:be:ea:bd:ee:e8:19:0d:3c:39:c6:bf:77:28:aa:
         2a:e1:de:f0:36:57:e7:cb:6d:c7:95:2e:a8:a0:50:d9:8e:ac:
         4e:7a:6a:4d:4c:15:51:8c:cf:31:0b:54:26:2a:91:60:f0:c7:
         db:82:d4:c0:ad:38:cf:f1:bc:aa:2d:ae:a5:55:f5:7e:f0:a4:
         0e:21:46:55:3b:c2:c2:77:7a:5f:77:e9:62:8d:0b:1b:7a:28:
         d0:8d:02:ba:b5:0e:d0:aa:a6:c6:1b:b3:69:15:5b:76:dd:aa:
         51:ae:95:02:f7:e8:e6:f2:dc:8b:b1:36:24:86:d2:9f:ee:f5:
         84:ab:c7:39:91:13:5a:13:96:fc:35:51:31:dc:07:20:fa:d4:
         1e:ea:37:42:46:18:52:12:9a:68:43:9f:66:22:d6:4d:a5:c6:
         bd:dc:9a:f6:6f:8d:19:2a:11:6d:a1:16:50:f6:49:48:58:60:
         70:99:a7:48:93:54:2d:b9:02:c4:be:4e:8d:5b:b9:6c:4f:aa:
         77:3c:b4:cd:4c:1e:63:75:ac:7d:1e:d2:62:bc:f6:0e:fc:c3:
         c3:d6:cc:4e:fd:4b:c1:b2:c0:fb:d8:fe:8f:99:c7:8c:b7:0e:
         df:e5:bf:93:07:62:d3:9d:8f:d1:cb:32:90:6b:7a:d4:b8:70:
         13:9e:b1:47
-----BEGIN CERTIFICATE-----
MIIEhjCCA26gAwIBAgIGCgsMDQ5GMA0GCSqGSIb3DQEBBQUAMGoxEzARBgNVBAMU
Ck9DU1BfQ0FUV08xCzAJBgNVBAgTAktBMQswCQYDVQQGEwJJTjEoMCYGCSqGSIb3
DQEJARYZb2NzcGNhdHdvQG9jc3B0ZXN0aW5nLmNvbTEPMA0GA1UEChMGQ0lUUklY
MB4XDTE2MDYyODAwNTk0MVoXDTI2MDYyNjAwNTk0MVowdDELMAkGA1UECBMCS0Ex
CzAJBgNVBAYTAklOMR0wGwYDVQQDFBRvY3NwY2F0d29fMDQyX3NlcnZlcjEoMCYG
CSqGSIb3DQEJARYZb2NzcGNhdHdvXzA0MkB0ZXN0X2NhLmNvbTEPMA0GA1UEChMG
Q0lUUklYMIIBIjANBgkqhkiG9w0BAQEFAAOCAQ8AMIIBCgKCAQEArhzBStUdvtaX
/oQFZSxS8ze+4LwbxySpPXeP3aDSCpYaMxOHXgOQGjBpjBh7y9m089pUMDKY8boE
RGA4k9sqFdRsqU76+s51oVB5BNnS0Oc6NgVP4Qw7OzVHu8xOxbJewR0xmMMOKdef
ZGH1/Up7fM2y02M/1dRuMNzqhvgX51jt0zJwHL90dwZJ/h6oT/DUDZ6XuMELi+BL
J+84dDHDFvF6dEqUt2NXl8nTv+vr85Y9QQ7JfxHbQ+LeRCjciJfEQxiNKt7yUjqI
A0z/iYUSKRsxMRpyLBkm6CzisjkRp8LmcZmqfCqfoI9Xd22FOj9xG/45cpIx50hj
Dtb17yAk6wIDAQABo4IBJjCCASIwEQYJYIZIAYb4QgEBBAQDAgZAMB0GA1UdDgQW
BBSdfsXy0FG46YT+YspcaWt7Dd92NDCBnAYDVR0jBIGUMIGRgBQCiBhl3yWRIdQK
aHjWOKBfjxce06FupGwwajETMBEGA1UEAxQKT0NTUF9DQVRXTzELMAkGA1UECBMC
S0ExCzAJBgNVBAYTAklOMSgwJgYJKoZIhvcNAQkBFhlvY3NwY2F0d29Ab2NzcHRl
c3RpbmcuY29tMQ8wDQYDVQQKEwZDSVRSSViCCQCVRQ/r+l4B9jBPBggrBgEFBQcB
AQRDMEEwPwYIKwYBBQUHMAGGM2h0dHA6Ly9hc2hva2UyLm9jc3BfY2F0d28uY2l0
cml0ZS5uZXQvcmVzcG9uZGVycGF0aDANBgkqhkiG9w0BAQUFAAOCAQEACyOUBr7q
ve7oGQ08Oca/dyiqKuHe8DZX58ttx5UuqKBQ2Y6sTnpqTUwVUYzPMQtUJiqRYPDH
24LUwK04z/G8qi2upVX1fvCkDiFGVTvCwnd6X3fpYo0LG3oo0I0CurUO0Kqmxhuz
aRVbdt2qUa6VAvfo5vLci7E2JIbSn+71hKvHOZETWhOW/DVRMdwHIPrUHuo3QkYY
UhKaaEOfZiLWTaXGvdya9m+NGSoRbaEWUPZJSFhgcJmnSJNULbkCxL5OjVu5bE+q
dzy0zUweY3WsfR7SYrz2DvzDw9bMTv1LwbLA+9j+j5nHjLcO3+W/kwdi052P0csy
kGt61LhwE56xRw==
-----END CERTIFICATE-----
