Certificate:
    Data:
        Version: 3 (0x2)
        Serial Number: 1108152289062 (0x10203060726)
    Signature Algorithm: sha256WithRSAEncryption
        Issuer: CN=OCSP_CAONE, ST=KA, C=IN/emailAddress=ocsp_caone@ocsptest.com, O=CITRIX
        Validity
            Not Before: Jun 27 02:33:22 2016 GMT
            Not After : Jun 25 02:33:22 2026 GMT
        Subject: ST=KA, C=IN, CN=ocsp_caone_server_eight_server/emailAddress=ocsp_caone_server_eight@test_ca.com, O=CITRIX
        Subject Public Key Info:
            Public Key Algorithm: rsaEncryption
                Public-Key: (2048 bit)
                Modulus:
                    00:d4:8e:57:ed:be:2e:5d:4a:91:16:c6:09:42:7c:
                    d6:69:44:2e:15:c1:42:89:8f:66:19:71:35:63:ed:
                    54:39:3b:f1:77:53:ff:a4:95:2f:e5:ce:a2:1f:fc:
                    7f:df:3f:03:1b:00:97:85:1b:99:af:45:da:6d:be:
                    fb:15:49:0d:76:53:d3:ac:a8:34:20:ba:c8:d5:5b:
                    53:ef:d8:14:79:ab:b7:90:b1:b2:95:83:5f:b1:db:
                    34:f6:ce:c0:04:22:dc:61:36:75:32:ba:5f:28:7b:
                    44:03:84:47:e7:e2:25:e0:18:8f:f1:44:12:74:bd:
                    7e:01:0b:3c:e2:1f:cf:ca:cd:73:a3:9d:d2:54:ec:
                    fb:26:3c:42:84:d1:e2:14:c1:50:9e:da:ed:29:ca:
                    9e:3c:67:0a:15:ce:b1:9c:d9:ac:c0:45:c8:bd:89:
                    e9:25:12:f2:a4:43:56:8b:07:ee:5e:3e:de:4d:c3:
                    be:00:ed:82:3c:e3:18:b7:f2:c2:f9:1e:16:28:94:
                    71:bf:66:b2:1b:8b:bd:b7:a5:47:20:4b:f0:5b:8b:
                    0a:81:e8:d5:83:c3:99:4a:14:e1:5b:05:1f:66:09:
                    bc:a6:ef:75:9a:37:89:2b:2f:e4:b4:9c:d5:4d:96:
                    ec:7e:a3:89:4d:e8:7d:38:37:76:e3:f2:f1:e4:39:
                    06:bd
                Exponent: 65537 (0x10001)
        X509v3 extensions:
            Netscape Cert Type: 
                SSL Server
            X509v3 Subject Key Identifier: 
                03:B1:63:2C:4F:F4:07:16:B3:2A:DC:B0:69:DA:3C:91:90:A9:A0:D3
            X509v3 Authority Key Identifier: 
                keyid:B7:5F:A4:77:93:33:C4:32:94:1C:8E:F1:0C:3B:DE:62:5E:E2:96:0E
                DirName:/CN=OCSP_CAONE/ST=KA/C=IN/emailAddress=ocsp_caone@ocsptest.com/O=CITRIX
                serial:A2:D9:70:A5:7D:CC:76:E4

            Authority Information Access: 
                OCSP - URI:http://172.16.10.21/responderpath

    Signature Algorithm: sha256WithRSAEncryption
         8e:56:ac:6f:69:95:cc:0a:29:47:c6:3a:ad:fa:57:d5:c5:7c:
         6e:6e:32:f0:d5:f7:41:bf:78:a8:04:34:68:18:40:62:ce:78:
         c6:c1:94:28:d8:3b:0f:50:48:ab:1b:0e:cd:5a:0f:2b:79:37:
         dc:68:0d:af:b3:13:e2:ab:33:df:06:ce:2b:9d:fc:b5:b8:4a:
         13:68:3a:eb:55:22:56:da:02:d5:7d:08:72:19:70:1d:35:83:
         88:4e:4c:5b:d3:4a:35:72:d3:04:e4:0a:1f:3c:dd:23:81:e7:
         b6:9e:ad:0e:18:4e:d9:32:41:fa:56:7d:7f:ba:e5:14:af:d3:
         2b:1e:f6:47:12:e1:ae:ef:e3:c4:36:a5:45:2b:e6:58:5a:2d:
         a2:85:99:66:d9:94:21:69:0d:f4:b0:58:68:85:e1:ad:4b:03:
         dc:c6:01:b5:3b:23:7e:a6:f0:f7:88:48:e8:bd:cc:c9:a0:b7:
         80:e7:8d:3f:53:8a:89:fe:0d:f9:42:25:ae:98:7d:4f:be:e6:
         7c:aa:48:6b:b7:37:91:72:cc:33:01:ad:94:12:ca:00:9a:2c:
         01:a7:99:41:fb:ce:0d:74:ad:d7:76:c7:78:75:98:b8:b2:90:
         26:54:d2:cb:b4:c9:26:9f:a9:f6:af:9f:b2:ad:a5:88:14:1c:
         99:7b:88:98
-----BEGIN CERTIFICATE-----
MIIEhTCCA22gAwIBAgIGAQIDBgcmMA0GCSqGSIb3DQEBCwUAMGgxEzARBgNVBAMU
Ck9DU1BfQ0FPTkUxCzAJBgNVBAgTAktBMQswCQYDVQQGEwJJTjEmMCQGCSqGSIb3
DQEJARYXb2NzcF9jYW9uZUBvY3NwdGVzdC5jb20xDzANBgNVBAoTBkNJVFJJWDAe
Fw0xNjA2MjcwMjMzMjJaFw0yNjA2MjUwMjMzMjJaMIGIMQswCQYDVQQIEwJLQTEL
MAkGA1UEBhMCSU4xJzAlBgNVBAMUHm9jc3BfY2FvbmVfc2VydmVyX2VpZ2h0X3Nl
cnZlcjEyMDAGCSqGSIb3DQEJARYjb2NzcF9jYW9uZV9zZXJ2ZXJfZWlnaHRAdGVz
dF9jYS5jb20xDzANBgNVBAoTBkNJVFJJWDCCASIwDQYJKoZIhvcNAQEBBQADggEP
ADCCAQoCggEBANSOV+2+Ll1KkRbGCUJ81mlELhXBQomPZhlxNWPtVDk78XdT/6SV
L+XOoh/8f98/AxsAl4Ubma9F2m2++xVJDXZT06yoNCC6yNVbU+/YFHmrt5CxspWD
X7HbNPbOwAQi3GE2dTK6Xyh7RAOER+fiJeAYj/FEEnS9fgELPOIfz8rNc6Od0lTs
+yY8QoTR4hTBUJ7a7SnKnjxnChXOsZzZrMBFyL2J6SUS8qRDVosH7l4+3k3DvgDt
gjzjGLfywvkeFiiUcb9mshuLvbelRyBL8FuLCoHo1YPDmUoU4VsFH2YJvKbvdZo3
iSsv5LSc1U2W7H6jiU3ofTg3duPy8eQ5Br0CAwEAAaOCARIwggEOMBEGCWCGSAGG
+EIBAQQEAwIGQDAdBgNVHQ4EFgQUA7FjLE/0BxazKtywado8kZCpoNMwgZoGA1Ud
IwSBkjCBj4AUt1+kd5MzxDKUHI7xDDveYl7ilg6hbKRqMGgxEzARBgNVBAMUCk9D
U1BfQ0FPTkUxCzAJBgNVBAgTAktBMQswCQYDVQQGEwJJTjEmMCQGCSqGSIb3DQEJ
ARYXb2NzcF9jYW9uZUBvY3NwdGVzdC5jb20xDzANBgNVBAoTBkNJVFJJWIIJAKLZ
cKV9zHbkMD0GCCsGAQUFBwEBBDEwLzAtBggrBgEFBQcwAYYhaHR0cDovLzE3Mi4x
Ni4xMC4yMS9yZXNwb25kZXJwYXRoMA0GCSqGSIb3DQEBCwUAA4IBAQCOVqxvaZXM
CilHxjqt+lfVxXxubjLw1fdBv3ioBDRoGEBiznjGwZQo2DsPUEirGw7NWg8reTfc
aA2vsxPiqzPfBs4rnfy1uEoTaDrrVSJW2gLVfQhyGXAdNYOITkxb00o1ctME5Aof
PN0jgee2nq0OGE7ZMkH6Vn1/uuUUr9MrHvZHEuGu7+PENqVFK+ZYWi2ihZlm2ZQh
aQ30sFhoheGtSwPcxgG1OyN+pvD3iEjovczJoLeA540/U4qJ/g35QiWumH1PvuZ8
qkhrtzeRcswzAa2UEsoAmiwBp5lB+84NdK3Xdsd4dZi4spAmVNLLtMkmn6n2r5+y
raWIFByZe4iY
-----END CERTIFICATE-----
