Certificate:
    Data:
        Version: 3 (0x2)
        Serial Number: 11042563100222 (0xa0b0c0d0e3e)
    Signature Algorithm: sha1WithRSAEncryption
        Issuer: CN=OCSP_CATWO, ST=KA, C=IN/emailAddress=ocspcatwo@ocsptesting.com, O=CITRIX
        Validity
            Not Before: Jun 28 00:57:46 2016 GMT
            Not After : Jun 26 00:57:46 2026 GMT
        Subject: ST=KA, C=IN, CN=ocspcatwo_034_server/emailAddress=ocspcatwo_034@test_ca.com, O=CITRIX
        Subject Public Key Info:
            Public Key Algorithm: rsaEncryption
                Public-Key: (2048 bit)
                Modulus:
                    00:b8:f7:28:1f:9e:bf:b4:19:cf:f9:b7:d8:50:81:
                    f5:0d:cd:b5:df:60:5b:b1:6c:17:af:27:52:6a:31:
                    98:cb:5a:86:5b:cc:18:50:d2:a9:ae:86:13:75:7c:
                    8a:40:67:6b:ba:8e:d1:d1:db:32:b5:73:57:e5:ac:
                    20:08:f5:e7:3d:3d:dd:8c:e7:4a:fb:e3:3e:fc:a1:
                    9d:e0:0f:5b:94:70:1d:3f:f6:0a:2b:52:7f:4e:27:
                    b1:ee:72:51:af:ea:a3:5b:25:aa:8d:77:e2:45:c5:
                    38:12:2d:a9:cb:c8:7d:b6:0e:88:91:63:18:dc:bc:
                    7d:5a:b5:7d:6f:e9:2e:0f:72:01:fe:2f:6b:d4:b5:
                    86:de:36:ab:9d:79:6a:d4:33:55:1c:5d:18:48:56:
                    ba:64:8f:db:7f:f3:ee:99:81:88:02:26:24:34:cd:
                    7c:27:ad:41:60:da:22:c6:aa:5c:d7:38:f2:29:53:
                    79:aa:78:66:79:c7:1a:3a:8c:04:05:b7:27:98:d4:
                    ca:10:43:e1:1d:7d:f8:a3:eb:ec:1b:d0:f6:cb:1f:
                    63:29:53:ce:7c:90:fd:4d:61:51:33:ff:6f:07:66:
                    f4:db:da:8f:29:9a:9d:49:ba:4a:d3:76:a2:76:63:
                    c0:8a:74:70:2e:0c:d3:3c:b5:af:4d:3f:e5:4a:8f:
                    f3:49
                Exponent: 65537 (0x10001)
        X509v3 extensions:
            Netscape Cert Type: 
                SSL Server
            X509v3 Subject Key Identifier: 
                68:CD:C8:2C:E0:01:B7:C1:D0:95:33:99:D5:F3:B6:CB:DB:0D:EA:4F
            X509v3 Authority Key Identifier: 
                keyid:02:88:18:65:DF:25:91:21:D4:0A:68:78:D6:38:A0:5F:8F:17:1E:D3
                DirName:/CN=OCSP_CATWO/ST=KA/C=IN/emailAddress=ocspcatwo@ocsptesting.com/O=CITRIX
                serial:95:45:0F:EB:FA:5E:01:F6

            Authority Information Access: 
                OCSP - URI:http://ashoke.ocsp_catwo.citrite.net/responderpath

    Signature Algorithm: sha1WithRSAEncryption
         7f:7f:50:ee:ea:ea:f4:86:82:5b:e8:eb:51:55:11:91:ab:36:
         33:7e:69:13:41:f8:64:6b:dc:72:14:72:10:e0:55:c6:ca:5f:
         14:2e:d9:76:bb:6f:7e:e2:c7:c3:7e:60:aa:05:5d:86:df:fd:
         6a:a1:e5:e0:82:66:63:55:ea:fd:49:d7:6d:d7:fd:cc:d5:db:
         a4:62:58:9c:2e:0b:99:29:81:f4:09:f2:89:7b:66:24:ff:be:
         c5:bb:ac:33:10:04:e5:a8:81:6d:85:9b:1a:fd:05:7b:e5:4a:
         2a:49:d7:d0:30:3e:fc:92:86:5c:b3:12:05:31:d9:66:e2:d6:
         8f:e3:f8:e0:46:40:01:f1:75:c8:0a:15:56:d8:64:30:ae:7a:
         c4:72:db:ea:11:76:62:43:58:4b:e8:cd:11:86:c7:10:ac:31:
         16:d7:3a:30:b5:b6:eb:e4:0c:1c:00:c7:27:e1:41:be:38:dc:
         53:a7:4c:09:4d:7a:d2:8b:2d:d6:8d:0f:b0:99:6d:03:ee:e8:
         4c:ef:99:d1:19:86:53:2d:ce:9c:ee:50:4c:64:c8:38:0b:c7:
         2a:2f:c8:e2:fa:5e:71:63:0a:65:5d:ba:b3:ad:b6:aa:14:01:
         66:cd:66:6d:4d:c3:2e:58:4d:57:09:77:80:91:7f:52:6c:a5:
         d6:28:54:01
-----BEGIN CERTIFICATE-----
MIIEhTCCA22gAwIBAgIGCgsMDQ4+MA0GCSqGSIb3DQEBBQUAMGoxEzARBgNVBAMU
Ck9DU1BfQ0FUV08xCzAJBgNVBAgTAktBMQswCQYDVQQGEwJJTjEoMCYGCSqGSIb3
DQEJARYZb2NzcGNhdHdvQG9jc3B0ZXN0aW5nLmNvbTEPMA0GA1UEChMGQ0lUUklY
MB4XDTE2MDYyODAwNTc0NloXDTI2MDYyNjAwNTc0NlowdDELMAkGA1UECBMCS0Ex
CzAJBgNVBAYTAklOMR0wGwYDVQQDFBRvY3NwY2F0d29fMDM0X3NlcnZlcjEoMCYG
CSqGSIb3DQEJARYZb2NzcGNhdHdvXzAzNEB0ZXN0X2NhLmNvbTEPMA0GA1UEChMG
Q0lUUklYMIIBIjANBgkqhkiG9w0BAQEFAAOCAQ8AMIIBCgKCAQEAuPcoH56/tBnP
+bfYUIH1Dc2132BbsWwXrydSajGYy1qGW8wYUNKproYTdXyKQGdruo7R0dsytXNX
5awgCPXnPT3djOdK++M+/KGd4A9blHAdP/YKK1J/Tiex7nJRr+qjWyWqjXfiRcU4
Ei2py8h9tg6IkWMY3Lx9WrV9b+kuD3IB/i9r1LWG3jarnXlq1DNVHF0YSFa6ZI/b
f/PumYGIAiYkNM18J61BYNoixqpc1zjyKVN5qnhmeccaOowEBbcnmNTKEEPhHX34
o+vsG9D2yx9jKVPOfJD9TWFRM/9vB2b029qPKZqdSbpK03aidmPAinRwLgzTPLWv
TT/lSo/zSQIDAQABo4IBJTCCASEwEQYJYIZIAYb4QgEBBAQDAgZAMB0GA1UdDgQW
BBRozcgs4AG3wdCVM5nV87bL2w3qTzCBnAYDVR0jBIGUMIGRgBQCiBhl3yWRIdQK
aHjWOKBfjxce06FupGwwajETMBEGA1UEAxQKT0NTUF9DQVRXTzELMAkGA1UECBMC
S0ExCzAJBgNVBAYTAklOMSgwJgYJKoZIhvcNAQkBFhlvY3NwY2F0d29Ab2NzcHRl
c3RpbmcuY29tMQ8wDQYDVQQKEwZDSVRSSViCCQCVRQ/r+l4B9jBOBggrBgEFBQcB
AQRCMEAwPgYIKwYBBQUHMAGGMmh0dHA6Ly9hc2hva2Uub2NzcF9jYXR3by5jaXRy
aXRlLm5ldC9yZXNwb25kZXJwYXRoMA0GCSqGSIb3DQEBBQUAA4IBAQB/f1Du6ur0
hoJb6OtRVRGRqzYzfmkTQfhka9xyFHIQ4FXGyl8ULtl2u29+4sfDfmCqBV2G3/1q
oeXggmZjVer9Sddt1/3M1dukYlicLguZKYH0CfKJe2Yk/77Fu6wzEATlqIFthZsa
/QV75UoqSdfQMD78koZcsxIFMdlm4taP4/jgRkAB8XXIChVW2GQwrnrEctvqEXZi
Q1hL6M0RhscQrDEW1zowtbbr5AwcAMcn4UG+ONxTp0wJTXrSiy3WjQ+wmW0D7uhM
75nRGYZTLc6c7lBMZMg4C8cqL8ji+l5xYwplXbqzrbaqFAFmzWZtTcMuWE1XCXeA
kX9SbKXWKFQB
-----END CERTIFICATE-----
