Certificate:
    Data:
        Version: 3 (0x2)
        Serial Number: 11042563100219 (0xa0b0c0d0e3b)
    Signature Algorithm: sha1WithRSAEncryption
        Issuer: CN=OCSP_CATWO, ST=KA, C=IN/emailAddress=ocspcatwo@ocsptesting.com, O=CITRIX
        Validity
            Not Before: Jun 28 00:57:39 2016 GMT
            Not After : Jun 26 00:57:39 2026 GMT
        Subject: ST=KA, C=IN, CN=ocspcatwo_031_server/emailAddress=ocspcatwo_031@test_ca.com, O=CITRIX
        Subject Public Key Info:
            Public Key Algorithm: rsaEncryption
                Public-Key: (2048 bit)
                Modulus:
                    00:c7:1a:44:0e:79:69:40:74:71:bf:a1:cb:7d:96:
                    f6:5e:b3:45:c7:22:02:8d:1e:28:19:0a:1f:b8:59:
                    58:14:52:4b:05:7d:24:8a:c2:d0:1a:13:20:64:76:
                    2c:1a:ef:36:74:03:e7:27:89:92:18:02:c9:83:ed:
                    a7:1b:d9:ed:09:c4:1b:e3:04:91:ce:ae:3f:8b:de:
                    a0:e2:d7:c6:e9:9b:e9:bf:d7:f3:0f:b7:64:4e:a3:
                    8c:e7:b1:e7:48:c7:e3:04:f6:0b:27:78:89:3e:d6:
                    b3:02:7c:b4:04:69:43:cb:9a:29:f7:3b:fd:db:25:
                    56:1c:00:df:36:cd:31:00:e5:46:a9:23:f4:b6:f2:
                    7f:38:4b:ae:51:c4:7c:3e:b1:ec:a4:a4:62:bb:aa:
                    79:d8:58:4d:d9:41:52:b8:46:cd:cb:f5:f2:e1:18:
                    72:f2:dc:78:0e:ad:1c:7c:17:12:1b:4a:fb:39:e3:
                    ca:c2:5f:4f:6f:f4:f1:2c:b7:f0:41:1c:ec:41:4c:
                    56:b6:32:84:1a:51:5a:bf:8c:4c:aa:2b:29:6b:08:
                    76:db:07:fc:93:d8:72:5e:f5:e5:68:91:23:47:5b:
                    43:92:7b:e7:87:a3:7e:91:63:a1:6f:56:04:cf:15:
                    2e:21:29:ce:ef:8b:29:e6:2a:2b:e7:3d:32:c5:73:
                    b3:cd
                Exponent: 65537 (0x10001)
        X509v3 extensions:
            Netscape Cert Type: 
                SSL Server
            X509v3 Subject Key Identifier: 
                6C:5B:50:4F:16:05:BB:D0:35:A2:3E:85:9E:88:1E:94:B8:F8:27:0A
            X509v3 Authority Key Identifier: 
                keyid:02:88:18:65:DF:25:91:21:D4:0A:68:78:D6:38:A0:5F:8F:17:1E:D3
                DirName:/CN=OCSP_CATWO/ST=KA/C=IN/emailAddress=ocspcatwo@ocsptesting.com/O=CITRIX
                serial:95:45:0F:EB:FA:5E:01:F6

            Authority Information Access: 
                OCSP - URI:http://ashoke.ocsp_catwo.citrite.net/responderpath

    Signature Algorithm: sha1WithRSAEncryption
         97:4b:cc:c9:bf:b0:ca:3e:02:7c:25:7d:8d:7e:d2:56:1f:b3:
         5b:26:7f:62:af:69:de:a1:21:f8:63:85:82:6f:9e:72:42:a6:
         dd:2d:49:ac:bd:a8:8c:ce:56:95:2b:ba:9f:c1:70:98:1c:57:
         af:3e:9d:8e:f8:d9:1b:74:c2:b4:a3:8f:f5:e1:f0:e0:ec:47:
         a2:37:66:40:13:cd:c7:9a:5a:4f:7e:90:56:20:be:2a:dd:cb:
         35:7b:59:b6:03:6c:3e:bd:c5:2c:16:1e:e6:07:ec:0a:7b:79:
         af:71:57:37:ef:f1:c8:45:4b:91:0c:11:07:62:4b:8f:0f:07:
         37:f5:8d:7f:ba:f5:6a:57:7d:f5:ed:cf:c6:00:76:ba:01:a1:
         25:d5:45:14:c4:57:eb:a6:16:10:86:f9:25:57:af:cc:1d:25:
         06:b5:20:74:de:4b:7e:63:89:cb:56:24:b1:2c:ae:da:b4:84:
         9a:25:d2:6d:5c:1e:65:ff:53:3d:18:cc:18:55:01:c1:1f:5c:
         d8:d0:69:38:05:74:94:4e:f7:0c:8f:55:8c:99:9e:09:7f:07:
         ee:96:13:90:86:3b:1f:39:b2:f8:bc:97:49:9c:a8:78:6c:48:
         80:b8:7d:48:6e:4d:c5:e4:93:14:84:f0:25:f5:0e:51:d8:fb:
         4b:ec:7b:33
-----BEGIN CERTIFICATE-----
MIIEhTCCA22gAwIBAgIGCgsMDQ47MA0GCSqGSIb3DQEBBQUAMGoxEzARBgNVBAMU
Ck9DU1BfQ0FUV08xCzAJBgNVBAgTAktBMQswCQYDVQQGEwJJTjEoMCYGCSqGSIb3
DQEJARYZb2NzcGNhdHdvQG9jc3B0ZXN0aW5nLmNvbTEPMA0GA1UEChMGQ0lUUklY
MB4XDTE2MDYyODAwNTczOVoXDTI2MDYyNjAwNTczOVowdDELMAkGA1UECBMCS0Ex
CzAJBgNVBAYTAklOMR0wGwYDVQQDFBRvY3NwY2F0d29fMDMxX3NlcnZlcjEoMCYG
CSqGSIb3DQEJARYZb2NzcGNhdHdvXzAzMUB0ZXN0X2NhLmNvbTEPMA0GA1UEChMG
Q0lUUklYMIIBIjANBgkqhkiG9w0BAQEFAAOCAQ8AMIIBCgKCAQEAxxpEDnlpQHRx
v6HLfZb2XrNFxyICjR4oGQofuFlYFFJLBX0kisLQGhMgZHYsGu82dAPnJ4mSGALJ
g+2nG9ntCcQb4wSRzq4/i96g4tfG6Zvpv9fzD7dkTqOM57HnSMfjBPYLJ3iJPtaz
Any0BGlDy5op9zv92yVWHADfNs0xAOVGqSP0tvJ/OEuuUcR8PrHspKRiu6p52FhN
2UFSuEbNy/Xy4Rhy8tx4Dq0cfBcSG0r7OePKwl9Pb/TxLLfwQRzsQUxWtjKEGlFa
v4xMqispawh22wf8k9hyXvXlaJEjR1tDknvnh6N+kWOhb1YEzxUuISnO74sp5ior
5z0yxXOzzQIDAQABo4IBJTCCASEwEQYJYIZIAYb4QgEBBAQDAgZAMB0GA1UdDgQW
BBRsW1BPFgW70DWiPoWeiB6UuPgnCjCBnAYDVR0jBIGUMIGRgBQCiBhl3yWRIdQK
aHjWOKBfjxce06FupGwwajETMBEGA1UEAxQKT0NTUF9DQVRXTzELMAkGA1UECBMC
S0ExCzAJBgNVBAYTAklOMSgwJgYJKoZIhvcNAQkBFhlvY3NwY2F0d29Ab2NzcHRl
c3RpbmcuY29tMQ8wDQYDVQQKEwZDSVRSSViCCQCVRQ/r+l4B9jBOBggrBgEFBQcB
AQRCMEAwPgYIKwYBBQUHMAGGMmh0dHA6Ly9hc2hva2Uub2NzcF9jYXR3by5jaXRy
aXRlLm5ldC9yZXNwb25kZXJwYXRoMA0GCSqGSIb3DQEBBQUAA4IBAQCXS8zJv7DK
PgJ8JX2NftJWH7NbJn9ir2neoSH4Y4WCb55yQqbdLUmsvaiMzlaVK7qfwXCYHFev
Pp2O+NkbdMK0o4/14fDg7EeiN2ZAE83HmlpPfpBWIL4q3cs1e1m2A2w+vcUsFh7m
B+wKe3mvcVc37/HIRUuRDBEHYkuPDwc39Y1/uvVqV3317c/GAHa6AaEl1UUUxFfr
phYQhvklV6/MHSUGtSB03kt+Y4nLViSxLK7atISaJdJtXB5l/1M9GMwYVQHBH1zY
0Gk4BXSUTvcMj1WMmZ4JfwfulhOQhjsfObL4vJdJnKh4bEiAuH1Ibk3F5JMUhPAl
9Q5R2PtL7Hsz
-----END CERTIFICATE-----
