Certificate:
    Data:
        Version: 3 (0x2)
        Serial Number: 1108152289058 (0x10203060722)
    Signature Algorithm: sha256WithRSAEncryption
        Issuer: CN=OCSP_CAONE, ST=KA, C=IN/emailAddress=ocsp_caone@ocsptest.com, O=CITRIX
        Validity
            Not Before: Jun 27 02:31:35 2016 GMT
            Not After : Jun 25 02:31:35 2026 GMT
        Subject: ST=KA, C=IN, CN=ocsp_caone_server_four_server/emailAddress=ocsp_caone_server_four@test_ca.com, O=CITRIX
        Subject Public Key Info:
            Public Key Algorithm: rsaEncryption
                Public-Key: (2048 bit)
                Modulus:
                    00:e1:6f:00:35:de:2f:04:79:25:f1:ff:fd:8e:9a:
                    87:4c:8f:be:47:cf:c5:84:60:e1:27:1d:fe:90:7a:
                    98:2f:f2:46:38:f1:c4:04:1b:31:5d:24:20:18:63:
                    d0:22:79:ce:dd:7d:14:b5:4e:4c:62:6b:8a:fe:90:
                    99:90:03:bf:78:71:49:b8:46:2c:8f:48:89:fa:86:
                    d5:ba:dd:30:86:bd:41:3f:e4:5d:c3:26:c0:02:39:
                    57:98:f3:bf:93:1b:ad:b5:11:62:8d:35:c9:5b:04:
                    b6:1b:21:f0:73:fc:82:dc:d1:33:82:d4:44:97:4f:
                    b7:78:c3:31:3b:c3:90:6b:15:ea:ae:0f:16:c1:fe:
                    f8:0a:11:3c:76:56:04:8c:fb:86:a0:bd:79:9a:ee:
                    cd:80:e0:d3:e1:c8:1a:2d:8e:bf:01:aa:cc:a7:22:
                    91:f4:ae:3f:ba:20:38:94:cf:05:f6:e0:3f:9c:65:
                    de:3e:0f:99:45:6a:d6:f2:2f:f0:34:42:e7:88:1f:
                    b9:01:40:5e:1f:7f:3f:5b:7d:4e:52:5b:41:04:e5:
                    31:3d:bd:a2:65:e3:90:38:24:d8:8b:19:0a:0c:94:
                    f8:0e:3c:8a:e7:1c:bb:8a:6c:87:cb:74:3b:fb:9f:
                    f0:1f:89:03:32:79:00:b9:ea:34:1d:83:08:ad:e8:
                    30:5f
                Exponent: 65537 (0x10001)
        X509v3 extensions:
            Netscape Cert Type: 
                SSL Server
            X509v3 Subject Key Identifier: 
                40:31:37:96:66:EB:91:21:83:D8:02:88:8D:00:E8:FD:A3:B2:96:F1
            X509v3 Authority Key Identifier: 
                keyid:B7:5F:A4:77:93:33:C4:32:94:1C:8E:F1:0C:3B:DE:62:5E:E2:96:0E
                DirName:/CN=OCSP_CAONE/ST=KA/C=IN/emailAddress=ocsp_caone@ocsptest.com/O=CITRIX
                serial:A2:D9:70:A5:7D:CC:76:E4

            Authority Information Access: 
                OCSP - URI:http://ashoke_2__ocsp_caone.citrite.net/responderpath

    Signature Algorithm: sha256WithRSAEncryption
         06:30:65:b3:57:c0:29:d1:58:f7:b1:5a:0e:0b:39:c9:1a:74:
         e9:82:9e:bb:10:54:21:b4:73:86:cc:81:ae:52:05:9c:a2:e6:
         ec:84:d7:d5:b1:e7:2c:6f:61:b7:96:e7:d3:32:67:b0:3a:8c:
         36:53:3c:76:1e:63:19:a1:a0:b9:24:f5:84:a9:ba:38:b4:6e:
         35:b7:67:31:bd:ef:71:4a:20:b4:df:32:af:cc:7c:80:69:c7:
         9e:36:17:86:f5:4f:6c:a4:46:92:da:fe:ce:86:f7:dc:04:f8:
         01:5d:27:6c:ce:7d:8f:ff:e0:b4:a5:2e:90:f3:8b:5a:b2:3f:
         4e:d0:5d:3d:de:3c:be:b0:e1:c3:ed:81:bd:11:9a:76:53:06:
         96:03:ae:fb:ac:4d:30:ae:08:31:6d:3f:ad:4f:a0:a3:53:33:
         22:f1:cf:80:88:5c:d9:e0:e1:be:9c:ea:3b:f0:30:d0:07:1e:
         21:63:f3:02:b4:1a:bd:b6:ab:dc:22:45:46:77:f0:5f:3a:33:
         71:7a:72:2b:3c:08:d4:39:54:cc:cf:43:20:b4:11:61:8b:db:
         fe:89:fb:0b:78:36:1f:2e:cb:de:20:84:55:0c:3c:f9:95:88:
         5b:18:14:a9:4b:29:9c:54:89:28:8c:8f:3c:cf:c5:32:c5:6c:
         d6:14:6b:21
-----BEGIN CERTIFICATE-----
MIIElzCCA3+gAwIBAgIGAQIDBgciMA0GCSqGSIb3DQEBCwUAMGgxEzARBgNVBAMU
Ck9DU1BfQ0FPTkUxCzAJBgNVBAgTAktBMQswCQYDVQQGEwJJTjEmMCQGCSqGSIb3
DQEJARYXb2NzcF9jYW9uZUBvY3NwdGVzdC5jb20xDzANBgNVBAoTBkNJVFJJWDAe
Fw0xNjA2MjcwMjMxMzVaFw0yNjA2MjUwMjMxMzVaMIGGMQswCQYDVQQIEwJLQTEL
MAkGA1UEBhMCSU4xJjAkBgNVBAMUHW9jc3BfY2FvbmVfc2VydmVyX2ZvdXJfc2Vy
dmVyMTEwLwYJKoZIhvcNAQkBFiJvY3NwX2Nhb25lX3NlcnZlcl9mb3VyQHRlc3Rf
Y2EuY29tMQ8wDQYDVQQKEwZDSVRSSVgwggEiMA0GCSqGSIb3DQEBAQUAA4IBDwAw
ggEKAoIBAQDhbwA13i8EeSXx//2OmodMj75Hz8WEYOEnHf6Qepgv8kY48cQEGzFd
JCAYY9Aiec7dfRS1Tkxia4r+kJmQA794cUm4RiyPSIn6htW63TCGvUE/5F3DJsAC
OVeY87+TG621EWKNNclbBLYbIfBz/ILc0TOC1ESXT7d4wzE7w5BrFequDxbB/vgK
ETx2VgSM+4agvXma7s2A4NPhyBotjr8BqsynIpH0rj+6IDiUzwX24D+cZd4+D5lF
atbyL/A0QueIH7kBQF4ffz9bfU5SW0EE5TE9vaJl45A4JNiLGQoMlPgOPIrnHLuK
bIfLdDv7n/AfiQMyeQC56jQdgwit6DBfAgMBAAGjggEmMIIBIjARBglghkgBhvhC
AQEEBAMCBkAwHQYDVR0OBBYEFEAxN5Zm65Ehg9gCiI0A6P2jspbxMIGaBgNVHSME
gZIwgY+AFLdfpHeTM8QylByO8Qw73mJe4pYOoWykajBoMRMwEQYDVQQDFApPQ1NQ
X0NBT05FMQswCQYDVQQIEwJLQTELMAkGA1UEBhMCSU4xJjAkBgkqhkiG9w0BCQEW
F29jc3BfY2FvbmVAb2NzcHRlc3QuY29tMQ8wDQYDVQQKEwZDSVRSSViCCQCi2XCl
fcx25DBRBggrBgEFBQcBAQRFMEMwQQYIKwYBBQUHMAGGNWh0dHA6Ly9hc2hva2Vf
Ml9fb2NzcF9jYW9uZS5jaXRyaXRlLm5ldC9yZXNwb25kZXJwYXRoMA0GCSqGSIb3
DQEBCwUAA4IBAQAGMGWzV8Ap0Vj3sVoOCznJGnTpgp67EFQhtHOGzIGuUgWcoubs
hNfVsecsb2G3lufTMmewOow2Uzx2HmMZoaC5JPWEqbo4tG41t2cxve9xSiC03zKv
zHyAaceeNheG9U9spEaS2v7OhvfcBPgBXSdszn2P/+C0pS6Q84tasj9O0F093jy+
sOHD7YG9EZp2UwaWA677rE0wrggxbT+tT6CjUzMi8c+AiFzZ4OG+nOo78DDQBx4h
Y/MCtBq9tqvcIkVGd/BfOjNxenIrPAjUOVTMz0MgtBFhi9v+ifsLeDYfLsveIIRV
DDz5lYhbGBSpSymcVIkojI88z8UyxWzWFGsh
-----END CERTIFICATE-----
