Certificate:
    Data:
        Version: 3 (0x2)
        Serial Number: 1108152289056 (0x10203060720)
    Signature Algorithm: sha256WithRSAEncryption
        Issuer: CN=OCSP_CAONE, ST=KA, C=IN/emailAddress=ocsp_caone@ocsptest.com, O=CITRIX
        Validity
            Not Before: Jun 27 02:03:27 2016 GMT
            Not After : Jun 25 02:03:27 2026 GMT
        Subject: ST=KA, C=IN, CN=ocsp_caone_server_two_server/emailAddress=ocsp_caone_server_two@test_ca.com, O=CITRIX
        Subject Public Key Info:
            Public Key Algorithm: rsaEncryption
                Public-Key: (2048 bit)
                Modulus:
                    00:c3:10:cb:e1:5d:cb:45:13:82:44:84:f1:49:66:
                    a2:0b:d9:c1:9b:34:fe:21:e7:00:1d:d7:92:7d:30:
                    75:20:36:eb:c5:2c:01:c0:cf:08:76:3a:7e:37:e7:
                    a7:fa:d7:97:cb:3d:8d:02:d5:f3:61:0b:ff:a4:3e:
                    bd:57:b1:8c:af:72:44:83:37:bb:36:5a:7a:78:88:
                    ba:51:2c:2c:ab:4e:65:78:3b:30:a2:ee:9c:1d:0d:
                    51:b6:f5:f7:54:91:04:53:f1:14:d4:6c:95:a0:a8:
                    87:31:2e:bc:21:14:99:1f:93:09:1a:d1:0b:97:48:
                    d6:16:13:78:65:3c:28:7e:b7:69:ec:af:f2:f7:60:
                    01:05:96:c9:ea:1b:98:50:e7:3d:7a:59:8d:40:2d:
                    ae:f5:7d:1c:68:e8:d6:33:22:9d:22:1b:4d:92:01:
                    21:c4:b3:4d:ec:24:37:9c:1e:df:ab:31:6f:fb:a2:
                    0c:6e:7c:5f:a7:2a:ee:1b:1f:2b:55:32:6f:05:d4:
                    88:6c:10:b8:0b:53:82:6a:e9:12:f0:50:f6:79:9a:
                    a3:97:08:f9:bf:38:ae:cf:72:90:2b:20:13:ac:04:
                    05:ce:32:e8:f2:87:da:d4:c5:e1:2b:b0:a6:f1:6b:
                    1c:62:b2:cd:e1:ed:db:99:b4:16:39:49:54:b4:90:
                    5d:8b
                Exponent: 65537 (0x10001)
        X509v3 extensions:
            Netscape Cert Type: 
                SSL Server
            X509v3 Subject Key Identifier: 
                37:FB:16:92:FF:98:27:69:D4:D9:54:A5:F9:8F:2B:4A:DE:D8:F6:B7
            X509v3 Authority Key Identifier: 
                keyid:B7:5F:A4:77:93:33:C4:32:94:1C:8E:F1:0C:3B:DE:62:5E:E2:96:0E
                DirName:/CN=OCSP_CAONE/ST=KA/C=IN/emailAddress=ocsp_caone@ocsptest.com/O=CITRIX
                serial:A2:D9:70:A5:7D:CC:76:E4

            Authority Information Access: 
                OCSP - URI:http://ashoke_ocsp_caone.citrite.net/responderpath

    Signature Algorithm: sha256WithRSAEncryption
         a2:4f:36:21:b4:0d:c5:6d:8d:97:52:e0:64:ba:4b:cc:69:c8:
         e4:25:83:58:4f:1f:fd:39:c1:fe:6c:77:5b:fe:54:e3:40:80:
         b6:d3:2f:1b:5d:f6:84:10:72:d3:a5:1c:69:9a:1b:96:ac:55:
         db:a9:0f:bc:44:8c:39:e3:57:b4:61:91:08:c8:25:88:41:c5:
         e5:8a:b1:51:22:c1:a3:cb:d9:d2:9b:6b:d6:5e:59:0a:f7:29:
         01:9f:25:10:9f:9e:80:b1:c0:17:5b:5e:49:a6:81:8a:b1:54:
         d8:80:3b:0d:83:14:fd:a8:4e:1a:1c:8e:0e:ea:af:ba:d5:a1:
         06:61:b9:c6:42:00:97:d0:34:4d:da:ef:a4:c7:8f:39:19:bb:
         43:21:c1:52:40:44:68:8e:0a:98:3e:ab:53:79:e0:4f:e5:d6:
         fb:db:e0:f6:a4:f0:89:5e:97:26:d7:b1:2f:07:b8:87:a5:a2:
         77:cd:6e:f8:ce:5c:bf:60:a2:e2:0f:00:1e:6d:33:e0:14:ee:
         e9:f6:9a:d9:90:0f:55:dc:c1:c8:02:45:6a:e1:58:ee:45:46:
         af:2a:76:1e:8b:71:3e:e7:f1:7e:94:1c:77:58:6d:f8:cf:32:
         4d:9f:3d:82:b9:e0:b2:ca:d2:b8:e3:bd:32:7d:cd:b5:ae:f8:
         be:5a:b3:ea
-----BEGIN CERTIFICATE-----
MIIEkjCCA3qgAwIBAgIGAQIDBgcgMA0GCSqGSIb3DQEBCwUAMGgxEzARBgNVBAMU
Ck9DU1BfQ0FPTkUxCzAJBgNVBAgTAktBMQswCQYDVQQGEwJJTjEmMCQGCSqGSIb3
DQEJARYXb2NzcF9jYW9uZUBvY3NwdGVzdC5jb20xDzANBgNVBAoTBkNJVFJJWDAe
Fw0xNjA2MjcwMjAzMjdaFw0yNjA2MjUwMjAzMjdaMIGEMQswCQYDVQQIEwJLQTEL
MAkGA1UEBhMCSU4xJTAjBgNVBAMUHG9jc3BfY2FvbmVfc2VydmVyX3R3b19zZXJ2
ZXIxMDAuBgkqhkiG9w0BCQEWIW9jc3BfY2FvbmVfc2VydmVyX3R3b0B0ZXN0X2Nh
LmNvbTEPMA0GA1UEChMGQ0lUUklYMIIBIjANBgkqhkiG9w0BAQEFAAOCAQ8AMIIB
CgKCAQEAwxDL4V3LRROCRITxSWaiC9nBmzT+IecAHdeSfTB1IDbrxSwBwM8Idjp+
N+en+teXyz2NAtXzYQv/pD69V7GMr3JEgze7Nlp6eIi6USwsq05leDswou6cHQ1R
tvX3VJEEU/EU1GyVoKiHMS68IRSZH5MJGtELl0jWFhN4ZTwofrdp7K/y92ABBZbJ
6huYUOc9elmNQC2u9X0caOjWMyKdIhtNkgEhxLNN7CQ3nB7fqzFv+6IMbnxfpyru
Gx8rVTJvBdSIbBC4C1OCaukS8FD2eZqjlwj5vziuz3KQKyATrAQFzjLo8ofa1MXh
K7Cm8WscYrLN4e3bmbQWOUlUtJBdiwIDAQABo4IBIzCCAR8wEQYJYIZIAYb4QgEB
BAQDAgZAMB0GA1UdDgQWBBQ3+xaS/5gnadTZVKX5jytK3tj2tzCBmgYDVR0jBIGS
MIGPgBS3X6R3kzPEMpQcjvEMO95iXuKWDqFspGowaDETMBEGA1UEAxQKT0NTUF9D
QU9ORTELMAkGA1UECBMCS0ExCzAJBgNVBAYTAklOMSYwJAYJKoZIhvcNAQkBFhdv
Y3NwX2Nhb25lQG9jc3B0ZXN0LmNvbTEPMA0GA1UEChMGQ0lUUklYggkAotlwpX3M
duQwTgYIKwYBBQUHAQEEQjBAMD4GCCsGAQUFBzABhjJodHRwOi8vYXNob2tlX29j
c3BfY2FvbmUuY2l0cml0ZS5uZXQvcmVzcG9uZGVycGF0aDANBgkqhkiG9w0BAQsF
AAOCAQEAok82IbQNxW2Nl1LgZLpLzGnI5CWDWE8f/TnB/mx3W/5U40CAttMvG132
hBBy06UcaZoblqxV26kPvESMOeNXtGGRCMgliEHF5YqxUSLBo8vZ0ptr1l5ZCvcp
AZ8lEJ+egLHAF1teSaaBirFU2IA7DYMU/ahOGhyODuqvutWhBmG5xkIAl9A0Tdrv
pMePORm7QyHBUkBEaI4KmD6rU3ngT+XW+9vg9qTwiV6XJtexLwe4h6Wid81u+M5c
v2Ci4g8AHm0z4BTu6faa2ZAPVdzByAJFauFY7kVGryp2HotxPufxfpQcd1ht+M8y
TZ89grngssrSuOO9Mn3Nta74vlqz6g==
-----END CERTIFICATE-----
