Certificate:
    Data:
        Version: 3 (0x2)
        Serial Number:
            0b:0c:0d:01:02:03:04:05:06:07:08:09:0b
    Signature Algorithm: sha1WithRSAEncryption
        Issuer: CN=OCSP_CATHREE, ST=KA, C=IN/emailAddress=ocspcathree@ocsptesting.com, O=CITRIX
        Validity
            Not Before: Jun 28 01:08:57 2016 GMT
            Not After : Jun 26 01:08:57 2026 GMT
        Subject: ST=KA, C=IN, CN=ocspcathree_002_server/emailAddress=ocspcathree_002@test_ca.com, O=CITRIX
        Subject Public Key Info:
            Public Key Algorithm: rsaEncryption
                Public-Key: (2048 bit)
                Modulus:
                    00:e4:0c:22:b7:5d:37:bf:6c:84:74:30:35:3b:fa:
                    cf:c4:bb:d1:09:40:9c:51:39:c7:ce:99:e4:9f:3d:
                    ce:45:da:bf:62:98:bf:89:98:82:f1:42:31:a2:f1:
                    7f:b9:3f:d0:8d:51:50:4f:18:a7:23:9e:5f:1c:a7:
                    0c:9d:59:72:61:51:b6:00:e0:82:83:14:cf:d3:a3:
                    4f:5b:8e:84:2a:ed:2c:35:4d:8b:48:07:0b:59:44:
                    77:b1:1f:78:45:8b:0c:7d:e8:dc:c4:e3:7d:ad:a2:
                    c2:78:d1:9c:d5:60:10:b7:de:00:d0:41:a7:4e:22:
                    d2:09:ea:4e:df:ac:17:83:c0:99:99:ed:06:08:bf:
                    16:07:31:e3:77:c7:62:b1:07:eb:8f:43:97:0c:bb:
                    01:a1:e1:18:72:dd:2b:12:00:9e:06:fd:6b:a1:c1:
                    b2:d3:c5:2c:8e:f0:e4:6f:29:c4:9c:29:22:e5:15:
                    84:10:89:3b:65:56:ff:f0:0b:cc:2c:3a:c2:3e:18:
                    66:ed:c9:67:97:21:09:18:40:70:73:77:9b:62:67:
                    0b:5f:a1:0f:85:5e:33:07:27:60:8d:e0:67:07:12:
                    61:88:d7:bb:30:1e:2e:7d:1c:85:e6:0e:5a:41:2c:
                    7b:3b:9e:04:b0:ee:0a:1a:1f:31:45:dc:a6:64:ca:
                    dc:c9
                Exponent: 65537 (0x10001)
        X509v3 extensions:
            Netscape Cert Type: 
                SSL Server
            X509v3 Subject Key Identifier: 
                81:B9:C5:5D:E1:DD:48:69:AB:13:6C:11:D5:9A:D9:59:3A:59:AC:A0
            X509v3 Authority Key Identifier: 
                keyid:96:54:A1:BC:07:1C:EF:D7:86:C2:A1:CD:13:A7:F6:9B:22:D8:59:81
                DirName:/CN=OCSP_CATHREE/ST=KA/C=IN/emailAddress=ocspcathree@ocsptesting.com/O=CITRIX
                serial:C1:1F:31:B0:75:6E:FF:4F

            Authority Information Access: 
                OCSP - URI:http://s2.ocsp_cathree.citrite.net/responderpath

    Signature Algorithm: sha1WithRSAEncryption
         18:f9:24:01:9b:c4:71:7b:e8:52:84:59:7f:26:54:48:21:0a:
         4e:de:6c:bb:e1:92:d4:73:72:d5:eb:cd:d5:5f:9a:d8:c6:af:
         e8:b1:88:82:e8:ba:6c:67:a9:14:1a:63:45:dd:82:e6:ab:1f:
         f8:96:50:72:7d:95:49:3d:22:f8:5c:86:d6:36:f8:4e:a0:7b:
         8d:b8:de:84:23:c9:7d:aa:a7:5c:4c:d4:9b:7d:70:89:a1:df:
         63:58:de:71:ca:16:73:ce:f0:6f:7f:20:97:42:73:13:dc:49:
         48:91:d3:3b:23:ba:c3:43:42:95:3d:d3:4b:32:a7:5f:55:3b:
         9c:44:d9:6a:0b:d5:c8:3b:72:10:10:c5:c1:d6:57:f9:65:3d:
         b0:7d:52:1d:f0:91:9c:04:72:4c:b3:a0:90:c7:37:42:bb:c9:
         cd:8a:e9:d3:cd:7f:17:35:a9:37:6d:04:4f:0d:56:a2:68:2a:
         b6:ac:a1:37:47:f7:64:4b:9e:ab:49:96:27:94:f0:e9:1f:c7:
         d5:c2:77:88:70:70:a9:14:59:bb:36:4f:3e:10:9b:53:d6:c3:
         cb:0c:7a:55:f2:be:5b:39:54:c1:09:60:28:79:b1:00:f9:5d:
         26:b9:76:ba:6b:2a:96:10:20:6f:eb:da:7b:e6:98:11:05:de:
         8f:0b:a1:7b
-----BEGIN CERTIFICATE-----
MIIEljCCA36gAwIBAgINCwwNAQIDBAUGBwgJCzANBgkqhkiG9w0BAQUFADBuMRUw
EwYDVQQDFAxPQ1NQX0NBVEhSRUUxCzAJBgNVBAgTAktBMQswCQYDVQQGEwJJTjEq
MCgGCSqGSIb3DQEJARYbb2NzcGNhdGhyZWVAb2NzcHRlc3RpbmcuY29tMQ8wDQYD
VQQKEwZDSVRSSVgwHhcNMTYwNjI4MDEwODU3WhcNMjYwNjI2MDEwODU3WjB4MQsw
CQYDVQQIEwJLQTELMAkGA1UEBhMCSU4xHzAdBgNVBAMUFm9jc3BjYXRocmVlXzAw
Ml9zZXJ2ZXIxKjAoBgkqhkiG9w0BCQEWG29jc3BjYXRocmVlXzAwMkB0ZXN0X2Nh
LmNvbTEPMA0GA1UEChMGQ0lUUklYMIIBIjANBgkqhkiG9w0BAQEFAAOCAQ8AMIIB
CgKCAQEA5Awit103v2yEdDA1O/rPxLvRCUCcUTnHzpnknz3ORdq/Ypi/iZiC8UIx
ovF/uT/QjVFQTxinI55fHKcMnVlyYVG2AOCCgxTP06NPW46EKu0sNU2LSAcLWUR3
sR94RYsMfejcxON9raLCeNGc1WAQt94A0EGnTiLSCepO36wXg8CZme0GCL8WBzHj
d8disQfrj0OXDLsBoeEYct0rEgCeBv1rocGy08UsjvDkbynEnCki5RWEEIk7ZVb/
8AvMLDrCPhhm7clnlyEJGEBwc3ebYmcLX6EPhV4zBydgjeBnBxJhiNe7MB4ufRyF
5g5aQSx7O54EsO4KGh8xRdymZMrcyQIDAQABo4IBJzCCASMwEQYJYIZIAYb4QgEB
BAQDAgZAMB0GA1UdDgQWBBSBucVd4d1IaasTbBHVmtlZOlmsoDCBoAYDVR0jBIGY
MIGVgBSWVKG8Bxzv14bCoc0Tp/abIthZgaFypHAwbjEVMBMGA1UEAxQMT0NTUF9D
QVRIUkVFMQswCQYDVQQIEwJLQTELMAkGA1UEBhMCSU4xKjAoBgkqhkiG9w0BCQEW
G29jc3BjYXRocmVlQG9jc3B0ZXN0aW5nLmNvbTEPMA0GA1UEChMGQ0lUUklYggkA
wR8xsHVu/08wTAYIKwYBBQUHAQEEQDA+MDwGCCsGAQUFBzABhjBodHRwOi8vczIu
b2NzcF9jYXRocmVlLmNpdHJpdGUubmV0L3Jlc3BvbmRlcnBhdGgwDQYJKoZIhvcN
AQEFBQADggEBABj5JAGbxHF76FKEWX8mVEghCk7ebLvhktRzctXrzdVfmtjGr+ix
iILoumxnqRQaY0XdguarH/iWUHJ9lUk9IvhchtY2+E6ge4243oQjyX2qp1xM1Jt9
cImh32NY3nHKFnPO8G9/IJdCcxPcSUiR0zsjusNDQpU900syp19VO5xE2WoL1cg7
chAQxcHWV/llPbB9Uh3wkZwEckyzoJDHN0K7yc2K6dPNfxc1qTdtBE8NVqJoKras
oTdH92RLnqtJlieU8Okfx9XCd4hwcKkUWbs2Tz4Qm1PWw8sMelXyvls5VMEJYCh5
sQD5XSa5drprKpYQIG/r2nvmmBEF3o8LoXs=
-----END CERTIFICATE-----
