Certificate:
    Data:
        Version: 3 (0x2)
        Serial Number: 11042563100190 (0xa0b0c0d0e1e)
    Signature Algorithm: sha1WithRSAEncryption
        Issuer: CN=OCSP_CATWO, ST=KA, C=IN/emailAddress=ocspcatwo@ocsptesting.com, O=CITRIX
        Validity
            Not Before: Jun 28 00:49:27 2016 GMT
            Not After : Jun 26 00:49:27 2026 GMT
        Subject: ST=KA, C=IN, CN=002_server/emailAddress=002@test_ca.com, O=CITRIX
        Subject Public Key Info:
            Public Key Algorithm: rsaEncryption
                Public-Key: (2048 bit)
                Modulus:
                    00:d5:c1:80:01:24:bb:99:59:80:f0:7f:48:b0:2c:
                    bf:60:c1:04:1a:1a:47:89:73:1d:23:27:d4:0d:97:
                    8a:67:76:ec:83:1f:8e:28:d3:67:b1:b0:37:81:e7:
                    fc:b5:25:3f:d1:4c:b4:df:38:1a:8e:5a:d0:3f:cb:
                    dc:cd:c1:91:e2:21:0f:af:95:3e:93:35:44:45:5d:
                    35:33:48:db:fb:c8:d2:0f:ef:b0:94:22:4c:e8:d1:
                    6a:3a:77:87:77:16:7c:a4:e6:f6:a9:f2:3f:db:43:
                    f6:af:ba:45:33:37:e5:b2:71:c4:06:7d:13:6c:68:
                    36:28:e3:57:54:c9:e1:93:04:2b:0e:83:71:41:82:
                    27:4a:65:ac:33:0a:81:67:68:0d:53:6c:8e:c4:09:
                    9f:d4:ea:4e:c0:b6:ed:05:6c:0f:70:ed:1e:17:f0:
                    41:c6:aa:82:17:41:09:7b:df:39:cd:23:e0:7f:67:
                    03:34:87:7e:0c:c1:29:04:bf:ca:a5:39:69:4e:06:
                    56:c1:01:96:7e:dd:38:1b:06:2f:b3:1b:a1:05:35:
                    51:a5:6a:ce:a6:bd:8b:85:33:ed:f5:e8:f6:1b:b4:
                    63:31:f4:54:3a:34:99:c4:7d:e1:14:39:fd:da:78:
                    e8:7a:43:9c:2b:6f:b0:64:b5:b4:b7:88:80:49:22:
                    b1:5f
                Exponent: 65537 (0x10001)
        X509v3 extensions:
            Netscape Cert Type: 
                SSL Server
            X509v3 Subject Key Identifier: 
                A1:9E:61:50:8E:D7:A0:BA:FD:D0:39:B0:0D:94:57:6B:7E:76:55:90
            X509v3 Authority Key Identifier: 
                keyid:02:88:18:65:DF:25:91:21:D4:0A:68:78:D6:38:A0:5F:8F:17:1E:D3
                DirName:/CN=OCSP_CATWO/ST=KA/C=IN/emailAddress=ocspcatwo@ocsptesting.com/O=CITRIX
                serial:95:45:0F:EB:FA:5E:01:F6

            Authority Information Access: 
                OCSP - URI:http://172.18.10.21/responderpath

    Signature Algorithm: sha1WithRSAEncryption
         4a:fe:0b:1c:87:b3:f4:5b:c7:6c:e6:59:f6:c9:c8:08:0b:e5:
         e0:fe:a8:d4:1a:64:58:c3:fb:17:ff:ee:1a:f2:41:f7:53:92:
         c7:e2:d2:f7:93:31:c1:8c:5e:97:db:45:f5:9e:33:f7:0c:10:
         d0:6c:68:08:5b:5b:3a:f2:3a:56:6c:44:0e:8b:b1:ce:05:2f:
         35:0e:da:1f:5e:2c:09:18:bf:97:c8:ab:7a:74:6e:c1:f1:59:
         a1:4b:80:2a:9f:54:63:e0:1f:b7:5e:c8:16:1d:74:52:87:e2:
         37:99:a4:5f:25:7f:1a:15:6b:cd:05:13:9b:7c:1e:50:af:e9:
         21:5d:c4:62:dc:c2:fa:fe:a7:ed:b6:4c:d6:11:b0:a3:47:48:
         f5:76:ae:05:a8:6b:3a:56:ea:cf:fc:ac:08:5a:24:24:6a:76:
         e3:c1:72:a2:bc:65:3b:a2:e2:a1:bf:1c:e6:02:c9:37:52:74:
         a2:b3:70:51:4a:cb:7c:a1:67:e3:98:55:1e:50:e5:21:73:8b:
         6a:16:46:cd:98:f9:86:a3:c3:f6:1c:f9:5e:99:f3:68:b5:4e:
         88:c7:bd:4c:40:2a:fc:53:c3:94:1e:6f:80:49:e3:df:8b:42:
         e0:cd:f9:bb:a4:b4:bd:05:60:83:8c:ca:ac:61:46:8f:f3:81:
         f4:1a:dc:95
-----BEGIN CERTIFICATE-----
MIIEYDCCA0igAwIBAgIGCgsMDQ4eMA0GCSqGSIb3DQEBBQUAMGoxEzARBgNVBAMU
Ck9DU1BfQ0FUV08xCzAJBgNVBAgTAktBMQswCQYDVQQGEwJJTjEoMCYGCSqGSIb3
DQEJARYZb2NzcGNhdHdvQG9jc3B0ZXN0aW5nLmNvbTEPMA0GA1UEChMGQ0lUUklY
MB4XDTE2MDYyODAwNDkyN1oXDTI2MDYyNjAwNDkyN1owYDELMAkGA1UECBMCS0Ex
CzAJBgNVBAYTAklOMRMwEQYDVQQDFAowMDJfc2VydmVyMR4wHAYJKoZIhvcNAQkB
Fg8wMDJAdGVzdF9jYS5jb20xDzANBgNVBAoTBkNJVFJJWDCCASIwDQYJKoZIhvcN
AQEBBQADggEPADCCAQoCggEBANXBgAEku5lZgPB/SLAsv2DBBBoaR4lzHSMn1A2X
imd27IMfjijTZ7GwN4Hn/LUlP9FMtN84Go5a0D/L3M3BkeIhD6+VPpM1REVdNTNI
2/vI0g/vsJQiTOjRajp3h3cWfKTm9qnyP9tD9q+6RTM35bJxxAZ9E2xoNijjV1TJ
4ZMEKw6DcUGCJ0plrDMKgWdoDVNsjsQJn9TqTsC27QVsD3DtHhfwQcaqghdBCXvf
Oc0j4H9nAzSHfgzBKQS/yqU5aU4GVsEBln7dOBsGL7MboQU1UaVqzqa9i4Uz7fXo
9hu0YzH0VDo0mcR94RQ5/dp46HpDnCtvsGS1tLeIgEkisV8CAwEAAaOCARQwggEQ
MBEGCWCGSAGG+EIBAQQEAwIGQDAdBgNVHQ4EFgQUoZ5hUI7XoLr90DmwDZRXa352
VZAwgZwGA1UdIwSBlDCBkYAUAogYZd8lkSHUCmh41jigX48XHtOhbqRsMGoxEzAR
BgNVBAMUCk9DU1BfQ0FUV08xCzAJBgNVBAgTAktBMQswCQYDVQQGEwJJTjEoMCYG
CSqGSIb3DQEJARYZb2NzcGNhdHdvQG9jc3B0ZXN0aW5nLmNvbTEPMA0GA1UEChMG
Q0lUUklYggkAlUUP6/peAfYwPQYIKwYBBQUHAQEEMTAvMC0GCCsGAQUFBzABhiFo
dHRwOi8vMTcyLjE4LjEwLjIxL3Jlc3BvbmRlcnBhdGgwDQYJKoZIhvcNAQEFBQAD
ggEBAEr+CxyHs/Rbx2zmWfbJyAgL5eD+qNQaZFjD+xf/7hryQfdTksfi0veTMcGM
XpfbRfWeM/cMENBsaAhbWzryOlZsRA6Lsc4FLzUO2h9eLAkYv5fIq3p0bsHxWaFL
gCqfVGPgH7deyBYddFKH4jeZpF8lfxoVa80FE5t8HlCv6SFdxGLcwvr+p+22TNYR
sKNHSPV2rgWoazpW6s/8rAhaJCRqduPBcqK8ZTui4qG/HOYCyTdSdKKzcFFKy3yh
Z+OYVR5Q5SFzi2oWRs2Y+Yajw/Yc+V6Z82i1TojHvUxAKvxTw5Qeb4BJ49+LQuDN
+buktL0FYIOMyqxhRo/zgfQa3JU=
-----END CERTIFICATE-----
