Certificate:
    Data:
        Version: 3 (0x2)
        Serial Number: 11042563100228 (0xa0b0c0d0e44)
    Signature Algorithm: sha1WithRSAEncryption
        Issuer: CN=OCSP_CATWO, ST=KA, C=IN/emailAddress=ocspcatwo@ocsptesting.com, O=CITRIX
        Validity
            Not Before: Jun 28 00:57:58 2016 GMT
            Not After : Jun 26 00:57:58 2026 GMT
        Subject: ST=KA, C=IN, CN=ocspcatwo_040_server/emailAddress=ocspcatwo_040@test_ca.com, O=CITRIX
        Subject Public Key Info:
            Public Key Algorithm: rsaEncryption
                Public-Key: (2048 bit)
                Modulus:
                    00:b8:7b:4e:da:f0:c0:36:bb:15:1f:84:db:2d:ea:
                    c7:b5:cb:1f:b9:d1:9f:30:8a:71:ee:85:08:e7:91:
                    56:ca:9a:1e:00:e4:fc:3e:cd:04:d8:da:20:de:14:
                    74:c5:b7:12:e5:ae:99:0b:18:6e:b1:96:00:9e:46:
                    a9:be:bf:80:05:6e:d4:22:64:7b:ae:c6:64:0b:2c:
                    c8:00:81:12:e2:4e:c4:4d:fe:24:3d:c3:71:05:16:
                    1a:68:4d:ae:fd:27:68:9c:eb:14:c2:82:e2:f5:1b:
                    fd:ef:f2:3b:2e:be:f8:3e:79:9e:9f:9f:9f:de:b3:
                    69:fc:2c:31:d9:c3:10:b2:77:27:f7:e6:87:66:02:
                    a9:74:1c:0c:1d:8b:6d:be:b8:34:5d:19:3c:8c:42:
                    55:98:b0:a6:c8:48:d1:ea:fb:92:2a:57:65:23:50:
                    b0:7c:9b:58:26:87:24:ae:4d:8c:13:e8:35:32:71:
                    45:d7:ee:54:7e:b1:0a:0e:82:7a:ce:d6:0c:14:b9:
                    6f:a1:66:be:7a:46:db:e4:1b:8a:ee:ed:dd:8d:d8:
                    33:68:c4:80:c5:6e:19:1f:90:2e:6a:d7:af:7d:30:
                    0a:75:cb:59:73:96:02:87:f6:d8:63:fb:65:fd:ae:
                    91:bf:fc:b1:f7:3b:70:78:71:b7:1e:21:07:d9:c2:
                    ab:13
                Exponent: 65537 (0x10001)
        X509v3 extensions:
            Netscape Cert Type: 
                SSL Server
            X509v3 Subject Key Identifier: 
                F7:77:94:F8:F1:38:20:F4:00:CD:70:10:17:2B:B7:77:2B:2D:9E:10
            X509v3 Authority Key Identifier: 
                keyid:02:88:18:65:DF:25:91:21:D4:0A:68:78:D6:38:A0:5F:8F:17:1E:D3
                DirName:/CN=OCSP_CATWO/ST=KA/C=IN/emailAddress=ocspcatwo@ocsptesting.com/O=CITRIX
                serial:95:45:0F:EB:FA:5E:01:F6

            Authority Information Access: 
                OCSP - URI:http://ashoke.ocsp_catwo.citrite.net/responderpath

    Signature Algorithm: sha1WithRSAEncryption
         a8:b7:3f:82:95:30:f1:e9:a6:8a:d8:89:4e:d9:44:f1:68:f5:
         ad:4f:91:0a:e0:50:31:b9:01:ce:af:67:1c:66:ed:68:c1:07:
         f2:be:38:e3:41:3e:09:8a:8e:db:90:4d:5d:ee:6c:31:2a:62:
         c3:16:50:85:10:b6:b5:ec:fc:e5:da:be:1a:44:25:6b:67:2c:
         46:9b:e5:a4:86:77:fc:25:14:0b:f4:c9:22:c9:54:73:72:e6:
         12:1b:20:3e:1e:d2:a3:4e:cc:54:ec:cb:7e:a6:72:1b:9e:0f:
         99:d5:6b:8c:14:d3:64:72:62:99:98:5d:69:b8:f6:b1:24:60:
         1e:d7:53:68:63:f3:23:37:7f:8c:61:ee:a7:b8:36:3a:47:a8:
         ba:7a:aa:d7:70:05:62:c8:0d:8f:5d:2f:e4:3f:a1:51:bf:79:
         91:85:a7:5d:3e:03:ec:50:8b:0a:57:a7:95:8d:bb:d0:57:90:
         f5:c2:1d:37:4c:3b:e4:d0:65:7f:86:00:07:9f:f2:0e:2c:08:
         69:1c:8e:44:68:c2:90:f5:50:b7:ef:d8:05:93:03:c8:49:c2:
         56:36:28:e9:b9:ac:a0:dd:af:13:5e:47:26:46:a2:c7:1c:8e:
         b6:88:61:21:68:55:71:ff:fa:26:7c:da:a3:2f:d0:25:69:05:
         55:36:75:9a
-----BEGIN CERTIFICATE-----
MIIEhTCCA22gAwIBAgIGCgsMDQ5EMA0GCSqGSIb3DQEBBQUAMGoxEzARBgNVBAMU
Ck9DU1BfQ0FUV08xCzAJBgNVBAgTAktBMQswCQYDVQQGEwJJTjEoMCYGCSqGSIb3
DQEJARYZb2NzcGNhdHdvQG9jc3B0ZXN0aW5nLmNvbTEPMA0GA1UEChMGQ0lUUklY
MB4XDTE2MDYyODAwNTc1OFoXDTI2MDYyNjAwNTc1OFowdDELMAkGA1UECBMCS0Ex
CzAJBgNVBAYTAklOMR0wGwYDVQQDFBRvY3NwY2F0d29fMDQwX3NlcnZlcjEoMCYG
CSqGSIb3DQEJARYZb2NzcGNhdHdvXzA0MEB0ZXN0X2NhLmNvbTEPMA0GA1UEChMG
Q0lUUklYMIIBIjANBgkqhkiG9w0BAQEFAAOCAQ8AMIIBCgKCAQEAuHtO2vDANrsV
H4TbLerHtcsfudGfMIpx7oUI55FWypoeAOT8Ps0E2Nog3hR0xbcS5a6ZCxhusZYA
nkapvr+ABW7UImR7rsZkCyzIAIES4k7ETf4kPcNxBRYaaE2u/SdonOsUwoLi9Rv9
7/I7Lr74Pnmen5+f3rNp/Cwx2cMQsncn9+aHZgKpdBwMHYttvrg0XRk8jEJVmLCm
yEjR6vuSKldlI1CwfJtYJockrk2ME+g1MnFF1+5UfrEKDoJ6ztYMFLlvoWa+ekbb
5BuK7u3djdgzaMSAxW4ZH5AuatevfTAKdctZc5YCh/bYY/tl/a6Rv/yx9ztweHG3
HiEH2cKrEwIDAQABo4IBJTCCASEwEQYJYIZIAYb4QgEBBAQDAgZAMB0GA1UdDgQW
BBT3d5T48Tgg9ADNcBAXK7d3Ky2eEDCBnAYDVR0jBIGUMIGRgBQCiBhl3yWRIdQK
aHjWOKBfjxce06FupGwwajETMBEGA1UEAxQKT0NTUF9DQVRXTzELMAkGA1UECBMC
S0ExCzAJBgNVBAYTAklOMSgwJgYJKoZIhvcNAQkBFhlvY3NwY2F0d29Ab2NzcHRl
c3RpbmcuY29tMQ8wDQYDVQQKEwZDSVRSSViCCQCVRQ/r+l4B9jBOBggrBgEFBQcB
AQRCMEAwPgYIKwYBBQUHMAGGMmh0dHA6Ly9hc2hva2Uub2NzcF9jYXR3by5jaXRy
aXRlLm5ldC9yZXNwb25kZXJwYXRoMA0GCSqGSIb3DQEBBQUAA4IBAQCotz+ClTDx
6aaK2IlO2UTxaPWtT5EK4FAxuQHOr2ccZu1owQfyvjjjQT4Jio7bkE1d7mwxKmLD
FlCFELa17Pzl2r4aRCVrZyxGm+Wkhnf8JRQL9MkiyVRzcuYSGyA+HtKjTsxU7Mt+
pnIbng+Z1WuMFNNkcmKZmF1puPaxJGAe11NoY/MjN3+MYe6nuDY6R6i6eqrXcAVi
yA2PXS/kP6FRv3mRhaddPgPsUIsKV6eVjbvQV5D1wh03TDvk0GV/hgAHn/IOLAhp
HI5EaMKQ9VC379gFkwPIScJWNijpuayg3a8TXkcmRqLHHI62iGEhaFVx//omfNqj
L9AlaQVVNnWa
-----END CERTIFICATE-----
