Certificate:
    Data:
        Version: 3 (0x2)
        Serial Number: 11042563100238 (0xa0b0c0d0e4e)
    Signature Algorithm: sha1WithRSAEncryption
        Issuer: CN=OCSP_CATWO, ST=KA, C=IN/emailAddress=ocspcatwo@ocsptesting.com, O=CITRIX
        Validity
            Not Before: Jun 28 01:00:06 2016 GMT
            Not After : Jun 26 01:00:06 2026 GMT
        Subject: ST=KA, C=IN, CN=ocspcatwo_050_server/emailAddress=ocspcatwo_050@test_ca.com, O=CITRIX
        Subject Public Key Info:
            Public Key Algorithm: rsaEncryption
                Public-Key: (2048 bit)
                Modulus:
                    00:a5:82:cd:47:dd:06:e6:e0:0b:d4:bd:47:35:91:
                    9e:38:a4:43:c0:c5:8f:58:55:7d:12:59:e7:86:34:
                    e4:d0:7b:9b:b6:5d:73:40:1b:f2:40:46:22:eb:2e:
                    89:ab:e3:40:08:51:cf:2b:27:f8:71:bf:b6:14:75:
                    0e:c4:60:8e:2b:10:02:ed:1b:db:cf:ea:67:dd:d0:
                    df:83:b9:7d:09:6f:a7:04:80:ab:18:76:7c:54:b8:
                    1f:23:b0:eb:80:79:59:85:c3:d5:99:f6:fd:22:f6:
                    0c:bb:f3:23:93:e7:60:f0:78:93:4b:5b:fc:f8:68:
                    d0:97:7a:d3:73:7d:a3:7b:1c:7e:8e:ca:db:6d:9f:
                    95:3c:68:6d:08:a6:04:5d:5a:13:66:f1:a4:f8:ab:
                    27:90:fe:99:3e:5f:b9:f6:a0:62:5b:6c:12:cd:06:
                    25:3a:a8:a2:8d:4a:b9:4d:8f:08:92:d1:e3:d4:bc:
                    e8:3a:79:9e:3b:0f:49:c9:b5:fe:e8:f2:6b:06:3f:
                    6f:06:34:37:55:fe:cb:bd:44:fa:05:41:f2:67:1e:
                    9e:8f:d7:86:47:4d:99:0b:38:6a:7c:cf:04:21:88:
                    5c:02:51:70:01:6a:e2:5f:bc:50:dd:d4:49:ef:1f:
                    e0:2b:15:60:a6:ea:10:30:ff:d8:09:63:3c:89:ff:
                    13:cb
                Exponent: 65537 (0x10001)
        X509v3 extensions:
            Netscape Cert Type: 
                SSL Server
            X509v3 Subject Key Identifier: 
                C2:09:B5:83:31:39:9D:3E:2A:F9:AB:68:53:43:07:83:A0:7E:6F:F5
            X509v3 Authority Key Identifier: 
                keyid:02:88:18:65:DF:25:91:21:D4:0A:68:78:D6:38:A0:5F:8F:17:1E:D3
                DirName:/CN=OCSP_CATWO/ST=KA/C=IN/emailAddress=ocspcatwo@ocsptesting.com/O=CITRIX
                serial:95:45:0F:EB:FA:5E:01:F6

            Authority Information Access: 
                OCSP - URI:http://ashoke2.ocsp_catwo.citrite.net/responderpath

    Signature Algorithm: sha1WithRSAEncryption
         28:40:8b:4a:1e:32:57:44:9a:42:20:bc:42:9a:db:94:d1:0f:
         cb:29:77:94:03:6f:43:dd:a9:08:2d:3f:ab:a5:3c:02:f2:28:
         4b:ea:d4:56:68:62:b9:ae:05:f2:2f:a8:31:70:89:91:4b:1d:
         7f:d3:0a:65:7a:5a:97:c7:e0:5b:98:df:36:bc:d7:71:a3:95:
         58:e2:1c:1e:88:06:35:ff:11:69:c9:71:dd:d4:97:c1:7d:ea:
         2e:ce:92:1c:d2:5d:9d:62:13:7c:26:6d:54:34:29:7f:59:ea:
         20:aa:70:5d:20:eb:c9:98:a7:6f:22:66:69:13:9a:17:6a:5a:
         0e:69:dd:0c:bb:9b:4f:fe:1f:e3:f0:6e:6a:85:c9:a2:62:83:
         4a:f7:67:9c:f2:3a:85:4b:b8:1a:1f:0f:b9:ee:a5:51:a4:59:
         83:e2:e6:cf:7c:f1:f3:a7:95:11:ab:8f:6c:c5:47:3b:1b:e4:
         7b:ec:9e:eb:cd:4f:32:e1:02:10:1b:b0:ec:35:61:6f:55:30:
         eb:83:6e:0f:71:06:3b:b2:ee:0b:fa:09:43:65:4a:0d:ec:bd:
         69:91:bf:bd:76:61:c6:a3:0d:e1:9b:85:b4:40:24:b3:17:ab:
         36:e9:a4:91:ea:3a:c4:9c:43:8e:39:c9:7c:72:00:90:95:76:
         19:a9:9a:17
-----BEGIN CERTIFICATE-----
MIIEhjCCA26gAwIBAgIGCgsMDQ5OMA0GCSqGSIb3DQEBBQUAMGoxEzARBgNVBAMU
Ck9DU1BfQ0FUV08xCzAJBgNVBAgTAktBMQswCQYDVQQGEwJJTjEoMCYGCSqGSIb3
DQEJARYZb2NzcGNhdHdvQG9jc3B0ZXN0aW5nLmNvbTEPMA0GA1UEChMGQ0lUUklY
MB4XDTE2MDYyODAxMDAwNloXDTI2MDYyNjAxMDAwNlowdDELMAkGA1UECBMCS0Ex
CzAJBgNVBAYTAklOMR0wGwYDVQQDFBRvY3NwY2F0d29fMDUwX3NlcnZlcjEoMCYG
CSqGSIb3DQEJARYZb2NzcGNhdHdvXzA1MEB0ZXN0X2NhLmNvbTEPMA0GA1UEChMG
Q0lUUklYMIIBIjANBgkqhkiG9w0BAQEFAAOCAQ8AMIIBCgKCAQEApYLNR90G5uAL
1L1HNZGeOKRDwMWPWFV9ElnnhjTk0Hubtl1zQBvyQEYi6y6Jq+NACFHPKyf4cb+2
FHUOxGCOKxAC7Rvbz+pn3dDfg7l9CW+nBICrGHZ8VLgfI7DrgHlZhcPVmfb9IvYM
u/Mjk+dg8HiTS1v8+GjQl3rTc32jexx+jsrbbZ+VPGhtCKYEXVoTZvGk+KsnkP6Z
Pl+59qBiW2wSzQYlOqiijUq5TY8IktHj1LzoOnmeOw9JybX+6PJrBj9vBjQ3Vf7L
vUT6BUHyZx6ej9eGR02ZCzhqfM8EIYhcAlFwAWriX7xQ3dRJ7x/gKxVgpuoQMP/Y
CWM8if8TywIDAQABo4IBJjCCASIwEQYJYIZIAYb4QgEBBAQDAgZAMB0GA1UdDgQW
BBTCCbWDMTmdPir5q2hTQweDoH5v9TCBnAYDVR0jBIGUMIGRgBQCiBhl3yWRIdQK
aHjWOKBfjxce06FupGwwajETMBEGA1UEAxQKT0NTUF9DQVRXTzELMAkGA1UECBMC
S0ExCzAJBgNVBAYTAklOMSgwJgYJKoZIhvcNAQkBFhlvY3NwY2F0d29Ab2NzcHRl
c3RpbmcuY29tMQ8wDQYDVQQKEwZDSVRSSViCCQCVRQ/r+l4B9jBPBggrBgEFBQcB
AQRDMEEwPwYIKwYBBQUHMAGGM2h0dHA6Ly9hc2hva2UyLm9jc3BfY2F0d28uY2l0
cml0ZS5uZXQvcmVzcG9uZGVycGF0aDANBgkqhkiG9w0BAQUFAAOCAQEAKECLSh4y
V0SaQiC8QprblNEPyyl3lANvQ92pCC0/q6U8AvIoS+rUVmhiua4F8i+oMXCJkUsd
f9MKZXpal8fgW5jfNrzXcaOVWOIcHogGNf8Raclx3dSXwX3qLs6SHNJdnWITfCZt
VDQpf1nqIKpwXSDryZinbyJmaROaF2paDmndDLubT/4f4/BuaoXJomKDSvdnnPI6
hUu4Gh8Pue6lUaRZg+Lmz3zx86eVEauPbMVHOxvke+ye681PMuECEBuw7DVhb1Uw
64NuD3EGO7LuC/oJQ2VKDey9aZG/vXZhxqMN4ZuFtEAksxerNumkkeo6xJxDjjnJ
fHIAkJV2GamaFw==
-----END CERTIFICATE-----
