Certificate:
    Data:
        Version: 3 (0x2)
        Serial Number: 11042563100197 (0xa0b0c0d0e25)
    Signature Algorithm: sha1WithRSAEncryption
        Issuer: CN=OCSP_CATWO, ST=KA, C=IN/emailAddress=ocspcatwo@ocsptesting.com, O=CITRIX
        Validity
            Not Before: Jun 28 00:49:47 2016 GMT
            Not After : Jun 26 00:49:47 2026 GMT
        Subject: ST=KA, C=IN, CN=009_server/emailAddress=009@test_ca.com, O=CITRIX
        Subject Public Key Info:
            Public Key Algorithm: rsaEncryption
                Public-Key: (2048 bit)
                Modulus:
                    00:d6:82:07:eb:1a:3e:24:91:8c:5a:d1:95:31:0a:
                    4c:ef:2c:c3:58:97:f7:7c:ac:59:fb:61:b8:e3:45:
                    13:7d:fb:6b:ad:78:83:84:37:5b:9c:49:ba:b9:79:
                    59:4d:4b:44:df:88:fe:45:01:f9:01:7b:b7:f6:42:
                    f6:eb:c2:5c:a8:a8:98:d0:5b:4d:79:59:de:c0:01:
                    a5:86:bc:55:bb:94:a0:ff:ea:b2:64:68:39:1e:2b:
                    02:0f:f7:fd:2e:35:72:e8:ee:03:6d:a7:16:02:8a:
                    89:7c:20:4e:a3:da:4b:67:0a:ea:19:6d:f2:da:39:
                    4a:9d:71:63:d2:35:86:14:7f:45:ce:ee:81:b9:fb:
                    49:96:81:6b:68:51:54:c2:d6:d0:72:db:e5:b6:d7:
                    f4:7e:01:cb:2e:02:e4:13:4d:18:32:11:13:cc:7e:
                    93:58:00:6f:96:93:ca:b1:92:5a:f4:7a:a3:57:6a:
                    02:e7:21:76:53:6d:72:41:c3:48:bd:85:ad:3d:34:
                    ca:f5:4a:b1:c7:7e:4c:35:76:be:34:bc:06:ab:2c:
                    bd:34:2f:48:49:5f:89:b9:d3:32:ad:ad:e5:87:38:
                    5e:de:09:fc:5a:e6:56:c2:a3:cd:cd:15:b7:ad:e8:
                    98:47:36:78:85:63:bc:f5:d2:60:e8:a9:da:4d:a1:
                    d1:d3
                Exponent: 65537 (0x10001)
        X509v3 extensions:
            Netscape Cert Type: 
                SSL Server
            X509v3 Subject Key Identifier: 
                BF:44:4E:81:FF:35:DB:99:1D:A6:3F:30:81:D7:44:41:45:D1:FF:4F
            X509v3 Authority Key Identifier: 
                keyid:02:88:18:65:DF:25:91:21:D4:0A:68:78:D6:38:A0:5F:8F:17:1E:D3
                DirName:/CN=OCSP_CATWO/ST=KA/C=IN/emailAddress=ocspcatwo@ocsptesting.com/O=CITRIX
                serial:95:45:0F:EB:FA:5E:01:F6

            Authority Information Access: 
                OCSP - URI:http://172.18.10.21/responderpath

    Signature Algorithm: sha1WithRSAEncryption
         2c:c9:60:a1:08:4e:d4:d5:1d:1d:6f:95:a3:8e:95:66:f8:64:
         1f:cb:ab:1c:f4:63:a7:b6:e2:35:86:4b:07:a6:12:5e:73:8b:
         c1:79:5e:5b:6c:dc:53:65:99:f1:f9:ca:b2:74:9d:14:41:d2:
         fa:8e:4f:d5:a0:76:31:64:11:51:33:0f:e0:7c:3b:8e:64:ec:
         30:7e:13:7a:67:cb:e8:fc:a1:b8:f3:90:60:c8:b4:fb:07:2a:
         1e:f9:6f:54:86:f5:21:85:82:03:b3:fb:98:8e:28:cb:ab:41:
         33:06:06:5d:cc:8e:af:a9:85:97:b8:40:28:c1:b7:f0:14:8f:
         13:e3:f5:ae:1b:c5:a6:0c:da:7f:ae:22:df:0f:f1:86:d8:21:
         bc:8e:be:6e:c6:f7:e6:65:1f:23:42:84:d7:89:c5:2a:b5:8d:
         27:8e:01:ae:61:d0:1a:4e:18:ec:9f:13:b6:c9:01:5e:e5:27:
         01:7b:d6:41:4e:25:ea:41:b3:a0:23:51:3e:1a:64:19:59:fb:
         5f:c1:b5:b0:2c:28:d8:55:49:61:55:dd:a5:a7:c1:5c:95:2d:
         8e:a1:bc:a0:f7:4c:91:de:a7:2e:1c:dc:85:cc:46:7b:65:e2:
         12:1c:71:f2:3a:86:5e:a3:6b:39:38:62:92:69:45:32:45:29:
         d9:d6:d3:57
-----BEGIN CERTIFICATE-----
MIIEYDCCA0igAwIBAgIGCgsMDQ4lMA0GCSqGSIb3DQEBBQUAMGoxEzARBgNVBAMU
Ck9DU1BfQ0FUV08xCzAJBgNVBAgTAktBMQswCQYDVQQGEwJJTjEoMCYGCSqGSIb3
DQEJARYZb2NzcGNhdHdvQG9jc3B0ZXN0aW5nLmNvbTEPMA0GA1UEChMGQ0lUUklY
MB4XDTE2MDYyODAwNDk0N1oXDTI2MDYyNjAwNDk0N1owYDELMAkGA1UECBMCS0Ex
CzAJBgNVBAYTAklOMRMwEQYDVQQDFAowMDlfc2VydmVyMR4wHAYJKoZIhvcNAQkB
Fg8wMDlAdGVzdF9jYS5jb20xDzANBgNVBAoTBkNJVFJJWDCCASIwDQYJKoZIhvcN
AQEBBQADggEPADCCAQoCggEBANaCB+saPiSRjFrRlTEKTO8sw1iX93ysWfthuONF
E337a614g4Q3W5xJurl5WU1LRN+I/kUB+QF7t/ZC9uvCXKiomNBbTXlZ3sABpYa8
VbuUoP/qsmRoOR4rAg/3/S41cujuA22nFgKKiXwgTqPaS2cK6hlt8to5Sp1xY9I1
hhR/Rc7ugbn7SZaBa2hRVMLW0HLb5bbX9H4Byy4C5BNNGDIRE8x+k1gAb5aTyrGS
WvR6o1dqAuchdlNtckHDSL2FrT00yvVKscd+TDV2vjS8BqssvTQvSElfibnTMq2t
5Yc4Xt4J/FrmVsKjzc0Vt63omEc2eIVjvPXSYOip2k2h0dMCAwEAAaOCARQwggEQ
MBEGCWCGSAGG+EIBAQQEAwIGQDAdBgNVHQ4EFgQUv0ROgf8125kdpj8wgddEQUXR
/08wgZwGA1UdIwSBlDCBkYAUAogYZd8lkSHUCmh41jigX48XHtOhbqRsMGoxEzAR
BgNVBAMUCk9DU1BfQ0FUV08xCzAJBgNVBAgTAktBMQswCQYDVQQGEwJJTjEoMCYG
CSqGSIb3DQEJARYZb2NzcGNhdHdvQG9jc3B0ZXN0aW5nLmNvbTEPMA0GA1UEChMG
Q0lUUklYggkAlUUP6/peAfYwPQYIKwYBBQUHAQEEMTAvMC0GCCsGAQUFBzABhiFo
dHRwOi8vMTcyLjE4LjEwLjIxL3Jlc3BvbmRlcnBhdGgwDQYJKoZIhvcNAQEFBQAD
ggEBACzJYKEITtTVHR1vlaOOlWb4ZB/Lqxz0Y6e24jWGSwemEl5zi8F5Xlts3FNl
mfH5yrJ0nRRB0vqOT9WgdjFkEVEzD+B8O45k7DB+E3pny+j8objzkGDItPsHKh75
b1SG9SGFggOz+5iOKMurQTMGBl3Mjq+phZe4QCjBt/AUjxPj9a4bxaYM2n+uIt8P
8YbYIbyOvm7G9+ZlHyNChNeJxSq1jSeOAa5h0BpOGOyfE7bJAV7lJwF71kFOJepB
s6AjUT4aZBlZ+1/BtbAsKNhVSWFV3aWnwVyVLY6hvKD3TJHepy4c3IXMRntl4hIc
cfI6hl6jazk4YpJpRTJFKdnW01c=
-----END CERTIFICATE-----
