Certificate:
    Data:
        Version: 3 (0x2)
        Serial Number:
            0b:0c:0d:01:02:03:04:05:06:07:08:09:0c
    Signature Algorithm: sha1WithRSAEncryption
        Issuer: CN=OCSP_CATHREE, ST=KA, C=IN/emailAddress=ocspcathree@ocsptesting.com, O=CITRIX
        Validity
            Not Before: Jun 28 01:09:17 2016 GMT
            Not After : Jun 26 01:09:17 2026 GMT
        Subject: ST=KA, C=IN, CN=ocspcathree_003_server/emailAddress=ocspcathree_003@test_ca.com, O=CITRIX
        Subject Public Key Info:
            Public Key Algorithm: rsaEncryption
                Public-Key: (2048 bit)
                Modulus:
                    00:da:b3:17:fa:df:2b:92:2d:a3:5b:b0:3c:8c:d5:
                    ac:8c:5f:b4:46:c3:e4:93:07:35:db:95:f8:ce:d4:
                    90:d8:0d:6b:c8:e0:91:d1:5f:b9:48:ca:7a:15:43:
                    e1:85:04:55:e0:ee:12:22:e2:f6:fe:31:c3:b5:2b:
                    0a:3e:49:11:ba:82:b2:4d:83:96:8d:d0:7f:ac:0a:
                    64:ce:45:82:00:ef:c2:86:56:c8:6c:b6:dd:c7:b7:
                    72:4e:d8:65:2c:db:57:91:0c:1e:81:d3:3d:d8:30:
                    9c:c0:0c:71:88:a9:5e:c3:b4:f1:65:54:2c:f0:0f:
                    91:c1:c9:52:a9:76:64:77:82:bd:7b:24:04:44:69:
                    de:80:fa:5a:65:ec:5d:36:12:83:a9:24:8f:3f:18:
                    46:1b:d6:4a:78:61:b1:73:ca:bb:05:e6:34:5f:48:
                    80:7d:10:32:41:b1:45:03:b9:71:52:23:80:72:6d:
                    83:ab:95:17:48:03:ef:49:2c:5d:ce:51:8c:d3:98:
                    ae:ba:aa:28:80:5b:e0:3a:05:8a:5a:69:18:c4:99:
                    0d:da:c3:e1:f5:64:39:65:f8:68:24:61:9b:d4:16:
                    07:36:c7:06:bf:40:14:40:7d:d7:74:ef:03:6e:13:
                    81:fc:07:fb:dc:8c:54:d2:09:00:f9:12:56:be:2e:
                    0e:cb
                Exponent: 65537 (0x10001)
        X509v3 extensions:
            Netscape Cert Type: 
                SSL Server
            X509v3 Subject Key Identifier: 
                D9:0D:12:06:BB:5F:D2:2C:63:71:AA:2B:61:35:3C:0B:A7:16:F0:49
            X509v3 Authority Key Identifier: 
                keyid:96:54:A1:BC:07:1C:EF:D7:86:C2:A1:CD:13:A7:F6:9B:22:D8:59:81
                DirName:/CN=OCSP_CATHREE/ST=KA/C=IN/emailAddress=ocspcathree@ocsptesting.com/O=CITRIX
                serial:C1:1F:31:B0:75:6E:FF:4F

            Authority Information Access: 
                OCSP - URI:http://s3.ocsp_cathree.citrite.net/responderpath

    Signature Algorithm: sha1WithRSAEncryption
         a8:ba:7f:39:4c:c5:6d:4d:25:93:27:46:52:44:4b:3a:e0:06:
         4f:55:e0:38:54:16:95:fc:b7:91:9f:d6:54:47:6b:6a:92:fd:
         3b:d8:15:b8:cd:93:67:2e:60:69:12:44:c9:08:b1:53:e2:8a:
         ad:fb:ba:de:e2:3a:ea:f6:14:85:e4:51:86:11:88:24:59:7d:
         c7:2d:94:a2:6c:5a:6e:95:65:94:61:de:44:e1:51:9a:5f:4e:
         b7:89:62:23:0a:69:5f:78:f0:e9:a8:52:8d:28:f9:36:51:4e:
         45:8d:e2:09:f7:eb:97:47:e9:f4:dd:0f:92:33:93:e0:1b:35:
         02:80:8f:a2:29:55:82:31:dd:f9:f6:36:a6:47:56:58:26:97:
         26:a5:16:8b:fe:54:c4:06:35:d6:ed:c6:e4:d1:b2:88:61:83:
         4d:20:15:80:46:d8:0a:4c:89:dc:18:5b:94:20:4d:d5:47:90:
         99:35:a8:19:ce:a4:84:a2:d5:d6:f3:6a:fe:c8:35:3d:a5:2d:
         3b:c4:68:75:67:b4:81:50:66:c8:06:b1:88:26:c8:41:9f:a7:
         da:20:c3:d7:cb:45:c1:de:a4:ed:8f:95:7f:0a:4a:aa:16:1d:
         da:a8:b3:2e:76:13:cd:27:b4:fb:8f:5a:16:bb:60:b4:ed:e9:
         34:59:8c:8a
-----BEGIN CERTIFICATE-----
MIIEljCCA36gAwIBAgINCwwNAQIDBAUGBwgJDDANBgkqhkiG9w0BAQUFADBuMRUw
EwYDVQQDFAxPQ1NQX0NBVEhSRUUxCzAJBgNVBAgTAktBMQswCQYDVQQGEwJJTjEq
MCgGCSqGSIb3DQEJARYbb2NzcGNhdGhyZWVAb2NzcHRlc3RpbmcuY29tMQ8wDQYD
VQQKEwZDSVRSSVgwHhcNMTYwNjI4MDEwOTE3WhcNMjYwNjI2MDEwOTE3WjB4MQsw
CQYDVQQIEwJLQTELMAkGA1UEBhMCSU4xHzAdBgNVBAMUFm9jc3BjYXRocmVlXzAw
M19zZXJ2ZXIxKjAoBgkqhkiG9w0BCQEWG29jc3BjYXRocmVlXzAwM0B0ZXN0X2Nh
LmNvbTEPMA0GA1UEChMGQ0lUUklYMIIBIjANBgkqhkiG9w0BAQEFAAOCAQ8AMIIB
CgKCAQEA2rMX+t8rki2jW7A8jNWsjF+0RsPkkwc125X4ztSQ2A1ryOCR0V+5SMp6
FUPhhQRV4O4SIuL2/jHDtSsKPkkRuoKyTYOWjdB/rApkzkWCAO/ChlbIbLbdx7dy
TthlLNtXkQwegdM92DCcwAxxiKlew7TxZVQs8A+RwclSqXZkd4K9eyQERGnegPpa
ZexdNhKDqSSPPxhGG9ZKeGGxc8q7BeY0X0iAfRAyQbFFA7lxUiOAcm2Dq5UXSAPv
SSxdzlGM05iuuqoogFvgOgWKWmkYxJkN2sPh9WQ5ZfhoJGGb1BYHNscGv0AUQH3X
dO8DbhOB/Af73IxU0gkA+RJWvi4OywIDAQABo4IBJzCCASMwEQYJYIZIAYb4QgEB
BAQDAgZAMB0GA1UdDgQWBBTZDRIGu1/SLGNxqithNTwLpxbwSTCBoAYDVR0jBIGY
MIGVgBSWVKG8Bxzv14bCoc0Tp/abIthZgaFypHAwbjEVMBMGA1UEAxQMT0NTUF9D
QVRIUkVFMQswCQYDVQQIEwJLQTELMAkGA1UEBhMCSU4xKjAoBgkqhkiG9w0BCQEW
G29jc3BjYXRocmVlQG9jc3B0ZXN0aW5nLmNvbTEPMA0GA1UEChMGQ0lUUklYggkA
wR8xsHVu/08wTAYIKwYBBQUHAQEEQDA+MDwGCCsGAQUFBzABhjBodHRwOi8vczMu
b2NzcF9jYXRocmVlLmNpdHJpdGUubmV0L3Jlc3BvbmRlcnBhdGgwDQYJKoZIhvcN
AQEFBQADggEBAKi6fzlMxW1NJZMnRlJESzrgBk9V4DhUFpX8t5Gf1lRHa2qS/TvY
FbjNk2cuYGkSRMkIsVPiiq37ut7iOur2FIXkUYYRiCRZfcctlKJsWm6VZZRh3kTh
UZpfTreJYiMKaV948OmoUo0o+TZRTkWN4gn365dH6fTdD5Izk+AbNQKAj6IpVYIx
3fn2NqZHVlgmlyalFov+VMQGNdbtxuTRsohhg00gFYBG2ApMidwYW5QgTdVHkJk1
qBnOpISi1dbzav7INT2lLTvEaHVntIFQZsgGsYgmyEGfp9ogw9fLRcHepO2PlX8K
SqoWHdqosy52E80ntPuPWha7YLTt6TRZjIo=
-----END CERTIFICATE-----
