Certificate:
    Data:
        Version: 3 (0x2)
        Serial Number:
            0b:0c:0d:01:02:03:04:05:06:07:08:09:0e
    Signature Algorithm: sha1WithRSAEncryption
        Issuer: CN=OCSP_CATHREE, ST=KA, C=IN/emailAddress=ocspcathree@ocsptesting.com, O=CITRIX
        Validity
            Not Before: Jun 28 01:10:25 2016 GMT
            Not After : Jun 26 01:10:25 2026 GMT
        Subject: ST=KA, C=IN, CN=ocspcathree_005_server/emailAddress=ocspcathree_005@test_ca.com, O=CITRIX
        Subject Public Key Info:
            Public Key Algorithm: rsaEncryption
                Public-Key: (2048 bit)
                Modulus:
                    00:d4:92:af:6d:d4:8e:e3:25:12:7e:04:6a:7c:99:
                    85:e1:0b:b9:36:a4:66:94:54:cf:95:e5:bc:5a:59:
                    f7:2c:cf:29:bd:b8:e2:85:ec:d6:ac:39:63:5c:fd:
                    e6:4a:af:0c:57:37:03:a4:e0:9f:53:f7:62:11:fe:
                    98:03:e4:df:f0:86:6f:ed:42:ee:97:2e:2d:91:d3:
                    ce:6c:3c:99:5c:3f:00:ce:21:c5:be:b0:80:5f:fb:
                    99:34:11:18:27:f1:bb:bf:ba:02:a1:62:54:df:22:
                    88:62:5c:42:d3:9d:cb:26:6e:a5:a0:c2:6f:f8:45:
                    ac:85:55:4c:dc:e7:a7:26:89:6a:11:77:ec:22:e8:
                    e2:c7:52:1c:af:ad:69:6f:17:9c:48:50:c0:a5:38:
                    c9:f6:e7:34:82:0d:3e:ce:40:ef:09:f4:b3:6d:9c:
                    61:39:a3:6b:b7:00:02:f3:6f:1a:65:79:6a:01:9b:
                    98:f3:13:4a:80:81:7e:7d:51:62:83:a0:e4:9a:7c:
                    77:62:23:2e:80:fb:4e:b0:af:60:7e:76:b0:84:86:
                    c0:b1:aa:bf:fa:83:10:e2:3c:ab:ec:55:73:94:9a:
                    77:ef:db:39:4e:fc:a3:23:fa:2a:dd:95:f4:ee:35:
                    6e:98:29:0c:3d:a3:fc:7f:de:6e:dc:a6:d2:75:5b:
                    e2:13
                Exponent: 65537 (0x10001)
        X509v3 extensions:
            Netscape Cert Type: 
                SSL Server
            X509v3 Subject Key Identifier: 
                75:2C:89:63:2D:67:BA:0B:80:21:0E:A4:42:9E:F2:D8:23:9B:02:B8
            X509v3 Authority Key Identifier: 
                keyid:96:54:A1:BC:07:1C:EF:D7:86:C2:A1:CD:13:A7:F6:9B:22:D8:59:81
                DirName:/CN=OCSP_CATHREE/ST=KA/C=IN/emailAddress=ocspcathree@ocsptesting.com/O=CITRIX
                serial:C1:1F:31:B0:75:6E:FF:4F

            Authority Information Access: 
                OCSP - URI:http://s5.ocsp_cathree.citrite.net/responderpath

    Signature Algorithm: sha1WithRSAEncryption
         c1:39:43:61:87:13:dd:18:25:96:a5:a1:e6:4d:59:b3:98:3e:
         1b:d7:ed:2f:75:ae:15:7e:dc:a8:77:87:3c:79:ee:83:2f:f8:
         f6:fe:cb:4a:29:0b:c7:6a:b6:34:25:99:a2:9e:b0:51:fb:45:
         38:c0:8a:b6:5a:ed:6f:0a:c9:dc:76:28:10:ac:c4:1a:a1:5b:
         b5:d4:6c:48:3d:0d:0e:24:eb:40:0b:a1:a4:c1:05:25:a4:df:
         c7:19:50:c0:45:7b:49:85:6d:1f:18:33:97:69:e7:55:b2:6f:
         28:94:ef:69:36:3a:c6:0e:e5:0f:f7:55:76:92:67:31:34:70:
         54:63:ad:23:7c:19:74:30:63:11:f7:d5:0f:90:c5:b0:58:82:
         a8:fe:2b:7d:ed:34:56:75:40:a0:79:0b:a8:93:67:44:a9:52:
         b5:fb:c9:52:9a:e6:3e:f8:95:47:91:46:3c:22:2c:82:73:21:
         b1:2e:82:d7:12:4f:97:bb:7b:95:01:17:92:b5:0a:14:9b:d9:
         b9:e3:42:1b:50:b7:3d:09:dc:dc:8d:48:13:0f:cc:bc:b8:8d:
         39:bd:7e:41:fd:a6:3c:14:f5:42:63:0e:33:0b:bc:fb:86:a1:
         16:b7:f0:06:ac:04:bd:a7:ef:56:96:f3:76:9b:ce:83:36:59:
         a8:68:8c:35
-----BEGIN CERTIFICATE-----
MIIEljCCA36gAwIBAgINCwwNAQIDBAUGBwgJDjANBgkqhkiG9w0BAQUFADBuMRUw
EwYDVQQDFAxPQ1NQX0NBVEhSRUUxCzAJBgNVBAgTAktBMQswCQYDVQQGEwJJTjEq
MCgGCSqGSIb3DQEJARYbb2NzcGNhdGhyZWVAb2NzcHRlc3RpbmcuY29tMQ8wDQYD
VQQKEwZDSVRSSVgwHhcNMTYwNjI4MDExMDI1WhcNMjYwNjI2MDExMDI1WjB4MQsw
CQYDVQQIEwJLQTELMAkGA1UEBhMCSU4xHzAdBgNVBAMUFm9jc3BjYXRocmVlXzAw
NV9zZXJ2ZXIxKjAoBgkqhkiG9w0BCQEWG29jc3BjYXRocmVlXzAwNUB0ZXN0X2Nh
LmNvbTEPMA0GA1UEChMGQ0lUUklYMIIBIjANBgkqhkiG9w0BAQEFAAOCAQ8AMIIB
CgKCAQEA1JKvbdSO4yUSfgRqfJmF4Qu5NqRmlFTPleW8Wln3LM8pvbjihezWrDlj
XP3mSq8MVzcDpOCfU/diEf6YA+Tf8IZv7ULuly4tkdPObDyZXD8AziHFvrCAX/uZ
NBEYJ/G7v7oCoWJU3yKIYlxC053LJm6loMJv+EWshVVM3OenJolqEXfsIujix1Ic
r61pbxecSFDApTjJ9uc0gg0+zkDvCfSzbZxhOaNrtwAC828aZXlqAZuY8xNKgIF+
fVFig6Dkmnx3YiMugPtOsK9gfnawhIbAsaq/+oMQ4jyr7FVzlJp379s5TvyjI/oq
3ZX07jVumCkMPaP8f95u3KbSdVviEwIDAQABo4IBJzCCASMwEQYJYIZIAYb4QgEB
BAQDAgZAMB0GA1UdDgQWBBR1LIljLWe6C4AhDqRCnvLYI5sCuDCBoAYDVR0jBIGY
MIGVgBSWVKG8Bxzv14bCoc0Tp/abIthZgaFypHAwbjEVMBMGA1UEAxQMT0NTUF9D
QVRIUkVFMQswCQYDVQQIEwJLQTELMAkGA1UEBhMCSU4xKjAoBgkqhkiG9w0BCQEW
G29jc3BjYXRocmVlQG9jc3B0ZXN0aW5nLmNvbTEPMA0GA1UEChMGQ0lUUklYggkA
wR8xsHVu/08wTAYIKwYBBQUHAQEEQDA+MDwGCCsGAQUFBzABhjBodHRwOi8vczUu
b2NzcF9jYXRocmVlLmNpdHJpdGUubmV0L3Jlc3BvbmRlcnBhdGgwDQYJKoZIhvcN
AQEFBQADggEBAME5Q2GHE90YJZaloeZNWbOYPhvX7S91rhV+3Kh3hzx57oMv+Pb+
y0opC8dqtjQlmaKesFH7RTjAirZa7W8Kydx2KBCsxBqhW7XUbEg9DQ4k60ALoaTB
BSWk38cZUMBFe0mFbR8YM5dp51WybyiU72k2OsYO5Q/3VXaSZzE0cFRjrSN8GXQw
YxH31Q+QxbBYgqj+K33tNFZ1QKB5C6iTZ0SpUrX7yVKa5j74lUeRRjwiLIJzIbEu
gtcST5e7e5UBF5K1ChSb2bnjQhtQtz0J3NyNSBMPzLy4jTm9fkH9pjwU9UJjDjML
vPuGoRa38AasBL2n71aW83abzoM2WahojDU=
-----END CERTIFICATE-----
