Certificate:
    Data:
        Version: 3 (0x2)
        Serial Number: 11042563100217 (0xa0b0c0d0e39)
    Signature Algorithm: sha1WithRSAEncryption
        Issuer: CN=OCSP_CATWO, ST=KA, C=IN/emailAddress=ocspcatwo@ocsptesting.com, O=CITRIX
        Validity
            Not Before: Jun 28 00:50:44 2016 GMT
            Not After : Jun 26 00:50:44 2026 GMT
        Subject: ST=KA, C=IN, CN=029_server/emailAddress=029@test_ca.com, O=CITRIX
        Subject Public Key Info:
            Public Key Algorithm: rsaEncryption
                Public-Key: (2048 bit)
                Modulus:
                    00:d6:20:2e:b7:3e:ff:23:05:07:99:54:14:79:f4:
                    2e:c3:8f:cc:a5:ac:99:01:fa:06:a8:ad:7a:54:da:
                    18:b1:35:00:04:79:1e:29:57:af:96:c8:da:f5:cb:
                    4c:f2:29:03:d0:5e:32:1d:8b:35:ff:b7:3d:a1:c0:
                    70:63:f8:f2:70:87:a8:26:b8:72:20:1e:85:7d:30:
                    b7:99:07:c4:37:63:9b:31:bd:13:5f:47:5f:17:92:
                    7b:80:08:39:2f:81:e9:36:e2:85:1d:3a:c1:f4:29:
                    2a:4c:cf:9c:b4:a5:95:ca:64:75:5c:0e:31:35:fc:
                    3b:1c:bd:b4:28:15:cb:c9:ea:38:cc:9d:70:ab:06:
                    21:fc:d3:ec:4e:e4:eb:b1:f1:9f:a9:cf:25:0d:29:
                    1b:92:e4:f5:4a:e3:ab:3a:d0:14:64:b5:80:38:ac:
                    c9:2a:13:00:27:15:e9:99:e8:c6:70:39:9a:8d:59:
                    50:c2:3c:f7:77:7b:45:15:cc:6f:ac:92:68:db:1e:
                    b9:28:40:cb:cb:e0:9a:a8:90:93:ab:7c:d8:a4:c7:
                    1c:55:85:aa:fa:21:1c:41:e4:b4:cf:4b:71:76:a4:
                    97:b4:19:07:c8:e4:16:e8:45:0f:5c:f2:41:4f:84:
                    f1:d8:f3:c0:d6:f8:ca:3b:16:8d:0d:ad:5c:ce:18:
                    37:31
                Exponent: 65537 (0x10001)
        X509v3 extensions:
            Netscape Cert Type: 
                SSL Server
            X509v3 Subject Key Identifier: 
                C0:E0:95:0F:84:22:FB:E6:75:81:0D:32:44:96:D1:38:09:FE:94:9C
            X509v3 Authority Key Identifier: 
                keyid:02:88:18:65:DF:25:91:21:D4:0A:68:78:D6:38:A0:5F:8F:17:1E:D3
                DirName:/CN=OCSP_CATWO/ST=KA/C=IN/emailAddress=ocspcatwo@ocsptesting.com/O=CITRIX
                serial:95:45:0F:EB:FA:5E:01:F6

            Authority Information Access: 
                OCSP - URI:http://172.18.10.21/responderpath

    Signature Algorithm: sha1WithRSAEncryption
         2b:65:2c:59:1c:29:71:4f:e2:32:13:46:cf:e7:d5:8e:2b:94:
         d5:0b:47:7c:64:e6:a0:6e:c9:a0:15:82:62:d4:5e:4e:84:97:
         a3:46:be:2a:bb:36:e1:f6:2e:29:f0:ff:0f:e4:05:a8:03:03:
         38:35:c9:c3:ce:c5:8e:8a:a6:16:89:f5:63:0c:e9:42:7f:d6:
         a7:99:55:6b:1e:82:41:cd:06:54:88:b8:46:80:e6:a6:e2:29:
         55:80:89:40:91:a7:fd:a1:53:ec:33:28:e3:20:69:d4:d7:70:
         33:62:93:12:b3:27:af:cc:34:98:86:28:6b:c4:6d:66:fe:6f:
         3a:6a:b2:b8:7b:3a:fc:10:c6:60:34:88:4f:30:16:41:23:d9:
         43:32:04:14:87:7f:bb:81:50:d4:71:7d:32:30:18:5b:67:17:
         03:c9:d3:b9:4a:29:bd:d4:ee:65:f2:a7:c7:b1:d8:fc:2a:c2:
         e4:5b:e5:f6:46:f8:cb:21:f5:ea:65:96:f4:14:b9:93:f3:1e:
         78:46:e4:64:6f:55:30:dd:9c:5c:cb:0c:dd:cb:54:23:b0:af:
         3a:b7:76:35:56:74:fe:0d:65:5d:0f:9d:70:18:c6:0b:e8:f1:
         5c:a9:09:5a:00:88:85:f3:40:a8:32:15:26:e5:01:e0:34:71:
         ab:98:a0:22
-----BEGIN CERTIFICATE-----
MIIEYDCCA0igAwIBAgIGCgsMDQ45MA0GCSqGSIb3DQEBBQUAMGoxEzARBgNVBAMU
Ck9DU1BfQ0FUV08xCzAJBgNVBAgTAktBMQswCQYDVQQGEwJJTjEoMCYGCSqGSIb3
DQEJARYZb2NzcGNhdHdvQG9jc3B0ZXN0aW5nLmNvbTEPMA0GA1UEChMGQ0lUUklY
MB4XDTE2MDYyODAwNTA0NFoXDTI2MDYyNjAwNTA0NFowYDELMAkGA1UECBMCS0Ex
CzAJBgNVBAYTAklOMRMwEQYDVQQDFAowMjlfc2VydmVyMR4wHAYJKoZIhvcNAQkB
Fg8wMjlAdGVzdF9jYS5jb20xDzANBgNVBAoTBkNJVFJJWDCCASIwDQYJKoZIhvcN
AQEBBQADggEPADCCAQoCggEBANYgLrc+/yMFB5lUFHn0LsOPzKWsmQH6BqitelTa
GLE1AAR5HilXr5bI2vXLTPIpA9BeMh2LNf+3PaHAcGP48nCHqCa4ciAehX0wt5kH
xDdjmzG9E19HXxeSe4AIOS+B6TbihR06wfQpKkzPnLSllcpkdVwOMTX8Oxy9tCgV
y8nqOMydcKsGIfzT7E7k67Hxn6nPJQ0pG5Lk9UrjqzrQFGS1gDisySoTACcV6Zno
xnA5mo1ZUMI893d7RRXMb6ySaNseuShAy8vgmqiQk6t82KTHHFWFqvohHEHktM9L
cXakl7QZB8jkFuhFD1zyQU+E8djzwNb4yjsWjQ2tXM4YNzECAwEAAaOCARQwggEQ
MBEGCWCGSAGG+EIBAQQEAwIGQDAdBgNVHQ4EFgQUwOCVD4Qi++Z1gQ0yRJbROAn+
lJwwgZwGA1UdIwSBlDCBkYAUAogYZd8lkSHUCmh41jigX48XHtOhbqRsMGoxEzAR
BgNVBAMUCk9DU1BfQ0FUV08xCzAJBgNVBAgTAktBMQswCQYDVQQGEwJJTjEoMCYG
CSqGSIb3DQEJARYZb2NzcGNhdHdvQG9jc3B0ZXN0aW5nLmNvbTEPMA0GA1UEChMG
Q0lUUklYggkAlUUP6/peAfYwPQYIKwYBBQUHAQEEMTAvMC0GCCsGAQUFBzABhiFo
dHRwOi8vMTcyLjE4LjEwLjIxL3Jlc3BvbmRlcnBhdGgwDQYJKoZIhvcNAQEFBQAD
ggEBACtlLFkcKXFP4jITRs/n1Y4rlNULR3xk5qBuyaAVgmLUXk6El6NGviq7NuH2
Linw/w/kBagDAzg1ycPOxY6KphaJ9WMM6UJ/1qeZVWsegkHNBlSIuEaA5qbiKVWA
iUCRp/2hU+wzKOMgadTXcDNikxKzJ6/MNJiGKGvEbWb+bzpqsrh7OvwQxmA0iE8w
FkEj2UMyBBSHf7uBUNRxfTIwGFtnFwPJ07lKKb3U7mXyp8ex2PwqwuRb5fZG+Msh
9epllvQUuZPzHnhG5GRvVTDdnFzLDN3LVCOwrzq3djVWdP4NZV0PnXAYxgvo8Vyp
CVoAiIXzQKgyFSblAeA0cauYoCI=
-----END CERTIFICATE-----
