Certificate:
    Data:
        Version: 3 (0x2)
        Serial Number: 11042563100231 (0xa0b0c0d0e47)
    Signature Algorithm: sha1WithRSAEncryption
        Issuer: CN=OCSP_CATWO, ST=KA, C=IN/emailAddress=ocspcatwo@ocsptesting.com, O=CITRIX
        Validity
            Not Before: Jun 28 00:59:43 2016 GMT
            Not After : Jun 26 00:59:43 2026 GMT
        Subject: ST=KA, C=IN, CN=ocspcatwo_043_server/emailAddress=ocspcatwo_043@test_ca.com, O=CITRIX
        Subject Public Key Info:
            Public Key Algorithm: rsaEncryption
                Public-Key: (2048 bit)
                Modulus:
                    00:ef:3a:7c:25:7c:f8:82:56:cd:76:37:19:25:8d:
                    d9:01:47:a9:9b:0f:e2:67:84:8f:bf:57:c4:65:7a:
                    96:49:5a:a4:7c:54:e8:18:0e:4b:9c:40:dc:9e:5e:
                    d3:86:87:b9:06:6f:ba:8c:7b:4e:2f:92:71:54:df:
                    3b:18:f8:7c:35:74:a9:48:c7:dd:4f:f9:3d:16:50:
                    78:af:f6:0e:b9:b1:fd:20:7a:fe:59:d5:57:cc:f2:
                    56:bb:29:29:1a:3e:b6:3a:0a:f1:56:42:7e:54:1d:
                    f1:cd:48:49:ec:cd:d1:2a:aa:7d:21:af:23:54:1d:
                    81:c8:f3:34:1c:c4:a1:70:1d:d6:2d:6b:1e:7d:4b:
                    c4:07:ac:e4:18:36:d4:3b:70:5a:52:16:16:b0:47:
                    71:86:02:ef:83:df:24:c4:0f:21:5a:b0:39:40:a6:
                    10:6e:39:a2:11:75:a2:b5:bb:b0:ff:cd:2e:20:ba:
                    ee:e1:7c:6e:6a:7e:07:15:b6:60:99:08:f4:65:07:
                    67:8c:c7:9d:b9:2c:fd:7f:ff:2a:6e:52:46:38:2d:
                    6b:07:4a:e4:2c:e6:64:f4:a1:f8:bb:51:6f:9c:44:
                    a8:63:2a:6d:a5:2f:1c:19:7e:40:1a:26:17:29:c7:
                    75:99:59:10:f9:dc:e3:50:4d:04:49:d3:78:e7:68:
                    3f:11
                Exponent: 65537 (0x10001)
        X509v3 extensions:
            Netscape Cert Type: 
                SSL Server
            X509v3 Subject Key Identifier: 
                7E:1A:44:18:78:56:46:0B:4D:51:96:38:AD:81:34:24:8E:F2:45:D4
            X509v3 Authority Key Identifier: 
                keyid:02:88:18:65:DF:25:91:21:D4:0A:68:78:D6:38:A0:5F:8F:17:1E:D3
                DirName:/CN=OCSP_CATWO/ST=KA/C=IN/emailAddress=ocspcatwo@ocsptesting.com/O=CITRIX
                serial:95:45:0F:EB:FA:5E:01:F6

            Authority Information Access: 
                OCSP - URI:http://ashoke2.ocsp_catwo.citrite.net/responderpath

    Signature Algorithm: sha1WithRSAEncryption
         86:23:56:1f:31:bf:91:c9:fa:ba:a5:74:6e:d0:2e:1a:90:68:
         d4:e8:bc:69:c1:48:af:02:ca:2f:51:94:f8:8a:a5:fd:35:82:
         6b:94:b1:12:c3:59:32:69:81:e3:47:9a:29:17:0a:d1:79:64:
         dd:fc:67:ce:05:5f:63:80:f5:eb:4e:34:d6:b0:6b:79:ee:d0:
         a5:1c:3b:d8:75:31:22:bd:07:82:9c:11:a9:f5:7a:e3:03:2b:
         09:51:97:14:ea:d6:23:06:ab:be:6d:b2:56:48:e2:3e:de:78:
         d4:89:ed:34:a6:e4:34:e2:41:5f:e5:ff:7c:d0:7d:32:0d:fd:
         1e:2b:dd:3e:6e:a8:10:12:1b:74:ca:f7:16:61:9d:41:38:dd:
         86:1d:e3:35:e9:6d:5e:32:0e:16:5f:00:a4:f8:d8:45:24:8c:
         83:3e:af:b1:4f:d8:ff:56:8f:c2:62:6e:08:98:9b:c5:76:d5:
         d1:98:84:8c:62:85:11:70:11:d8:0b:8d:9e:59:3c:73:d6:0b:
         70:45:aa:8a:e7:06:15:9a:b7:ef:f6:8a:55:da:8c:7d:80:b0:
         7e:03:05:35:60:e8:56:23:73:03:aa:f8:78:b6:f3:92:ae:7a:
         3d:97:f0:00:76:d5:c1:ba:88:0a:19:a8:52:bd:5d:6e:08:fc:
         38:6f:70:0e
-----BEGIN CERTIFICATE-----
MIIEhjCCA26gAwIBAgIGCgsMDQ5HMA0GCSqGSIb3DQEBBQUAMGoxEzARBgNVBAMU
Ck9DU1BfQ0FUV08xCzAJBgNVBAgTAktBMQswCQYDVQQGEwJJTjEoMCYGCSqGSIb3
DQEJARYZb2NzcGNhdHdvQG9jc3B0ZXN0aW5nLmNvbTEPMA0GA1UEChMGQ0lUUklY
MB4XDTE2MDYyODAwNTk0M1oXDTI2MDYyNjAwNTk0M1owdDELMAkGA1UECBMCS0Ex
CzAJBgNVBAYTAklOMR0wGwYDVQQDFBRvY3NwY2F0d29fMDQzX3NlcnZlcjEoMCYG
CSqGSIb3DQEJARYZb2NzcGNhdHdvXzA0M0B0ZXN0X2NhLmNvbTEPMA0GA1UEChMG
Q0lUUklYMIIBIjANBgkqhkiG9w0BAQEFAAOCAQ8AMIIBCgKCAQEA7zp8JXz4glbN
djcZJY3ZAUepmw/iZ4SPv1fEZXqWSVqkfFToGA5LnEDcnl7Thoe5Bm+6jHtOL5Jx
VN87GPh8NXSpSMfdT/k9FlB4r/YOubH9IHr+WdVXzPJWuykpGj62OgrxVkJ+VB3x
zUhJ7M3RKqp9Ia8jVB2ByPM0HMShcB3WLWsefUvEB6zkGDbUO3BaUhYWsEdxhgLv
g98kxA8hWrA5QKYQbjmiEXWitbuw/80uILru4Xxuan4HFbZgmQj0ZQdnjMeduSz9
f/8qblJGOC1rB0rkLOZk9KH4u1FvnESoYyptpS8cGX5AGiYXKcd1mVkQ+dzjUE0E
SdN452g/EQIDAQABo4IBJjCCASIwEQYJYIZIAYb4QgEBBAQDAgZAMB0GA1UdDgQW
BBR+GkQYeFZGC01RljitgTQkjvJF1DCBnAYDVR0jBIGUMIGRgBQCiBhl3yWRIdQK
aHjWOKBfjxce06FupGwwajETMBEGA1UEAxQKT0NTUF9DQVRXTzELMAkGA1UECBMC
S0ExCzAJBgNVBAYTAklOMSgwJgYJKoZIhvcNAQkBFhlvY3NwY2F0d29Ab2NzcHRl
c3RpbmcuY29tMQ8wDQYDVQQKEwZDSVRSSViCCQCVRQ/r+l4B9jBPBggrBgEFBQcB
AQRDMEEwPwYIKwYBBQUHMAGGM2h0dHA6Ly9hc2hva2UyLm9jc3BfY2F0d28uY2l0
cml0ZS5uZXQvcmVzcG9uZGVycGF0aDANBgkqhkiG9w0BAQUFAAOCAQEAhiNWHzG/
kcn6uqV0btAuGpBo1Oi8acFIrwLKL1GU+Iql/TWCa5SxEsNZMmmB40eaKRcK0Xlk
3fxnzgVfY4D160401rBree7QpRw72HUxIr0HgpwRqfV64wMrCVGXFOrWIwarvm2y
VkjiPt541IntNKbkNOJBX+X/fNB9Mg39HivdPm6oEBIbdMr3FmGdQTjdhh3jNelt
XjIOFl8ApPjYRSSMgz6vsU/Y/1aPwmJuCJibxXbV0ZiEjGKFEXAR2AuNnlk8c9YL
cEWqiucGFZq37/aKVdqMfYCwfgMFNWDoViNzA6r4eLbzkq56PZfwAHbVwbqIChmo
Ur1dbgj8OG9wDg==
-----END CERTIFICATE-----
