Certificate:
    Data:
        Version: 3 (0x2)
        Serial Number:
            0b:0c:0d:01:02:03:04:05:06:07:08:09:0d
    Signature Algorithm: sha1WithRSAEncryption
        Issuer: CN=OCSP_CATHREE, ST=KA, C=IN/emailAddress=ocspcathree@ocsptesting.com, O=CITRIX
        Validity
            Not Before: Jun 28 01:09:36 2016 GMT
            Not After : Jun 26 01:09:36 2026 GMT
        Subject: ST=KA, C=IN, CN=ocspcathree_004_server/emailAddress=ocspcathree_004@test_ca.com, O=CITRIX
        Subject Public Key Info:
            Public Key Algorithm: rsaEncryption
                Public-Key: (2048 bit)
                Modulus:
                    00:ad:f4:49:90:1b:4c:62:8f:91:24:4f:a5:d0:6f:
                    cc:5a:ee:53:eb:1d:c7:64:ec:80:c0:ba:15:55:00:
                    06:7c:54:6c:13:ad:1a:09:46:9c:d6:15:6e:b3:ba:
                    6e:6e:f1:99:18:33:5f:b5:8b:7c:81:6d:bf:ef:99:
                    34:1e:52:7f:db:05:51:30:82:4d:f3:83:33:d6:d4:
                    b8:9c:c6:29:6d:1a:4d:1a:d4:42:a0:19:0c:ef:7f:
                    34:b2:1e:91:ad:08:10:bf:4a:4e:e9:d5:be:eb:9c:
                    13:6a:c7:47:25:70:9c:14:8c:88:35:ee:2b:f6:51:
                    51:c0:68:5e:0e:50:47:c1:1e:ab:a3:89:cd:59:0f:
                    bf:7b:94:55:de:43:22:78:01:53:6b:0e:5f:25:c9:
                    a6:79:74:e7:9d:4c:99:ab:f3:f5:8e:e7:1d:8c:29:
                    a1:69:a1:57:9a:25:ac:c5:f1:b2:84:7a:a8:1f:5a:
                    f8:ba:e6:8b:c8:89:74:14:6f:b1:c2:f3:4c:5a:85:
                    66:43:f8:e4:bf:02:93:0d:95:b6:47:56:9b:59:38:
                    51:8e:51:2e:a5:ef:50:85:c0:83:bb:e9:f2:25:cc:
                    d9:8b:dd:9d:2a:41:24:7a:e8:d7:88:e8:04:27:25:
                    2f:40:8f:0d:28:c7:5c:1c:06:ec:1c:a6:46:84:ec:
                    e2:25
                Exponent: 65537 (0x10001)
        X509v3 extensions:
            Netscape Cert Type: 
                SSL Server
            X509v3 Subject Key Identifier: 
                41:0B:0C:0B:12:95:25:5C:CE:5B:72:FA:1C:17:81:73:52:36:E8:4D
            X509v3 Authority Key Identifier: 
                keyid:96:54:A1:BC:07:1C:EF:D7:86:C2:A1:CD:13:A7:F6:9B:22:D8:59:81
                DirName:/CN=OCSP_CATHREE/ST=KA/C=IN/emailAddress=ocspcathree@ocsptesting.com/O=CITRIX
                serial:C1:1F:31:B0:75:6E:FF:4F

            Authority Information Access: 
                OCSP - URI:http://s4.ocsp_cathree.citrite.net/responderpath

    Signature Algorithm: sha1WithRSAEncryption
         41:27:ce:16:70:9e:42:cc:01:b3:d7:14:37:ca:9e:ba:94:79:
         f3:2a:9a:c8:5d:77:39:f8:d2:68:f5:fc:42:68:0d:bf:bb:27:
         b9:c8:c4:24:43:f5:d7:26:f0:7e:71:1a:24:e4:26:a3:e6:da:
         67:45:3e:13:38:0b:43:60:ef:3e:24:07:56:3b:f4:ad:c0:a2:
         35:e6:e9:b7:3f:60:5d:9b:46:bc:51:e3:0e:4a:f0:22:9c:64:
         ae:f6:7f:b4:84:73:f2:13:fc:08:66:ea:50:7b:4f:b3:6c:20:
         7e:58:bd:72:4f:67:d5:c3:2d:7b:25:dd:36:99:9c:73:eb:fd:
         c1:d1:08:98:e0:7a:44:74:cd:be:09:9e:ee:d1:28:1a:e1:a8:
         d6:45:76:9f:cc:51:f6:b3:01:f8:93:67:87:c0:d6:61:78:a8:
         d3:6f:54:3c:c9:77:49:fd:a4:4d:44:47:47:a1:8a:85:da:16:
         02:f8:9f:d7:64:c7:69:1c:07:ba:e6:ea:d3:b3:8e:7f:af:60:
         75:8c:54:8a:97:41:1b:62:95:64:99:ae:65:1e:04:8c:e0:8b:
         a2:39:48:c3:99:27:2b:64:87:d7:76:de:fa:ff:27:d1:d2:c5:
         c4:90:ba:35:15:f0:74:23:bc:a1:53:00:f6:cd:28:ed:2b:fd:
         af:66:38:c8
-----BEGIN CERTIFICATE-----
MIIEljCCA36gAwIBAgINCwwNAQIDBAUGBwgJDTANBgkqhkiG9w0BAQUFADBuMRUw
EwYDVQQDFAxPQ1NQX0NBVEhSRUUxCzAJBgNVBAgTAktBMQswCQYDVQQGEwJJTjEq
MCgGCSqGSIb3DQEJARYbb2NzcGNhdGhyZWVAb2NzcHRlc3RpbmcuY29tMQ8wDQYD
VQQKEwZDSVRSSVgwHhcNMTYwNjI4MDEwOTM2WhcNMjYwNjI2MDEwOTM2WjB4MQsw
CQYDVQQIEwJLQTELMAkGA1UEBhMCSU4xHzAdBgNVBAMUFm9jc3BjYXRocmVlXzAw
NF9zZXJ2ZXIxKjAoBgkqhkiG9w0BCQEWG29jc3BjYXRocmVlXzAwNEB0ZXN0X2Nh
LmNvbTEPMA0GA1UEChMGQ0lUUklYMIIBIjANBgkqhkiG9w0BAQEFAAOCAQ8AMIIB
CgKCAQEArfRJkBtMYo+RJE+l0G/MWu5T6x3HZOyAwLoVVQAGfFRsE60aCUac1hVu
s7pubvGZGDNftYt8gW2/75k0HlJ/2wVRMIJN84Mz1tS4nMYpbRpNGtRCoBkM7380
sh6RrQgQv0pO6dW+65wTasdHJXCcFIyINe4r9lFRwGheDlBHwR6ro4nNWQ+/e5RV
3kMieAFTaw5fJcmmeXTnnUyZq/P1jucdjCmhaaFXmiWsxfGyhHqoH1r4uuaLyIl0
FG+xwvNMWoVmQ/jkvwKTDZW2R1abWThRjlEupe9QhcCDu+nyJczZi92dKkEkeujX
iOgEJyUvQI8NKMdcHAbsHKZGhOziJQIDAQABo4IBJzCCASMwEQYJYIZIAYb4QgEB
BAQDAgZAMB0GA1UdDgQWBBRBCwwLEpUlXM5bcvocF4FzUjboTTCBoAYDVR0jBIGY
MIGVgBSWVKG8Bxzv14bCoc0Tp/abIthZgaFypHAwbjEVMBMGA1UEAxQMT0NTUF9D
QVRIUkVFMQswCQYDVQQIEwJLQTELMAkGA1UEBhMCSU4xKjAoBgkqhkiG9w0BCQEW
G29jc3BjYXRocmVlQG9jc3B0ZXN0aW5nLmNvbTEPMA0GA1UEChMGQ0lUUklYggkA
wR8xsHVu/08wTAYIKwYBBQUHAQEEQDA+MDwGCCsGAQUFBzABhjBodHRwOi8vczQu
b2NzcF9jYXRocmVlLmNpdHJpdGUubmV0L3Jlc3BvbmRlcnBhdGgwDQYJKoZIhvcN
AQEFBQADggEBAEEnzhZwnkLMAbPXFDfKnrqUefMqmshddzn40mj1/EJoDb+7J7nI
xCRD9dcm8H5xGiTkJqPm2mdFPhM4C0Ng7z4kB1Y79K3AojXm6bc/YF2bRrxR4w5K
8CKcZK72f7SEc/IT/Ahm6lB7T7NsIH5YvXJPZ9XDLXsl3TaZnHPr/cHRCJjgekR0
zb4Jnu7RKBrhqNZFdp/MUfazAfiTZ4fA1mF4qNNvVDzJd0n9pE1ER0ehioXaFgL4
n9dkx2kcB7rm6tOzjn+vYHWMVIqXQRtilWSZrmUeBIzgi6I5SMOZJytkh9d23vr/
J9HSxcSQujUV8HQjvKFTAPbNKO0r/a9mOMg=
-----END CERTIFICATE-----
