Certificate:
    Data:
        Version: 3 (0x2)
        Serial Number: 11042563100203 (0xa0b0c0d0e2b)
    Signature Algorithm: sha1WithRSAEncryption
        Issuer: CN=OCSP_CATWO, ST=KA, C=IN/emailAddress=ocspcatwo@ocsptesting.com, O=CITRIX
        Validity
            Not Before: Jun 28 00:49:59 2016 GMT
            Not After : Jun 26 00:49:59 2026 GMT
        Subject: ST=KA, C=IN, CN=015_server/emailAddress=015@test_ca.com, O=CITRIX
        Subject Public Key Info:
            Public Key Algorithm: rsaEncryption
                Public-Key: (2048 bit)
                Modulus:
                    00:c3:09:d2:8d:ce:1b:e3:9a:70:bf:fb:59:ef:39:
                    04:82:75:4e:4d:18:70:4e:25:d9:7c:ff:92:8c:5d:
                    cd:9e:ee:61:a0:f8:54:47:b6:e1:05:16:98:f1:f6:
                    10:36:93:90:aa:e3:a6:35:e0:84:59:76:f9:01:7c:
                    09:e0:f6:18:69:80:b3:95:9a:61:0d:3a:20:7f:0f:
                    ac:76:61:ab:33:d2:34:57:e0:b6:fe:19:d9:b8:ab:
                    aa:a3:56:6f:b3:b2:42:29:fd:39:63:a8:78:6a:9e:
                    a5:77:c5:57:5b:a7:7f:4b:92:56:21:5b:f9:b0:5e:
                    da:0b:13:b5:56:9b:75:96:c0:e0:9d:4b:8f:d3:21:
                    ea:f5:53:1d:ac:37:52:8d:1f:ba:2e:3f:52:f8:8c:
                    db:e0:ae:9a:8b:7a:01:81:4e:ba:80:86:ae:04:6b:
                    6d:ab:2e:62:b7:c1:99:aa:ff:ab:ae:bc:73:c9:9f:
                    12:54:fe:4c:a6:bd:e1:be:81:57:99:81:8d:7e:c5:
                    a4:a1:37:6d:de:5f:d7:4b:9c:20:44:64:4b:7d:22:
                    e4:b1:35:6b:b2:95:03:47:92:a2:35:71:9d:bc:58:
                    d8:06:c8:25:94:77:96:b9:79:a0:d0:a8:e5:26:b1:
                    38:e0:5a:a0:76:60:5e:11:66:59:58:4c:1c:d4:b0:
                    cb:fb
                Exponent: 65537 (0x10001)
        X509v3 extensions:
            Netscape Cert Type: 
                SSL Server
            X509v3 Subject Key Identifier: 
                66:CB:56:45:37:23:1F:1A:B6:BC:DE:FF:6B:B3:34:2D:49:67:0D:D3
            X509v3 Authority Key Identifier: 
                keyid:02:88:18:65:DF:25:91:21:D4:0A:68:78:D6:38:A0:5F:8F:17:1E:D3
                DirName:/CN=OCSP_CATWO/ST=KA/C=IN/emailAddress=ocspcatwo@ocsptesting.com/O=CITRIX
                serial:95:45:0F:EB:FA:5E:01:F6

            Authority Information Access: 
                OCSP - URI:http://172.18.10.21/responderpath

    Signature Algorithm: sha1WithRSAEncryption
         7d:61:22:73:f1:9b:53:7a:90:83:f4:91:e2:e9:36:de:2c:a0:
         78:a5:bb:7e:40:a5:81:87:0e:f8:40:f5:d0:a3:bd:44:5f:d3:
         ba:e4:cc:7a:ed:39:18:74:23:ff:f8:0e:4c:f4:e8:32:01:d7:
         99:7f:ec:5a:7b:7a:5c:32:4c:f6:88:97:75:e4:61:1b:5f:be:
         02:f3:35:0e:58:fe:54:2f:94:f8:00:1c:d1:07:c1:5d:96:0f:
         b3:21:c6:f8:4a:25:fc:a8:a3:0e:7d:dd:4b:88:54:31:80:6f:
         b3:bc:f4:94:83:c4:f3:63:8f:52:fb:62:80:fe:ae:e5:c0:4b:
         97:46:de:d0:5b:48:d4:72:c6:6f:5b:66:7b:29:b9:29:f2:1d:
         ac:48:84:8d:f5:f7:e5:e1:69:8e:85:74:ba:9f:9f:fb:f1:f3:
         23:47:76:fa:a5:ea:0f:a9:2d:15:7c:98:17:37:86:72:40:1a:
         f0:51:0c:07:8f:ff:f9:f5:27:5a:c7:02:f2:f0:eb:d4:1e:5c:
         e8:62:b0:a0:7c:41:3a:a7:0e:c5:08:e2:03:b1:ea:0d:e2:f4:
         16:49:b0:b3:8b:d4:b3:90:0f:82:a7:ff:a8:74:22:41:6a:06:
         3e:2c:5e:87:c0:b9:08:d7:14:7e:c9:7e:ba:1c:8e:cf:a2:f1:
         06:d7:4a:38
-----BEGIN CERTIFICATE-----
MIIEYDCCA0igAwIBAgIGCgsMDQ4rMA0GCSqGSIb3DQEBBQUAMGoxEzARBgNVBAMU
Ck9DU1BfQ0FUV08xCzAJBgNVBAgTAktBMQswCQYDVQQGEwJJTjEoMCYGCSqGSIb3
DQEJARYZb2NzcGNhdHdvQG9jc3B0ZXN0aW5nLmNvbTEPMA0GA1UEChMGQ0lUUklY
MB4XDTE2MDYyODAwNDk1OVoXDTI2MDYyNjAwNDk1OVowYDELMAkGA1UECBMCS0Ex
CzAJBgNVBAYTAklOMRMwEQYDVQQDFAowMTVfc2VydmVyMR4wHAYJKoZIhvcNAQkB
Fg8wMTVAdGVzdF9jYS5jb20xDzANBgNVBAoTBkNJVFJJWDCCASIwDQYJKoZIhvcN
AQEBBQADggEPADCCAQoCggEBAMMJ0o3OG+OacL/7We85BIJ1Tk0YcE4l2Xz/koxd
zZ7uYaD4VEe24QUWmPH2EDaTkKrjpjXghFl2+QF8CeD2GGmAs5WaYQ06IH8PrHZh
qzPSNFfgtv4Z2birqqNWb7OyQin9OWOoeGqepXfFV1unf0uSViFb+bBe2gsTtVab
dZbA4J1Lj9Mh6vVTHaw3Uo0fui4/UviM2+Cumot6AYFOuoCGrgRrbasuYrfBmar/
q668c8mfElT+TKa94b6BV5mBjX7FpKE3bd5f10ucIERkS30i5LE1a7KVA0eSojVx
nbxY2AbIJZR3lrl5oNCo5SaxOOBaoHZgXhFmWVhMHNSwy/sCAwEAAaOCARQwggEQ
MBEGCWCGSAGG+EIBAQQEAwIGQDAdBgNVHQ4EFgQUZstWRTcjHxq2vN7/a7M0LUln
DdMwgZwGA1UdIwSBlDCBkYAUAogYZd8lkSHUCmh41jigX48XHtOhbqRsMGoxEzAR
BgNVBAMUCk9DU1BfQ0FUV08xCzAJBgNVBAgTAktBMQswCQYDVQQGEwJJTjEoMCYG
CSqGSIb3DQEJARYZb2NzcGNhdHdvQG9jc3B0ZXN0aW5nLmNvbTEPMA0GA1UEChMG
Q0lUUklYggkAlUUP6/peAfYwPQYIKwYBBQUHAQEEMTAvMC0GCCsGAQUFBzABhiFo
dHRwOi8vMTcyLjE4LjEwLjIxL3Jlc3BvbmRlcnBhdGgwDQYJKoZIhvcNAQEFBQAD
ggEBAH1hInPxm1N6kIP0keLpNt4soHilu35ApYGHDvhA9dCjvURf07rkzHrtORh0
I//4Dkz06DIB15l/7Fp7elwyTPaIl3XkYRtfvgLzNQ5Y/lQvlPgAHNEHwV2WD7Mh
xvhKJfyoow593UuIVDGAb7O89JSDxPNjj1L7YoD+ruXAS5dG3tBbSNRyxm9bZnsp
uSnyHaxIhI319+XhaY6FdLqfn/vx8yNHdvql6g+pLRV8mBc3hnJAGvBRDAeP//n1
J1rHAvLw69QeXOhisKB8QTqnDsUI4gOx6g3i9BZJsLOL1LOQD4Kn/6h0IkFqBj4s
XofAuQjXFH7Jfrocjs+i8QbXSjg=
-----END CERTIFICATE-----
