Certificate:
    Data:
        Version: 3 (0x2)
        Serial Number: 1108152289055 (0x1020306071f)
    Signature Algorithm: sha256WithRSAEncryption
        Issuer: CN=OCSP_CAONE, ST=KA, C=IN/emailAddress=ocsp_caone@ocsptest.com, O=CITRIX
        Validity
            Not Before: Jun 27 02:02:44 2016 GMT
            Not After : Jun 25 02:02:44 2026 GMT
        Subject: ST=KA, C=IN, CN=ocsp_caone_server_one_server/emailAddress=ocsp_caone_server_one@test_ca.com, O=CITRIX
        Subject Public Key Info:
            Public Key Algorithm: rsaEncryption
                Public-Key: (2048 bit)
                Modulus:
                    00:cf:1b:5d:4d:92:25:63:03:ed:80:59:c6:88:2b:
                    91:c2:dd:3f:34:e6:1c:54:a1:72:d9:69:34:30:2a:
                    2f:bb:f0:03:36:e7:11:f0:b1:fe:26:aa:b7:4c:aa:
                    74:fb:a8:de:80:72:1b:e3:ae:90:f3:8d:cf:9f:af:
                    c9:fa:be:5a:20:97:9b:cc:70:87:89:21:0a:00:62:
                    83:32:01:9d:02:45:93:39:56:47:50:4a:ae:2c:e8:
                    fa:7d:47:fa:30:9b:9f:f6:76:4d:c4:66:93:af:db:
                    ba:19:46:f1:9b:de:5d:d6:41:0c:fc:32:d2:70:6a:
                    20:25:63:d6:90:ee:26:f1:21:21:30:a8:d5:a3:50:
                    55:68:c5:a9:1e:f2:b4:b0:8e:37:66:1c:8f:5b:52:
                    66:89:c5:af:bb:3f:64:9a:9b:83:9a:de:18:c6:3d:
                    9b:ad:48:aa:f4:91:33:fd:7a:7f:b5:01:62:7b:06:
                    e0:bc:7f:34:59:d3:e8:cd:58:04:a0:71:d2:cb:f6:
                    c7:43:41:4b:0d:b0:c4:fd:34:2a:69:34:75:4a:56:
                    d9:e0:e3:eb:c9:a7:51:bf:05:27:b9:1b:41:fc:9a:
                    dd:df:a3:c3:f7:7b:3d:5e:6f:fc:58:7c:b0:e8:b7:
                    fb:57:b3:31:61:fd:a9:6d:42:93:dc:ca:a5:2c:2f:
                    05:c3
                Exponent: 65537 (0x10001)
        X509v3 extensions:
            Netscape Cert Type: 
                SSL Server
            X509v3 Subject Key Identifier: 
                0C:0E:3F:8A:97:A0:65:C3:2F:E1:A6:97:62:F3:F8:15:78:32:8C:C7
            X509v3 Authority Key Identifier: 
                keyid:B7:5F:A4:77:93:33:C4:32:94:1C:8E:F1:0C:3B:DE:62:5E:E2:96:0E
                DirName:/CN=OCSP_CAONE/ST=KA/C=IN/emailAddress=ocsp_caone@ocsptest.com/O=CITRIX
                serial:A2:D9:70:A5:7D:CC:76:E4

            Authority Information Access: 
                OCSP - URI:http://ashoke_ocsp_caone.citrite.net/responderpath

    Signature Algorithm: sha256WithRSAEncryption
         27:94:77:8f:0f:2e:8c:3f:17:6a:98:6a:cc:a1:0c:f2:94:a8:
         d2:e5:12:68:d5:53:2b:a8:70:01:a3:1c:b5:53:a8:64:04:34:
         2c:c6:57:a0:73:4e:76:6e:d8:69:8b:d8:b5:2c:bf:8f:ff:a7:
         99:f6:62:be:a6:7c:c4:57:9c:67:4b:bb:4f:2b:88:4f:b8:4f:
         18:d8:90:e5:b4:c6:a4:1f:25:9b:f7:4b:d8:fd:0b:79:18:db:
         09:71:de:a3:45:5d:63:3e:8a:36:db:46:df:ed:32:74:de:18:
         fa:80:3e:53:16:14:64:5f:c4:c6:3a:ec:79:5f:ac:32:d7:27:
         99:90:52:75:35:4f:cb:54:fe:c7:f3:af:a8:cb:89:9d:44:b3:
         73:ec:c3:62:3f:1f:48:47:4d:fe:08:aa:b1:80:66:1b:69:d0:
         a7:fd:ca:1f:a8:e1:36:40:b8:4d:9e:1b:39:fa:6d:6d:f6:a6:
         4d:1b:b9:05:ea:90:d2:04:a4:0e:05:78:69:aa:be:eb:e6:21:
         b9:de:14:d8:1e:2c:77:79:33:6f:c0:8d:94:0e:12:07:7d:8a:
         18:e1:d8:98:0d:92:7e:1e:c5:7a:7f:12:f7:01:d4:8f:68:5f:
         8b:8f:ee:89:e6:37:9c:bb:43:31:d3:e9:dd:49:2f:11:ec:11:
         2e:16:53:8d
-----BEGIN CERTIFICATE-----
MIIEkjCCA3qgAwIBAgIGAQIDBgcfMA0GCSqGSIb3DQEBCwUAMGgxEzARBgNVBAMU
Ck9DU1BfQ0FPTkUxCzAJBgNVBAgTAktBMQswCQYDVQQGEwJJTjEmMCQGCSqGSIb3
DQEJARYXb2NzcF9jYW9uZUBvY3NwdGVzdC5jb20xDzANBgNVBAoTBkNJVFJJWDAe
Fw0xNjA2MjcwMjAyNDRaFw0yNjA2MjUwMjAyNDRaMIGEMQswCQYDVQQIEwJLQTEL
MAkGA1UEBhMCSU4xJTAjBgNVBAMUHG9jc3BfY2FvbmVfc2VydmVyX29uZV9zZXJ2
ZXIxMDAuBgkqhkiG9w0BCQEWIW9jc3BfY2FvbmVfc2VydmVyX29uZUB0ZXN0X2Nh
LmNvbTEPMA0GA1UEChMGQ0lUUklYMIIBIjANBgkqhkiG9w0BAQEFAAOCAQ8AMIIB
CgKCAQEAzxtdTZIlYwPtgFnGiCuRwt0/NOYcVKFy2Wk0MCovu/ADNucR8LH+Jqq3
TKp0+6jegHIb466Q843Pn6/J+r5aIJebzHCHiSEKAGKDMgGdAkWTOVZHUEquLOj6
fUf6MJuf9nZNxGaTr9u6GUbxm95d1kEM/DLScGogJWPWkO4m8SEhMKjVo1BVaMWp
HvK0sI43ZhyPW1JmicWvuz9kmpuDmt4Yxj2brUiq9JEz/Xp/tQFiewbgvH80WdPo
zVgEoHHSy/bHQ0FLDbDE/TQqaTR1SlbZ4OPryadRvwUnuRtB/Jrd36PD93s9Xm/8
WHyw6Lf7V7MxYf2pbUKT3MqlLC8FwwIDAQABo4IBIzCCAR8wEQYJYIZIAYb4QgEB
BAQDAgZAMB0GA1UdDgQWBBQMDj+Kl6Blwy/hppdi8/gVeDKMxzCBmgYDVR0jBIGS
MIGPgBS3X6R3kzPEMpQcjvEMO95iXuKWDqFspGowaDETMBEGA1UEAxQKT0NTUF9D
QU9ORTELMAkGA1UECBMCS0ExCzAJBgNVBAYTAklOMSYwJAYJKoZIhvcNAQkBFhdv
Y3NwX2Nhb25lQG9jc3B0ZXN0LmNvbTEPMA0GA1UEChMGQ0lUUklYggkAotlwpX3M
duQwTgYIKwYBBQUHAQEEQjBAMD4GCCsGAQUFBzABhjJodHRwOi8vYXNob2tlX29j
c3BfY2FvbmUuY2l0cml0ZS5uZXQvcmVzcG9uZGVycGF0aDANBgkqhkiG9w0BAQsF
AAOCAQEAJ5R3jw8ujD8XaphqzKEM8pSo0uUSaNVTK6hwAaMctVOoZAQ0LMZXoHNO
dm7YaYvYtSy/j/+nmfZivqZ8xFecZ0u7TyuIT7hPGNiQ5bTGpB8lm/dL2P0LeRjb
CXHeo0VdYz6KNttG3+0ydN4Y+oA+UxYUZF/ExjrseV+sMtcnmZBSdTVPy1T+x/Ov
qMuJnUSzc+zDYj8fSEdN/giqsYBmG2nQp/3KH6jhNkC4TZ4bOfptbfamTRu5BeqQ
0gSkDgV4aaq+6+Yhud4U2B4sd3kzb8CNlA4SB32KGOHYmA2Sfh7Fen8S9wHUj2hf
i4/uieY3nLtDMdPp3UkvEewRLhZTjQ==
-----END CERTIFICATE-----
