Certificate:
    Data:
        Version: 3 (0x2)
        Serial Number: 11042563100223 (0xa0b0c0d0e3f)
    Signature Algorithm: sha1WithRSAEncryption
        Issuer: CN=OCSP_CATWO, ST=KA, C=IN/emailAddress=ocspcatwo@ocsptesting.com, O=CITRIX
        Validity
            Not Before: Jun 28 00:57:49 2016 GMT
            Not After : Jun 26 00:57:49 2026 GMT
        Subject: ST=KA, C=IN, CN=ocspcatwo_035_server/emailAddress=ocspcatwo_035@test_ca.com, O=CITRIX
        Subject Public Key Info:
            Public Key Algorithm: rsaEncryption
                Public-Key: (2048 bit)
                Modulus:
                    00:ab:b8:12:62:02:18:90:ed:3f:4f:29:eb:43:cc:
                    18:da:c0:60:ff:b5:78:2e:92:c3:9f:74:7c:7e:36:
                    26:cf:41:66:7c:c7:ae:af:e8:38:7c:66:bd:e4:2c:
                    d8:fc:a8:0b:2f:d7:d2:d2:f9:12:db:97:39:0f:fd:
                    54:b6:c9:dd:31:90:5c:c3:2c:98:65:6f:88:e6:7c:
                    2e:71:9a:fe:be:99:9b:6f:83:58:b9:d9:86:58:a9:
                    90:c5:80:f8:07:3f:78:8e:2e:d5:69:63:1c:17:ff:
                    1e:59:e7:79:df:76:9c:03:2d:73:5c:3c:67:ac:d3:
                    35:19:c8:d9:6f:2b:94:cb:d8:65:46:5a:58:0e:cd:
                    fe:f3:8d:73:c2:02:90:87:0a:ad:4c:38:ab:80:6f:
                    fa:9a:8a:a3:01:4f:85:b0:36:d7:69:be:a9:59:3f:
                    90:22:7a:9b:e3:3c:7b:1a:16:94:06:df:3b:d1:44:
                    fe:c4:8e:df:b7:c3:ed:7b:ea:a7:bb:b6:3f:ae:d2:
                    d3:2c:1f:0a:01:ce:26:18:9a:db:fb:16:a7:65:c4:
                    ea:d2:ac:bb:5d:28:12:2b:9a:e7:24:b6:dc:25:a7:
                    58:34:2a:1f:86:0e:35:2d:8e:97:20:da:78:c1:4e:
                    f0:3f:9a:6c:4f:9c:21:43:67:61:9a:25:1d:c1:e9:
                    e3:a7
                Exponent: 65537 (0x10001)
        X509v3 extensions:
            Netscape Cert Type: 
                SSL Server
            X509v3 Subject Key Identifier: 
                E3:52:BE:5F:13:D2:B8:D4:D2:DB:2D:C0:22:DD:CA:AB:A8:92:96:88
            X509v3 Authority Key Identifier: 
                keyid:02:88:18:65:DF:25:91:21:D4:0A:68:78:D6:38:A0:5F:8F:17:1E:D3
                DirName:/CN=OCSP_CATWO/ST=KA/C=IN/emailAddress=ocspcatwo@ocsptesting.com/O=CITRIX
                serial:95:45:0F:EB:FA:5E:01:F6

            Authority Information Access: 
                OCSP - URI:http://ashoke.ocsp_catwo.citrite.net/responderpath

    Signature Algorithm: sha1WithRSAEncryption
         0e:39:c3:08:d8:16:42:96:04:cd:f9:46:76:2b:23:99:e0:80:
         9b:37:06:b3:06:e9:50:59:b6:b4:bf:f0:08:4e:e2:1f:97:b7:
         3f:f2:57:4f:9a:c4:70:a8:21:4f:41:20:8c:b2:6d:33:03:b1:
         b9:bf:3b:69:a2:b9:be:1e:d0:b0:27:05:a4:3b:77:76:d2:fa:
         4f:d8:19:d7:f9:0f:2c:89:7b:78:59:a6:75:be:c3:b4:37:46:
         18:b1:f4:b0:f7:26:77:2b:8c:c5:82:98:6e:ff:8e:ab:b4:d6:
         96:c2:dd:c8:90:33:90:7f:04:71:46:bb:24:9e:2c:bc:0e:b6:
         4f:01:80:69:a1:5b:85:03:c7:b6:bf:20:0b:22:09:89:75:6e:
         35:bc:8b:22:68:92:47:3f:ba:f7:24:89:d4:84:67:ab:b1:15:
         85:15:0d:c8:27:ad:50:71:db:03:b2:74:86:fd:c4:59:2c:31:
         0d:aa:46:b8:18:2d:bb:ca:dc:d2:e8:51:4b:20:54:22:ca:fa:
         ad:70:21:96:8f:d3:5c:29:eb:85:be:f1:89:27:5e:8f:af:69:
         c2:86:e2:8f:37:f3:b8:5b:86:5c:23:f8:7d:bf:5a:42:05:61:
         1b:43:19:3e:2c:f3:95:ba:15:25:28:14:69:15:fb:4d:b3:9e:
         e4:fa:d0:04
-----BEGIN CERTIFICATE-----
MIIEhTCCA22gAwIBAgIGCgsMDQ4/MA0GCSqGSIb3DQEBBQUAMGoxEzARBgNVBAMU
Ck9DU1BfQ0FUV08xCzAJBgNVBAgTAktBMQswCQYDVQQGEwJJTjEoMCYGCSqGSIb3
DQEJARYZb2NzcGNhdHdvQG9jc3B0ZXN0aW5nLmNvbTEPMA0GA1UEChMGQ0lUUklY
MB4XDTE2MDYyODAwNTc0OVoXDTI2MDYyNjAwNTc0OVowdDELMAkGA1UECBMCS0Ex
CzAJBgNVBAYTAklOMR0wGwYDVQQDFBRvY3NwY2F0d29fMDM1X3NlcnZlcjEoMCYG
CSqGSIb3DQEJARYZb2NzcGNhdHdvXzAzNUB0ZXN0X2NhLmNvbTEPMA0GA1UEChMG
Q0lUUklYMIIBIjANBgkqhkiG9w0BAQEFAAOCAQ8AMIIBCgKCAQEAq7gSYgIYkO0/
TynrQ8wY2sBg/7V4LpLDn3R8fjYmz0FmfMeur+g4fGa95CzY/KgLL9fS0vkS25c5
D/1UtsndMZBcwyyYZW+I5nwucZr+vpmbb4NYudmGWKmQxYD4Bz94ji7VaWMcF/8e
Wed533acAy1zXDxnrNM1GcjZbyuUy9hlRlpYDs3+841zwgKQhwqtTDirgG/6moqj
AU+FsDbXab6pWT+QInqb4zx7GhaUBt870UT+xI7ft8Pte+qnu7Y/rtLTLB8KAc4m
GJrb+xanZcTq0qy7XSgSK5rnJLbcJadYNCofhg41LY6XINp4wU7wP5psT5whQ2dh
miUdwenjpwIDAQABo4IBJTCCASEwEQYJYIZIAYb4QgEBBAQDAgZAMB0GA1UdDgQW
BBTjUr5fE9K41NLbLcAi3cqrqJKWiDCBnAYDVR0jBIGUMIGRgBQCiBhl3yWRIdQK
aHjWOKBfjxce06FupGwwajETMBEGA1UEAxQKT0NTUF9DQVRXTzELMAkGA1UECBMC
S0ExCzAJBgNVBAYTAklOMSgwJgYJKoZIhvcNAQkBFhlvY3NwY2F0d29Ab2NzcHRl
c3RpbmcuY29tMQ8wDQYDVQQKEwZDSVRSSViCCQCVRQ/r+l4B9jBOBggrBgEFBQcB
AQRCMEAwPgYIKwYBBQUHMAGGMmh0dHA6Ly9hc2hva2Uub2NzcF9jYXR3by5jaXRy
aXRlLm5ldC9yZXNwb25kZXJwYXRoMA0GCSqGSIb3DQEBBQUAA4IBAQAOOcMI2BZC
lgTN+UZ2KyOZ4ICbNwazBulQWba0v/AITuIfl7c/8ldPmsRwqCFPQSCMsm0zA7G5
vztporm+HtCwJwWkO3d20vpP2BnX+Q8siXt4WaZ1vsO0N0YYsfSw9yZ3K4zFgphu
/46rtNaWwt3IkDOQfwRxRrskniy8DrZPAYBpoVuFA8e2vyALIgmJdW41vIsiaJJH
P7r3JInUhGersRWFFQ3IJ61QcdsDsnSG/cRZLDENqka4GC27ytzS6FFLIFQiyvqt
cCGWj9NcKeuFvvGJJ16Pr2nChuKPN/O4W4ZcI/h9v1pCBWEbQxk+LPOVuhUlKBRp
FftNs57k+tAE
-----END CERTIFICATE-----
