Certificate:
    Data:
        Version: 3 (0x2)
        Serial Number: 11042563100233 (0xa0b0c0d0e49)
    Signature Algorithm: sha1WithRSAEncryption
        Issuer: CN=OCSP_CATWO, ST=KA, C=IN/emailAddress=ocspcatwo@ocsptesting.com, O=CITRIX
        Validity
            Not Before: Jun 28 00:59:46 2016 GMT
            Not After : Jun 26 00:59:46 2026 GMT
        Subject: ST=KA, C=IN, CN=ocspcatwo_045_server/emailAddress=ocspcatwo_045@test_ca.com, O=CITRIX
        Subject Public Key Info:
            Public Key Algorithm: rsaEncryption
                Public-Key: (2048 bit)
                Modulus:
                    00:c4:b5:4b:e8:cf:a0:ae:41:29:61:7a:c4:ab:1a:
                    96:b2:f8:48:60:7d:21:ac:ee:19:38:15:02:07:20:
                    dd:97:88:05:19:b9:67:ff:a0:bf:06:35:53:b6:2a:
                    2c:85:e7:ea:97:9f:cf:b8:a8:7f:c0:68:8c:0c:a4:
                    37:56:34:f7:67:f9:b8:d2:59:e9:de:8e:d0:90:94:
                    6b:f2:a4:53:b5:3b:a5:6e:0e:5d:d2:fa:e8:cc:12:
                    da:50:8d:57:52:0c:99:3b:d3:a6:47:01:e3:1c:04:
                    b9:45:7c:db:19:69:7e:02:3e:10:e2:5e:a6:96:e8:
                    17:75:72:c7:11:3a:a4:5f:7f:3e:3f:4b:a9:bb:cb:
                    22:84:7a:e4:b9:a8:df:31:36:7d:4a:49:98:33:de:
                    47:9d:ed:0b:44:82:08:6f:c9:d8:66:08:fc:f6:36:
                    e0:d7:b6:cb:f7:a4:6a:01:8c:e7:e2:2b:d7:68:2e:
                    46:cb:e9:52:61:6e:40:b7:9e:f1:f1:50:c5:e9:15:
                    f3:a8:30:e8:5d:b8:53:7e:38:4b:9d:7a:65:23:d3:
                    a8:9c:0e:ad:87:fc:a9:1b:e2:2c:b5:a7:26:37:d9:
                    85:95:76:30:e2:d8:09:aa:19:d3:9f:2f:77:e0:64:
                    ae:bf:ae:36:9a:17:ec:57:e3:5a:f8:42:ae:7d:f0:
                    90:fb
                Exponent: 65537 (0x10001)
        X509v3 extensions:
            Netscape Cert Type: 
                SSL Server
            X509v3 Subject Key Identifier: 
                6D:DB:49:8D:9B:93:ED:44:7C:B2:F0:19:0F:4B:22:73:B1:75:B9:D9
            X509v3 Authority Key Identifier: 
                keyid:02:88:18:65:DF:25:91:21:D4:0A:68:78:D6:38:A0:5F:8F:17:1E:D3
                DirName:/CN=OCSP_CATWO/ST=KA/C=IN/emailAddress=ocspcatwo@ocsptesting.com/O=CITRIX
                serial:95:45:0F:EB:FA:5E:01:F6

            Authority Information Access: 
                OCSP - URI:http://ashoke2.ocsp_catwo.citrite.net/responderpath

    Signature Algorithm: sha1WithRSAEncryption
         26:c6:2c:96:8d:89:6d:20:af:dc:0d:d7:a2:ac:e6:99:f9:b2:
         ca:8f:d7:6e:8e:9e:49:6e:78:26:e4:a0:e7:61:59:52:0f:1e:
         4c:8e:20:0c:15:64:ee:2b:87:01:dc:a0:65:ab:0a:6d:df:a3:
         eb:77:b3:f8:ba:ca:c6:f5:bf:94:80:ad:ac:34:6b:64:bb:0c:
         eb:51:6d:1e:7a:0e:6f:15:57:41:ef:f7:3c:4a:5c:6c:5d:a6:
         ab:1c:ee:1b:b0:db:ef:ca:49:65:d9:9d:ae:47:4f:ad:ad:25:
         79:c5:3e:91:9b:c2:6b:d7:bc:a0:75:34:b3:41:f1:64:2d:3e:
         ba:7c:57:bc:72:fa:60:e8:65:c1:77:62:e3:e3:af:ae:dc:e2:
         f9:55:d0:8a:e9:0a:ee:e5:bf:ec:64:92:c5:b1:87:9e:e8:26:
         df:c4:e4:bf:1c:ea:50:96:45:bf:fd:50:7f:a7:24:b7:65:7d:
         0b:d1:f1:08:a8:81:38:4f:fe:ee:f2:7e:fb:85:24:b1:24:ef:
         b0:8f:f1:b1:b5:96:37:66:f9:95:ce:b5:62:88:7d:86:c4:f2:
         08:ac:19:c6:18:05:a1:f1:34:84:90:15:fe:ef:4b:5b:4a:f2:
         71:c5:ca:b3:cb:ca:58:73:ae:1d:7a:4f:fb:60:fe:1a:0e:e4:
         c9:89:cd:72
-----BEGIN CERTIFICATE-----
MIIEhjCCA26gAwIBAgIGCgsMDQ5JMA0GCSqGSIb3DQEBBQUAMGoxEzARBgNVBAMU
Ck9DU1BfQ0FUV08xCzAJBgNVBAgTAktBMQswCQYDVQQGEwJJTjEoMCYGCSqGSIb3
DQEJARYZb2NzcGNhdHdvQG9jc3B0ZXN0aW5nLmNvbTEPMA0GA1UEChMGQ0lUUklY
MB4XDTE2MDYyODAwNTk0NloXDTI2MDYyNjAwNTk0NlowdDELMAkGA1UECBMCS0Ex
CzAJBgNVBAYTAklOMR0wGwYDVQQDFBRvY3NwY2F0d29fMDQ1X3NlcnZlcjEoMCYG
CSqGSIb3DQEJARYZb2NzcGNhdHdvXzA0NUB0ZXN0X2NhLmNvbTEPMA0GA1UEChMG
Q0lUUklYMIIBIjANBgkqhkiG9w0BAQEFAAOCAQ8AMIIBCgKCAQEAxLVL6M+grkEp
YXrEqxqWsvhIYH0hrO4ZOBUCByDdl4gFGbln/6C/BjVTtioshefql5/PuKh/wGiM
DKQ3VjT3Z/m40lnp3o7QkJRr8qRTtTulbg5d0vrozBLaUI1XUgyZO9OmRwHjHAS5
RXzbGWl+Aj4Q4l6mlugXdXLHETqkX38+P0upu8sihHrkuajfMTZ9SkmYM95Hne0L
RIIIb8nYZgj89jbg17bL96RqAYzn4ivXaC5Gy+lSYW5At57x8VDF6RXzqDDoXbhT
fjhLnXplI9OonA6th/ypG+IstacmN9mFlXYw4tgJqhnTny934GSuv642mhfsV+Na
+EKuffCQ+wIDAQABo4IBJjCCASIwEQYJYIZIAYb4QgEBBAQDAgZAMB0GA1UdDgQW
BBRt20mNm5PtRHyy8BkPSyJzsXW52TCBnAYDVR0jBIGUMIGRgBQCiBhl3yWRIdQK
aHjWOKBfjxce06FupGwwajETMBEGA1UEAxQKT0NTUF9DQVRXTzELMAkGA1UECBMC
S0ExCzAJBgNVBAYTAklOMSgwJgYJKoZIhvcNAQkBFhlvY3NwY2F0d29Ab2NzcHRl
c3RpbmcuY29tMQ8wDQYDVQQKEwZDSVRSSViCCQCVRQ/r+l4B9jBPBggrBgEFBQcB
AQRDMEEwPwYIKwYBBQUHMAGGM2h0dHA6Ly9hc2hva2UyLm9jc3BfY2F0d28uY2l0
cml0ZS5uZXQvcmVzcG9uZGVycGF0aDANBgkqhkiG9w0BAQUFAAOCAQEAJsYslo2J
bSCv3A3Xoqzmmfmyyo/Xbo6eSW54JuSg52FZUg8eTI4gDBVk7iuHAdygZasKbd+j
63ez+LrKxvW/lICtrDRrZLsM61FtHnoObxVXQe/3PEpcbF2mqxzuG7Db78pJZdmd
rkdPra0lecU+kZvCa9e8oHU0s0HxZC0+unxXvHL6YOhlwXdi4+Ovrtzi+VXQiukK
7uW/7GSSxbGHnugm38TkvxzqUJZFv/1Qf6ckt2V9C9HxCKiBOE/+7vJ++4UksSTv
sI/xsbWWN2b5lc61Yoh9hsTyCKwZxhgFofE0hJAV/u9LW0ryccXKs8vKWHOuHXpP
+2D+Gg7kyYnNcg==
-----END CERTIFICATE-----
