Certificate:
    Data:
        Version: 3 (0x2)
        Serial Number: 11042563100188 (0xa0b0c0d0e1c)
    Signature Algorithm: sha1WithRSAEncryption
        Issuer: CN=OCSP_CATWO, ST=KA, C=IN/emailAddress=ocspcatwo@ocsptesting.com, O=CITRIX
        Validity
            Not Before: Jun 28 00:48:53 2016 GMT
            Not After : Jun 26 00:48:53 2026 GMT
        Subject: ST=KA, C=IN, CN=test_server/emailAddress=test@test_ca.com, O=CITRIX
        Subject Public Key Info:
            Public Key Algorithm: rsaEncryption
                Public-Key: (2048 bit)
                Modulus:
                    00:b5:47:13:ad:2c:c4:13:37:ac:8d:58:d5:21:25:
                    4a:df:39:24:2f:b4:4e:90:da:fd:40:3f:22:b8:88:
                    da:2d:91:e1:54:3a:d4:7a:70:53:23:97:99:a4:b0:
                    14:3d:14:a5:db:99:29:9b:15:3e:1b:6b:e0:b5:50:
                    f0:e6:e3:b6:88:12:6e:aa:58:67:09:b8:0d:09:f1:
                    a5:32:46:b8:df:8e:99:d9:6c:3e:95:a0:46:a8:70:
                    62:db:c0:e8:42:bc:dd:72:ea:5f:c3:66:6e:ef:92:
                    2b:53:8e:70:60:b9:b7:83:44:4d:b2:d9:da:9d:4c:
                    db:f4:72:42:10:4a:ec:fb:65:d9:26:a7:a6:43:fc:
                    02:03:a6:00:b3:6a:fd:3e:2a:60:e1:b1:41:a0:4a:
                    b0:df:df:23:f8:c0:57:a7:de:ea:ce:bc:a3:d3:85:
                    19:bd:0f:2c:ce:4b:ad:bf:0d:90:26:e0:12:fc:0f:
                    99:62:47:24:28:e8:a7:e1:42:30:59:e4:b0:a5:69:
                    2b:52:a0:91:cc:64:32:c2:94:fe:43:8d:42:8d:3d:
                    40:21:e2:f2:2d:0d:2a:c5:f2:ad:15:a4:db:65:3a:
                    c2:e4:ed:27:5c:37:5e:1e:35:b0:1b:10:6d:27:0e:
                    0a:29:01:0e:b4:a4:56:43:37:3f:eb:de:3b:5b:03:
                    fc:71
                Exponent: 65537 (0x10001)
        X509v3 extensions:
            Netscape Cert Type: 
                SSL Server
            X509v3 Subject Key Identifier: 
                65:D8:B4:33:2A:0D:E4:DC:8D:03:7A:DB:99:3F:52:8C:A3:8D:AF:99
            X509v3 Authority Key Identifier: 
                keyid:02:88:18:65:DF:25:91:21:D4:0A:68:78:D6:38:A0:5F:8F:17:1E:D3
                DirName:/CN=OCSP_CATWO/ST=KA/C=IN/emailAddress=ocspcatwo@ocsptesting.com/O=CITRIX
                serial:95:45:0F:EB:FA:5E:01:F6

            Authority Information Access: 
                OCSP - URI:http://172.18.10.21/responderpath

    Signature Algorithm: sha1WithRSAEncryption
         5d:1b:d3:23:e9:2e:82:71:1c:8c:f9:4c:c2:a5:f0:55:d4:45:
         3d:9a:05:0f:60:2e:6d:43:d1:0e:41:1b:a0:7b:72:ec:9b:d5:
         8c:4d:d6:6c:58:bf:e8:33:b6:2e:10:e4:8d:dd:a8:fe:8a:1e:
         69:8a:66:7d:30:5b:e6:dd:78:69:c4:0a:bb:04:bd:8a:d2:aa:
         d3:05:69:08:e6:08:83:e5:03:1c:be:07:42:2c:7b:4d:2c:e4:
         db:d8:68:00:e5:b5:2f:68:1f:be:90:df:a0:0c:4b:26:31:3b:
         60:e2:9a:6f:cf:28:ad:bd:f7:1f:4d:79:2d:f9:44:81:0b:16:
         eb:ab:24:82:86:34:47:de:9b:4b:da:15:00:a3:33:fa:df:8b:
         63:a3:d4:26:bf:78:bf:89:5d:92:3f:c7:7b:3e:3f:91:e4:40:
         9e:06:4b:6e:80:d7:f3:eb:7b:62:c2:11:7a:97:da:36:a1:9f:
         3e:cc:ab:c6:50:74:4c:9a:e7:e4:4f:63:09:c0:97:4c:6e:c2:
         3a:b8:22:96:7c:57:dc:ce:57:5c:1b:a4:c4:16:d4:ab:21:8e:
         7b:2d:f9:cc:49:bc:7c:30:94:44:2e:90:44:5f:ec:44:c4:5d:
         b3:69:7e:36:5a:e1:d3:37:59:b5:76:ec:87:e5:ee:cc:52:f2:
         06:cf:48:a1
-----BEGIN CERTIFICATE-----
MIIEYjCCA0qgAwIBAgIGCgsMDQ4cMA0GCSqGSIb3DQEBBQUAMGoxEzARBgNVBAMU
Ck9DU1BfQ0FUV08xCzAJBgNVBAgTAktBMQswCQYDVQQGEwJJTjEoMCYGCSqGSIb3
DQEJARYZb2NzcGNhdHdvQG9jc3B0ZXN0aW5nLmNvbTEPMA0GA1UEChMGQ0lUUklY
MB4XDTE2MDYyODAwNDg1M1oXDTI2MDYyNjAwNDg1M1owYjELMAkGA1UECBMCS0Ex
CzAJBgNVBAYTAklOMRQwEgYDVQQDFAt0ZXN0X3NlcnZlcjEfMB0GCSqGSIb3DQEJ
ARYQdGVzdEB0ZXN0X2NhLmNvbTEPMA0GA1UEChMGQ0lUUklYMIIBIjANBgkqhkiG
9w0BAQEFAAOCAQ8AMIIBCgKCAQEAtUcTrSzEEzesjVjVISVK3zkkL7ROkNr9QD8i
uIjaLZHhVDrUenBTI5eZpLAUPRSl25kpmxU+G2vgtVDw5uO2iBJuqlhnCbgNCfGl
Mka4346Z2Ww+laBGqHBi28DoQrzdcupfw2Zu75IrU45wYLm3g0RNstnanUzb9HJC
EErs+2XZJqemQ/wCA6YAs2r9Pipg4bFBoEqw398j+MBXp97qzryj04UZvQ8szkut
vw2QJuAS/A+ZYkckKOin4UIwWeSwpWkrUqCRzGQywpT+Q41CjT1AIeLyLQ0qxfKt
FaTbZTrC5O0nXDdeHjWwGxBtJw4KKQEOtKRWQzc/6947WwP8cQIDAQABo4IBFDCC
ARAwEQYJYIZIAYb4QgEBBAQDAgZAMB0GA1UdDgQWBBRl2LQzKg3k3I0DetuZP1KM
o42vmTCBnAYDVR0jBIGUMIGRgBQCiBhl3yWRIdQKaHjWOKBfjxce06FupGwwajET
MBEGA1UEAxQKT0NTUF9DQVRXTzELMAkGA1UECBMCS0ExCzAJBgNVBAYTAklOMSgw
JgYJKoZIhvcNAQkBFhlvY3NwY2F0d29Ab2NzcHRlc3RpbmcuY29tMQ8wDQYDVQQK
EwZDSVRSSViCCQCVRQ/r+l4B9jA9BggrBgEFBQcBAQQxMC8wLQYIKwYBBQUHMAGG
IWh0dHA6Ly8xNzIuMTguMTAuMjEvcmVzcG9uZGVycGF0aDANBgkqhkiG9w0BAQUF
AAOCAQEAXRvTI+kugnEcjPlMwqXwVdRFPZoFD2AubUPRDkEboHty7JvVjE3WbFi/
6DO2LhDkjd2o/ooeaYpmfTBb5t14acQKuwS9itKq0wVpCOYIg+UDHL4HQix7TSzk
29hoAOW1L2gfvpDfoAxLJjE7YOKab88orb33H015LflEgQsW66skgoY0R96bS9oV
AKMz+t+LY6PUJr94v4ldkj/Hez4/keRAngZLboDX8+t7YsIRepfaNqGfPsyrxlB0
TJrn5E9jCcCXTG7COrgilnxX3M5XXBukxBbUqyGOey35zEm8fDCURC6QRF/sRMRd
s2l+Nlrh0zdZtXbsh+XuzFLyBs9IoQ==
-----END CERTIFICATE-----
