Certificate:
    Data:
        Version: 3 (0x2)
        Serial Number: 11042563100175 (0xa0b0c0d0e0f)
    Signature Algorithm: sha256WithRSAEncryption
        Issuer: CN=OOTYCA_CA, C=IN, O=CITRIX, OU=ANG, ST=KA/emailAddress=OOTYCA_CA@OOTYCA_mail.com
        Validity
            Not Before: Jul  8 04:37:02 2016 GMT
            Not After : Jul  6 04:37:02 2026 GMT
        Subject: ST=KA, C=IN, CN=101_OOTYCA_server/emailAddress=101_OOTYCA@test_ca.com, O=CITRIX
        Subject Public Key Info:
            Public Key Algorithm: rsaEncryption
                Public-Key: (2048 bit)
                Modulus:
                    00:fa:f3:45:e0:df:cc:fb:b7:d3:36:66:66:36:7c:
                    06:6c:fb:dc:a3:ce:26:be:45:22:e2:f8:8b:5f:df:
                    99:59:7b:3d:32:68:28:92:1f:69:0c:48:22:5b:2f:
                    f2:69:38:1d:02:f0:2a:4c:48:98:4f:55:2e:26:c6:
                    72:cb:b3:67:84:6d:bf:74:40:8d:d5:b4:af:f9:38:
                    de:4a:4b:3d:ba:7f:ad:7f:a3:4f:3b:a5:d5:16:28:
                    8f:a0:92:94:a9:5f:5c:11:8a:dc:64:04:8f:8b:84:
                    77:98:46:93:e2:0c:08:15:58:e7:a2:15:bd:62:4a:
                    07:08:99:4b:3e:d5:df:ea:0d:d6:98:d2:fc:58:4a:
                    46:75:b4:78:73:37:be:e6:d8:94:9f:dc:65:c3:b3:
                    be:3f:e2:8b:7e:2e:5b:f2:fc:61:d2:39:c1:2a:0b:
                    cb:e7:17:56:48:a8:1b:d9:e2:43:57:5e:81:04:27:
                    75:d2:4c:ee:4a:d3:14:a0:d4:37:f0:ed:cb:94:70:
                    af:dc:bd:a8:c5:79:b3:da:36:d3:5c:8a:6b:af:08:
                    c0:ba:6d:f9:e1:51:1f:75:1d:03:f4:1a:53:f1:e2:
                    3e:89:88:8d:89:ae:ab:91:08:22:26:3a:78:f3:a9:
                    86:70:27:3a:7b:24:e4:08:21:ce:ab:a3:d4:48:c5:
                    04:91
                Exponent: 65537 (0x10001)
        X509v3 extensions:
            Netscape Cert Type: 
                SSL Server
            X509v3 Subject Key Identifier: 
                48:69:DE:4D:6E:22:47:CD:7C:E7:D5:DC:6C:95:AD:5C:05:FA:5D:3F
            X509v3 Authority Key Identifier: 
                keyid:9E:A0:B1:FE:A8:B8:21:30:13:39:F2:C3:C1:A8:43:CB:5D:73:FC:B5
                DirName:/CN=OOTYCA_CA/C=IN/O=CITRIX/OU=ANG/ST=KA/emailAddress=OOTYCA_CA@OOTYCA_mail.com
                serial:AA:C2:AB:74:21:09:60:FF

            Authority Information Access: 
                OCSP - URI:http://OOTYCA_one.ocsptest.com/responderpath

    Signature Algorithm: sha256WithRSAEncryption
         6d:9d:4a:3f:c9:29:b0:78:10:1c:40:a0:1c:5f:ce:7d:d2:da:
         09:1c:1c:e4:49:60:87:9c:69:3a:23:70:4d:33:5e:cc:48:11:
         c3:ee:42:83:57:f8:f4:a6:51:5a:15:fb:6d:fc:e5:ec:4e:ff:
         93:97:6f:02:61:68:81:13:63:60:27:2a:ac:ae:77:36:5d:17:
         6b:a8:6c:87:1d:55:43:0b:b1:cf:b9:c6:f5:71:5f:ed:62:f0:
         68:02:49:7b:49:34:99:9a:98:ff:99:dc:09:d0:b1:ed:6d:2e:
         af:44:31:9d:71:06:f4:e2:c1:c7:f5:ac:88:38:4b:c3:f2:b7:
         be:fa:2d:87:d2:66:1d:42:b2:21:02:5d:b3:11:67:87:95:a8:
         7d:bf:3c:95:60:f6:d5:9d:0c:93:54:db:47:b9:8e:15:16:be:
         00:e0:e5:67:f1:5c:55:75:f9:65:66:ee:f9:03:21:17:cb:da:
         c0:61:5e:cf:d4:36:60:c8:b2:71:b1:c8:11:b7:ac:56:cd:65:
         4d:f2:31:40:52:af:ea:c7:79:36:6a:51:a2:ff:b3:4a:e7:f7:
         18:0d:73:06:8f:57:73:32:ca:87:de:c7:53:4c:ab:a3:38:16:
         a1:a7:d9:2a:2a:30:64:25:50:3f:44:17:89:17:a2:0f:1c:a7:
         14:44:fb:1c
-----BEGIN CERTIFICATE-----
MIIEkzCCA3ugAwIBAgIGCgsMDQ4PMA0GCSqGSIb3DQEBCwUAMHcxEjAQBgNVBAMU
CU9PVFlDQV9DQTELMAkGA1UEBhMCSU4xDzANBgNVBAoTBkNJVFJJWDEMMAoGA1UE
CxMDQU5HMQswCQYDVQQIEwJLQTEoMCYGCSqGSIb3DQEJARYZT09UWUNBX0NBQE9P
VFlDQV9tYWlsLmNvbTAeFw0xNjA3MDgwNDM3MDJaFw0yNjA3MDYwNDM3MDJaMG4x
CzAJBgNVBAgTAktBMQswCQYDVQQGEwJJTjEaMBgGA1UEAxQRMTAxX09PVFlDQV9z
ZXJ2ZXIxJTAjBgkqhkiG9w0BCQEWFjEwMV9PT1RZQ0FAdGVzdF9jYS5jb20xDzAN
BgNVBAoTBkNJVFJJWDCCASIwDQYJKoZIhvcNAQEBBQADggEPADCCAQoCggEBAPrz
ReDfzPu30zZmZjZ8Bmz73KPOJr5FIuL4i1/fmVl7PTJoKJIfaQxIIlsv8mk4HQLw
KkxImE9VLibGcsuzZ4Rtv3RAjdW0r/k43kpLPbp/rX+jTzul1RYoj6CSlKlfXBGK
3GQEj4uEd5hGk+IMCBVY56IVvWJKBwiZSz7V3+oN1pjS/FhKRnW0eHM3vubYlJ/c
ZcOzvj/ii34uW/L8YdI5wSoLy+cXVkioG9niQ1degQQnddJM7krTFKDUN/Dty5Rw
r9y9qMV5s9o201yKa68IwLpt+eFRH3UdA/QaU/HiPomIjYmuq5EIIiY6ePOphnAn
Onsk5Aghzquj1EjFBJECAwEAAaOCASwwggEoMBEGCWCGSAGG+EIBAQQEAwIGQDAd
BgNVHQ4EFgQUSGneTW4iR81859XcbJWtXAX6XT8wgakGA1UdIwSBoTCBnoAUnqCx
/qi4ITATOfLDwahDy11z/LWhe6R5MHcxEjAQBgNVBAMUCU9PVFlDQV9DQTELMAkG
A1UEBhMCSU4xDzANBgNVBAoTBkNJVFJJWDEMMAoGA1UECxMDQU5HMQswCQYDVQQI
EwJLQTEoMCYGCSqGSIb3DQEJARYZT09UWUNBX0NBQE9PVFlDQV9tYWlsLmNvbYIJ
AKrCq3QhCWD/MEgGCCsGAQUFBwEBBDwwOjA4BggrBgEFBQcwAYYsaHR0cDovL09P
VFlDQV9vbmUub2NzcHRlc3QuY29tL3Jlc3BvbmRlcnBhdGgwDQYJKoZIhvcNAQEL
BQADggEBAG2dSj/JKbB4EBxAoBxfzn3S2gkcHORJYIecaTojcE0zXsxIEcPuQoNX
+PSmUVoV+2385exO/5OXbwJhaIETY2AnKqyudzZdF2uobIcdVUMLsc+5xvVxX+1i
8GgCSXtJNJmamP+Z3AnQse1tLq9EMZ1xBvTiwcf1rIg4S8Pyt776LYfSZh1CsiEC
XbMRZ4eVqH2/PJVg9tWdDJNU20e5jhUWvgDg5WfxXFV1+WVm7vkDIRfL2sBhXs/U
NmDIsnGxyBG3rFbNZU3yMUBSr+rHeTZqUaL/s0rn9xgNcwaPV3Myyofex1NMq6M4
FqGn2SoqMGQlUD9EF4kXog8cpxRE+xw=
-----END CERTIFICATE-----
