Certificate:
    Data:
        Version: 3 (0x2)
        Serial Number: 11042563100181 (0xa0b0c0d0e15)
    Signature Algorithm: sha256WithRSAEncryption
        Issuer: CN=OOTYCA_CA, C=IN, O=CITRIX, OU=ANG, ST=KA/emailAddress=OOTYCA_CA@OOTYCA_mail.com
        Validity
            Not Before: Jul  8 04:37:04 2016 GMT
            Not After : Jul  6 04:37:04 2026 GMT
        Subject: ST=KA, C=IN, CN=107_OOTYCA_server/emailAddress=107_OOTYCA@test_ca.com, O=CITRIX
        Subject Public Key Info:
            Public Key Algorithm: rsaEncryption
                Public-Key: (2048 bit)
                Modulus:
                    00:ad:57:01:e1:86:d1:5f:ba:a3:24:62:62:b2:27:
                    6d:bf:b0:5d:cb:06:35:42:2e:15:a4:42:20:9d:59:
                    45:09:b2:43:f7:4c:38:25:6e:4a:74:3e:ae:96:d8:
                    ec:71:85:d9:96:74:aa:1f:ab:f0:82:da:55:91:07:
                    2b:52:6d:df:59:24:fa:fc:d8:13:95:eb:c5:ea:a7:
                    4c:fc:04:7a:1a:07:8a:a8:03:5c:cd:a2:f9:aa:4d:
                    f3:80:fd:cb:09:6a:ea:f0:1c:5a:2c:4a:ce:a3:ba:
                    47:86:a6:de:dc:7b:ff:32:4f:2f:28:03:2d:c2:c3:
                    36:b8:04:b6:f2:cd:1b:84:8c:ea:0b:3e:55:4b:a2:
                    65:5d:e3:2e:02:ec:de:ba:11:cb:6a:f7:15:ae:4a:
                    9e:b4:f4:21:2d:a7:bc:c1:10:a8:48:01:29:c2:b9:
                    f7:c1:e9:59:df:76:26:e0:57:a9:67:12:82:a2:e3:
                    2a:7a:0c:c1:89:36:94:48:a3:c8:a1:c9:83:c7:c8:
                    cc:57:36:d1:c2:f1:39:56:e2:d1:9b:c3:be:32:cd:
                    ae:3d:49:d3:c0:4a:33:40:cd:fa:33:27:9b:30:32:
                    3f:3e:7c:dc:54:2a:ea:3a:41:66:a7:51:be:e4:4c:
                    2e:e1:22:b0:53:96:e5:85:21:92:67:5e:4a:a2:c0:
                    2f:4b
                Exponent: 65537 (0x10001)
        X509v3 extensions:
            Netscape Cert Type: 
                SSL Server
            X509v3 Subject Key Identifier: 
                7E:34:08:C0:4C:1F:DC:86:97:0E:1F:D4:CD:81:0C:77:BD:4A:06:5E
            X509v3 Authority Key Identifier: 
                keyid:9E:A0:B1:FE:A8:B8:21:30:13:39:F2:C3:C1:A8:43:CB:5D:73:FC:B5
                DirName:/CN=OOTYCA_CA/C=IN/O=CITRIX/OU=ANG/ST=KA/emailAddress=OOTYCA_CA@OOTYCA_mail.com
                serial:AA:C2:AB:74:21:09:60:FF

            Authority Information Access: 
                OCSP - URI:http://OOTYCA_one.ocsptest.com/responderpath

    Signature Algorithm: sha256WithRSAEncryption
         06:10:89:f6:9c:36:2b:46:a4:db:7a:e9:00:8c:1b:ca:1f:ba:
         76:05:08:7b:07:8b:04:60:72:a6:22:38:11:03:e2:e2:8b:62:
         e7:e1:81:c9:3c:8c:1c:4f:eb:c3:a7:8d:ff:84:64:84:c9:47:
         17:b5:fb:a7:c7:d5:2f:ab:28:26:39:13:77:44:30:1e:f2:2e:
         5d:89:7d:d8:83:99:34:52:16:f0:a4:7a:e6:36:ba:3d:e0:e0:
         86:47:fd:93:c7:f1:2b:9d:e3:1f:4b:ee:d7:63:a0:46:32:e8:
         1c:e5:cb:89:7e:8e:91:cc:5e:f3:5b:d8:35:5f:6a:15:00:a6:
         47:48:be:c7:ae:da:85:62:53:0f:63:a6:5e:a5:b8:a3:be:9a:
         69:fd:72:88:60:bd:7b:40:4f:b0:9d:93:6f:73:c9:79:14:18:
         0b:5e:c3:98:c8:fe:d9:16:66:ad:e7:8b:7e:7a:d0:0a:41:d9:
         91:8a:8f:de:40:e8:de:8d:4e:5d:de:08:67:0c:2d:b1:2c:59:
         e3:bc:4d:f3:de:39:01:51:dd:eb:74:30:7b:8d:d4:66:47:c3:
         5b:bc:92:4a:65:8b:3d:08:08:fb:55:b9:d5:13:29:39:d6:ef:
         16:d1:ee:8e:3a:fb:a0:e9:cb:da:d0:08:c0:b3:60:fc:01:42:
         c1:5b:60:1a
-----BEGIN CERTIFICATE-----
MIIEkzCCA3ugAwIBAgIGCgsMDQ4VMA0GCSqGSIb3DQEBCwUAMHcxEjAQBgNVBAMU
CU9PVFlDQV9DQTELMAkGA1UEBhMCSU4xDzANBgNVBAoTBkNJVFJJWDEMMAoGA1UE
CxMDQU5HMQswCQYDVQQIEwJLQTEoMCYGCSqGSIb3DQEJARYZT09UWUNBX0NBQE9P
VFlDQV9tYWlsLmNvbTAeFw0xNjA3MDgwNDM3MDRaFw0yNjA3MDYwNDM3MDRaMG4x
CzAJBgNVBAgTAktBMQswCQYDVQQGEwJJTjEaMBgGA1UEAxQRMTA3X09PVFlDQV9z
ZXJ2ZXIxJTAjBgkqhkiG9w0BCQEWFjEwN19PT1RZQ0FAdGVzdF9jYS5jb20xDzAN
BgNVBAoTBkNJVFJJWDCCASIwDQYJKoZIhvcNAQEBBQADggEPADCCAQoCggEBAK1X
AeGG0V+6oyRiYrInbb+wXcsGNUIuFaRCIJ1ZRQmyQ/dMOCVuSnQ+rpbY7HGF2ZZ0
qh+r8ILaVZEHK1Jt31kk+vzYE5XrxeqnTPwEehoHiqgDXM2i+apN84D9ywlq6vAc
WixKzqO6R4am3tx7/zJPLygDLcLDNrgEtvLNG4SM6gs+VUuiZV3jLgLs3roRy2r3
Fa5KnrT0IS2nvMEQqEgBKcK598HpWd92JuBXqWcSgqLjKnoMwYk2lEijyKHJg8fI
zFc20cLxOVbi0ZvDvjLNrj1J08BKM0DN+jMnmzAyPz583FQq6jpBZqdRvuRMLuEi
sFOW5YUhkmdeSqLAL0sCAwEAAaOCASwwggEoMBEGCWCGSAGG+EIBAQQEAwIGQDAd
BgNVHQ4EFgQUfjQIwEwf3IaXDh/UzYEMd71KBl4wgakGA1UdIwSBoTCBnoAUnqCx
/qi4ITATOfLDwahDy11z/LWhe6R5MHcxEjAQBgNVBAMUCU9PVFlDQV9DQTELMAkG
A1UEBhMCSU4xDzANBgNVBAoTBkNJVFJJWDEMMAoGA1UECxMDQU5HMQswCQYDVQQI
EwJLQTEoMCYGCSqGSIb3DQEJARYZT09UWUNBX0NBQE9PVFlDQV9tYWlsLmNvbYIJ
AKrCq3QhCWD/MEgGCCsGAQUFBwEBBDwwOjA4BggrBgEFBQcwAYYsaHR0cDovL09P
VFlDQV9vbmUub2NzcHRlc3QuY29tL3Jlc3BvbmRlcnBhdGgwDQYJKoZIhvcNAQEL
BQADggEBAAYQifacNitGpNt66QCMG8ofunYFCHsHiwRgcqYiOBED4uKLYufhgck8
jBxP68Onjf+EZITJRxe1+6fH1S+rKCY5E3dEMB7yLl2JfdiDmTRSFvCkeuY2uj3g
4IZH/ZPH8Sud4x9L7tdjoEYy6Bzly4l+jpHMXvNb2DVfahUApkdIvseu2oViUw9j
pl6luKO+mmn9cohgvXtAT7Cdk29zyXkUGAtew5jI/tkWZq3ni3560ApB2ZGKj95A
6N6NTl3eCGcMLbEsWeO8TfPeOQFR3et0MHuN1GZHw1u8kkpliz0ICPtVudUTKTnW
7xbR7o46+6Dpy9rQCMCzYPwBQsFbYBo=
-----END CERTIFICATE-----
