Certificate:
    Data:
        Version: 3 (0x2)
        Serial Number: 11042563100183 (0xa0b0c0d0e17)
    Signature Algorithm: sha256WithRSAEncryption
        Issuer: CN=OOTYCA_CA, C=IN, O=CITRIX, OU=ANG, ST=KA/emailAddress=OOTYCA_CA@OOTYCA_mail.com
        Validity
            Not Before: Jul  8 04:37:05 2016 GMT
            Not After : Jul  6 04:37:05 2026 GMT
        Subject: ST=KA, C=IN, CN=109_OOTYCA_server/emailAddress=109_OOTYCA@test_ca.com, O=CITRIX
        Subject Public Key Info:
            Public Key Algorithm: rsaEncryption
                Public-Key: (2048 bit)
                Modulus:
                    00:b9:e6:17:46:08:4e:d6:36:79:f5:bf:3e:f1:a9:
                    ea:c6:23:fd:1e:a5:11:01:1f:e2:7c:fa:7e:cc:24:
                    01:11:5a:62:0a:b7:55:3f:c2:43:b2:83:1c:4a:35:
                    e3:36:e1:be:3b:e9:51:7f:cc:4e:ae:d3:3c:85:32:
                    cf:88:76:7a:b4:86:92:29:27:31:29:4a:ac:8d:b4:
                    ad:40:7d:c6:8c:cc:60:43:b7:8c:c1:92:0f:df:07:
                    c8:23:4c:58:b2:91:08:3a:5b:86:77:c9:20:0e:e6:
                    8b:5b:14:d4:0c:26:af:c4:66:92:e1:ee:d2:b6:1f:
                    fb:21:94:3f:8a:01:bf:dc:94:7f:c2:a5:20:ac:e5:
                    4d:39:45:bc:7a:83:8e:c3:97:e3:94:cd:0f:7c:1f:
                    2c:b8:a0:88:c1:a7:ba:59:45:81:05:68:74:7f:e2:
                    2c:91:ad:bb:a3:02:37:01:c5:96:91:64:50:28:44:
                    aa:96:b3:4c:09:c1:14:b2:fd:f4:91:16:a6:46:7f:
                    5a:24:1a:ff:74:65:92:a8:a6:7f:57:86:d0:53:75:
                    a3:7d:57:dc:f6:b1:f3:55:93:23:ff:3e:01:0b:70:
                    ee:0b:05:b2:a5:ab:b7:02:c3:04:d8:28:aa:bb:84:
                    e7:07:58:01:fc:a7:03:f5:a8:4a:4d:1d:f6:5b:df:
                    5a:05
                Exponent: 65537 (0x10001)
        X509v3 extensions:
            Netscape Cert Type: 
                SSL Server
            X509v3 Subject Key Identifier: 
                63:AF:95:53:9E:A8:10:12:A9:06:D3:AD:D6:D1:71:83:CA:5E:B4:5D
            X509v3 Authority Key Identifier: 
                keyid:9E:A0:B1:FE:A8:B8:21:30:13:39:F2:C3:C1:A8:43:CB:5D:73:FC:B5
                DirName:/CN=OOTYCA_CA/C=IN/O=CITRIX/OU=ANG/ST=KA/emailAddress=OOTYCA_CA@OOTYCA_mail.com
                serial:AA:C2:AB:74:21:09:60:FF

            Authority Information Access: 
                OCSP - URI:http://OOTYCA_one.ocsptest.com/responderpath

    Signature Algorithm: sha256WithRSAEncryption
         2c:82:3e:6c:4c:28:49:4d:a0:48:69:e7:b0:db:87:b7:14:f2:
         91:01:72:e1:61:c2:e7:61:de:2f:c6:60:f8:89:e1:f6:db:8c:
         48:87:6c:ea:54:1b:d6:55:a6:c3:6c:d7:7f:3b:41:4c:d4:3a:
         e6:27:64:51:13:d3:2d:90:63:19:34:33:78:c4:9b:6e:29:4c:
         17:d5:a1:68:4f:af:56:d6:bf:0b:2b:82:16:d6:59:d4:63:9a:
         96:8b:9c:16:d0:a0:a4:30:0e:9d:76:ef:da:f0:0a:e1:3d:39:
         64:ee:a2:ba:44:b3:a4:c6:57:51:55:7f:93:de:98:cf:60:b8:
         c8:9c:a8:98:bc:c4:54:ff:c3:45:55:0e:d8:60:a1:04:8d:b5:
         cf:ff:c0:b7:90:a6:b6:30:7b:ae:9b:83:3f:b8:08:c3:4d:d2:
         de:aa:56:69:ef:2e:7d:4d:f5:ea:2e:79:b8:68:a8:ef:ac:6e:
         2d:57:77:f3:6a:93:df:d8:d0:60:9f:d7:bf:02:9f:b7:55:47:
         14:65:f7:54:fc:30:7d:d2:30:cc:2d:7d:18:f0:cd:b1:b3:90:
         08:70:67:a9:62:ca:f8:0b:f8:77:8d:73:7d:21:6d:5d:71:1f:
         f9:d7:55:69:2a:ed:de:42:4c:87:7e:85:57:af:d6:b9:70:3d:
         94:2b:82:7e
-----BEGIN CERTIFICATE-----
MIIEkzCCA3ugAwIBAgIGCgsMDQ4XMA0GCSqGSIb3DQEBCwUAMHcxEjAQBgNVBAMU
CU9PVFlDQV9DQTELMAkGA1UEBhMCSU4xDzANBgNVBAoTBkNJVFJJWDEMMAoGA1UE
CxMDQU5HMQswCQYDVQQIEwJLQTEoMCYGCSqGSIb3DQEJARYZT09UWUNBX0NBQE9P
VFlDQV9tYWlsLmNvbTAeFw0xNjA3MDgwNDM3MDVaFw0yNjA3MDYwNDM3MDVaMG4x
CzAJBgNVBAgTAktBMQswCQYDVQQGEwJJTjEaMBgGA1UEAxQRMTA5X09PVFlDQV9z
ZXJ2ZXIxJTAjBgkqhkiG9w0BCQEWFjEwOV9PT1RZQ0FAdGVzdF9jYS5jb20xDzAN
BgNVBAoTBkNJVFJJWDCCASIwDQYJKoZIhvcNAQEBBQADggEPADCCAQoCggEBALnm
F0YITtY2efW/PvGp6sYj/R6lEQEf4nz6fswkARFaYgq3VT/CQ7KDHEo14zbhvjvp
UX/MTq7TPIUyz4h2erSGkiknMSlKrI20rUB9xozMYEO3jMGSD98HyCNMWLKRCDpb
hnfJIA7mi1sU1Awmr8RmkuHu0rYf+yGUP4oBv9yUf8KlIKzlTTlFvHqDjsOX45TN
D3wfLLigiMGnullFgQVodH/iLJGtu6MCNwHFlpFkUChEqpazTAnBFLL99JEWpkZ/
WiQa/3Rlkqimf1eG0FN1o31X3Pax81WTI/8+AQtw7gsFsqWrtwLDBNgoqruE5wdY
AfynA/WoSk0d9lvfWgUCAwEAAaOCASwwggEoMBEGCWCGSAGG+EIBAQQEAwIGQDAd
BgNVHQ4EFgQUY6+VU56oEBKpBtOt1tFxg8petF0wgakGA1UdIwSBoTCBnoAUnqCx
/qi4ITATOfLDwahDy11z/LWhe6R5MHcxEjAQBgNVBAMUCU9PVFlDQV9DQTELMAkG
A1UEBhMCSU4xDzANBgNVBAoTBkNJVFJJWDEMMAoGA1UECxMDQU5HMQswCQYDVQQI
EwJLQTEoMCYGCSqGSIb3DQEJARYZT09UWUNBX0NBQE9PVFlDQV9tYWlsLmNvbYIJ
AKrCq3QhCWD/MEgGCCsGAQUFBwEBBDwwOjA4BggrBgEFBQcwAYYsaHR0cDovL09P
VFlDQV9vbmUub2NzcHRlc3QuY29tL3Jlc3BvbmRlcnBhdGgwDQYJKoZIhvcNAQEL
BQADggEBACyCPmxMKElNoEhp57Dbh7cU8pEBcuFhwudh3i/GYPiJ4fbbjEiHbOpU
G9ZVpsNs1387QUzUOuYnZFET0y2QYxk0M3jEm24pTBfVoWhPr1bWvwsrghbWWdRj
mpaLnBbQoKQwDp1279rwCuE9OWTuorpEs6TGV1FVf5PemM9guMicqJi8xFT/w0VV
DthgoQSNtc//wLeQprYwe66bgz+4CMNN0t6qVmnvLn1N9eouebhoqO+sbi1Xd/Nq
k9/Y0GCf178Cn7dVRxRl91T8MH3SMMwtfRjwzbGzkAhwZ6liyvgL+HeNc30hbV1x
H/nXVWkq7d5CTId+hVev1rlwPZQrgn4=
-----END CERTIFICATE-----
