Certificate:
    Data:
        Version: 3 (0x2)
        Serial Number: 11042563100207 (0xa0b0c0d0e2f)
    Signature Algorithm: sha256WithRSAEncryption
        Issuer: CN=OOTYCA_CA, C=IN, O=CITRIX, OU=ANG, ST=KA/emailAddress=OOTYCA_CA@OOTYCA_mail.com
        Validity
            Not Before: Jul  8 04:37:11 2016 GMT
            Not After : Jul  6 04:37:11 2026 GMT
        Subject: ST=KA, C=IN, CN=133_OOTYCA_server/emailAddress=133_OOTYCA@test_ca.com, O=CITRIX
        Subject Public Key Info:
            Public Key Algorithm: rsaEncryption
                Public-Key: (2048 bit)
                Modulus:
                    00:cb:64:a9:5c:c1:04:88:66:17:23:46:bb:2e:85:
                    b7:fe:c9:6f:8a:65:6a:b8:3e:c7:0b:5c:d9:a8:f5:
                    d6:e9:f3:24:16:a6:e2:06:f2:23:af:1c:38:70:40:
                    eb:32:14:23:5b:10:0e:09:77:a9:67:f3:0a:77:4d:
                    cc:7f:71:f5:4a:32:23:74:41:07:db:bc:ca:82:f1:
                    77:d1:b5:d2:0c:4a:c8:e0:68:2d:1a:6a:6f:eb:b5:
                    ea:24:7e:4d:42:fe:3d:bc:e2:e8:74:77:d0:10:91:
                    6e:60:6e:7a:d0:41:0e:25:1d:c8:d5:9f:00:25:56:
                    21:4d:65:36:e6:dd:5d:67:e9:df:3c:ce:6e:46:02:
                    5e:54:2b:23:28:45:60:93:94:fb:1c:a4:ec:fb:1e:
                    c4:57:ba:1e:e8:47:ba:d6:6e:09:8a:60:3f:bb:ca:
                    04:ce:22:b8:25:78:de:93:0f:17:11:63:ff:c5:fa:
                    30:c0:7b:a0:9c:fe:e5:67:24:41:3f:dd:e6:d2:a3:
                    d9:a1:cf:49:db:ec:35:9e:94:8d:41:a3:df:56:0f:
                    91:a3:7c:bf:6b:89:a5:1d:d3:db:48:fc:24:34:92:
                    d7:20:d4:fe:61:13:0d:cf:07:c2:87:82:a3:69:1d:
                    10:d1:26:ff:27:03:33:bb:fc:73:29:8f:39:0d:03:
                    b3:e9
                Exponent: 65537 (0x10001)
        X509v3 extensions:
            Netscape Cert Type: 
                SSL Server
            X509v3 Subject Key Identifier: 
                45:18:3B:EE:1B:4C:82:CF:1F:8A:62:1B:FF:A1:A1:9F:86:C3:91:DE
            X509v3 Authority Key Identifier: 
                keyid:9E:A0:B1:FE:A8:B8:21:30:13:39:F2:C3:C1:A8:43:CB:5D:73:FC:B5
                DirName:/CN=OOTYCA_CA/C=IN/O=CITRIX/OU=ANG/ST=KA/emailAddress=OOTYCA_CA@OOTYCA_mail.com
                serial:AA:C2:AB:74:21:09:60:FF

            Authority Information Access: 
                OCSP - URI:http://172.25.20.1/responderpath

    Signature Algorithm: sha256WithRSAEncryption
         6c:fc:ba:ad:9b:96:17:88:19:b9:f4:a9:d9:f1:79:f8:73:c1:
         80:ba:72:99:30:43:83:0e:b1:a6:9e:0b:e9:7e:85:49:0a:3a:
         8e:7f:5a:9a:5f:de:a3:32:fa:bb:df:31:67:d0:9e:56:93:75:
         5d:7e:79:49:de:78:8d:8c:82:d8:90:80:12:23:29:c8:17:43:
         f4:32:39:07:80:4a:88:af:26:d0:03:87:0f:06:67:7f:42:0e:
         f4:84:10:cd:ef:99:43:83:66:1e:12:df:b6:19:30:f1:17:08:
         68:02:93:b6:10:da:ee:5f:f8:83:36:a6:dc:94:95:94:95:b2:
         40:9a:ba:df:a3:1d:03:30:e8:97:6c:b3:0f:8e:fb:1b:94:22:
         69:24:d7:c9:1e:04:62:c6:83:c6:0f:21:90:29:0b:7d:30:6d:
         7a:cd:da:62:b0:4e:87:75:b5:3f:6b:5c:84:e8:97:d7:d6:d7:
         85:25:f6:ab:d8:47:91:27:94:0b:cd:15:65:27:c9:c4:44:bd:
         41:5d:bb:47:02:48:54:da:0b:d2:26:c1:c5:fd:54:ce:16:3d:
         dd:6f:59:cd:75:af:a2:29:3b:63:33:40:a2:89:72:23:92:71:
         a9:90:26:f1:d9:ec:d6:2e:24:22:1f:94:55:fc:b9:0c:54:de:
         29:48:bd:f9
-----BEGIN CERTIFICATE-----
MIIEhzCCA2+gAwIBAgIGCgsMDQ4vMA0GCSqGSIb3DQEBCwUAMHcxEjAQBgNVBAMU
CU9PVFlDQV9DQTELMAkGA1UEBhMCSU4xDzANBgNVBAoTBkNJVFJJWDEMMAoGA1UE
CxMDQU5HMQswCQYDVQQIEwJLQTEoMCYGCSqGSIb3DQEJARYZT09UWUNBX0NBQE9P
VFlDQV9tYWlsLmNvbTAeFw0xNjA3MDgwNDM3MTFaFw0yNjA3MDYwNDM3MTFaMG4x
CzAJBgNVBAgTAktBMQswCQYDVQQGEwJJTjEaMBgGA1UEAxQRMTMzX09PVFlDQV9z
ZXJ2ZXIxJTAjBgkqhkiG9w0BCQEWFjEzM19PT1RZQ0FAdGVzdF9jYS5jb20xDzAN
BgNVBAoTBkNJVFJJWDCCASIwDQYJKoZIhvcNAQEBBQADggEPADCCAQoCggEBAMtk
qVzBBIhmFyNGuy6Ft/7Jb4plarg+xwtc2aj11unzJBam4gbyI68cOHBA6zIUI1sQ
Dgl3qWfzCndNzH9x9UoyI3RBB9u8yoLxd9G10gxKyOBoLRpqb+u16iR+TUL+Pbzi
6HR30BCRbmBuetBBDiUdyNWfACVWIU1lNubdXWfp3zzObkYCXlQrIyhFYJOU+xyk
7PsexFe6HuhHutZuCYpgP7vKBM4iuCV43pMPFxFj/8X6MMB7oJz+5WckQT/d5tKj
2aHPSdvsNZ6UjUGj31YPkaN8v2uJpR3T20j8JDSS1yDU/mETDc8HwoeCo2kdENEm
/ycDM7v8cymPOQ0Ds+kCAwEAAaOCASAwggEcMBEGCWCGSAGG+EIBAQQEAwIGQDAd
BgNVHQ4EFgQURRg77htMgs8fimIb/6Ghn4bDkd4wgakGA1UdIwSBoTCBnoAUnqCx
/qi4ITATOfLDwahDy11z/LWhe6R5MHcxEjAQBgNVBAMUCU9PVFlDQV9DQTELMAkG
A1UEBhMCSU4xDzANBgNVBAoTBkNJVFJJWDEMMAoGA1UECxMDQU5HMQswCQYDVQQI
EwJLQTEoMCYGCSqGSIb3DQEJARYZT09UWUNBX0NBQE9PVFlDQV9tYWlsLmNvbYIJ
AKrCq3QhCWD/MDwGCCsGAQUFBwEBBDAwLjAsBggrBgEFBQcwAYYgaHR0cDovLzE3
Mi4yNS4yMC4xL3Jlc3BvbmRlcnBhdGgwDQYJKoZIhvcNAQELBQADggEBAGz8uq2b
lheIGbn0qdnxefhzwYC6cpkwQ4MOsaaeC+l+hUkKOo5/Wppf3qMy+rvfMWfQnlaT
dV1+eUneeI2MgtiQgBIjKcgXQ/QyOQeASoivJtADhw8GZ39CDvSEEM3vmUODZh4S
37YZMPEXCGgCk7YQ2u5f+IM2ptyUlZSVskCaut+jHQMw6Jdssw+O+xuUImkk18ke
BGLGg8YPIZApC30wbXrN2mKwTod1tT9rXITol9fW14Ul9qvYR5EnlAvNFWUnycRE
vUFdu0cCSFTaC9ImwcX9VM4WPd1vWc11r6IpO2MzQKKJciOScamQJvHZ7NYuJCIf
lFX8uQxU3ilIvfk=
-----END CERTIFICATE-----
