Certificate:
    Data:
        Version: 3 (0x2)
        Serial Number: 11042563100185 (0xa0b0c0d0e19)
    Signature Algorithm: sha256WithRSAEncryption
        Issuer: CN=OOTYCA_CA, C=IN, O=CITRIX, OU=ANG, ST=KA/emailAddress=OOTYCA_CA@OOTYCA_mail.com
        Validity
            Not Before: Jul  8 04:37:05 2016 GMT
            Not After : Jul  6 04:37:05 2026 GMT
        Subject: ST=KA, C=IN, CN=111_OOTYCA_server/emailAddress=111_OOTYCA@test_ca.com, O=CITRIX
        Subject Public Key Info:
            Public Key Algorithm: rsaEncryption
                Public-Key: (2048 bit)
                Modulus:
                    00:c0:28:60:d7:ee:56:fe:b4:57:57:70:70:08:74:
                    ff:e4:00:7c:04:fa:18:39:1c:fa:38:e8:36:f7:43:
                    e6:7b:2d:b9:02:4f:55:77:d8:04:58:3a:7d:f9:98:
                    c4:71:5e:e7:91:82:56:c6:77:11:c7:a4:bc:1f:65:
                    11:23:ed:19:a5:72:98:26:70:20:30:c2:ea:27:d9:
                    79:ce:c8:20:c3:86:c6:46:73:9d:37:3e:8d:58:69:
                    09:d4:bb:2d:03:7c:52:05:59:16:f9:f2:9d:27:d0:
                    a8:d1:84:3c:36:d5:7d:f9:1a:f3:ff:db:37:46:fe:
                    6f:c3:7f:be:69:a5:92:02:00:a9:5c:b5:92:ea:22:
                    87:38:6f:23:af:63:c4:b4:0a:e0:ae:a8:92:d1:5a:
                    38:e8:0a:10:6b:7e:d9:d6:25:37:c5:e7:0d:af:6c:
                    de:3d:ca:dd:66:b8:7b:7f:95:52:39:d0:de:cf:d9:
                    a2:d6:f4:b8:19:7c:a5:d4:0c:59:31:48:26:ca:ac:
                    ff:a7:2e:f6:61:b9:64:18:ef:eb:a4:23:f6:f2:9c:
                    96:5c:ea:5a:04:02:69:95:c5:98:98:2a:f1:19:a4:
                    61:69:23:4e:26:2b:49:c6:e7:77:2c:c4:0b:b1:d8:
                    5e:5d:8f:61:fa:96:16:54:22:1d:f6:aa:5b:39:13:
                    2b:49
                Exponent: 65537 (0x10001)
        X509v3 extensions:
            Netscape Cert Type: 
                SSL Server
            X509v3 Subject Key Identifier: 
                89:9E:E8:EB:9E:FE:5C:73:7B:87:FF:91:52:0E:27:DD:A7:BF:A3:BA
            X509v3 Authority Key Identifier: 
                keyid:9E:A0:B1:FE:A8:B8:21:30:13:39:F2:C3:C1:A8:43:CB:5D:73:FC:B5
                DirName:/CN=OOTYCA_CA/C=IN/O=CITRIX/OU=ANG/ST=KA/emailAddress=OOTYCA_CA@OOTYCA_mail.com
                serial:AA:C2:AB:74:21:09:60:FF

            Authority Information Access: 
                OCSP - URI:http://OOTYCA_two.ocsptest.com/responderpath

    Signature Algorithm: sha256WithRSAEncryption
         3a:89:52:b9:0a:a0:af:ef:4e:fb:ff:52:ae:64:af:f6:6f:04:
         95:b5:bb:69:7c:72:97:12:bb:8f:40:22:b0:24:47:f1:99:87:
         3e:dc:b1:4c:14:ef:d3:e8:11:7f:91:71:29:58:bc:6c:c3:9f:
         2d:6f:40:c1:b8:36:45:65:c3:4c:27:d8:49:d1:89:4b:3c:af:
         6f:53:e7:44:05:ee:4a:6b:19:4f:d2:ba:20:a7:6a:c3:2c:13:
         a0:4a:98:33:60:38:49:0d:78:14:10:33:10:6c:6b:0f:32:1e:
         23:65:59:51:05:04:e7:63:3a:23:fd:bf:2b:f0:34:7c:2f:6b:
         c2:89:a8:0d:0b:0a:13:41:85:d4:30:65:2d:05:cb:2a:c7:56:
         f2:97:44:85:52:53:50:c4:d9:82:4c:4d:60:bb:68:91:2a:a7:
         6d:4c:2e:60:a3:5d:50:32:25:4b:17:39:56:21:eb:60:60:53:
         77:fb:e5:d0:6e:24:69:3f:29:0d:76:a1:a8:37:37:50:d9:47:
         ef:8c:37:fb:81:44:18:f3:00:c9:47:5a:af:1d:d0:52:12:a0:
         fd:81:e0:2f:a2:b9:89:1e:55:61:40:f1:49:81:d2:67:d1:50:
         50:c4:6c:04:57:79:ac:1c:16:f1:39:32:1f:cb:bf:1c:b8:5f:
         66:b3:e1:5c
-----BEGIN CERTIFICATE-----
MIIEkzCCA3ugAwIBAgIGCgsMDQ4ZMA0GCSqGSIb3DQEBCwUAMHcxEjAQBgNVBAMU
CU9PVFlDQV9DQTELMAkGA1UEBhMCSU4xDzANBgNVBAoTBkNJVFJJWDEMMAoGA1UE
CxMDQU5HMQswCQYDVQQIEwJLQTEoMCYGCSqGSIb3DQEJARYZT09UWUNBX0NBQE9P
VFlDQV9tYWlsLmNvbTAeFw0xNjA3MDgwNDM3MDVaFw0yNjA3MDYwNDM3MDVaMG4x
CzAJBgNVBAgTAktBMQswCQYDVQQGEwJJTjEaMBgGA1UEAxQRMTExX09PVFlDQV9z
ZXJ2ZXIxJTAjBgkqhkiG9w0BCQEWFjExMV9PT1RZQ0FAdGVzdF9jYS5jb20xDzAN
BgNVBAoTBkNJVFJJWDCCASIwDQYJKoZIhvcNAQEBBQADggEPADCCAQoCggEBAMAo
YNfuVv60V1dwcAh0/+QAfAT6GDkc+jjoNvdD5nstuQJPVXfYBFg6ffmYxHFe55GC
VsZ3EcekvB9lESPtGaVymCZwIDDC6ifZec7IIMOGxkZznTc+jVhpCdS7LQN8UgVZ
FvnynSfQqNGEPDbVffka8//bN0b+b8N/vmmlkgIAqVy1kuoihzhvI69jxLQK4K6o
ktFaOOgKEGt+2dYlN8XnDa9s3j3K3Wa4e3+VUjnQ3s/Zotb0uBl8pdQMWTFIJsqs
/6cu9mG5ZBjv66Qj9vKcllzqWgQCaZXFmJgq8RmkYWkjTiYrScbndyzEC7HYXl2P
YfqWFlQiHfaqWzkTK0kCAwEAAaOCASwwggEoMBEGCWCGSAGG+EIBAQQEAwIGQDAd
BgNVHQ4EFgQUiZ7o657+XHN7h/+RUg4n3ae/o7owgakGA1UdIwSBoTCBnoAUnqCx
/qi4ITATOfLDwahDy11z/LWhe6R5MHcxEjAQBgNVBAMUCU9PVFlDQV9DQTELMAkG
A1UEBhMCSU4xDzANBgNVBAoTBkNJVFJJWDEMMAoGA1UECxMDQU5HMQswCQYDVQQI
EwJLQTEoMCYGCSqGSIb3DQEJARYZT09UWUNBX0NBQE9PVFlDQV9tYWlsLmNvbYIJ
AKrCq3QhCWD/MEgGCCsGAQUFBwEBBDwwOjA4BggrBgEFBQcwAYYsaHR0cDovL09P
VFlDQV90d28ub2NzcHRlc3QuY29tL3Jlc3BvbmRlcnBhdGgwDQYJKoZIhvcNAQEL
BQADggEBADqJUrkKoK/vTvv/Uq5kr/ZvBJW1u2l8cpcSu49AIrAkR/GZhz7csUwU
79PoEX+RcSlYvGzDny1vQMG4NkVlw0wn2EnRiUs8r29T50QF7kprGU/SuiCnasMs
E6BKmDNgOEkNeBQQMxBsaw8yHiNlWVEFBOdjOiP9vyvwNHwva8KJqA0LChNBhdQw
ZS0FyyrHVvKXRIVSU1DE2YJMTWC7aJEqp21MLmCjXVAyJUsXOVYh62BgU3f75dBu
JGk/KQ12oag3N1DZR++MN/uBRBjzAMlHWq8d0FISoP2B4C+iuYkeVWFA8UmB0mfR
UFDEbARXeawcFvE5Mh/Lvxy4X2az4Vw=
-----END CERTIFICATE-----
