Certificate:
    Data:
        Version: 3 (0x2)
        Serial Number: 11042563100198 (0xa0b0c0d0e26)
    Signature Algorithm: sha256WithRSAEncryption
        Issuer: CN=OOTYCA_CA, C=IN, O=CITRIX, OU=ANG, ST=KA/emailAddress=OOTYCA_CA@OOTYCA_mail.com
        Validity
            Not Before: Jul  8 04:37:09 2016 GMT
            Not After : Jul  6 04:37:09 2026 GMT
        Subject: ST=KA, C=IN, CN=124_OOTYCA_server/emailAddress=124_OOTYCA@test_ca.com, O=CITRIX
        Subject Public Key Info:
            Public Key Algorithm: rsaEncryption
                Public-Key: (2048 bit)
                Modulus:
                    00:bc:7e:1f:16:48:49:00:ae:81:a3:68:27:27:b0:
                    9b:a5:4e:db:08:55:59:6f:ad:63:df:f4:36:dd:3d:
                    a5:c0:e1:39:dd:a2:07:6c:a0:e4:54:d3:89:bc:7e:
                    e8:d9:b5:f9:96:27:50:ba:01:6f:0b:2e:58:fb:5c:
                    c1:9e:80:75:52:69:69:3f:01:1a:1e:e6:f1:d9:85:
                    c9:6b:07:9f:47:66:c7:84:92:11:0d:f6:a9:44:e2:
                    52:86:25:10:e1:e8:af:57:7b:58:02:57:4e:be:49:
                    e3:e7:58:a5:a9:d2:83:a9:69:21:3d:45:f0:56:48:
                    4e:9e:5d:8b:6a:ff:f8:c7:e5:d1:8d:43:50:d6:4b:
                    27:f2:6f:f3:46:bb:ce:67:76:0a:24:de:d5:8e:da:
                    2f:66:96:09:fa:38:46:b5:50:a0:8d:e5:f7:76:1d:
                    96:e9:c2:7c:c9:83:2d:c9:77:f6:bd:d0:69:17:ae:
                    53:bc:ce:41:4e:18:41:43:22:3b:3b:b0:6c:9e:9d:
                    f8:72:9b:37:28:01:b0:7a:51:bc:78:fb:40:e2:4c:
                    09:41:c8:57:08:d5:46:f5:eb:a9:14:f2:d2:a9:76:
                    ee:ff:c9:58:b0:d0:87:bf:0b:6a:cd:a5:bb:5b:3f:
                    4e:ac:de:ef:64:76:93:fd:d8:38:5a:7a:71:56:b8:
                    4d:3d
                Exponent: 65537 (0x10001)
        X509v3 extensions:
            Netscape Cert Type: 
                SSL Server
            X509v3 Subject Key Identifier: 
                39:00:E7:13:6B:0B:CF:78:00:D9:52:F4:49:18:80:CE:35:61:14:DD
            X509v3 Authority Key Identifier: 
                keyid:9E:A0:B1:FE:A8:B8:21:30:13:39:F2:C3:C1:A8:43:CB:5D:73:FC:B5
                DirName:/CN=OOTYCA_CA/C=IN/O=CITRIX/OU=ANG/ST=KA/emailAddress=OOTYCA_CA@OOTYCA_mail.com
                serial:AA:C2:AB:74:21:09:60:FF

            Authority Information Access: 
                OCSP - URI:http://172.25.10.1/responderpath

    Signature Algorithm: sha256WithRSAEncryption
         9b:24:f7:8c:f8:7c:0a:31:91:bf:05:42:75:db:3a:75:89:25:
         9e:82:72:c3:7a:8d:fb:59:aa:81:85:c3:9e:98:be:b0:f9:b5:
         44:d3:fd:f1:f3:a2:27:e0:00:68:00:62:27:37:e6:af:ef:ad:
         99:0e:04:6f:4d:e3:4b:93:b6:21:3a:50:be:34:ba:ec:d1:63:
         62:e4:5a:08:e3:80:7d:21:bf:cd:1c:5f:84:5e:a2:00:cd:8b:
         b0:ab:db:92:a2:4c:12:66:ba:97:55:fb:4f:36:a2:5d:06:4f:
         36:1b:80:f4:de:e3:e0:0a:b5:45:60:2b:3e:0e:e2:13:40:e3:
         05:37:3a:ef:8e:d2:e6:65:18:2a:04:58:d9:cd:d7:69:a1:ab:
         34:85:8f:54:79:f2:0f:58:26:fb:ee:b0:5c:a8:5b:f4:5d:e7:
         7e:5b:ec:f4:99:e8:f2:ef:b6:bc:46:22:47:75:32:45:a6:53:
         f9:68:b7:1e:70:c2:58:f3:08:e3:68:f5:d9:f4:e2:f7:11:56:
         7a:19:fa:4f:84:42:63:93:2d:a7:77:a1:7b:8a:dc:1c:44:6a:
         48:72:84:0b:9e:99:e5:fd:a3:dd:9d:13:4d:37:e8:5e:72:2c:
         fc:27:0b:3b:0b:35:2a:47:46:4a:e3:8e:72:12:b8:27:5a:dc:
         cd:ac:46:d7
-----BEGIN CERTIFICATE-----
MIIEhzCCA2+gAwIBAgIGCgsMDQ4mMA0GCSqGSIb3DQEBCwUAMHcxEjAQBgNVBAMU
CU9PVFlDQV9DQTELMAkGA1UEBhMCSU4xDzANBgNVBAoTBkNJVFJJWDEMMAoGA1UE
CxMDQU5HMQswCQYDVQQIEwJLQTEoMCYGCSqGSIb3DQEJARYZT09UWUNBX0NBQE9P
VFlDQV9tYWlsLmNvbTAeFw0xNjA3MDgwNDM3MDlaFw0yNjA3MDYwNDM3MDlaMG4x
CzAJBgNVBAgTAktBMQswCQYDVQQGEwJJTjEaMBgGA1UEAxQRMTI0X09PVFlDQV9z
ZXJ2ZXIxJTAjBgkqhkiG9w0BCQEWFjEyNF9PT1RZQ0FAdGVzdF9jYS5jb20xDzAN
BgNVBAoTBkNJVFJJWDCCASIwDQYJKoZIhvcNAQEBBQADggEPADCCAQoCggEBALx+
HxZISQCugaNoJyewm6VO2whVWW+tY9/0Nt09pcDhOd2iB2yg5FTTibx+6Nm1+ZYn
ULoBbwsuWPtcwZ6AdVJpaT8BGh7m8dmFyWsHn0dmx4SSEQ32qUTiUoYlEOHor1d7
WAJXTr5J4+dYpanSg6lpIT1F8FZITp5di2r/+Mfl0Y1DUNZLJ/Jv80a7zmd2CiTe
1Y7aL2aWCfo4RrVQoI3l93YdlunCfMmDLcl39r3QaReuU7zOQU4YQUMiOzuwbJ6d
+HKbNygBsHpRvHj7QOJMCUHIVwjVRvXrqRTy0ql27v/JWLDQh78Las2lu1s/Tqze
72R2k/3YOFp6cVa4TT0CAwEAAaOCASAwggEcMBEGCWCGSAGG+EIBAQQEAwIGQDAd
BgNVHQ4EFgQUOQDnE2sLz3gA2VL0SRiAzjVhFN0wgakGA1UdIwSBoTCBnoAUnqCx
/qi4ITATOfLDwahDy11z/LWhe6R5MHcxEjAQBgNVBAMUCU9PVFlDQV9DQTELMAkG
A1UEBhMCSU4xDzANBgNVBAoTBkNJVFJJWDEMMAoGA1UECxMDQU5HMQswCQYDVQQI
EwJLQTEoMCYGCSqGSIb3DQEJARYZT09UWUNBX0NBQE9PVFlDQV9tYWlsLmNvbYIJ
AKrCq3QhCWD/MDwGCCsGAQUFBwEBBDAwLjAsBggrBgEFBQcwAYYgaHR0cDovLzE3
Mi4yNS4xMC4xL3Jlc3BvbmRlcnBhdGgwDQYJKoZIhvcNAQELBQADggEBAJsk94z4
fAoxkb8FQnXbOnWJJZ6CcsN6jftZqoGFw56YvrD5tUTT/fHzoifgAGgAYic35q/v
rZkOBG9N40uTtiE6UL40uuzRY2LkWgjjgH0hv80cX4ReogDNi7Cr25KiTBJmupdV
+082ol0GTzYbgPTe4+AKtUVgKz4O4hNA4wU3Ou+O0uZlGCoEWNnN12mhqzSFj1R5
8g9YJvvusFyoW/Rd535b7PSZ6PLvtrxGIkd1MkWmU/lotx5wwljzCONo9dn04vcR
VnoZ+k+EQmOTLad3oXuK3BxEakhyhAuemeX9o92dE0036F5yLPwnCzsLNSpHRkrj
jnISuCda3M2sRtc=
-----END CERTIFICATE-----
