Certificate:
    Data:
        Version: 3 (0x2)
        Serial Number: 11042563100178 (0xa0b0c0d0e12)
    Signature Algorithm: sha256WithRSAEncryption
        Issuer: CN=OOTYCA_CA, C=IN, O=CITRIX, OU=ANG, ST=KA/emailAddress=OOTYCA_CA@OOTYCA_mail.com
        Validity
            Not Before: Jul  8 04:37:03 2016 GMT
            Not After : Jul  6 04:37:03 2026 GMT
        Subject: ST=KA, C=IN, CN=104_OOTYCA_server/emailAddress=104_OOTYCA@test_ca.com, O=CITRIX
        Subject Public Key Info:
            Public Key Algorithm: rsaEncryption
                Public-Key: (2048 bit)
                Modulus:
                    00:a8:6d:70:fb:7a:ad:b9:ae:d9:09:5e:85:ff:ae:
                    1d:f2:7f:96:80:56:99:ce:b8:8d:62:e0:11:f8:10:
                    07:18:a4:7b:a4:f6:40:65:39:f8:61:e7:4a:a0:54:
                    6c:2b:6f:b2:3a:57:c1:4d:5c:f5:46:1f:5f:e0:89:
                    33:14:7d:33:3e:09:7f:4d:90:47:f2:d1:30:4e:a3:
                    35:98:c8:26:be:b9:80:36:49:2e:c5:86:ad:ee:fa:
                    39:75:72:e8:74:c8:f2:43:e6:aa:18:22:b5:8c:c7:
                    8a:a4:bc:84:60:6f:27:8b:87:b5:15:cc:09:ae:50:
                    c6:b4:57:35:58:b7:4c:f5:f3:00:aa:1b:8e:f1:a8:
                    5e:4b:91:13:ad:e2:74:2e:a5:c9:11:a0:2c:9b:dd:
                    03:37:0d:70:da:8e:b6:71:bd:50:cb:30:91:8f:65:
                    81:41:c6:77:6f:e6:61:ea:13:06:b9:a0:b2:05:b6:
                    eb:6f:bf:da:b8:55:df:ad:2f:73:93:2e:b2:0f:f4:
                    df:c9:39:08:57:79:69:53:e2:02:9a:96:d0:26:39:
                    75:15:d6:05:f7:66:ce:3d:22:c4:64:ee:4d:73:bd:
                    41:3f:f9:f6:3d:c8:dc:53:82:f3:08:e0:f7:9b:c4:
                    08:40:98:3d:44:f2:05:22:d0:62:d9:2f:2b:91:ef:
                    9e:0b
                Exponent: 65537 (0x10001)
        X509v3 extensions:
            Netscape Cert Type: 
                SSL Server
            X509v3 Subject Key Identifier: 
                83:1E:FB:D0:FA:93:F0:7E:D0:39:9D:F6:75:AC:ED:69:89:18:85:F1
            X509v3 Authority Key Identifier: 
                keyid:9E:A0:B1:FE:A8:B8:21:30:13:39:F2:C3:C1:A8:43:CB:5D:73:FC:B5
                DirName:/CN=OOTYCA_CA/C=IN/O=CITRIX/OU=ANG/ST=KA/emailAddress=OOTYCA_CA@OOTYCA_mail.com
                serial:AA:C2:AB:74:21:09:60:FF

            Authority Information Access: 
                OCSP - URI:http://OOTYCA_one.ocsptest.com/responderpath

    Signature Algorithm: sha256WithRSAEncryption
         86:fd:af:47:d0:de:bc:60:14:a1:e2:56:ec:99:c4:b6:7f:22:
         37:fb:d4:4e:40:78:d9:e4:45:6c:f1:fc:36:85:68:ab:c0:54:
         6f:9c:db:cd:ae:dc:57:4e:67:a3:f8:53:f8:53:e2:3a:d2:85:
         8c:f9:d0:25:13:87:74:bd:98:fe:cf:ad:87:d4:ee:9c:82:9f:
         f1:25:0b:02:a3:f3:2d:67:9b:3a:2e:06:8a:37:4d:ad:76:93:
         c6:90:95:3e:bf:0a:7a:3d:1a:e9:18:01:4e:82:e3:3e:17:15:
         f4:70:34:7a:35:45:14:3e:c3:06:de:9f:89:60:b3:97:50:be:
         b7:eb:4a:16:6d:89:64:d0:e1:8a:0a:9e:73:6e:93:01:5a:e3:
         9f:ba:fd:bf:26:83:67:ee:ad:21:8b:04:1d:c8:4d:92:20:70:
         f1:ad:08:c5:a5:2d:eb:bc:91:29:f2:29:3f:f4:1b:8a:b4:3c:
         c0:d0:d7:3b:c0:9e:09:b8:1e:06:49:4a:05:fa:d9:4e:1e:b8:
         90:ef:7b:71:b1:e8:a3:49:0e:64:fd:8b:1c:8c:20:a3:7e:c0:
         fe:a6:e3:87:b6:5a:38:80:88:a0:2f:cb:33:44:e3:b7:cd:82:
         5f:be:6f:68:c1:83:6d:ee:3b:14:0f:dd:73:84:e2:1b:db:25:
         b0:1d:29:ee
-----BEGIN CERTIFICATE-----
MIIEkzCCA3ugAwIBAgIGCgsMDQ4SMA0GCSqGSIb3DQEBCwUAMHcxEjAQBgNVBAMU
CU9PVFlDQV9DQTELMAkGA1UEBhMCSU4xDzANBgNVBAoTBkNJVFJJWDEMMAoGA1UE
CxMDQU5HMQswCQYDVQQIEwJLQTEoMCYGCSqGSIb3DQEJARYZT09UWUNBX0NBQE9P
VFlDQV9tYWlsLmNvbTAeFw0xNjA3MDgwNDM3MDNaFw0yNjA3MDYwNDM3MDNaMG4x
CzAJBgNVBAgTAktBMQswCQYDVQQGEwJJTjEaMBgGA1UEAxQRMTA0X09PVFlDQV9z
ZXJ2ZXIxJTAjBgkqhkiG9w0BCQEWFjEwNF9PT1RZQ0FAdGVzdF9jYS5jb20xDzAN
BgNVBAoTBkNJVFJJWDCCASIwDQYJKoZIhvcNAQEBBQADggEPADCCAQoCggEBAKht
cPt6rbmu2Qlehf+uHfJ/loBWmc64jWLgEfgQBxike6T2QGU5+GHnSqBUbCtvsjpX
wU1c9UYfX+CJMxR9Mz4Jf02QR/LRME6jNZjIJr65gDZJLsWGre76OXVy6HTI8kPm
qhgitYzHiqS8hGBvJ4uHtRXMCa5QxrRXNVi3TPXzAKobjvGoXkuRE63idC6lyRGg
LJvdAzcNcNqOtnG9UMswkY9lgUHGd2/mYeoTBrmgsgW262+/2rhV360vc5Musg/0
38k5CFd5aVPiApqW0CY5dRXWBfdmzj0ixGTuTXO9QT/59j3I3FOC8wjg95vECECY
PUTyBSLQYtkvK5HvngsCAwEAAaOCASwwggEoMBEGCWCGSAGG+EIBAQQEAwIGQDAd
BgNVHQ4EFgQUgx770PqT8H7QOZ32daztaYkYhfEwgakGA1UdIwSBoTCBnoAUnqCx
/qi4ITATOfLDwahDy11z/LWhe6R5MHcxEjAQBgNVBAMUCU9PVFlDQV9DQTELMAkG
A1UEBhMCSU4xDzANBgNVBAoTBkNJVFJJWDEMMAoGA1UECxMDQU5HMQswCQYDVQQI
EwJLQTEoMCYGCSqGSIb3DQEJARYZT09UWUNBX0NBQE9PVFlDQV9tYWlsLmNvbYIJ
AKrCq3QhCWD/MEgGCCsGAQUFBwEBBDwwOjA4BggrBgEFBQcwAYYsaHR0cDovL09P
VFlDQV9vbmUub2NzcHRlc3QuY29tL3Jlc3BvbmRlcnBhdGgwDQYJKoZIhvcNAQEL
BQADggEBAIb9r0fQ3rxgFKHiVuyZxLZ/Ijf71E5AeNnkRWzx/DaFaKvAVG+c282u
3FdOZ6P4U/hT4jrShYz50CUTh3S9mP7PrYfU7pyCn/ElCwKj8y1nmzouBoo3Ta12
k8aQlT6/Cno9GukYAU6C4z4XFfRwNHo1RRQ+wwben4lgs5dQvrfrShZtiWTQ4YoK
nnNukwFa45+6/b8mg2furSGLBB3ITZIgcPGtCMWlLeu8kSnyKT/0G4q0PMDQ1zvA
ngm4HgZJSgX62U4euJDve3Gx6KNJDmT9ixyMIKN+wP6m44e2WjiAiKAvyzNE47fN
gl++b2jBg23uOxQP3XOE4hvbJbAdKe4=
-----END CERTIFICATE-----
