Certificate:
    Data:
        Version: 3 (0x2)
        Serial Number: 11042563100190 (0xa0b0c0d0e1e)
    Signature Algorithm: sha256WithRSAEncryption
        Issuer: CN=OOTYCA_CA, C=IN, O=CITRIX, OU=ANG, ST=KA/emailAddress=OOTYCA_CA@OOTYCA_mail.com
        Validity
            Not Before: Jul  8 04:37:07 2016 GMT
            Not After : Jul  6 04:37:07 2026 GMT
        Subject: ST=KA, C=IN, CN=116_OOTYCA_server/emailAddress=116_OOTYCA@test_ca.com, O=CITRIX
        Subject Public Key Info:
            Public Key Algorithm: rsaEncryption
                Public-Key: (2048 bit)
                Modulus:
                    00:bb:93:ea:06:d7:37:76:db:c3:66:84:25:28:78:
                    68:33:d1:a0:31:4e:05:c9:10:43:60:8d:dd:fb:af:
                    8f:c2:94:a5:1f:69:3e:45:75:c8:64:e2:77:35:b8:
                    1a:1c:6d:49:79:ad:e3:05:8b:c8:d1:32:32:7a:4c:
                    73:2d:ca:2e:a4:02:ff:ac:a1:70:16:b7:98:ac:70:
                    b2:5d:b9:33:e7:9d:95:be:f1:e9:2e:8e:32:e0:9b:
                    1c:38:75:b6:3b:e7:99:c2:69:22:14:73:c6:12:29:
                    88:f5:b8:14:76:0f:09:8e:c3:53:d2:78:e4:57:95:
                    51:50:a6:05:ad:81:03:84:37:54:ed:cf:b8:e7:3b:
                    a7:22:3a:e0:dc:2e:3a:3d:95:c2:f3:3e:b0:23:ce:
                    b8:23:8a:3a:59:77:24:ba:d1:63:db:2c:af:e7:cc:
                    cc:05:cc:0a:6c:09:ab:1c:77:e4:03:f0:ff:85:c8:
                    44:ca:b0:9d:e1:2e:fa:2a:a1:68:c5:12:b7:b8:55:
                    a6:c7:21:96:b2:fb:4c:b2:df:99:25:b4:ab:a3:96:
                    bd:ba:c1:96:59:ce:e2:54:ad:85:86:74:b2:18:f2:
                    7a:0f:12:7f:5b:d1:b3:08:3e:06:24:7c:cd:46:85:
                    28:4e:be:dd:14:fd:7c:c7:d4:71:77:c2:7e:41:97:
                    a6:37
                Exponent: 65537 (0x10001)
        X509v3 extensions:
            Netscape Cert Type: 
                SSL Server
            X509v3 Subject Key Identifier: 
                FD:BA:0C:5E:4F:5D:54:67:5E:6A:23:CD:EC:72:08:A5:5F:9B:9F:00
            X509v3 Authority Key Identifier: 
                keyid:9E:A0:B1:FE:A8:B8:21:30:13:39:F2:C3:C1:A8:43:CB:5D:73:FC:B5
                DirName:/CN=OOTYCA_CA/C=IN/O=CITRIX/OU=ANG/ST=KA/emailAddress=OOTYCA_CA@OOTYCA_mail.com
                serial:AA:C2:AB:74:21:09:60:FF

            Authority Information Access: 
                OCSP - URI:http://OOTYCA_two.ocsptest.com/responderpath

    Signature Algorithm: sha256WithRSAEncryption
         5a:af:b4:81:79:42:04:fc:cb:88:35:7b:34:96:fe:69:5e:f6:
         6b:ca:93:a0:dc:81:84:9c:9f:bf:a9:3e:d9:c7:14:48:73:1d:
         85:9d:32:a5:28:2f:70:c5:bb:cb:24:f7:7c:8a:d0:50:86:ad:
         97:78:73:a0:ee:e3:3e:a8:97:0f:d9:0b:fe:8d:b5:fa:74:85:
         14:34:f6:2e:31:91:98:60:c5:03:68:b0:0d:c7:98:42:ff:93:
         0e:38:ef:7e:a6:50:47:ee:a0:9b:6c:9c:a6:50:0b:4a:11:ae:
         9b:9d:9e:ca:67:ec:ab:5e:3b:38:4a:d6:68:5e:36:87:36:b1:
         39:ab:52:f1:d4:43:7d:51:4c:b5:9d:5a:45:ac:08:cb:29:a9:
         96:52:86:30:f7:38:dc:76:be:ed:d9:d2:8d:3c:20:aa:52:03:
         06:b4:d1:ae:3d:ac:96:23:9b:7b:cc:2c:3b:c3:af:02:6f:37:
         7c:81:30:92:16:3b:35:c9:c4:26:93:72:49:93:f8:1b:f7:59:
         41:ce:0b:b2:de:32:a4:cf:2e:fb:5d:de:61:79:72:e2:a9:53:
         c0:18:66:03:d7:aa:4f:29:c5:bc:dc:d5:8e:d7:b2:47:42:94:
         58:ed:87:9c:be:f2:72:bf:63:60:18:6e:65:ea:c5:3c:74:15:
         cc:29:61:d0
-----BEGIN CERTIFICATE-----
MIIEkzCCA3ugAwIBAgIGCgsMDQ4eMA0GCSqGSIb3DQEBCwUAMHcxEjAQBgNVBAMU
CU9PVFlDQV9DQTELMAkGA1UEBhMCSU4xDzANBgNVBAoTBkNJVFJJWDEMMAoGA1UE
CxMDQU5HMQswCQYDVQQIEwJLQTEoMCYGCSqGSIb3DQEJARYZT09UWUNBX0NBQE9P
VFlDQV9tYWlsLmNvbTAeFw0xNjA3MDgwNDM3MDdaFw0yNjA3MDYwNDM3MDdaMG4x
CzAJBgNVBAgTAktBMQswCQYDVQQGEwJJTjEaMBgGA1UEAxQRMTE2X09PVFlDQV9z
ZXJ2ZXIxJTAjBgkqhkiG9w0BCQEWFjExNl9PT1RZQ0FAdGVzdF9jYS5jb20xDzAN
BgNVBAoTBkNJVFJJWDCCASIwDQYJKoZIhvcNAQEBBQADggEPADCCAQoCggEBALuT
6gbXN3bbw2aEJSh4aDPRoDFOBckQQ2CN3fuvj8KUpR9pPkV1yGTidzW4GhxtSXmt
4wWLyNEyMnpMcy3KLqQC/6yhcBa3mKxwsl25M+edlb7x6S6OMuCbHDh1tjvnmcJp
IhRzxhIpiPW4FHYPCY7DU9J45FeVUVCmBa2BA4Q3VO3PuOc7pyI64NwuOj2VwvM+
sCPOuCOKOll3JLrRY9ssr+fMzAXMCmwJqxx35APw/4XIRMqwneEu+iqhaMUSt7hV
pschlrL7TLLfmSW0q6OWvbrBllnO4lSthYZ0shjyeg8Sf1vRswg+BiR8zUaFKE6+
3RT9fMfUcXfCfkGXpjcCAwEAAaOCASwwggEoMBEGCWCGSAGG+EIBAQQEAwIGQDAd
BgNVHQ4EFgQU/boMXk9dVGdeaiPN7HIIpV+bnwAwgakGA1UdIwSBoTCBnoAUnqCx
/qi4ITATOfLDwahDy11z/LWhe6R5MHcxEjAQBgNVBAMUCU9PVFlDQV9DQTELMAkG
A1UEBhMCSU4xDzANBgNVBAoTBkNJVFJJWDEMMAoGA1UECxMDQU5HMQswCQYDVQQI
EwJLQTEoMCYGCSqGSIb3DQEJARYZT09UWUNBX0NBQE9PVFlDQV9tYWlsLmNvbYIJ
AKrCq3QhCWD/MEgGCCsGAQUFBwEBBDwwOjA4BggrBgEFBQcwAYYsaHR0cDovL09P
VFlDQV90d28ub2NzcHRlc3QuY29tL3Jlc3BvbmRlcnBhdGgwDQYJKoZIhvcNAQEL
BQADggEBAFqvtIF5QgT8y4g1ezSW/mle9mvKk6DcgYScn7+pPtnHFEhzHYWdMqUo
L3DFu8sk93yK0FCGrZd4c6Du4z6olw/ZC/6Ntfp0hRQ09i4xkZhgxQNosA3HmEL/
kw44736mUEfuoJtsnKZQC0oRrpudnspn7KteOzhK1mheNoc2sTmrUvHUQ31RTLWd
WkWsCMspqZZShjD3ONx2vu3Z0o08IKpSAwa00a49rJYjm3vMLDvDrwJvN3yBMJIW
OzXJxCaTckmT+Bv3WUHOC7LeMqTPLvtd3mF5cuKpU8AYZgPXqk8pxbzc1Y7XskdC
lFjth5y+8nK/Y2AYbmXqxTx0FcwpYdA=
-----END CERTIFICATE-----
