Certificate:
    Data:
        Version: 3 (0x2)
        Serial Number: 11042563100179 (0xa0b0c0d0e13)
    Signature Algorithm: sha256WithRSAEncryption
        Issuer: CN=OOTYCA_CA, C=IN, O=CITRIX, OU=ANG, ST=KA/emailAddress=OOTYCA_CA@OOTYCA_mail.com
        Validity
            Not Before: Jul  8 04:37:03 2016 GMT
            Not After : Jul  6 04:37:03 2026 GMT
        Subject: ST=KA, C=IN, CN=105_OOTYCA_server/emailAddress=105_OOTYCA@test_ca.com, O=CITRIX
        Subject Public Key Info:
            Public Key Algorithm: rsaEncryption
                Public-Key: (2048 bit)
                Modulus:
                    00:c0:3b:95:bb:87:3a:91:d1:56:6b:cf:cc:86:00:
                    98:fe:79:5b:be:c0:e4:9f:34:19:bb:53:60:f5:c9:
                    c6:78:ad:ca:98:d1:d5:64:06:60:54:76:99:1b:b8:
                    db:53:50:d3:27:69:4b:2d:05:54:2a:d3:78:da:e2:
                    93:ad:5d:82:fa:b1:cd:95:6f:44:d1:ee:a1:8b:ad:
                    e0:9d:81:cf:06:98:90:f6:37:fe:5b:2f:9a:4e:24:
                    5f:6e:09:68:a7:79:01:1c:7b:ce:5a:43:8d:b8:90:
                    93:1e:37:ac:49:92:fb:f3:2b:aa:09:5c:00:4f:72:
                    86:12:60:62:38:c4:9f:80:aa:5a:be:45:92:aa:ac:
                    d9:d4:5d:16:22:9c:5b:3a:d8:1c:75:f2:8b:15:84:
                    e7:74:52:dd:50:85:35:58:db:81:c4:5a:30:7a:d9:
                    bc:43:af:99:ff:62:05:14:c9:ff:8c:73:01:d9:12:
                    56:de:c3:bd:7a:38:b1:7f:c7:fa:c2:9c:b2:b8:e1:
                    13:a0:a8:51:86:b6:ea:e6:bd:c3:64:84:18:61:a7:
                    6c:c6:2a:28:2a:73:1b:78:f1:85:dc:05:58:85:24:
                    3e:e6:dd:20:c3:97:8a:55:0d:9e:82:a8:b1:f9:35:
                    b3:34:7d:f0:cd:8c:b7:68:2a:4c:a4:d3:cf:4a:7b:
                    7f:ab
                Exponent: 65537 (0x10001)
        X509v3 extensions:
            Netscape Cert Type: 
                SSL Server
            X509v3 Subject Key Identifier: 
                0F:4C:8D:F0:4D:E8:9D:43:8B:92:15:29:8F:A7:0F:B7:9A:D5:12:11
            X509v3 Authority Key Identifier: 
                keyid:9E:A0:B1:FE:A8:B8:21:30:13:39:F2:C3:C1:A8:43:CB:5D:73:FC:B5
                DirName:/CN=OOTYCA_CA/C=IN/O=CITRIX/OU=ANG/ST=KA/emailAddress=OOTYCA_CA@OOTYCA_mail.com
                serial:AA:C2:AB:74:21:09:60:FF

            Authority Information Access: 
                OCSP - URI:http://OOTYCA_one.ocsptest.com/responderpath

    Signature Algorithm: sha256WithRSAEncryption
         7b:74:3c:9e:1b:27:8f:fe:b6:88:5a:c9:31:4b:99:5a:4b:f3:
         1d:40:b8:9c:bd:e1:1c:b2:b3:71:b0:3b:38:67:95:0b:47:1d:
         a2:0d:7c:37:c2:1f:e9:28:42:1f:17:06:cd:39:12:a1:d2:fb:
         2e:bb:1e:c7:85:0c:ce:e5:cb:93:4a:d2:0c:bf:38:a1:0b:48:
         8d:88:55:ef:2b:27:e5:0f:f2:6c:ba:5a:85:35:5d:e4:f9:df:
         85:7c:f5:c5:5a:63:ef:7c:5a:8f:46:f0:72:d3:34:df:0f:88:
         7f:e8:59:84:84:f1:e8:f7:1a:0c:c1:87:cb:9c:22:f6:ef:66:
         6a:d0:53:7d:1d:8c:df:71:23:a7:c9:3a:cc:73:83:52:43:0a:
         7c:7d:4d:19:0c:b5:76:9d:93:ae:29:43:9a:e9:bc:69:f1:a0:
         42:43:d9:5b:79:b7:de:30:e8:03:53:c6:97:84:45:02:60:a9:
         c6:07:cd:96:a6:c3:2f:82:68:d4:a6:b8:96:78:ea:04:4c:67:
         61:19:25:b8:86:ff:15:44:eb:27:1d:a0:45:3d:4c:86:7a:48:
         f7:1c:ca:02:22:40:51:5f:a0:1b:a5:b1:22:a7:bf:10:51:65:
         1a:5d:47:66:9f:60:79:0c:f9:7a:c1:20:8c:1e:17:9d:ea:e8:
         42:10:04:85
-----BEGIN CERTIFICATE-----
MIIEkzCCA3ugAwIBAgIGCgsMDQ4TMA0GCSqGSIb3DQEBCwUAMHcxEjAQBgNVBAMU
CU9PVFlDQV9DQTELMAkGA1UEBhMCSU4xDzANBgNVBAoTBkNJVFJJWDEMMAoGA1UE
CxMDQU5HMQswCQYDVQQIEwJLQTEoMCYGCSqGSIb3DQEJARYZT09UWUNBX0NBQE9P
VFlDQV9tYWlsLmNvbTAeFw0xNjA3MDgwNDM3MDNaFw0yNjA3MDYwNDM3MDNaMG4x
CzAJBgNVBAgTAktBMQswCQYDVQQGEwJJTjEaMBgGA1UEAxQRMTA1X09PVFlDQV9z
ZXJ2ZXIxJTAjBgkqhkiG9w0BCQEWFjEwNV9PT1RZQ0FAdGVzdF9jYS5jb20xDzAN
BgNVBAoTBkNJVFJJWDCCASIwDQYJKoZIhvcNAQEBBQADggEPADCCAQoCggEBAMA7
lbuHOpHRVmvPzIYAmP55W77A5J80GbtTYPXJxnitypjR1WQGYFR2mRu421NQ0ydp
Sy0FVCrTeNrik61dgvqxzZVvRNHuoYut4J2BzwaYkPY3/lsvmk4kX24JaKd5ARx7
zlpDjbiQkx43rEmS+/MrqglcAE9yhhJgYjjEn4CqWr5Fkqqs2dRdFiKcWzrYHHXy
ixWE53RS3VCFNVjbgcRaMHrZvEOvmf9iBRTJ/4xzAdkSVt7DvXo4sX/H+sKcsrjh
E6CoUYa26ua9w2SEGGGnbMYqKCpzG3jxhdwFWIUkPubdIMOXilUNnoKosfk1szR9
8M2Mt2gqTKTTz0p7f6sCAwEAAaOCASwwggEoMBEGCWCGSAGG+EIBAQQEAwIGQDAd
BgNVHQ4EFgQUD0yN8E3onUOLkhUpj6cPt5rVEhEwgakGA1UdIwSBoTCBnoAUnqCx
/qi4ITATOfLDwahDy11z/LWhe6R5MHcxEjAQBgNVBAMUCU9PVFlDQV9DQTELMAkG
A1UEBhMCSU4xDzANBgNVBAoTBkNJVFJJWDEMMAoGA1UECxMDQU5HMQswCQYDVQQI
EwJLQTEoMCYGCSqGSIb3DQEJARYZT09UWUNBX0NBQE9PVFlDQV9tYWlsLmNvbYIJ
AKrCq3QhCWD/MEgGCCsGAQUFBwEBBDwwOjA4BggrBgEFBQcwAYYsaHR0cDovL09P
VFlDQV9vbmUub2NzcHRlc3QuY29tL3Jlc3BvbmRlcnBhdGgwDQYJKoZIhvcNAQEL
BQADggEBAHt0PJ4bJ4/+tohayTFLmVpL8x1AuJy94Ryys3GwOzhnlQtHHaINfDfC
H+koQh8XBs05EqHS+y67HseFDM7ly5NK0gy/OKELSI2IVe8rJ+UP8my6WoU1XeT5
34V89cVaY+98Wo9G8HLTNN8PiH/oWYSE8ej3GgzBh8ucIvbvZmrQU30djN9xI6fJ
Osxzg1JDCnx9TRkMtXadk64pQ5rpvGnxoEJD2Vt5t94w6ANTxpeERQJgqcYHzZam
wy+CaNSmuJZ46gRMZ2EZJbiG/xVE6ycdoEU9TIZ6SPccygIiQFFfoBulsSKnvxBR
ZRpdR2afYHkM+XrBIIweF53q6EIQBIU=
-----END CERTIFICATE-----
