Certificate:
    Data:
        Version: 3 (0x2)
        Serial Number: 11042563100188 (0xa0b0c0d0e1c)
    Signature Algorithm: sha256WithRSAEncryption
        Issuer: CN=OOTYCA_CA, C=IN, O=CITRIX, OU=ANG, ST=KA/emailAddress=OOTYCA_CA@OOTYCA_mail.com
        Validity
            Not Before: Jul  8 04:37:06 2016 GMT
            Not After : Jul  6 04:37:06 2026 GMT
        Subject: ST=KA, C=IN, CN=114_OOTYCA_server/emailAddress=114_OOTYCA@test_ca.com, O=CITRIX
        Subject Public Key Info:
            Public Key Algorithm: rsaEncryption
                Public-Key: (2048 bit)
                Modulus:
                    00:c1:1d:19:8c:64:77:e0:3c:ed:d4:92:ad:da:a6:
                    6f:0d:70:86:97:ac:89:ea:f3:be:a4:da:0b:3c:1f:
                    9f:52:32:af:79:a7:da:40:b0:27:36:6e:83:03:49:
                    ee:ee:f6:c2:b5:47:de:55:08:f6:66:fa:6b:7f:5f:
                    ee:63:d6:17:49:a9:15:de:01:1e:4a:4f:fc:03:34:
                    e7:72:c7:95:e2:25:c1:fd:be:ca:f5:bb:2b:31:fa:
                    6a:aa:e5:cf:3e:17:0f:af:ff:9d:68:a3:bf:7b:a2:
                    27:fa:55:8c:3b:9e:76:79:59:f5:4b:98:05:1b:1a:
                    91:42:27:57:59:17:a6:8d:a6:b3:89:a5:db:76:ae:
                    20:e4:e3:2a:cd:1e:42:de:60:66:f0:c2:31:75:db:
                    b6:54:2b:5e:b3:16:03:74:21:1f:1a:57:d6:53:19:
                    d5:d9:5a:49:eb:96:55:e6:b6:f6:3a:fb:e0:2a:6e:
                    60:39:8d:8a:82:27:5a:f5:a2:0c:0e:f4:80:cf:e0:
                    8e:9f:d3:3d:c4:fc:fd:65:14:47:a6:62:ed:77:d4:
                    22:0f:40:0d:40:e4:7b:bd:08:c1:7b:42:7a:33:e8:
                    b4:69:96:12:b0:0c:41:4c:09:0e:45:c3:c8:22:59:
                    db:d0:39:02:a9:4e:4d:72:d9:3f:e5:44:63:ac:98:
                    1b:4b
                Exponent: 65537 (0x10001)
        X509v3 extensions:
            Netscape Cert Type: 
                SSL Server
            X509v3 Subject Key Identifier: 
                F0:74:6D:CC:B7:86:63:0E:25:85:51:04:74:E3:C3:FE:9D:22:9D:0B
            X509v3 Authority Key Identifier: 
                keyid:9E:A0:B1:FE:A8:B8:21:30:13:39:F2:C3:C1:A8:43:CB:5D:73:FC:B5
                DirName:/CN=OOTYCA_CA/C=IN/O=CITRIX/OU=ANG/ST=KA/emailAddress=OOTYCA_CA@OOTYCA_mail.com
                serial:AA:C2:AB:74:21:09:60:FF

            Authority Information Access: 
                OCSP - URI:http://OOTYCA_two.ocsptest.com/responderpath

    Signature Algorithm: sha256WithRSAEncryption
         02:ff:1c:c3:38:db:80:91:7d:cc:97:41:25:28:2b:d2:d2:61:
         24:2b:89:16:18:c1:d5:4e:13:b8:d4:74:7c:1e:e6:53:b5:49:
         25:a6:fd:cf:8a:5a:e1:12:e5:0c:db:99:56:3f:51:1a:c6:95:
         ad:d1:df:3c:d7:c2:8a:69:a4:e8:49:e5:b7:05:dc:5e:38:52:
         44:67:78:0e:d3:07:a6:c0:3b:ae:88:1c:10:1d:09:d6:9a:35:
         60:77:e9:e2:8b:54:77:da:e8:93:f4:9a:1d:00:87:cf:e6:82:
         d6:28:26:7a:d2:9d:b1:e3:18:ae:da:b9:7d:c2:c0:3a:f8:99:
         77:95:7f:49:35:7e:f7:dc:46:84:a0:c7:26:1b:f6:12:10:e5:
         52:53:5e:c0:47:45:b5:f8:02:48:4f:df:a7:59:c7:d2:39:35:
         24:ec:f4:22:26:0f:c1:40:b6:ed:e9:6a:62:0d:f5:a8:8f:64:
         1f:13:b6:3f:5f:34:2c:51:95:57:2c:3a:f8:e0:24:21:fe:4b:
         c0:19:73:98:fb:78:40:c5:30:92:9a:df:0e:55:7d:c9:78:de:
         88:18:8b:f1:4a:a4:ab:c3:08:1b:a7:7d:44:98:77:fd:df:71:
         cc:82:3f:44:1f:ff:ce:54:db:2b:fd:bb:5c:9f:83:0e:e9:9e:
         4a:3e:95:ec
-----BEGIN CERTIFICATE-----
MIIEkzCCA3ugAwIBAgIGCgsMDQ4cMA0GCSqGSIb3DQEBCwUAMHcxEjAQBgNVBAMU
CU9PVFlDQV9DQTELMAkGA1UEBhMCSU4xDzANBgNVBAoTBkNJVFJJWDEMMAoGA1UE
CxMDQU5HMQswCQYDVQQIEwJLQTEoMCYGCSqGSIb3DQEJARYZT09UWUNBX0NBQE9P
VFlDQV9tYWlsLmNvbTAeFw0xNjA3MDgwNDM3MDZaFw0yNjA3MDYwNDM3MDZaMG4x
CzAJBgNVBAgTAktBMQswCQYDVQQGEwJJTjEaMBgGA1UEAxQRMTE0X09PVFlDQV9z
ZXJ2ZXIxJTAjBgkqhkiG9w0BCQEWFjExNF9PT1RZQ0FAdGVzdF9jYS5jb20xDzAN
BgNVBAoTBkNJVFJJWDCCASIwDQYJKoZIhvcNAQEBBQADggEPADCCAQoCggEBAMEd
GYxkd+A87dSSrdqmbw1whpesierzvqTaCzwfn1Iyr3mn2kCwJzZugwNJ7u72wrVH
3lUI9mb6a39f7mPWF0mpFd4BHkpP/AM053LHleIlwf2+yvW7KzH6aqrlzz4XD6//
nWijv3uiJ/pVjDuednlZ9UuYBRsakUInV1kXpo2ms4ml23auIOTjKs0eQt5gZvDC
MXXbtlQrXrMWA3QhHxpX1lMZ1dlaSeuWVea29jr74CpuYDmNioInWvWiDA70gM/g
jp/TPcT8/WUUR6Zi7XfUIg9ADUDke70IwXtCejPotGmWErAMQUwJDkXDyCJZ29A5
AqlOTXLZP+VEY6yYG0sCAwEAAaOCASwwggEoMBEGCWCGSAGG+EIBAQQEAwIGQDAd
BgNVHQ4EFgQU8HRtzLeGYw4lhVEEdOPD/p0inQswgakGA1UdIwSBoTCBnoAUnqCx
/qi4ITATOfLDwahDy11z/LWhe6R5MHcxEjAQBgNVBAMUCU9PVFlDQV9DQTELMAkG
A1UEBhMCSU4xDzANBgNVBAoTBkNJVFJJWDEMMAoGA1UECxMDQU5HMQswCQYDVQQI
EwJLQTEoMCYGCSqGSIb3DQEJARYZT09UWUNBX0NBQE9PVFlDQV9tYWlsLmNvbYIJ
AKrCq3QhCWD/MEgGCCsGAQUFBwEBBDwwOjA4BggrBgEFBQcwAYYsaHR0cDovL09P
VFlDQV90d28ub2NzcHRlc3QuY29tL3Jlc3BvbmRlcnBhdGgwDQYJKoZIhvcNAQEL
BQADggEBAAL/HMM424CRfcyXQSUoK9LSYSQriRYYwdVOE7jUdHwe5lO1SSWm/c+K
WuES5QzbmVY/URrGla3R3zzXwopppOhJ5bcF3F44UkRneA7TB6bAO66IHBAdCdaa
NWB36eKLVHfa6JP0mh0Ah8/mgtYoJnrSnbHjGK7auX3CwDr4mXeVf0k1fvfcRoSg
xyYb9hIQ5VJTXsBHRbX4AkhP36dZx9I5NSTs9CImD8FAtu3pamIN9aiPZB8Ttj9f
NCxRlVcsOvjgJCH+S8AZc5j7eEDFMJKa3w5Vfcl43ogYi/FKpKvDCBunfUSYd/3f
ccyCP0Qf/85U2yv9u1yfgw7pnko+lew=
-----END CERTIFICATE-----
