Certificate:
    Data:
        Version: 3 (0x2)
        Serial Number: 11042563100213 (0xa0b0c0d0e35)
    Signature Algorithm: sha256WithRSAEncryption
        Issuer: CN=OOTYCA_CA, C=IN, O=CITRIX, OU=ANG, ST=KA/emailAddress=OOTYCA_CA@OOTYCA_mail.com
        Validity
            Not Before: Jul  8 04:37:13 2016 GMT
            Not After : Jul  6 04:37:13 2026 GMT
        Subject: ST=KA, C=IN, CN=139_OOTYCA_server/emailAddress=139_OOTYCA@test_ca.com, O=CITRIX
        Subject Public Key Info:
            Public Key Algorithm: rsaEncryption
                Public-Key: (2048 bit)
                Modulus:
                    00:e2:75:3c:a1:2d:d8:39:2d:39:c0:cc:de:29:5e:
                    db:3f:cb:54:29:eb:2d:50:d7:ce:25:90:f3:e5:f0:
                    a4:7b:5d:4c:46:45:41:61:34:56:5b:d7:dc:e7:35:
                    3b:30:26:77:65:89:c7:b2:1e:15:87:36:d4:3a:c1:
                    5b:1e:8c:21:d3:15:70:3d:ce:ba:4d:3c:a4:f9:9b:
                    1b:06:35:28:8b:4e:94:e0:4a:e2:b1:95:ea:27:b4:
                    93:2b:02:7a:b3:9c:57:5b:bc:dd:c4:d2:58:a0:2d:
                    ce:3a:ac:b5:30:09:af:5a:1c:2c:74:58:a1:24:91:
                    23:18:72:d5:6c:cb:ae:a2:4a:0b:99:9d:be:f7:f1:
                    f3:21:9e:72:fd:c2:e5:f2:72:0e:f5:cc:94:09:f6:
                    92:0b:d2:d5:64:11:c0:ef:96:a6:fb:f9:e6:ac:c1:
                    2d:2d:8f:1f:3a:27:05:d1:b0:e6:1e:66:2b:89:77:
                    e3:02:4f:3b:38:82:9c:2e:f0:2e:72:e2:a3:2b:b0:
                    b9:25:0e:4d:7d:11:37:77:c2:0e:5d:e8:34:be:f3:
                    51:0f:93:28:53:50:7f:42:3f:69:2d:cc:4b:a6:bb:
                    5f:ea:d8:d4:7c:53:e6:ee:d6:93:f3:28:ae:6d:13:
                    ec:23:84:ca:c4:69:8b:23:29:22:69:b9:d5:f9:00:
                    cb:8d
                Exponent: 65537 (0x10001)
        X509v3 extensions:
            Netscape Cert Type: 
                SSL Server
            X509v3 Subject Key Identifier: 
                88:C9:69:47:07:3E:6C:86:54:EC:4F:24:E0:4D:2F:9C:E7:B8:65:09
            X509v3 Authority Key Identifier: 
                keyid:9E:A0:B1:FE:A8:B8:21:30:13:39:F2:C3:C1:A8:43:CB:5D:73:FC:B5
                DirName:/CN=OOTYCA_CA/C=IN/O=CITRIX/OU=ANG/ST=KA/emailAddress=OOTYCA_CA@OOTYCA_mail.com
                serial:AA:C2:AB:74:21:09:60:FF

            Authority Information Access: 
                OCSP - URI:http://172.25.20.1/responderpath

    Signature Algorithm: sha256WithRSAEncryption
         a4:09:1e:46:77:d0:48:91:57:8c:ae:86:b4:25:62:94:16:16:
         e5:dc:a8:3d:25:69:e0:07:95:42:ad:75:f1:50:4e:aa:cc:52:
         81:ea:15:20:ca:29:67:99:a3:71:46:43:cd:c2:87:6f:2c:07:
         d0:3d:34:53:d4:c2:e3:a4:c9:e6:8d:34:aa:e0:cd:a4:f7:48:
         3d:64:a0:6c:93:3b:d6:a3:5f:41:87:c2:07:85:91:62:41:29:
         8d:a2:9e:ac:b6:bd:a4:38:af:7e:ff:f6:66:47:72:21:0b:6a:
         df:4d:88:95:f0:03:ee:c8:42:80:b8:4a:28:c9:11:7a:af:30:
         15:df:0f:1f:88:47:0c:2a:61:c4:82:b0:e6:ee:89:05:6f:4d:
         32:f5:3b:88:4a:85:06:5f:a9:03:62:7a:25:11:27:e1:cd:2f:
         cf:9e:70:4b:32:3e:9f:4e:44:2b:cc:a7:4c:8b:de:ed:8c:70:
         77:20:a0:97:5e:ed:f8:6e:c3:1e:a0:3d:6c:50:23:66:ac:25:
         7c:2f:b5:a7:32:47:2f:8f:f3:ac:8a:9b:8b:9e:56:65:a0:ed:
         73:98:b0:e9:bb:ee:16:3f:0f:18:f4:10:12:a0:fa:93:69:33:
         ef:01:7d:1e:3d:ac:d8:ed:fd:7f:c5:be:8c:77:02:63:8f:98:
         94:0c:b9:99
-----BEGIN CERTIFICATE-----
MIIEhzCCA2+gAwIBAgIGCgsMDQ41MA0GCSqGSIb3DQEBCwUAMHcxEjAQBgNVBAMU
CU9PVFlDQV9DQTELMAkGA1UEBhMCSU4xDzANBgNVBAoTBkNJVFJJWDEMMAoGA1UE
CxMDQU5HMQswCQYDVQQIEwJLQTEoMCYGCSqGSIb3DQEJARYZT09UWUNBX0NBQE9P
VFlDQV9tYWlsLmNvbTAeFw0xNjA3MDgwNDM3MTNaFw0yNjA3MDYwNDM3MTNaMG4x
CzAJBgNVBAgTAktBMQswCQYDVQQGEwJJTjEaMBgGA1UEAxQRMTM5X09PVFlDQV9z
ZXJ2ZXIxJTAjBgkqhkiG9w0BCQEWFjEzOV9PT1RZQ0FAdGVzdF9jYS5jb20xDzAN
BgNVBAoTBkNJVFJJWDCCASIwDQYJKoZIhvcNAQEBBQADggEPADCCAQoCggEBAOJ1
PKEt2DktOcDM3ile2z/LVCnrLVDXziWQ8+XwpHtdTEZFQWE0VlvX3Oc1OzAmd2WJ
x7IeFYc21DrBWx6MIdMVcD3Ouk08pPmbGwY1KItOlOBK4rGV6ie0kysCerOcV1u8
3cTSWKAtzjqstTAJr1ocLHRYoSSRIxhy1WzLrqJKC5mdvvfx8yGecv3C5fJyDvXM
lAn2kgvS1WQRwO+Wpvv55qzBLS2PHzonBdGw5h5mK4l34wJPOziCnC7wLnLioyuw
uSUOTX0RN3fCDl3oNL7zUQ+TKFNQf0I/aS3MS6a7X+rY1HxT5u7Wk/Morm0T7COE
ysRpiyMpImm51fkAy40CAwEAAaOCASAwggEcMBEGCWCGSAGG+EIBAQQEAwIGQDAd
BgNVHQ4EFgQUiMlpRwc+bIZU7E8k4E0vnOe4ZQkwgakGA1UdIwSBoTCBnoAUnqCx
/qi4ITATOfLDwahDy11z/LWhe6R5MHcxEjAQBgNVBAMUCU9PVFlDQV9DQTELMAkG
A1UEBhMCSU4xDzANBgNVBAoTBkNJVFJJWDEMMAoGA1UECxMDQU5HMQswCQYDVQQI
EwJLQTEoMCYGCSqGSIb3DQEJARYZT09UWUNBX0NBQE9PVFlDQV9tYWlsLmNvbYIJ
AKrCq3QhCWD/MDwGCCsGAQUFBwEBBDAwLjAsBggrBgEFBQcwAYYgaHR0cDovLzE3
Mi4yNS4yMC4xL3Jlc3BvbmRlcnBhdGgwDQYJKoZIhvcNAQELBQADggEBAKQJHkZ3
0EiRV4yuhrQlYpQWFuXcqD0laeAHlUKtdfFQTqrMUoHqFSDKKWeZo3FGQ83Ch28s
B9A9NFPUwuOkyeaNNKrgzaT3SD1koGyTO9ajX0GHwgeFkWJBKY2inqy2vaQ4r37/
9mZHciELat9NiJXwA+7IQoC4SijJEXqvMBXfDx+IRwwqYcSCsObuiQVvTTL1O4hK
hQZfqQNieiURJ+HNL8+ecEsyPp9ORCvMp0yL3u2McHcgoJde7fhuwx6gPWxQI2as
JXwvtacyRy+P86yKm4ueVmWg7XOYsOm77hY/Dxj0EBKg+pNpM+8BfR49rNjt/X/F
vox3AmOPmJQMuZk=
-----END CERTIFICATE-----
