Certificate:
    Data:
        Version: 3 (0x2)
        Serial Number: 11042563100206 (0xa0b0c0d0e2e)
    Signature Algorithm: sha256WithRSAEncryption
        Issuer: CN=OOTYCA_CA, C=IN, O=CITRIX, OU=ANG, ST=KA/emailAddress=OOTYCA_CA@OOTYCA_mail.com
        Validity
            Not Before: Jul  8 04:37:11 2016 GMT
            Not After : Jul  6 04:37:11 2026 GMT
        Subject: ST=KA, C=IN, CN=132_OOTYCA_server/emailAddress=132_OOTYCA@test_ca.com, O=CITRIX
        Subject Public Key Info:
            Public Key Algorithm: rsaEncryption
                Public-Key: (2048 bit)
                Modulus:
                    00:a9:2b:5e:19:99:9f:e2:05:ba:40:73:0d:19:38:
                    74:89:9f:33:82:fd:70:80:44:b7:fe:24:ce:ed:e3:
                    55:55:23:4c:1a:27:eb:2f:e5:3b:bf:6f:98:c3:05:
                    d9:7e:00:f7:09:dd:b0:fd:68:7e:3a:51:7f:df:b3:
                    59:2b:ba:ed:b5:f3:1e:4f:2d:b6:03:7c:19:5d:9c:
                    24:0d:18:65:5f:ea:ef:53:0e:4d:5a:57:d0:f5:a3:
                    80:1d:90:09:08:8a:01:e4:c7:eb:de:fc:e2:2b:1d:
                    01:cc:99:f7:a9:e4:de:f3:c6:06:72:8a:36:35:48:
                    3c:42:e6:f3:23:0c:b3:89:ce:88:87:b2:e3:fe:c9:
                    bd:db:5e:f8:63:c7:ae:99:da:0a:34:56:e7:0b:22:
                    10:d8:42:36:6a:d8:d9:c6:fb:5b:a2:c8:c3:98:a8:
                    ce:52:75:3d:f3:47:7d:eb:83:3b:99:f3:d8:37:3b:
                    02:f8:45:1d:30:1c:7f:d0:49:af:dc:52:e2:ff:1d:
                    5d:29:a9:6f:54:26:86:44:c3:19:95:fd:3d:32:9c:
                    7f:e6:55:6c:74:48:92:69:12:b4:10:86:5d:0f:f0:
                    68:55:2b:19:e0:e9:e9:86:d2:0c:c4:2c:08:81:09:
                    c0:75:d6:e5:23:f3:f0:35:d3:4c:e1:1a:6f:e2:c1:
                    ec:31
                Exponent: 65537 (0x10001)
        X509v3 extensions:
            Netscape Cert Type: 
                SSL Server
            X509v3 Subject Key Identifier: 
                95:89:E3:A3:F0:09:32:09:AB:2E:03:96:25:D4:1C:66:8D:9C:44:73
            X509v3 Authority Key Identifier: 
                keyid:9E:A0:B1:FE:A8:B8:21:30:13:39:F2:C3:C1:A8:43:CB:5D:73:FC:B5
                DirName:/CN=OOTYCA_CA/C=IN/O=CITRIX/OU=ANG/ST=KA/emailAddress=OOTYCA_CA@OOTYCA_mail.com
                serial:AA:C2:AB:74:21:09:60:FF

            Authority Information Access: 
                OCSP - URI:http://172.25.20.1/responderpath

    Signature Algorithm: sha256WithRSAEncryption
         44:5e:5e:95:68:c9:3a:33:23:44:32:14:10:e1:b8:a9:71:98:
         6a:90:22:0b:3d:34:06:2f:e1:fe:4c:0d:c7:f7:92:02:97:eb:
         9d:f5:90:54:a6:40:95:32:58:2c:a0:0d:65:64:b3:31:62:f3:
         8d:8f:0f:d0:fb:5a:e8:bf:1a:c7:11:76:b6:51:9e:1e:2d:1a:
         2a:28:74:99:c6:d6:f1:60:92:d7:96:d4:77:75:ea:9c:17:24:
         f6:68:fc:22:29:0a:a4:eb:e4:b4:c6:db:92:91:bb:97:b5:68:
         74:11:c3:56:80:97:08:3a:c8:24:5f:dd:e7:e2:88:18:01:b8:
         60:39:c2:2b:99:f3:f0:bd:af:1e:16:d1:a5:eb:64:3e:ff:8b:
         3c:10:91:81:5d:3e:dc:69:47:f9:d6:36:89:2b:21:4d:c4:9a:
         5a:f4:5b:ae:86:16:03:dd:dc:ae:75:0d:5e:02:d5:c9:01:87:
         c2:82:5f:9d:51:89:d5:05:f0:a4:3d:76:58:02:c4:e3:83:69:
         40:c6:6d:4e:a4:36:78:e1:87:5e:d9:8c:50:7f:88:7c:f8:15:
         87:f4:fe:60:ce:32:4f:8e:fa:05:61:cc:a1:30:67:21:0f:8e:
         54:1c:3a:d2:d9:b7:0a:11:2c:4a:5c:a0:6b:76:21:6b:9a:f7:
         2d:28:a2:ec
-----BEGIN CERTIFICATE-----
MIIEhzCCA2+gAwIBAgIGCgsMDQ4uMA0GCSqGSIb3DQEBCwUAMHcxEjAQBgNVBAMU
CU9PVFlDQV9DQTELMAkGA1UEBhMCSU4xDzANBgNVBAoTBkNJVFJJWDEMMAoGA1UE
CxMDQU5HMQswCQYDVQQIEwJLQTEoMCYGCSqGSIb3DQEJARYZT09UWUNBX0NBQE9P
VFlDQV9tYWlsLmNvbTAeFw0xNjA3MDgwNDM3MTFaFw0yNjA3MDYwNDM3MTFaMG4x
CzAJBgNVBAgTAktBMQswCQYDVQQGEwJJTjEaMBgGA1UEAxQRMTMyX09PVFlDQV9z
ZXJ2ZXIxJTAjBgkqhkiG9w0BCQEWFjEzMl9PT1RZQ0FAdGVzdF9jYS5jb20xDzAN
BgNVBAoTBkNJVFJJWDCCASIwDQYJKoZIhvcNAQEBBQADggEPADCCAQoCggEBAKkr
XhmZn+IFukBzDRk4dImfM4L9cIBEt/4kzu3jVVUjTBon6y/lO79vmMMF2X4A9wnd
sP1ofjpRf9+zWSu67bXzHk8ttgN8GV2cJA0YZV/q71MOTVpX0PWjgB2QCQiKAeTH
69784isdAcyZ96nk3vPGBnKKNjVIPELm8yMMs4nOiIey4/7Jvdte+GPHrpnaCjRW
5wsiENhCNmrY2cb7W6LIw5iozlJ1PfNHfeuDO5nz2Dc7AvhFHTAcf9BJr9xS4v8d
XSmpb1QmhkTDGZX9PTKcf+ZVbHRIkmkStBCGXQ/waFUrGeDp6YbSDMQsCIEJwHXW
5SPz8DXTTOEab+LB7DECAwEAAaOCASAwggEcMBEGCWCGSAGG+EIBAQQEAwIGQDAd
BgNVHQ4EFgQUlYnjo/AJMgmrLgOWJdQcZo2cRHMwgakGA1UdIwSBoTCBnoAUnqCx
/qi4ITATOfLDwahDy11z/LWhe6R5MHcxEjAQBgNVBAMUCU9PVFlDQV9DQTELMAkG
A1UEBhMCSU4xDzANBgNVBAoTBkNJVFJJWDEMMAoGA1UECxMDQU5HMQswCQYDVQQI
EwJLQTEoMCYGCSqGSIb3DQEJARYZT09UWUNBX0NBQE9PVFlDQV9tYWlsLmNvbYIJ
AKrCq3QhCWD/MDwGCCsGAQUFBwEBBDAwLjAsBggrBgEFBQcwAYYgaHR0cDovLzE3
Mi4yNS4yMC4xL3Jlc3BvbmRlcnBhdGgwDQYJKoZIhvcNAQELBQADggEBAEReXpVo
yTozI0QyFBDhuKlxmGqQIgs9NAYv4f5MDcf3kgKX6531kFSmQJUyWCygDWVkszFi
842PD9D7Wui/GscRdrZRnh4tGioodJnG1vFgkteW1Hd16pwXJPZo/CIpCqTr5LTG
25KRu5e1aHQRw1aAlwg6yCRf3efiiBgBuGA5wiuZ8/C9rx4W0aXrZD7/izwQkYFd
PtxpR/nWNokrIU3Emlr0W66GFgPd3K51DV4C1ckBh8KCX51RidUF8KQ9dlgCxOOD
aUDGbU6kNnjhh17ZjFB/iHz4FYf0/mDOMk+O+gVhzKEwZyEPjlQcOtLZtwoRLEpc
oGt2IWua9y0oouw=
-----END CERTIFICATE-----
