Certificate:
    Data:
        Version: 3 (0x2)
        Serial Number: 11042563100192 (0xa0b0c0d0e20)
    Signature Algorithm: sha256WithRSAEncryption
        Issuer: CN=OOTYCA_CA, C=IN, O=CITRIX, OU=ANG, ST=KA/emailAddress=OOTYCA_CA@OOTYCA_mail.com
        Validity
            Not Before: Jul  8 04:37:07 2016 GMT
            Not After : Jul  6 04:37:07 2026 GMT
        Subject: ST=KA, C=IN, CN=118_OOTYCA_server/emailAddress=118_OOTYCA@test_ca.com, O=CITRIX
        Subject Public Key Info:
            Public Key Algorithm: rsaEncryption
                Public-Key: (2048 bit)
                Modulus:
                    00:ae:3d:98:c2:87:08:92:ad:57:4e:01:56:c5:5d:
                    21:f0:16:b6:9d:6d:60:5a:d0:a7:6e:c4:66:60:e1:
                    1a:1d:88:31:0b:05:75:7c:e8:2f:33:ac:ad:b3:40:
                    19:43:d5:cb:cd:40:00:7e:c9:83:da:92:6c:c6:99:
                    cf:4a:8a:dc:a9:dd:53:ed:73:55:00:b4:5f:65:42:
                    3a:0f:0b:bd:b8:2f:7f:ac:b4:b4:1a:ff:be:a2:87:
                    b3:38:f8:99:ad:69:d3:9f:0a:ea:46:83:6f:aa:ce:
                    b7:95:0a:bb:7d:93:96:e6:e7:c4:5e:63:7e:7a:88:
                    98:ca:47:32:b9:11:06:66:45:c6:a2:73:64:34:e0:
                    21:4c:a0:d1:60:b8:72:af:ab:54:bb:91:ab:e5:f4:
                    42:26:2f:5b:15:f8:b1:e8:41:f0:8b:d1:6f:e1:91:
                    2a:81:8f:24:79:bb:ff:a8:37:89:1c:de:d7:ca:3b:
                    26:a2:e2:5b:ec:df:44:cb:94:83:e6:9c:be:8f:3b:
                    83:84:00:e8:db:9f:b7:8d:1c:29:91:82:13:2f:cd:
                    84:89:0f:61:ce:a3:a6:1b:e8:1a:6c:4c:6e:1b:1f:
                    6f:07:c1:49:ba:07:0f:6c:3b:d2:52:bc:6a:2d:cf:
                    28:01:68:e7:5c:7c:48:cf:5a:7f:a9:be:64:6f:c3:
                    02:19
                Exponent: 65537 (0x10001)
        X509v3 extensions:
            Netscape Cert Type: 
                SSL Server
            X509v3 Subject Key Identifier: 
                C3:C0:A1:47:78:E6:4A:23:B5:76:5B:A1:81:E9:D0:43:78:40:95:7F
            X509v3 Authority Key Identifier: 
                keyid:9E:A0:B1:FE:A8:B8:21:30:13:39:F2:C3:C1:A8:43:CB:5D:73:FC:B5
                DirName:/CN=OOTYCA_CA/C=IN/O=CITRIX/OU=ANG/ST=KA/emailAddress=OOTYCA_CA@OOTYCA_mail.com
                serial:AA:C2:AB:74:21:09:60:FF

            Authority Information Access: 
                OCSP - URI:http://OOTYCA_two.ocsptest.com/responderpath

    Signature Algorithm: sha256WithRSAEncryption
         a0:be:14:8f:af:f4:10:5e:ec:14:4f:90:ff:8f:72:de:c3:61:
         8b:70:e3:3a:35:e6:44:e8:82:6e:bb:78:71:13:30:7a:65:57:
         c2:12:2e:8b:f7:40:95:cb:00:5e:90:79:9f:24:19:11:89:2b:
         23:fb:cf:0c:d7:d7:b2:03:80:6b:17:b1:77:6b:ce:2e:24:0c:
         c5:3b:64:14:b4:ec:1c:77:24:e0:db:1c:cb:91:df:ce:ab:1d:
         3e:69:1c:8d:ab:9d:32:13:c7:bd:80:42:31:9c:90:02:51:69:
         fe:02:eb:1d:46:63:be:05:f2:34:e8:d3:d1:6f:36:12:25:97:
         6d:cb:94:2a:96:3c:92:09:20:cd:f6:38:5a:24:fc:30:26:9e:
         aa:a1:f2:0c:67:7e:a1:e6:3e:ba:30:6a:6e:2c:f4:4d:ed:8f:
         ee:24:97:45:85:d6:85:ce:37:d7:c0:c0:b8:fd:0b:02:d8:73:
         3f:e0:41:cd:44:fd:64:72:66:31:1b:7f:91:89:2f:02:e3:84:
         8b:25:98:10:78:9e:42:c9:f2:0b:49:55:74:52:8f:81:ca:a1:
         9f:15:03:63:07:0f:88:df:d9:08:d5:30:c4:ca:93:b3:55:1d:
         bf:c3:03:7a:10:a4:8f:55:27:13:25:fc:7f:47:f2:12:ef:bd:
         74:0f:69:a3
-----BEGIN CERTIFICATE-----
MIIEkzCCA3ugAwIBAgIGCgsMDQ4gMA0GCSqGSIb3DQEBCwUAMHcxEjAQBgNVBAMU
CU9PVFlDQV9DQTELMAkGA1UEBhMCSU4xDzANBgNVBAoTBkNJVFJJWDEMMAoGA1UE
CxMDQU5HMQswCQYDVQQIEwJLQTEoMCYGCSqGSIb3DQEJARYZT09UWUNBX0NBQE9P
VFlDQV9tYWlsLmNvbTAeFw0xNjA3MDgwNDM3MDdaFw0yNjA3MDYwNDM3MDdaMG4x
CzAJBgNVBAgTAktBMQswCQYDVQQGEwJJTjEaMBgGA1UEAxQRMTE4X09PVFlDQV9z
ZXJ2ZXIxJTAjBgkqhkiG9w0BCQEWFjExOF9PT1RZQ0FAdGVzdF9jYS5jb20xDzAN
BgNVBAoTBkNJVFJJWDCCASIwDQYJKoZIhvcNAQEBBQADggEPADCCAQoCggEBAK49
mMKHCJKtV04BVsVdIfAWtp1tYFrQp27EZmDhGh2IMQsFdXzoLzOsrbNAGUPVy81A
AH7Jg9qSbMaZz0qK3KndU+1zVQC0X2VCOg8Lvbgvf6y0tBr/vqKHszj4ma1p058K
6kaDb6rOt5UKu32TlubnxF5jfnqImMpHMrkRBmZFxqJzZDTgIUyg0WC4cq+rVLuR
q+X0QiYvWxX4sehB8IvRb+GRKoGPJHm7/6g3iRze18o7JqLiW+zfRMuUg+acvo87
g4QA6Nuft40cKZGCEy/NhIkPYc6jphvoGmxMbhsfbwfBSboHD2w70lK8ai3PKAFo
51x8SM9af6m+ZG/DAhkCAwEAAaOCASwwggEoMBEGCWCGSAGG+EIBAQQEAwIGQDAd
BgNVHQ4EFgQUw8ChR3jmSiO1dluhgenQQ3hAlX8wgakGA1UdIwSBoTCBnoAUnqCx
/qi4ITATOfLDwahDy11z/LWhe6R5MHcxEjAQBgNVBAMUCU9PVFlDQV9DQTELMAkG
A1UEBhMCSU4xDzANBgNVBAoTBkNJVFJJWDEMMAoGA1UECxMDQU5HMQswCQYDVQQI
EwJLQTEoMCYGCSqGSIb3DQEJARYZT09UWUNBX0NBQE9PVFlDQV9tYWlsLmNvbYIJ
AKrCq3QhCWD/MEgGCCsGAQUFBwEBBDwwOjA4BggrBgEFBQcwAYYsaHR0cDovL09P
VFlDQV90d28ub2NzcHRlc3QuY29tL3Jlc3BvbmRlcnBhdGgwDQYJKoZIhvcNAQEL
BQADggEBAKC+FI+v9BBe7BRPkP+Pct7DYYtw4zo15kTogm67eHETMHplV8ISLov3
QJXLAF6QeZ8kGRGJKyP7zwzX17IDgGsXsXdrzi4kDMU7ZBS07Bx3JODbHMuR386r
HT5pHI2rnTITx72AQjGckAJRaf4C6x1GY74F8jTo09FvNhIll23LlCqWPJIJIM32
OFok/DAmnqqh8gxnfqHmProwam4s9E3tj+4kl0WF1oXON9fAwLj9CwLYcz/gQc1E
/WRyZjEbf5GJLwLjhIslmBB4nkLJ8gtJVXRSj4HKoZ8VA2MHD4jf2QjVMMTKk7NV
Hb/DA3oQpI9VJxMl/H9H8hLvvXQPaaM=
-----END CERTIFICATE-----
