Certificate:
    Data:
        Version: 3 (0x2)
        Serial Number: 11042563100184 (0xa0b0c0d0e18)
    Signature Algorithm: sha256WithRSAEncryption
        Issuer: CN=OOTYCA_CA, C=IN, O=CITRIX, OU=ANG, ST=KA/emailAddress=OOTYCA_CA@OOTYCA_mail.com
        Validity
            Not Before: Jul  8 04:37:05 2016 GMT
            Not After : Jul  6 04:37:05 2026 GMT
        Subject: ST=KA, C=IN, CN=110_OOTYCA_server/emailAddress=110_OOTYCA@test_ca.com, O=CITRIX
        Subject Public Key Info:
            Public Key Algorithm: rsaEncryption
                Public-Key: (2048 bit)
                Modulus:
                    00:c7:c9:78:1a:cf:a9:32:ef:14:1a:11:8a:68:39:
                    89:b9:e7:50:4f:f7:8c:54:32:be:c8:79:d2:59:13:
                    1a:fc:66:1c:30:1d:8e:ef:d4:7a:b3:d0:16:53:36:
                    94:e2:32:f7:5b:ab:13:6b:62:07:a2:10:fc:50:ba:
                    ef:70:66:9f:33:ee:54:57:df:01:aa:13:68:7e:19:
                    2a:07:13:f9:86:89:da:37:9d:c2:40:ef:4e:f2:0c:
                    e3:5c:78:64:6a:f3:19:32:13:3f:c5:56:3a:cb:e9:
                    38:59:35:53:37:0b:f6:14:96:71:8e:0e:d4:ba:92:
                    22:21:72:fb:8e:97:a0:ab:e9:c3:da:7d:59:e5:d6:
                    da:d0:6c:36:50:79:97:3f:48:06:b4:ac:9c:02:20:
                    a5:81:20:fe:62:f0:c0:07:03:e7:12:1c:97:34:68:
                    a2:a9:39:0f:91:58:a2:60:ea:15:61:4c:e1:98:fe:
                    c9:49:ff:98:4f:a0:19:79:23:02:f5:96:52:c7:fb:
                    ee:87:47:2d:bb:cd:88:82:97:0c:8e:b7:b0:9d:ff:
                    6b:90:00:eb:1c:8d:86:c4:22:ef:85:59:6b:ea:2c:
                    24:19:3e:8c:9a:c7:86:0f:74:f6:f4:69:10:14:33:
                    fc:10:44:a0:b5:e7:d4:c0:80:d0:55:d3:36:db:f3:
                    37:f1
                Exponent: 65537 (0x10001)
        X509v3 extensions:
            Netscape Cert Type: 
                SSL Server
            X509v3 Subject Key Identifier: 
                97:C9:56:A6:01:15:72:B6:87:3D:53:08:D1:81:D3:B9:36:A8:87:B2
            X509v3 Authority Key Identifier: 
                keyid:9E:A0:B1:FE:A8:B8:21:30:13:39:F2:C3:C1:A8:43:CB:5D:73:FC:B5
                DirName:/CN=OOTYCA_CA/C=IN/O=CITRIX/OU=ANG/ST=KA/emailAddress=OOTYCA_CA@OOTYCA_mail.com
                serial:AA:C2:AB:74:21:09:60:FF

            Authority Information Access: 
                OCSP - URI:http://OOTYCA_one.ocsptest.com/responderpath

    Signature Algorithm: sha256WithRSAEncryption
         9e:dc:83:e8:39:88:cd:e9:f2:bf:47:1f:08:1e:0e:55:8a:95:
         28:5a:d6:70:73:b3:e9:94:55:76:3d:bf:00:ee:c4:d1:0f:4c:
         83:82:76:1f:5c:5d:ad:63:85:35:ac:a2:a7:6d:e6:ea:5c:ff:
         fc:61:34:f6:cb:9c:e7:8d:b3:c5:dd:2f:d3:54:4c:eb:c4:00:
         86:54:2a:5b:5e:1a:08:e1:e4:33:f9:b1:97:a9:df:41:14:7f:
         f0:f9:9a:b7:68:80:3a:7b:e4:e3:bc:70:90:a3:49:19:9c:d2:
         9a:66:c9:de:64:57:82:34:f8:fc:2d:6d:8b:57:9f:5e:f4:6d:
         43:c3:3f:40:ed:bf:8d:46:79:89:a3:76:1c:48:aa:0f:1c:17:
         65:7d:3c:5c:ac:41:a6:0c:3c:b8:1b:1f:a3:f0:02:11:c9:03:
         da:31:0e:49:3a:c1:15:63:09:76:ff:59:6a:78:e2:f2:26:68:
         be:9f:ff:37:c6:f3:24:2d:b4:1a:04:fd:87:54:50:70:41:44:
         5e:2f:d1:eb:5b:12:f1:32:da:7d:64:c8:2f:de:5c:84:f8:b3:
         be:e5:f4:22:94:5b:a8:08:6b:24:84:04:ad:20:6a:45:63:f9:
         15:f5:6a:cb:ed:45:e2:f7:a0:d9:c6:44:92:0a:4e:96:36:a0:
         ff:36:5f:ae
-----BEGIN CERTIFICATE-----
MIIEkzCCA3ugAwIBAgIGCgsMDQ4YMA0GCSqGSIb3DQEBCwUAMHcxEjAQBgNVBAMU
CU9PVFlDQV9DQTELMAkGA1UEBhMCSU4xDzANBgNVBAoTBkNJVFJJWDEMMAoGA1UE
CxMDQU5HMQswCQYDVQQIEwJLQTEoMCYGCSqGSIb3DQEJARYZT09UWUNBX0NBQE9P
VFlDQV9tYWlsLmNvbTAeFw0xNjA3MDgwNDM3MDVaFw0yNjA3MDYwNDM3MDVaMG4x
CzAJBgNVBAgTAktBMQswCQYDVQQGEwJJTjEaMBgGA1UEAxQRMTEwX09PVFlDQV9z
ZXJ2ZXIxJTAjBgkqhkiG9w0BCQEWFjExMF9PT1RZQ0FAdGVzdF9jYS5jb20xDzAN
BgNVBAoTBkNJVFJJWDCCASIwDQYJKoZIhvcNAQEBBQADggEPADCCAQoCggEBAMfJ
eBrPqTLvFBoRimg5ibnnUE/3jFQyvsh50lkTGvxmHDAdju/UerPQFlM2lOIy91ur
E2tiB6IQ/FC673BmnzPuVFffAaoTaH4ZKgcT+YaJ2jedwkDvTvIM41x4ZGrzGTIT
P8VWOsvpOFk1UzcL9hSWcY4O1LqSIiFy+46XoKvpw9p9WeXW2tBsNlB5lz9IBrSs
nAIgpYEg/mLwwAcD5xIclzRooqk5D5FYomDqFWFM4Zj+yUn/mE+gGXkjAvWWUsf7
7odHLbvNiIKXDI63sJ3/a5AA6xyNhsQi74VZa+osJBk+jJrHhg909vRpEBQz/BBE
oLXn1MCA0FXTNtvzN/ECAwEAAaOCASwwggEoMBEGCWCGSAGG+EIBAQQEAwIGQDAd
BgNVHQ4EFgQUl8lWpgEVcraHPVMI0YHTuTaoh7IwgakGA1UdIwSBoTCBnoAUnqCx
/qi4ITATOfLDwahDy11z/LWhe6R5MHcxEjAQBgNVBAMUCU9PVFlDQV9DQTELMAkG
A1UEBhMCSU4xDzANBgNVBAoTBkNJVFJJWDEMMAoGA1UECxMDQU5HMQswCQYDVQQI
EwJLQTEoMCYGCSqGSIb3DQEJARYZT09UWUNBX0NBQE9PVFlDQV9tYWlsLmNvbYIJ
AKrCq3QhCWD/MEgGCCsGAQUFBwEBBDwwOjA4BggrBgEFBQcwAYYsaHR0cDovL09P
VFlDQV9vbmUub2NzcHRlc3QuY29tL3Jlc3BvbmRlcnBhdGgwDQYJKoZIhvcNAQEL
BQADggEBAJ7cg+g5iM3p8r9HHwgeDlWKlSha1nBzs+mUVXY9vwDuxNEPTIOCdh9c
Xa1jhTWsoqdt5upc//xhNPbLnOeNs8XdL9NUTOvEAIZUKlteGgjh5DP5sZep30EU
f/D5mrdogDp75OO8cJCjSRmc0ppmyd5kV4I0+PwtbYtXn170bUPDP0Dtv41GeYmj
dhxIqg8cF2V9PFysQaYMPLgbH6PwAhHJA9oxDkk6wRVjCXb/WWp44vImaL6f/zfG
8yQttBoE/YdUUHBBRF4v0etbEvEy2n1kyC/eXIT4s77l9CKUW6gIaySEBK0gakVj
+RX1asvtReL3oNnGRJIKTpY2oP82X64=
-----END CERTIFICATE-----
