Certificate:
    Data:
        Version: 3 (0x2)
        Serial Number: 11042563100187 (0xa0b0c0d0e1b)
    Signature Algorithm: sha256WithRSAEncryption
        Issuer: CN=OOTYCA_CA, C=IN, O=CITRIX, OU=ANG, ST=KA/emailAddress=OOTYCA_CA@OOTYCA_mail.com
        Validity
            Not Before: Jul  8 04:37:06 2016 GMT
            Not After : Jul  6 04:37:06 2026 GMT
        Subject: ST=KA, C=IN, CN=113_OOTYCA_server/emailAddress=113_OOTYCA@test_ca.com, O=CITRIX
        Subject Public Key Info:
            Public Key Algorithm: rsaEncryption
                Public-Key: (2048 bit)
                Modulus:
                    00:a4:f3:04:2e:35:f8:65:6a:44:85:d8:0a:19:3b:
                    36:a7:d1:ff:a1:a7:17:a8:15:02:a7:b1:b4:63:35:
                    e9:66:b6:6e:77:c1:5c:af:e3:00:87:ec:f1:30:40:
                    f7:27:a2:9b:f1:e4:f1:25:26:e6:d4:ac:91:5e:7f:
                    d3:98:dc:f5:d4:70:1d:02:2b:d7:24:46:0c:9d:05:
                    ed:80:77:75:f1:f9:a0:83:5a:d6:ee:95:be:1e:6b:
                    c5:e0:b9:2c:36:d0:db:d2:7f:c9:a2:c1:a9:57:13:
                    a0:1c:75:9b:e8:d3:82:32:39:56:24:3a:a8:2c:fb:
                    96:1d:89:cd:a3:f6:07:2d:07:2d:b7:78:10:9a:3b:
                    ee:ff:be:b7:80:70:fa:9f:12:b6:1c:aa:9d:24:2b:
                    da:65:84:eb:66:44:05:90:07:72:ef:40:39:45:2e:
                    8f:84:d2:23:6b:f7:81:8e:b7:3b:24:19:c4:23:1f:
                    5b:f0:85:77:94:46:a6:1b:c1:d2:2d:be:20:d7:ff:
                    c6:63:16:2f:1f:30:82:25:d6:37:86:75:f5:6d:69:
                    7a:97:ff:f4:fe:19:ff:74:6f:dd:cc:86:e3:b4:33:
                    ba:31:8a:17:62:9c:b0:04:61:28:b2:ac:5f:7b:2d:
                    9d:ac:e8:1c:be:9b:e8:3f:cf:be:77:bd:f6:7c:36:
                    55:4d
                Exponent: 65537 (0x10001)
        X509v3 extensions:
            Netscape Cert Type: 
                SSL Server
            X509v3 Subject Key Identifier: 
                9C:9B:E2:33:B8:8D:31:1E:CA:0E:91:FF:D6:D1:49:76:1F:EB:C2:74
            X509v3 Authority Key Identifier: 
                keyid:9E:A0:B1:FE:A8:B8:21:30:13:39:F2:C3:C1:A8:43:CB:5D:73:FC:B5
                DirName:/CN=OOTYCA_CA/C=IN/O=CITRIX/OU=ANG/ST=KA/emailAddress=OOTYCA_CA@OOTYCA_mail.com
                serial:AA:C2:AB:74:21:09:60:FF

            Authority Information Access: 
                OCSP - URI:http://OOTYCA_two.ocsptest.com/responderpath

    Signature Algorithm: sha256WithRSAEncryption
         87:29:04:0f:ad:1e:60:50:60:c6:70:d3:5b:9e:91:46:f6:49:
         49:c9:9b:89:7f:89:b8:e4:b2:46:d2:ed:35:bf:3b:72:72:7b:
         f0:d3:ac:a3:cd:e5:00:ab:99:d0:f1:9b:20:47:35:f0:fb:e8:
         65:2d:2e:ca:96:a9:59:46:5d:5b:b9:3a:7c:3f:fd:94:50:7a:
         6d:d9:45:42:8f:a3:68:37:30:ae:5d:cd:8c:a4:1c:1c:81:e2:
         8d:36:8a:99:b1:5f:0d:b7:b0:c8:86:6e:22:04:5e:8c:0e:e0:
         9a:40:3c:a0:78:8d:f4:80:6c:f9:c0:81:87:9e:f2:9d:2a:5c:
         e6:30:22:23:7f:db:a6:dd:5c:29:1d:5a:75:9d:96:dc:d4:42:
         f2:11:75:d4:79:ab:5a:51:40:53:02:ed:46:d1:4c:c6:09:d9:
         93:b9:60:95:06:53:bd:d4:a6:20:3e:7c:d0:ae:ee:6d:31:93:
         1f:c7:ed:25:51:71:b9:1d:c5:96:22:c4:0a:49:eb:61:b6:8b:
         bb:3f:e2:c8:f7:47:ae:41:86:96:91:99:00:3f:e9:5f:f3:c7:
         84:58:0c:fa:24:d5:f1:da:07:51:aa:fd:b7:2d:f1:64:f5:4c:
         a3:08:5e:d4:72:03:e1:36:ea:b8:c4:81:4f:59:52:08:29:77:
         84:60:b9:ad
-----BEGIN CERTIFICATE-----
MIIEkzCCA3ugAwIBAgIGCgsMDQ4bMA0GCSqGSIb3DQEBCwUAMHcxEjAQBgNVBAMU
CU9PVFlDQV9DQTELMAkGA1UEBhMCSU4xDzANBgNVBAoTBkNJVFJJWDEMMAoGA1UE
CxMDQU5HMQswCQYDVQQIEwJLQTEoMCYGCSqGSIb3DQEJARYZT09UWUNBX0NBQE9P
VFlDQV9tYWlsLmNvbTAeFw0xNjA3MDgwNDM3MDZaFw0yNjA3MDYwNDM3MDZaMG4x
CzAJBgNVBAgTAktBMQswCQYDVQQGEwJJTjEaMBgGA1UEAxQRMTEzX09PVFlDQV9z
ZXJ2ZXIxJTAjBgkqhkiG9w0BCQEWFjExM19PT1RZQ0FAdGVzdF9jYS5jb20xDzAN
BgNVBAoTBkNJVFJJWDCCASIwDQYJKoZIhvcNAQEBBQADggEPADCCAQoCggEBAKTz
BC41+GVqRIXYChk7NqfR/6GnF6gVAqextGM16Wa2bnfBXK/jAIfs8TBA9yeim/Hk
8SUm5tSskV5/05jc9dRwHQIr1yRGDJ0F7YB3dfH5oINa1u6Vvh5rxeC5LDbQ29J/
yaLBqVcToBx1m+jTgjI5ViQ6qCz7lh2JzaP2By0HLbd4EJo77v++t4Bw+p8Sthyq
nSQr2mWE62ZEBZAHcu9AOUUuj4TSI2v3gY63OyQZxCMfW/CFd5RGphvB0i2+INf/
xmMWLx8wgiXWN4Z19W1pepf/9P4Z/3Rv3cyG47QzujGKF2KcsARhKLKsX3stnazo
HL6b6D/Pvne99nw2VU0CAwEAAaOCASwwggEoMBEGCWCGSAGG+EIBAQQEAwIGQDAd
BgNVHQ4EFgQUnJviM7iNMR7KDpH/1tFJdh/rwnQwgakGA1UdIwSBoTCBnoAUnqCx
/qi4ITATOfLDwahDy11z/LWhe6R5MHcxEjAQBgNVBAMUCU9PVFlDQV9DQTELMAkG
A1UEBhMCSU4xDzANBgNVBAoTBkNJVFJJWDEMMAoGA1UECxMDQU5HMQswCQYDVQQI
EwJLQTEoMCYGCSqGSIb3DQEJARYZT09UWUNBX0NBQE9PVFlDQV9tYWlsLmNvbYIJ
AKrCq3QhCWD/MEgGCCsGAQUFBwEBBDwwOjA4BggrBgEFBQcwAYYsaHR0cDovL09P
VFlDQV90d28ub2NzcHRlc3QuY29tL3Jlc3BvbmRlcnBhdGgwDQYJKoZIhvcNAQEL
BQADggEBAIcpBA+tHmBQYMZw01uekUb2SUnJm4l/ibjkskbS7TW/O3Jye/DTrKPN
5QCrmdDxmyBHNfD76GUtLsqWqVlGXVu5Onw//ZRQem3ZRUKPo2g3MK5dzYykHByB
4o02ipmxXw23sMiGbiIEXowO4JpAPKB4jfSAbPnAgYee8p0qXOYwIiN/26bdXCkd
WnWdltzUQvIRddR5q1pRQFMC7UbRTMYJ2ZO5YJUGU73UpiA+fNCu7m0xkx/H7SVR
cbkdxZYixApJ62G2i7s/4sj3R65BhpaRmQA/6V/zx4RYDPok1fHaB1Gq/bct8WT1
TKMIXtRyA+E26rjEgU9ZUggpd4Rgua0=
-----END CERTIFICATE-----
