Certificate:
    Data:
        Version: 3 (0x2)
        Serial Number: 11042563100189 (0xa0b0c0d0e1d)
    Signature Algorithm: sha256WithRSAEncryption
        Issuer: CN=OOTYCA_CA, C=IN, O=CITRIX, OU=ANG, ST=KA/emailAddress=OOTYCA_CA@OOTYCA_mail.com
        Validity
            Not Before: Jul  8 04:37:06 2016 GMT
            Not After : Jul  6 04:37:06 2026 GMT
        Subject: ST=KA, C=IN, CN=115_OOTYCA_server/emailAddress=115_OOTYCA@test_ca.com, O=CITRIX
        Subject Public Key Info:
            Public Key Algorithm: rsaEncryption
                Public-Key: (2048 bit)
                Modulus:
                    00:ba:12:8c:80:a5:f0:6b:02:f4:23:89:8a:9e:b3:
                    71:bf:4a:1b:8d:d8:27:41:c6:57:ca:89:d8:f3:23:
                    93:02:f9:98:a3:0c:e0:82:12:69:f3:6d:10:e2:aa:
                    f0:53:e8:90:fd:18:bb:de:ba:16:0d:89:b2:ca:fe:
                    cd:ee:54:24:c2:1b:2a:a4:b3:ab:04:a5:92:d5:1c:
                    00:01:14:8c:60:b0:82:54:11:95:5a:7e:16:b4:f2:
                    5e:7e:fa:d2:be:d9:ba:3d:27:18:81:16:99:6f:0e:
                    ec:1d:1c:43:d8:fb:a5:f5:d8:29:a9:7c:9f:21:c2:
                    a9:fc:ec:3f:67:6c:24:42:60:22:09:ac:28:ec:03:
                    cc:c8:43:b7:ee:94:1e:86:3e:5a:0b:b9:c6:bd:ed:
                    aa:2f:9a:f5:44:78:39:21:eb:f8:71:ee:bf:e9:13:
                    a6:f2:d4:45:70:1f:35:5f:6d:47:25:7e:19:d8:d8:
                    7b:50:07:c0:08:33:d1:c1:e5:cd:f1:43:9a:e5:e5:
                    5d:35:70:b4:42:74:af:80:8e:33:1d:48:bb:e2:9a:
                    52:63:e6:da:89:3c:68:4a:77:7e:6b:ef:ff:e5:59:
                    09:2d:ef:cf:44:50:57:f4:18:b6:85:57:d1:fd:61:
                    b5:4b:b1:a5:c0:38:91:7c:51:02:70:f5:8d:5d:3b:
                    4b:eb
                Exponent: 65537 (0x10001)
        X509v3 extensions:
            Netscape Cert Type: 
                SSL Server
            X509v3 Subject Key Identifier: 
                73:F3:C7:29:D4:00:03:0B:D2:F8:EF:24:24:B8:68:5F:9A:39:79:76
            X509v3 Authority Key Identifier: 
                keyid:9E:A0:B1:FE:A8:B8:21:30:13:39:F2:C3:C1:A8:43:CB:5D:73:FC:B5
                DirName:/CN=OOTYCA_CA/C=IN/O=CITRIX/OU=ANG/ST=KA/emailAddress=OOTYCA_CA@OOTYCA_mail.com
                serial:AA:C2:AB:74:21:09:60:FF

            Authority Information Access: 
                OCSP - URI:http://OOTYCA_two.ocsptest.com/responderpath

    Signature Algorithm: sha256WithRSAEncryption
         a6:12:fd:5d:40:dc:b1:bf:64:df:ae:e9:81:95:41:5d:a1:73:
         7c:24:8c:61:54:77:8a:44:c2:0c:1d:d9:d7:43:08:24:7d:80:
         c9:3f:62:24:1b:c6:94:ea:2b:aa:49:c3:47:a5:51:46:52:f4:
         49:32:97:b2:9e:8a:b9:90:04:68:93:29:fe:c9:41:a5:bd:af:
         40:a8:71:68:49:ab:0d:57:be:d4:f8:c6:cc:2a:d5:8f:8c:3a:
         36:00:b3:3e:f1:e3:ec:e9:21:72:52:af:d9:28:d5:68:a9:2b:
         e3:58:81:47:fd:34:7f:ac:53:7a:2a:dc:d9:2c:4b:7e:c4:2d:
         dd:a5:4f:4f:20:77:79:71:44:fb:8f:62:06:c3:86:49:3b:f2:
         2e:cb:37:fd:77:da:10:fd:a8:28:ff:ca:a8:5e:a0:40:11:90:
         39:3a:79:23:35:9b:4f:27:5a:9f:88:96:d4:36:3b:7e:e9:d8:
         96:f6:76:d8:04:16:01:f8:ee:d0:0d:1f:26:68:1e:a2:6d:62:
         96:b2:e0:80:0c:ab:4b:a6:3c:c8:e7:b9:50:3a:dd:48:1e:28:
         6a:11:33:ce:4c:45:bf:42:a1:2a:98:e8:f9:b9:4e:db:5c:30:
         e8:0d:9b:b1:f1:70:48:4f:d3:f6:57:bf:19:4c:55:cd:5e:3e:
         c1:37:f8:9d
-----BEGIN CERTIFICATE-----
MIIEkzCCA3ugAwIBAgIGCgsMDQ4dMA0GCSqGSIb3DQEBCwUAMHcxEjAQBgNVBAMU
CU9PVFlDQV9DQTELMAkGA1UEBhMCSU4xDzANBgNVBAoTBkNJVFJJWDEMMAoGA1UE
CxMDQU5HMQswCQYDVQQIEwJLQTEoMCYGCSqGSIb3DQEJARYZT09UWUNBX0NBQE9P
VFlDQV9tYWlsLmNvbTAeFw0xNjA3MDgwNDM3MDZaFw0yNjA3MDYwNDM3MDZaMG4x
CzAJBgNVBAgTAktBMQswCQYDVQQGEwJJTjEaMBgGA1UEAxQRMTE1X09PVFlDQV9z
ZXJ2ZXIxJTAjBgkqhkiG9w0BCQEWFjExNV9PT1RZQ0FAdGVzdF9jYS5jb20xDzAN
BgNVBAoTBkNJVFJJWDCCASIwDQYJKoZIhvcNAQEBBQADggEPADCCAQoCggEBALoS
jICl8GsC9COJip6zcb9KG43YJ0HGV8qJ2PMjkwL5mKMM4IISafNtEOKq8FPokP0Y
u966Fg2Jssr+ze5UJMIbKqSzqwSlktUcAAEUjGCwglQRlVp+FrTyXn760r7Zuj0n
GIEWmW8O7B0cQ9j7pfXYKal8nyHCqfzsP2dsJEJgIgmsKOwDzMhDt+6UHoY+Wgu5
xr3tqi+a9UR4OSHr+HHuv+kTpvLURXAfNV9tRyV+GdjYe1AHwAgz0cHlzfFDmuXl
XTVwtEJ0r4COMx1Iu+KaUmPm2ok8aEp3fmvv/+VZCS3vz0RQV/QYtoVX0f1htUux
pcA4kXxRAnD1jV07S+sCAwEAAaOCASwwggEoMBEGCWCGSAGG+EIBAQQEAwIGQDAd
BgNVHQ4EFgQUc/PHKdQAAwvS+O8kJLhoX5o5eXYwgakGA1UdIwSBoTCBnoAUnqCx
/qi4ITATOfLDwahDy11z/LWhe6R5MHcxEjAQBgNVBAMUCU9PVFlDQV9DQTELMAkG
A1UEBhMCSU4xDzANBgNVBAoTBkNJVFJJWDEMMAoGA1UECxMDQU5HMQswCQYDVQQI
EwJLQTEoMCYGCSqGSIb3DQEJARYZT09UWUNBX0NBQE9PVFlDQV9tYWlsLmNvbYIJ
AKrCq3QhCWD/MEgGCCsGAQUFBwEBBDwwOjA4BggrBgEFBQcwAYYsaHR0cDovL09P
VFlDQV90d28ub2NzcHRlc3QuY29tL3Jlc3BvbmRlcnBhdGgwDQYJKoZIhvcNAQEL
BQADggEBAKYS/V1A3LG/ZN+u6YGVQV2hc3wkjGFUd4pEwgwd2ddDCCR9gMk/YiQb
xpTqK6pJw0elUUZS9Ekyl7KeirmQBGiTKf7JQaW9r0CocWhJqw1XvtT4xswq1Y+M
OjYAsz7x4+zpIXJSr9ko1WipK+NYgUf9NH+sU3oq3NksS37ELd2lT08gd3lxRPuP
YgbDhkk78i7LN/132hD9qCj/yqheoEARkDk6eSM1m08nWp+IltQ2O37p2Jb2dtgE
FgH47tANHyZoHqJtYpay4IAMq0umPMjnuVA63UgeKGoRM85MRb9CoSqY6Pm5Tttc
MOgNm7HxcEhP0/ZXvxlMVc1ePsE3+J0=
-----END CERTIFICATE-----
