Certificate:
    Data:
        Version: 3 (0x2)
        Serial Number: 11042563100194 (0xa0b0c0d0e22)
    Signature Algorithm: sha256WithRSAEncryption
        Issuer: CN=OOTYCA_CA, C=IN, O=CITRIX, OU=ANG, ST=KA/emailAddress=OOTYCA_CA@OOTYCA_mail.com
        Validity
            Not Before: Jul  8 04:37:08 2016 GMT
            Not After : Jul  6 04:37:08 2026 GMT
        Subject: ST=KA, C=IN, CN=120_OOTYCA_server/emailAddress=120_OOTYCA@test_ca.com, O=CITRIX
        Subject Public Key Info:
            Public Key Algorithm: rsaEncryption
                Public-Key: (2048 bit)
                Modulus:
                    00:d1:d0:73:94:f5:7b:48:bf:26:f8:60:a9:01:22:
                    0f:62:c7:29:df:a8:9f:86:22:37:dd:c6:e8:d0:69:
                    61:29:6c:34:33:54:bb:de:0b:68:cf:2c:fe:3f:6d:
                    bf:de:75:00:60:65:c8:33:4c:d8:e0:e6:63:d9:44:
                    fb:ba:58:fb:48:84:55:a6:63:56:e4:bc:39:e4:e8:
                    8d:4f:67:30:a4:5c:73:2b:44:0b:1e:24:45:24:6b:
                    b4:41:19:4b:19:84:5c:a2:05:fa:12:07:23:91:6f:
                    a0:67:49:e6:50:27:b0:bd:27:89:1c:42:14:23:5e:
                    01:7f:37:13:91:7a:3e:56:50:1b:66:37:b4:d8:5d:
                    de:37:e4:35:ba:2c:fe:a1:5a:14:df:d2:8c:ca:86:
                    ad:b1:bc:9f:74:04:f1:d7:a3:b8:92:a4:08:40:45:
                    22:6d:43:9b:45:01:2b:a4:88:f3:d3:90:7a:c9:1e:
                    58:90:6c:7b:56:43:64:d0:d3:4a:56:fa:2e:66:1f:
                    b3:b2:61:5d:75:0b:d3:e8:aa:ea:62:79:61:d9:0e:
                    72:92:18:45:45:2a:00:ec:3e:c9:d2:3c:78:38:af:
                    8f:44:99:90:4a:f5:70:4a:67:3a:5c:b1:c4:ff:42:
                    e2:16:98:a2:7f:b7:b1:f4:8f:6e:78:7b:c6:95:d4:
                    55:35
                Exponent: 65537 (0x10001)
        X509v3 extensions:
            Netscape Cert Type: 
                SSL Server
            X509v3 Subject Key Identifier: 
                CE:7C:0D:29:7F:74:BA:9B:A2:66:2D:04:33:30:D6:8A:F5:5E:45:40
            X509v3 Authority Key Identifier: 
                keyid:9E:A0:B1:FE:A8:B8:21:30:13:39:F2:C3:C1:A8:43:CB:5D:73:FC:B5
                DirName:/CN=OOTYCA_CA/C=IN/O=CITRIX/OU=ANG/ST=KA/emailAddress=OOTYCA_CA@OOTYCA_mail.com
                serial:AA:C2:AB:74:21:09:60:FF

            Authority Information Access: 
                OCSP - URI:http://OOTYCA_two.ocsptest.com/responderpath

    Signature Algorithm: sha256WithRSAEncryption
         77:31:1c:59:59:54:2b:82:d3:67:a2:1c:a0:46:ad:b7:6a:8e:
         f4:89:5f:6d:fb:19:1a:15:d1:f6:8d:aa:dc:ea:e9:b1:c5:be:
         fa:8f:3e:78:61:83:5d:0c:e2:eb:d9:f2:c3:f8:15:fa:5c:82:
         09:d0:7b:d8:ea:07:e3:24:97:08:19:6d:ab:e1:47:30:fd:c8:
         29:26:db:41:15:79:75:0b:16:00:4f:21:9f:2c:fb:1b:00:03:
         3d:c8:ea:6f:51:e3:62:33:ba:2b:da:a6:69:45:be:f7:05:ec:
         91:a9:05:e2:f6:3a:b3:14:94:d3:a5:e0:ea:2f:e4:c8:99:c3:
         46:b0:ac:21:ad:db:9d:a5:0a:32:c5:d9:29:54:c1:54:97:80:
         df:9a:5b:bf:9e:73:23:33:7b:a4:bc:a3:2c:90:a0:c6:f2:9e:
         b0:fe:20:00:1b:0c:52:ff:1d:4d:27:81:66:ab:d4:37:5e:b7:
         82:9d:02:d6:93:6f:c7:e5:f6:e3:0c:4f:42:8d:6b:0c:a3:af:
         bf:db:f5:4d:24:75:92:9a:ce:ed:cd:01:38:16:83:a4:13:51:
         5e:b1:a7:b5:68:30:73:1d:f3:8e:68:68:e5:9b:e9:d1:12:b9:
         70:b5:0c:90:29:21:36:2d:16:a0:4e:ed:ee:47:d5:fe:fc:56:
         1b:46:1f:f2
-----BEGIN CERTIFICATE-----
MIIEkzCCA3ugAwIBAgIGCgsMDQ4iMA0GCSqGSIb3DQEBCwUAMHcxEjAQBgNVBAMU
CU9PVFlDQV9DQTELMAkGA1UEBhMCSU4xDzANBgNVBAoTBkNJVFJJWDEMMAoGA1UE
CxMDQU5HMQswCQYDVQQIEwJLQTEoMCYGCSqGSIb3DQEJARYZT09UWUNBX0NBQE9P
VFlDQV9tYWlsLmNvbTAeFw0xNjA3MDgwNDM3MDhaFw0yNjA3MDYwNDM3MDhaMG4x
CzAJBgNVBAgTAktBMQswCQYDVQQGEwJJTjEaMBgGA1UEAxQRMTIwX09PVFlDQV9z
ZXJ2ZXIxJTAjBgkqhkiG9w0BCQEWFjEyMF9PT1RZQ0FAdGVzdF9jYS5jb20xDzAN
BgNVBAoTBkNJVFJJWDCCASIwDQYJKoZIhvcNAQEBBQADggEPADCCAQoCggEBANHQ
c5T1e0i/JvhgqQEiD2LHKd+on4YiN93G6NBpYSlsNDNUu94LaM8s/j9tv951AGBl
yDNM2ODmY9lE+7pY+0iEVaZjVuS8OeTojU9nMKRccytECx4kRSRrtEEZSxmEXKIF
+hIHI5FvoGdJ5lAnsL0niRxCFCNeAX83E5F6PlZQG2Y3tNhd3jfkNbos/qFaFN/S
jMqGrbG8n3QE8dejuJKkCEBFIm1Dm0UBK6SI89OQeskeWJBse1ZDZNDTSlb6LmYf
s7JhXXUL0+iq6mJ5YdkOcpIYRUUqAOw+ydI8eDivj0SZkEr1cEpnOlyxxP9C4haY
on+3sfSPbnh7xpXUVTUCAwEAAaOCASwwggEoMBEGCWCGSAGG+EIBAQQEAwIGQDAd
BgNVHQ4EFgQUznwNKX90upuiZi0EMzDWivVeRUAwgakGA1UdIwSBoTCBnoAUnqCx
/qi4ITATOfLDwahDy11z/LWhe6R5MHcxEjAQBgNVBAMUCU9PVFlDQV9DQTELMAkG
A1UEBhMCSU4xDzANBgNVBAoTBkNJVFJJWDEMMAoGA1UECxMDQU5HMQswCQYDVQQI
EwJLQTEoMCYGCSqGSIb3DQEJARYZT09UWUNBX0NBQE9PVFlDQV9tYWlsLmNvbYIJ
AKrCq3QhCWD/MEgGCCsGAQUFBwEBBDwwOjA4BggrBgEFBQcwAYYsaHR0cDovL09P
VFlDQV90d28ub2NzcHRlc3QuY29tL3Jlc3BvbmRlcnBhdGgwDQYJKoZIhvcNAQEL
BQADggEBAHcxHFlZVCuC02eiHKBGrbdqjvSJX237GRoV0faNqtzq6bHFvvqPPnhh
g10M4uvZ8sP4FfpcggnQe9jqB+MklwgZbavhRzD9yCkm20EVeXULFgBPIZ8s+xsA
Az3I6m9R42IzuivapmlFvvcF7JGpBeL2OrMUlNOl4Oov5MiZw0awrCGt252lCjLF
2SlUwVSXgN+aW7+ecyMze6S8oyyQoMbynrD+IAAbDFL/HU0ngWar1Ddet4KdAtaT
b8fl9uMMT0KNawyjr7/b9U0kdZKazu3NATgWg6QTUV6xp7VoMHMd845oaOWb6dES
uXC1DJApITYtFqBO7e5H1f78VhtGH/I=
-----END CERTIFICATE-----
