Certificate:
    Data:
        Version: 3 (0x2)
        Serial Number: 11042563100196 (0xa0b0c0d0e24)
    Signature Algorithm: sha256WithRSAEncryption
        Issuer: CN=OOTYCA_CA, C=IN, O=CITRIX, OU=ANG, ST=KA/emailAddress=OOTYCA_CA@OOTYCA_mail.com
        Validity
            Not Before: Jul  8 04:37:08 2016 GMT
            Not After : Jul  6 04:37:08 2026 GMT
        Subject: ST=KA, C=IN, CN=122_OOTYCA_server/emailAddress=122_OOTYCA@test_ca.com, O=CITRIX
        Subject Public Key Info:
            Public Key Algorithm: rsaEncryption
                Public-Key: (2048 bit)
                Modulus:
                    00:b6:f8:11:e0:30:e6:fb:be:8c:08:02:fd:45:7f:
                    2e:40:7c:f8:35:b5:24:6b:cc:88:b6:a4:33:e6:15:
                    23:78:73:14:fd:a9:4b:6b:cf:c1:7f:ab:ba:64:d4:
                    b0:19:7e:72:68:4c:bb:4f:7a:6e:93:2a:e3:6a:aa:
                    41:2b:e4:1b:a5:2d:e4:3b:01:81:a8:7b:0b:d2:bc:
                    a8:c0:9d:81:c8:88:e8:08:65:5c:d9:74:cc:24:e7:
                    21:86:9a:0d:8a:3f:7e:f3:f4:9f:9a:f4:32:51:a8:
                    02:f1:fa:c6:35:1b:48:95:a9:14:d7:4a:b6:84:48:
                    b3:c5:a9:93:9b:26:55:3b:d6:47:1c:90:a2:92:00:
                    91:17:2b:8d:7e:5f:0e:b6:a2:8c:0b:4e:84:69:84:
                    fe:11:33:ea:3d:e4:8b:47:7e:7f:f6:3f:9a:71:b2:
                    ed:cd:1e:79:c9:18:a3:4c:c5:44:da:f3:6a:ce:b9:
                    0f:fa:0f:fe:96:76:9b:3e:fe:ef:9a:1b:83:4c:9f:
                    ac:b0:2c:51:ab:9d:91:c1:64:7a:5d:36:b4:ee:51:
                    56:5f:f4:cb:c7:b2:65:4c:40:fb:eb:d7:c2:b0:83:
                    ff:58:01:75:77:73:6c:e7:88:c4:9d:34:02:c2:91:
                    b0:d3:04:98:ca:72:58:ce:8e:31:0d:42:a8:19:96:
                    35:61
                Exponent: 65537 (0x10001)
        X509v3 extensions:
            Netscape Cert Type: 
                SSL Server
            X509v3 Subject Key Identifier: 
                B6:75:2D:66:8F:36:1A:53:FB:0D:B6:B3:04:55:DC:89:9F:64:2B:34
            X509v3 Authority Key Identifier: 
                keyid:9E:A0:B1:FE:A8:B8:21:30:13:39:F2:C3:C1:A8:43:CB:5D:73:FC:B5
                DirName:/CN=OOTYCA_CA/C=IN/O=CITRIX/OU=ANG/ST=KA/emailAddress=OOTYCA_CA@OOTYCA_mail.com
                serial:AA:C2:AB:74:21:09:60:FF

            Authority Information Access: 
                OCSP - URI:http://172.25.10.1/responderpath

    Signature Algorithm: sha256WithRSAEncryption
         68:b1:07:00:ff:93:ce:32:b6:8e:ca:a3:dd:ad:81:b2:48:0f:
         dd:cc:b3:ec:67:4d:73:25:cf:11:6d:4c:1b:f5:e9:59:63:2a:
         52:a2:5e:a7:5b:d7:37:4f:9e:7e:30:69:82:b5:d4:5a:ab:ea:
         0c:e0:e3:cd:d0:87:79:8f:65:53:cc:6b:22:2c:14:4f:d7:ca:
         fa:e1:83:61:44:95:00:8f:96:ec:3f:b0:06:30:ff:4c:a7:fe:
         35:64:76:eb:b5:c4:c1:68:d1:02:69:45:45:46:82:e2:eb:05:
         3d:be:12:3c:9e:fc:72:b7:1d:bf:23:4e:52:46:32:bd:f0:bd:
         ad:ea:42:88:9f:e7:4c:2a:1d:2e:16:d6:b0:fd:29:5a:d4:16:
         42:c0:6c:ad:0d:e0:f6:44:9e:4f:03:d8:ce:71:3c:0e:00:bf:
         7c:ce:27:e2:e6:9e:1d:cf:38:5c:4b:9e:47:9e:e9:65:64:2a:
         cf:3b:2f:01:fd:31:ac:a0:75:8c:89:9f:e3:c9:aa:40:c1:99:
         20:72:12:33:cd:25:81:ee:10:04:aa:6e:89:67:33:26:56:28:
         c5:6d:2e:6a:28:c1:58:39:96:16:9a:cd:64:cc:6d:cd:3e:37:
         aa:ca:13:68:96:1e:1d:00:15:dd:e6:b2:1b:85:3d:cb:b9:05:
         66:78:79:a4
-----BEGIN CERTIFICATE-----
MIIEhzCCA2+gAwIBAgIGCgsMDQ4kMA0GCSqGSIb3DQEBCwUAMHcxEjAQBgNVBAMU
CU9PVFlDQV9DQTELMAkGA1UEBhMCSU4xDzANBgNVBAoTBkNJVFJJWDEMMAoGA1UE
CxMDQU5HMQswCQYDVQQIEwJLQTEoMCYGCSqGSIb3DQEJARYZT09UWUNBX0NBQE9P
VFlDQV9tYWlsLmNvbTAeFw0xNjA3MDgwNDM3MDhaFw0yNjA3MDYwNDM3MDhaMG4x
CzAJBgNVBAgTAktBMQswCQYDVQQGEwJJTjEaMBgGA1UEAxQRMTIyX09PVFlDQV9z
ZXJ2ZXIxJTAjBgkqhkiG9w0BCQEWFjEyMl9PT1RZQ0FAdGVzdF9jYS5jb20xDzAN
BgNVBAoTBkNJVFJJWDCCASIwDQYJKoZIhvcNAQEBBQADggEPADCCAQoCggEBALb4
EeAw5vu+jAgC/UV/LkB8+DW1JGvMiLakM+YVI3hzFP2pS2vPwX+rumTUsBl+cmhM
u096bpMq42qqQSvkG6Ut5DsBgah7C9K8qMCdgciI6AhlXNl0zCTnIYaaDYo/fvP0
n5r0MlGoAvH6xjUbSJWpFNdKtoRIs8Wpk5smVTvWRxyQopIAkRcrjX5fDraijAtO
hGmE/hEz6j3ki0d+f/Y/mnGy7c0eeckYo0zFRNrzas65D/oP/pZ2mz7+75obg0yf
rLAsUaudkcFkel02tO5RVl/0y8eyZUxA++vXwrCD/1gBdXdzbOeIxJ00AsKRsNME
mMpyWM6OMQ1CqBmWNWECAwEAAaOCASAwggEcMBEGCWCGSAGG+EIBAQQEAwIGQDAd
BgNVHQ4EFgQUtnUtZo82GlP7DbazBFXciZ9kKzQwgakGA1UdIwSBoTCBnoAUnqCx
/qi4ITATOfLDwahDy11z/LWhe6R5MHcxEjAQBgNVBAMUCU9PVFlDQV9DQTELMAkG
A1UEBhMCSU4xDzANBgNVBAoTBkNJVFJJWDEMMAoGA1UECxMDQU5HMQswCQYDVQQI
EwJLQTEoMCYGCSqGSIb3DQEJARYZT09UWUNBX0NBQE9PVFlDQV9tYWlsLmNvbYIJ
AKrCq3QhCWD/MDwGCCsGAQUFBwEBBDAwLjAsBggrBgEFBQcwAYYgaHR0cDovLzE3
Mi4yNS4xMC4xL3Jlc3BvbmRlcnBhdGgwDQYJKoZIhvcNAQELBQADggEBAGixBwD/
k84yto7Ko92tgbJID93Ms+xnTXMlzxFtTBv16VljKlKiXqdb1zdPnn4waYK11Fqr
6gzg483Qh3mPZVPMayIsFE/Xyvrhg2FElQCPluw/sAYw/0yn/jVkduu1xMFo0QJp
RUVGguLrBT2+Ejye/HK3Hb8jTlJGMr3wva3qQoif50wqHS4W1rD9KVrUFkLAbK0N
4PZEnk8D2M5xPA4Av3zOJ+Lmnh3POFxLnkee6WVkKs87LwH9MaygdYyJn+PJqkDB
mSByEjPNJYHuEASqbolnMyZWKMVtLmoowVg5lhaazWTMbc0+N6rKE2iWHh0AFd3m
shuFPcu5BWZ4eaQ=
-----END CERTIFICATE-----
