Certificate:
    Data:
        Version: 3 (0x2)
        Serial Number: 11042563100197 (0xa0b0c0d0e25)
    Signature Algorithm: sha256WithRSAEncryption
        Issuer: CN=OOTYCA_CA, C=IN, O=CITRIX, OU=ANG, ST=KA/emailAddress=OOTYCA_CA@OOTYCA_mail.com
        Validity
            Not Before: Jul  8 04:37:08 2016 GMT
            Not After : Jul  6 04:37:08 2026 GMT
        Subject: ST=KA, C=IN, CN=123_OOTYCA_server/emailAddress=123_OOTYCA@test_ca.com, O=CITRIX
        Subject Public Key Info:
            Public Key Algorithm: rsaEncryption
                Public-Key: (2048 bit)
                Modulus:
                    00:d3:64:37:ec:6d:ba:f8:2e:c0:7c:07:4f:45:4c:
                    ae:0d:9a:fa:26:4e:d8:2e:c4:69:af:4c:90:73:0e:
                    4b:fa:43:1c:d1:03:50:40:d1:bb:ec:89:94:8d:ee:
                    c4:d1:44:5a:3e:ac:06:7a:6d:e2:53:61:a7:85:81:
                    81:64:51:fb:af:61:67:ac:c8:6a:d5:ee:73:eb:d5:
                    fe:10:a2:fb:93:97:25:fc:5c:66:61:60:4f:69:c7:
                    b8:95:a7:6b:8e:0c:2f:79:d6:0a:99:af:80:31:dd:
                    a1:1d:63:7c:9b:3e:94:ee:9a:eb:68:0b:73:0f:0e:
                    ff:bb:dc:ce:3b:72:88:96:ab:a2:f5:c1:9c:ec:c9:
                    48:ce:bf:4d:97:4e:1d:be:24:be:9c:25:96:58:75:
                    40:ed:b9:70:76:33:24:01:96:f7:ed:fc:cd:df:86:
                    8a:a4:d0:e3:d9:28:cf:3d:df:1b:3e:54:8e:d4:de:
                    84:00:89:9c:34:67:fd:27:a1:3d:cf:17:69:f9:2e:
                    c6:1f:28:0c:8f:8c:9a:bb:97:ee:86:21:2b:3c:71:
                    68:2e:c7:bc:ec:0a:65:90:83:44:80:a3:e4:0a:6b:
                    2b:3b:74:c5:c3:56:87:b6:63:d9:68:03:74:a3:d8:
                    0f:28:46:07:52:0f:20:c6:88:88:a5:b2:c0:71:a5:
                    99:97
                Exponent: 65537 (0x10001)
        X509v3 extensions:
            Netscape Cert Type: 
                SSL Server
            X509v3 Subject Key Identifier: 
                23:D4:DE:05:D1:95:F6:89:DB:D5:31:50:85:61:7A:D2:BE:42:58:BD
            X509v3 Authority Key Identifier: 
                keyid:9E:A0:B1:FE:A8:B8:21:30:13:39:F2:C3:C1:A8:43:CB:5D:73:FC:B5
                DirName:/CN=OOTYCA_CA/C=IN/O=CITRIX/OU=ANG/ST=KA/emailAddress=OOTYCA_CA@OOTYCA_mail.com
                serial:AA:C2:AB:74:21:09:60:FF

            Authority Information Access: 
                OCSP - URI:http://172.25.10.1/responderpath

    Signature Algorithm: sha256WithRSAEncryption
         76:1c:5a:a6:60:4a:70:46:b7:16:27:aa:ef:5c:79:dd:01:31:
         b1:d0:ee:d5:a7:1a:8e:60:b7:50:cd:ca:c0:c8:32:f0:88:89:
         e6:0d:e2:08:5c:48:d1:57:69:cd:8b:74:9c:e4:59:64:91:29:
         f9:20:92:7a:fb:e7:cb:8a:d8:3c:ed:db:df:ae:3e:81:1d:f6:
         64:1b:ad:eb:cb:fe:b5:1c:73:05:53:8a:eb:10:dc:f0:f2:5f:
         b1:f1:a7:2b:12:4f:0f:40:9a:6d:21:1a:48:46:e7:0d:64:7d:
         bc:06:d3:e7:53:84:d8:b0:96:78:cc:67:8a:14:8d:c3:f3:ed:
         79:75:17:e4:c5:e1:5a:22:7a:d0:25:d6:f9:0e:43:0d:e5:46:
         43:b4:4b:64:88:43:cb:14:dc:b1:e3:92:34:a4:be:2d:52:20:
         af:93:b8:fc:d0:81:6b:03:d8:62:64:71:4e:38:6e:2c:a0:14:
         f3:60:52:e7:b7:13:b6:78:1b:16:9f:bc:4a:0e:f7:2b:5c:6e:
         00:c5:c0:e4:d7:42:03:ed:2a:ba:16:1e:0c:97:6a:6b:95:88:
         b7:59:68:a9:fb:53:73:fb:4e:af:ee:f3:a8:06:50:f8:87:de:
         ff:e8:e9:3f:58:fe:2b:3d:79:a0:6b:e6:ae:5e:b9:79:d9:08:
         c4:71:2b:f2
-----BEGIN CERTIFICATE-----
MIIEhzCCA2+gAwIBAgIGCgsMDQ4lMA0GCSqGSIb3DQEBCwUAMHcxEjAQBgNVBAMU
CU9PVFlDQV9DQTELMAkGA1UEBhMCSU4xDzANBgNVBAoTBkNJVFJJWDEMMAoGA1UE
CxMDQU5HMQswCQYDVQQIEwJLQTEoMCYGCSqGSIb3DQEJARYZT09UWUNBX0NBQE9P
VFlDQV9tYWlsLmNvbTAeFw0xNjA3MDgwNDM3MDhaFw0yNjA3MDYwNDM3MDhaMG4x
CzAJBgNVBAgTAktBMQswCQYDVQQGEwJJTjEaMBgGA1UEAxQRMTIzX09PVFlDQV9z
ZXJ2ZXIxJTAjBgkqhkiG9w0BCQEWFjEyM19PT1RZQ0FAdGVzdF9jYS5jb20xDzAN
BgNVBAoTBkNJVFJJWDCCASIwDQYJKoZIhvcNAQEBBQADggEPADCCAQoCggEBANNk
N+xtuvguwHwHT0VMrg2a+iZO2C7Eaa9MkHMOS/pDHNEDUEDRu+yJlI3uxNFEWj6s
Bnpt4lNhp4WBgWRR+69hZ6zIatXuc+vV/hCi+5OXJfxcZmFgT2nHuJWna44ML3nW
CpmvgDHdoR1jfJs+lO6a62gLcw8O/7vczjtyiJarovXBnOzJSM6/TZdOHb4kvpwl
llh1QO25cHYzJAGW9+38zd+GiqTQ49kozz3fGz5UjtTehACJnDRn/SehPc8Xafku
xh8oDI+MmruX7oYhKzxxaC7HvOwKZZCDRICj5AprKzt0xcNWh7Zj2WgDdKPYDyhG
B1IPIMaIiKWywHGlmZcCAwEAAaOCASAwggEcMBEGCWCGSAGG+EIBAQQEAwIGQDAd
BgNVHQ4EFgQUI9TeBdGV9onb1TFQhWF60r5CWL0wgakGA1UdIwSBoTCBnoAUnqCx
/qi4ITATOfLDwahDy11z/LWhe6R5MHcxEjAQBgNVBAMUCU9PVFlDQV9DQTELMAkG
A1UEBhMCSU4xDzANBgNVBAoTBkNJVFJJWDEMMAoGA1UECxMDQU5HMQswCQYDVQQI
EwJLQTEoMCYGCSqGSIb3DQEJARYZT09UWUNBX0NBQE9PVFlDQV9tYWlsLmNvbYIJ
AKrCq3QhCWD/MDwGCCsGAQUFBwEBBDAwLjAsBggrBgEFBQcwAYYgaHR0cDovLzE3
Mi4yNS4xMC4xL3Jlc3BvbmRlcnBhdGgwDQYJKoZIhvcNAQELBQADggEBAHYcWqZg
SnBGtxYnqu9ced0BMbHQ7tWnGo5gt1DNysDIMvCIieYN4ghcSNFXac2LdJzkWWSR
Kfkgknr758uK2Dzt29+uPoEd9mQbrevL/rUccwVTiusQ3PDyX7HxpysSTw9Amm0h
GkhG5w1kfbwG0+dThNiwlnjMZ4oUjcPz7Xl1F+TF4VoietAl1vkOQw3lRkO0S2SI
Q8sU3LHjkjSkvi1SIK+TuPzQgWsD2GJkcU44biygFPNgUue3E7Z4GxafvEoO9ytc
bgDFwOTXQgPtKroWHgyXamuViLdZaKn7U3P7Tq/u86gGUPiH3v/o6T9Y/is9eaBr
5q5euXnZCMRxK/I=
-----END CERTIFICATE-----
