Certificate:
    Data:
        Version: 3 (0x2)
        Serial Number: 11042563100200 (0xa0b0c0d0e28)
    Signature Algorithm: sha256WithRSAEncryption
        Issuer: CN=OOTYCA_CA, C=IN, O=CITRIX, OU=ANG, ST=KA/emailAddress=OOTYCA_CA@OOTYCA_mail.com
        Validity
            Not Before: Jul  8 04:37:09 2016 GMT
            Not After : Jul  6 04:37:09 2026 GMT
        Subject: ST=KA, C=IN, CN=126_OOTYCA_server/emailAddress=126_OOTYCA@test_ca.com, O=CITRIX
        Subject Public Key Info:
            Public Key Algorithm: rsaEncryption
                Public-Key: (2048 bit)
                Modulus:
                    00:c3:27:4d:b5:40:9f:81:e5:d7:a4:f1:66:d3:62:
                    25:0c:b3:91:5c:4f:fa:a9:1d:b0:b0:27:b6:76:81:
                    dc:b3:9d:f8:ad:64:0d:19:e3:e5:58:01:57:26:b9:
                    39:7f:b5:db:9b:a2:68:9b:56:56:96:e0:6b:7f:06:
                    09:ee:d1:c6:56:4e:f0:05:54:37:63:7f:7c:bd:a2:
                    f5:ac:7e:6d:1e:42:00:ce:5a:22:06:97:d0:a5:fe:
                    a7:b0:40:31:16:fb:38:0a:5f:09:e4:cd:f4:c6:bf:
                    34:df:29:72:4d:bd:fc:6c:c6:60:ad:cf:cf:41:41:
                    14:76:19:c3:42:2b:7b:06:56:3c:ab:4b:b8:54:e1:
                    41:d0:64:2d:f7:d8:0c:54:54:5b:db:2d:0b:73:b5:
                    36:28:0e:31:ff:7d:35:ea:cc:39:fd:4b:77:f8:84:
                    5b:65:37:c5:69:aa:8c:6e:69:14:66:38:d4:f7:13:
                    cd:99:3c:a6:76:d0:07:46:17:f3:07:8f:1a:7f:f7:
                    25:9c:d0:85:b0:44:89:dd:a2:86:15:a3:f3:b0:11:
                    6d:27:4f:56:42:c2:29:bf:86:cd:a6:31:c4:f6:88:
                    15:58:77:4e:08:56:1b:ea:db:2a:b6:a4:c5:01:b5:
                    d9:6b:bb:e4:3d:48:9a:5a:85:42:a9:be:7c:d2:03:
                    0c:9b
                Exponent: 65537 (0x10001)
        X509v3 extensions:
            Netscape Cert Type: 
                SSL Server
            X509v3 Subject Key Identifier: 
                11:77:8D:EB:51:5C:BD:FF:0A:78:85:1D:01:16:E3:05:AB:2D:B5:3E
            X509v3 Authority Key Identifier: 
                keyid:9E:A0:B1:FE:A8:B8:21:30:13:39:F2:C3:C1:A8:43:CB:5D:73:FC:B5
                DirName:/CN=OOTYCA_CA/C=IN/O=CITRIX/OU=ANG/ST=KA/emailAddress=OOTYCA_CA@OOTYCA_mail.com
                serial:AA:C2:AB:74:21:09:60:FF

            Authority Information Access: 
                OCSP - URI:http://172.25.10.1/responderpath

    Signature Algorithm: sha256WithRSAEncryption
         4a:5a:f9:8a:3d:e4:0c:50:8e:ab:e7:16:36:ec:3e:67:dc:a7:
         de:92:07:8a:8b:f2:2e:95:0d:05:a5:95:26:ba:58:8b:db:68:
         6a:d5:ba:30:e6:f4:8f:c2:e6:f7:d3:71:b0:eb:ed:7c:fd:a2:
         b3:53:4a:d1:94:83:0a:06:20:7a:9c:9d:86:b2:f0:e8:f9:09:
         35:43:ec:10:ae:43:a3:c5:47:f0:e9:ad:1f:b7:17:14:65:b7:
         89:9d:58:4c:af:c1:01:70:12:1d:64:0d:33:37:a6:a1:38:c3:
         ae:21:be:a0:8b:d1:da:2a:5c:e1:db:ad:05:7b:80:db:36:f6:
         8b:10:8f:16:d4:38:35:3e:65:00:ba:ad:11:ed:81:fa:43:dd:
         35:5d:5e:89:25:5c:c0:20:cf:07:15:c4:0e:95:c0:3e:4e:01:
         9c:13:22:9e:28:7e:b8:e6:b8:2d:f4:63:dd:37:e7:eb:17:af:
         1a:2c:63:91:f5:35:5e:70:7f:4c:bb:96:7e:af:7d:e4:c8:9f:
         c0:af:90:21:b6:a7:67:9b:cc:b4:82:ca:d4:10:ae:80:c2:f0:
         41:41:ba:ed:d1:bc:06:4e:cf:1b:c1:aa:f4:43:9f:4c:c5:3f:
         f2:f7:de:df:72:4f:13:72:6b:56:77:b8:3a:4a:e4:6e:61:99:
         54:3a:18:9d
-----BEGIN CERTIFICATE-----
MIIEhzCCA2+gAwIBAgIGCgsMDQ4oMA0GCSqGSIb3DQEBCwUAMHcxEjAQBgNVBAMU
CU9PVFlDQV9DQTELMAkGA1UEBhMCSU4xDzANBgNVBAoTBkNJVFJJWDEMMAoGA1UE
CxMDQU5HMQswCQYDVQQIEwJLQTEoMCYGCSqGSIb3DQEJARYZT09UWUNBX0NBQE9P
VFlDQV9tYWlsLmNvbTAeFw0xNjA3MDgwNDM3MDlaFw0yNjA3MDYwNDM3MDlaMG4x
CzAJBgNVBAgTAktBMQswCQYDVQQGEwJJTjEaMBgGA1UEAxQRMTI2X09PVFlDQV9z
ZXJ2ZXIxJTAjBgkqhkiG9w0BCQEWFjEyNl9PT1RZQ0FAdGVzdF9jYS5jb20xDzAN
BgNVBAoTBkNJVFJJWDCCASIwDQYJKoZIhvcNAQEBBQADggEPADCCAQoCggEBAMMn
TbVAn4Hl16TxZtNiJQyzkVxP+qkdsLAntnaB3LOd+K1kDRnj5VgBVya5OX+125ui
aJtWVpbga38GCe7RxlZO8AVUN2N/fL2i9ax+bR5CAM5aIgaX0KX+p7BAMRb7OApf
CeTN9Ma/NN8pck29/GzGYK3Pz0FBFHYZw0IrewZWPKtLuFThQdBkLffYDFRUW9st
C3O1NigOMf99NerMOf1Ld/iEW2U3xWmqjG5pFGY41PcTzZk8pnbQB0YX8wePGn/3
JZzQhbBEid2ihhWj87ARbSdPVkLCKb+GzaYxxPaIFVh3TghWG+rbKrakxQG12Wu7
5D1ImlqFQqm+fNIDDJsCAwEAAaOCASAwggEcMBEGCWCGSAGG+EIBAQQEAwIGQDAd
BgNVHQ4EFgQUEXeN61Fcvf8KeIUdARbjBasttT4wgakGA1UdIwSBoTCBnoAUnqCx
/qi4ITATOfLDwahDy11z/LWhe6R5MHcxEjAQBgNVBAMUCU9PVFlDQV9DQTELMAkG
A1UEBhMCSU4xDzANBgNVBAoTBkNJVFJJWDEMMAoGA1UECxMDQU5HMQswCQYDVQQI
EwJLQTEoMCYGCSqGSIb3DQEJARYZT09UWUNBX0NBQE9PVFlDQV9tYWlsLmNvbYIJ
AKrCq3QhCWD/MDwGCCsGAQUFBwEBBDAwLjAsBggrBgEFBQcwAYYgaHR0cDovLzE3
Mi4yNS4xMC4xL3Jlc3BvbmRlcnBhdGgwDQYJKoZIhvcNAQELBQADggEBAEpa+Yo9
5AxQjqvnFjbsPmfcp96SB4qL8i6VDQWllSa6WIvbaGrVujDm9I/C5vfTcbDr7Xz9
orNTStGUgwoGIHqcnYay8Oj5CTVD7BCuQ6PFR/DprR+3FxRlt4mdWEyvwQFwEh1k
DTM3pqE4w64hvqCL0doqXOHbrQV7gNs29osQjxbUODU+ZQC6rRHtgfpD3TVdXokl
XMAgzwcVxA6VwD5OAZwTIp4ofrjmuC30Y9035+sXrxosY5H1NV5wf0y7ln6vfeTI
n8CvkCG2p2ebzLSCytQQroDC8EFBuu3RvAZOzxvBqvRDn0zFP/L33t9yTxNya1Z3
uDpK5G5hmVQ6GJ0=
-----END CERTIFICATE-----
