Certificate:
    Data:
        Version: 3 (0x2)
        Serial Number: 11042563100202 (0xa0b0c0d0e2a)
    Signature Algorithm: sha256WithRSAEncryption
        Issuer: CN=OOTYCA_CA, C=IN, O=CITRIX, OU=ANG, ST=KA/emailAddress=OOTYCA_CA@OOTYCA_mail.com
        Validity
            Not Before: Jul  8 04:37:10 2016 GMT
            Not After : Jul  6 04:37:10 2026 GMT
        Subject: ST=KA, C=IN, CN=128_OOTYCA_server/emailAddress=128_OOTYCA@test_ca.com, O=CITRIX
        Subject Public Key Info:
            Public Key Algorithm: rsaEncryption
                Public-Key: (2048 bit)
                Modulus:
                    00:9f:8e:b9:d4:f4:f1:a8:0b:39:4d:c2:f4:75:5d:
                    55:e9:13:ea:49:11:fc:8e:ed:71:c6:48:9b:ae:14:
                    1f:bc:1b:28:ae:93:92:e1:f9:64:c2:a7:7a:6c:1b:
                    b4:cb:4b:10:44:ab:5f:53:aa:a4:94:84:62:77:2d:
                    55:df:df:d4:fb:af:89:5e:3d:79:77:98:f2:c5:e5:
                    64:4c:9a:cb:72:24:5d:5d:4f:12:38:e7:85:23:2c:
                    54:10:a9:95:9d:c8:f0:de:d7:13:18:d9:0e:3f:b2:
                    dc:f7:89:04:4a:eb:e6:75:3c:14:24:25:08:d1:7a:
                    fd:a1:af:14:74:3d:bd:e5:16:0a:71:0a:2e:9a:b7:
                    41:5d:31:f0:87:d5:51:73:e8:95:13:21:72:15:54:
                    16:7c:f6:19:50:3e:18:38:2e:fc:98:95:92:36:b8:
                    b3:a4:7f:d6:f5:ca:83:84:1c:e0:15:b8:4b:1d:d1:
                    ce:68:d3:a6:d2:52:18:b6:a7:52:bd:30:c2:e2:9e:
                    de:08:b7:be:19:74:42:94:db:99:43:ae:00:0b:fd:
                    4a:d4:e8:fb:b8:24:84:79:17:bf:e7:fd:5a:d8:a5:
                    32:f6:04:e0:7c:86:2d:27:eb:2a:f9:b8:c4:2e:58:
                    13:65:bf:83:ed:4a:e7:42:b0:cb:f6:a1:72:4a:3d:
                    fa:69
                Exponent: 65537 (0x10001)
        X509v3 extensions:
            Netscape Cert Type: 
                SSL Server
            X509v3 Subject Key Identifier: 
                E3:0F:E4:E4:90:CF:27:A1:24:A0:47:81:F7:08:1B:A2:37:0A:F6:09
            X509v3 Authority Key Identifier: 
                keyid:9E:A0:B1:FE:A8:B8:21:30:13:39:F2:C3:C1:A8:43:CB:5D:73:FC:B5
                DirName:/CN=OOTYCA_CA/C=IN/O=CITRIX/OU=ANG/ST=KA/emailAddress=OOTYCA_CA@OOTYCA_mail.com
                serial:AA:C2:AB:74:21:09:60:FF

            Authority Information Access: 
                OCSP - URI:http://172.25.10.1/responderpath

    Signature Algorithm: sha256WithRSAEncryption
         7d:62:ab:8c:53:38:89:b5:47:68:83:6d:7f:d2:c3:a1:df:86:
         75:54:d5:51:3f:08:1c:16:4d:fe:0e:0a:6e:77:1a:be:c3:0e:
         f0:90:58:ee:70:a1:15:3c:61:ae:14:fc:25:da:bb:94:db:cd:
         07:3f:5d:c5:e8:fd:ee:a8:8c:c8:27:17:25:08:fc:df:6f:24:
         c6:47:1f:91:4c:be:a5:f6:97:d9:80:88:66:8d:4f:26:9d:05:
         eb:ba:d8:7b:96:7e:b5:3c:df:eb:16:cc:64:30:b3:3a:a5:3e:
         e5:d9:d1:95:31:9f:b4:e8:1a:65:d3:ff:70:2d:40:f8:dc:5c:
         d7:2b:06:bd:84:c8:33:70:78:91:3a:32:ff:3e:d0:b5:b5:2b:
         76:57:df:98:32:a0:a1:e6:71:36:b5:00:37:8c:fd:1b:39:c4:
         ce:b0:6e:83:fe:23:94:2f:5a:11:2f:0f:ed:bf:e9:4f:84:d9:
         d1:9e:bb:be:d6:c4:3d:ee:6a:db:49:c1:32:1a:5e:55:09:6f:
         03:da:81:06:7b:e4:6c:4e:7b:5c:74:a4:b3:ce:cd:cc:b2:91:
         0c:ea:b5:d6:6f:52:da:94:b4:da:22:7e:ee:64:21:ed:3e:c7:
         96:8d:5a:c5:db:a7:7f:1c:8e:6e:ab:b4:e0:d8:3b:5e:24:e2:
         99:d1:46:53
-----BEGIN CERTIFICATE-----
MIIEhzCCA2+gAwIBAgIGCgsMDQ4qMA0GCSqGSIb3DQEBCwUAMHcxEjAQBgNVBAMU
CU9PVFlDQV9DQTELMAkGA1UEBhMCSU4xDzANBgNVBAoTBkNJVFJJWDEMMAoGA1UE
CxMDQU5HMQswCQYDVQQIEwJLQTEoMCYGCSqGSIb3DQEJARYZT09UWUNBX0NBQE9P
VFlDQV9tYWlsLmNvbTAeFw0xNjA3MDgwNDM3MTBaFw0yNjA3MDYwNDM3MTBaMG4x
CzAJBgNVBAgTAktBMQswCQYDVQQGEwJJTjEaMBgGA1UEAxQRMTI4X09PVFlDQV9z
ZXJ2ZXIxJTAjBgkqhkiG9w0BCQEWFjEyOF9PT1RZQ0FAdGVzdF9jYS5jb20xDzAN
BgNVBAoTBkNJVFJJWDCCASIwDQYJKoZIhvcNAQEBBQADggEPADCCAQoCggEBAJ+O
udT08agLOU3C9HVdVekT6kkR/I7tccZIm64UH7wbKK6TkuH5ZMKnemwbtMtLEESr
X1OqpJSEYnctVd/f1PuviV49eXeY8sXlZEyay3IkXV1PEjjnhSMsVBCplZ3I8N7X
ExjZDj+y3PeJBErr5nU8FCQlCNF6/aGvFHQ9veUWCnEKLpq3QV0x8IfVUXPolRMh
chVUFnz2GVA+GDgu/JiVkja4s6R/1vXKg4Qc4BW4Sx3RzmjTptJSGLanUr0wwuKe
3gi3vhl0QpTbmUOuAAv9StTo+7gkhHkXv+f9WtilMvYE4HyGLSfrKvm4xC5YE2W/
g+1K50Kwy/ahcko9+mkCAwEAAaOCASAwggEcMBEGCWCGSAGG+EIBAQQEAwIGQDAd
BgNVHQ4EFgQU4w/k5JDPJ6EkoEeB9wgbojcK9gkwgakGA1UdIwSBoTCBnoAUnqCx
/qi4ITATOfLDwahDy11z/LWhe6R5MHcxEjAQBgNVBAMUCU9PVFlDQV9DQTELMAkG
A1UEBhMCSU4xDzANBgNVBAoTBkNJVFJJWDEMMAoGA1UECxMDQU5HMQswCQYDVQQI
EwJLQTEoMCYGCSqGSIb3DQEJARYZT09UWUNBX0NBQE9PVFlDQV9tYWlsLmNvbYIJ
AKrCq3QhCWD/MDwGCCsGAQUFBwEBBDAwLjAsBggrBgEFBQcwAYYgaHR0cDovLzE3
Mi4yNS4xMC4xL3Jlc3BvbmRlcnBhdGgwDQYJKoZIhvcNAQELBQADggEBAH1iq4xT
OIm1R2iDbX/Sw6HfhnVU1VE/CBwWTf4OCm53Gr7DDvCQWO5woRU8Ya4U/CXau5Tb
zQc/XcXo/e6ojMgnFyUI/N9vJMZHH5FMvqX2l9mAiGaNTyadBeu62HuWfrU83+sW
zGQwszqlPuXZ0ZUxn7ToGmXT/3AtQPjcXNcrBr2EyDNweJE6Mv8+0LW1K3ZX35gy
oKHmcTa1ADeM/Rs5xM6wboP+I5QvWhEvD+2/6U+E2dGeu77WxD3uattJwTIaXlUJ
bwPagQZ75GxOe1x0pLPOzcyykQzqtdZvUtqUtNoifu5kIe0+x5aNWsXbp38cjm6r
tODYO14k4pnRRlM=
-----END CERTIFICATE-----
