Certificate:
    Data:
        Version: 3 (0x2)
        Serial Number: 11042563100205 (0xa0b0c0d0e2d)
    Signature Algorithm: sha256WithRSAEncryption
        Issuer: CN=OOTYCA_CA, C=IN, O=CITRIX, OU=ANG, ST=KA/emailAddress=OOTYCA_CA@OOTYCA_mail.com
        Validity
            Not Before: Jul  8 04:37:11 2016 GMT
            Not After : Jul  6 04:37:11 2026 GMT
        Subject: ST=KA, C=IN, CN=131_OOTYCA_server/emailAddress=131_OOTYCA@test_ca.com, O=CITRIX
        Subject Public Key Info:
            Public Key Algorithm: rsaEncryption
                Public-Key: (2048 bit)
                Modulus:
                    00:e1:2c:d7:a1:08:62:4e:02:f5:ae:35:42:72:07:
                    f3:e0:2a:a3:5c:b9:0b:f4:14:cf:66:bc:40:36:b2:
                    f2:74:01:f6:08:0a:24:77:ac:36:c6:ad:67:02:40:
                    6f:cb:9a:16:3c:07:a9:34:d7:4e:5b:99:81:5b:9c:
                    5d:0b:85:1a:e5:bf:64:20:17:62:da:81:85:70:09:
                    30:97:2d:b4:5e:c5:42:cc:dd:ec:0c:c2:5f:6e:d5:
                    09:9c:4f:18:bc:49:f5:5b:09:db:a9:82:53:5e:af:
                    95:2c:14:8b:dd:98:31:cc:c4:b4:5c:a2:bb:34:f1:
                    57:d3:c6:07:d0:be:bd:66:ec:23:7e:3e:e5:15:32:
                    3d:7c:90:30:2b:19:b5:31:fb:ab:35:fe:25:b6:50:
                    90:e5:29:46:df:cd:b9:8a:0e:de:cf:fb:3f:60:5b:
                    06:75:9f:55:41:21:9c:79:cb:19:c1:a8:d6:3b:0e:
                    a2:c5:c0:cc:04:fa:cc:bb:d6:ff:5a:ce:b7:bf:22:
                    1b:85:a0:7c:86:9b:18:3c:52:ae:b3:58:dd:13:59:
                    3b:29:45:00:46:76:e4:ac:4d:e7:77:fc:4b:0a:54:
                    e0:c9:d1:cc:9c:13:33:b0:ac:60:34:f1:f4:82:7a:
                    8a:89:5d:09:b0:fb:f2:2d:5b:03:9c:68:89:09:a3:
                    6e:c3
                Exponent: 65537 (0x10001)
        X509v3 extensions:
            Netscape Cert Type: 
                SSL Server
            X509v3 Subject Key Identifier: 
                C1:D0:A7:1E:E6:05:F5:25:BA:59:09:B4:0B:F5:B0:BF:B4:EE:1F:E5
            X509v3 Authority Key Identifier: 
                keyid:9E:A0:B1:FE:A8:B8:21:30:13:39:F2:C3:C1:A8:43:CB:5D:73:FC:B5
                DirName:/CN=OOTYCA_CA/C=IN/O=CITRIX/OU=ANG/ST=KA/emailAddress=OOTYCA_CA@OOTYCA_mail.com
                serial:AA:C2:AB:74:21:09:60:FF

            Authority Information Access: 
                OCSP - URI:http://172.25.20.1/responderpath

    Signature Algorithm: sha256WithRSAEncryption
         3d:5c:05:2f:25:cf:8b:f1:65:4b:a1:da:4c:6f:a1:a0:c3:e6:
         48:52:4d:97:fa:be:c8:b9:6c:3c:ba:05:07:a6:92:aa:81:6a:
         b8:5c:e3:24:74:11:4e:df:1b:7e:ca:f6:c0:ba:14:24:83:18:
         42:71:2c:6f:12:90:c0:e7:00:b7:a6:62:93:29:d9:c6:4f:65:
         27:bf:43:f8:dc:2e:2b:0c:c3:c5:45:5c:e6:09:1b:d3:2e:b6:
         e9:15:2e:5b:09:1c:a6:0d:a4:b9:f7:ff:21:a2:70:21:a1:32:
         0b:c3:53:9b:a8:7d:a4:e4:8c:35:5e:21:b9:db:e8:a7:88:ab:
         36:61:a5:d7:23:c7:b2:67:bb:87:e8:77:07:14:07:a1:db:25:
         f1:1a:82:d0:37:64:c9:dd:43:3a:b0:4a:87:1e:66:25:ea:0c:
         17:c5:0a:d0:71:cc:69:0d:79:19:7a:ee:d2:f5:60:5d:de:5c:
         77:a7:35:b8:54:97:30:ab:75:e3:e8:e3:bf:85:c8:f0:ee:94:
         32:b1:25:ea:ab:13:de:25:5d:2e:ef:6c:3e:89:14:bb:83:8d:
         19:ca:73:35:5b:c7:5a:52:22:b6:07:8d:6f:97:1c:1e:42:2e:
         cf:c6:68:52:c0:f8:8c:3b:14:46:0b:21:bd:82:8c:b1:a1:7a:
         07:b0:b2:03
-----BEGIN CERTIFICATE-----
MIIEhzCCA2+gAwIBAgIGCgsMDQ4tMA0GCSqGSIb3DQEBCwUAMHcxEjAQBgNVBAMU
CU9PVFlDQV9DQTELMAkGA1UEBhMCSU4xDzANBgNVBAoTBkNJVFJJWDEMMAoGA1UE
CxMDQU5HMQswCQYDVQQIEwJLQTEoMCYGCSqGSIb3DQEJARYZT09UWUNBX0NBQE9P
VFlDQV9tYWlsLmNvbTAeFw0xNjA3MDgwNDM3MTFaFw0yNjA3MDYwNDM3MTFaMG4x
CzAJBgNVBAgTAktBMQswCQYDVQQGEwJJTjEaMBgGA1UEAxQRMTMxX09PVFlDQV9z
ZXJ2ZXIxJTAjBgkqhkiG9w0BCQEWFjEzMV9PT1RZQ0FAdGVzdF9jYS5jb20xDzAN
BgNVBAoTBkNJVFJJWDCCASIwDQYJKoZIhvcNAQEBBQADggEPADCCAQoCggEBAOEs
16EIYk4C9a41QnIH8+Aqo1y5C/QUz2a8QDay8nQB9ggKJHesNsatZwJAb8uaFjwH
qTTXTluZgVucXQuFGuW/ZCAXYtqBhXAJMJcttF7FQszd7AzCX27VCZxPGLxJ9VsJ
26mCU16vlSwUi92YMczEtFyiuzTxV9PGB9C+vWbsI34+5RUyPXyQMCsZtTH7qzX+
JbZQkOUpRt/NuYoO3s/7P2BbBnWfVUEhnHnLGcGo1jsOosXAzAT6zLvW/1rOt78i
G4WgfIabGDxSrrNY3RNZOylFAEZ25KxN53f8SwpU4MnRzJwTM7CsYDTx9IJ6iold
CbD78i1bA5xoiQmjbsMCAwEAAaOCASAwggEcMBEGCWCGSAGG+EIBAQQEAwIGQDAd
BgNVHQ4EFgQUwdCnHuYF9SW6WQm0C/Wwv7TuH+UwgakGA1UdIwSBoTCBnoAUnqCx
/qi4ITATOfLDwahDy11z/LWhe6R5MHcxEjAQBgNVBAMUCU9PVFlDQV9DQTELMAkG
A1UEBhMCSU4xDzANBgNVBAoTBkNJVFJJWDEMMAoGA1UECxMDQU5HMQswCQYDVQQI
EwJLQTEoMCYGCSqGSIb3DQEJARYZT09UWUNBX0NBQE9PVFlDQV9tYWlsLmNvbYIJ
AKrCq3QhCWD/MDwGCCsGAQUFBwEBBDAwLjAsBggrBgEFBQcwAYYgaHR0cDovLzE3
Mi4yNS4yMC4xL3Jlc3BvbmRlcnBhdGgwDQYJKoZIhvcNAQELBQADggEBAD1cBS8l
z4vxZUuh2kxvoaDD5khSTZf6vsi5bDy6BQemkqqBarhc4yR0EU7fG37K9sC6FCSD
GEJxLG8SkMDnALemYpMp2cZPZSe/Q/jcLisMw8VFXOYJG9MutukVLlsJHKYNpLn3
/yGicCGhMgvDU5uofaTkjDVeIbnb6KeIqzZhpdcjx7Jnu4fodwcUB6HbJfEagtA3
ZMndQzqwSoceZiXqDBfFCtBxzGkNeRl67tL1YF3eXHenNbhUlzCrdePo47+FyPDu
lDKxJeqrE94lXS7vbD6JFLuDjRnKczVbx1pSIrYHjW+XHB5CLs/GaFLA+Iw7FEYL
Ib2CjLGhegewsgM=
-----END CERTIFICATE-----
