Certificate:
    Data:
        Version: 3 (0x2)
        Serial Number: 11042563100208 (0xa0b0c0d0e30)
    Signature Algorithm: sha256WithRSAEncryption
        Issuer: CN=OOTYCA_CA, C=IN, O=CITRIX, OU=ANG, ST=KA/emailAddress=OOTYCA_CA@OOTYCA_mail.com
        Validity
            Not Before: Jul  8 04:37:12 2016 GMT
            Not After : Jul  6 04:37:12 2026 GMT
        Subject: ST=KA, C=IN, CN=134_OOTYCA_server/emailAddress=134_OOTYCA@test_ca.com, O=CITRIX
        Subject Public Key Info:
            Public Key Algorithm: rsaEncryption
                Public-Key: (2048 bit)
                Modulus:
                    00:b0:da:25:14:be:88:78:20:40:6f:fd:31:6c:23:
                    a3:72:bb:f5:58:56:27:a9:83:e3:16:0a:5b:46:5c:
                    1e:1b:09:51:73:59:5b:72:e0:df:84:83:a3:79:06:
                    55:07:b4:1e:64:0b:9a:0b:b6:db:45:f9:5b:f1:6e:
                    e1:d6:05:20:ec:e3:7d:96:5a:0d:06:12:83:bd:36:
                    fd:7c:6c:20:93:0c:80:6f:c3:73:27:7d:68:3d:a9:
                    e3:d1:40:5d:7a:d9:2b:d7:ad:8b:f7:04:be:b0:82:
                    83:fb:89:87:33:0e:eb:26:82:8e:30:16:13:4e:7a:
                    fb:d0:80:5f:f7:ee:92:c8:07:b8:81:ab:85:ce:98:
                    66:e6:de:fc:78:7e:f0:cc:96:3f:ba:51:7e:e3:5c:
                    26:47:5b:17:00:0d:ff:7c:01:c9:09:75:6b:1c:88:
                    41:a6:f6:bf:b5:5f:9b:98:7b:e5:52:f2:6f:05:9c:
                    e7:de:fa:9f:df:93:6c:dc:32:76:ef:ae:7c:3c:52:
                    bb:5b:3c:9b:03:e7:62:91:d9:53:a5:f8:a0:9d:cd:
                    db:94:b4:f7:c1:1c:9e:82:c6:cb:f5:fb:97:1a:d6:
                    76:81:91:cb:c3:04:72:cf:77:f3:d2:79:fe:ee:a1:
                    d2:1e:c8:a7:19:79:b9:d2:11:69:a2:af:fa:ea:9c:
                    f5:09
                Exponent: 65537 (0x10001)
        X509v3 extensions:
            Netscape Cert Type: 
                SSL Server
            X509v3 Subject Key Identifier: 
                8A:EB:AD:9C:E0:9E:4A:12:D5:61:8C:2A:5D:92:1D:88:7C:3E:02:18
            X509v3 Authority Key Identifier: 
                keyid:9E:A0:B1:FE:A8:B8:21:30:13:39:F2:C3:C1:A8:43:CB:5D:73:FC:B5
                DirName:/CN=OOTYCA_CA/C=IN/O=CITRIX/OU=ANG/ST=KA/emailAddress=OOTYCA_CA@OOTYCA_mail.com
                serial:AA:C2:AB:74:21:09:60:FF

            Authority Information Access: 
                OCSP - URI:http://172.25.20.1/responderpath

    Signature Algorithm: sha256WithRSAEncryption
         76:e7:a9:b5:9a:ed:19:71:32:1e:d3:4d:1a:d1:a4:57:00:2c:
         09:fd:b3:88:62:da:e5:57:d5:06:84:8d:e6:27:5f:07:39:9b:
         ae:4b:82:94:cb:c3:bb:8f:64:5c:35:1f:de:c8:9f:7b:68:42:
         c4:48:27:51:df:cb:d1:29:33:47:2b:a9:55:32:4a:6f:7c:ab:
         26:7b:42:2c:99:5b:4b:ad:9c:03:4a:42:2d:66:32:5b:30:66:
         c0:b0:4b:a9:4f:18:cf:8e:07:36:3a:2f:7b:ab:df:72:78:64:
         31:da:54:9c:ae:ad:4f:bc:7a:db:50:0c:90:1b:12:aa:80:d4:
         2a:b9:61:0f:a5:b8:f3:13:a8:9b:05:1b:8f:19:e3:29:44:c5:
         17:43:69:c9:f8:7d:f6:78:f5:8b:58:6c:86:d3:17:6f:d3:36:
         eb:c9:04:74:2b:20:3c:1e:2f:c1:4a:e5:1f:aa:03:49:a8:47:
         97:1e:39:77:3b:ac:40:cd:f0:9f:65:9b:4c:cb:f1:2d:14:16:
         ec:4f:41:d8:c5:21:9b:55:e3:22:fe:2a:00:e8:f0:d3:10:81:
         71:a1:72:ac:8f:4e:25:62:92:64:79:13:3f:b2:33:72:70:3a:
         52:04:10:88:c5:4f:3f:d4:84:bf:29:75:d1:05:ba:7c:21:a9:
         71:f3:b9:c3
-----BEGIN CERTIFICATE-----
MIIEhzCCA2+gAwIBAgIGCgsMDQ4wMA0GCSqGSIb3DQEBCwUAMHcxEjAQBgNVBAMU
CU9PVFlDQV9DQTELMAkGA1UEBhMCSU4xDzANBgNVBAoTBkNJVFJJWDEMMAoGA1UE
CxMDQU5HMQswCQYDVQQIEwJLQTEoMCYGCSqGSIb3DQEJARYZT09UWUNBX0NBQE9P
VFlDQV9tYWlsLmNvbTAeFw0xNjA3MDgwNDM3MTJaFw0yNjA3MDYwNDM3MTJaMG4x
CzAJBgNVBAgTAktBMQswCQYDVQQGEwJJTjEaMBgGA1UEAxQRMTM0X09PVFlDQV9z
ZXJ2ZXIxJTAjBgkqhkiG9w0BCQEWFjEzNF9PT1RZQ0FAdGVzdF9jYS5jb20xDzAN
BgNVBAoTBkNJVFJJWDCCASIwDQYJKoZIhvcNAQEBBQADggEPADCCAQoCggEBALDa
JRS+iHggQG/9MWwjo3K79VhWJ6mD4xYKW0ZcHhsJUXNZW3Lg34SDo3kGVQe0HmQL
mgu220X5W/Fu4dYFIOzjfZZaDQYSg702/XxsIJMMgG/Dcyd9aD2p49FAXXrZK9et
i/cEvrCCg/uJhzMO6yaCjjAWE056+9CAX/fuksgHuIGrhc6YZube/Hh+8MyWP7pR
fuNcJkdbFwAN/3wByQl1axyIQab2v7Vfm5h75VLybwWc5976n9+TbNwydu+ufDxS
u1s8mwPnYpHZU6X4oJ3N25S098EcnoLGy/X7lxrWdoGRy8MEcs9389J5/u6h0h7I
pxl5udIRaaKv+uqc9QkCAwEAAaOCASAwggEcMBEGCWCGSAGG+EIBAQQEAwIGQDAd
BgNVHQ4EFgQUiuutnOCeShLVYYwqXZIdiHw+AhgwgakGA1UdIwSBoTCBnoAUnqCx
/qi4ITATOfLDwahDy11z/LWhe6R5MHcxEjAQBgNVBAMUCU9PVFlDQV9DQTELMAkG
A1UEBhMCSU4xDzANBgNVBAoTBkNJVFJJWDEMMAoGA1UECxMDQU5HMQswCQYDVQQI
EwJLQTEoMCYGCSqGSIb3DQEJARYZT09UWUNBX0NBQE9PVFlDQV9tYWlsLmNvbYIJ
AKrCq3QhCWD/MDwGCCsGAQUFBwEBBDAwLjAsBggrBgEFBQcwAYYgaHR0cDovLzE3
Mi4yNS4yMC4xL3Jlc3BvbmRlcnBhdGgwDQYJKoZIhvcNAQELBQADggEBAHbnqbWa
7RlxMh7TTRrRpFcALAn9s4hi2uVX1QaEjeYnXwc5m65LgpTLw7uPZFw1H97In3to
QsRIJ1Hfy9EpM0crqVUySm98qyZ7QiyZW0utnANKQi1mMlswZsCwS6lPGM+OBzY6
L3ur33J4ZDHaVJyurU+8ettQDJAbEqqA1Cq5YQ+luPMTqJsFG48Z4ylExRdDacn4
ffZ49YtYbIbTF2/TNuvJBHQrIDweL8FK5R+qA0moR5ceOXc7rEDN8J9lm0zL8S0U
FuxPQdjFIZtV4yL+KgDo8NMQgXGhcqyPTiVikmR5Ez+yM3JwOlIEEIjFTz/UhL8p
ddEFunwhqXHzucM=
-----END CERTIFICATE-----
