Certificate:
    Data:
        Version: 3 (0x2)
        Serial Number: 11042563100211 (0xa0b0c0d0e33)
    Signature Algorithm: sha256WithRSAEncryption
        Issuer: CN=OOTYCA_CA, C=IN, O=CITRIX, OU=ANG, ST=KA/emailAddress=OOTYCA_CA@OOTYCA_mail.com
        Validity
            Not Before: Jul  8 04:37:12 2016 GMT
            Not After : Jul  6 04:37:12 2026 GMT
        Subject: ST=KA, C=IN, CN=137_OOTYCA_server/emailAddress=137_OOTYCA@test_ca.com, O=CITRIX
        Subject Public Key Info:
            Public Key Algorithm: rsaEncryption
                Public-Key: (2048 bit)
                Modulus:
                    00:b7:22:e2:e3:fb:c9:ad:1e:bb:73:56:a2:e5:b9:
                    16:00:31:0f:3d:39:2e:24:f7:93:aa:d5:ec:f0:90:
                    56:09:dc:44:fd:bb:63:82:56:72:f6:33:da:5c:66:
                    20:06:76:cb:9e:3c:b6:b7:4e:2f:8e:5f:e7:61:71:
                    2c:34:4f:a4:8a:3d:01:f1:85:95:a6:ab:3f:61:06:
                    81:96:f2:92:8d:60:e4:c6:bc:74:78:53:5b:2c:35:
                    a0:6e:48:96:68:ea:eb:dd:e2:dc:2b:31:fa:46:ab:
                    41:eb:d2:92:1a:86:dc:73:9c:21:a0:91:cd:8c:5f:
                    66:b2:a3:44:9f:72:a7:51:ab:ee:f4:0b:c4:3e:20:
                    d0:52:62:aa:e4:67:8b:99:83:81:ec:2d:f6:33:51:
                    be:dd:92:27:79:34:49:ea:c0:dd:b8:4c:46:10:28:
                    1a:c0:f8:51:c8:6a:26:ef:9d:23:53:29:ee:fc:d3:
                    51:53:12:04:4d:7f:e4:6b:13:d1:7d:63:ba:33:63:
                    98:81:8a:c6:a9:b9:46:99:3d:dc:57:4b:c8:c3:06:
                    1d:38:5c:63:04:11:7c:b7:e9:b2:ec:27:8f:13:45:
                    73:19:3c:c7:bc:cc:4b:6d:ff:77:82:a5:39:3b:da:
                    0e:8b:b9:62:21:6e:3c:07:08:1b:c0:5c:b6:75:41:
                    77:31
                Exponent: 65537 (0x10001)
        X509v3 extensions:
            Netscape Cert Type: 
                SSL Server
            X509v3 Subject Key Identifier: 
                15:85:F7:E7:30:E1:18:A9:9D:6E:7B:00:B5:1F:98:1B:91:B9:0B:A9
            X509v3 Authority Key Identifier: 
                keyid:9E:A0:B1:FE:A8:B8:21:30:13:39:F2:C3:C1:A8:43:CB:5D:73:FC:B5
                DirName:/CN=OOTYCA_CA/C=IN/O=CITRIX/OU=ANG/ST=KA/emailAddress=OOTYCA_CA@OOTYCA_mail.com
                serial:AA:C2:AB:74:21:09:60:FF

            Authority Information Access: 
                OCSP - URI:http://172.25.20.1/responderpath

    Signature Algorithm: sha256WithRSAEncryption
         3a:c8:af:47:95:f1:51:88:93:12:dd:fb:d5:e7:81:74:de:99:
         fe:04:3d:5c:e1:8a:94:4d:34:2e:d5:a8:15:48:ec:21:b6:0d:
         f4:03:46:7d:5c:76:bd:46:6d:3a:5d:7b:28:31:2a:f3:dc:f7:
         76:8e:74:8e:76:72:0a:11:22:74:0d:fd:9d:bd:99:c0:91:ec:
         88:63:b7:ff:ca:7f:56:86:0d:c2:85:e2:32:bc:b8:51:ab:da:
         ed:22:5a:b0:6e:ed:45:a0:da:65:fe:91:6a:02:44:23:4b:6e:
         36:3b:2e:93:bf:33:0a:b5:08:d3:19:97:ce:4f:5a:4a:87:3c:
         d8:05:13:c1:bd:68:56:b9:67:be:ef:07:60:ea:a6:bf:17:e1:
         b0:1f:4e:51:e6:55:82:7c:11:a8:e9:1f:d0:e8:e6:ef:ba:30:
         ae:09:a9:13:86:ad:43:41:b0:36:23:e7:61:60:d0:c2:a9:1a:
         f6:5a:e1:e8:15:a5:be:5f:8c:c6:e2:7f:8d:b4:4c:a4:c0:2f:
         5e:ea:fd:2f:94:6e:79:bc:bb:a1:64:de:6a:63:5a:91:fd:8c:
         92:39:27:82:a0:d5:8c:a4:aa:2a:99:8b:19:81:47:9f:df:a8:
         21:17:ee:d6:97:f7:dc:6e:ad:40:27:f9:93:04:8d:e3:46:bb:
         94:5a:da:fd
-----BEGIN CERTIFICATE-----
MIIEhzCCA2+gAwIBAgIGCgsMDQ4zMA0GCSqGSIb3DQEBCwUAMHcxEjAQBgNVBAMU
CU9PVFlDQV9DQTELMAkGA1UEBhMCSU4xDzANBgNVBAoTBkNJVFJJWDEMMAoGA1UE
CxMDQU5HMQswCQYDVQQIEwJLQTEoMCYGCSqGSIb3DQEJARYZT09UWUNBX0NBQE9P
VFlDQV9tYWlsLmNvbTAeFw0xNjA3MDgwNDM3MTJaFw0yNjA3MDYwNDM3MTJaMG4x
CzAJBgNVBAgTAktBMQswCQYDVQQGEwJJTjEaMBgGA1UEAxQRMTM3X09PVFlDQV9z
ZXJ2ZXIxJTAjBgkqhkiG9w0BCQEWFjEzN19PT1RZQ0FAdGVzdF9jYS5jb20xDzAN
BgNVBAoTBkNJVFJJWDCCASIwDQYJKoZIhvcNAQEBBQADggEPADCCAQoCggEBALci
4uP7ya0eu3NWouW5FgAxDz05LiT3k6rV7PCQVgncRP27Y4JWcvYz2lxmIAZ2y548
trdOL45f52FxLDRPpIo9AfGFlaarP2EGgZbyko1g5Ma8dHhTWyw1oG5Ilmjq693i
3Csx+karQevSkhqG3HOcIaCRzYxfZrKjRJ9yp1Gr7vQLxD4g0FJiquRni5mDgewt
9jNRvt2SJ3k0SerA3bhMRhAoGsD4UchqJu+dI1Mp7vzTUVMSBE1/5GsT0X1jujNj
mIGKxqm5Rpk93FdLyMMGHThcYwQRfLfpsuwnjxNFcxk8x7zMS23/d4KlOTvaDou5
YiFuPAcIG8BctnVBdzECAwEAAaOCASAwggEcMBEGCWCGSAGG+EIBAQQEAwIGQDAd
BgNVHQ4EFgQUFYX35zDhGKmdbnsAtR+YG5G5C6kwgakGA1UdIwSBoTCBnoAUnqCx
/qi4ITATOfLDwahDy11z/LWhe6R5MHcxEjAQBgNVBAMUCU9PVFlDQV9DQTELMAkG
A1UEBhMCSU4xDzANBgNVBAoTBkNJVFJJWDEMMAoGA1UECxMDQU5HMQswCQYDVQQI
EwJLQTEoMCYGCSqGSIb3DQEJARYZT09UWUNBX0NBQE9PVFlDQV9tYWlsLmNvbYIJ
AKrCq3QhCWD/MDwGCCsGAQUFBwEBBDAwLjAsBggrBgEFBQcwAYYgaHR0cDovLzE3
Mi4yNS4yMC4xL3Jlc3BvbmRlcnBhdGgwDQYJKoZIhvcNAQELBQADggEBADrIr0eV
8VGIkxLd+9XngXTemf4EPVzhipRNNC7VqBVI7CG2DfQDRn1cdr1GbTpdeygxKvPc
93aOdI52cgoRInQN/Z29mcCR7Ihjt//Kf1aGDcKF4jK8uFGr2u0iWrBu7UWg2mX+
kWoCRCNLbjY7LpO/Mwq1CNMZl85PWkqHPNgFE8G9aFa5Z77vB2Dqpr8X4bAfTlHm
VYJ8EajpH9Do5u+6MK4JqROGrUNBsDYj52Fg0MKpGvZa4egVpb5fjMbif420TKTA
L17q/S+Ubnm8u6Fk3mpjWpH9jJI5J4Kg1YykqiqZixmBR5/fqCEX7taX99xurUAn
+ZMEjeNGu5Ra2v0=
-----END CERTIFICATE-----
