Certificate:
    Data:
        Version: 3 (0x2)
        Serial Number: 11042563100212 (0xa0b0c0d0e34)
    Signature Algorithm: sha256WithRSAEncryption
        Issuer: CN=OOTYCA_CA, C=IN, O=CITRIX, OU=ANG, ST=KA/emailAddress=OOTYCA_CA@OOTYCA_mail.com
        Validity
            Not Before: Jul  8 04:37:12 2016 GMT
            Not After : Jul  6 04:37:12 2026 GMT
        Subject: ST=KA, C=IN, CN=138_OOTYCA_server/emailAddress=138_OOTYCA@test_ca.com, O=CITRIX
        Subject Public Key Info:
            Public Key Algorithm: rsaEncryption
                Public-Key: (2048 bit)
                Modulus:
                    00:e6:6f:25:4a:b5:87:a6:73:93:90:0d:f3:d5:43:
                    23:42:fa:05:67:cb:b9:3d:f0:06:59:e7:c7:ce:9d:
                    6c:8c:1d:c0:7e:6d:78:d7:6a:79:15:a5:4d:d9:f1:
                    2a:48:69:f8:cf:d2:39:b7:fd:c0:0f:e8:ac:61:a1:
                    0f:38:d0:02:c5:91:be:c4:4b:6f:16:6c:2f:68:35:
                    54:01:eb:ad:c3:11:11:ac:ea:c8:13:38:a3:fe:16:
                    62:f8:99:e2:1e:80:0d:dc:0d:70:30:53:cc:db:cb:
                    d6:f7:e5:63:e0:fa:26:6c:cd:2d:a6:df:3c:f9:fe:
                    83:18:b1:fa:db:69:15:1d:6b:4c:2e:3f:a8:a8:14:
                    7d:8d:6c:9b:bf:be:80:18:ef:88:91:48:ca:fc:83:
                    17:d0:66:04:a6:bc:00:1b:83:b3:59:45:f2:30:a7:
                    c0:f2:82:04:51:d7:98:c2:ac:50:ee:d5:87:11:a3:
                    44:c7:a4:a7:79:c7:3e:a2:b6:9f:8b:7c:cb:38:10:
                    1f:66:66:7b:72:39:7f:04:65:e5:47:8e:da:22:56:
                    39:96:a0:d7:8a:91:fa:27:dd:41:50:b2:f9:fe:d0:
                    53:ef:3a:3f:97:c6:fc:e8:56:91:25:be:7a:21:74:
                    1c:2c:5f:45:d1:aa:e4:69:c0:18:4d:7a:53:23:e5:
                    01:c9
                Exponent: 65537 (0x10001)
        X509v3 extensions:
            Netscape Cert Type: 
                SSL Server
            X509v3 Subject Key Identifier: 
                2A:15:6F:B5:2E:36:9C:0A:1D:F2:3C:E8:B7:34:75:69:BA:54:48:37
            X509v3 Authority Key Identifier: 
                keyid:9E:A0:B1:FE:A8:B8:21:30:13:39:F2:C3:C1:A8:43:CB:5D:73:FC:B5
                DirName:/CN=OOTYCA_CA/C=IN/O=CITRIX/OU=ANG/ST=KA/emailAddress=OOTYCA_CA@OOTYCA_mail.com
                serial:AA:C2:AB:74:21:09:60:FF

            Authority Information Access: 
                OCSP - URI:http://172.25.20.1/responderpath

    Signature Algorithm: sha256WithRSAEncryption
         7a:7b:cd:e2:b0:43:d5:8e:df:9f:62:22:31:e0:79:e9:fa:b4:
         38:1b:2e:46:92:d1:21:ab:aa:76:b3:ff:39:b4:fa:3b:9c:a8:
         02:98:b3:89:8e:5e:f7:0e:7d:b3:2e:88:1b:7f:4f:da:a1:c6:
         cc:63:e9:a9:7a:0f:0d:95:2d:fd:05:af:08:b9:c7:71:2b:b0:
         f1:cd:ed:6d:fe:9d:bf:8f:71:a2:10:f2:a4:50:d1:3a:a4:6f:
         1e:b5:55:18:a4:3d:eb:e6:aa:9f:86:2f:59:5a:e7:b6:eb:87:
         91:61:0e:5c:61:62:3a:b7:3c:6f:a0:27:c3:eb:55:dc:6c:7e:
         64:dc:13:ee:3f:76:ae:34:15:c0:86:fa:1c:bb:90:94:b8:70:
         24:22:d1:d7:00:19:74:b8:13:46:f4:1a:9b:ac:20:e7:7c:91:
         5e:87:88:3d:68:6d:4f:a1:f3:97:d5:f6:98:2c:6b:e9:ee:a5:
         57:fb:60:5e:5f:90:a8:ff:bc:f9:f2:75:c1:7e:cd:98:ea:f4:
         5a:56:cc:9a:a4:f1:fb:9b:21:19:31:a2:13:ed:6a:00:4d:b3:
         bb:66:9a:97:a2:dd:14:2e:be:fd:a8:c6:c7:1c:b6:92:5a:83:
         2b:65:57:7c:a8:2b:50:8c:fa:f2:b4:75:09:b2:2f:6a:65:a7:
         4a:5f:39:63
-----BEGIN CERTIFICATE-----
MIIEhzCCA2+gAwIBAgIGCgsMDQ40MA0GCSqGSIb3DQEBCwUAMHcxEjAQBgNVBAMU
CU9PVFlDQV9DQTELMAkGA1UEBhMCSU4xDzANBgNVBAoTBkNJVFJJWDEMMAoGA1UE
CxMDQU5HMQswCQYDVQQIEwJLQTEoMCYGCSqGSIb3DQEJARYZT09UWUNBX0NBQE9P
VFlDQV9tYWlsLmNvbTAeFw0xNjA3MDgwNDM3MTJaFw0yNjA3MDYwNDM3MTJaMG4x
CzAJBgNVBAgTAktBMQswCQYDVQQGEwJJTjEaMBgGA1UEAxQRMTM4X09PVFlDQV9z
ZXJ2ZXIxJTAjBgkqhkiG9w0BCQEWFjEzOF9PT1RZQ0FAdGVzdF9jYS5jb20xDzAN
BgNVBAoTBkNJVFJJWDCCASIwDQYJKoZIhvcNAQEBBQADggEPADCCAQoCggEBAOZv
JUq1h6Zzk5AN89VDI0L6BWfLuT3wBlnnx86dbIwdwH5teNdqeRWlTdnxKkhp+M/S
Obf9wA/orGGhDzjQAsWRvsRLbxZsL2g1VAHrrcMREazqyBM4o/4WYviZ4h6ADdwN
cDBTzNvL1vflY+D6JmzNLabfPPn+gxix+ttpFR1rTC4/qKgUfY1sm7++gBjviJFI
yvyDF9BmBKa8ABuDs1lF8jCnwPKCBFHXmMKsUO7VhxGjRMekp3nHPqK2n4t8yzgQ
H2Zme3I5fwRl5UeO2iJWOZag14qR+ifdQVCy+f7QU+86P5fG/OhWkSW+eiF0HCxf
RdGq5GnAGE16UyPlAckCAwEAAaOCASAwggEcMBEGCWCGSAGG+EIBAQQEAwIGQDAd
BgNVHQ4EFgQUKhVvtS42nAod8jzotzR1abpUSDcwgakGA1UdIwSBoTCBnoAUnqCx
/qi4ITATOfLDwahDy11z/LWhe6R5MHcxEjAQBgNVBAMUCU9PVFlDQV9DQTELMAkG
A1UEBhMCSU4xDzANBgNVBAoTBkNJVFJJWDEMMAoGA1UECxMDQU5HMQswCQYDVQQI
EwJLQTEoMCYGCSqGSIb3DQEJARYZT09UWUNBX0NBQE9PVFlDQV9tYWlsLmNvbYIJ
AKrCq3QhCWD/MDwGCCsGAQUFBwEBBDAwLjAsBggrBgEFBQcwAYYgaHR0cDovLzE3
Mi4yNS4yMC4xL3Jlc3BvbmRlcnBhdGgwDQYJKoZIhvcNAQELBQADggEBAHp7zeKw
Q9WO359iIjHgeen6tDgbLkaS0SGrqnaz/zm0+jucqAKYs4mOXvcOfbMuiBt/T9qh
xsxj6al6Dw2VLf0Frwi5x3ErsPHN7W3+nb+PcaIQ8qRQ0Tqkbx61VRikPevmqp+G
L1la57brh5FhDlxhYjq3PG+gJ8PrVdxsfmTcE+4/dq40FcCG+hy7kJS4cCQi0dcA
GXS4E0b0GpusIOd8kV6HiD1obU+h85fV9pgsa+nupVf7YF5fkKj/vPnydcF+zZjq
9FpWzJqk8fubIRkxohPtagBNs7tmmpei3RQuvv2oxscctpJagytlV3yoK1CM+vK0
dQmyL2plp0pfOWM=
-----END CERTIFICATE-----
