Certificate:
    Data:
        Version: 3 (0x2)
        Serial Number: 2829 (0xb0d)
    Signature Algorithm: sha1WithRSAEncryption
        Issuer: ST=KA, C=IN, CN=ThreeCA2048_server/emailAddress=ThreeCA2048@test_ca.com, O=CITRIX
        Validity
            Not Before: Mar 28 13:25:08 2017 GMT
            Not After : Mar 26 13:25:08 2027 GMT
        Subject: ST=KA, C=IN, CN=FourCA4096_server/emailAddress=FourCA4096@test_ca.com, O=CITRIX
        Subject Public Key Info:
            Public Key Algorithm: rsaEncryption
                Public-Key: (4096 bit)
                Modulus:
                    00:bf:12:0b:d1:38:a7:60:70:4a:92:e4:4c:b4:6a:
                    ef:d5:10:50:86:c1:d5:78:56:c0:2c:7f:2f:a3:15:
                    b3:56:d1:b4:36:e2:f0:6d:e1:32:fa:9b:28:e1:55:
                    9d:ff:fa:97:40:90:2a:f4:40:e0:88:ee:bd:82:57:
                    f9:89:36:6e:dd:c3:15:2a:21:10:ff:60:09:d6:58:
                    a1:1a:53:81:38:9a:8d:30:bd:e9:48:d8:19:08:81:
                    df:f2:e8:72:88:63:ad:de:d2:ce:c2:50:c2:23:25:
                    65:d2:6d:a9:9d:8e:6f:22:f5:26:9e:7f:cc:45:e6:
                    f6:29:0a:18:f8:00:6b:b0:31:a0:3f:b9:72:c3:d7:
                    91:65:4f:66:59:65:64:35:f2:30:ac:3c:f0:02:5c:
                    f6:d5:8f:47:78:29:39:15:cf:21:34:08:5b:b6:f5:
                    29:af:0f:3d:b9:df:0f:0e:a4:59:1e:69:53:96:44:
                    cc:76:0f:75:ad:a6:81:96:4a:02:74:77:8b:2c:6c:
                    f6:3c:6e:3d:53:bb:96:bd:91:c6:36:42:c3:0d:d9:
                    18:c8:c8:60:b5:7c:df:7a:cc:8f:f9:9a:e7:f1:53:
                    43:b8:5e:95:77:80:83:d2:cc:d5:fa:4b:c8:91:c6:
                    c4:87:99:ca:27:bc:4e:79:b0:85:50:56:f1:84:6a:
                    ed:03:54:38:4f:a1:25:91:8c:8a:b0:47:1a:5d:a0:
                    e0:18:72:d0:ba:d8:f3:a7:67:e3:05:05:66:ec:12:
                    05:63:37:17:f5:41:ed:4d:1f:77:cd:73:25:e7:97:
                    3a:d8:e6:ef:0e:98:19:df:a5:f7:bc:db:e3:2e:7d:
                    7c:a3:ed:56:d7:a2:3c:0f:7d:ae:c8:b3:fb:77:93:
                    b5:0c:5c:84:39:0a:3d:84:84:94:0e:fe:c8:c5:01:
                    72:89:40:64:32:43:82:66:f3:f7:3a:b4:ed:14:42:
                    48:ee:be:dc:d0:bc:85:d3:b1:02:22:90:f1:0c:4c:
                    51:a1:b5:59:9a:6e:43:05:57:d7:36:5d:8f:3a:15:
                    03:f4:b5:5a:4d:d0:26:d6:bf:95:da:fb:f2:fb:73:
                    f4:0a:27:27:7b:46:7e:5a:44:fa:3e:3f:94:90:25:
                    ec:41:2a:be:8f:93:7e:83:6b:78:d6:59:5a:cc:0c:
                    9e:2b:cd:c6:5a:ca:11:57:a8:0a:fb:8c:66:69:63:
                    bd:28:f9:6d:e7:de:d0:0c:99:67:25:50:45:91:89:
                    5c:14:08:94:9c:a0:2d:fa:68:bd:70:e4:48:26:26:
                    3d:84:25:c1:13:ae:6e:44:e4:20:39:b5:b4:30:6e:
                    c1:83:1a:de:c0:ae:4d:b9:6f:80:ce:d7:f3:e1:4d:
                    30:06:b3
                Exponent: 65537 (0x10001)
        X509v3 extensions:
            X509v3 Basic Constraints: 
                CA:TRUE
            X509v3 Subject Key Identifier: 
                CA:9B:11:19:6D:C6:BA:AC:11:9A:C6:8C:2F:8F:EE:37:A5:6E:6A:D7
            X509v3 Authority Key Identifier: 
                keyid:D4:69:7C:24:C4:EC:F5:A0:21:A4:AD:2B:55:A2:A3:A9:86:B2:99:9B
                DirName:/ST=KA/C=IN/CN=TwoCA1024_server/emailAddress=TwoCA1024@test_ca.com/O=CITRIX
                serial:01:02:03:04:01:02:03:04:01:02:03:05

    Signature Algorithm: sha1WithRSAEncryption
         a3:6b:d2:95:9e:7c:68:b6:56:d5:15:c4:f9:78:2d:fe:10:2f:
         be:4a:06:1b:55:8d:e6:57:64:b9:8c:0d:78:58:3a:06:25:b6:
         b9:5f:8d:4c:5c:91:41:02:15:91:0f:48:a2:bb:de:d7:d6:ad:
         1d:c2:dd:3b:e3:e3:bd:37:68:22:de:08:a0:41:45:c0:45:32:
         56:a5:b0:e1:96:9b:b9:aa:3a:39:48:2c:2b:c1:0a:da:fb:a0:
         59:b2:49:2d:61:bd:5a:f8:11:29:25:7c:b2:85:3d:a9:9c:05:
         f6:20:47:03:7a:0d:0f:5c:72:47:50:5e:fb:8c:07:52:bc:da:
         fa:8d:48:2f:8a:b7:a7:69:ea:91:dd:9f:82:0d:9d:12:11:f8:
         1d:85:0e:22:d2:77:1b:61:b8:75:08:d9:43:e0:d5:3b:60:12:
         f2:ca:1f:d3:57:cc:12:53:af:65:0e:50:d4:a1:62:72:3f:d6:
         f0:f9:c5:b0:64:46:a7:77:ea:04:44:44:f1:8c:79:a4:e3:76:
         1b:92:02:a0:82:30:9d:a3:ea:59:bd:67:0d:03:df:84:e3:85:
         6c:24:d4:6c:b2:56:f1:f0:66:b8:0c:0f:cb:d7:79:7d:85:0b:
         f6:b7:4c:3d:21:4d:2b:e7:61:e8:0d:5a:35:ed:65:59:7f:26:
         4b:79:a2:bc
-----BEGIN CERTIFICATE-----
MIIFLzCCBBegAwIBAgICCw0wDQYJKoZIhvcNAQEFBQAwcDELMAkGA1UECBMCS0Ex
CzAJBgNVBAYTAklOMRswGQYDVQQDFBJUaHJlZUNBMjA0OF9zZXJ2ZXIxJjAkBgkq
hkiG9w0BCQEWF1RocmVlQ0EyMDQ4QHRlc3RfY2EuY29tMQ8wDQYDVQQKEwZDSVRS
SVgwHhcNMTcwMzI4MTMyNTA4WhcNMjcwMzI2MTMyNTA4WjBuMQswCQYDVQQIEwJL
QTELMAkGA1UEBhMCSU4xGjAYBgNVBAMUEUZvdXJDQTQwOTZfc2VydmVyMSUwIwYJ
KoZIhvcNAQkBFhZGb3VyQ0E0MDk2QHRlc3RfY2EuY29tMQ8wDQYDVQQKEwZDSVRS
SVgwggIiMA0GCSqGSIb3DQEBAQUAA4ICDwAwggIKAoICAQC/EgvROKdgcEqS5Ey0
au/VEFCGwdV4VsAsfy+jFbNW0bQ24vBt4TL6myjhVZ3/+pdAkCr0QOCI7r2CV/mJ
Nm7dwxUqIRD/YAnWWKEaU4E4mo0wvelI2BkIgd/y6HKIY63e0s7CUMIjJWXSbamd
jm8i9Saef8xF5vYpChj4AGuwMaA/uXLD15FlT2ZZZWQ18jCsPPACXPbVj0d4KTkV
zyE0CFu29SmvDz253w8OpFkeaVOWRMx2D3WtpoGWSgJ0d4ssbPY8bj1Tu5a9kcY2
QsMN2RjIyGC1fN96zI/5mufxU0O4XpV3gIPSzNX6S8iRxsSHmconvE55sIVQVvGE
au0DVDhPoSWRjIqwRxpdoOAYctC62POnZ+MFBWbsEgVjNxf1Qe1NH3fNcyXnlzrY
5u8OmBnfpfe82+MufXyj7VbXojwPfa7Is/t3k7UMXIQ5Cj2EhJQO/sjFAXKJQGQy
Q4Jm8/c6tO0UQkjuvtzQvIXTsQIikPEMTFGhtVmabkMFV9c2XY86FQP0tVpN0CbW
v5Xa+/L7c/QKJyd7Rn5aRPo+P5SQJexBKr6Pk36Da3jWWVrMDJ4rzcZayhFXqAr7
jGZpY70o+W3n3tAMmWclUEWRiVwUCJScoC36aL1w5EgmJj2EJcETrm5E5CA5tbQw
bsGDGt7Ark25b4DO1/PhTTAGswIDAQABo4HUMIHRMAwGA1UdEwQFMAMBAf8wHQYD
VR0OBBYEFMqbERltxrqsEZrGjC+P7jelbmrXMIGhBgNVHSMEgZkwgZaAFNRpfCTE
7PWgIaStK1Wio6mGspmboXCkbjBsMQswCQYDVQQIEwJLQTELMAkGA1UEBhMCSU4x
GTAXBgNVBAMUEFR3b0NBMTAyNF9zZXJ2ZXIxJDAiBgkqhkiG9w0BCQEWFVR3b0NB
MTAyNEB0ZXN0X2NhLmNvbTEPMA0GA1UEChMGQ0lUUklYggwBAgMEAQIDBAECAwUw
DQYJKoZIhvcNAQEFBQADggEBAKNr0pWefGi2VtUVxPl4Lf4QL75KBhtVjeZXZLmM
DXhYOgYltrlfjUxckUECFZEPSKK73tfWrR3C3Tvj4703aCLeCKBBRcBFMlalsOGW
m7mqOjlILCvBCtr7oFmySS1hvVr4ESklfLKFPamcBfYgRwN6DQ9cckdQXvuMB1K8
2vqNSC+Kt6dp6pHdn4INnRIR+B2FDiLSdxthuHUI2UPg1TtgEvLKH9NXzBJTr2UO
UNShYnI/1vD5xbBkRqd36gRERPGMeaTjdhuSAqCCMJ2j6lm9Zw0D34TjhWwk1Gyy
VvHwZrgMD8vXeX2FC/a3TD0hTSvnYegNWjXtZVl/Jkt5orw=
-----END CERTIFICATE-----
