Certificate:
    Data:
        Version: 3 (0x2)
        Serial Number:
            0a:0b:0c:0d:0e:01:02:03:05
    Signature Algorithm: sha1WithRSAEncryption
        Issuer: CN=RootServer2048CA, ST=KA, C=IN/emailAddress=RootServer2048CA@RootServer2048CA.com, O=CITRIX
        Validity
            Not Before: Mar 28 13:21:01 2017 GMT
            Not After : Mar 26 13:21:01 2027 GMT
        Subject: ST=KA, C=IN, CN=OneCA4096_server/emailAddress=OneCA4096@test_ca.com, O=CITRIX
        Subject Public Key Info:
            Public Key Algorithm: rsaEncryption
                Public-Key: (4096 bit)
                Modulus:
                    00:dc:ff:00:6f:c0:3d:8b:12:ac:e6:91:18:9f:23:
                    15:86:37:09:5f:f3:d2:23:0e:7c:e9:3e:4e:5f:af:
                    af:0f:40:2e:b6:78:e8:0b:ec:95:ec:da:12:ac:51:
                    54:cc:57:95:c0:49:55:66:9b:0c:5a:05:87:fa:f2:
                    97:2b:14:01:93:1a:aa:28:ce:2d:1e:5c:d6:23:ec:
                    f9:fe:6c:2e:41:f5:24:e5:d8:00:f1:85:99:49:c7:
                    47:db:d3:5b:38:c5:7d:e4:1b:b6:b1:0d:9f:5f:f1:
                    61:45:a7:51:5c:3e:5d:be:d4:ba:a9:38:52:80:0b:
                    9f:bd:53:15:f3:c5:db:03:0b:65:c4:75:5c:33:2c:
                    2d:ff:ac:4d:0e:5b:39:69:5a:27:28:51:81:53:a8:
                    dc:be:2e:33:c7:54:5f:2b:5b:0f:46:dc:3d:e0:c0:
                    9f:8d:25:b7:f5:60:8e:7f:ba:30:a9:17:b6:ad:e0:
                    fd:8a:17:2c:2b:fa:ed:97:26:2b:69:04:c0:b4:bb:
                    f8:84:c3:7a:8c:f5:0c:31:3e:78:46:25:08:70:57:
                    95:ca:63:c8:a3:76:54:b9:eb:3a:58:c9:98:b7:e3:
                    e2:fb:dd:8c:80:f6:ea:13:0e:9e:05:95:29:80:12:
                    f9:df:a6:9d:03:50:24:ee:0c:6d:4e:ac:92:df:6a:
                    d1:68:bc:48:6f:1c:a9:43:5d:4a:87:b7:78:52:1c:
                    26:91:e2:c9:b7:8a:b5:14:72:82:e6:9e:d2:0e:f6:
                    d8:31:48:37:6e:ef:3d:e8:d9:cb:83:27:f3:91:04:
                    7c:44:ed:7d:50:70:8b:6a:35:97:a7:90:68:ca:42:
                    0a:94:31:4a:98:3e:2e:22:5c:a1:03:50:c8:cf:88:
                    de:95:c0:b7:e5:e0:4f:dc:cd:09:c8:05:9d:4d:0d:
                    d6:74:8d:0d:cb:03:3f:e6:af:cd:8c:f1:6a:7c:cd:
                    a8:4e:f9:90:64:63:ee:f7:68:d5:a8:8d:dd:b7:78:
                    2d:5e:da:a5:b0:c9:37:c8:8d:13:af:6d:47:d0:2e:
                    0e:8d:4e:3c:5c:ca:cf:a4:25:5e:e3:73:33:16:28:
                    4c:31:90:78:69:cc:83:7c:e4:83:52:b5:eb:79:35:
                    df:ac:20:b4:2a:c9:6a:d9:cb:98:b6:21:61:8f:9f:
                    21:db:a2:b1:3d:44:09:61:31:c7:87:45:ff:41:61:
                    c3:e9:06:0b:ee:60:30:d3:aa:b6:de:ce:e4:7e:ce:
                    33:1e:db:3c:e6:30:ef:f4:f0:60:35:14:91:b8:02:
                    6e:93:c0:c3:87:40:f3:08:4e:4f:d7:b3:5b:1b:70:
                    b1:ea:fb:31:94:1b:88:d6:bb:e6:62:6a:cd:b5:c5:
                    eb:32:6f
                Exponent: 65537 (0x10001)
        X509v3 extensions:
            X509v3 Basic Constraints: 
                CA:TRUE
            X509v3 Subject Key Identifier: 
                1B:C7:66:A0:59:A5:74:3A:71:D2:FB:FA:A9:B1:28:5B:1D:4F:48:10
            X509v3 Authority Key Identifier: 
                keyid:63:56:B6:99:D5:52:3C:39:62:F1:C0:14:E7:78:55:A7:C5:3E:E4:E3
                DirName:/CN=RootServer2048CA/ST=KA/C=IN/emailAddress=RootServer2048CA@RootServer2048CA.com/O=CITRIX
                serial:E3:DD:A4:08:60:FD:73:25

    Signature Algorithm: sha1WithRSAEncryption
         78:4d:1a:b2:1e:ba:d1:7a:89:b3:c1:cc:be:e7:71:d9:10:db:
         18:b1:20:3c:35:15:5d:b0:3d:37:0b:7b:8b:c2:fc:be:a2:58:
         79:69:55:6b:cb:4c:48:a5:4b:d9:98:80:a5:7e:2a:73:13:bb:
         d9:84:aa:db:1f:5a:5d:57:00:3c:c7:e5:3a:70:1f:52:5e:36:
         46:b2:c9:92:a0:15:be:ba:63:db:77:09:c3:81:48:d3:f4:b3:
         04:19:56:4c:b7:8f:66:48:35:82:73:fd:b6:f4:66:e5:04:ba:
         c8:4b:6a:76:55:72:c0:cf:92:ec:87:47:11:3c:0c:0b:c0:fa:
         dd:d5:09:e4:36:db:1f:1a:d4:be:24:3c:1f:c4:ff:25:e7:ea:
         ed:5a:2c:64:8d:35:30:1a:5e:cd:c9:0d:aa:e5:bb:36:81:6e:
         52:fd:ed:a1:d5:6e:0e:a9:86:d8:ca:55:50:7a:0f:09:f1:4f:
         62:10:f0:1e:bc:fd:18:f5:d6:5e:c9:63:8c:55:02:fa:fa:0a:
         1d:b8:e4:13:6f:a0:ab:e8:22:12:72:6e:34:ae:e4:ab:74:60:
         3a:35:80:20:3b:44:39:b5:be:5b:11:2b:74:cc:9e:e3:f4:5e:
         3c:37:28:4c:00:07:fa:79:d9:33:17:cc:e5:5b:b7:eb:09:4d:
         5a:b5:cf:36
-----BEGIN CERTIFICATE-----
MIIFTjCCBDagAwIBAgIJCgsMDQ4BAgMFMA0GCSqGSIb3DQEBBQUAMHwxGTAXBgNV
BAMTEFJvb3RTZXJ2ZXIyMDQ4Q0ExCzAJBgNVBAgTAktBMQswCQYDVQQGEwJJTjE0
MDIGCSqGSIb3DQEJARYlUm9vdFNlcnZlcjIwNDhDQUBSb290U2VydmVyMjA0OENB
LmNvbTEPMA0GA1UEChMGQ0lUUklYMB4XDTE3MDMyODEzMjEwMVoXDTI3MDMyNjEz
MjEwMVowbDELMAkGA1UECBMCS0ExCzAJBgNVBAYTAklOMRkwFwYDVQQDFBBPbmVD
QTQwOTZfc2VydmVyMSQwIgYJKoZIhvcNAQkBFhVPbmVDQTQwOTZAdGVzdF9jYS5j
b20xDzANBgNVBAoTBkNJVFJJWDCCAiIwDQYJKoZIhvcNAQEBBQADggIPADCCAgoC
ggIBANz/AG/APYsSrOaRGJ8jFYY3CV/z0iMOfOk+Tl+vrw9ALrZ46AvslezaEqxR
VMxXlcBJVWabDFoFh/rylysUAZMaqijOLR5c1iPs+f5sLkH1JOXYAPGFmUnHR9vT
WzjFfeQbtrENn1/xYUWnUVw+Xb7Uuqk4UoALn71TFfPF2wMLZcR1XDMsLf+sTQ5b
OWlaJyhRgVOo3L4uM8dUXytbD0bcPeDAn40lt/Vgjn+6MKkXtq3g/YoXLCv67Zcm
K2kEwLS7+ITDeoz1DDE+eEYlCHBXlcpjyKN2VLnrOljJmLfj4vvdjID26hMOngWV
KYAS+d+mnQNQJO4MbU6skt9q0Wi8SG8cqUNdSoe3eFIcJpHiybeKtRRyguae0g72
2DFIN27vPejZy4Mn85EEfETtfVBwi2o1l6eQaMpCCpQxSpg+LiJcoQNQyM+I3pXA
t+XgT9zNCcgFnU0N1nSNDcsDP+avzYzxanzNqE75kGRj7vdo1aiN3bd4LV7apbDJ
N8iNE69tR9AuDo1OPFzKz6QlXuNzMxYoTDGQeGnMg3zkg1K163k136wgtCrJatnL
mLYhYY+fIduisT1ECWExx4dF/0Fhw+kGC+5gMNOqtt7O5H7OMx7bPOYw7/TwYDUU
kbgCbpPAw4dA8whOT9ezWxtwser7MZQbiNa75mJqzbXF6zJvAgMBAAGjgeIwgd8w
DAYDVR0TBAUwAwEB/zAdBgNVHQ4EFgQUG8dmoFmldDpx0vv6qbEoWx1PSBAwga8G
A1UdIwSBpzCBpIAUY1a2mdVSPDli8cAU53hVp8U+5OOhgYCkfjB8MRkwFwYDVQQD
ExBSb290U2VydmVyMjA0OENBMQswCQYDVQQIEwJLQTELMAkGA1UEBhMCSU4xNDAy
BgkqhkiG9w0BCQEWJVJvb3RTZXJ2ZXIyMDQ4Q0FAUm9vdFNlcnZlcjIwNDhDQS5j
b20xDzANBgNVBAoTBkNJVFJJWIIJAOPdpAhg/XMlMA0GCSqGSIb3DQEBBQUAA4IB
AQB4TRqyHrrReomzwcy+53HZENsYsSA8NRVdsD03C3uLwvy+olh5aVVry0xIpUvZ
mIClfipzE7vZhKrbH1pdVwA8x+U6cB9SXjZGssmSoBW+umPbdwnDgUjT9LMEGVZM
t49mSDWCc/229GblBLrIS2p2VXLAz5Lsh0cRPAwLwPrd1QnkNtsfGtS+JDwfxP8l
5+rtWixkjTUwGl7NyQ2q5bs2gW5S/e2h1W4OqYbYylVQeg8J8U9iEPAevP0Y9dZe
yWOMVQL6+goduOQTb6Cr6CIScm40ruSrdGA6NYAgO0Q5tb5bESt0zJ7j9F48NyhM
AAf6edkzF8zlW7frCU1atc82
-----END CERTIFICATE-----
