Certificate:
    Data:
        Version: 3 (0x2)
        Serial Number:
            01:02:03:04:05:06:07:08:09:0a:0b:0c:0d:0e:13
    Signature Algorithm: sha1WithRSAEncryption
        Issuer: ST=KA, C=IN, CN=FourCA4096_server/emailAddress=FourCA4096@test_ca.com, O=CITRIX
        Validity
            Not Before: Apr  9 10:00:29 2017 GMT
            Not After : Apr  7 10:00:29 2027 GMT
        Subject: ST=KA, C=IN, CN=server1024_server/emailAddress=server1024@test_ca.com, O=CITRIX
        Subject Public Key Info:
            Public Key Algorithm: rsaEncryption
                Public-Key: (1024 bit)
                Modulus:
                    00:c3:ab:be:fc:ef:06:fd:19:67:4b:2b:40:aa:15:
                    49:a6:40:03:77:a9:92:b3:d7:0d:04:24:ae:de:ea:
                    cc:87:fa:cd:16:82:fb:f3:57:5c:a0:89:d3:93:42:
                    37:23:ff:50:6b:7b:bd:58:12:ed:cf:2b:75:e9:3b:
                    12:f4:cc:d7:fa:3f:d4:16:2a:b7:09:89:dc:de:be:
                    75:9a:61:0d:d9:3a:6e:10:7f:96:b2:25:f9:3f:54:
                    2e:a1:cb:44:d9:54:53:2e:e4:be:e7:ed:d3:a5:66:
                    38:62:71:e5:7e:1e:35:aa:52:c8:ce:59:6a:7e:66:
                    68:8d:03:8e:56:fc:6c:b6:fb
                Exponent: 65537 (0x10001)
        X509v3 extensions:
            Netscape Cert Type: 
                SSL Server
            X509v3 Key Usage: 
                Digital Signature, Non Repudiation, Key Encipherment
            X509v3 Subject Alternative Name: 
                DNS:server2048.FourCA4096.com, email:server2048@FourCA4096.com
            X509v3 Subject Key Identifier: 
                35:96:26:40:A0:DF:4B:5A:13:51:AB:D6:20:55:C9:51:30:B8:74:42
            X509v3 Authority Key Identifier: 
                keyid:CA:9B:11:19:6D:C6:BA:AC:11:9A:C6:8C:2F:8F:EE:37:A5:6E:6A:D7
                DirName:/ST=KA/C=IN/CN=ThreeCA2048_server/emailAddress=ThreeCA2048@test_ca.com/O=CITRIX
                serial:0B:0D

    Signature Algorithm: sha1WithRSAEncryption
         06:bd:2d:fe:2d:83:03:14:a4:3a:ee:fb:a2:59:0e:d9:be:13:
         0d:51:76:a1:3b:b2:17:b2:42:95:5e:ea:10:de:9f:99:b1:f4:
         01:cc:bd:a9:67:72:7c:e4:c1:5c:bb:b5:50:24:84:2f:d1:f8:
         77:6d:f2:fb:5d:ca:3b:67:85:43:d0:a6:2c:08:21:4f:e8:a8:
         b7:b5:cb:38:43:c7:5e:73:7f:7d:5c:65:e0:f3:d7:1e:eb:c5:
         ec:1b:ef:cb:dc:0a:6c:7f:31:d4:13:9d:46:5d:37:a4:3e:46:
         42:37:22:29:d8:8f:c6:a1:01:85:f9:1a:be:25:0a:90:b9:a6:
         65:25:1e:f1:e6:29:bd:b3:d4:68:7e:00:cf:a2:7c:ff:ce:0e:
         ee:90:a5:70:fb:ef:75:86:ca:d6:f1:41:1e:5f:44:73:8e:e2:
         cc:aa:01:20:ee:69:a0:fd:89:5d:c3:d9:c0:0c:9d:85:cc:82:
         3a:70:50:a5:d4:65:ca:65:79:e3:0e:fd:a1:dd:05:d7:8a:80:
         2b:7e:87:1e:c5:a8:63:d2:f1:89:a7:58:4b:a2:06:c1:05:85:
         fd:35:f7:84:15:40:3a:1d:c5:9c:0f:61:dd:31:87:15:30:fd:
         f5:ad:4a:55:78:4f:cc:ba:a4:f9:61:53:c8:05:94:3b:1e:65:
         5f:37:a3:40:9b:c5:86:36:82:21:dd:19:20:01:db:b2:48:23:
         b5:9d:10:3b:0e:f1:8b:44:79:16:b1:71:28:de:e2:c2:40:55:
         58:49:25:6c:2d:22:82:21:dd:70:ce:27:66:09:bd:82:d3:5b:
         2b:fd:5a:e5:62:bb:c7:99:e1:d3:39:f4:34:6b:c0:9c:d6:40:
         e8:a8:23:0d:d8:d4:08:5b:b9:1d:f7:32:88:75:00:3a:14:d8:
         d1:15:e8:94:cc:fa:be:3d:9b:ef:ec:95:4f:24:57:58:ec:b6:
         58:c6:3d:a5:48:15:56:8a:58:c1:0e:26:e4:49:d4:d4:86:f2:
         e4:39:62:d2:65:8a:9a:fa:97:a7:40:6a:41:38:76:e8:46:48:
         a7:a7:25:90:31:22:64:cd:4e:50:66:0c:7d:8f:9b:f0:37:20:
         f6:02:5b:f2:e8:28:d6:c3:f8:ae:b8:e7:45:17:83:6a:f2:77:
         ed:4d:4d:bc:3d:89:cf:37:68:85:aa:4f:f6:13:25:4b:dd:80:
         0b:dc:f4:6a:bb:e9:a1:ec:79:6d:cf:cd:f0:39:05:61:8d:45:
         98:b3:30:eb:ff:d5:5b:d5:56:02:fa:d5:62:e4:8b:a3:fa:38:
         a1:1b:30:6b:c4:83:d5:91:24:e7:e2:e6:8d:4a:e5:7a:f2:d0:
         41:62:a6:40:8f:a4:f0:c0
-----BEGIN CERTIFICATE-----
MIIFBTCCAu2gAwIBAgIPAQIDBAUGBwgJCgsMDQ4TMA0GCSqGSIb3DQEBBQUAMG4x
CzAJBgNVBAgTAktBMQswCQYDVQQGEwJJTjEaMBgGA1UEAxQRRm91ckNBNDA5Nl9z
ZXJ2ZXIxJTAjBgkqhkiG9w0BCQEWFkZvdXJDQTQwOTZAdGVzdF9jYS5jb20xDzAN
BgNVBAoTBkNJVFJJWDAeFw0xNzA0MDkxMDAwMjlaFw0yNzA0MDcxMDAwMjlaMG4x
CzAJBgNVBAgTAktBMQswCQYDVQQGEwJJTjEaMBgGA1UEAxQRc2VydmVyMTAyNF9z
ZXJ2ZXIxJTAjBgkqhkiG9w0BCQEWFnNlcnZlcjEwMjRAdGVzdF9jYS5jb20xDzAN
BgNVBAoTBkNJVFJJWDCBnzANBgkqhkiG9w0BAQEFAAOBjQAwgYkCgYEAw6u+/O8G
/RlnSytAqhVJpkADd6mSs9cNBCSu3urMh/rNFoL781dcoInTk0I3I/9Qa3u9WBLt
zyt16TsS9MzX+j/UFiq3CYnc3r51mmEN2TpuEH+WsiX5P1QuoctE2VRTLuS+5+3T
pWY4YnHlfh41qlLIzllqfmZojQOOVvxstvsCAwEAAaOCASIwggEeMBEGCWCGSAGG
+EIBAQQEAwIGQDALBgNVHQ8EBAMCBeAwPwYDVR0RBDgwNoIZc2VydmVyMjA0OC5G
b3VyQ0E0MDk2LmNvbYEZc2VydmVyMjA0OEBGb3VyQ0E0MDk2LmNvbTAdBgNVHQ4E
FgQUNZYmQKDfS1oTUavWIFXJUTC4dEIwgZsGA1UdIwSBkzCBkIAUypsRGW3GuqwR
msaML4/uN6VuatehdKRyMHAxCzAJBgNVBAgTAktBMQswCQYDVQQGEwJJTjEbMBkG
A1UEAxQSVGhyZWVDQTIwNDhfc2VydmVyMSYwJAYJKoZIhvcNAQkBFhdUaHJlZUNB
MjA0OEB0ZXN0X2NhLmNvbTEPMA0GA1UEChMGQ0lUUklYggILDTANBgkqhkiG9w0B
AQUFAAOCAgEABr0t/i2DAxSkOu77olkO2b4TDVF2oTuyF7JClV7qEN6fmbH0Acy9
qWdyfOTBXLu1UCSEL9H4d23y+13KO2eFQ9CmLAghT+iot7XLOEPHXnN/fVxl4PPX
HuvF7Bvvy9wKbH8x1BOdRl03pD5GQjciKdiPxqEBhfkaviUKkLmmZSUe8eYpvbPU
aH4Az6J8/84O7pClcPvvdYbK1vFBHl9Ec47izKoBIO5poP2JXcPZwAydhcyCOnBQ
pdRlymV54w79od0F14qAK36HHsWoY9LxiadYS6IGwQWF/TX3hBVAOh3FnA9h3TGH
FTD99a1KVXhPzLqk+WFTyAWUOx5lXzejQJvFhjaCId0ZIAHbskgjtZ0QOw7xi0R5
FrFxKN7iwkBVWEklbC0igiHdcM4nZgm9gtNbK/1a5WK7x5nh0zn0NGvAnNZA6Kgj
DdjUCFu5HfcyiHUAOhTY0RXolMz6vj2b7+yVTyRXWOy2WMY9pUgVVopYwQ4m5EnU
1Iby5Dli0mWKmvqXp0BqQTh26EZIp6clkDEiZM1OUGYMfY+b8Dcg9gJb8ugo1sP4
rrjnRReDavJ37U1NvD2JzzdohapP9hMlS92AC9z0arvpoex5bc/N8DkFYY1FmLMw
6//VW9VWAvrVYuSLo/o4oRswa8SD1ZEk5+LmjUrlevLQQWKmQI+k8MA=
-----END CERTIFICATE-----
