Certificate:
    Data:
        Version: 3 (0x2)
        Serial Number:
            01:02:03:04:05:06:07:08:09:0a:0b:0c:0d:0e:12
    Signature Algorithm: sha1WithRSAEncryption
        Issuer: ST=KA, C=IN, CN=FourCA4096_server/emailAddress=FourCA4096@test_ca.com, O=CITRIX
        Validity
            Not Before: Mar 28 13:26:58 2017 GMT
            Not After : Mar 26 13:26:58 2027 GMT
        Subject: ST=KA, C=IN, CN=server2048_server/emailAddress=server2048@test_ca.com, O=CITRIX
        Subject Public Key Info:
            Public Key Algorithm: rsaEncryption
                Public-Key: (2048 bit)
                Modulus:
                    00:f3:67:ae:96:75:da:0e:da:ba:2d:aa:01:45:f1:
                    16:dd:75:c2:1d:e0:f5:05:5f:9f:2f:4e:29:50:62:
                    53:2b:86:93:ea:6c:b2:c1:40:85:25:e0:a3:9d:81:
                    3c:4d:00:90:b2:54:a2:4b:50:6d:cd:44:42:6d:96:
                    90:29:62:09:73:61:28:9f:ff:45:84:cc:41:fa:e2:
                    3c:a4:e3:1e:c5:ad:4f:7c:03:25:b6:76:d9:ea:92:
                    60:82:28:44:26:75:46:dc:9b:56:8a:62:d7:56:15:
                    e2:e2:b2:a2:b7:7d:2f:2c:41:95:40:0c:be:82:10:
                    d4:b1:39:03:d5:8a:1f:f0:97:a9:28:82:92:24:5e:
                    05:7c:c3:61:eb:d4:0a:f6:c6:dd:d4:d9:17:8d:db:
                    6d:56:ec:96:ee:03:88:38:f4:c4:98:43:35:23:cd:
                    ac:68:a8:15:59:ab:74:5c:5d:37:64:4d:4b:f1:fe:
                    95:4d:44:e6:d0:5c:78:41:e6:ba:d7:52:4c:5a:a2:
                    03:7b:81:2f:f8:81:2d:f9:d0:ab:f1:98:e9:0b:c2:
                    20:d3:48:ac:2a:d6:51:27:0b:bc:ed:6a:37:3a:47:
                    c7:6b:fb:de:44:5b:df:fb:fc:c9:2b:15:fa:2e:a5:
                    28:f9:2c:81:d3:6b:84:d3:fc:bd:4b:f7:78:1e:18:
                    33:0f
                Exponent: 65537 (0x10001)
        X509v3 extensions:
            Netscape Cert Type: 
                SSL Server
            X509v3 Key Usage: 
                Digital Signature, Non Repudiation, Key Encipherment
            X509v3 Subject Alternative Name: 
                DNS:server2048.FourCA4096.com, email:server2048@FourCA4096.com
            X509v3 Subject Key Identifier: 
                70:A5:89:9C:34:DA:26:A0:DF:B5:7A:8B:1F:BA:CF:E7:05:35:F9:57
            X509v3 Authority Key Identifier: 
                keyid:CA:9B:11:19:6D:C6:BA:AC:11:9A:C6:8C:2F:8F:EE:37:A5:6E:6A:D7
                DirName:/ST=KA/C=IN/CN=ThreeCA2048_server/emailAddress=ThreeCA2048@test_ca.com/O=CITRIX
                serial:0B:0D

    Signature Algorithm: sha1WithRSAEncryption
         12:7a:26:13:63:e5:2d:e6:21:46:53:f3:4a:fd:45:e0:3a:e9:
         02:75:62:45:cd:0e:88:68:f6:5f:ad:92:5a:cd:8b:be:45:dc:
         7f:e9:f6:49:53:43:2e:31:a8:69:0f:24:bf:3a:35:84:94:65:
         53:7c:a6:1c:e2:41:d6:3d:43:02:9f:d6:42:ee:22:31:21:44:
         96:f5:cb:0a:4b:eb:fb:3d:6b:1b:2a:f8:b1:f2:46:64:a3:20:
         6f:1b:b1:e7:19:48:ee:01:4a:3a:91:8f:35:e8:85:22:c4:d4:
         d8:cc:fc:ad:ef:1f:fd:9d:fa:ac:82:dd:93:9e:b4:c6:8a:b0:
         50:0f:85:a6:8e:c8:18:c0:77:a8:9b:e4:0c:5c:6c:83:13:de:
         76:1f:1e:ba:38:27:e1:de:9f:76:74:41:e6:7d:2e:c6:67:9b:
         a2:fc:17:a8:bc:6b:d7:e2:06:fd:27:48:9a:6f:c7:ba:45:ff:
         dc:17:d5:c0:5d:ec:72:42:a4:0c:74:ee:f9:6e:31:37:5f:ba:
         c4:7a:58:01:55:2e:9c:c1:11:07:f5:28:4d:b7:3c:be:d2:53:
         fa:94:77:32:4c:b9:fa:07:7b:28:e2:c3:af:34:0c:df:87:f5:
         43:0a:e4:fa:9d:40:2c:ba:89:40:68:42:9d:78:7f:2a:55:46:
         53:6d:cd:2a:43:38:03:a2:72:14:f1:6e:e5:3f:01:24:29:8d:
         f8:a9:a3:23:1b:36:ac:be:e7:7e:b9:5f:74:04:b8:2b:e3:c4:
         f2:b3:5b:9f:34:7c:b1:3e:2e:99:33:b8:dd:22:8a:56:90:90:
         ca:39:d1:f3:34:c2:de:d1:0d:66:15:a7:21:41:a3:61:1d:95:
         00:2c:2f:f6:2f:dc:33:6c:5a:5c:3f:ed:47:8d:a8:7e:fe:ae:
         e5:97:cb:d5:b0:97:9c:cc:51:af:3f:6a:fe:5f:07:47:03:1c:
         2d:4e:79:0f:88:47:5d:96:93:ee:cf:b1:ac:27:37:e6:81:31:
         05:86:fe:7e:c6:f6:7f:a7:d6:ca:c6:2e:37:41:4d:a8:bd:26:
         3c:67:a0:0c:fa:d6:82:90:58:32:76:30:09:a7:ad:2d:b1:0a:
         e5:2c:75:62:47:e7:43:10:54:1b:7f:70:0b:1c:63:89:9a:17:
         35:98:1b:73:0a:49:fb:e3:88:88:e1:61:06:e2:37:f8:b6:ab:
         54:00:cd:7c:fa:a8:f8:a1:58:89:d1:22:4d:26:ec:ff:a3:f5:
         e7:4a:b7:06:33:3f:9f:b4:e2:a8:1c:fd:a9:ca:1d:7d:b1:62:
         39:24:c7:77:77:b0:74:74:32:1c:98:51:8f:56:cc:12:6d:63:
         e6:24:54:7c:ff:f6:c4:1f
-----BEGIN CERTIFICATE-----
MIIFiTCCA3GgAwIBAgIPAQIDBAUGBwgJCgsMDQ4SMA0GCSqGSIb3DQEBBQUAMG4x
CzAJBgNVBAgTAktBMQswCQYDVQQGEwJJTjEaMBgGA1UEAxQRRm91ckNBNDA5Nl9z
ZXJ2ZXIxJTAjBgkqhkiG9w0BCQEWFkZvdXJDQTQwOTZAdGVzdF9jYS5jb20xDzAN
BgNVBAoTBkNJVFJJWDAeFw0xNzAzMjgxMzI2NThaFw0yNzAzMjYxMzI2NThaMG4x
CzAJBgNVBAgTAktBMQswCQYDVQQGEwJJTjEaMBgGA1UEAxQRc2VydmVyMjA0OF9z
ZXJ2ZXIxJTAjBgkqhkiG9w0BCQEWFnNlcnZlcjIwNDhAdGVzdF9jYS5jb20xDzAN
BgNVBAoTBkNJVFJJWDCCASIwDQYJKoZIhvcNAQEBBQADggEPADCCAQoCggEBAPNn
rpZ12g7aui2qAUXxFt11wh3g9QVfny9OKVBiUyuGk+psssFAhSXgo52BPE0AkLJU
oktQbc1EQm2WkCliCXNhKJ//RYTMQfriPKTjHsWtT3wDJbZ22eqSYIIoRCZ1Rtyb
Vopi11YV4uKyord9LyxBlUAMvoIQ1LE5A9WKH/CXqSiCkiReBXzDYevUCvbG3dTZ
F43bbVbslu4DiDj0xJhDNSPNrGioFVmrdFxdN2RNS/H+lU1E5tBceEHmutdSTFqi
A3uBL/iBLfnQq/GY6QvCINNIrCrWUScLvO1qNzpHx2v73kRb3/v8ySsV+i6lKPks
gdNrhNP8vUv3eB4YMw8CAwEAAaOCASIwggEeMBEGCWCGSAGG+EIBAQQEAwIGQDAL
BgNVHQ8EBAMCBeAwPwYDVR0RBDgwNoIZc2VydmVyMjA0OC5Gb3VyQ0E0MDk2LmNv
bYEZc2VydmVyMjA0OEBGb3VyQ0E0MDk2LmNvbTAdBgNVHQ4EFgQUcKWJnDTaJqDf
tXqLH7rP5wU1+VcwgZsGA1UdIwSBkzCBkIAUypsRGW3GuqwRmsaML4/uN6Vuateh
dKRyMHAxCzAJBgNVBAgTAktBMQswCQYDVQQGEwJJTjEbMBkGA1UEAxQSVGhyZWVD
QTIwNDhfc2VydmVyMSYwJAYJKoZIhvcNAQkBFhdUaHJlZUNBMjA0OEB0ZXN0X2Nh
LmNvbTEPMA0GA1UEChMGQ0lUUklYggILDTANBgkqhkiG9w0BAQUFAAOCAgEAEnom
E2PlLeYhRlPzSv1F4DrpAnViRc0OiGj2X62SWs2LvkXcf+n2SVNDLjGoaQ8kvzo1
hJRlU3ymHOJB1j1DAp/WQu4iMSFElvXLCkvr+z1rGyr4sfJGZKMgbxux5xlI7gFK
OpGPNeiFIsTU2Mz8re8f/Z36rILdk560xoqwUA+Fpo7IGMB3qJvkDFxsgxPedh8e
ujgn4d6fdnRB5n0uxmebovwXqLxr1+IG/SdImm/HukX/3BfVwF3sckKkDHTu+W4x
N1+6xHpYAVUunMERB/UoTbc8vtJT+pR3Mky5+gd7KOLDrzQM34f1Qwrk+p1ALLqJ
QGhCnXh/KlVGU23NKkM4A6JyFPFu5T8BJCmN+KmjIxs2rL7nfrlfdAS4K+PE8rNb
nzR8sT4umTO43SKKVpCQyjnR8zTC3tENZhWnIUGjYR2VACwv9i/cM2xaXD/tR42o
fv6u5ZfL1bCXnMxRrz9q/l8HRwMcLU55D4hHXZaT7s+xrCc35oExBYb+fsb2f6fW
ysYuN0FNqL0mPGegDPrWgpBYMnYwCaetLbEK5Sx1YkfnQxBUG39wCxxjiZoXNZgb
cwpJ++OIiOFhBuI3+LarVADNfPqo+KFYidEiTSbs/6P150q3BjM/n7TiqBz9qcod
fbFiOSTHd3ewdHQyHJhRj1bMEm1j5iRUfP/2xB8=
-----END CERTIFICATE-----
