Certificate:
    Data:
        Version: 3 (0x2)
        Serial Number:
            01:02:03:04:01:02:03:04:01:02:03:05
    Signature Algorithm: sha1WithRSAEncryption
        Issuer: ST=KA, C=IN, CN=TwoCA1024_server/emailAddress=TwoCA1024@test_ca.com, O=CITRIX
        Validity
            Not Before: Mar 28 13:23:45 2017 GMT
            Not After : Mar 26 13:23:45 2027 GMT
        Subject: ST=KA, C=IN, CN=ThreeCA2048_server/emailAddress=ThreeCA2048@test_ca.com, O=CITRIX
        Subject Public Key Info:
            Public Key Algorithm: rsaEncryption
                Public-Key: (2048 bit)
                Modulus:
                    00:cd:a5:50:5c:d1:36:f0:73:e8:ef:71:9b:da:06:
                    16:84:08:d8:1c:fd:e5:04:61:b8:b6:33:ac:b5:3c:
                    a7:e4:b1:81:e3:3a:8b:f8:a3:99:5b:91:3c:33:82:
                    ce:0e:bb:93:74:38:0c:6c:57:db:cd:91:44:a6:77:
                    da:54:ac:3c:62:0b:06:19:f0:6e:ed:25:6b:d9:45:
                    41:84:34:8e:f9:cf:a1:77:a8:ef:09:25:c7:66:ea:
                    2a:69:c8:eb:10:d7:0f:bc:69:43:54:31:fb:aa:30:
                    ea:37:3e:6a:57:60:f2:b1:bf:10:2e:1b:a8:4e:83:
                    2f:5e:77:4c:01:b9:26:56:0e:89:7e:4e:9b:bb:40:
                    85:3e:b1:ad:72:6b:08:f9:a1:b7:6f:c6:71:b5:68:
                    8c:47:ee:80:60:58:ef:9e:92:93:f7:65:ea:00:9a:
                    59:92:13:ed:78:b4:3b:ef:8b:f2:3a:98:4d:76:89:
                    d7:61:9a:70:fc:a7:28:f8:2c:14:d4:a7:8c:e6:ef:
                    69:2e:df:48:7e:7f:9d:ac:21:66:37:6c:3c:79:f2:
                    f6:28:c8:5e:2c:72:70:f9:28:b1:50:3e:22:c8:9f:
                    76:20:b9:a2:6c:76:b1:b0:d7:68:94:b8:75:3e:42:
                    33:58:d0:cc:ef:15:41:a8:54:5f:87:53:c9:08:4b:
                    0e:35
                Exponent: 65537 (0x10001)
        X509v3 extensions:
            X509v3 Basic Constraints: 
                CA:TRUE
            X509v3 Subject Key Identifier: 
                D4:69:7C:24:C4:EC:F5:A0:21:A4:AD:2B:55:A2:A3:A9:86:B2:99:9B
            X509v3 Authority Key Identifier: 
                keyid:06:DC:DA:6A:EC:0A:7C:C3:36:BC:7F:9C:DC:D0:7E:41:A2:04:F7:12
                DirName:/ST=KA/C=IN/CN=OneCA4096_server/emailAddress=OneCA4096@test_ca.com/O=CITRIX
                serial:02

    Signature Algorithm: sha1WithRSAEncryption
         8e:8c:68:c5:c0:90:ef:d2:09:a4:49:ec:1b:7b:38:c9:03:85:
         16:6d:a0:b4:22:64:96:47:15:cf:90:ba:6a:e2:e7:68:ea:10:
         7c:e3:4d:fa:b0:22:a1:8c:d2:0e:f2:f4:f2:ee:57:e9:27:b2:
         28:ee:96:a3:1b:b8:bc:11:06:02:72:c2:2e:93:c6:9a:c5:d5:
         d4:d2:95:28:10:2b:ff:8a:c3:16:2d:34:22:33:d4:e8:ce:11:
         7d:bd:fd:a4:05:25:7e:08:32:47:79:1e:c1:46:79:26:41:16:
         ef:a5:28:42:45:74:7f:14:1c:d3:51:d4:e4:64:8e:cc:14:82:
         9b:b5
-----BEGIN CERTIFICATE-----
MIIDqzCCAxSgAwIBAgIMAQIDBAECAwQBAgMFMA0GCSqGSIb3DQEBBQUAMGwxCzAJ
BgNVBAgTAktBMQswCQYDVQQGEwJJTjEZMBcGA1UEAxQQVHdvQ0ExMDI0X3NlcnZl
cjEkMCIGCSqGSIb3DQEJARYVVHdvQ0ExMDI0QHRlc3RfY2EuY29tMQ8wDQYDVQQK
EwZDSVRSSVgwHhcNMTcwMzI4MTMyMzQ1WhcNMjcwMzI2MTMyMzQ1WjBwMQswCQYD
VQQIEwJLQTELMAkGA1UEBhMCSU4xGzAZBgNVBAMUElRocmVlQ0EyMDQ4X3NlcnZl
cjEmMCQGCSqGSIb3DQEJARYXVGhyZWVDQTIwNDhAdGVzdF9jYS5jb20xDzANBgNV
BAoTBkNJVFJJWDCCASIwDQYJKoZIhvcNAQEBBQADggEPADCCAQoCggEBAM2lUFzR
NvBz6O9xm9oGFoQI2Bz95QRhuLYzrLU8p+SxgeM6i/ijmVuRPDOCzg67k3Q4DGxX
282RRKZ32lSsPGILBhnwbu0la9lFQYQ0jvnPoXeo7wklx2bqKmnI6xDXD7xpQ1Qx
+6ow6jc+aldg8rG/EC4bqE6DL153TAG5JlYOiX5Om7tAhT6xrXJrCPmht2/GcbVo
jEfugGBY756Sk/dl6gCaWZIT7Xi0O++L8jqYTXaJ12GacPynKPgsFNSnjObvaS7f
SH5/nawhZjdsPHny9ijIXixycPkosVA+IsifdiC5omx2sbDXaJS4dT5CM1jQzO8V
QahUX4dTyQhLDjUCAwEAAaOByTCBxjAMBgNVHRMEBTADAQH/MB0GA1UdDgQWBBTU
aXwkxOz1oCGkrStVoqOphrKZmzCBlgYDVR0jBIGOMIGLgBQG3Npq7Ap8wza8f5zc
0H5BogT3EqFwpG4wbDELMAkGA1UECBMCS0ExCzAJBgNVBAYTAklOMRkwFwYDVQQD
FBBPbmVDQTQwOTZfc2VydmVyMSQwIgYJKoZIhvcNAQkBFhVPbmVDQTQwOTZAdGVz
dF9jYS5jb20xDzANBgNVBAoTBkNJVFJJWIIBAjANBgkqhkiG9w0BAQUFAAOBgQCO
jGjFwJDv0gmkSewbezjJA4UWbaC0ImSWRxXPkLpq4udo6hB84036sCKhjNIO8vTy
7lfpJ7Io7pajG7i8EQYCcsIuk8aaxdXU0pUoECv/isMWLTQiM9TozhF9vf2kBSV+
CDJHeR7BRnkmQRbvpShCRXR/FBzTUdTkZI7MFIKbtQ==
-----END CERTIFICATE-----
