Certificate:
    Data:
        Version: 3 (0x2)
        Serial Number: 2 (0x2)
    Signature Algorithm: sha1WithRSAEncryption
        Issuer: ST=KA, C=IN, CN=OneCA4096_server/emailAddress=OneCA4096@test_ca.com, O=CITRIX
        Validity
            Not Before: Mar 28 13:22:17 2017 GMT
            Not After : Mar 26 13:22:17 2027 GMT
        Subject: ST=KA, C=IN, CN=TwoCA1024_server/emailAddress=TwoCA1024@test_ca.com, O=CITRIX
        Subject Public Key Info:
            Public Key Algorithm: rsaEncryption
                Public-Key: (1024 bit)
                Modulus:
                    00:c6:76:81:08:27:8c:2c:c6:a5:dc:2a:5b:fd:d8:
                    b4:fb:1d:f4:f3:95:52:eb:c6:0d:b8:6b:15:66:db:
                    c1:2e:ee:63:b4:e0:f2:3b:0c:96:59:53:8b:c3:9c:
                    a9:fd:b8:d0:38:3a:a0:93:cb:69:1f:ff:bf:11:0d:
                    5a:98:45:01:ab:80:05:33:92:5a:7a:d4:b8:37:04:
                    79:14:1d:79:67:67:be:47:cb:63:05:2e:72:dc:6d:
                    f3:fa:e5:33:51:8e:ca:ed:05:d2:32:0c:0e:4c:2f:
                    dd:9f:8e:f3:12:40:95:fd:ed:e6:e5:d5:4c:c4:7c:
                    e1:8a:c8:9b:d5:89:92:7d:43
                Exponent: 65537 (0x10001)
        X509v3 extensions:
            X509v3 Basic Constraints: 
                CA:TRUE
            X509v3 Subject Key Identifier: 
                06:DC:DA:6A:EC:0A:7C:C3:36:BC:7F:9C:DC:D0:7E:41:A2:04:F7:12
            X509v3 Authority Key Identifier: 
                keyid:1B:C7:66:A0:59:A5:74:3A:71:D2:FB:FA:A9:B1:28:5B:1D:4F:48:10
                DirName:/CN=RootServer2048CA/ST=KA/C=IN/emailAddress=RootServer2048CA@RootServer2048CA.com/O=CITRIX
                serial:0A:0B:0C:0D:0E:01:02:03:05

    Signature Algorithm: sha1WithRSAEncryption
         6f:4a:e1:98:e3:fe:09:58:6e:36:48:c3:e8:1e:3b:bd:0d:6a:
         5d:0b:3b:b0:f9:ca:31:e8:01:04:a6:21:06:0b:e1:cc:45:9f:
         79:a8:12:94:7d:39:be:ea:ed:5b:40:34:f9:c0:49:b3:28:69:
         82:3d:d2:12:95:e4:02:52:cc:a1:86:7a:66:10:b3:00:39:92:
         9f:1a:20:c3:ff:73:51:b5:08:e2:7c:81:5f:46:e7:c8:b2:a4:
         2e:9d:0c:32:eb:97:3f:67:b6:18:1e:db:19:29:24:c4:72:1e:
         9c:b6:18:f1:74:20:66:52:6f:3c:30:56:13:76:7b:cf:71:48:
         6e:c6:28:db:94:23:46:4b:65:11:3e:c1:7f:b6:62:15:22:3d:
         98:c1:05:b1:ac:fe:0d:30:c4:33:e5:d5:c6:75:3c:05:b8:22:
         48:e4:32:cb:86:11:7f:f5:bd:42:39:69:c6:a2:28:91:fb:46:
         f1:c7:d2:2e:e7:90:3b:e5:1a:86:78:cb:73:d5:51:7b:07:9e:
         92:41:bd:f5:c9:19:ed:63:f8:71:11:0d:c7:ee:41:71:a1:49:
         23:5f:46:0f:35:40:f4:3c:9c:0f:15:d4:cc:ef:40:75:2a:59:
         c6:36:81:f1:2c:d9:fe:e4:c3:7c:ea:76:19:86:2d:bd:ea:5d:
         f6:bf:25:aa:8e:2e:7e:30:fd:25:39:7b:32:ee:f7:0f:c2:8f:
         7f:2f:e1:1b:dd:1c:33:0a:43:36:dd:eb:b2:1e:2c:a3:62:ea:
         1a:bd:4d:a5:8c:32:be:ae:79:49:ca:4c:71:74:b8:b3:5b:69:
         ec:64:9f:d1:5e:fc:bb:a6:bb:af:16:4b:3d:68:5e:35:7f:52:
         a9:dd:b4:6d:91:38:6f:01:b1:94:ca:0b:de:85:13:cc:8f:20:
         c1:05:43:88:2e:f0:c3:3c:a0:a2:22:d7:c0:c3:7d:76:20:98:
         f9:b3:76:bc:34:6d:e4:a6:a0:dd:47:f9:49:27:83:ff:2f:a4:
         22:cc:a5:1d:85:30:33:17:66:63:e1:7e:fe:5d:52:02:9b:81:
         82:80:e7:ed:34:e8:8b:09:54:43:33:9c:89:7b:8b:cd:42:4a:
         8c:bd:03:1c:11:fc:64:84:b8:7f:aa:f1:b0:0c:e6:e6:b6:1f:
         ac:a5:2c:22:5e:24:1f:3e:d8:58:74:c4:85:98:37:06:87:63:
         b3:47:9f:64:12:fc:d6:77:53:a7:83:58:5c:3f:9e:db:6e:d5:
         a1:3b:49:8e:78:ee:6d:3a:a8:bd:6c:f7:8c:dd:f8:05:2a:5b:
         5b:a3:5f:1b:af:6b:4c:0e:08:1b:d8:ab:c5:14:f8:a4:f7:2c:
         c1:b0:0c:9e:68:2c:6c:69
-----BEGIN CERTIFICATE-----
MIIEsjCCApqgAwIBAgIBAjANBgkqhkiG9w0BAQUFADBsMQswCQYDVQQIEwJLQTEL
MAkGA1UEBhMCSU4xGTAXBgNVBAMUEE9uZUNBNDA5Nl9zZXJ2ZXIxJDAiBgkqhkiG
9w0BCQEWFU9uZUNBNDA5NkB0ZXN0X2NhLmNvbTEPMA0GA1UEChMGQ0lUUklYMB4X
DTE3MDMyODEzMjIxN1oXDTI3MDMyNjEzMjIxN1owbDELMAkGA1UECBMCS0ExCzAJ
BgNVBAYTAklOMRkwFwYDVQQDFBBUd29DQTEwMjRfc2VydmVyMSQwIgYJKoZIhvcN
AQkBFhVUd29DQTEwMjRAdGVzdF9jYS5jb20xDzANBgNVBAoTBkNJVFJJWDCBnzAN
BgkqhkiG9w0BAQEFAAOBjQAwgYkCgYEAxnaBCCeMLMal3Cpb/di0+x3085VS68YN
uGsVZtvBLu5jtODyOwyWWVOLw5yp/bjQODqgk8tpH/+/EQ1amEUBq4AFM5JaetS4
NwR5FB15Z2e+R8tjBS5y3G3z+uUzUY7K7QXSMgwOTC/dn47zEkCV/e3m5dVMxHzh
isib1YmSfUMCAwEAAaOB4jCB3zAMBgNVHRMEBTADAQH/MB0GA1UdDgQWBBQG3Npq
7Ap8wza8f5zc0H5BogT3EjCBrwYDVR0jBIGnMIGkgBQbx2agWaV0OnHS+/qpsShb
HU9IEKGBgKR+MHwxGTAXBgNVBAMTEFJvb3RTZXJ2ZXIyMDQ4Q0ExCzAJBgNVBAgT
AktBMQswCQYDVQQGEwJJTjE0MDIGCSqGSIb3DQEJARYlUm9vdFNlcnZlcjIwNDhD
QUBSb290U2VydmVyMjA0OENBLmNvbTEPMA0GA1UEChMGQ0lUUklYggkKCwwNDgEC
AwUwDQYJKoZIhvcNAQEFBQADggIBAG9K4Zjj/glYbjZIw+geO70Nal0LO7D5yjHo
AQSmIQYL4cxFn3moEpR9Ob7q7VtANPnASbMoaYI90hKV5AJSzKGGemYQswA5kp8a
IMP/c1G1COJ8gV9G58iypC6dDDLrlz9nthge2xkpJMRyHpy2GPF0IGZSbzwwVhN2
e89xSG7GKNuUI0ZLZRE+wX+2YhUiPZjBBbGs/g0wxDPl1cZ1PAW4IkjkMsuGEX/1
vUI5acaiKJH7RvHH0i7nkDvlGoZ4y3PVUXsHnpJBvfXJGe1j+HERDcfuQXGhSSNf
Rg81QPQ8nA8V1MzvQHUqWcY2gfEs2f7kw3zqdhmGLb3qXfa/JaqOLn4w/SU5ezLu
9w/Cj38v4RvdHDMKQzbd67IeLKNi6hq9TaWMMr6ueUnKTHF0uLNbaexkn9Fe/Lum
u68WSz1oXjV/UqndtG2ROG8BsZTKC96FE8yPIMEFQ4gu8MM8oKIi18DDfXYgmPmz
drw0beSmoN1H+Ukng/8vpCLMpR2FMDMXZmPhfv5dUgKbgYKA5+006IsJVEMznIl7
i81CSoy9AxwR/GSEuH+q8bAM5ua2H6ylLCJeJB8+2Fh0xIWYNwaHY7NHn2QS/NZ3
U6eDWFw/nttu1aE7SY547m06qL1s94zd+AUqW1ujXxuva0wOCBvYq8UU+KT3LMGw
DJ5oLGxp
-----END CERTIFICATE-----
