Certificate:
    Data:
        Version: 3 (0x2)
        Serial Number:
            01:02:03:04:05:06:07:08:09:0a:0b:0c:0d:0e:11
    Signature Algorithm: sha1WithRSAEncryption
        Issuer: ST=KA, C=IN, CN=FourCA4096_server/emailAddress=FourCA4096@test_ca.com, O=CITRIX
        Validity
            Not Before: Mar 28 13:26:40 2017 GMT
            Not After : Mar 26 13:26:40 2027 GMT
        Subject: ST=KA, C=IN, CN=server4096_server/emailAddress=server4096@test_ca.com, O=CITRIX
        Subject Public Key Info:
            Public Key Algorithm: rsaEncryption
                Public-Key: (4096 bit)
                Modulus:
                    00:c4:85:6a:e8:7a:a5:65:64:93:09:82:b4:9a:35:
                    ac:cf:d2:18:da:fb:a8:75:b8:c5:68:bc:e3:77:7a:
                    4e:12:96:cb:ab:87:57:3b:08:18:6b:c7:58:52:ed:
                    10:66:c9:c7:3b:05:fd:4a:6a:7f:e2:9a:df:0f:fe:
                    18:cd:b7:c9:ab:3d:1b:bd:f9:f6:90:7c:e4:c1:ff:
                    50:f1:bd:36:24:75:59:a1:a2:27:8f:3a:3b:6d:c1:
                    ea:b4:4f:f7:90:23:49:c2:1d:66:ea:83:9b:1f:d0:
                    c4:40:98:62:05:45:64:be:3d:6d:a7:98:dd:7c:41:
                    b7:a0:4d:5d:c6:44:c2:b2:62:9d:6b:2e:33:30:2e:
                    69:df:af:79:69:a7:ea:44:9c:18:4a:aa:67:e4:65:
                    99:04:d8:e3:3b:75:dd:37:87:56:02:4f:b0:8f:04:
                    a6:9b:c8:ec:c8:6d:39:03:c0:be:2d:bd:2e:f7:f5:
                    62:f4:c6:cb:e7:89:a3:1a:0c:51:3c:c4:41:ab:b8:
                    06:6d:16:b9:42:1f:92:93:6b:d4:8a:64:47:b5:90:
                    68:05:34:32:ea:dc:d5:d6:b6:35:5e:49:8d:04:10:
                    43:a4:bf:e0:96:d3:33:d4:bd:1a:63:63:8f:21:71:
                    02:a9:58:3b:2d:8d:4d:0e:eb:0c:e6:3b:4c:ad:ea:
                    17:d0:db:44:c1:a5:c1:65:64:4a:2c:18:f9:8b:b0:
                    d0:95:ce:70:b6:16:f4:08:12:93:73:99:c8:4e:c6:
                    c2:f6:23:39:0b:0e:87:a4:66:4e:a0:2d:c0:ed:ff:
                    9c:e2:5c:6a:2c:41:e4:6a:1f:55:33:ca:1c:12:d4:
                    ba:e2:5b:b7:30:ff:77:5d:aa:bd:56:e8:a9:9e:46:
                    55:87:c2:93:32:7a:9b:95:67:4e:29:c3:b3:77:4d:
                    b3:55:46:cb:c5:0a:87:6f:44:63:46:80:18:70:c1:
                    63:fa:9d:5d:31:ff:d8:bd:06:4c:c9:5a:80:a5:05:
                    7a:a2:6f:f2:7e:2a:e1:ed:fa:8b:45:7f:66:6f:f5:
                    eb:da:d2:7f:99:dd:8b:70:49:c0:75:c8:1c:a2:d8:
                    a1:01:37:95:67:c2:06:b0:ae:80:25:9f:b2:26:17:
                    f8:1b:10:a6:a7:bf:0b:86:3c:d4:eb:88:ed:bd:f0:
                    6e:1c:22:35:fd:3e:1f:33:7b:ee:12:7f:3e:ce:fb:
                    c7:a3:46:ab:f0:db:ec:da:bb:f2:ff:91:b5:db:8e:
                    02:66:fd:64:80:35:ed:b0:09:fd:3b:65:a0:ca:27:
                    79:07:bb:c4:2d:c3:41:46:1f:72:8f:eb:83:1e:12:
                    a9:11:40:99:fa:59:8d:64:f9:63:46:5f:2e:21:d2:
                    cd:f6:27
                Exponent: 65537 (0x10001)
        X509v3 extensions:
            Netscape Cert Type: 
                SSL Server
            X509v3 Key Usage: 
                Digital Signature, Non Repudiation, Key Encipherment
            X509v3 Subject Alternative Name: 
                DNS:server2048.FourCA4096.com, email:server2048@FourCA4096.com
            X509v3 Subject Key Identifier: 
                09:00:20:09:AA:C0:EB:EB:4C:F2:8F:52:F8:E4:3E:2A:DF:16:E8:67
            X509v3 Authority Key Identifier: 
                keyid:CA:9B:11:19:6D:C6:BA:AC:11:9A:C6:8C:2F:8F:EE:37:A5:6E:6A:D7
                DirName:/ST=KA/C=IN/CN=ThreeCA2048_server/emailAddress=ThreeCA2048@test_ca.com/O=CITRIX
                serial:0B:0D

    Signature Algorithm: sha1WithRSAEncryption
         a6:48:f3:67:97:dd:01:c2:c0:d8:2e:c2:89:cb:58:77:5a:65:
         f7:f6:94:62:0b:a3:b6:c8:37:8a:c0:3a:a3:be:3b:ce:5f:66:
         0b:58:32:5e:59:1f:91:50:23:40:7e:93:67:b0:b2:8c:bc:bb:
         c5:56:65:f4:91:aa:ee:6d:d6:9e:2a:7a:27:15:b3:4e:3c:1e:
         93:22:27:b4:3e:b5:7b:7e:9a:47:80:59:f7:4f:75:54:e5:24:
         04:5b:ac:6f:af:ca:f2:ac:3f:46:ce:3d:1a:45:c6:47:d6:af:
         83:dd:0b:3b:6c:a5:a0:91:b5:34:a9:ce:c6:a5:25:e4:46:04:
         a2:78:f3:92:95:b7:a5:14:40:f7:1a:a4:9e:b0:ac:69:2f:09:
         c3:10:e7:e4:cb:92:c8:56:07:29:02:e4:cf:a9:69:3c:d1:8d:
         9e:1b:25:9e:4d:13:42:ea:19:c6:63:3e:ac:21:d1:cf:56:cd:
         da:23:de:19:1f:f0:04:6b:bd:9c:d5:84:57:c3:ab:2e:14:c9:
         40:a7:1a:ca:66:d7:0d:33:4b:5b:6a:a5:f6:7a:f9:a9:2f:37:
         e0:98:f9:02:84:3d:d4:91:03:d2:9b:99:fc:df:44:e4:8e:fc:
         7b:a0:0b:99:e9:4d:ce:e4:ee:12:18:c9:ee:da:b9:23:8c:e3:
         39:5d:50:53:9a:96:d8:e0:af:4a:d3:cf:c6:cf:5a:4f:23:2f:
         bd:94:3c:f8:d2:da:e5:fd:3b:90:15:9e:17:19:e5:21:a1:44:
         52:a0:64:f6:f5:fe:6f:d6:3f:78:ec:81:a8:14:0c:02:ee:32:
         55:73:61:47:04:50:97:13:d1:2e:95:a6:44:92:4a:cf:8c:e5:
         95:7c:ce:da:52:ce:a3:9b:87:88:9e:f3:8e:b7:58:cb:ea:75:
         6f:f3:30:6a:6b:bd:e0:5c:a4:3e:b8:e1:ca:a0:cb:da:3c:73:
         3a:b4:17:17:0c:67:e3:88:5e:3f:48:fd:a3:c4:93:f0:15:33:
         93:df:3b:74:2a:54:4c:82:cd:aa:fa:0e:0c:4f:02:cd:a1:4f:
         23:40:8e:10:df:15:4a:82:45:12:5c:87:18:e3:ea:cf:80:bb:
         42:19:d1:7a:0b:d9:23:9e:97:85:67:06:93:85:02:b6:54:5a:
         d4:fc:53:09:28:09:4d:d0:24:4c:aa:fc:5a:4e:db:07:68:82:
         77:1a:a8:e1:66:cf:44:66:4d:03:64:b0:1c:6a:84:7a:8a:f9:
         18:10:7a:fc:67:ee:27:9c:79:7a:8a:30:bc:7a:8f:39:1b:b1:
         7d:9e:e7:ab:61:ce:d3:26:ae:8f:17:99:b7:ba:b3:d3:b4:8c:
         fa:bf:08:df:00:37:d6:00
-----BEGIN CERTIFICATE-----
MIIGiTCCBHGgAwIBAgIPAQIDBAUGBwgJCgsMDQ4RMA0GCSqGSIb3DQEBBQUAMG4x
CzAJBgNVBAgTAktBMQswCQYDVQQGEwJJTjEaMBgGA1UEAxQRRm91ckNBNDA5Nl9z
ZXJ2ZXIxJTAjBgkqhkiG9w0BCQEWFkZvdXJDQTQwOTZAdGVzdF9jYS5jb20xDzAN
BgNVBAoTBkNJVFJJWDAeFw0xNzAzMjgxMzI2NDBaFw0yNzAzMjYxMzI2NDBaMG4x
CzAJBgNVBAgTAktBMQswCQYDVQQGEwJJTjEaMBgGA1UEAxQRc2VydmVyNDA5Nl9z
ZXJ2ZXIxJTAjBgkqhkiG9w0BCQEWFnNlcnZlcjQwOTZAdGVzdF9jYS5jb20xDzAN
BgNVBAoTBkNJVFJJWDCCAiIwDQYJKoZIhvcNAQEBBQADggIPADCCAgoCggIBAMSF
auh6pWVkkwmCtJo1rM/SGNr7qHW4xWi843d6ThKWy6uHVzsIGGvHWFLtEGbJxzsF
/Upqf+Ka3w/+GM23yas9G7359pB85MH/UPG9NiR1WaGiJ486O23B6rRP95AjScId
ZuqDmx/QxECYYgVFZL49baeY3XxBt6BNXcZEwrJinWsuMzAuad+veWmn6kScGEqq
Z+RlmQTY4zt13TeHVgJPsI8EppvI7MhtOQPAvi29Lvf1YvTGy+eJoxoMUTzEQau4
Bm0WuUIfkpNr1IpkR7WQaAU0Murc1da2NV5JjQQQQ6S/4JbTM9S9GmNjjyFxAqlY
Oy2NTQ7rDOY7TK3qF9DbRMGlwWVkSiwY+Yuw0JXOcLYW9AgSk3OZyE7GwvYjOQsO
h6RmTqAtwO3/nOJcaixB5GofVTPKHBLUuuJbtzD/d12qvVboqZ5GVYfCkzJ6m5Vn
TinDs3dNs1VGy8UKh29EY0aAGHDBY/qdXTH/2L0GTMlagKUFeqJv8n4q4e36i0V/
Zm/169rSf5ndi3BJwHXIHKLYoQE3lWfCBrCugCWfsiYX+BsQpqe/C4Y81OuI7b3w
bhwiNf0+HzN77hJ/Ps77x6NGq/Db7Nq78v+RtduOAmb9ZIA17bAJ/TtloMoneQe7
xC3DQUYfco/rgx4SqRFAmfpZjWT5Y0ZfLiHSzfYnAgMBAAGjggEiMIIBHjARBglg
hkgBhvhCAQEEBAMCBkAwCwYDVR0PBAQDAgXgMD8GA1UdEQQ4MDaCGXNlcnZlcjIw
NDguRm91ckNBNDA5Ni5jb22BGXNlcnZlcjIwNDhARm91ckNBNDA5Ni5jb20wHQYD
VR0OBBYEFAkAIAmqwOvrTPKPUvjkPirfFuhnMIGbBgNVHSMEgZMwgZCAFMqbERlt
xrqsEZrGjC+P7jelbmrXoXSkcjBwMQswCQYDVQQIEwJLQTELMAkGA1UEBhMCSU4x
GzAZBgNVBAMUElRocmVlQ0EyMDQ4X3NlcnZlcjEmMCQGCSqGSIb3DQEJARYXVGhy
ZWVDQTIwNDhAdGVzdF9jYS5jb20xDzANBgNVBAoTBkNJVFJJWIICCw0wDQYJKoZI
hvcNAQEFBQADggIBAKZI82eX3QHCwNguwonLWHdaZff2lGILo7bIN4rAOqO+O85f
ZgtYMl5ZH5FQI0B+k2ewsoy8u8VWZfSRqu5t1p4qeicVs048HpMiJ7Q+tXt+mkeA
WfdPdVTlJARbrG+vyvKsP0bOPRpFxkfWr4PdCztspaCRtTSpzsalJeRGBKJ485KV
t6UUQPcapJ6wrGkvCcMQ5+TLkshWBykC5M+paTzRjZ4bJZ5NE0LqGcZjPqwh0c9W
zdoj3hkf8ARrvZzVhFfDqy4UyUCnGspm1w0zS1tqpfZ6+akvN+CY+QKEPdSRA9Kb
mfzfROSO/HugC5npTc7k7hIYye7auSOM4zldUFOaltjgr0rTz8bPWk8jL72UPPjS
2uX9O5AVnhcZ5SGhRFKgZPb1/m/WP3jsgagUDALuMlVzYUcEUJcT0S6VpkSSSs+M
5ZV8ztpSzqObh4ie8463WMvqdW/zMGprveBcpD644cqgy9o8czq0FxcMZ+OIXj9I
/aPEk/AVM5PfO3QqVEyCzar6DgxPAs2hTyNAjhDfFUqCRRJchxjj6s+Au0IZ0XoL
2SOel4VnBpOFArZUWtT8UwkoCU3QJEyq/FpO2wdogncaqOFmz0RmTQNksBxqhHqK
+RgQevxn7ieceXqKMLx6jzkbsX2e56thztMmro8Xmbe6s9O0jPq/CN8AN9YA
-----END CERTIFICATE-----
-----BEGIN DH PARAMETERS-----
MIGHAoGBAM9jEe/2F64UAiEMDENNTPiMA3UzE6JIStFzO39L+g8oU/VOWg9bOd8H
qeZuISreW9xQx50HewAJdrUHcz5OiP8J2bPDUAZlo8GN/Dpdv9vXWQE+Fo+RaD5O
jAt+23/ovEYVsdwz4YLWNP4BK0icWymUT77NqyaLhloyLWYSQvTjAgEF
-----END DH PARAMETERS-----
