Certificate:
    Data:
        Version: 3 (0x2)
        Serial Number: 11042563100188 (0xa0b0c0d0e1c)
    Signature Algorithm: sha256WithRSAEncryption
        Issuer: CN=BANGALORECA_CA, C=IN, O=CITRIX, OU=ANG, ST=KA/emailAddress=BANGALORECA_CA@BANGALORECA_mail.com
        Validity
            Not Before: Jul  8 04:31:24 2016 GMT
            Not After : Jul  6 04:31:24 2026 GMT
        Subject: ST=KA, C=IN, CN=114_BANGALORECA_server/emailAddress=114_BANGALORECA@test_ca.com, O=CITRIX
        Subject Public Key Info:
            Public Key Algorithm: rsaEncryption
                Public-Key: (2048 bit)
                Modulus:
                    00:a6:4c:02:18:b9:96:35:7c:1a:82:cd:d1:e5:73:
                    25:15:69:b8:c4:9a:4a:f5:61:c5:6d:77:9e:f2:60:
                    aa:cb:a9:34:fd:a2:13:8f:69:22:12:a4:76:e9:9d:
                    65:ee:c4:83:ff:9e:49:f2:a8:7c:4e:a8:54:02:17:
                    e3:57:39:44:8c:23:c0:b3:59:e7:f7:a7:93:26:f0:
                    34:1f:34:13:ac:46:ec:e6:a3:7c:70:4f:e8:38:2a:
                    1b:7e:4b:17:de:de:d7:39:32:2b:81:3f:ab:79:03:
                    f2:5e:f3:7f:b4:09:34:e6:03:66:ec:ed:91:17:aa:
                    c6:a0:02:15:96:81:b3:7d:7f:8e:cf:77:fc:a5:c5:
                    24:03:a1:20:1b:66:61:56:17:2c:fe:76:6e:3b:5a:
                    04:82:3b:96:cd:9b:42:e6:a4:e8:d1:a2:75:3c:ac:
                    b0:e5:fb:2d:72:dc:63:0e:9f:87:ec:32:7b:1f:2a:
                    5f:d1:26:6d:58:5b:a1:04:2c:75:0c:0a:b4:f4:c0:
                    45:c2:4c:2d:8a:cb:a0:75:a5:6a:f3:18:56:57:c2:
                    9b:7e:15:27:3f:e8:a6:f3:bb:86:fd:bb:fe:7e:2e:
                    9c:66:ee:2c:c3:42:15:b7:92:dc:b6:04:5a:c9:0c:
                    ae:1c:64:42:2b:ab:ac:d2:49:8c:3b:34:f5:88:dc:
                    fa:bb
                Exponent: 65537 (0x10001)
        X509v3 extensions:
            Netscape Cert Type: 
                SSL Server
            X509v3 Subject Key Identifier: 
                DE:D2:95:06:89:A6:55:F4:B4:4D:6D:86:3E:4C:C2:39:39:69:13:FA
            X509v3 Authority Key Identifier: 
                keyid:3B:D6:D1:53:18:87:05:22:BB:EE:C3:0F:F5:CE:0F:6B:A2:93:A7:B8
                DirName:/CN=BANGALORECA_CA/C=IN/O=CITRIX/OU=ANG/ST=KA/emailAddress=BANGALORECA_CA@BANGALORECA_mail.com
                serial:A1:AC:B4:DA:46:53:58:40

            Authority Information Access: 
                OCSP - URI:http://BANGALORECA_two.ocsptest.com/responderpath

    Signature Algorithm: sha256WithRSAEncryption
         5a:49:dd:8c:90:4d:55:cc:f1:cd:cf:95:57:af:90:a1:2f:90:
         a8:1a:49:24:cd:db:08:7a:8e:22:3e:7a:a3:3e:28:7e:65:db:
         f5:b9:58:9d:ab:bb:08:e6:6f:dc:09:c6:d7:a4:cf:6a:40:90:
         32:f9:34:fe:5a:ce:89:2a:ac:a4:6e:5c:f4:3e:93:59:21:d9:
         a3:e4:81:9e:85:2b:34:62:dd:ff:09:7e:bf:01:61:0f:84:c3:
         03:d5:ec:8d:97:55:4e:40:d2:c4:c5:54:c7:dd:96:20:08:e8:
         2c:74:a0:b1:64:c0:63:9f:e8:19:9a:3a:92:3c:1f:23:65:9e:
         ad:b6:7e:ca:46:58:e0:1d:e0:49:13:e6:4b:53:e5:d1:fb:4a:
         bb:44:61:24:83:d6:6b:3b:85:04:b0:5b:52:43:33:e3:8c:1e:
         5f:08:b1:0a:f1:a5:40:a0:be:95:f9:ec:0f:49:fc:c7:d4:43:
         9c:57:77:57:dd:51:a6:0e:cd:4e:3f:a1:9a:0a:4f:73:e2:e9:
         36:88:a8:df:72:1a:18:54:a7:59:f0:1a:0e:d8:76:e4:52:23:
         9c:6c:63:d5:e3:18:f5:0f:0f:27:b5:bf:b5:0d:f5:d2:36:ac:
         f4:9a:67:5d:f9:20:10:9d:ba:e3:0e:b2:c0:9a:fe:68:0d:68:
         52:f3:5c:1f
-----BEGIN CERTIFICATE-----
MIIExDCCA6ygAwIBAgIGCgsMDQ4cMA0GCSqGSIb3DQEBCwUAMIGGMRcwFQYDVQQD
FA5CQU5HQUxPUkVDQV9DQTELMAkGA1UEBhMCSU4xDzANBgNVBAoTBkNJVFJJWDEM
MAoGA1UECxMDQU5HMQswCQYDVQQIEwJLQTEyMDAGCSqGSIb3DQEJARYjQkFOR0FM
T1JFQ0FfQ0FAQkFOR0FMT1JFQ0FfbWFpbC5jb20wHhcNMTYwNzA4MDQzMTI0WhcN
MjYwNzA2MDQzMTI0WjB4MQswCQYDVQQIEwJLQTELMAkGA1UEBhMCSU4xHzAdBgNV
BAMUFjExNF9CQU5HQUxPUkVDQV9zZXJ2ZXIxKjAoBgkqhkiG9w0BCQEWGzExNF9C
QU5HQUxPUkVDQUB0ZXN0X2NhLmNvbTEPMA0GA1UEChMGQ0lUUklYMIIBIjANBgkq
hkiG9w0BAQEFAAOCAQ8AMIIBCgKCAQEApkwCGLmWNXwags3R5XMlFWm4xJpK9WHF
bXee8mCqy6k0/aITj2kiEqR26Z1l7sSD/55J8qh8TqhUAhfjVzlEjCPAs1nn96eT
JvA0HzQTrEbs5qN8cE/oOCobfksX3t7XOTIrgT+reQPyXvN/tAk05gNm7O2RF6rG
oAIVloGzfX+Oz3f8pcUkA6EgG2ZhVhcs/nZuO1oEgjuWzZtC5qTo0aJ1PKyw5fst
ctxjDp+H7DJ7Hypf0SZtWFuhBCx1DAq09MBFwkwtisugdaVq8xhWV8KbfhUnP+im
87uG/bv+fi6cZu4sw0IVt5LctgRayQyuHGRCK6us0kmMOzT1iNz6uwIDAQABo4IB
QzCCAT8wEQYJYIZIAYb4QgEBBAQDAgZAMB0GA1UdDgQWBBTe0pUGiaZV9LRNbYY+
TMI5OWkT+jCBuwYDVR0jBIGzMIGwgBQ71tFTGIcFIrvuww/1zg9ropOnuKGBjKSB
iTCBhjEXMBUGA1UEAxQOQkFOR0FMT1JFQ0FfQ0ExCzAJBgNVBAYTAklOMQ8wDQYD
VQQKEwZDSVRSSVgxDDAKBgNVBAsTA0FORzELMAkGA1UECBMCS0ExMjAwBgkqhkiG
9w0BCQEWI0JBTkdBTE9SRUNBX0NBQEJBTkdBTE9SRUNBX21haWwuY29tggkAoay0
2kZTWEAwTQYIKwYBBQUHAQEEQTA/MD0GCCsGAQUFBzABhjFodHRwOi8vQkFOR0FM
T1JFQ0FfdHdvLm9jc3B0ZXN0LmNvbS9yZXNwb25kZXJwYXRoMA0GCSqGSIb3DQEB
CwUAA4IBAQBaSd2MkE1VzPHNz5VXr5ChL5CoGkkkzdsIeo4iPnqjPih+Zdv1uVid
q7sI5m/cCcbXpM9qQJAy+TT+Ws6JKqykblz0PpNZIdmj5IGehSs0Yt3/CX6/AWEP
hMMD1eyNl1VOQNLExVTH3ZYgCOgsdKCxZMBjn+gZmjqSPB8jZZ6ttn7KRljgHeBJ
E+ZLU+XR+0q7RGEkg9ZrO4UEsFtSQzPjjB5fCLEK8aVAoL6V+ewPSfzH1EOcV3dX
3VGmDs1OP6GaCk9z4uk2iKjfchoYVKdZ8BoO2HbkUiOcbGPV4xj1Dw8ntb+1DfXS
Nqz0mmdd+SAQnbrjDrLAmv5oDWhS81wf
-----END CERTIFICATE-----
