Certificate:
    Data:
        Version: 3 (0x2)
        Serial Number: 11042563100196 (0xa0b0c0d0e24)
    Signature Algorithm: sha256WithRSAEncryption
        Issuer: CN=BANGALORECA_CA, C=IN, O=CITRIX, OU=ANG, ST=KA/emailAddress=BANGALORECA_CA@BANGALORECA_mail.com
        Validity
            Not Before: Jul  8 04:31:26 2016 GMT
            Not After : Jul  6 04:31:26 2026 GMT
        Subject: ST=KA, C=IN, CN=122_BANGALORECA_server/emailAddress=122_BANGALORECA@test_ca.com, O=CITRIX
        Subject Public Key Info:
            Public Key Algorithm: rsaEncryption
                Public-Key: (2048 bit)
                Modulus:
                    00:bb:2c:56:73:68:cb:01:e2:e9:10:da:3b:8c:e5:
                    99:32:64:60:a1:c7:5c:33:3f:41:3b:24:a8:5d:31:
                    f1:af:1c:2a:b1:c6:f8:d4:40:4c:72:17:95:c9:c3:
                    73:87:be:72:62:24:9b:41:ad:c5:f6:ba:0a:c7:8f:
                    af:fd:0c:9e:55:c8:50:0d:dd:7c:34:19:25:9c:94:
                    30:5c:ef:bd:81:93:a0:8a:40:8a:23:00:ea:7d:01:
                    87:1e:20:96:81:f0:16:cb:e2:9a:1b:70:5a:a9:23:
                    c7:5f:86:0e:8a:cb:df:ea:b3:be:b9:9b:d6:57:74:
                    62:16:c6:cc:aa:c5:5d:cd:44:11:da:5e:b3:e3:7f:
                    88:7f:a0:31:48:a2:e1:0e:67:83:d8:f4:c3:dd:e9:
                    cd:ef:18:d8:f6:51:a4:b3:55:49:d1:8e:7f:12:99:
                    55:5a:1e:33:d5:c7:25:09:11:ce:b7:b3:02:2b:3c:
                    d6:80:29:b7:05:c5:2b:d0:6e:29:32:92:17:20:19:
                    4a:82:dd:6a:2e:4c:c9:a6:1d:f2:72:eb:6b:da:72:
                    b3:1d:56:55:31:f4:f9:95:95:bb:2d:fc:33:00:e6:
                    1f:e8:bf:22:4c:ac:04:4b:7c:e0:69:36:cf:47:62:
                    56:a7:d7:98:e3:03:a4:95:2b:b9:e3:75:e3:e5:c3:
                    69:45
                Exponent: 65537 (0x10001)
        X509v3 extensions:
            Netscape Cert Type: 
                SSL Server
            X509v3 Subject Key Identifier: 
                8D:BE:36:A8:EA:5A:93:EB:56:46:74:99:F9:F8:64:CF:CB:45:7D:0A
            X509v3 Authority Key Identifier: 
                keyid:3B:D6:D1:53:18:87:05:22:BB:EE:C3:0F:F5:CE:0F:6B:A2:93:A7:B8
                DirName:/CN=BANGALORECA_CA/C=IN/O=CITRIX/OU=ANG/ST=KA/emailAddress=BANGALORECA_CA@BANGALORECA_mail.com
                serial:A1:AC:B4:DA:46:53:58:40

            Authority Information Access: 
                OCSP - URI:http://172.16.10.1/responderpath

    Signature Algorithm: sha256WithRSAEncryption
         a5:1f:04:e3:5c:3a:65:3f:a8:66:cc:b2:92:2b:ae:0b:2a:37:
         ab:55:20:2e:c5:a3:1d:ca:94:3d:e6:9c:7f:76:f1:49:ac:ec:
         c2:6d:b5:98:58:ce:71:7b:4f:4d:67:27:14:1a:f6:d6:9b:c0:
         5a:96:cd:d6:c7:d4:87:7a:c8:0d:91:11:e1:23:b9:ac:c6:32:
         34:a2:b3:33:bc:e6:2c:e8:c6:ab:f1:61:12:4c:1d:98:79:ae:
         7d:35:b2:f0:d7:71:8c:ef:bb:3b:37:6d:e6:0a:a4:3c:ee:50:
         5a:b1:ac:24:aa:ca:2a:de:14:b5:94:d9:70:c8:33:3e:a9:7a:
         40:2d:b9:fc:1e:7a:a4:67:77:03:36:d1:09:81:a8:db:24:bc:
         17:af:a1:ea:4f:e8:f2:30:a6:28:23:bc:72:4e:62:a2:92:0d:
         9f:75:2c:ca:53:5b:23:1f:d9:0d:01:32:b3:fa:7b:6f:b5:56:
         bd:d3:d2:39:28:ed:96:f1:66:2c:a6:f4:30:15:cc:0a:38:4b:
         6d:01:dc:fe:aa:69:65:2a:84:c9:bd:80:aa:42:02:63:b9:f2:
         49:74:3f:cc:25:39:1e:eb:85:5f:6f:34:bd:0d:eb:d3:d2:d0:
         64:78:98:70:7b:56:c5:d3:32:6b:0d:b6:51:1c:33:83:9c:0f:
         42:7a:9c:98
-----BEGIN CERTIFICATE-----
MIIEszCCA5ugAwIBAgIGCgsMDQ4kMA0GCSqGSIb3DQEBCwUAMIGGMRcwFQYDVQQD
FA5CQU5HQUxPUkVDQV9DQTELMAkGA1UEBhMCSU4xDzANBgNVBAoTBkNJVFJJWDEM
MAoGA1UECxMDQU5HMQswCQYDVQQIEwJLQTEyMDAGCSqGSIb3DQEJARYjQkFOR0FM
T1JFQ0FfQ0FAQkFOR0FMT1JFQ0FfbWFpbC5jb20wHhcNMTYwNzA4MDQzMTI2WhcN
MjYwNzA2MDQzMTI2WjB4MQswCQYDVQQIEwJLQTELMAkGA1UEBhMCSU4xHzAdBgNV
BAMUFjEyMl9CQU5HQUxPUkVDQV9zZXJ2ZXIxKjAoBgkqhkiG9w0BCQEWGzEyMl9C
QU5HQUxPUkVDQUB0ZXN0X2NhLmNvbTEPMA0GA1UEChMGQ0lUUklYMIIBIjANBgkq
hkiG9w0BAQEFAAOCAQ8AMIIBCgKCAQEAuyxWc2jLAeLpENo7jOWZMmRgocdcMz9B
OySoXTHxrxwqscb41EBMcheVycNzh75yYiSbQa3F9roKx4+v/QyeVchQDd18NBkl
nJQwXO+9gZOgikCKIwDqfQGHHiCWgfAWy+KaG3BaqSPHX4YOisvf6rO+uZvWV3Ri
FsbMqsVdzUQR2l6z43+If6AxSKLhDmeD2PTD3enN7xjY9lGks1VJ0Y5/EplVWh4z
1cclCRHOt7MCKzzWgCm3BcUr0G4pMpIXIBlKgt1qLkzJph3ycutr2nKzHVZVMfT5
lZW7LfwzAOYf6L8iTKwES3zgaTbPR2JWp9eY4wOklSu543Xj5cNpRQIDAQABo4IB
MjCCAS4wEQYJYIZIAYb4QgEBBAQDAgZAMB0GA1UdDgQWBBSNvjao6lqT61ZGdJn5
+GTPy0V9CjCBuwYDVR0jBIGzMIGwgBQ71tFTGIcFIrvuww/1zg9ropOnuKGBjKSB
iTCBhjEXMBUGA1UEAxQOQkFOR0FMT1JFQ0FfQ0ExCzAJBgNVBAYTAklOMQ8wDQYD
VQQKEwZDSVRSSVgxDDAKBgNVBAsTA0FORzELMAkGA1UECBMCS0ExMjAwBgkqhkiG
9w0BCQEWI0JBTkdBTE9SRUNBX0NBQEJBTkdBTE9SRUNBX21haWwuY29tggkAoay0
2kZTWEAwPAYIKwYBBQUHAQEEMDAuMCwGCCsGAQUFBzABhiBodHRwOi8vMTcyLjE2
LjEwLjEvcmVzcG9uZGVycGF0aDANBgkqhkiG9w0BAQsFAAOCAQEApR8E41w6ZT+o
ZsyykiuuCyo3q1UgLsWjHcqUPeacf3bxSazswm21mFjOcXtPTWcnFBr21pvAWpbN
1sfUh3rIDZER4SO5rMYyNKKzM7zmLOjGq/FhEkwdmHmufTWy8NdxjO+7Ozdt5gqk
PO5QWrGsJKrKKt4UtZTZcMgzPql6QC25/B56pGd3AzbRCYGo2yS8F6+h6k/o8jCm
KCO8ck5iopINn3UsylNbIx/ZDQEys/p7b7VWvdPSOSjtlvFmLKb0MBXMCjhLbQHc
/qppZSqEyb2AqkICY7nySXQ/zCU5HuuFX280vQ3r09LQZHiYcHtWxdMyaw22URwz
g5wPQnqcmA==
-----END CERTIFICATE-----
