Certificate:
    Data:
        Version: 3 (0x2)
        Serial Number: 11042563100213 (0xa0b0c0d0e35)
    Signature Algorithm: sha256WithRSAEncryption
        Issuer: CN=BANGALORECA_CA, C=IN, O=CITRIX, OU=ANG, ST=KA/emailAddress=BANGALORECA_CA@BANGALORECA_mail.com
        Validity
            Not Before: Jul  8 04:31:30 2016 GMT
            Not After : Jul  6 04:31:30 2026 GMT
        Subject: ST=KA, C=IN, CN=139_BANGALORECA_server/emailAddress=139_BANGALORECA@test_ca.com, O=CITRIX
        Subject Public Key Info:
            Public Key Algorithm: rsaEncryption
                Public-Key: (2048 bit)
                Modulus:
                    00:b9:c1:b7:c5:91:71:66:7e:6c:6b:da:88:75:62:
                    ee:53:f9:a8:14:fb:16:44:2f:40:b3:8c:ed:5d:a2:
                    3d:c2:4b:b0:2a:24:a3:88:14:da:f5:28:d5:9d:d3:
                    b0:0b:be:96:e2:3c:65:6e:62:75:60:bc:90:31:61:
                    6d:49:45:a0:02:d0:94:66:dc:89:3c:38:af:f6:d6:
                    eb:24:d9:c5:ff:31:8a:e7:e9:08:7c:b9:95:d6:dc:
                    07:0b:1d:f3:db:9f:a3:7b:2c:8e:92:d1:b4:eb:f5:
                    a4:3c:5f:d0:f2:5f:26:eb:1c:60:26:ef:21:7c:1e:
                    62:df:35:df:02:29:24:83:93:40:5a:25:ba:d0:75:
                    f5:84:61:81:12:f3:f0:b8:3b:0c:90:1c:e5:b4:e8:
                    b0:aa:2b:04:74:8d:f1:84:8e:fb:8f:1f:30:be:66:
                    cd:d2:25:7e:8c:2a:41:77:cb:b6:23:ec:1b:c3:92:
                    d3:fe:9a:f8:d8:ab:8f:8b:45:35:db:d6:75:a9:cf:
                    b7:71:03:d5:7f:1d:c2:1e:fe:da:58:66:47:05:a7:
                    ce:b5:78:bb:db:7b:83:1d:38:bb:c0:10:5f:10:6e:
                    34:2e:a5:a1:d0:1c:39:33:ea:df:99:18:00:01:19:
                    5f:46:29:35:e1:87:29:26:27:dd:0a:05:6c:c3:e2:
                    4f:c7
                Exponent: 65537 (0x10001)
        X509v3 extensions:
            Netscape Cert Type: 
                SSL Server
            X509v3 Subject Key Identifier: 
                38:C8:8A:4A:4B:20:50:09:71:28:4C:36:7F:C7:B9:7F:39:E1:C6:05
            X509v3 Authority Key Identifier: 
                keyid:3B:D6:D1:53:18:87:05:22:BB:EE:C3:0F:F5:CE:0F:6B:A2:93:A7:B8
                DirName:/CN=BANGALORECA_CA/C=IN/O=CITRIX/OU=ANG/ST=KA/emailAddress=BANGALORECA_CA@BANGALORECA_mail.com
                serial:A1:AC:B4:DA:46:53:58:40

            Authority Information Access: 
                OCSP - URI:http://172.16.20.1/responderpath

    Signature Algorithm: sha256WithRSAEncryption
         68:85:52:67:e1:cc:19:3c:09:93:a6:43:c9:8a:31:36:31:fe:
         c4:fe:3c:79:66:45:cf:d0:dd:d3:1c:0c:a2:55:58:f5:a8:63:
         62:84:88:dd:74:2d:2a:86:68:8a:1e:b4:fe:11:21:ea:c3:88:
         d6:5d:b2:cb:02:ca:1f:8f:a3:f7:23:6d:41:81:b3:e8:b2:55:
         b1:f6:e9:4b:01:12:0d:7a:c6:37:1c:93:8d:ea:4b:62:99:9c:
         da:a0:5b:94:d5:d0:46:64:58:16:80:66:80:a5:a1:06:7b:a8:
         02:d1:ed:6e:72:cd:b1:2f:d9:1b:5e:05:60:1b:e6:e1:40:07:
         bc:81:b8:40:84:35:56:4f:0b:64:1a:cf:8b:40:e2:88:f3:be:
         25:8e:57:be:3a:8c:7e:94:6b:a8:bd:73:0d:78:4e:64:8c:a4:
         e5:2b:b2:77:a6:d8:02:61:68:42:fe:6a:d4:e5:ab:69:78:0c:
         7e:69:5e:76:ee:8d:8f:aa:62:fa:33:9f:df:a6:cd:44:51:4f:
         93:09:39:89:9a:9e:70:cb:48:fe:bc:be:7f:da:e3:14:bb:ab:
         17:a7:84:bf:dc:f7:50:2a:bb:99:51:41:3b:9a:61:f0:34:b3:
         46:3c:b5:d0:4c:53:a9:c2:0e:07:f7:fa:16:af:12:bb:a4:62:
         8d:5a:a4:db
-----BEGIN CERTIFICATE-----
MIIEszCCA5ugAwIBAgIGCgsMDQ41MA0GCSqGSIb3DQEBCwUAMIGGMRcwFQYDVQQD
FA5CQU5HQUxPUkVDQV9DQTELMAkGA1UEBhMCSU4xDzANBgNVBAoTBkNJVFJJWDEM
MAoGA1UECxMDQU5HMQswCQYDVQQIEwJLQTEyMDAGCSqGSIb3DQEJARYjQkFOR0FM
T1JFQ0FfQ0FAQkFOR0FMT1JFQ0FfbWFpbC5jb20wHhcNMTYwNzA4MDQzMTMwWhcN
MjYwNzA2MDQzMTMwWjB4MQswCQYDVQQIEwJLQTELMAkGA1UEBhMCSU4xHzAdBgNV
BAMUFjEzOV9CQU5HQUxPUkVDQV9zZXJ2ZXIxKjAoBgkqhkiG9w0BCQEWGzEzOV9C
QU5HQUxPUkVDQUB0ZXN0X2NhLmNvbTEPMA0GA1UEChMGQ0lUUklYMIIBIjANBgkq
hkiG9w0BAQEFAAOCAQ8AMIIBCgKCAQEAucG3xZFxZn5sa9qIdWLuU/moFPsWRC9A
s4ztXaI9wkuwKiSjiBTa9SjVndOwC76W4jxlbmJ1YLyQMWFtSUWgAtCUZtyJPDiv
9tbrJNnF/zGK5+kIfLmV1twHCx3z25+jeyyOktG06/WkPF/Q8l8m6xxgJu8hfB5i
3zXfAikkg5NAWiW60HX1hGGBEvPwuDsMkBzltOiwqisEdI3xhI77jx8wvmbN0iV+
jCpBd8u2I+wbw5LT/pr42KuPi0U129Z1qc+3cQPVfx3CHv7aWGZHBafOtXi723uD
HTi7wBBfEG40LqWh0Bw5M+rfmRgAARlfRik14YcpJifdCgVsw+JPxwIDAQABo4IB
MjCCAS4wEQYJYIZIAYb4QgEBBAQDAgZAMB0GA1UdDgQWBBQ4yIpKSyBQCXEoTDZ/
x7l/OeHGBTCBuwYDVR0jBIGzMIGwgBQ71tFTGIcFIrvuww/1zg9ropOnuKGBjKSB
iTCBhjEXMBUGA1UEAxQOQkFOR0FMT1JFQ0FfQ0ExCzAJBgNVBAYTAklOMQ8wDQYD
VQQKEwZDSVRSSVgxDDAKBgNVBAsTA0FORzELMAkGA1UECBMCS0ExMjAwBgkqhkiG
9w0BCQEWI0JBTkdBTE9SRUNBX0NBQEJBTkdBTE9SRUNBX21haWwuY29tggkAoay0
2kZTWEAwPAYIKwYBBQUHAQEEMDAuMCwGCCsGAQUFBzABhiBodHRwOi8vMTcyLjE2
LjIwLjEvcmVzcG9uZGVycGF0aDANBgkqhkiG9w0BAQsFAAOCAQEAaIVSZ+HMGTwJ
k6ZDyYoxNjH+xP48eWZFz9Dd0xwMolVY9ahjYoSI3XQtKoZoih60/hEh6sOI1l2y
ywLKH4+j9yNtQYGz6LJVsfbpSwESDXrGNxyTjepLYpmc2qBblNXQRmRYFoBmgKWh
BnuoAtHtbnLNsS/ZG14FYBvm4UAHvIG4QIQ1Vk8LZBrPi0DiiPO+JY5XvjqMfpRr
qL1zDXhOZIyk5Suyd6bYAmFoQv5q1OWraXgMfmledu6Nj6pi+jOf36bNRFFPkwk5
iZqecMtI/ry+f9rjFLurF6eEv9z3UCq7mVFBO5ph8DSzRjy10ExTqcIOB/f6Fq8S
u6RijVqk2w==
-----END CERTIFICATE-----
