Certificate:
    Data:
        Version: 3 (0x2)
        Serial Number: 11042563100184 (0xa0b0c0d0e18)
    Signature Algorithm: sha256WithRSAEncryption
        Issuer: CN=BANGALORECA_CA, C=IN, O=CITRIX, OU=ANG, ST=KA/emailAddress=BANGALORECA_CA@BANGALORECA_mail.com
        Validity
            Not Before: Jul  8 04:31:23 2016 GMT
            Not After : Jul  6 04:31:23 2026 GMT
        Subject: ST=KA, C=IN, CN=110_BANGALORECA_server/emailAddress=110_BANGALORECA@test_ca.com, O=CITRIX
        Subject Public Key Info:
            Public Key Algorithm: rsaEncryption
                Public-Key: (2048 bit)
                Modulus:
                    00:9a:77:ba:e9:e8:18:7e:61:3a:a2:3a:eb:11:7e:
                    43:9a:5c:80:f7:e2:a4:82:f7:dc:88:83:db:5d:13:
                    ab:ec:1e:aa:14:71:b4:93:d9:af:d4:9e:3d:43:ce:
                    f4:76:a6:a7:ea:b5:dd:ec:3c:fb:82:b2:31:c7:39:
                    bd:74:56:3b:f9:c5:81:1d:70:6e:db:ae:84:dd:19:
                    90:24:99:5c:d7:cf:77:f4:ec:e9:5f:bf:6d:d3:cb:
                    bb:eb:47:54:76:92:d3:f3:f3:6f:80:e5:8c:4d:c7:
                    b9:1d:8a:e3:45:67:a1:83:3c:0f:ed:f0:6c:a8:d6:
                    db:e3:20:61:74:e0:48:97:e0:40:4c:61:11:d3:fe:
                    83:ec:13:05:6c:d5:71:e8:90:b4:99:bc:a1:61:58:
                    a3:19:57:08:6b:4c:cd:69:47:d0:7e:11:e0:ef:0e:
                    df:86:71:05:c1:f2:d5:71:b6:82:53:61:5f:ee:ff:
                    c2:0a:2a:a8:c4:d6:6e:b5:48:7b:52:0b:5f:b0:09:
                    2e:12:24:d7:79:d4:32:c8:40:bc:02:a2:d9:76:b2:
                    e4:a5:07:cb:6d:e5:6a:0d:83:9e:02:28:4c:29:c1:
                    e7:a7:f4:61:66:af:eb:25:d5:02:48:91:65:1e:55:
                    bc:8f:47:1b:e6:79:a1:2d:06:30:4c:f0:b5:9d:02:
                    fd:db
                Exponent: 65537 (0x10001)
        X509v3 extensions:
            Netscape Cert Type: 
                SSL Server
            X509v3 Subject Key Identifier: 
                CE:DD:53:62:5F:B2:EF:BF:8B:F6:03:D2:CD:FA:F9:FB:65:F2:4E:C6
            X509v3 Authority Key Identifier: 
                keyid:3B:D6:D1:53:18:87:05:22:BB:EE:C3:0F:F5:CE:0F:6B:A2:93:A7:B8
                DirName:/CN=BANGALORECA_CA/C=IN/O=CITRIX/OU=ANG/ST=KA/emailAddress=BANGALORECA_CA@BANGALORECA_mail.com
                serial:A1:AC:B4:DA:46:53:58:40

            Authority Information Access: 
                OCSP - URI:http://BANGALORECA_one.ocsptest.com/responderpath

    Signature Algorithm: sha256WithRSAEncryption
         a3:af:28:25:70:ef:a2:1c:6d:75:b8:9e:80:2c:3f:02:b5:56:
         b7:6a:ce:71:a2:84:a9:e0:72:f7:eb:5a:77:de:d7:25:44:a2:
         39:42:6c:1a:d1:10:7f:4d:ea:68:aa:bc:80:46:60:b6:16:89:
         88:b0:13:ae:50:0b:a5:f3:0b:9d:7d:84:87:53:50:ca:c9:1d:
         f6:30:44:63:19:a6:20:e5:4c:3e:e4:d8:40:6b:35:97:50:02:
         d7:c5:7c:e4:af:cc:10:72:2a:e5:8a:37:59:f0:90:65:d1:10:
         69:69:88:83:a0:1f:ad:fd:77:49:61:93:b2:75:5c:0d:e7:9f:
         d5:f8:ec:48:e8:d9:2b:7d:af:01:2b:2c:60:64:a7:73:ae:fd:
         92:c4:62:c0:ec:cb:70:98:06:50:e9:6e:b9:d4:fc:72:03:37:
         ba:f7:ee:b3:74:fc:16:08:fa:32:7e:ba:53:86:fc:2c:1e:0a:
         ea:77:43:44:da:d5:1d:78:4f:8e:12:b7:a6:38:6b:da:23:7b:
         5c:b5:45:45:10:f1:82:df:a3:38:06:fb:11:64:4c:02:da:8d:
         c5:c2:b0:25:58:18:c6:aa:89:c8:ad:b0:7f:16:6e:6d:d1:44:
         65:ba:01:8b:8d:5d:03:91:bd:e5:a4:0c:05:ca:85:1e:85:d2:
         01:a6:ad:b0
-----BEGIN CERTIFICATE-----
MIIExDCCA6ygAwIBAgIGCgsMDQ4YMA0GCSqGSIb3DQEBCwUAMIGGMRcwFQYDVQQD
FA5CQU5HQUxPUkVDQV9DQTELMAkGA1UEBhMCSU4xDzANBgNVBAoTBkNJVFJJWDEM
MAoGA1UECxMDQU5HMQswCQYDVQQIEwJLQTEyMDAGCSqGSIb3DQEJARYjQkFOR0FM
T1JFQ0FfQ0FAQkFOR0FMT1JFQ0FfbWFpbC5jb20wHhcNMTYwNzA4MDQzMTIzWhcN
MjYwNzA2MDQzMTIzWjB4MQswCQYDVQQIEwJLQTELMAkGA1UEBhMCSU4xHzAdBgNV
BAMUFjExMF9CQU5HQUxPUkVDQV9zZXJ2ZXIxKjAoBgkqhkiG9w0BCQEWGzExMF9C
QU5HQUxPUkVDQUB0ZXN0X2NhLmNvbTEPMA0GA1UEChMGQ0lUUklYMIIBIjANBgkq
hkiG9w0BAQEFAAOCAQ8AMIIBCgKCAQEAmne66egYfmE6ojrrEX5DmlyA9+Kkgvfc
iIPbXROr7B6qFHG0k9mv1J49Q870dqan6rXd7Dz7grIxxzm9dFY7+cWBHXBu266E
3RmQJJlc18939OzpX79t08u760dUdpLT8/NvgOWMTce5HYrjRWehgzwP7fBsqNbb
4yBhdOBIl+BATGER0/6D7BMFbNVx6JC0mbyhYVijGVcIa0zNaUfQfhHg7w7fhnEF
wfLVcbaCU2Ff7v/CCiqoxNZutUh7UgtfsAkuEiTXedQyyEC8AqLZdrLkpQfLbeVq
DYOeAihMKcHnp/RhZq/rJdUCSJFlHlW8j0cb5nmhLQYwTPC1nQL92wIDAQABo4IB
QzCCAT8wEQYJYIZIAYb4QgEBBAQDAgZAMB0GA1UdDgQWBBTO3VNiX7Lvv4v2A9LN
+vn7ZfJOxjCBuwYDVR0jBIGzMIGwgBQ71tFTGIcFIrvuww/1zg9ropOnuKGBjKSB
iTCBhjEXMBUGA1UEAxQOQkFOR0FMT1JFQ0FfQ0ExCzAJBgNVBAYTAklOMQ8wDQYD
VQQKEwZDSVRSSVgxDDAKBgNVBAsTA0FORzELMAkGA1UECBMCS0ExMjAwBgkqhkiG
9w0BCQEWI0JBTkdBTE9SRUNBX0NBQEJBTkdBTE9SRUNBX21haWwuY29tggkAoay0
2kZTWEAwTQYIKwYBBQUHAQEEQTA/MD0GCCsGAQUFBzABhjFodHRwOi8vQkFOR0FM
T1JFQ0Ffb25lLm9jc3B0ZXN0LmNvbS9yZXNwb25kZXJwYXRoMA0GCSqGSIb3DQEB
CwUAA4IBAQCjryglcO+iHG11uJ6ALD8CtVa3as5xooSp4HL361p33tclRKI5Qmwa
0RB/TepoqryARmC2FomIsBOuUAul8wudfYSHU1DKyR32MERjGaYg5Uw+5NhAazWX
UALXxXzkr8wQcirlijdZ8JBl0RBpaYiDoB+t/XdJYZOydVwN55/V+OxI6Nkrfa8B
KyxgZKdzrv2SxGLA7MtwmAZQ6W651PxyAze69+6zdPwWCPoyfrpThvwsHgrqd0NE
2tUdeE+OEremOGvaI3tctUVFEPGC36M4BvsRZEwC2o3FwrAlWBjGqonIrbB/Fm5t
0URlugGLjV0Dkb3lpAwFyoUehdIBpq2w
-----END CERTIFICATE-----
