Certificate:
    Data:
        Version: 3 (0x2)
        Serial Number: 11042563100197 (0xa0b0c0d0e25)
    Signature Algorithm: sha256WithRSAEncryption
        Issuer: CN=BANGALORECA_CA, C=IN, O=CITRIX, OU=ANG, ST=KA/emailAddress=BANGALORECA_CA@BANGALORECA_mail.com
        Validity
            Not Before: Jul  8 04:31:26 2016 GMT
            Not After : Jul  6 04:31:26 2026 GMT
        Subject: ST=KA, C=IN, CN=123_BANGALORECA_server/emailAddress=123_BANGALORECA@test_ca.com, O=CITRIX
        Subject Public Key Info:
            Public Key Algorithm: rsaEncryption
                Public-Key: (2048 bit)
                Modulus:
                    00:b2:5a:5d:f4:58:6b:dc:84:6f:3f:7b:79:fa:23:
                    b6:8f:30:b6:17:12:d6:54:04:1e:8f:c1:d5:a5:68:
                    23:1b:b0:06:ba:ce:c7:e9:24:f9:b8:76:35:e8:fe:
                    f3:c1:39:b7:a4:ff:e6:6c:4a:32:36:83:b1:4b:93:
                    40:9e:ea:05:ff:ce:34:92:0c:93:2a:96:62:c6:2f:
                    d0:c3:fb:7c:d7:f3:c3:9f:05:98:e9:29:76:b4:6a:
                    4c:78:ae:5d:cd:3c:77:29:34:eb:b2:78:88:51:49:
                    c0:7c:cc:9c:70:90:54:a3:02:68:31:db:4a:a6:ee:
                    c5:65:ef:88:ec:14:d7:ea:60:d8:c2:54:1f:df:7c:
                    c1:1d:07:37:0a:3f:04:40:1d:cb:65:80:15:88:e2:
                    4a:e3:cf:3b:74:26:e7:d5:ed:bd:24:b8:b1:dc:62:
                    ba:a1:72:00:2f:97:f0:8d:72:0c:4c:01:04:69:1a:
                    6a:3f:3e:55:2e:0a:ad:7e:12:15:e2:30:e6:51:89:
                    7f:cd:67:1a:50:97:ed:e5:43:0f:55:22:bb:50:01:
                    b5:c9:28:69:eb:78:c3:f4:92:f9:ad:32:6a:39:0e:
                    37:cb:8b:93:cc:d8:76:0e:15:ca:2f:89:7a:9d:37:
                    dc:da:63:b2:4c:ab:ef:f5:f4:73:d5:47:ba:ac:5e:
                    66:f3
                Exponent: 65537 (0x10001)
        X509v3 extensions:
            Netscape Cert Type: 
                SSL Server
            X509v3 Subject Key Identifier: 
                A8:D1:DB:24:F1:E2:AF:86:9E:6F:AD:1F:45:5D:67:BC:4B:2A:2A:99
            X509v3 Authority Key Identifier: 
                keyid:3B:D6:D1:53:18:87:05:22:BB:EE:C3:0F:F5:CE:0F:6B:A2:93:A7:B8
                DirName:/CN=BANGALORECA_CA/C=IN/O=CITRIX/OU=ANG/ST=KA/emailAddress=BANGALORECA_CA@BANGALORECA_mail.com
                serial:A1:AC:B4:DA:46:53:58:40

            Authority Information Access: 
                OCSP - URI:http://172.16.10.1/responderpath

    Signature Algorithm: sha256WithRSAEncryption
         28:90:f5:68:12:a5:ef:78:ba:4c:dc:6d:f8:e7:86:13:bb:59:
         49:fe:b9:06:7d:07:74:35:80:ae:d0:67:62:8a:da:d3:41:fb:
         18:03:d1:14:66:38:12:0b:c5:94:6e:30:e0:39:86:29:63:cb:
         1e:0b:8d:22:64:9d:88:42:37:90:5d:9d:56:9c:4c:bd:0c:5b:
         26:7b:35:c8:9b:92:e4:b4:25:aa:48:dd:0e:45:e3:59:ae:ce:
         aa:28:c1:a4:e3:13:c2:d5:e5:63:ea:ef:a8:5b:dc:d7:e6:2c:
         02:2c:d0:46:17:c3:94:a7:bf:dc:d2:4d:a8:68:85:66:1c:a0:
         54:2c:c8:b9:2f:9d:10:49:6f:f3:1c:e3:3e:06:50:8e:d6:6b:
         37:32:34:d6:09:e0:d7:fe:c0:0a:b1:24:ec:a0:63:19:03:5b:
         98:ba:90:7d:46:49:f8:e7:b8:11:51:fa:a3:ee:c3:87:b0:44:
         6b:cd:85:6c:26:1f:8f:20:a4:90:aa:33:ba:73:58:4f:25:8d:
         b9:5e:2c:95:c2:8f:3e:3e:1a:93:a6:d8:5e:d3:19:8b:88:f7:
         ed:a4:e4:21:04:06:97:2f:c4:c5:56:3f:7e:f9:cc:3b:c3:82:
         80:ec:7b:f4:11:cf:d7:8a:07:88:e0:29:52:26:7a:74:4b:91:
         85:03:c9:b5
-----BEGIN CERTIFICATE-----
MIIEszCCA5ugAwIBAgIGCgsMDQ4lMA0GCSqGSIb3DQEBCwUAMIGGMRcwFQYDVQQD
FA5CQU5HQUxPUkVDQV9DQTELMAkGA1UEBhMCSU4xDzANBgNVBAoTBkNJVFJJWDEM
MAoGA1UECxMDQU5HMQswCQYDVQQIEwJLQTEyMDAGCSqGSIb3DQEJARYjQkFOR0FM
T1JFQ0FfQ0FAQkFOR0FMT1JFQ0FfbWFpbC5jb20wHhcNMTYwNzA4MDQzMTI2WhcN
MjYwNzA2MDQzMTI2WjB4MQswCQYDVQQIEwJLQTELMAkGA1UEBhMCSU4xHzAdBgNV
BAMUFjEyM19CQU5HQUxPUkVDQV9zZXJ2ZXIxKjAoBgkqhkiG9w0BCQEWGzEyM19C
QU5HQUxPUkVDQUB0ZXN0X2NhLmNvbTEPMA0GA1UEChMGQ0lUUklYMIIBIjANBgkq
hkiG9w0BAQEFAAOCAQ8AMIIBCgKCAQEAslpd9Fhr3IRvP3t5+iO2jzC2FxLWVAQe
j8HVpWgjG7AGus7H6ST5uHY16P7zwTm3pP/mbEoyNoOxS5NAnuoF/840kgyTKpZi
xi/Qw/t81/PDnwWY6Sl2tGpMeK5dzTx3KTTrsniIUUnAfMyccJBUowJoMdtKpu7F
Ze+I7BTX6mDYwlQf33zBHQc3Cj8EQB3LZYAViOJK4887dCbn1e29JLix3GK6oXIA
L5fwjXIMTAEEaRpqPz5VLgqtfhIV4jDmUYl/zWcaUJft5UMPVSK7UAG1yShp63jD
9JL5rTJqOQ43y4uTzNh2DhXKL4l6nTfc2mOyTKvv9fRz1Ue6rF5m8wIDAQABo4IB
MjCCAS4wEQYJYIZIAYb4QgEBBAQDAgZAMB0GA1UdDgQWBBSo0dsk8eKvhp5vrR9F
XWe8SyoqmTCBuwYDVR0jBIGzMIGwgBQ71tFTGIcFIrvuww/1zg9ropOnuKGBjKSB
iTCBhjEXMBUGA1UEAxQOQkFOR0FMT1JFQ0FfQ0ExCzAJBgNVBAYTAklOMQ8wDQYD
VQQKEwZDSVRSSVgxDDAKBgNVBAsTA0FORzELMAkGA1UECBMCS0ExMjAwBgkqhkiG
9w0BCQEWI0JBTkdBTE9SRUNBX0NBQEJBTkdBTE9SRUNBX21haWwuY29tggkAoay0
2kZTWEAwPAYIKwYBBQUHAQEEMDAuMCwGCCsGAQUFBzABhiBodHRwOi8vMTcyLjE2
LjEwLjEvcmVzcG9uZGVycGF0aDANBgkqhkiG9w0BAQsFAAOCAQEAKJD1aBKl73i6
TNxt+OeGE7tZSf65Bn0HdDWArtBnYora00H7GAPRFGY4EgvFlG4w4DmGKWPLHguN
ImSdiEI3kF2dVpxMvQxbJns1yJuS5LQlqkjdDkXjWa7OqijBpOMTwtXlY+rvqFvc
1+YsAizQRhfDlKe/3NJNqGiFZhygVCzIuS+dEElv8xzjPgZQjtZrNzI01gng1/7A
CrEk7KBjGQNbmLqQfUZJ+Oe4EVH6o+7Dh7BEa82FbCYfjyCkkKozunNYTyWNuV4s
lcKPPj4ak6bYXtMZi4j37aTkIQQGly/ExVY/fvnMO8OCgOx79BHP14oHiOApUiZ6
dEuRhQPJtQ==
-----END CERTIFICATE-----
