Certificate:
    Data:
        Version: 3 (0x2)
        Serial Number: 11042563100178 (0xa0b0c0d0e12)
    Signature Algorithm: sha256WithRSAEncryption
        Issuer: CN=BANGALORECA_CA, C=IN, O=CITRIX, OU=ANG, ST=KA/emailAddress=BANGALORECA_CA@BANGALORECA_mail.com
        Validity
            Not Before: Jul  8 04:31:20 2016 GMT
            Not After : Jul  6 04:31:20 2026 GMT
        Subject: ST=KA, C=IN, CN=104_BANGALORECA_server/emailAddress=104_BANGALORECA@test_ca.com, O=CITRIX
        Subject Public Key Info:
            Public Key Algorithm: rsaEncryption
                Public-Key: (2048 bit)
                Modulus:
                    00:a8:a4:06:0c:5b:ea:59:bc:0f:ea:fe:69:62:f5:
                    f3:eb:65:fb:7d:a5:1a:8f:c2:d6:88:b7:ff:93:3d:
                    80:88:81:bb:8c:ba:97:7e:13:11:ce:4b:e2:b0:03:
                    2f:94:4a:ce:ef:ad:6c:5d:5b:c8:0e:bc:88:81:58:
                    d1:d0:46:85:f0:b6:74:df:e5:8b:7a:6e:38:ca:2d:
                    38:9c:23:8e:ed:78:03:31:a6:fa:46:d9:6d:44:9e:
                    55:96:ac:82:e9:66:57:c4:9a:8a:b9:04:64:34:b3:
                    af:ea:9a:55:a7:0f:a1:bb:01:7f:d3:51:2b:4f:50:
                    57:77:d4:00:9d:72:11:1f:3f:84:56:f0:ec:45:1b:
                    dd:72:1e:c2:dd:aa:27:69:1e:ab:51:16:e9:8e:fb:
                    09:27:64:aa:37:69:bb:aa:ca:24:35:6a:1f:0a:c2:
                    be:76:90:8c:ba:df:c2:45:ef:44:d2:43:98:66:db:
                    52:96:91:09:71:84:e3:3b:e3:2f:d7:c8:3e:9e:7e:
                    7f:b2:fc:20:b0:20:ee:87:9a:ab:1d:16:4b:00:0b:
                    d2:ef:64:bc:3a:a5:3b:85:bb:db:f2:71:0f:20:9e:
                    21:8a:d5:b5:04:f8:56:2f:f8:d3:cc:e1:66:b7:52:
                    d1:bd:4a:7c:36:c2:d4:fc:96:d0:f7:05:db:68:e1:
                    9b:3d
                Exponent: 65537 (0x10001)
        X509v3 extensions:
            Netscape Cert Type: 
                SSL Server
            X509v3 Subject Key Identifier: 
                7F:7D:7B:43:97:D7:2D:72:D9:D9:BE:FE:44:F0:97:20:AC:31:63:F0
            X509v3 Authority Key Identifier: 
                keyid:3B:D6:D1:53:18:87:05:22:BB:EE:C3:0F:F5:CE:0F:6B:A2:93:A7:B8
                DirName:/CN=BANGALORECA_CA/C=IN/O=CITRIX/OU=ANG/ST=KA/emailAddress=BANGALORECA_CA@BANGALORECA_mail.com
                serial:A1:AC:B4:DA:46:53:58:40

            Authority Information Access: 
                OCSP - URI:http://BANGALORECA_one.ocsptest.com/responderpath

    Signature Algorithm: sha256WithRSAEncryption
         ac:f6:df:c0:bf:f7:c1:cb:1d:43:af:de:30:b0:80:a9:64:47:
         be:ee:14:00:8c:65:75:55:6e:83:17:91:c9:64:bd:d8:71:f5:
         67:66:7f:6f:24:1c:c4:a7:ce:06:0d:e7:ce:78:69:6c:31:e0:
         de:88:18:2e:7e:ec:3c:44:4f:6b:48:cd:e2:f7:1a:e8:d7:1b:
         30:f4:b6:7b:12:98:32:5b:c8:55:27:22:ee:b5:21:f8:0f:bb:
         40:b3:a2:fd:2d:46:01:ab:4e:ab:6f:8a:db:2b:a2:3d:fb:eb:
         ed:4c:61:29:12:c2:14:5f:09:99:48:4f:75:97:cb:72:a4:b3:
         87:6a:8a:c2:a8:6c:b7:69:47:04:ca:ef:8c:f0:13:ce:6f:d8:
         b4:69:1e:c9:93:66:6d:8b:ff:0c:46:c3:ad:8b:5c:6e:74:77:
         5c:75:3f:26:5e:44:4f:7d:b4:c4:b7:48:ba:86:9d:ae:ca:74:
         89:25:22:77:f6:3f:7c:82:53:76:b4:fd:cc:4e:21:ac:e9:df:
         1f:05:33:91:2f:1f:a1:5b:48:05:cf:3f:18:7c:49:18:a8:4a:
         7c:94:da:5c:97:cd:92:73:54:66:c9:41:ab:57:e9:a0:eb:e8:
         75:74:a4:a9:3a:1b:62:54:4c:f6:ba:27:d3:24:ae:40:5d:be:
         f9:6d:49:11
-----BEGIN CERTIFICATE-----
MIIExDCCA6ygAwIBAgIGCgsMDQ4SMA0GCSqGSIb3DQEBCwUAMIGGMRcwFQYDVQQD
FA5CQU5HQUxPUkVDQV9DQTELMAkGA1UEBhMCSU4xDzANBgNVBAoTBkNJVFJJWDEM
MAoGA1UECxMDQU5HMQswCQYDVQQIEwJLQTEyMDAGCSqGSIb3DQEJARYjQkFOR0FM
T1JFQ0FfQ0FAQkFOR0FMT1JFQ0FfbWFpbC5jb20wHhcNMTYwNzA4MDQzMTIwWhcN
MjYwNzA2MDQzMTIwWjB4MQswCQYDVQQIEwJLQTELMAkGA1UEBhMCSU4xHzAdBgNV
BAMUFjEwNF9CQU5HQUxPUkVDQV9zZXJ2ZXIxKjAoBgkqhkiG9w0BCQEWGzEwNF9C
QU5HQUxPUkVDQUB0ZXN0X2NhLmNvbTEPMA0GA1UEChMGQ0lUUklYMIIBIjANBgkq
hkiG9w0BAQEFAAOCAQ8AMIIBCgKCAQEAqKQGDFvqWbwP6v5pYvXz62X7faUaj8LW
iLf/kz2AiIG7jLqXfhMRzkvisAMvlErO761sXVvIDryIgVjR0EaF8LZ03+WLem44
yi04nCOO7XgDMab6RtltRJ5VlqyC6WZXxJqKuQRkNLOv6ppVpw+huwF/01ErT1BX
d9QAnXIRHz+EVvDsRRvdch7C3aonaR6rURbpjvsJJ2SqN2m7qsokNWofCsK+dpCM
ut/CRe9E0kOYZttSlpEJcYTjO+Mv18g+nn5/svwgsCDuh5qrHRZLAAvS72S8OqU7
hbvb8nEPIJ4hitW1BPhWL/jTzOFmt1LRvUp8NsLU/JbQ9wXbaOGbPQIDAQABo4IB
QzCCAT8wEQYJYIZIAYb4QgEBBAQDAgZAMB0GA1UdDgQWBBR/fXtDl9ctctnZvv5E
8JcgrDFj8DCBuwYDVR0jBIGzMIGwgBQ71tFTGIcFIrvuww/1zg9ropOnuKGBjKSB
iTCBhjEXMBUGA1UEAxQOQkFOR0FMT1JFQ0FfQ0ExCzAJBgNVBAYTAklOMQ8wDQYD
VQQKEwZDSVRSSVgxDDAKBgNVBAsTA0FORzELMAkGA1UECBMCS0ExMjAwBgkqhkiG
9w0BCQEWI0JBTkdBTE9SRUNBX0NBQEJBTkdBTE9SRUNBX21haWwuY29tggkAoay0
2kZTWEAwTQYIKwYBBQUHAQEEQTA/MD0GCCsGAQUFBzABhjFodHRwOi8vQkFOR0FM
T1JFQ0Ffb25lLm9jc3B0ZXN0LmNvbS9yZXNwb25kZXJwYXRoMA0GCSqGSIb3DQEB
CwUAA4IBAQCs9t/Av/fByx1Dr94wsICpZEe+7hQAjGV1VW6DF5HJZL3YcfVnZn9v
JBzEp84GDefOeGlsMeDeiBgufuw8RE9rSM3i9xro1xsw9LZ7EpgyW8hVJyLutSH4
D7tAs6L9LUYBq06rb4rbK6I9++vtTGEpEsIUXwmZSE91l8typLOHaorCqGy3aUcE
yu+M8BPOb9i0aR7Jk2Zti/8MRsOti1xudHdcdT8mXkRPfbTEt0i6hp2uynSJJSJ3
9j98glN2tP3MTiGs6d8fBTORLx+hW0gFzz8YfEkYqEp8lNpcl82Sc1RmyUGrV+mg
6+h1dKSpOhtiVEz2uifTJK5AXb75bUkR
-----END CERTIFICATE-----
