Certificate:
    Data:
        Version: 3 (0x2)
        Serial Number: 11042563100182 (0xa0b0c0d0e16)
    Signature Algorithm: sha256WithRSAEncryption
        Issuer: CN=BANGALORECA_CA, C=IN, O=CITRIX, OU=ANG, ST=KA/emailAddress=BANGALORECA_CA@BANGALORECA_mail.com
        Validity
            Not Before: Jul  8 04:31:22 2016 GMT
            Not After : Jul  6 04:31:22 2026 GMT
        Subject: ST=KA, C=IN, CN=108_BANGALORECA_server/emailAddress=108_BANGALORECA@test_ca.com, O=CITRIX
        Subject Public Key Info:
            Public Key Algorithm: rsaEncryption
                Public-Key: (2048 bit)
                Modulus:
                    00:d2:ea:41:93:e5:60:22:49:9a:92:ad:86:19:84:
                    65:a3:0a:52:66:5f:1a:57:19:4c:e7:37:9c:c1:26:
                    56:c2:7b:86:c3:9d:37:a4:f7:29:e9:f6:53:cc:62:
                    2b:bd:02:d9:2e:34:ce:78:2b:95:b0:96:22:d0:1d:
                    b3:5d:ec:80:fc:76:1d:a7:4b:b5:69:ca:62:98:ce:
                    69:04:f6:02:08:da:28:4f:1b:ba:25:20:1a:1c:3f:
                    a4:0b:f7:a5:34:99:fb:d3:d4:1b:be:44:99:8e:e8:
                    51:ae:2a:63:95:55:9c:97:44:5e:66:57:a9:98:ad:
                    d8:aa:3c:97:f1:40:f3:c3:1b:4a:a9:1d:d2:72:32:
                    19:01:43:a9:26:f5:f2:0e:d2:c4:20:20:d9:d5:a3:
                    16:1d:b7:cd:96:04:a7:e6:c0:97:06:45:a6:ab:8c:
                    93:cd:24:d8:1f:86:26:6a:72:f9:7a:d5:f7:b5:23:
                    da:a3:f3:be:67:de:f0:53:47:51:89:b8:ac:79:3e:
                    f1:56:92:01:27:6f:8c:1d:3a:3e:00:71:aa:73:df:
                    77:c4:01:f9:e3:e8:cb:73:7d:d9:2d:26:be:e1:6f:
                    cf:f4:da:27:c6:77:c6:9f:83:48:ff:81:56:34:63:
                    65:33:96:6a:32:fc:e5:1f:bc:6b:6f:7a:2b:f2:f3:
                    61:e5
                Exponent: 65537 (0x10001)
        X509v3 extensions:
            Netscape Cert Type: 
                SSL Server
            X509v3 Subject Key Identifier: 
                57:F8:72:EE:59:D2:7E:46:6B:E7:9F:62:F7:65:C2:7E:C9:5D:42:C6
            X509v3 Authority Key Identifier: 
                keyid:3B:D6:D1:53:18:87:05:22:BB:EE:C3:0F:F5:CE:0F:6B:A2:93:A7:B8
                DirName:/CN=BANGALORECA_CA/C=IN/O=CITRIX/OU=ANG/ST=KA/emailAddress=BANGALORECA_CA@BANGALORECA_mail.com
                serial:A1:AC:B4:DA:46:53:58:40

            Authority Information Access: 
                OCSP - URI:http://BANGALORECA_one.ocsptest.com/responderpath

    Signature Algorithm: sha256WithRSAEncryption
         5b:ce:67:70:a7:48:34:07:a7:7e:6f:b9:19:36:b1:86:49:27:
         95:99:8b:02:47:c9:7e:13:a1:17:8a:ce:c9:86:f7:05:bf:d7:
         06:76:5f:84:1e:5d:73:8d:f2:8d:c3:10:ed:19:5d:4e:9f:30:
         ae:5a:d2:1d:2b:57:b3:85:ff:eb:f6:70:b1:3c:42:ff:c2:46:
         37:18:65:5b:b1:4c:1b:10:f3:34:b8:a2:7d:7d:95:87:65:48:
         16:53:2f:a1:0c:ff:29:12:98:c8:ba:53:c3:36:f2:2e:6b:2b:
         45:ae:fc:6e:65:5a:87:d3:19:49:57:53:a3:a4:95:66:d4:3a:
         fe:ee:5c:15:08:3d:73:b2:88:59:46:83:38:df:64:35:e8:42:
         2e:fd:0e:f1:7d:93:55:74:88:96:a6:0b:c1:44:91:91:86:8f:
         94:dc:4d:28:ef:9e:2c:c1:37:93:1c:96:2a:14:b5:d1:29:24:
         09:9b:91:94:6f:1a:99:b2:95:ee:f9:14:9f:d7:30:01:91:0b:
         eb:30:57:bd:ee:8d:2d:91:a0:7f:ee:d0:64:6a:f4:46:cd:cf:
         c2:10:bf:df:7c:ca:b0:9c:a1:e6:75:77:f3:2c:d8:80:a7:b4:
         62:74:d5:6c:e0:5b:26:25:4e:ea:32:0f:66:a6:9e:36:e5:d4:
         c2:3f:de:f8
-----BEGIN CERTIFICATE-----
MIIExDCCA6ygAwIBAgIGCgsMDQ4WMA0GCSqGSIb3DQEBCwUAMIGGMRcwFQYDVQQD
FA5CQU5HQUxPUkVDQV9DQTELMAkGA1UEBhMCSU4xDzANBgNVBAoTBkNJVFJJWDEM
MAoGA1UECxMDQU5HMQswCQYDVQQIEwJLQTEyMDAGCSqGSIb3DQEJARYjQkFOR0FM
T1JFQ0FfQ0FAQkFOR0FMT1JFQ0FfbWFpbC5jb20wHhcNMTYwNzA4MDQzMTIyWhcN
MjYwNzA2MDQzMTIyWjB4MQswCQYDVQQIEwJLQTELMAkGA1UEBhMCSU4xHzAdBgNV
BAMUFjEwOF9CQU5HQUxPUkVDQV9zZXJ2ZXIxKjAoBgkqhkiG9w0BCQEWGzEwOF9C
QU5HQUxPUkVDQUB0ZXN0X2NhLmNvbTEPMA0GA1UEChMGQ0lUUklYMIIBIjANBgkq
hkiG9w0BAQEFAAOCAQ8AMIIBCgKCAQEA0upBk+VgIkmakq2GGYRlowpSZl8aVxlM
5zecwSZWwnuGw503pPcp6fZTzGIrvQLZLjTOeCuVsJYi0B2zXeyA/HYdp0u1acpi
mM5pBPYCCNooTxu6JSAaHD+kC/elNJn709QbvkSZjuhRripjlVWcl0ReZlepmK3Y
qjyX8UDzwxtKqR3ScjIZAUOpJvXyDtLEICDZ1aMWHbfNlgSn5sCXBkWmq4yTzSTY
H4YmanL5etX3tSPao/O+Z97wU0dRibiseT7xVpIBJ2+MHTo+AHGqc993xAH54+jL
c33ZLSa+4W/P9NonxnfGn4NI/4FWNGNlM5ZqMvzlH7xrb3or8vNh5QIDAQABo4IB
QzCCAT8wEQYJYIZIAYb4QgEBBAQDAgZAMB0GA1UdDgQWBBRX+HLuWdJ+Rmvnn2L3
ZcJ+yV1CxjCBuwYDVR0jBIGzMIGwgBQ71tFTGIcFIrvuww/1zg9ropOnuKGBjKSB
iTCBhjEXMBUGA1UEAxQOQkFOR0FMT1JFQ0FfQ0ExCzAJBgNVBAYTAklOMQ8wDQYD
VQQKEwZDSVRSSVgxDDAKBgNVBAsTA0FORzELMAkGA1UECBMCS0ExMjAwBgkqhkiG
9w0BCQEWI0JBTkdBTE9SRUNBX0NBQEJBTkdBTE9SRUNBX21haWwuY29tggkAoay0
2kZTWEAwTQYIKwYBBQUHAQEEQTA/MD0GCCsGAQUFBzABhjFodHRwOi8vQkFOR0FM
T1JFQ0Ffb25lLm9jc3B0ZXN0LmNvbS9yZXNwb25kZXJwYXRoMA0GCSqGSIb3DQEB
CwUAA4IBAQBbzmdwp0g0B6d+b7kZNrGGSSeVmYsCR8l+E6EXis7JhvcFv9cGdl+E
Hl1zjfKNwxDtGV1OnzCuWtIdK1ezhf/r9nCxPEL/wkY3GGVbsUwbEPM0uKJ9fZWH
ZUgWUy+hDP8pEpjIulPDNvIuaytFrvxuZVqH0xlJV1OjpJVm1Dr+7lwVCD1zsohZ
RoM432Q16EIu/Q7xfZNVdIiWpgvBRJGRho+U3E0o754swTeTHJYqFLXRKSQJm5GU
bxqZspXu+RSf1zABkQvrMFe97o0tkaB/7tBkavRGzc/CEL/ffMqwnKHmdXfzLNiA
p7RidNVs4FsmJU7qMg9mpp425dTCP974
-----END CERTIFICATE-----
