Certificate:
    Data:
        Version: 3 (0x2)
        Serial Number: 11042563100175 (0xa0b0c0d0e0f)
    Signature Algorithm: sha256WithRSAEncryption
        Issuer: CN=BANGALORECA_CA, C=IN, O=CITRIX, OU=ANG, ST=KA/emailAddress=BANGALORECA_CA@BANGALORECA_mail.com
        Validity
            Not Before: Jul  8 04:31:19 2016 GMT
            Not After : Jul  6 04:31:19 2026 GMT
        Subject: ST=KA, C=IN, CN=101_BANGALORECA_server/emailAddress=101_BANGALORECA@test_ca.com, O=CITRIX
        Subject Public Key Info:
            Public Key Algorithm: rsaEncryption
                Public-Key: (2048 bit)
                Modulus:
                    00:f4:54:b1:23:2c:0c:fe:70:37:e3:4b:aa:28:a2:
                    5a:0b:b6:68:49:87:4a:6c:bc:9c:3f:7a:a1:5a:c4:
                    34:72:42:83:f6:fe:6c:0f:bb:90:00:ff:86:20:eb:
                    20:b3:03:e3:9c:00:76:3f:87:f4:ac:28:a2:fc:ec:
                    95:45:a2:6b:cf:1b:a9:df:d1:78:fa:c3:23:56:c5:
                    ba:6d:b9:ca:72:98:e3:d3:55:17:21:85:60:43:9c:
                    47:c5:6f:a6:92:eb:c5:b1:55:ca:2f:a6:88:c6:af:
                    da:9f:ab:d5:59:a1:02:45:75:37:4b:9d:98:be:e7:
                    0e:bb:6e:84:02:87:0f:ef:30:05:27:2a:9f:e5:37:
                    30:d3:b7:eb:08:9b:17:5c:b4:15:17:4f:2b:b0:d4:
                    3d:c2:3a:a9:4f:3c:d7:21:9a:56:f5:b7:b8:69:26:
                    09:36:99:0f:cf:ba:d6:fc:d4:ac:02:76:d0:1c:a8:
                    39:61:1f:44:cf:29:08:73:ab:dd:2f:08:83:8a:a7:
                    78:60:b3:5b:db:83:ed:bc:ee:ef:19:41:f8:c5:d2:
                    09:8c:d3:89:a8:62:af:5e:09:b6:5e:f9:32:d5:9b:
                    99:60:85:28:ed:85:07:fd:87:85:6a:a5:53:de:06:
                    ab:5a:f6:66:73:1f:1b:62:6e:dc:40:8c:7e:e7:ad:
                    cd:a1
                Exponent: 65537 (0x10001)
        X509v3 extensions:
            Netscape Cert Type: 
                SSL Server
            X509v3 Subject Key Identifier: 
                3C:3C:78:CE:AF:DA:AB:E5:CF:12:69:3F:B7:CC:44:D4:AA:C8:56:10
            X509v3 Authority Key Identifier: 
                keyid:3B:D6:D1:53:18:87:05:22:BB:EE:C3:0F:F5:CE:0F:6B:A2:93:A7:B8
                DirName:/CN=BANGALORECA_CA/C=IN/O=CITRIX/OU=ANG/ST=KA/emailAddress=BANGALORECA_CA@BANGALORECA_mail.com
                serial:A1:AC:B4:DA:46:53:58:40

            Authority Information Access: 
                OCSP - URI:http://BANGALORECA_one.ocsptest.com/responderpath

    Signature Algorithm: sha256WithRSAEncryption
         55:4b:9e:81:92:09:a1:38:f5:8f:dd:a8:2b:f3:ab:ac:93:b9:
         0f:19:2e:ac:c8:31:bb:6d:ca:1d:61:e7:38:2d:12:70:67:2b:
         01:54:ae:50:11:65:e4:20:0c:d0:f6:cb:52:a8:18:a9:18:38:
         01:9a:8e:b1:57:3d:8a:c5:7e:44:d4:89:0f:44:d5:04:7d:26:
         d9:35:d3:3d:04:ec:1f:30:53:75:04:9e:d1:3c:02:d0:a0:16:
         95:79:7f:f6:e8:ff:c9:e4:d2:76:56:cf:46:11:82:b3:f8:df:
         ad:d2:e1:c3:e6:72:a1:9d:82:89:9e:c4:b8:32:23:ab:4b:ca:
         6a:8e:46:c7:06:58:d1:44:98:52:62:19:76:2f:6d:ac:41:36:
         e3:3f:46:20:66:cb:5b:aa:89:32:86:84:ae:ff:15:c8:46:81:
         a2:2e:7b:e8:2d:07:ab:7b:c9:f7:05:90:5b:c3:0b:b8:10:5d:
         76:76:4b:16:71:cb:7c:a9:f3:e5:5b:88:f1:da:16:9f:00:4f:
         90:59:da:75:31:4b:1a:fc:82:b5:c2:a9:75:21:5a:ae:bf:ea:
         aa:fe:20:6a:a4:8a:d4:e1:f4:1a:d1:bc:2a:9c:2d:22:0f:e8:
         39:de:0d:79:8d:2e:17:9b:04:ce:76:28:88:e9:00:02:f4:19:
         b3:a3:40:31
-----BEGIN CERTIFICATE-----
MIIExDCCA6ygAwIBAgIGCgsMDQ4PMA0GCSqGSIb3DQEBCwUAMIGGMRcwFQYDVQQD
FA5CQU5HQUxPUkVDQV9DQTELMAkGA1UEBhMCSU4xDzANBgNVBAoTBkNJVFJJWDEM
MAoGA1UECxMDQU5HMQswCQYDVQQIEwJLQTEyMDAGCSqGSIb3DQEJARYjQkFOR0FM
T1JFQ0FfQ0FAQkFOR0FMT1JFQ0FfbWFpbC5jb20wHhcNMTYwNzA4MDQzMTE5WhcN
MjYwNzA2MDQzMTE5WjB4MQswCQYDVQQIEwJLQTELMAkGA1UEBhMCSU4xHzAdBgNV
BAMUFjEwMV9CQU5HQUxPUkVDQV9zZXJ2ZXIxKjAoBgkqhkiG9w0BCQEWGzEwMV9C
QU5HQUxPUkVDQUB0ZXN0X2NhLmNvbTEPMA0GA1UEChMGQ0lUUklYMIIBIjANBgkq
hkiG9w0BAQEFAAOCAQ8AMIIBCgKCAQEA9FSxIywM/nA340uqKKJaC7ZoSYdKbLyc
P3qhWsQ0ckKD9v5sD7uQAP+GIOsgswPjnAB2P4f0rCii/OyVRaJrzxup39F4+sMj
VsW6bbnKcpjj01UXIYVgQ5xHxW+mkuvFsVXKL6aIxq/an6vVWaECRXU3S52YvucO
u26EAocP7zAFJyqf5Tcw07frCJsXXLQVF08rsNQ9wjqpTzzXIZpW9be4aSYJNpkP
z7rW/NSsAnbQHKg5YR9EzykIc6vdLwiDiqd4YLNb24PtvO7vGUH4xdIJjNOJqGKv
Xgm2Xvky1ZuZYIUo7YUH/YeFaqVT3garWvZmcx8bYm7cQIx+563NoQIDAQABo4IB
QzCCAT8wEQYJYIZIAYb4QgEBBAQDAgZAMB0GA1UdDgQWBBQ8PHjOr9qr5c8SaT+3
zETUqshWEDCBuwYDVR0jBIGzMIGwgBQ71tFTGIcFIrvuww/1zg9ropOnuKGBjKSB
iTCBhjEXMBUGA1UEAxQOQkFOR0FMT1JFQ0FfQ0ExCzAJBgNVBAYTAklOMQ8wDQYD
VQQKEwZDSVRSSVgxDDAKBgNVBAsTA0FORzELMAkGA1UECBMCS0ExMjAwBgkqhkiG
9w0BCQEWI0JBTkdBTE9SRUNBX0NBQEJBTkdBTE9SRUNBX21haWwuY29tggkAoay0
2kZTWEAwTQYIKwYBBQUHAQEEQTA/MD0GCCsGAQUFBzABhjFodHRwOi8vQkFOR0FM
T1JFQ0Ffb25lLm9jc3B0ZXN0LmNvbS9yZXNwb25kZXJwYXRoMA0GCSqGSIb3DQEB
CwUAA4IBAQBVS56BkgmhOPWP3agr86usk7kPGS6syDG7bcodYec4LRJwZysBVK5Q
EWXkIAzQ9stSqBipGDgBmo6xVz2KxX5E1IkPRNUEfSbZNdM9BOwfMFN1BJ7RPALQ
oBaVeX/26P/J5NJ2Vs9GEYKz+N+t0uHD5nKhnYKJnsS4MiOrS8pqjkbHBljRRJhS
Yhl2L22sQTbjP0YgZstbqokyhoSu/xXIRoGiLnvoLQere8n3BZBbwwu4EF12dksW
cct8qfPlW4jx2hafAE+QWdp1MUsa/IK1wql1IVquv+qq/iBqpIrU4fQa0bwqnC0i
D+g53g15jS4XmwTOdiiI6QAC9Bmzo0Ax
-----END CERTIFICATE-----
