Certificate:
    Data:
        Version: 3 (0x2)
        Serial Number: 11042563100180 (0xa0b0c0d0e14)
    Signature Algorithm: sha256WithRSAEncryption
        Issuer: CN=BANGALORECA_CA, C=IN, O=CITRIX, OU=ANG, ST=KA/emailAddress=BANGALORECA_CA@BANGALORECA_mail.com
        Validity
            Not Before: Jul  8 04:31:20 2016 GMT
            Not After : Jul  6 04:31:20 2026 GMT
        Subject: ST=KA, C=IN, CN=106_BANGALORECA_server/emailAddress=106_BANGALORECA@test_ca.com, O=CITRIX
        Subject Public Key Info:
            Public Key Algorithm: rsaEncryption
                Public-Key: (2048 bit)
                Modulus:
                    00:c5:0f:86:26:60:d5:29:71:54:fc:61:57:ea:05:
                    2a:90:9c:a9:97:9f:a9:40:88:20:90:b2:3b:e1:c3:
                    89:ea:35:a5:fd:b8:5b:f9:bd:76:b5:8c:af:98:91:
                    6e:e2:68:43:80:74:46:98:58:6b:be:61:0f:a0:3b:
                    39:62:30:b1:45:61:ac:e4:8d:da:7e:25:1a:8c:93:
                    7a:9d:6b:63:18:f1:20:da:40:63:31:39:af:96:70:
                    40:9c:31:9d:e6:05:b5:e7:4d:d1:8e:9e:fb:71:61:
                    20:6c:13:6a:44:d1:10:97:5d:3d:3d:44:8d:ec:f0:
                    3b:c7:75:2b:1b:13:17:1a:25:c3:f4:b2:56:07:b2:
                    e6:a9:a8:dc:72:d5:13:6b:1d:60:8f:7c:33:d4:31:
                    c3:11:39:97:a1:d2:dd:d5:8f:a3:6a:27:02:5c:54:
                    ba:ea:5d:b1:c3:c0:e1:ec:b5:e3:e8:d7:6c:e3:21:
                    a9:53:38:32:58:a5:d0:d6:f3:af:38:cd:2d:2b:03:
                    2f:cf:81:b0:3f:8e:3a:48:a9:75:94:60:64:de:1e:
                    3c:87:8e:65:0f:1b:f7:06:61:83:d3:b0:3d:ae:7f:
                    b0:c2:79:d8:fc:83:e7:0a:31:78:0d:9e:1f:ca:34:
                    a9:1c:51:8d:9b:fd:4a:bf:74:ea:d2:f9:53:62:93:
                    60:0b
                Exponent: 65537 (0x10001)
        X509v3 extensions:
            Netscape Cert Type: 
                SSL Server
            X509v3 Subject Key Identifier: 
                65:76:A8:A7:FA:3B:F8:B9:6F:6E:F3:C5:EF:CF:9A:D4:2C:23:37:91
            X509v3 Authority Key Identifier: 
                keyid:3B:D6:D1:53:18:87:05:22:BB:EE:C3:0F:F5:CE:0F:6B:A2:93:A7:B8
                DirName:/CN=BANGALORECA_CA/C=IN/O=CITRIX/OU=ANG/ST=KA/emailAddress=BANGALORECA_CA@BANGALORECA_mail.com
                serial:A1:AC:B4:DA:46:53:58:40

            Authority Information Access: 
                OCSP - URI:http://BANGALORECA_one.ocsptest.com/responderpath

    Signature Algorithm: sha256WithRSAEncryption
         21:9c:58:d9:34:d4:18:3a:46:66:a5:d2:1f:be:ac:3d:3c:26:
         b4:87:35:49:b3:4f:81:b5:81:8c:f5:32:09:d2:5f:52:80:23:
         7e:01:50:56:db:37:ee:32:97:33:4b:dd:2c:62:c9:a8:ad:97:
         05:e3:eb:86:5d:96:54:7b:63:83:81:a6:4e:98:02:c7:2a:b0:
         18:d5:ea:85:68:5c:19:fe:87:1b:d2:0b:79:57:dd:71:b1:33:
         a6:31:f3:97:dc:9f:34:02:6a:14:be:14:76:e0:ef:5d:4d:41:
         57:ca:87:75:d4:c3:a3:62:38:2b:4d:f1:62:23:65:37:e3:2c:
         8a:3b:01:95:c2:b0:b0:97:85:1b:23:e6:b7:35:3f:1a:0d:0c:
         18:cf:19:32:3b:fe:d2:85:62:eb:fb:69:30:6f:29:75:2f:a5:
         89:f4:4a:9d:5d:0a:a0:2d:d1:89:36:a9:d2:7e:fb:25:6b:2a:
         1d:ab:2a:9d:56:e0:fb:b8:0a:3e:62:e2:85:dc:74:d8:a5:3e:
         14:77:df:33:65:18:54:4f:6a:8f:2f:d8:6f:43:88:ca:de:63:
         61:6c:16:3c:ce:fe:1c:7f:65:a8:8c:5d:c7:e3:84:3e:b1:45:
         03:b2:d2:50:ba:ff:8e:65:3a:d8:8f:31:25:e2:16:22:6b:ce:
         b4:78:8c:ec
-----BEGIN CERTIFICATE-----
MIIExDCCA6ygAwIBAgIGCgsMDQ4UMA0GCSqGSIb3DQEBCwUAMIGGMRcwFQYDVQQD
FA5CQU5HQUxPUkVDQV9DQTELMAkGA1UEBhMCSU4xDzANBgNVBAoTBkNJVFJJWDEM
MAoGA1UECxMDQU5HMQswCQYDVQQIEwJLQTEyMDAGCSqGSIb3DQEJARYjQkFOR0FM
T1JFQ0FfQ0FAQkFOR0FMT1JFQ0FfbWFpbC5jb20wHhcNMTYwNzA4MDQzMTIwWhcN
MjYwNzA2MDQzMTIwWjB4MQswCQYDVQQIEwJLQTELMAkGA1UEBhMCSU4xHzAdBgNV
BAMUFjEwNl9CQU5HQUxPUkVDQV9zZXJ2ZXIxKjAoBgkqhkiG9w0BCQEWGzEwNl9C
QU5HQUxPUkVDQUB0ZXN0X2NhLmNvbTEPMA0GA1UEChMGQ0lUUklYMIIBIjANBgkq
hkiG9w0BAQEFAAOCAQ8AMIIBCgKCAQEAxQ+GJmDVKXFU/GFX6gUqkJypl5+pQIgg
kLI74cOJ6jWl/bhb+b12tYyvmJFu4mhDgHRGmFhrvmEPoDs5YjCxRWGs5I3afiUa
jJN6nWtjGPEg2kBjMTmvlnBAnDGd5gW1503Rjp77cWEgbBNqRNEQl109PUSN7PA7
x3UrGxMXGiXD9LJWB7LmqajcctUTax1gj3wz1DHDETmXodLd1Y+jaicCXFS66l2x
w8Dh7LXj6Nds4yGpUzgyWKXQ1vOvOM0tKwMvz4GwP446SKl1lGBk3h48h45lDxv3
BmGD07A9rn+wwnnY/IPnCjF4DZ4fyjSpHFGNm/1Kv3Tq0vlTYpNgCwIDAQABo4IB
QzCCAT8wEQYJYIZIAYb4QgEBBAQDAgZAMB0GA1UdDgQWBBRldqin+jv4uW9u88Xv
z5rULCM3kTCBuwYDVR0jBIGzMIGwgBQ71tFTGIcFIrvuww/1zg9ropOnuKGBjKSB
iTCBhjEXMBUGA1UEAxQOQkFOR0FMT1JFQ0FfQ0ExCzAJBgNVBAYTAklOMQ8wDQYD
VQQKEwZDSVRSSVgxDDAKBgNVBAsTA0FORzELMAkGA1UECBMCS0ExMjAwBgkqhkiG
9w0BCQEWI0JBTkdBTE9SRUNBX0NBQEJBTkdBTE9SRUNBX21haWwuY29tggkAoay0
2kZTWEAwTQYIKwYBBQUHAQEEQTA/MD0GCCsGAQUFBzABhjFodHRwOi8vQkFOR0FM
T1JFQ0Ffb25lLm9jc3B0ZXN0LmNvbS9yZXNwb25kZXJwYXRoMA0GCSqGSIb3DQEB
CwUAA4IBAQAhnFjZNNQYOkZmpdIfvqw9PCa0hzVJs0+BtYGM9TIJ0l9SgCN+AVBW
2zfuMpczS90sYsmorZcF4+uGXZZUe2ODgaZOmALHKrAY1eqFaFwZ/ocb0gt5V91x
sTOmMfOX3J80AmoUvhR24O9dTUFXyod11MOjYjgrTfFiI2U34yyKOwGVwrCwl4Ub
I+a3NT8aDQwYzxkyO/7ShWLr+2kwbyl1L6WJ9EqdXQqgLdGJNqnSfvslayodqyqd
VuD7uAo+YuKF3HTYpT4Ud98zZRhUT2qPL9hvQ4jK3mNhbBY8zv4cf2WojF3H44Q+
sUUDstJQuv+OZTrYjzEl4hYia860eIzs
-----END CERTIFICATE-----
