Certificate:
    Data:
        Version: 3 (0x2)
        Serial Number: 11042563100187 (0xa0b0c0d0e1b)
    Signature Algorithm: sha256WithRSAEncryption
        Issuer: CN=BANGALORECA_CA, C=IN, O=CITRIX, OU=ANG, ST=KA/emailAddress=BANGALORECA_CA@BANGALORECA_mail.com
        Validity
            Not Before: Jul  8 04:31:23 2016 GMT
            Not After : Jul  6 04:31:23 2026 GMT
        Subject: ST=KA, C=IN, CN=113_BANGALORECA_server/emailAddress=113_BANGALORECA@test_ca.com, O=CITRIX
        Subject Public Key Info:
            Public Key Algorithm: rsaEncryption
                Public-Key: (2048 bit)
                Modulus:
                    00:d0:23:43:b5:4b:4e:d9:95:84:9a:0f:60:e3:be:
                    89:7d:fd:b1:12:6d:c3:8d:e4:f7:c1:8a:1c:dc:a6:
                    d1:c8:17:02:05:c5:8e:61:f2:10:69:19:2b:2e:be:
                    61:63:9b:bb:b4:00:d0:bd:9b:f6:38:77:63:c8:b4:
                    40:00:de:1f:2b:16:91:14:df:91:72:50:7a:91:09:
                    2e:5a:c5:e9:fb:ca:a3:75:bf:20:5f:d9:cc:66:f1:
                    49:05:81:34:4b:b8:25:fc:01:8b:c6:e4:26:1f:27:
                    0d:74:c3:7e:3a:4b:3d:a7:d3:bd:02:70:ae:19:c1:
                    9d:b1:ab:23:32:b0:86:10:8a:c4:3f:6f:8c:8c:4d:
                    13:42:10:f7:88:2e:ac:91:15:63:42:71:64:44:4a:
                    ba:7c:b8:c5:c5:b9:7b:4c:83:ac:e1:7d:e6:d2:52:
                    05:dd:d9:24:51:c1:d4:eb:fd:aa:d0:9d:17:3f:5f:
                    94:33:f0:8c:54:45:bb:e3:77:e5:e4:f0:59:e6:17:
                    c1:84:ff:e3:04:65:ce:8d:28:f3:09:fb:7a:e5:c1:
                    8e:b1:dc:0b:8a:b2:2b:d9:bd:79:d9:a6:41:c8:5b:
                    d7:8a:59:bb:60:6f:e8:5c:9c:b5:50:ce:da:ee:7d:
                    50:6a:d9:93:01:69:4d:a5:f3:69:87:85:c2:6a:2f:
                    17:03
                Exponent: 65537 (0x10001)
        X509v3 extensions:
            Netscape Cert Type: 
                SSL Server
            X509v3 Subject Key Identifier: 
                02:D3:2B:0B:66:BD:42:A6:12:86:D3:A4:CB:BE:88:56:5D:6A:CC:6B
            X509v3 Authority Key Identifier: 
                keyid:3B:D6:D1:53:18:87:05:22:BB:EE:C3:0F:F5:CE:0F:6B:A2:93:A7:B8
                DirName:/CN=BANGALORECA_CA/C=IN/O=CITRIX/OU=ANG/ST=KA/emailAddress=BANGALORECA_CA@BANGALORECA_mail.com
                serial:A1:AC:B4:DA:46:53:58:40

            Authority Information Access: 
                OCSP - URI:http://BANGALORECA_two.ocsptest.com/responderpath

    Signature Algorithm: sha256WithRSAEncryption
         73:61:6b:11:82:7b:af:85:48:ce:41:89:8f:0b:73:1c:ed:34:
         59:18:d9:4d:1e:f4:fc:e0:a9:fe:d7:e5:8a:ab:b2:a5:82:fd:
         59:b9:2f:be:3a:0d:00:f7:4e:d3:2e:b7:9b:7a:2d:ad:b8:26:
         f0:e2:15:31:2a:e9:37:3c:81:03:3c:c6:8b:2b:7b:cb:cb:ab:
         1b:1e:92:c7:b1:99:e7:58:e3:ed:6c:e9:61:a2:f5:b7:4a:c8:
         4e:37:e8:37:9c:31:64:0f:fc:d2:e4:73:99:b6:89:60:de:f3:
         2c:f3:38:3e:8b:19:a3:ae:0a:8d:e2:d6:a6:b4:ba:42:36:2a:
         0c:8d:7e:dd:e8:ca:c7:da:af:62:05:38:54:eb:96:d5:30:ee:
         ee:c7:e3:a9:23:29:35:cb:d8:22:f5:e8:e1:6d:14:ab:58:87:
         87:aa:08:6e:a7:75:55:b5:d2:19:c8:0c:7c:33:2d:cd:e2:5c:
         da:53:5d:20:97:a3:4c:f6:d3:b7:1b:4b:ad:52:71:a0:b9:0b:
         0a:c2:87:ba:1f:9e:25:04:49:32:87:91:a9:13:e7:d9:ad:d4:
         06:d7:ae:d4:d3:47:40:f9:31:0b:98:09:a7:a7:31:53:da:fe:
         0b:52:d7:d5:a9:df:65:b7:cf:94:b1:e2:c6:a2:9a:e8:f5:e6:
         57:01:d1:77
-----BEGIN CERTIFICATE-----
MIIExDCCA6ygAwIBAgIGCgsMDQ4bMA0GCSqGSIb3DQEBCwUAMIGGMRcwFQYDVQQD
FA5CQU5HQUxPUkVDQV9DQTELMAkGA1UEBhMCSU4xDzANBgNVBAoTBkNJVFJJWDEM
MAoGA1UECxMDQU5HMQswCQYDVQQIEwJLQTEyMDAGCSqGSIb3DQEJARYjQkFOR0FM
T1JFQ0FfQ0FAQkFOR0FMT1JFQ0FfbWFpbC5jb20wHhcNMTYwNzA4MDQzMTIzWhcN
MjYwNzA2MDQzMTIzWjB4MQswCQYDVQQIEwJLQTELMAkGA1UEBhMCSU4xHzAdBgNV
BAMUFjExM19CQU5HQUxPUkVDQV9zZXJ2ZXIxKjAoBgkqhkiG9w0BCQEWGzExM19C
QU5HQUxPUkVDQUB0ZXN0X2NhLmNvbTEPMA0GA1UEChMGQ0lUUklYMIIBIjANBgkq
hkiG9w0BAQEFAAOCAQ8AMIIBCgKCAQEA0CNDtUtO2ZWEmg9g476Jff2xEm3DjeT3
wYoc3KbRyBcCBcWOYfIQaRkrLr5hY5u7tADQvZv2OHdjyLRAAN4fKxaRFN+RclB6
kQkuWsXp+8qjdb8gX9nMZvFJBYE0S7gl/AGLxuQmHycNdMN+Oks9p9O9AnCuGcGd
sasjMrCGEIrEP2+MjE0TQhD3iC6skRVjQnFkREq6fLjFxbl7TIOs4X3m0lIF3dkk
UcHU6/2q0J0XP1+UM/CMVEW743fl5PBZ5hfBhP/jBGXOjSjzCft65cGOsdwLirIr
2b152aZByFvXilm7YG/oXJy1UM7a7n1QatmTAWlNpfNph4XCai8XAwIDAQABo4IB
QzCCAT8wEQYJYIZIAYb4QgEBBAQDAgZAMB0GA1UdDgQWBBQC0ysLZr1CphKG06TL
vohWXWrMazCBuwYDVR0jBIGzMIGwgBQ71tFTGIcFIrvuww/1zg9ropOnuKGBjKSB
iTCBhjEXMBUGA1UEAxQOQkFOR0FMT1JFQ0FfQ0ExCzAJBgNVBAYTAklOMQ8wDQYD
VQQKEwZDSVRSSVgxDDAKBgNVBAsTA0FORzELMAkGA1UECBMCS0ExMjAwBgkqhkiG
9w0BCQEWI0JBTkdBTE9SRUNBX0NBQEJBTkdBTE9SRUNBX21haWwuY29tggkAoay0
2kZTWEAwTQYIKwYBBQUHAQEEQTA/MD0GCCsGAQUFBzABhjFodHRwOi8vQkFOR0FM
T1JFQ0FfdHdvLm9jc3B0ZXN0LmNvbS9yZXNwb25kZXJwYXRoMA0GCSqGSIb3DQEB
CwUAA4IBAQBzYWsRgnuvhUjOQYmPC3Mc7TRZGNlNHvT84Kn+1+WKq7Klgv1ZuS++
Og0A907TLrebei2tuCbw4hUxKuk3PIEDPMaLK3vLy6sbHpLHsZnnWOPtbOlhovW3
SshON+g3nDFkD/zS5HOZtolg3vMs8zg+ixmjrgqN4tamtLpCNioMjX7d6MrH2q9i
BThU65bVMO7ux+OpIyk1y9gi9ejhbRSrWIeHqghup3VVtdIZyAx8My3N4lzaU10g
l6NM9tO3G0utUnGguQsKwoe6H54lBEkyh5GpE+fZrdQG167U00dA+TELmAmnpzFT
2v4LUtfVqd9lt8+UseLGopro9eZXAdF3
-----END CERTIFICATE-----
