Certificate:
    Data:
        Version: 3 (0x2)
        Serial Number: 11042563100194 (0xa0b0c0d0e22)
    Signature Algorithm: sha256WithRSAEncryption
        Issuer: CN=BANGALORECA_CA, C=IN, O=CITRIX, OU=ANG, ST=KA/emailAddress=BANGALORECA_CA@BANGALORECA_mail.com
        Validity
            Not Before: Jul  8 04:31:25 2016 GMT
            Not After : Jul  6 04:31:25 2026 GMT
        Subject: ST=KA, C=IN, CN=120_BANGALORECA_server/emailAddress=120_BANGALORECA@test_ca.com, O=CITRIX
        Subject Public Key Info:
            Public Key Algorithm: rsaEncryption
                Public-Key: (2048 bit)
                Modulus:
                    00:c1:6a:e3:ba:ee:96:8b:ad:40:b3:25:60:cd:41:
                    a8:9f:46:17:44:46:e8:d6:d4:03:fb:f0:ab:b7:5c:
                    f1:c2:e0:92:af:aa:10:dc:31:dd:cd:d3:b7:69:03:
                    8d:e1:e6:47:a6:6b:6c:67:df:32:aa:d0:60:4d:68:
                    d3:ac:7b:54:7e:0a:c0:60:cf:2c:09:ed:c5:cc:37:
                    e6:b5:1d:61:8f:fe:7e:12:0b:df:0e:e5:17:f3:13:
                    a8:dd:8b:ea:19:71:45:c5:0a:b2:4b:33:fd:17:f2:
                    d7:fc:ab:f3:a8:0e:e5:f4:12:9c:2e:b8:60:7f:ee:
                    49:15:e3:ef:12:92:09:a7:62:71:57:f0:d3:36:5e:
                    85:52:11:dc:bb:95:93:be:95:de:9b:81:92:c4:56:
                    b7:0e:43:fd:f2:57:d4:f1:86:ea:61:ce:ea:38:b6:
                    6c:63:e0:79:a3:ab:6c:34:da:12:3c:fd:1c:73:c9:
                    2b:1e:d2:5b:54:ed:55:3c:5c:f0:93:ed:29:1d:5e:
                    b4:98:13:5f:35:7e:9e:33:0f:be:5b:dd:64:a7:42:
                    56:b6:c9:09:81:28:41:1e:39:7c:ca:2d:86:3f:00:
                    14:0d:0b:a6:d5:6e:56:72:d2:19:7d:1e:73:fc:11:
                    e9:c6:cf:43:c3:78:5f:72:69:78:3d:67:67:16:e3:
                    ad:37
                Exponent: 65537 (0x10001)
        X509v3 extensions:
            Netscape Cert Type: 
                SSL Server
            X509v3 Subject Key Identifier: 
                06:7A:9F:AF:70:D2:DE:A6:D0:1C:75:D1:38:82:A8:ED:1C:8B:B3:2A
            X509v3 Authority Key Identifier: 
                keyid:3B:D6:D1:53:18:87:05:22:BB:EE:C3:0F:F5:CE:0F:6B:A2:93:A7:B8
                DirName:/CN=BANGALORECA_CA/C=IN/O=CITRIX/OU=ANG/ST=KA/emailAddress=BANGALORECA_CA@BANGALORECA_mail.com
                serial:A1:AC:B4:DA:46:53:58:40

            Authority Information Access: 
                OCSP - URI:http://BANGALORECA_two.ocsptest.com/responderpath

    Signature Algorithm: sha256WithRSAEncryption
         5b:16:92:68:bb:30:2f:01:bf:42:73:da:34:25:6b:f6:02:5e:
         c7:1e:60:f8:3a:fe:53:34:94:f0:69:9e:c7:88:30:b3:df:1f:
         65:bb:30:b3:bd:26:ec:8b:9a:44:86:2c:0d:e6:9b:0b:50:b6:
         f3:77:43:8e:5c:74:af:9f:c7:b5:31:a2:2e:9e:3f:7e:5d:cd:
         9d:b7:d2:00:1a:a3:c9:65:ee:e1:37:f0:06:0f:4c:d9:9f:b7:
         5c:d0:f2:7a:74:59:86:95:bb:4b:c7:8c:e0:67:18:0b:ff:a4:
         b2:10:d1:70:86:d8:63:ad:1d:d9:41:01:d3:38:fe:11:24:08:
         6b:9b:d6:4d:67:3f:74:12:bc:ea:51:e6:7f:4b:8e:87:62:8b:
         93:4b:b4:fa:30:e1:15:c1:80:10:c4:3d:1d:66:c0:40:8d:35:
         a8:39:6a:8a:3f:e3:bf:83:e1:29:6a:5c:60:5a:40:f8:0b:80:
         39:2e:b4:ad:51:cc:a1:4d:31:b5:e2:1c:2c:3d:a4:70:6a:c3:
         70:de:a4:79:86:0a:c0:0d:5b:fb:26:22:de:cc:11:31:c1:52:
         31:bd:d5:44:4e:6f:d8:a7:ab:ae:05:5d:26:52:cc:dd:24:9f:
         a3:ca:51:1b:9d:2c:23:b4:fe:c8:4c:33:bc:29:08:9f:d4:01:
         fa:15:57:d0
-----BEGIN CERTIFICATE-----
MIIExDCCA6ygAwIBAgIGCgsMDQ4iMA0GCSqGSIb3DQEBCwUAMIGGMRcwFQYDVQQD
FA5CQU5HQUxPUkVDQV9DQTELMAkGA1UEBhMCSU4xDzANBgNVBAoTBkNJVFJJWDEM
MAoGA1UECxMDQU5HMQswCQYDVQQIEwJLQTEyMDAGCSqGSIb3DQEJARYjQkFOR0FM
T1JFQ0FfQ0FAQkFOR0FMT1JFQ0FfbWFpbC5jb20wHhcNMTYwNzA4MDQzMTI1WhcN
MjYwNzA2MDQzMTI1WjB4MQswCQYDVQQIEwJLQTELMAkGA1UEBhMCSU4xHzAdBgNV
BAMUFjEyMF9CQU5HQUxPUkVDQV9zZXJ2ZXIxKjAoBgkqhkiG9w0BCQEWGzEyMF9C
QU5HQUxPUkVDQUB0ZXN0X2NhLmNvbTEPMA0GA1UEChMGQ0lUUklYMIIBIjANBgkq
hkiG9w0BAQEFAAOCAQ8AMIIBCgKCAQEAwWrjuu6Wi61AsyVgzUGon0YXREbo1tQD
+/Crt1zxwuCSr6oQ3DHdzdO3aQON4eZHpmtsZ98yqtBgTWjTrHtUfgrAYM8sCe3F
zDfmtR1hj/5+EgvfDuUX8xOo3YvqGXFFxQqySzP9F/LX/KvzqA7l9BKcLrhgf+5J
FePvEpIJp2JxV/DTNl6FUhHcu5WTvpXem4GSxFa3DkP98lfU8YbqYc7qOLZsY+B5
o6tsNNoSPP0cc8krHtJbVO1VPFzwk+0pHV60mBNfNX6eMw++W91kp0JWtskJgShB
Hjl8yi2GPwAUDQum1W5WctIZfR5z/BHpxs9Dw3hfcml4PWdnFuOtNwIDAQABo4IB
QzCCAT8wEQYJYIZIAYb4QgEBBAQDAgZAMB0GA1UdDgQWBBQGep+vcNLeptAcddE4
gqjtHIuzKjCBuwYDVR0jBIGzMIGwgBQ71tFTGIcFIrvuww/1zg9ropOnuKGBjKSB
iTCBhjEXMBUGA1UEAxQOQkFOR0FMT1JFQ0FfQ0ExCzAJBgNVBAYTAklOMQ8wDQYD
VQQKEwZDSVRSSVgxDDAKBgNVBAsTA0FORzELMAkGA1UECBMCS0ExMjAwBgkqhkiG
9w0BCQEWI0JBTkdBTE9SRUNBX0NBQEJBTkdBTE9SRUNBX21haWwuY29tggkAoay0
2kZTWEAwTQYIKwYBBQUHAQEEQTA/MD0GCCsGAQUFBzABhjFodHRwOi8vQkFOR0FM
T1JFQ0FfdHdvLm9jc3B0ZXN0LmNvbS9yZXNwb25kZXJwYXRoMA0GCSqGSIb3DQEB
CwUAA4IBAQBbFpJouzAvAb9Cc9o0JWv2Al7HHmD4Ov5TNJTwaZ7HiDCz3x9luzCz
vSbsi5pEhiwN5psLULbzd0OOXHSvn8e1MaIunj9+Xc2dt9IAGqPJZe7hN/AGD0zZ
n7dc0PJ6dFmGlbtLx4zgZxgL/6SyENFwhthjrR3ZQQHTOP4RJAhrm9ZNZz90Erzq
UeZ/S46HYouTS7T6MOEVwYAQxD0dZsBAjTWoOWqKP+O/g+EpalxgWkD4C4A5LrSt
UcyhTTG14hwsPaRwasNw3qR5hgrADVv7JiLezBExwVIxvdVETm/Yp6uuBV0mUszd
JJ+jylEbnSwjtP7ITDO8KQif1AH6FVfQ
-----END CERTIFICATE-----
