Certificate:
    Data:
        Version: 3 (0x2)
        Serial Number: 11042563100198 (0xa0b0c0d0e26)
    Signature Algorithm: sha256WithRSAEncryption
        Issuer: CN=BANGALORECA_CA, C=IN, O=CITRIX, OU=ANG, ST=KA/emailAddress=BANGALORECA_CA@BANGALORECA_mail.com
        Validity
            Not Before: Jul  8 04:31:26 2016 GMT
            Not After : Jul  6 04:31:26 2026 GMT
        Subject: ST=KA, C=IN, CN=124_BANGALORECA_server/emailAddress=124_BANGALORECA@test_ca.com, O=CITRIX
        Subject Public Key Info:
            Public Key Algorithm: rsaEncryption
                Public-Key: (2048 bit)
                Modulus:
                    00:e2:3c:f3:96:51:b3:5c:fe:31:e3:7c:cd:f8:cd:
                    f4:ac:f8:6f:09:5a:8e:8d:5d:7e:20:b5:33:1d:e1:
                    f6:df:f7:e2:89:57:4f:21:21:99:a6:56:50:ba:cc:
                    e0:99:32:5a:e9:02:a7:66:68:90:8d:0b:2d:b9:c1:
                    f5:67:61:e9:5a:90:90:ae:34:82:1a:d2:56:e8:a4:
                    f5:42:69:0b:5c:37:d3:e7:a0:b6:2d:45:27:d9:4d:
                    84:ab:c6:b8:6f:71:3d:55:0c:5e:76:f9:4f:c3:36:
                    85:18:20:29:50:35:a6:78:6a:f2:74:8b:cb:44:b2:
                    d7:26:2a:52:16:17:56:96:f5:61:3b:9c:6b:85:e7:
                    a2:07:61:2f:cc:a7:19:47:13:02:96:35:3b:24:f2:
                    20:03:4f:cb:ca:95:8a:c7:d3:ea:72:30:b5:58:2a:
                    59:3b:83:64:ca:39:1a:bb:8a:7e:9e:c2:07:c8:52:
                    cf:62:85:8b:90:7e:6c:ed:89:c1:a6:08:23:7a:e2:
                    d7:d4:d7:8e:cb:ff:eb:b0:1c:f4:dc:97:1f:ce:b9:
                    4b:25:b2:09:3c:e1:0d:d0:f1:5d:44:da:4b:a6:ae:
                    ee:8e:0f:32:bf:cd:13:b2:09:15:86:db:dc:49:41:
                    41:1b:ba:38:58:b9:db:33:af:6d:5f:1e:9f:d9:39:
                    e0:ed
                Exponent: 65537 (0x10001)
        X509v3 extensions:
            Netscape Cert Type: 
                SSL Server
            X509v3 Subject Key Identifier: 
                F5:90:15:A6:8A:C2:C2:45:07:97:37:EB:2D:CC:DD:1E:42:01:73:AF
            X509v3 Authority Key Identifier: 
                keyid:3B:D6:D1:53:18:87:05:22:BB:EE:C3:0F:F5:CE:0F:6B:A2:93:A7:B8
                DirName:/CN=BANGALORECA_CA/C=IN/O=CITRIX/OU=ANG/ST=KA/emailAddress=BANGALORECA_CA@BANGALORECA_mail.com
                serial:A1:AC:B4:DA:46:53:58:40

            Authority Information Access: 
                OCSP - URI:http://172.16.10.1/responderpath

    Signature Algorithm: sha256WithRSAEncryption
         3c:8d:19:18:7c:d9:2c:04:95:a8:03:1b:e5:25:89:2e:1a:e4:
         cb:63:3a:93:80:70:9e:a7:7b:ac:83:cb:97:80:c3:8e:20:a3:
         98:a1:36:dd:8f:18:ec:11:cf:72:6b:37:c3:65:02:06:3a:16:
         3e:1d:84:dd:bf:41:85:26:e4:44:cb:5b:e6:5e:d5:c8:fd:25:
         39:ac:e4:70:91:c4:59:61:af:84:eb:e4:09:43:69:95:fe:b9:
         18:54:d1:bd:99:38:e1:1c:83:64:30:dd:d7:0b:b2:e2:99:0b:
         42:10:df:a8:bc:73:03:4f:67:ac:c1:d1:80:4c:58:c8:e7:3e:
         cd:f9:c0:e5:b4:d6:df:43:ae:bf:2a:67:8d:19:69:18:a7:14:
         57:a7:65:a9:78:29:0a:cc:0f:d8:5c:9d:20:43:b9:66:7e:88:
         90:22:64:d2:e0:45:a9:0a:da:98:f7:87:c2:33:ee:9c:f1:10:
         95:30:cd:68:fe:83:36:92:86:86:05:94:06:ec:ad:b4:df:d4:
         a7:48:f7:6c:df:34:30:b7:17:f9:f5:58:5c:ed:3e:e5:12:fb:
         9f:fb:ba:0f:3d:22:0e:01:ba:77:94:29:77:6e:93:5b:d0:97:
         8e:7a:93:85:48:d6:21:45:69:92:8c:a5:2e:06:70:60:a3:c9:
         46:25:13:9e
-----BEGIN CERTIFICATE-----
MIIEszCCA5ugAwIBAgIGCgsMDQ4mMA0GCSqGSIb3DQEBCwUAMIGGMRcwFQYDVQQD
FA5CQU5HQUxPUkVDQV9DQTELMAkGA1UEBhMCSU4xDzANBgNVBAoTBkNJVFJJWDEM
MAoGA1UECxMDQU5HMQswCQYDVQQIEwJLQTEyMDAGCSqGSIb3DQEJARYjQkFOR0FM
T1JFQ0FfQ0FAQkFOR0FMT1JFQ0FfbWFpbC5jb20wHhcNMTYwNzA4MDQzMTI2WhcN
MjYwNzA2MDQzMTI2WjB4MQswCQYDVQQIEwJLQTELMAkGA1UEBhMCSU4xHzAdBgNV
BAMUFjEyNF9CQU5HQUxPUkVDQV9zZXJ2ZXIxKjAoBgkqhkiG9w0BCQEWGzEyNF9C
QU5HQUxPUkVDQUB0ZXN0X2NhLmNvbTEPMA0GA1UEChMGQ0lUUklYMIIBIjANBgkq
hkiG9w0BAQEFAAOCAQ8AMIIBCgKCAQEA4jzzllGzXP4x43zN+M30rPhvCVqOjV1+
ILUzHeH23/fiiVdPISGZplZQuszgmTJa6QKnZmiQjQstucH1Z2HpWpCQrjSCGtJW
6KT1QmkLXDfT56C2LUUn2U2Eq8a4b3E9VQxedvlPwzaFGCApUDWmeGrydIvLRLLX
JipSFhdWlvVhO5xrheeiB2EvzKcZRxMCljU7JPIgA0/LypWKx9PqcjC1WCpZO4Nk
yjkau4p+nsIHyFLPYoWLkH5s7YnBpggjeuLX1NeOy//rsBz03JcfzrlLJbIJPOEN
0PFdRNpLpq7ujg8yv80TsgkVhtvcSUFBG7o4WLnbM69tXx6f2Tng7QIDAQABo4IB
MjCCAS4wEQYJYIZIAYb4QgEBBAQDAgZAMB0GA1UdDgQWBBT1kBWmisLCRQeXN+st
zN0eQgFzrzCBuwYDVR0jBIGzMIGwgBQ71tFTGIcFIrvuww/1zg9ropOnuKGBjKSB
iTCBhjEXMBUGA1UEAxQOQkFOR0FMT1JFQ0FfQ0ExCzAJBgNVBAYTAklOMQ8wDQYD
VQQKEwZDSVRSSVgxDDAKBgNVBAsTA0FORzELMAkGA1UECBMCS0ExMjAwBgkqhkiG
9w0BCQEWI0JBTkdBTE9SRUNBX0NBQEJBTkdBTE9SRUNBX21haWwuY29tggkAoay0
2kZTWEAwPAYIKwYBBQUHAQEEMDAuMCwGCCsGAQUFBzABhiBodHRwOi8vMTcyLjE2
LjEwLjEvcmVzcG9uZGVycGF0aDANBgkqhkiG9w0BAQsFAAOCAQEAPI0ZGHzZLASV
qAMb5SWJLhrky2M6k4Bwnqd7rIPLl4DDjiCjmKE23Y8Y7BHPcms3w2UCBjoWPh2E
3b9BhSbkRMtb5l7VyP0lOazkcJHEWWGvhOvkCUNplf65GFTRvZk44RyDZDDd1wuy
4pkLQhDfqLxzA09nrMHRgExYyOc+zfnA5bTW30OuvypnjRlpGKcUV6dlqXgpCswP
2FydIEO5Zn6IkCJk0uBFqQramPeHwjPunPEQlTDNaP6DNpKGhgWUBuyttN/Up0j3
bN80MLcX+fVYXO0+5RL7n/u6Dz0iDgG6d5Qpd26TW9CXjnqThUjWIUVpkoylLgZw
YKPJRiUTng==
-----END CERTIFICATE-----
