Certificate:
    Data:
        Version: 3 (0x2)
        Serial Number: 11042563100202 (0xa0b0c0d0e2a)
    Signature Algorithm: sha256WithRSAEncryption
        Issuer: CN=BANGALORECA_CA, C=IN, O=CITRIX, OU=ANG, ST=KA/emailAddress=BANGALORECA_CA@BANGALORECA_mail.com
        Validity
            Not Before: Jul  8 04:31:27 2016 GMT
            Not After : Jul  6 04:31:27 2026 GMT
        Subject: ST=KA, C=IN, CN=128_BANGALORECA_server/emailAddress=128_BANGALORECA@test_ca.com, O=CITRIX
        Subject Public Key Info:
            Public Key Algorithm: rsaEncryption
                Public-Key: (2048 bit)
                Modulus:
                    00:bc:84:96:59:9a:1f:fc:df:e4:29:f6:c9:e2:4d:
                    aa:aa:85:16:f1:94:2a:41:37:cc:0c:58:1d:11:5f:
                    df:73:41:cc:fe:ff:33:c5:55:53:40:89:0c:5b:4a:
                    ac:ba:ef:50:19:f1:3b:8b:f0:80:57:54:4b:b3:1b:
                    2a:b3:c4:0f:ba:f6:3e:5a:98:3d:f9:31:8c:c4:35:
                    0a:db:8f:80:66:a1:50:e0:76:0b:9a:07:59:c1:16:
                    6b:53:dd:6e:de:64:6e:55:a2:a6:0d:d2:dc:d5:e4:
                    c3:e2:06:f8:ed:5b:27:e7:b2:56:c7:e6:e3:b8:c8:
                    36:87:26:ea:6d:f6:de:fb:5b:34:16:43:dd:c0:0f:
                    68:e9:e0:af:94:f7:d8:67:69:f9:d4:bd:29:0d:9f:
                    2e:62:49:77:9b:3c:e3:a2:af:30:f5:fe:04:55:76:
                    67:44:f7:68:26:9d:98:14:9e:1c:14:3c:34:14:7e:
                    03:55:a2:e6:0b:bf:ca:b4:bd:3c:72:7c:28:8d:e6:
                    fb:56:72:57:12:46:0a:79:07:38:84:ca:69:d2:0c:
                    a3:48:00:36:70:18:4c:8e:e0:87:71:72:b0:84:5a:
                    64:74:36:4b:83:4b:16:69:e9:af:87:05:ee:cc:99:
                    d7:94:fa:e3:b3:90:03:47:81:e3:f0:4d:f4:7d:e9:
                    50:3f
                Exponent: 65537 (0x10001)
        X509v3 extensions:
            Netscape Cert Type: 
                SSL Server
            X509v3 Subject Key Identifier: 
                88:59:87:BE:F5:FD:8E:27:0F:A2:94:B0:44:39:A2:3D:1A:56:D6:45
            X509v3 Authority Key Identifier: 
                keyid:3B:D6:D1:53:18:87:05:22:BB:EE:C3:0F:F5:CE:0F:6B:A2:93:A7:B8
                DirName:/CN=BANGALORECA_CA/C=IN/O=CITRIX/OU=ANG/ST=KA/emailAddress=BANGALORECA_CA@BANGALORECA_mail.com
                serial:A1:AC:B4:DA:46:53:58:40

            Authority Information Access: 
                OCSP - URI:http://172.16.10.1/responderpath

    Signature Algorithm: sha256WithRSAEncryption
         5a:71:8f:73:a5:95:64:97:c7:60:75:4f:6e:53:ff:3a:1e:14:
         e5:cd:33:30:59:c4:3b:e8:94:43:cf:b1:43:6f:3c:ad:5b:c5:
         c0:8d:71:d6:16:2e:5a:0e:06:a0:bb:1f:f9:0c:2d:2e:34:c8:
         91:d3:bf:de:1c:e8:be:af:bc:bc:45:17:33:84:57:d5:9a:15:
         4f:f2:ae:3e:e1:c0:98:b2:0f:ea:34:d8:93:3f:eb:63:f7:12:
         5e:57:e8:cb:36:29:08:14:a5:23:6a:61:38:cb:80:50:41:89:
         1a:c1:fe:89:45:da:62:9e:90:35:32:db:82:71:a0:c7:d8:34:
         41:16:69:4b:31:df:d2:a1:96:0d:8f:68:62:c0:a5:df:64:a9:
         0f:0f:b7:bb:be:cc:41:3f:98:86:da:7e:60:50:22:19:03:c6:
         18:25:3c:8f:a4:cf:1b:ba:ac:44:08:3a:4c:bf:6e:38:2b:2f:
         f9:63:0f:b6:b2:72:56:b3:10:6c:21:00:85:33:7c:f5:24:71:
         79:fe:5b:57:b5:60:89:07:3f:f6:f2:d0:fd:98:2e:4f:2b:7c:
         15:29:63:6c:f0:1d:f8:46:75:03:06:50:ad:4b:0f:9a:8a:32:
         1b:78:2d:dc:03:13:00:46:24:1b:8f:6f:dc:96:7e:c3:7d:2c:
         ea:84:09:47
-----BEGIN CERTIFICATE-----
MIIEszCCA5ugAwIBAgIGCgsMDQ4qMA0GCSqGSIb3DQEBCwUAMIGGMRcwFQYDVQQD
FA5CQU5HQUxPUkVDQV9DQTELMAkGA1UEBhMCSU4xDzANBgNVBAoTBkNJVFJJWDEM
MAoGA1UECxMDQU5HMQswCQYDVQQIEwJLQTEyMDAGCSqGSIb3DQEJARYjQkFOR0FM
T1JFQ0FfQ0FAQkFOR0FMT1JFQ0FfbWFpbC5jb20wHhcNMTYwNzA4MDQzMTI3WhcN
MjYwNzA2MDQzMTI3WjB4MQswCQYDVQQIEwJLQTELMAkGA1UEBhMCSU4xHzAdBgNV
BAMUFjEyOF9CQU5HQUxPUkVDQV9zZXJ2ZXIxKjAoBgkqhkiG9w0BCQEWGzEyOF9C
QU5HQUxPUkVDQUB0ZXN0X2NhLmNvbTEPMA0GA1UEChMGQ0lUUklYMIIBIjANBgkq
hkiG9w0BAQEFAAOCAQ8AMIIBCgKCAQEAvISWWZof/N/kKfbJ4k2qqoUW8ZQqQTfM
DFgdEV/fc0HM/v8zxVVTQIkMW0qsuu9QGfE7i/CAV1RLsxsqs8QPuvY+Wpg9+TGM
xDUK24+AZqFQ4HYLmgdZwRZrU91u3mRuVaKmDdLc1eTD4gb47Vsn57JWx+bjuMg2
hybqbfbe+1s0FkPdwA9o6eCvlPfYZ2n51L0pDZ8uYkl3mzzjoq8w9f4EVXZnRPdo
Jp2YFJ4cFDw0FH4DVaLmC7/KtL08cnwojeb7VnJXEkYKeQc4hMpp0gyjSAA2cBhM
juCHcXKwhFpkdDZLg0sWaemvhwXuzJnXlPrjs5ADR4Hj8E30felQPwIDAQABo4IB
MjCCAS4wEQYJYIZIAYb4QgEBBAQDAgZAMB0GA1UdDgQWBBSIWYe+9f2OJw+ilLBE
OaI9GlbWRTCBuwYDVR0jBIGzMIGwgBQ71tFTGIcFIrvuww/1zg9ropOnuKGBjKSB
iTCBhjEXMBUGA1UEAxQOQkFOR0FMT1JFQ0FfQ0ExCzAJBgNVBAYTAklOMQ8wDQYD
VQQKEwZDSVRSSVgxDDAKBgNVBAsTA0FORzELMAkGA1UECBMCS0ExMjAwBgkqhkiG
9w0BCQEWI0JBTkdBTE9SRUNBX0NBQEJBTkdBTE9SRUNBX21haWwuY29tggkAoay0
2kZTWEAwPAYIKwYBBQUHAQEEMDAuMCwGCCsGAQUFBzABhiBodHRwOi8vMTcyLjE2
LjEwLjEvcmVzcG9uZGVycGF0aDANBgkqhkiG9w0BAQsFAAOCAQEAWnGPc6WVZJfH
YHVPblP/Oh4U5c0zMFnEO+iUQ8+xQ288rVvFwI1x1hYuWg4GoLsf+QwtLjTIkdO/
3hzovq+8vEUXM4RX1ZoVT/KuPuHAmLIP6jTYkz/rY/cSXlfoyzYpCBSlI2phOMuA
UEGJGsH+iUXaYp6QNTLbgnGgx9g0QRZpSzHf0qGWDY9oYsCl32SpDw+3u77MQT+Y
htp+YFAiGQPGGCU8j6TPG7qsRAg6TL9uOCsv+WMPtrJyVrMQbCEAhTN89SRxef5b
V7VgiQc/9vLQ/ZguTyt8FSljbPAd+EZ1AwZQrUsPmooyG3gt3AMTAEYkG49v3JZ+
w30s6oQJRw==
-----END CERTIFICATE-----
