Certificate:
    Data:
        Version: 3 (0x2)
        Serial Number: 11042563100204 (0xa0b0c0d0e2c)
    Signature Algorithm: sha256WithRSAEncryption
        Issuer: CN=BANGALORECA_CA, C=IN, O=CITRIX, OU=ANG, ST=KA/emailAddress=BANGALORECA_CA@BANGALORECA_mail.com
        Validity
            Not Before: Jul  8 04:31:28 2016 GMT
            Not After : Jul  6 04:31:28 2026 GMT
        Subject: ST=KA, C=IN, CN=130_BANGALORECA_server/emailAddress=130_BANGALORECA@test_ca.com, O=CITRIX
        Subject Public Key Info:
            Public Key Algorithm: rsaEncryption
                Public-Key: (2048 bit)
                Modulus:
                    00:d8:d9:95:2f:4c:a9:57:a4:8c:56:b9:e9:de:06:
                    c2:9e:c7:74:1e:18:ff:1a:22:de:7d:e2:70:96:96:
                    cd:49:56:f9:2a:43:f5:59:32:2a:5e:03:fa:0d:cc:
                    82:fb:ab:f1:02:b2:ac:85:52:0d:2a:09:90:7e:92:
                    5b:78:37:c6:15:43:3b:42:d6:3c:b1:d1:b8:6d:a2:
                    ab:94:ff:0a:36:d9:96:a9:90:fa:46:e3:57:9f:ba:
                    67:7c:39:9c:fd:db:39:02:ac:25:49:40:e0:fc:af:
                    b3:98:5d:06:c8:58:93:5d:95:93:f9:4e:85:32:80:
                    9b:b0:33:ee:34:83:47:5f:3b:21:6b:0b:ed:2b:d4:
                    7a:85:26:e4:a3:03:9c:3f:a5:4b:0e:c9:d5:3c:2b:
                    e0:37:ba:39:e7:08:bd:f6:2e:4b:70:7d:37:07:92:
                    92:db:63:9d:8d:b9:14:db:d3:18:1e:06:d1:fd:0e:
                    03:a3:cf:49:8d:11:d5:05:90:e7:fe:8b:da:b3:2d:
                    76:69:a6:7d:fd:ee:bf:6f:e8:ca:fd:a1:ce:cc:48:
                    f9:90:0c:a0:d8:6d:d1:a0:46:91:3a:aa:05:be:21:
                    52:b4:b1:c0:80:c5:34:55:6d:5f:9f:6d:c4:c8:ed:
                    51:14:af:42:96:64:9d:3d:d9:52:03:a3:f5:11:75:
                    dd:d9
                Exponent: 65537 (0x10001)
        X509v3 extensions:
            Netscape Cert Type: 
                SSL Server
            X509v3 Subject Key Identifier: 
                48:FE:6A:B8:8D:7F:ED:30:23:C7:C4:30:7A:D1:6A:FB:45:85:B1:56
            X509v3 Authority Key Identifier: 
                keyid:3B:D6:D1:53:18:87:05:22:BB:EE:C3:0F:F5:CE:0F:6B:A2:93:A7:B8
                DirName:/CN=BANGALORECA_CA/C=IN/O=CITRIX/OU=ANG/ST=KA/emailAddress=BANGALORECA_CA@BANGALORECA_mail.com
                serial:A1:AC:B4:DA:46:53:58:40

            Authority Information Access: 
                OCSP - URI:http://172.16.10.1/responderpath

    Signature Algorithm: sha256WithRSAEncryption
         62:cf:2d:96:4b:f3:bd:c4:12:ab:c2:12:88:bf:9b:ae:b8:3e:
         47:f4:27:67:5b:33:27:cc:58:e1:31:dc:dc:7d:93:f8:98:1d:
         91:40:2d:2c:58:96:4c:dd:cd:8c:c2:f7:e7:9f:eb:21:ed:9b:
         60:27:7a:97:a5:74:83:4f:a4:59:09:e9:25:e8:45:90:aa:03:
         8a:cc:d5:e5:c2:29:34:05:ed:7c:d6:18:09:26:e6:20:64:75:
         48:32:98:71:84:0e:f1:29:8a:71:f8:41:ff:55:9c:4f:6e:f7:
         07:97:7d:f9:39:09:b2:8e:79:5d:aa:3f:82:f4:6c:0b:93:dc:
         fe:80:3d:5d:f1:fd:a4:11:19:8d:6a:d7:d5:3a:9d:15:4f:d9:
         9c:03:6c:02:c4:3a:88:f1:ba:be:75:19:94:5c:17:e1:5a:23:
         4d:c8:5e:89:24:55:b7:04:e3:0d:0f:c9:dc:e0:32:fc:01:a0:
         b8:aa:c5:c6:0b:37:64:6e:ba:d7:c5:c8:99:53:69:dc:3a:5d:
         43:52:33:2b:6e:e2:cf:7a:d0:b7:93:bf:22:f3:56:a2:44:1f:
         72:03:bb:5e:a7:d0:52:a2:f4:7e:1a:3f:fc:fd:a4:de:b3:ed:
         4e:0f:26:a8:91:a8:b4:73:95:d5:60:08:48:b7:a3:48:69:6a:
         93:24:69:0d
-----BEGIN CERTIFICATE-----
MIIEszCCA5ugAwIBAgIGCgsMDQ4sMA0GCSqGSIb3DQEBCwUAMIGGMRcwFQYDVQQD
FA5CQU5HQUxPUkVDQV9DQTELMAkGA1UEBhMCSU4xDzANBgNVBAoTBkNJVFJJWDEM
MAoGA1UECxMDQU5HMQswCQYDVQQIEwJLQTEyMDAGCSqGSIb3DQEJARYjQkFOR0FM
T1JFQ0FfQ0FAQkFOR0FMT1JFQ0FfbWFpbC5jb20wHhcNMTYwNzA4MDQzMTI4WhcN
MjYwNzA2MDQzMTI4WjB4MQswCQYDVQQIEwJLQTELMAkGA1UEBhMCSU4xHzAdBgNV
BAMUFjEzMF9CQU5HQUxPUkVDQV9zZXJ2ZXIxKjAoBgkqhkiG9w0BCQEWGzEzMF9C
QU5HQUxPUkVDQUB0ZXN0X2NhLmNvbTEPMA0GA1UEChMGQ0lUUklYMIIBIjANBgkq
hkiG9w0BAQEFAAOCAQ8AMIIBCgKCAQEA2NmVL0ypV6SMVrnp3gbCnsd0Hhj/GiLe
feJwlpbNSVb5KkP1WTIqXgP6DcyC+6vxArKshVINKgmQfpJbeDfGFUM7QtY8sdG4
baKrlP8KNtmWqZD6RuNXn7pnfDmc/ds5AqwlSUDg/K+zmF0GyFiTXZWT+U6FMoCb
sDPuNINHXzshawvtK9R6hSbkowOcP6VLDsnVPCvgN7o55wi99i5LcH03B5KS22Od
jbkU29MYHgbR/Q4Do89JjRHVBZDn/ovasy12aaZ9/e6/b+jK/aHOzEj5kAyg2G3R
oEaROqoFviFStLHAgMU0VW1fn23EyO1RFK9ClmSdPdlSA6P1EXXd2QIDAQABo4IB
MjCCAS4wEQYJYIZIAYb4QgEBBAQDAgZAMB0GA1UdDgQWBBRI/mq4jX/tMCPHxDB6
0Wr7RYWxVjCBuwYDVR0jBIGzMIGwgBQ71tFTGIcFIrvuww/1zg9ropOnuKGBjKSB
iTCBhjEXMBUGA1UEAxQOQkFOR0FMT1JFQ0FfQ0ExCzAJBgNVBAYTAklOMQ8wDQYD
VQQKEwZDSVRSSVgxDDAKBgNVBAsTA0FORzELMAkGA1UECBMCS0ExMjAwBgkqhkiG
9w0BCQEWI0JBTkdBTE9SRUNBX0NBQEJBTkdBTE9SRUNBX21haWwuY29tggkAoay0
2kZTWEAwPAYIKwYBBQUHAQEEMDAuMCwGCCsGAQUFBzABhiBodHRwOi8vMTcyLjE2
LjEwLjEvcmVzcG9uZGVycGF0aDANBgkqhkiG9w0BAQsFAAOCAQEAYs8tlkvzvcQS
q8ISiL+brrg+R/QnZ1szJ8xY4THc3H2T+JgdkUAtLFiWTN3NjML355/rIe2bYCd6
l6V0g0+kWQnpJehFkKoDiszV5cIpNAXtfNYYCSbmIGR1SDKYcYQO8SmKcfhB/1Wc
T273B5d9+TkJso55Xao/gvRsC5Pc/oA9XfH9pBEZjWrX1TqdFU/ZnANsAsQ6iPG6
vnUZlFwX4VojTcheiSRVtwTjDQ/J3OAy/AGguKrFxgs3ZG6618XImVNp3DpdQ1Iz
K27iz3rQt5O/IvNWokQfcgO7XqfQUqL0fho//P2k3rPtTg8mqJGotHOV1WAISLej
SGlqkyRpDQ==
-----END CERTIFICATE-----
