Certificate:
    Data:
        Version: 3 (0x2)
        Serial Number: 11042563100206 (0xa0b0c0d0e2e)
    Signature Algorithm: sha256WithRSAEncryption
        Issuer: CN=BANGALORECA_CA, C=IN, O=CITRIX, OU=ANG, ST=KA/emailAddress=BANGALORECA_CA@BANGALORECA_mail.com
        Validity
            Not Before: Jul  8 04:31:28 2016 GMT
            Not After : Jul  6 04:31:28 2026 GMT
        Subject: ST=KA, C=IN, CN=132_BANGALORECA_server/emailAddress=132_BANGALORECA@test_ca.com, O=CITRIX
        Subject Public Key Info:
            Public Key Algorithm: rsaEncryption
                Public-Key: (2048 bit)
                Modulus:
                    00:d5:dd:cc:2b:b0:c5:5a:1a:e4:9b:7f:1b:2d:d3:
                    52:33:6f:dd:2b:45:e5:3c:a7:02:59:b1:9d:83:f2:
                    7c:be:79:2c:8a:62:6e:9e:19:98:e8:26:87:db:34:
                    b2:17:ea:7e:b1:3c:b2:e6:93:ba:33:4a:ea:77:4f:
                    9a:18:d4:dc:7d:93:97:4c:1d:6b:3a:69:61:f3:f9:
                    f0:04:eb:7d:5b:d9:aa:d5:86:8c:48:27:5f:29:90:
                    5d:00:e9:fa:c9:07:48:15:72:48:05:2a:6c:3b:d0:
                    32:0e:3d:03:38:8a:a5:0a:f2:af:8c:a5:57:8f:6d:
                    a0:e4:68:dc:4d:30:ba:98:3c:06:eb:c4:7b:e7:5d:
                    6a:8a:eb:7f:05:2c:ae:8f:ad:a5:6f:b5:cf:bf:3d:
                    f9:b2:d7:61:38:29:5e:a0:e8:59:9d:7e:0d:a4:1e:
                    65:bf:47:1a:c7:87:7e:79:d2:45:c1:be:9b:0e:90:
                    80:b6:72:b5:71:b1:b1:23:89:0b:06:7b:1f:98:84:
                    3e:f9:ed:62:5e:e7:9a:1d:85:b3:5f:fc:52:33:21:
                    c2:82:ab:a5:53:3b:3c:6b:21:95:b4:5a:7d:3d:1b:
                    3d:fb:9c:a3:38:71:88:b8:fb:bf:d2:15:79:72:d3:
                    0a:60:aa:5f:91:22:c7:29:e6:64:35:7a:76:25:8f:
                    40:ab
                Exponent: 65537 (0x10001)
        X509v3 extensions:
            Netscape Cert Type: 
                SSL Server
            X509v3 Subject Key Identifier: 
                24:0F:D5:9A:70:BB:EB:7E:FA:A7:07:BD:46:0B:1C:B2:9C:C3:88:1C
            X509v3 Authority Key Identifier: 
                keyid:3B:D6:D1:53:18:87:05:22:BB:EE:C3:0F:F5:CE:0F:6B:A2:93:A7:B8
                DirName:/CN=BANGALORECA_CA/C=IN/O=CITRIX/OU=ANG/ST=KA/emailAddress=BANGALORECA_CA@BANGALORECA_mail.com
                serial:A1:AC:B4:DA:46:53:58:40

            Authority Information Access: 
                OCSP - URI:http://172.16.20.1/responderpath

    Signature Algorithm: sha256WithRSAEncryption
         15:b1:d1:25:74:5a:e6:45:fd:cd:42:bd:bd:01:3b:5b:ea:88:
         cb:92:98:7b:44:af:30:96:5f:8f:6b:4f:b0:f2:a4:28:5a:d7:
         f0:eb:22:3b:ce:8f:6b:93:4f:50:34:13:55:09:94:dd:c9:aa:
         ac:62:aa:04:a1:bd:3f:b3:40:3a:4d:86:91:bc:45:c3:49:75:
         5d:3f:95:52:58:67:11:db:bb:72:56:a4:55:58:b0:0b:9a:4a:
         60:9c:88:25:80:e6:63:8e:f1:23:04:33:6a:e9:e4:99:1c:7c:
         d4:0a:cf:b7:53:52:bd:72:de:ed:6e:6a:fb:b7:21:9d:d6:71:
         d8:5d:3c:51:b4:f4:19:28:2e:bb:1b:96:dc:8b:38:b6:86:89:
         37:a5:81:e9:b7:b0:5b:5f:8e:23:25:7a:14:17:07:ee:2a:f2:
         d8:fd:c4:21:f3:44:3e:f2:8e:ce:59:0f:db:d8:82:e0:e1:2a:
         cb:4e:62:6a:7a:a1:f7:62:db:ed:1d:85:5f:19:22:70:52:40:
         6c:5f:b8:38:e1:eb:10:47:cb:66:10:13:44:55:df:ca:b0:c7:
         94:ae:38:ce:77:75:fb:c3:21:3e:dd:74:a2:8c:10:2d:f1:d4:
         05:a5:44:4e:76:51:cd:b5:1f:04:02:fb:35:fb:6f:53:9e:62:
         a5:dd:06:45
-----BEGIN CERTIFICATE-----
MIIEszCCA5ugAwIBAgIGCgsMDQ4uMA0GCSqGSIb3DQEBCwUAMIGGMRcwFQYDVQQD
FA5CQU5HQUxPUkVDQV9DQTELMAkGA1UEBhMCSU4xDzANBgNVBAoTBkNJVFJJWDEM
MAoGA1UECxMDQU5HMQswCQYDVQQIEwJLQTEyMDAGCSqGSIb3DQEJARYjQkFOR0FM
T1JFQ0FfQ0FAQkFOR0FMT1JFQ0FfbWFpbC5jb20wHhcNMTYwNzA4MDQzMTI4WhcN
MjYwNzA2MDQzMTI4WjB4MQswCQYDVQQIEwJLQTELMAkGA1UEBhMCSU4xHzAdBgNV
BAMUFjEzMl9CQU5HQUxPUkVDQV9zZXJ2ZXIxKjAoBgkqhkiG9w0BCQEWGzEzMl9C
QU5HQUxPUkVDQUB0ZXN0X2NhLmNvbTEPMA0GA1UEChMGQ0lUUklYMIIBIjANBgkq
hkiG9w0BAQEFAAOCAQ8AMIIBCgKCAQEA1d3MK7DFWhrkm38bLdNSM2/dK0XlPKcC
WbGdg/J8vnksimJunhmY6CaH2zSyF+p+sTyy5pO6M0rqd0+aGNTcfZOXTB1rOmlh
8/nwBOt9W9mq1YaMSCdfKZBdAOn6yQdIFXJIBSpsO9AyDj0DOIqlCvKvjKVXj22g
5GjcTTC6mDwG68R7511qiut/BSyuj62lb7XPvz35stdhOCleoOhZnX4NpB5lv0ca
x4d+edJFwb6bDpCAtnK1cbGxI4kLBnsfmIQ++e1iXueaHYWzX/xSMyHCgqulUzs8
ayGVtFp9PRs9+5yjOHGIuPu/0hV5ctMKYKpfkSLHKeZkNXp2JY9AqwIDAQABo4IB
MjCCAS4wEQYJYIZIAYb4QgEBBAQDAgZAMB0GA1UdDgQWBBQkD9WacLvrfvqnB71G
CxyynMOIHDCBuwYDVR0jBIGzMIGwgBQ71tFTGIcFIrvuww/1zg9ropOnuKGBjKSB
iTCBhjEXMBUGA1UEAxQOQkFOR0FMT1JFQ0FfQ0ExCzAJBgNVBAYTAklOMQ8wDQYD
VQQKEwZDSVRSSVgxDDAKBgNVBAsTA0FORzELMAkGA1UECBMCS0ExMjAwBgkqhkiG
9w0BCQEWI0JBTkdBTE9SRUNBX0NBQEJBTkdBTE9SRUNBX21haWwuY29tggkAoay0
2kZTWEAwPAYIKwYBBQUHAQEEMDAuMCwGCCsGAQUFBzABhiBodHRwOi8vMTcyLjE2
LjIwLjEvcmVzcG9uZGVycGF0aDANBgkqhkiG9w0BAQsFAAOCAQEAFbHRJXRa5kX9
zUK9vQE7W+qIy5KYe0SvMJZfj2tPsPKkKFrX8OsiO86Pa5NPUDQTVQmU3cmqrGKq
BKG9P7NAOk2GkbxFw0l1XT+VUlhnEdu7clakVViwC5pKYJyIJYDmY47xIwQzaunk
mRx81ArPt1NSvXLe7W5q+7chndZx2F08UbT0GSguuxuW3Is4toaJN6WB6bewW1+O
IyV6FBcH7iry2P3EIfNEPvKOzlkP29iC4OEqy05ianqh92Lb7R2FXxkicFJAbF+4
OOHrEEfLZhATRFXfyrDHlK44znd1+8MhPt10oowQLfHUBaVETnZRzbUfBAL7Nftv
U55ipd0GRQ==
-----END CERTIFICATE-----
