Certificate:
    Data:
        Version: 3 (0x2)
        Serial Number: 11042563100209 (0xa0b0c0d0e31)
    Signature Algorithm: sha256WithRSAEncryption
        Issuer: CN=BANGALORECA_CA, C=IN, O=CITRIX, OU=ANG, ST=KA/emailAddress=BANGALORECA_CA@BANGALORECA_mail.com
        Validity
            Not Before: Jul  8 04:31:29 2016 GMT
            Not After : Jul  6 04:31:29 2026 GMT
        Subject: ST=KA, C=IN, CN=135_BANGALORECA_server/emailAddress=135_BANGALORECA@test_ca.com, O=CITRIX
        Subject Public Key Info:
            Public Key Algorithm: rsaEncryption
                Public-Key: (2048 bit)
                Modulus:
                    00:9c:ef:ec:ff:7a:4c:02:8e:1d:78:90:29:cc:32:
                    fb:2e:0b:c9:1f:15:c5:bf:5e:af:67:ee:55:76:b8:
                    4c:cf:35:ea:cf:fc:8f:c3:00:83:0b:52:ce:66:2e:
                    d3:38:62:9f:d7:5c:3e:ca:2c:ca:2d:6e:5a:fa:a4:
                    51:fa:c0:d6:b6:8c:57:08:36:45:e4:a7:08:aa:4b:
                    5b:5f:09:69:6a:2c:35:29:86:c2:eb:05:94:5f:b1:
                    01:06:09:15:83:61:ee:90:c5:9c:26:06:bf:d4:7f:
                    b5:6e:91:9d:ec:7b:57:1f:d8:c3:ba:17:8f:82:1c:
                    79:1f:4a:63:f9:3c:93:2f:c8:b7:c5:da:0f:87:bb:
                    69:8c:d3:0c:d8:27:dd:5e:2d:d7:a0:fa:90:36:48:
                    60:d9:b3:30:d3:38:15:54:8a:b6:c2:85:94:77:ee:
                    af:bc:98:bf:8f:db:d6:22:56:b1:55:c6:cb:03:15:
                    d6:59:e0:67:2a:44:cc:02:0e:24:cb:55:de:74:6e:
                    ea:2c:4a:51:f1:b8:01:9c:23:0f:12:60:ff:5e:ab:
                    fc:eb:29:4e:34:c3:4f:cc:41:a3:ae:0c:ea:00:66:
                    36:76:50:3f:43:f8:80:28:b5:ee:67:7b:72:02:db:
                    de:33:a0:b7:20:06:4f:3b:43:d4:d3:9f:aa:7c:53:
                    b8:01
                Exponent: 65537 (0x10001)
        X509v3 extensions:
            Netscape Cert Type: 
                SSL Server
            X509v3 Subject Key Identifier: 
                31:DD:4C:BE:AF:7E:C4:14:D3:DE:73:B6:66:F7:24:B9:7D:8B:29:C9
            X509v3 Authority Key Identifier: 
                keyid:3B:D6:D1:53:18:87:05:22:BB:EE:C3:0F:F5:CE:0F:6B:A2:93:A7:B8
                DirName:/CN=BANGALORECA_CA/C=IN/O=CITRIX/OU=ANG/ST=KA/emailAddress=BANGALORECA_CA@BANGALORECA_mail.com
                serial:A1:AC:B4:DA:46:53:58:40

            Authority Information Access: 
                OCSP - URI:http://172.16.20.1/responderpath

    Signature Algorithm: sha256WithRSAEncryption
         1e:a3:10:4c:7e:1c:6a:24:4f:05:54:56:2d:39:70:a3:62:7f:
         04:ec:78:6f:e8:72:3d:27:ef:61:a1:59:02:71:1d:81:82:5a:
         f4:07:2e:db:46:3d:77:68:fe:1e:5c:c4:3c:85:1f:dd:96:33:
         61:47:66:cc:ab:ca:51:a0:14:91:94:92:a0:f2:d5:e6:81:92:
         43:d2:73:e6:df:dc:d5:1d:05:08:05:62:a8:e0:e6:db:07:71:
         bb:da:78:ec:f7:d7:c7:8c:31:9e:f3:e7:dd:94:0b:69:6d:98:
         f7:21:b1:ec:e5:8c:61:2a:51:2c:a8:12:c9:05:b6:23:a2:39:
         c6:2c:32:03:81:64:63:02:a2:bc:51:be:64:e5:eb:f2:8f:35:
         8c:49:1f:5c:66:b5:6d:cd:2e:7b:7a:67:33:07:5f:52:d1:ba:
         dd:47:4f:22:49:55:fa:01:2c:3e:40:f9:71:c6:49:64:b4:79:
         47:47:8f:f6:80:3e:27:4d:82:ed:88:73:cf:25:f0:1a:2d:34:
         e8:49:17:57:8a:e2:b6:28:a4:6a:05:1b:31:29:e2:6a:c9:74:
         94:0d:f8:66:c2:38:df:09:b9:a6:b3:12:c4:99:43:9e:98:89:
         29:65:97:bc:8b:77:91:70:97:61:d7:f2:c9:7a:a6:b9:89:11:
         40:2e:8a:41
-----BEGIN CERTIFICATE-----
MIIEszCCA5ugAwIBAgIGCgsMDQ4xMA0GCSqGSIb3DQEBCwUAMIGGMRcwFQYDVQQD
FA5CQU5HQUxPUkVDQV9DQTELMAkGA1UEBhMCSU4xDzANBgNVBAoTBkNJVFJJWDEM
MAoGA1UECxMDQU5HMQswCQYDVQQIEwJLQTEyMDAGCSqGSIb3DQEJARYjQkFOR0FM
T1JFQ0FfQ0FAQkFOR0FMT1JFQ0FfbWFpbC5jb20wHhcNMTYwNzA4MDQzMTI5WhcN
MjYwNzA2MDQzMTI5WjB4MQswCQYDVQQIEwJLQTELMAkGA1UEBhMCSU4xHzAdBgNV
BAMUFjEzNV9CQU5HQUxPUkVDQV9zZXJ2ZXIxKjAoBgkqhkiG9w0BCQEWGzEzNV9C
QU5HQUxPUkVDQUB0ZXN0X2NhLmNvbTEPMA0GA1UEChMGQ0lUUklYMIIBIjANBgkq
hkiG9w0BAQEFAAOCAQ8AMIIBCgKCAQEAnO/s/3pMAo4deJApzDL7LgvJHxXFv16v
Z+5VdrhMzzXqz/yPwwCDC1LOZi7TOGKf11w+yizKLW5a+qRR+sDWtoxXCDZF5KcI
qktbXwlpaiw1KYbC6wWUX7EBBgkVg2HukMWcJga/1H+1bpGd7HtXH9jDuhePghx5
H0pj+TyTL8i3xdoPh7tpjNMM2CfdXi3XoPqQNkhg2bMw0zgVVIq2woWUd+6vvJi/
j9vWIlaxVcbLAxXWWeBnKkTMAg4ky1XedG7qLEpR8bgBnCMPEmD/Xqv86ylONMNP
zEGjrgzqAGY2dlA/Q/iAKLXuZ3tyAtveM6C3IAZPO0PU05+qfFO4AQIDAQABo4IB
MjCCAS4wEQYJYIZIAYb4QgEBBAQDAgZAMB0GA1UdDgQWBBQx3Uy+r37EFNPec7Zm
9yS5fYspyTCBuwYDVR0jBIGzMIGwgBQ71tFTGIcFIrvuww/1zg9ropOnuKGBjKSB
iTCBhjEXMBUGA1UEAxQOQkFOR0FMT1JFQ0FfQ0ExCzAJBgNVBAYTAklOMQ8wDQYD
VQQKEwZDSVRSSVgxDDAKBgNVBAsTA0FORzELMAkGA1UECBMCS0ExMjAwBgkqhkiG
9w0BCQEWI0JBTkdBTE9SRUNBX0NBQEJBTkdBTE9SRUNBX21haWwuY29tggkAoay0
2kZTWEAwPAYIKwYBBQUHAQEEMDAuMCwGCCsGAQUFBzABhiBodHRwOi8vMTcyLjE2
LjIwLjEvcmVzcG9uZGVycGF0aDANBgkqhkiG9w0BAQsFAAOCAQEAHqMQTH4caiRP
BVRWLTlwo2J/BOx4b+hyPSfvYaFZAnEdgYJa9Acu20Y9d2j+HlzEPIUf3ZYzYUdm
zKvKUaAUkZSSoPLV5oGSQ9Jz5t/c1R0FCAViqODm2wdxu9p47PfXx4wxnvPn3ZQL
aW2Y9yGx7OWMYSpRLKgSyQW2I6I5xiwyA4FkYwKivFG+ZOXr8o81jEkfXGa1bc0u
e3pnMwdfUtG63UdPIklV+gEsPkD5ccZJZLR5R0eP9oA+J02C7YhzzyXwGi006EkX
V4ritiikagUbMSniasl0lA34ZsI43wm5prMSxJlDnpiJKWWXvIt3kXCXYdfyyXqm
uYkRQC6KQQ==
-----END CERTIFICATE-----
