Certificate:
    Data:
        Version: 3 (0x2)
        Serial Number: 11042563100210 (0xa0b0c0d0e32)
    Signature Algorithm: sha256WithRSAEncryption
        Issuer: CN=BANGALORECA_CA, C=IN, O=CITRIX, OU=ANG, ST=KA/emailAddress=BANGALORECA_CA@BANGALORECA_mail.com
        Validity
            Not Before: Jul  8 04:31:29 2016 GMT
            Not After : Jul  6 04:31:29 2026 GMT
        Subject: ST=KA, C=IN, CN=136_BANGALORECA_server/emailAddress=136_BANGALORECA@test_ca.com, O=CITRIX
        Subject Public Key Info:
            Public Key Algorithm: rsaEncryption
                Public-Key: (2048 bit)
                Modulus:
                    00:b0:7c:4c:33:46:3d:c9:6a:66:d9:d3:01:49:37:
                    7a:56:05:28:a0:c2:39:de:01:e1:04:e3:0c:d0:36:
                    bc:27:d0:95:cb:da:5e:31:b7:92:f0:03:9b:9f:02:
                    56:b2:68:9c:f3:22:5c:9e:5a:4a:49:16:a2:09:39:
                    bc:7d:e4:41:08:77:f9:4a:74:9d:a9:fe:04:22:4f:
                    81:e8:40:05:bc:04:c7:f0:2a:15:a7:2a:de:4e:c6:
                    9b:c9:36:b8:27:e0:21:cd:ab:ad:07:e1:ae:06:16:
                    40:0c:dc:e9:61:11:72:90:bb:e5:4e:ce:6a:fd:ee:
                    2e:ac:0c:0b:83:d8:ab:4c:0d:9a:d3:d5:9b:e8:d6:
                    3c:60:ac:d1:b7:3f:38:60:5c:2b:50:7f:14:1b:e6:
                    aa:06:6e:a1:ce:e9:dc:73:a6:f5:af:43:32:73:d8:
                    76:ec:8d:df:91:83:ed:03:28:ce:7e:9c:2e:24:ca:
                    db:26:46:bf:45:2d:c0:ea:af:18:f3:a9:7e:87:e7:
                    08:37:ab:8e:7c:72:fc:9b:33:ab:82:a6:15:5b:72:
                    05:13:1b:ef:44:ae:95:d7:a6:d0:6e:d2:7e:03:90:
                    a5:cb:bc:22:4f:6c:6b:3d:f4:3b:aa:60:2f:64:9c:
                    32:63:14:e0:28:b1:b4:44:bd:c6:a5:45:bc:06:9d:
                    ce:a3
                Exponent: 65537 (0x10001)
        X509v3 extensions:
            Netscape Cert Type: 
                SSL Server
            X509v3 Subject Key Identifier: 
                6D:B8:5D:54:AC:17:F1:CD:FD:3E:22:96:51:97:F2:12:C0:05:08:81
            X509v3 Authority Key Identifier: 
                keyid:3B:D6:D1:53:18:87:05:22:BB:EE:C3:0F:F5:CE:0F:6B:A2:93:A7:B8
                DirName:/CN=BANGALORECA_CA/C=IN/O=CITRIX/OU=ANG/ST=KA/emailAddress=BANGALORECA_CA@BANGALORECA_mail.com
                serial:A1:AC:B4:DA:46:53:58:40

            Authority Information Access: 
                OCSP - URI:http://172.16.20.1/responderpath

    Signature Algorithm: sha256WithRSAEncryption
         a3:b2:be:68:0d:67:97:57:8c:92:b9:63:c5:f3:ed:12:e2:50:
         0e:0d:42:38:6a:03:a7:58:b4:b8:d1:a5:ac:6e:5f:28:99:09:
         4e:8f:fe:59:13:58:bb:51:b7:d5:22:3b:c5:8f:d5:18:92:f2:
         87:1a:7e:4e:b7:bc:88:04:0b:31:c7:21:f8:49:b9:b9:f9:ac:
         ec:45:e2:68:1c:dc:6e:90:11:6c:94:50:f0:75:b0:cb:9b:88:
         30:dc:d6:5a:88:55:bf:d2:7f:19:ab:8c:62:f7:f3:c6:a9:d4:
         62:2a:c7:f3:12:06:9b:4c:45:01:89:40:d1:fa:f6:43:95:f7:
         b1:23:fa:46:d9:04:f1:d2:0d:b0:e0:33:e5:ab:29:5f:72:86:
         ef:ce:37:82:bc:d4:30:be:c6:2a:31:8c:f6:17:bd:06:71:25:
         89:84:7f:93:12:ca:4b:2b:65:bb:5c:97:84:56:ae:aa:b7:88:
         2d:ca:13:fd:5a:27:ca:a9:44:ad:2a:9f:3b:e3:14:70:e5:54:
         99:0c:78:03:f7:02:0e:ba:86:17:9c:bf:7b:30:ae:ff:6b:10:
         88:5d:e9:02:48:db:ef:33:38:57:18:a2:52:26:bd:18:6c:43:
         63:a3:d2:b0:7f:ec:99:0f:dc:80:ea:88:c0:7e:94:3f:e7:3b:
         d9:b6:24:96
-----BEGIN CERTIFICATE-----
MIIEszCCA5ugAwIBAgIGCgsMDQ4yMA0GCSqGSIb3DQEBCwUAMIGGMRcwFQYDVQQD
FA5CQU5HQUxPUkVDQV9DQTELMAkGA1UEBhMCSU4xDzANBgNVBAoTBkNJVFJJWDEM
MAoGA1UECxMDQU5HMQswCQYDVQQIEwJLQTEyMDAGCSqGSIb3DQEJARYjQkFOR0FM
T1JFQ0FfQ0FAQkFOR0FMT1JFQ0FfbWFpbC5jb20wHhcNMTYwNzA4MDQzMTI5WhcN
MjYwNzA2MDQzMTI5WjB4MQswCQYDVQQIEwJLQTELMAkGA1UEBhMCSU4xHzAdBgNV
BAMUFjEzNl9CQU5HQUxPUkVDQV9zZXJ2ZXIxKjAoBgkqhkiG9w0BCQEWGzEzNl9C
QU5HQUxPUkVDQUB0ZXN0X2NhLmNvbTEPMA0GA1UEChMGQ0lUUklYMIIBIjANBgkq
hkiG9w0BAQEFAAOCAQ8AMIIBCgKCAQEAsHxMM0Y9yWpm2dMBSTd6VgUooMI53gHh
BOMM0Da8J9CVy9peMbeS8AObnwJWsmic8yJcnlpKSRaiCTm8feRBCHf5SnSdqf4E
Ik+B6EAFvATH8CoVpyreTsabyTa4J+AhzautB+GuBhZADNzpYRFykLvlTs5q/e4u
rAwLg9irTA2a09Wb6NY8YKzRtz84YFwrUH8UG+aqBm6hzuncc6b1r0Myc9h27I3f
kYPtAyjOfpwuJMrbJka/RS3A6q8Y86l+h+cIN6uOfHL8mzOrgqYVW3IFExvvRK6V
16bQbtJ+A5Cly7wiT2xrPfQ7qmAvZJwyYxTgKLG0RL3GpUW8Bp3OowIDAQABo4IB
MjCCAS4wEQYJYIZIAYb4QgEBBAQDAgZAMB0GA1UdDgQWBBRtuF1UrBfxzf0+IpZR
l/ISwAUIgTCBuwYDVR0jBIGzMIGwgBQ71tFTGIcFIrvuww/1zg9ropOnuKGBjKSB
iTCBhjEXMBUGA1UEAxQOQkFOR0FMT1JFQ0FfQ0ExCzAJBgNVBAYTAklOMQ8wDQYD
VQQKEwZDSVRSSVgxDDAKBgNVBAsTA0FORzELMAkGA1UECBMCS0ExMjAwBgkqhkiG
9w0BCQEWI0JBTkdBTE9SRUNBX0NBQEJBTkdBTE9SRUNBX21haWwuY29tggkAoay0
2kZTWEAwPAYIKwYBBQUHAQEEMDAuMCwGCCsGAQUFBzABhiBodHRwOi8vMTcyLjE2
LjIwLjEvcmVzcG9uZGVycGF0aDANBgkqhkiG9w0BAQsFAAOCAQEAo7K+aA1nl1eM
krljxfPtEuJQDg1COGoDp1i0uNGlrG5fKJkJTo/+WRNYu1G31SI7xY/VGJLyhxp+
Tre8iAQLMcch+Em5ufms7EXiaBzcbpARbJRQ8HWwy5uIMNzWWohVv9J/GauMYvfz
xqnUYirH8xIGm0xFAYlA0fr2Q5X3sSP6RtkE8dINsOAz5aspX3KG7843grzUML7G
KjGM9he9BnEliYR/kxLKSytlu1yXhFauqreILcoT/VonyqlErSqfO+MUcOVUmQx4
A/cCDrqGF5y/ezCu/2sQiF3pAkjb7zM4VxiiUia9GGxDY6PSsH/smQ/cgOqIwH6U
P+c72bYklg==
-----END CERTIFICATE-----
