Certificate:
    Data:
        Version: 3 (0x2)
        Serial Number: 11042563100259 (0xa0b0c0d0e63)
    Signature Algorithm: sha256WithRSAEncryption
        Issuer: CN=BANGALORECA_CA, C=IN, O=CITRIX, OU=ANG, ST=KA/emailAddress=BANGALORECA_CA@BANGALORECA_mail.com
        Validity
            Not Before: Aug 23 09:07:07 2017 GMT
            Not After : Aug 21 09:07:07 2027 GMT
        Subject: ST=KA, C=IN, CN=blr_45_client/emailAddress=blr_45@test_ca.com, O=CITRIX
        Subject Public Key Info:
            Public Key Algorithm: rsaEncryption
                Public-Key: (2048 bit)
                Modulus:
                    00:f5:5a:cc:ea:65:40:3a:0b:96:5f:c8:77:38:fd:
                    6f:3c:b7:3b:af:c3:7b:08:43:d0:c1:21:de:26:d1:
                    39:d2:58:db:2e:bc:33:f4:4a:d2:24:06:71:2c:a8:
                    e0:0d:e4:d8:fd:04:ba:99:79:a4:05:ea:29:3c:7a:
                    f5:2a:97:10:5b:b7:11:03:0d:5e:4a:9a:a8:b2:a3:
                    9e:19:58:27:76:f9:07:39:39:01:d9:fa:f4:44:4a:
                    79:a6:f9:aa:2c:5d:b9:30:d0:4c:bd:6d:18:c9:65:
                    50:00:2b:8a:10:0d:93:7f:d9:46:20:4c:1b:67:e1:
                    26:8b:a7:48:94:c2:c2:ed:5e:8f:49:56:7e:0c:ad:
                    fd:27:15:f5:52:fc:ad:c7:6e:a7:b8:fa:8c:0f:33:
                    fa:7a:b4:26:92:3f:4c:02:58:99:5c:10:33:04:b7:
                    fa:e0:6d:f4:56:87:77:39:71:11:5b:7f:6d:b5:c6:
                    92:71:39:89:0c:d3:93:7a:28:2f:b2:6d:9a:57:58:
                    e4:23:79:ed:52:5d:84:05:46:6f:72:72:33:1e:b2:
                    c9:4a:37:90:69:b2:78:ba:02:8e:14:c6:6d:6b:e1:
                    13:e4:4b:29:93:48:c6:0b:2b:d8:18:08:d3:4a:20:
                    3c:1e:a6:20:29:e5:b0:04:62:30:a9:83:c3:c8:7e:
                    59:cb
                Exponent: 65537 (0x10001)
        X509v3 extensions:
            Netscape Cert Type: 
                SSL Client
            X509v3 Subject Key Identifier: 
                A1:D4:36:28:AF:B0:0F:C4:D4:38:80:F8:67:0F:84:46:8C:F8:9C:6B
            X509v3 Authority Key Identifier: 
                keyid:3B:D6:D1:53:18:87:05:22:BB:EE:C3:0F:F5:CE:0F:6B:A2:93:A7:B8
                DirName:/CN=BANGALORECA_CA/C=IN/O=CITRIX/OU=ANG/ST=KA/emailAddress=BANGALORECA_CA@BANGALORECA_mail.com
                serial:A1:AC:B4:DA:46:53:58:40

            Authority Information Access: 
                OCSP - URI:http://172.16.20.1/responderpath

    Signature Algorithm: sha256WithRSAEncryption
         86:0f:eb:dd:90:6c:e9:3a:48:c6:25:e7:a2:1d:c6:de:47:e4:
         bc:46:6d:b2:95:89:1c:55:95:26:dc:09:ce:17:20:e5:c1:ec:
         4d:7e:56:b7:38:6f:6f:49:3c:fb:68:ec:96:4b:5c:e3:5f:39:
         cb:95:15:05:a1:d1:29:b6:bb:41:24:0b:1b:65:90:8b:c0:70:
         b5:35:50:7b:c8:21:e6:41:b2:c9:41:2b:89:69:b3:9a:41:3a:
         24:66:2a:59:db:03:45:a5:a0:ca:90:d6:0c:20:22:b8:bd:24:
         1a:95:80:68:38:d1:09:21:bc:a5:fc:88:8d:59:96:0d:f3:1e:
         79:ea:bb:67:62:f3:3d:59:d1:ac:4f:91:81:f5:64:5e:51:e6:
         12:5a:2c:9f:5c:37:6c:8a:02:14:90:e6:24:cd:82:33:a6:16:
         ad:7e:2d:5a:b9:aa:82:1c:af:df:19:45:00:98:6e:63:8d:6a:
         13:09:8c:9c:ce:5f:14:a9:e8:5c:9e:e1:40:0c:91:82:c9:57:
         8c:ef:29:c8:03:c2:96:a1:20:66:cf:ab:ce:5b:e2:2c:36:74:
         85:d0:fd:de:ee:57:2c:f3:d1:c5:0c:47:a0:86:53:bd:9f:20:
         6b:e6:d2:dd:ed:07:8e:eb:e4:95:60:3f:8b:8e:83:cb:27:7e:
         87:ab:90:35
-----BEGIN CERTIFICATE-----
MIIEoTCCA4mgAwIBAgIGCgsMDQ5jMA0GCSqGSIb3DQEBCwUAMIGGMRcwFQYDVQQD
FA5CQU5HQUxPUkVDQV9DQTELMAkGA1UEBhMCSU4xDzANBgNVBAoTBkNJVFJJWDEM
MAoGA1UECxMDQU5HMQswCQYDVQQIEwJLQTEyMDAGCSqGSIb3DQEJARYjQkFOR0FM
T1JFQ0FfQ0FAQkFOR0FMT1JFQ0FfbWFpbC5jb20wHhcNMTcwODIzMDkwNzA3WhcN
MjcwODIxMDkwNzA3WjBmMQswCQYDVQQIEwJLQTELMAkGA1UEBhMCSU4xFjAUBgNV
BAMUDWJscl80NV9jbGllbnQxITAfBgkqhkiG9w0BCQEWEmJscl80NUB0ZXN0X2Nh
LmNvbTEPMA0GA1UEChMGQ0lUUklYMIIBIjANBgkqhkiG9w0BAQEFAAOCAQ8AMIIB
CgKCAQEA9VrM6mVAOguWX8h3OP1vPLc7r8N7CEPQwSHeJtE50ljbLrwz9ErSJAZx
LKjgDeTY/QS6mXmkBeopPHr1KpcQW7cRAw1eSpqosqOeGVgndvkHOTkB2fr0REp5
pvmqLF25MNBMvW0YyWVQACuKEA2Tf9lGIEwbZ+Emi6dIlMLC7V6PSVZ+DK39JxX1
Uvytx26nuPqMDzP6erQmkj9MAliZXBAzBLf64G30Vod3OXERW39ttcaScTmJDNOT
eigvsm2aV1jkI3ntUl2EBUZvcnIzHrLJSjeQabJ4ugKOFMZta+ET5Espk0jGCyvY
GAjTSiA8HqYgKeWwBGIwqYPDyH5ZywIDAQABo4IBMjCCAS4wEQYJYIZIAYb4QgEB
BAQDAgeAMB0GA1UdDgQWBBSh1DYor7APxNQ4gPhnD4RGjPicazCBuwYDVR0jBIGz
MIGwgBQ71tFTGIcFIrvuww/1zg9ropOnuKGBjKSBiTCBhjEXMBUGA1UEAxQOQkFO
R0FMT1JFQ0FfQ0ExCzAJBgNVBAYTAklOMQ8wDQYDVQQKEwZDSVRSSVgxDDAKBgNV
BAsTA0FORzELMAkGA1UECBMCS0ExMjAwBgkqhkiG9w0BCQEWI0JBTkdBTE9SRUNB
X0NBQEJBTkdBTE9SRUNBX21haWwuY29tggkAoay02kZTWEAwPAYIKwYBBQUHAQEE
MDAuMCwGCCsGAQUFBzABhiBodHRwOi8vMTcyLjE2LjIwLjEvcmVzcG9uZGVycGF0
aDANBgkqhkiG9w0BAQsFAAOCAQEAhg/r3ZBs6TpIxiXnoh3G3kfkvEZtspWJHFWV
JtwJzhcg5cHsTX5Wtzhvb0k8+2jslktc4185y5UVBaHRKba7QSQLG2WQi8BwtTVQ
e8gh5kGyyUEriWmzmkE6JGYqWdsDRaWgypDWDCAiuL0kGpWAaDjRCSG8pfyIjVmW
DfMeeeq7Z2LzPVnRrE+RgfVkXlHmElosn1w3bIoCFJDmJM2CM6YWrX4tWrmqghyv
3xlFAJhuY41qEwmMnM5fFKnoXJ7hQAyRgslXjO8pyAPClqEgZs+rzlviLDZ0hdD9
3u5XLPPRxQxHoIZTvZ8ga+bS3e0HjuvklWA/i46Dyyd+h6uQNQ==
-----END CERTIFICATE-----
