Certificate:
    Data:
        Version: 3 (0x2)
        Serial Number: 11042563100238 (0xa0b0c0d0e4e)
    Signature Algorithm: sha256WithRSAEncryption
        Issuer: CN=BANGALORECA_CA, C=IN, O=CITRIX, OU=ANG, ST=KA/emailAddress=BANGALORECA_CA@BANGALORECA_mail.com
        Validity
            Not Before: Aug 23 09:06:55 2017 GMT
            Not After : Aug 21 09:06:55 2027 GMT
        Subject: ST=KA, C=IN, CN=blr_24_client/emailAddress=blr_24@test_ca.com, O=CITRIX
        Subject Public Key Info:
            Public Key Algorithm: rsaEncryption
                Public-Key: (2048 bit)
                Modulus:
                    00:c1:f4:f2:15:84:f6:9e:21:db:be:ab:59:6e:45:
                    d8:1c:5d:02:cd:1c:af:3b:c5:42:87:ab:c8:53:19:
                    fd:c8:30:f4:de:c3:33:d6:84:48:59:0c:82:94:af:
                    07:32:76:c5:6c:1d:25:3a:36:39:3c:66:a0:4e:e9:
                    af:d3:b4:62:31:3b:31:b1:3f:86:f2:b5:2d:4c:88:
                    c3:82:ea:c7:79:44:02:fc:2e:9f:38:d4:fe:28:bb:
                    7b:ac:f4:1a:c3:4e:5e:84:c7:6e:0f:c2:00:ee:71:
                    51:db:1f:e2:4a:ac:56:e9:95:68:93:a8:a3:4f:e5:
                    84:74:d3:04:4d:95:8f:10:e6:35:41:90:ac:1e:76:
                    a2:f7:a0:cd:98:d9:33:f2:4c:8e:40:6e:4a:98:bc:
                    41:f1:b3:b9:1c:40:13:45:e0:d2:e1:30:2d:9d:e0:
                    0c:ad:ec:05:5c:d8:81:c2:1a:ea:58:ba:1d:d0:38:
                    ab:4b:56:e1:f8:e9:6f:67:42:dc:49:7b:b7:6e:09:
                    07:88:6e:93:11:26:7f:c7:fb:84:0c:db:be:00:12:
                    e3:63:87:2b:bd:04:c6:34:cc:49:0a:94:72:d9:d7:
                    82:18:e1:21:d3:cb:9c:e7:76:64:c8:54:f7:1d:f6:
                    9b:02:79:cb:19:40:be:ab:cc:01:a2:d1:8f:f1:c8:
                    ce:d9
                Exponent: 65537 (0x10001)
        X509v3 extensions:
            Netscape Cert Type: 
                SSL Client
            X509v3 Subject Key Identifier: 
                D0:4E:1A:15:49:34:DE:12:39:60:7F:B0:96:CF:C8:3B:99:8E:68:2D
            X509v3 Authority Key Identifier: 
                keyid:3B:D6:D1:53:18:87:05:22:BB:EE:C3:0F:F5:CE:0F:6B:A2:93:A7:B8
                DirName:/CN=BANGALORECA_CA/C=IN/O=CITRIX/OU=ANG/ST=KA/emailAddress=BANGALORECA_CA@BANGALORECA_mail.com
                serial:A1:AC:B4:DA:46:53:58:40

            Authority Information Access: 
                OCSP - URI:http://172.16.20.1/responderpath

    Signature Algorithm: sha256WithRSAEncryption
         9a:29:c3:11:64:ee:6a:06:9f:20:53:73:34:0b:95:ec:d3:d2:
         04:1e:47:ae:f5:89:58:b4:28:26:bc:58:e0:23:53:7a:b7:06:
         ee:52:2f:5b:7f:8b:a3:69:9b:b4:e4:b6:54:ad:cf:6e:c0:d6:
         88:19:49:20:5b:b7:16:b5:87:85:5a:50:da:b7:d7:d2:7d:d5:
         86:ec:0a:1a:21:d9:a6:46:65:86:88:dc:6c:b5:d1:bc:4a:3c:
         6a:f5:e2:43:91:81:de:ad:1a:23:9b:8c:68:2f:c0:6a:f0:f7:
         71:ee:3d:0c:39:d0:f7:44:98:0d:42:ce:2c:49:c0:87:03:28:
         05:a9:e0:e6:bc:2a:9f:1c:b0:87:89:61:0a:13:ce:26:9c:2f:
         36:47:2e:d8:e7:15:e5:97:4d:cc:e0:f4:26:47:7b:97:d8:74:
         10:ce:c7:65:e5:48:e2:c8:fe:dd:e3:4a:ad:d2:41:b5:65:cf:
         fa:da:5f:33:6c:99:af:42:45:5b:a7:76:a7:68:63:f9:75:5b:
         4a:45:c2:65:f4:f5:65:c1:0a:80:2d:fd:65:e4:7c:53:e9:14:
         67:3e:2f:64:9e:18:93:7e:2c:70:fb:7a:0d:db:45:9f:60:1e:
         a5:3c:98:04:b1:d8:91:23:ec:0f:f2:5b:6d:db:d7:78:3c:bd:
         23:25:f6:e8
-----BEGIN CERTIFICATE-----
MIIEoTCCA4mgAwIBAgIGCgsMDQ5OMA0GCSqGSIb3DQEBCwUAMIGGMRcwFQYDVQQD
FA5CQU5HQUxPUkVDQV9DQTELMAkGA1UEBhMCSU4xDzANBgNVBAoTBkNJVFJJWDEM
MAoGA1UECxMDQU5HMQswCQYDVQQIEwJLQTEyMDAGCSqGSIb3DQEJARYjQkFOR0FM
T1JFQ0FfQ0FAQkFOR0FMT1JFQ0FfbWFpbC5jb20wHhcNMTcwODIzMDkwNjU1WhcN
MjcwODIxMDkwNjU1WjBmMQswCQYDVQQIEwJLQTELMAkGA1UEBhMCSU4xFjAUBgNV
BAMUDWJscl8yNF9jbGllbnQxITAfBgkqhkiG9w0BCQEWEmJscl8yNEB0ZXN0X2Nh
LmNvbTEPMA0GA1UEChMGQ0lUUklYMIIBIjANBgkqhkiG9w0BAQEFAAOCAQ8AMIIB
CgKCAQEAwfTyFYT2niHbvqtZbkXYHF0CzRyvO8VCh6vIUxn9yDD03sMz1oRIWQyC
lK8HMnbFbB0lOjY5PGagTumv07RiMTsxsT+G8rUtTIjDgurHeUQC/C6fONT+KLt7
rPQaw05ehMduD8IA7nFR2x/iSqxW6ZVok6ijT+WEdNMETZWPEOY1QZCsHnai96DN
mNkz8kyOQG5KmLxB8bO5HEATReDS4TAtneAMrewFXNiBwhrqWLod0DirS1bh+Olv
Z0LcSXu3bgkHiG6TESZ/x/uEDNu+ABLjY4crvQTGNMxJCpRy2deCGOEh08uc53Zk
yFT3HfabAnnLGUC+q8wBotGP8cjO2QIDAQABo4IBMjCCAS4wEQYJYIZIAYb4QgEB
BAQDAgeAMB0GA1UdDgQWBBTQThoVSTTeEjlgf7CWz8g7mY5oLTCBuwYDVR0jBIGz
MIGwgBQ71tFTGIcFIrvuww/1zg9ropOnuKGBjKSBiTCBhjEXMBUGA1UEAxQOQkFO
R0FMT1JFQ0FfQ0ExCzAJBgNVBAYTAklOMQ8wDQYDVQQKEwZDSVRSSVgxDDAKBgNV
BAsTA0FORzELMAkGA1UECBMCS0ExMjAwBgkqhkiG9w0BCQEWI0JBTkdBTE9SRUNB
X0NBQEJBTkdBTE9SRUNBX21haWwuY29tggkAoay02kZTWEAwPAYIKwYBBQUHAQEE
MDAuMCwGCCsGAQUFBzABhiBodHRwOi8vMTcyLjE2LjIwLjEvcmVzcG9uZGVycGF0
aDANBgkqhkiG9w0BAQsFAAOCAQEAminDEWTuagafIFNzNAuV7NPSBB5HrvWJWLQo
JrxY4CNTercG7lIvW3+Lo2mbtOS2VK3PbsDWiBlJIFu3FrWHhVpQ2rfX0n3VhuwK
GiHZpkZlhojcbLXRvEo8avXiQ5GB3q0aI5uMaC/AavD3ce49DDnQ90SYDULOLEnA
hwMoBang5rwqnxywh4lhChPOJpwvNkcu2OcV5ZdNzOD0Jkd7l9h0EM7HZeVI4sj+
3eNKrdJBtWXP+tpfM2yZr0JFW6d2p2hj+XVbSkXCZfT1ZcEKgC39ZeR8U+kUZz4v
ZJ4Yk34scPt6DdtFn2AepTyYBLHYkSPsD/JbbdvXeDy9IyX26A==
-----END CERTIFICATE-----
