Certificate:
    Data:
        Version: 3 (0x2)
        Serial Number: 11042563100221 (0xa0b0c0d0e3d)
    Signature Algorithm: sha256WithRSAEncryption
        Issuer: CN=BANGALORECA_CA, C=IN, O=CITRIX, OU=ANG, ST=KA/emailAddress=BANGALORECA_CA@BANGALORECA_mail.com
        Validity
            Not Before: Aug 23 09:06:43 2017 GMT
            Not After : Aug 21 09:06:43 2027 GMT
        Subject: ST=KA, C=IN, CN=blr_7_client/emailAddress=blr_7@test_ca.com, O=CITRIX
        Subject Public Key Info:
            Public Key Algorithm: rsaEncryption
                Public-Key: (2048 bit)
                Modulus:
                    00:b9:66:12:54:62:ed:39:25:5f:a0:e4:13:44:dc:
                    af:9c:6e:de:f2:91:63:d5:bc:e8:f8:1f:5d:ba:b0:
                    81:a8:7c:81:6c:54:14:d9:87:d0:d6:ea:ef:48:fd:
                    96:5e:66:15:76:b9:a5:43:3d:51:80:cb:d3:c9:12:
                    d6:cd:cb:61:e3:3b:c9:38:bf:ae:70:ba:1e:43:0e:
                    22:82:ae:e1:ab:8f:e3:18:39:c8:75:81:ad:53:78:
                    46:f8:93:f6:0c:08:98:9c:e6:10:92:ee:ff:23:8c:
                    e6:66:b2:78:36:56:e2:f0:63:b4:b5:96:68:84:60:
                    11:1d:96:7c:01:28:7d:d9:30:9b:6d:61:f5:f5:00:
                    ea:66:f5:e5:a2:9b:eb:2e:d5:2f:3c:f0:24:47:72:
                    9e:de:5b:8b:f8:30:df:94:8d:c1:87:67:16:46:fd:
                    c1:15:28:e9:6c:d8:df:20:0d:4b:d2:2b:84:d5:f2:
                    2d:52:a4:6e:13:3c:b8:c7:29:1e:7a:ee:50:76:81:
                    e7:f9:a4:8e:d8:65:74:90:82:d0:31:1b:fe:08:fa:
                    b1:af:65:d9:c8:07:9e:64:b8:01:5c:8f:b2:da:eb:
                    c1:ba:45:38:61:84:fe:ec:b5:2c:60:e6:d9:03:03:
                    af:b7:7d:c2:07:33:40:dd:9a:e4:93:f7:65:f8:c0:
                    03:0d
                Exponent: 65537 (0x10001)
        X509v3 extensions:
            Netscape Cert Type: 
                SSL Client
            X509v3 Subject Key Identifier: 
                54:38:CF:FE:D5:AE:F2:83:AF:FC:FA:4F:03:27:6F:87:81:B0:FA:76
            X509v3 Authority Key Identifier: 
                keyid:3B:D6:D1:53:18:87:05:22:BB:EE:C3:0F:F5:CE:0F:6B:A2:93:A7:B8
                DirName:/CN=BANGALORECA_CA/C=IN/O=CITRIX/OU=ANG/ST=KA/emailAddress=BANGALORECA_CA@BANGALORECA_mail.com
                serial:A1:AC:B4:DA:46:53:58:40

            Authority Information Access: 
                OCSP - URI:http://172.16.20.1/responderpath

    Signature Algorithm: sha256WithRSAEncryption
         27:99:2d:19:48:fa:c7:30:a2:18:85:92:20:23:9c:fd:89:8b:
         75:5b:80:84:47:dc:86:e2:a6:21:6d:5d:30:cb:60:c8:9e:c1:
         91:21:aa:18:a9:77:c9:6f:b3:6a:ed:34:33:95:5b:8b:71:62:
         9f:d1:08:1f:bc:22:d8:13:8d:76:64:48:d1:e4:ee:83:36:a8:
         44:d6:e8:05:91:4d:6e:d4:ac:e1:a9:74:be:1a:a2:ea:a5:68:
         79:32:bd:87:9d:c7:54:77:6b:6f:a5:2d:5f:f8:e1:31:8f:6d:
         66:ad:9a:7a:96:b8:80:f8:bf:f0:e8:33:22:6c:d1:d7:bc:db:
         e1:40:e7:6f:53:48:6c:98:99:fa:de:36:76:b9:7b:c3:62:07:
         ad:26:99:e3:94:66:d5:01:da:ac:51:2c:95:6b:09:65:2d:c6:
         9c:88:07:7c:6c:4b:04:c4:96:c0:2a:04:fe:58:4f:63:ab:2d:
         0d:86:2a:ee:23:46:97:32:86:03:89:ad:a3:d3:c0:56:36:c5:
         66:6b:8a:e3:18:b1:9b:40:0d:20:cb:6e:e2:62:23:3b:8e:a1:
         45:4d:52:5a:d5:19:e1:61:a8:14:b3:15:18:fe:e5:f5:e9:d9:
         4f:16:4c:1e:83:89:1d:8f:52:8f:9f:4b:fc:15:7a:71:8f:58:
         d8:5d:22:c9
-----BEGIN CERTIFICATE-----
MIIEnzCCA4egAwIBAgIGCgsMDQ49MA0GCSqGSIb3DQEBCwUAMIGGMRcwFQYDVQQD
FA5CQU5HQUxPUkVDQV9DQTELMAkGA1UEBhMCSU4xDzANBgNVBAoTBkNJVFJJWDEM
MAoGA1UECxMDQU5HMQswCQYDVQQIEwJLQTEyMDAGCSqGSIb3DQEJARYjQkFOR0FM
T1JFQ0FfQ0FAQkFOR0FMT1JFQ0FfbWFpbC5jb20wHhcNMTcwODIzMDkwNjQzWhcN
MjcwODIxMDkwNjQzWjBkMQswCQYDVQQIEwJLQTELMAkGA1UEBhMCSU4xFTATBgNV
BAMUDGJscl83X2NsaWVudDEgMB4GCSqGSIb3DQEJARYRYmxyXzdAdGVzdF9jYS5j
b20xDzANBgNVBAoTBkNJVFJJWDCCASIwDQYJKoZIhvcNAQEBBQADggEPADCCAQoC
ggEBALlmElRi7TklX6DkE0Tcr5xu3vKRY9W86PgfXbqwgah8gWxUFNmH0Nbq70j9
ll5mFXa5pUM9UYDL08kS1s3LYeM7yTi/rnC6HkMOIoKu4auP4xg5yHWBrVN4RviT
9gwImJzmEJLu/yOM5mayeDZW4vBjtLWWaIRgER2WfAEofdkwm21h9fUA6mb15aKb
6y7VLzzwJEdynt5bi/gw35SNwYdnFkb9wRUo6WzY3yANS9IrhNXyLVKkbhM8uMcp
HnruUHaB5/mkjthldJCC0DEb/gj6sa9l2cgHnmS4AVyPstrrwbpFOGGE/uy1LGDm
2QMDr7d9wgczQN2a5JP3ZfjAAw0CAwEAAaOCATIwggEuMBEGCWCGSAGG+EIBAQQE
AwIHgDAdBgNVHQ4EFgQUVDjP/tWu8oOv/PpPAydvh4Gw+nYwgbsGA1UdIwSBszCB
sIAUO9bRUxiHBSK77sMP9c4Pa6KTp7ihgYykgYkwgYYxFzAVBgNVBAMUDkJBTkdB
TE9SRUNBX0NBMQswCQYDVQQGEwJJTjEPMA0GA1UEChMGQ0lUUklYMQwwCgYDVQQL
EwNBTkcxCzAJBgNVBAgTAktBMTIwMAYJKoZIhvcNAQkBFiNCQU5HQUxPUkVDQV9D
QUBCQU5HQUxPUkVDQV9tYWlsLmNvbYIJAKGstNpGU1hAMDwGCCsGAQUFBwEBBDAw
LjAsBggrBgEFBQcwAYYgaHR0cDovLzE3Mi4xNi4yMC4xL3Jlc3BvbmRlcnBhdGgw
DQYJKoZIhvcNAQELBQADggEBACeZLRlI+scwohiFkiAjnP2Ji3VbgIRH3IbipiFt
XTDLYMiewZEhqhipd8lvs2rtNDOVW4txYp/RCB+8ItgTjXZkSNHk7oM2qETW6AWR
TW7UrOGpdL4aouqlaHkyvYedx1R3a2+lLV/44TGPbWatmnqWuID4v/DoMyJs0de8
2+FA529TSGyYmfreNna5e8NiB60mmeOUZtUB2qxRLJVrCWUtxpyIB3xsSwTElsAq
BP5YT2OrLQ2GKu4jRpcyhgOJraPTwFY2xWZriuMYsZtADSDLbuJiIzuOoUVNUlrV
GeFhqBSzFRj+5fXp2U8WTB6DiR2PUo+fS/wVenGPWNhdIsk=
-----END CERTIFICATE-----
