Certificate:
    Data:
        Version: 3 (0x2)
        Serial Number: 11042563100260 (0xa0b0c0d0e64)
    Signature Algorithm: sha256WithRSAEncryption
        Issuer: CN=BANGALORECA_CA, C=IN, O=CITRIX, OU=ANG, ST=KA/emailAddress=BANGALORECA_CA@BANGALORECA_mail.com
        Validity
            Not Before: Aug 23 09:07:08 2017 GMT
            Not After : Aug 21 09:07:08 2027 GMT
        Subject: ST=KA, C=IN, CN=blr_46_client/emailAddress=blr_46@test_ca.com, O=CITRIX
        Subject Public Key Info:
            Public Key Algorithm: rsaEncryption
                Public-Key: (2048 bit)
                Modulus:
                    00:c1:a6:a1:76:ed:c9:9a:54:5a:23:de:36:f1:f4:
                    99:66:a9:67:db:b3:32:90:24:15:e6:c3:f0:0e:00:
                    45:0d:5c:6b:3c:25:16:91:21:e5:96:00:76:50:5c:
                    c0:98:ca:4e:e0:23:6c:52:a9:9b:f5:d5:40:d2:c6:
                    e0:d5:68:6c:f4:17:3a:5d:6a:59:86:47:d6:8a:9a:
                    f4:c0:ab:1d:a4:79:62:c7:31:d4:7c:32:0b:db:2e:
                    00:cf:5d:c9:db:11:dd:e0:ea:8f:45:a2:de:aa:6a:
                    06:e5:02:2a:7c:bb:a1:ed:5b:93:fe:7a:32:4d:d3:
                    a7:16:13:50:2e:58:4b:f2:8b:3b:25:26:64:bf:21:
                    71:a7:6e:d1:2b:72:41:a9:40:d5:69:38:91:da:fd:
                    a3:1f:7b:65:61:44:79:10:a7:c1:82:ca:b1:b6:81:
                    07:01:a8:a4:d7:fe:17:78:85:9b:64:93:a5:bb:e5:
                    d4:22:0d:f5:7e:b8:08:22:a7:cf:7b:3d:d6:1c:60:
                    ce:1f:bc:81:92:de:2c:85:58:57:ff:c7:35:1c:3f:
                    ef:99:63:e3:12:9a:2a:32:ed:a6:61:20:89:6f:e2:
                    49:8f:3b:16:b1:6d:2f:1d:cc:db:06:d4:15:43:65:
                    e4:21:e2:70:19:d2:58:41:f2:4d:58:c3:77:e4:79:
                    93:b5
                Exponent: 65537 (0x10001)
        X509v3 extensions:
            Netscape Cert Type: 
                SSL Client
            X509v3 Subject Key Identifier: 
                A8:76:60:B5:36:A7:92:EB:5C:BD:D7:D0:36:9C:F2:A6:55:8E:3C:1B
            X509v3 Authority Key Identifier: 
                keyid:3B:D6:D1:53:18:87:05:22:BB:EE:C3:0F:F5:CE:0F:6B:A2:93:A7:B8
                DirName:/CN=BANGALORECA_CA/C=IN/O=CITRIX/OU=ANG/ST=KA/emailAddress=BANGALORECA_CA@BANGALORECA_mail.com
                serial:A1:AC:B4:DA:46:53:58:40

            Authority Information Access: 
                OCSP - URI:http://172.16.20.1/responderpath

    Signature Algorithm: sha256WithRSAEncryption
         12:09:b5:17:06:b9:86:8d:b4:05:8d:49:1a:dd:53:46:e0:87:
         1d:79:bc:13:5d:38:1e:1f:f7:fa:7c:4d:ec:c3:fd:c9:07:65:
         2a:68:c6:cf:20:70:fa:50:cd:18:18:63:c6:ef:ee:56:ca:2c:
         87:6e:04:81:76:04:d7:e2:9b:48:37:3c:12:37:04:31:85:83:
         b6:59:80:bd:f7:0b:b5:11:23:b9:db:f8:eb:b8:fd:80:4b:03:
         95:c1:65:85:07:1f:17:95:6e:06:45:9d:e9:f2:03:7e:69:be:
         95:ba:36:79:93:85:0a:8f:e5:93:dc:1a:2b:b7:e6:5f:b8:b6:
         85:2c:fd:19:01:9b:d6:fd:8a:e2:7a:c5:b6:6f:58:31:46:40:
         a2:3e:d0:a2:a5:59:c8:16:e7:2f:01:1b:86:1c:b1:62:d3:ab:
         3d:17:8b:47:25:e8:93:38:71:b0:f3:2a:bf:35:78:8e:0f:f9:
         95:f6:ba:ff:ac:dc:7b:14:70:bc:59:e0:90:b3:4e:78:e5:01:
         50:58:34:29:82:26:fb:6b:6e:21:d5:76:e5:28:dc:39:74:74:
         a2:a4:d0:e4:67:55:b3:96:3f:1c:dc:50:10:f3:b8:cc:9f:a3:
         27:0a:14:02:f2:39:4e:92:86:f4:01:c8:32:10:3b:38:8f:4a:
         7a:69:ee:61
-----BEGIN CERTIFICATE-----
MIIEoTCCA4mgAwIBAgIGCgsMDQ5kMA0GCSqGSIb3DQEBCwUAMIGGMRcwFQYDVQQD
FA5CQU5HQUxPUkVDQV9DQTELMAkGA1UEBhMCSU4xDzANBgNVBAoTBkNJVFJJWDEM
MAoGA1UECxMDQU5HMQswCQYDVQQIEwJLQTEyMDAGCSqGSIb3DQEJARYjQkFOR0FM
T1JFQ0FfQ0FAQkFOR0FMT1JFQ0FfbWFpbC5jb20wHhcNMTcwODIzMDkwNzA4WhcN
MjcwODIxMDkwNzA4WjBmMQswCQYDVQQIEwJLQTELMAkGA1UEBhMCSU4xFjAUBgNV
BAMUDWJscl80Nl9jbGllbnQxITAfBgkqhkiG9w0BCQEWEmJscl80NkB0ZXN0X2Nh
LmNvbTEPMA0GA1UEChMGQ0lUUklYMIIBIjANBgkqhkiG9w0BAQEFAAOCAQ8AMIIB
CgKCAQEAwaahdu3JmlRaI9428fSZZqln27MykCQV5sPwDgBFDVxrPCUWkSHllgB2
UFzAmMpO4CNsUqmb9dVA0sbg1Whs9Bc6XWpZhkfWipr0wKsdpHlixzHUfDIL2y4A
z13J2xHd4OqPRaLeqmoG5QIqfLuh7VuT/noyTdOnFhNQLlhL8os7JSZkvyFxp27R
K3JBqUDVaTiR2v2jH3tlYUR5EKfBgsqxtoEHAaik1/4XeIWbZJOlu+XUIg31frgI
IqfPez3WHGDOH7yBkt4shVhX/8c1HD/vmWPjEpoqMu2mYSCJb+JJjzsWsW0vHczb
BtQVQ2XkIeJwGdJYQfJNWMN35HmTtQIDAQABo4IBMjCCAS4wEQYJYIZIAYb4QgEB
BAQDAgeAMB0GA1UdDgQWBBSodmC1NqeS61y919A2nPKmVY48GzCBuwYDVR0jBIGz
MIGwgBQ71tFTGIcFIrvuww/1zg9ropOnuKGBjKSBiTCBhjEXMBUGA1UEAxQOQkFO
R0FMT1JFQ0FfQ0ExCzAJBgNVBAYTAklOMQ8wDQYDVQQKEwZDSVRSSVgxDDAKBgNV
BAsTA0FORzELMAkGA1UECBMCS0ExMjAwBgkqhkiG9w0BCQEWI0JBTkdBTE9SRUNB
X0NBQEJBTkdBTE9SRUNBX21haWwuY29tggkAoay02kZTWEAwPAYIKwYBBQUHAQEE
MDAuMCwGCCsGAQUFBzABhiBodHRwOi8vMTcyLjE2LjIwLjEvcmVzcG9uZGVycGF0
aDANBgkqhkiG9w0BAQsFAAOCAQEAEgm1Fwa5ho20BY1JGt1TRuCHHXm8E104Hh/3
+nxN7MP9yQdlKmjGzyBw+lDNGBhjxu/uVsosh24EgXYE1+KbSDc8EjcEMYWDtlmA
vfcLtREjudv467j9gEsDlcFlhQcfF5VuBkWd6fIDfmm+lbo2eZOFCo/lk9waK7fm
X7i2hSz9GQGb1v2K4nrFtm9YMUZAoj7QoqVZyBbnLwEbhhyxYtOrPReLRyXokzhx
sPMqvzV4jg/5lfa6/6zcexRwvFngkLNOeOUBUFg0KYIm+2tuIdV25SjcOXR0oqTQ
5GdVs5Y/HNxQEPO4zJ+jJwoUAvI5TpKG9AHIMhA7OI9KemnuYQ==
-----END CERTIFICATE-----
