Certificate:
    Data:
        Version: 3 (0x2)
        Serial Number: 11042563100245 (0xa0b0c0d0e55)
    Signature Algorithm: sha256WithRSAEncryption
        Issuer: CN=BANGALORECA_CA, C=IN, O=CITRIX, OU=ANG, ST=KA/emailAddress=BANGALORECA_CA@BANGALORECA_mail.com
        Validity
            Not Before: Aug 23 09:06:58 2017 GMT
            Not After : Aug 21 09:06:58 2027 GMT
        Subject: ST=KA, C=IN, CN=blr_31_client/emailAddress=blr_31@test_ca.com, O=CITRIX
        Subject Public Key Info:
            Public Key Algorithm: rsaEncryption
                Public-Key: (2048 bit)
                Modulus:
                    00:a7:cd:d6:ed:42:75:3c:bc:e3:5f:65:fd:d1:7e:
                    d6:4e:f4:37:f7:1a:ce:34:04:68:8c:38:90:93:61:
                    24:c9:64:57:2e:df:9a:20:e6:06:65:b4:16:fa:08:
                    c9:12:5a:cb:36:40:08:10:a1:26:52:14:e6:91:39:
                    d4:83:e6:63:91:7b:1d:50:40:fb:b4:e9:6f:3a:76:
                    0d:62:90:8c:c1:16:65:26:cd:af:f7:70:b8:bc:44:
                    77:c6:16:ce:de:d1:18:88:8b:5c:38:21:18:df:50:
                    b0:26:fe:60:39:ed:4e:f8:b3:bc:76:58:b9:35:f7:
                    5e:85:8e:fc:f7:fb:41:4c:e8:d2:e5:fd:40:b7:e9:
                    0c:88:21:bb:11:73:1d:29:54:7d:8e:81:79:8a:52:
                    3a:8d:6d:68:19:ff:34:85:83:62:ed:bd:98:54:ec:
                    ae:04:b0:42:1f:18:87:bf:2d:16:fc:8d:35:d6:0b:
                    e2:b3:ea:b2:8c:dc:d6:1e:0c:b7:d0:d8:a6:e7:0c:
                    a4:f8:65:18:73:d7:4e:48:d9:e6:c2:bf:37:81:85:
                    62:77:d7:b2:2d:2b:54:65:cb:b1:75:8d:76:f2:cf:
                    41:47:c4:43:e7:05:68:ec:0d:c5:f8:9b:7a:15:20:
                    e7:54:32:e5:6f:55:35:07:dc:43:1a:3b:3a:c4:7f:
                    4f:45
                Exponent: 65537 (0x10001)
        X509v3 extensions:
            Netscape Cert Type: 
                SSL Client
            X509v3 Subject Key Identifier: 
                AA:B5:2D:63:3A:4E:11:29:06:A9:15:E1:64:89:D7:79:05:FE:44:74
            X509v3 Authority Key Identifier: 
                keyid:3B:D6:D1:53:18:87:05:22:BB:EE:C3:0F:F5:CE:0F:6B:A2:93:A7:B8
                DirName:/CN=BANGALORECA_CA/C=IN/O=CITRIX/OU=ANG/ST=KA/emailAddress=BANGALORECA_CA@BANGALORECA_mail.com
                serial:A1:AC:B4:DA:46:53:58:40

            Authority Information Access: 
                OCSP - URI:http://172.16.20.1/responderpath

    Signature Algorithm: sha256WithRSAEncryption
         6c:94:1e:26:52:c8:46:cc:b8:b4:c6:1d:35:18:f9:cf:d6:b2:
         66:29:ac:55:17:12:96:68:04:3e:ad:43:97:f5:5e:2b:57:83:
         54:7c:36:53:d7:e5:47:d6:f6:2f:c8:7e:4b:c8:d8:48:7b:c7:
         c9:e0:f8:1c:02:4b:b7:11:2f:03:fb:53:41:c8:7d:fe:b1:76:
         9f:65:d3:d9:80:c9:e1:eb:5d:1e:6c:19:7c:e6:8d:5c:70:7f:
         7d:b1:46:0e:fa:5b:87:88:9e:bf:6a:f3:78:cd:b6:1f:c8:b4:
         3c:67:a2:ac:fa:19:c4:ea:cc:03:26:70:70:31:cf:f0:9e:00:
         3d:84:e1:4f:b7:fe:d6:2f:fa:02:51:c7:45:75:69:61:c6:61:
         f8:b4:56:13:60:0c:cd:1b:fa:50:6c:77:f6:e1:65:6a:3e:9b:
         b2:45:5f:77:29:3e:bf:52:d7:14:a9:e4:b6:4d:1c:90:53:c8:
         45:e6:37:09:a6:56:f0:4a:29:88:3f:50:6b:0f:18:1e:47:b0:
         73:fc:d9:a4:86:95:2a:83:f5:c0:ac:55:1b:81:8c:99:b6:8f:
         c2:c7:5f:f8:fd:7a:65:1c:75:71:51:eb:4d:cc:de:fa:60:98:
         e0:ac:9d:df:6e:e5:6b:92:4c:fa:6b:6e:a6:74:42:63:96:7e:
         ca:62:86:5b
-----BEGIN CERTIFICATE-----
MIIEoTCCA4mgAwIBAgIGCgsMDQ5VMA0GCSqGSIb3DQEBCwUAMIGGMRcwFQYDVQQD
FA5CQU5HQUxPUkVDQV9DQTELMAkGA1UEBhMCSU4xDzANBgNVBAoTBkNJVFJJWDEM
MAoGA1UECxMDQU5HMQswCQYDVQQIEwJLQTEyMDAGCSqGSIb3DQEJARYjQkFOR0FM
T1JFQ0FfQ0FAQkFOR0FMT1JFQ0FfbWFpbC5jb20wHhcNMTcwODIzMDkwNjU4WhcN
MjcwODIxMDkwNjU4WjBmMQswCQYDVQQIEwJLQTELMAkGA1UEBhMCSU4xFjAUBgNV
BAMUDWJscl8zMV9jbGllbnQxITAfBgkqhkiG9w0BCQEWEmJscl8zMUB0ZXN0X2Nh
LmNvbTEPMA0GA1UEChMGQ0lUUklYMIIBIjANBgkqhkiG9w0BAQEFAAOCAQ8AMIIB
CgKCAQEAp83W7UJ1PLzjX2X90X7WTvQ39xrONARojDiQk2EkyWRXLt+aIOYGZbQW
+gjJElrLNkAIEKEmUhTmkTnUg+ZjkXsdUED7tOlvOnYNYpCMwRZlJs2v93C4vER3
xhbO3tEYiItcOCEY31CwJv5gOe1O+LO8dli5NfdehY789/tBTOjS5f1At+kMiCG7
EXMdKVR9joF5ilI6jW1oGf80hYNi7b2YVOyuBLBCHxiHvy0W/I011gvis+qyjNzW
Hgy30Nim5wyk+GUYc9dOSNnmwr83gYVid9eyLStUZcuxdY128s9BR8RD5wVo7A3F
+Jt6FSDnVDLlb1U1B9xDGjs6xH9PRQIDAQABo4IBMjCCAS4wEQYJYIZIAYb4QgEB
BAQDAgeAMB0GA1UdDgQWBBSqtS1jOk4RKQapFeFkidd5Bf5EdDCBuwYDVR0jBIGz
MIGwgBQ71tFTGIcFIrvuww/1zg9ropOnuKGBjKSBiTCBhjEXMBUGA1UEAxQOQkFO
R0FMT1JFQ0FfQ0ExCzAJBgNVBAYTAklOMQ8wDQYDVQQKEwZDSVRSSVgxDDAKBgNV
BAsTA0FORzELMAkGA1UECBMCS0ExMjAwBgkqhkiG9w0BCQEWI0JBTkdBTE9SRUNB
X0NBQEJBTkdBTE9SRUNBX21haWwuY29tggkAoay02kZTWEAwPAYIKwYBBQUHAQEE
MDAuMCwGCCsGAQUFBzABhiBodHRwOi8vMTcyLjE2LjIwLjEvcmVzcG9uZGVycGF0
aDANBgkqhkiG9w0BAQsFAAOCAQEAbJQeJlLIRsy4tMYdNRj5z9ayZimsVRcSlmgE
Pq1Dl/VeK1eDVHw2U9flR9b2L8h+S8jYSHvHyeD4HAJLtxEvA/tTQch9/rF2n2XT
2YDJ4etdHmwZfOaNXHB/fbFGDvpbh4iev2rzeM22H8i0PGeirPoZxOrMAyZwcDHP
8J4APYThT7f+1i/6AlHHRXVpYcZh+LRWE2AMzRv6UGx39uFlaj6bskVfdyk+v1LX
FKnktk0ckFPIReY3CaZW8EopiD9Qaw8YHkewc/zZpIaVKoP1wKxVG4GMmbaPwsdf
+P16ZRx1cVHrTcze+mCY4Kyd327la5JM+mtupnRCY5Z+ymKGWw==
-----END CERTIFICATE-----
