Certificate:
    Data:
        Version: 3 (0x2)
        Serial Number: 11042563100263 (0xa0b0c0d0e67)
    Signature Algorithm: sha256WithRSAEncryption
        Issuer: CN=BANGALORECA_CA, C=IN, O=CITRIX, OU=ANG, ST=KA/emailAddress=BANGALORECA_CA@BANGALORECA_mail.com
        Validity
            Not Before: Aug 23 09:07:10 2017 GMT
            Not After : Aug 21 09:07:10 2027 GMT
        Subject: ST=KA, C=IN, CN=blr_49_client/emailAddress=blr_49@test_ca.com, O=CITRIX
        Subject Public Key Info:
            Public Key Algorithm: rsaEncryption
                Public-Key: (2048 bit)
                Modulus:
                    00:c5:ff:d3:46:d2:06:fb:45:72:92:73:a4:57:7a:
                    c3:53:dc:1c:93:9f:94:08:e0:1c:42:7e:0c:7c:83:
                    75:3b:4e:e0:b1:39:4d:b5:7c:92:03:a4:ad:80:99:
                    d4:5e:6e:b4:6e:4e:9c:d4:aa:32:9e:26:79:aa:6f:
                    bd:56:9d:40:79:80:13:8f:99:b9:a4:15:8d:dd:46:
                    20:89:1e:68:dc:76:8c:4e:35:04:2b:7d:05:29:f1:
                    72:53:16:7a:9f:76:db:4f:61:01:e1:fd:36:34:c7:
                    19:ee:ff:c7:ac:5c:b8:1c:e8:07:4c:af:e9:1a:8d:
                    26:86:d4:11:65:25:47:8c:17:f8:31:bc:08:af:53:
                    76:80:32:01:b1:fc:ca:c0:27:a5:fb:ab:ae:81:33:
                    ad:32:ba:f9:87:52:a7:06:21:64:5c:30:b5:2c:c5:
                    67:03:22:1a:a8:22:8d:ea:44:8a:d6:18:34:a1:fe:
                    59:53:1d:0c:9f:48:33:7d:aa:b5:aa:64:1f:e5:e7:
                    24:c1:d2:f6:42:4a:d4:f5:4f:07:1e:2a:f1:b9:13:
                    f5:4a:1f:1d:0a:27:f1:dc:a4:1c:f7:82:10:cb:7e:
                    0b:fd:77:03:3d:ef:c0:cd:9a:90:fe:68:dd:76:b9:
                    86:9a:0e:0a:d7:32:a1:16:c6:1b:47:36:de:f3:42:
                    da:83
                Exponent: 65537 (0x10001)
        X509v3 extensions:
            Netscape Cert Type: 
                SSL Client
            X509v3 Subject Key Identifier: 
                FF:40:42:7E:C0:60:EB:FC:24:90:48:63:93:B8:7B:7D:93:32:54:12
            X509v3 Authority Key Identifier: 
                keyid:3B:D6:D1:53:18:87:05:22:BB:EE:C3:0F:F5:CE:0F:6B:A2:93:A7:B8
                DirName:/CN=BANGALORECA_CA/C=IN/O=CITRIX/OU=ANG/ST=KA/emailAddress=BANGALORECA_CA@BANGALORECA_mail.com
                serial:A1:AC:B4:DA:46:53:58:40

            Authority Information Access: 
                OCSP - URI:http://172.16.20.1/responderpath

    Signature Algorithm: sha256WithRSAEncryption
         24:df:b0:b7:5b:74:0f:ab:73:e5:c8:ab:82:73:16:61:13:a0:
         b2:a7:70:87:0d:87:7c:52:22:5e:80:8b:e8:36:13:f7:8a:fe:
         32:7b:dd:0c:86:94:fc:07:ce:99:91:5f:cb:14:ce:8b:70:71:
         6c:62:8d:7f:5a:0b:1c:8c:e6:de:80:4a:39:f8:10:03:a1:97:
         12:21:f5:97:2b:85:f5:cb:66:f0:bf:63:a0:59:dd:f7:c4:ef:
         7b:60:b3:91:6d:7f:62:d8:f9:35:37:56:d8:4c:15:5f:9c:f5:
         0a:f4:3e:30:8e:5b:9e:55:16:9b:a0:07:79:23:d9:d9:d0:42:
         6d:3f:ff:f7:99:5c:dd:69:2e:bc:5e:75:c4:3c:2f:24:f0:83:
         82:74:8d:92:18:63:3e:78:3f:50:9f:e0:c3:b3:ea:2e:fd:06:
         36:f5:0b:6b:c9:c3:fa:2b:20:8c:b4:86:9d:c2:e6:dc:ca:9c:
         a3:a7:72:ce:22:f1:8c:48:bb:07:de:ed:4f:f6:07:cc:c6:79:
         3c:ec:3f:06:ff:48:90:78:7c:f5:2f:0b:b1:a2:99:0c:42:0c:
         0c:95:f5:c6:25:4f:8d:a5:a3:26:c5:44:35:f0:ca:7e:12:a1:
         e0:83:6f:00:d8:97:6b:e3:22:89:d6:17:13:71:6e:0d:6c:95:
         9f:86:22:2a
-----BEGIN CERTIFICATE-----
MIIEoTCCA4mgAwIBAgIGCgsMDQ5nMA0GCSqGSIb3DQEBCwUAMIGGMRcwFQYDVQQD
FA5CQU5HQUxPUkVDQV9DQTELMAkGA1UEBhMCSU4xDzANBgNVBAoTBkNJVFJJWDEM
MAoGA1UECxMDQU5HMQswCQYDVQQIEwJLQTEyMDAGCSqGSIb3DQEJARYjQkFOR0FM
T1JFQ0FfQ0FAQkFOR0FMT1JFQ0FfbWFpbC5jb20wHhcNMTcwODIzMDkwNzEwWhcN
MjcwODIxMDkwNzEwWjBmMQswCQYDVQQIEwJLQTELMAkGA1UEBhMCSU4xFjAUBgNV
BAMUDWJscl80OV9jbGllbnQxITAfBgkqhkiG9w0BCQEWEmJscl80OUB0ZXN0X2Nh
LmNvbTEPMA0GA1UEChMGQ0lUUklYMIIBIjANBgkqhkiG9w0BAQEFAAOCAQ8AMIIB
CgKCAQEAxf/TRtIG+0VyknOkV3rDU9wck5+UCOAcQn4MfIN1O07gsTlNtXySA6St
gJnUXm60bk6c1KoyniZ5qm+9Vp1AeYATj5m5pBWN3UYgiR5o3HaMTjUEK30FKfFy
UxZ6n3bbT2EB4f02NMcZ7v/HrFy4HOgHTK/pGo0mhtQRZSVHjBf4MbwIr1N2gDIB
sfzKwCel+6uugTOtMrr5h1KnBiFkXDC1LMVnAyIaqCKN6kSK1hg0of5ZUx0Mn0gz
faq1qmQf5eckwdL2QkrU9U8HHirxuRP1Sh8dCifx3KQc94IQy34L/XcDPe/AzZqQ
/mjddrmGmg4K1zKhFsYbRzbe80LagwIDAQABo4IBMjCCAS4wEQYJYIZIAYb4QgEB
BAQDAgeAMB0GA1UdDgQWBBT/QEJ+wGDr/CSQSGOTuHt9kzJUEjCBuwYDVR0jBIGz
MIGwgBQ71tFTGIcFIrvuww/1zg9ropOnuKGBjKSBiTCBhjEXMBUGA1UEAxQOQkFO
R0FMT1JFQ0FfQ0ExCzAJBgNVBAYTAklOMQ8wDQYDVQQKEwZDSVRSSVgxDDAKBgNV
BAsTA0FORzELMAkGA1UECBMCS0ExMjAwBgkqhkiG9w0BCQEWI0JBTkdBTE9SRUNB
X0NBQEJBTkdBTE9SRUNBX21haWwuY29tggkAoay02kZTWEAwPAYIKwYBBQUHAQEE
MDAuMCwGCCsGAQUFBzABhiBodHRwOi8vMTcyLjE2LjIwLjEvcmVzcG9uZGVycGF0
aDANBgkqhkiG9w0BAQsFAAOCAQEAJN+wt1t0D6tz5cirgnMWYROgsqdwhw2HfFIi
XoCL6DYT94r+MnvdDIaU/AfOmZFfyxTOi3BxbGKNf1oLHIzm3oBKOfgQA6GXEiH1
lyuF9ctm8L9joFnd98Tve2CzkW1/Ytj5NTdW2EwVX5z1CvQ+MI5bnlUWm6AHeSPZ
2dBCbT//95lc3WkuvF51xDwvJPCDgnSNkhhjPng/UJ/gw7PqLv0GNvULa8nD+isg
jLSGncLm3Mqco6dyziLxjEi7B97tT/YHzMZ5POw/Bv9IkHh89S8LsaKZDEIMDJX1
xiVPjaWjJsVENfDKfhKh4INvANiXa+MiidYXE3FuDWyVn4YiKg==
-----END CERTIFICATE-----
