Certificate:
    Data:
        Version: 3 (0x2)
        Serial Number: 11042563100230 (0xa0b0c0d0e46)
    Signature Algorithm: sha256WithRSAEncryption
        Issuer: CN=BANGALORECA_CA, C=IN, O=CITRIX, OU=ANG, ST=KA/emailAddress=BANGALORECA_CA@BANGALORECA_mail.com
        Validity
            Not Before: Aug 23 09:06:49 2017 GMT
            Not After : Aug 21 09:06:49 2027 GMT
        Subject: ST=KA, C=IN, CN=blr_16_client/emailAddress=blr_16@test_ca.com, O=CITRIX
        Subject Public Key Info:
            Public Key Algorithm: rsaEncryption
                Public-Key: (2048 bit)
                Modulus:
                    00:b5:f4:f9:1e:a5:52:68:41:62:94:70:27:23:97:
                    0f:19:7d:7f:d4:11:7d:bb:ed:c1:ca:c3:e5:14:91:
                    09:ca:79:ec:ff:69:69:e9:97:32:c6:81:ef:36:e5:
                    9c:ef:68:7e:d2:6b:9c:ea:76:3c:58:af:d3:90:fb:
                    15:eb:e6:0b:f7:57:83:3c:a2:2b:24:d5:ac:64:2f:
                    fb:de:c1:dc:47:ac:d0:eb:1e:f0:25:f4:69:4f:ea:
                    7e:4f:f5:a5:db:0b:c5:8b:ae:8d:39:ed:9e:04:c7:
                    75:af:38:ea:4f:08:9f:aa:e3:e9:0d:96:e3:ea:a4:
                    c1:b3:9b:de:37:33:57:44:4a:09:cf:a2:79:a6:3f:
                    c9:91:49:27:a9:09:6d:da:ec:a4:82:ef:dd:89:31:
                    51:52:5f:d5:1c:ae:12:5b:3a:ed:31:d7:ea:00:41:
                    7d:36:b1:a8:05:2c:de:25:ab:6e:4e:15:83:7a:49:
                    da:c9:a3:d8:f9:2a:ec:18:5c:1d:ae:90:20:74:5b:
                    79:d3:a2:e8:f8:9f:35:97:e1:58:38:12:ef:9d:f6:
                    f9:9b:23:2a:88:d5:88:51:9a:3c:af:6d:7b:c7:c1:
                    e6:78:42:c3:74:94:6f:7b:a7:68:4d:63:ac:ad:fb:
                    6d:88:4b:53:00:86:d2:29:03:0c:9c:ca:2b:9e:a3:
                    1d:e5
                Exponent: 65537 (0x10001)
        X509v3 extensions:
            Netscape Cert Type: 
                SSL Client
            X509v3 Subject Key Identifier: 
                DF:E8:F9:88:3B:4E:39:B9:0E:2C:C2:0F:DC:D2:54:E1:B6:6B:08:0A
            X509v3 Authority Key Identifier: 
                keyid:3B:D6:D1:53:18:87:05:22:BB:EE:C3:0F:F5:CE:0F:6B:A2:93:A7:B8
                DirName:/CN=BANGALORECA_CA/C=IN/O=CITRIX/OU=ANG/ST=KA/emailAddress=BANGALORECA_CA@BANGALORECA_mail.com
                serial:A1:AC:B4:DA:46:53:58:40

            Authority Information Access: 
                OCSP - URI:http://172.16.20.1/responderpath

    Signature Algorithm: sha256WithRSAEncryption
         7e:59:f4:fa:81:d0:1d:0d:f6:53:ec:02:60:1f:3a:07:63:9e:
         e7:4c:64:5a:d7:11:2b:72:3c:97:80:d7:d8:fa:d3:b1:de:6b:
         e2:94:92:fa:d4:fe:f0:7c:72:6c:5d:8a:12:a2:30:88:72:06:
         5c:9a:36:bc:10:49:0b:b6:25:85:a5:af:f0:12:ba:1b:ab:64:
         48:6a:39:92:16:a6:bd:e5:2b:22:9a:37:48:b5:b0:71:3e:b9:
         2a:bc:a1:36:ca:c4:ad:d1:3b:4a:d0:9a:36:8e:4b:6c:e9:94:
         18:be:a1:13:a2:f3:f5:42:a9:66:a2:03:82:d6:d5:03:02:d6:
         02:4d:c9:af:d9:1c:0b:4f:85:53:12:6e:e5:94:c2:8a:ef:39:
         a9:48:98:06:e3:ea:c2:01:f2:c2:2c:b4:68:21:e0:8a:47:a7:
         c5:16:63:f9:5c:12:86:c2:e4:cf:e6:1d:7c:b7:d8:96:e1:90:
         f5:77:b4:b5:ab:fc:ed:8e:cb:2f:38:55:e3:f2:79:b1:09:bd:
         c9:68:9f:29:8e:33:af:1b:20:0f:82:d2:f6:9d:fc:a3:0b:80:
         de:e4:63:a0:7d:01:4d:c0:7c:d3:d1:7a:97:72:ba:d7:cb:a0:
         ae:ab:29:f9:c6:b7:69:f2:24:27:34:85:d3:5f:ba:0c:d4:5b:
         df:f6:d2:1f
-----BEGIN CERTIFICATE-----
MIIEoTCCA4mgAwIBAgIGCgsMDQ5GMA0GCSqGSIb3DQEBCwUAMIGGMRcwFQYDVQQD
FA5CQU5HQUxPUkVDQV9DQTELMAkGA1UEBhMCSU4xDzANBgNVBAoTBkNJVFJJWDEM
MAoGA1UECxMDQU5HMQswCQYDVQQIEwJLQTEyMDAGCSqGSIb3DQEJARYjQkFOR0FM
T1JFQ0FfQ0FAQkFOR0FMT1JFQ0FfbWFpbC5jb20wHhcNMTcwODIzMDkwNjQ5WhcN
MjcwODIxMDkwNjQ5WjBmMQswCQYDVQQIEwJLQTELMAkGA1UEBhMCSU4xFjAUBgNV
BAMUDWJscl8xNl9jbGllbnQxITAfBgkqhkiG9w0BCQEWEmJscl8xNkB0ZXN0X2Nh
LmNvbTEPMA0GA1UEChMGQ0lUUklYMIIBIjANBgkqhkiG9w0BAQEFAAOCAQ8AMIIB
CgKCAQEAtfT5HqVSaEFilHAnI5cPGX1/1BF9u+3BysPlFJEJynns/2lp6ZcyxoHv
NuWc72h+0muc6nY8WK/TkPsV6+YL91eDPKIrJNWsZC/73sHcR6zQ6x7wJfRpT+p+
T/Wl2wvFi66NOe2eBMd1rzjqTwifquPpDZbj6qTBs5veNzNXREoJz6J5pj/JkUkn
qQlt2uykgu/diTFRUl/VHK4SWzrtMdfqAEF9NrGoBSzeJatuThWDeknayaPY+Srs
GFwdrpAgdFt506Lo+J81l+FYOBLvnfb5myMqiNWIUZo8r217x8HmeELDdJRve6do
TWOsrfttiEtTAIbSKQMMnMornqMd5QIDAQABo4IBMjCCAS4wEQYJYIZIAYb4QgEB
BAQDAgeAMB0GA1UdDgQWBBTf6PmIO045uQ4swg/c0lThtmsICjCBuwYDVR0jBIGz
MIGwgBQ71tFTGIcFIrvuww/1zg9ropOnuKGBjKSBiTCBhjEXMBUGA1UEAxQOQkFO
R0FMT1JFQ0FfQ0ExCzAJBgNVBAYTAklOMQ8wDQYDVQQKEwZDSVRSSVgxDDAKBgNV
BAsTA0FORzELMAkGA1UECBMCS0ExMjAwBgkqhkiG9w0BCQEWI0JBTkdBTE9SRUNB
X0NBQEJBTkdBTE9SRUNBX21haWwuY29tggkAoay02kZTWEAwPAYIKwYBBQUHAQEE
MDAuMCwGCCsGAQUFBzABhiBodHRwOi8vMTcyLjE2LjIwLjEvcmVzcG9uZGVycGF0
aDANBgkqhkiG9w0BAQsFAAOCAQEAfln0+oHQHQ32U+wCYB86B2Oe50xkWtcRK3I8
l4DX2PrTsd5r4pSS+tT+8HxybF2KEqIwiHIGXJo2vBBJC7YlhaWv8BK6G6tkSGo5
khamveUrIpo3SLWwcT65KryhNsrErdE7StCaNo5LbOmUGL6hE6Lz9UKpZqIDgtbV
AwLWAk3Jr9kcC0+FUxJu5ZTCiu85qUiYBuPqwgHywiy0aCHgikenxRZj+VwShsLk
z+YdfLfYluGQ9Xe0tav87Y7LLzhV4/J5sQm9yWifKY4zrxsgD4LS9p38owuA3uRj
oH0BTcB809F6l3K618ugrqsp+ca3afIkJzSF01+6DNRb3/bSHw==
-----END CERTIFICATE-----
