Certificate:
    Data:
        Version: 3 (0x2)
        Serial Number: 11042563100247 (0xa0b0c0d0e57)
    Signature Algorithm: sha256WithRSAEncryption
        Issuer: CN=BANGALORECA_CA, C=IN, O=CITRIX, OU=ANG, ST=KA/emailAddress=BANGALORECA_CA@BANGALORECA_mail.com
        Validity
            Not Before: Aug 23 09:06:59 2017 GMT
            Not After : Aug 21 09:06:59 2027 GMT
        Subject: ST=KA, C=IN, CN=blr_33_client/emailAddress=blr_33@test_ca.com, O=CITRIX
        Subject Public Key Info:
            Public Key Algorithm: rsaEncryption
                Public-Key: (2048 bit)
                Modulus:
                    00:9f:2c:90:70:54:f6:ad:36:41:c1:f2:4a:b5:7f:
                    c1:bd:4d:1d:9b:6f:7d:14:86:51:30:0e:bf:96:1f:
                    df:eb:f2:cf:ad:b3:0f:01:70:85:28:4e:af:2b:00:
                    97:77:6e:9d:ca:39:05:7d:42:8e:77:98:bd:5e:67:
                    83:aa:f7:68:44:a0:66:e9:88:fd:63:0d:f8:7e:29:
                    ef:73:f9:77:0a:a3:11:5e:9e:6e:16:23:55:2c:ec:
                    7b:63:e3:52:65:d5:9c:8c:24:cf:49:01:c5:d7:c6:
                    59:4e:8b:be:55:47:ba:fd:83:4f:f2:8b:10:11:27:
                    9a:77:41:38:36:ec:12:a7:42:4e:ef:92:9a:b4:04:
                    af:5d:ca:cd:81:77:a2:91:90:f2:b8:a6:bc:b5:58:
                    b7:ee:56:72:26:e6:b9:87:47:1c:25:2f:25:56:77:
                    6d:dd:a9:64:5c:41:00:d3:8d:c8:72:16:62:ec:9d:
                    7e:06:51:02:72:74:f0:dd:aa:3a:a9:07:1a:3c:21:
                    07:eb:36:63:02:32:46:3e:16:af:57:25:23:62:2a:
                    82:cd:36:34:7c:f5:b6:27:85:c2:fa:78:7e:e0:b4:
                    47:eb:80:31:ce:c5:1c:ac:2a:d8:3b:f4:78:69:5c:
                    b6:e9:18:e6:d6:26:8c:7b:67:c4:06:59:50:0d:6f:
                    49:c9
                Exponent: 65537 (0x10001)
        X509v3 extensions:
            Netscape Cert Type: 
                SSL Client
            X509v3 Subject Key Identifier: 
                D9:1A:48:AE:AC:D9:21:CC:2F:E4:65:23:2A:4B:BA:0E:5F:C2:B8:F3
            X509v3 Authority Key Identifier: 
                keyid:3B:D6:D1:53:18:87:05:22:BB:EE:C3:0F:F5:CE:0F:6B:A2:93:A7:B8
                DirName:/CN=BANGALORECA_CA/C=IN/O=CITRIX/OU=ANG/ST=KA/emailAddress=BANGALORECA_CA@BANGALORECA_mail.com
                serial:A1:AC:B4:DA:46:53:58:40

            Authority Information Access: 
                OCSP - URI:http://172.16.20.1/responderpath

    Signature Algorithm: sha256WithRSAEncryption
         9f:b7:14:87:3b:2c:c9:c8:ce:3d:4d:2e:19:67:03:48:bb:0d:
         23:ef:ab:3e:20:49:bc:9e:d1:95:7b:ef:07:81:17:e8:76:91:
         0d:25:39:5c:50:68:91:36:7a:cf:23:03:ef:b4:d2:32:35:04:
         4d:3c:73:df:07:db:1a:80:c2:ab:8e:3a:47:2a:2f:87:c4:41:
         f5:4e:e5:0a:67:83:28:32:30:94:19:c7:85:e6:ee:59:5a:d6:
         24:99:dc:31:5f:a5:ea:04:f4:2b:63:e8:a9:1b:15:ce:4c:10:
         3e:97:65:ce:77:64:1a:31:7a:11:81:c6:05:8a:59:59:21:86:
         c7:65:69:fe:af:60:27:d4:fe:4c:ae:dc:4b:fd:8c:3b:7f:ca:
         d6:44:53:a7:68:17:20:30:8e:54:41:fa:12:7c:a9:92:4f:e9:
         27:e3:d6:1b:15:ec:86:2a:02:e0:79:b0:6f:0f:ad:66:15:27:
         98:4e:8f:31:b5:16:d5:5a:eb:94:7f:2d:80:b9:c9:f8:0f:1c:
         0a:fd:db:9d:14:b5:95:85:aa:7e:ea:f3:46:16:d3:0e:77:3d:
         52:4a:82:f8:1d:6e:b4:12:9d:9d:2e:7b:02:22:75:4f:14:32:
         52:ad:bc:0c:3d:ad:cf:c9:31:a7:09:6b:94:ec:7c:40:43:ab:
         68:d3:e1:fc
-----BEGIN CERTIFICATE-----
MIIEoTCCA4mgAwIBAgIGCgsMDQ5XMA0GCSqGSIb3DQEBCwUAMIGGMRcwFQYDVQQD
FA5CQU5HQUxPUkVDQV9DQTELMAkGA1UEBhMCSU4xDzANBgNVBAoTBkNJVFJJWDEM
MAoGA1UECxMDQU5HMQswCQYDVQQIEwJLQTEyMDAGCSqGSIb3DQEJARYjQkFOR0FM
T1JFQ0FfQ0FAQkFOR0FMT1JFQ0FfbWFpbC5jb20wHhcNMTcwODIzMDkwNjU5WhcN
MjcwODIxMDkwNjU5WjBmMQswCQYDVQQIEwJLQTELMAkGA1UEBhMCSU4xFjAUBgNV
BAMUDWJscl8zM19jbGllbnQxITAfBgkqhkiG9w0BCQEWEmJscl8zM0B0ZXN0X2Nh
LmNvbTEPMA0GA1UEChMGQ0lUUklYMIIBIjANBgkqhkiG9w0BAQEFAAOCAQ8AMIIB
CgKCAQEAnyyQcFT2rTZBwfJKtX/BvU0dm299FIZRMA6/lh/f6/LPrbMPAXCFKE6v
KwCXd26dyjkFfUKOd5i9XmeDqvdoRKBm6Yj9Yw34finvc/l3CqMRXp5uFiNVLOx7
Y+NSZdWcjCTPSQHF18ZZTou+VUe6/YNP8osQESead0E4NuwSp0JO75KatASvXcrN
gXeikZDyuKa8tVi37lZyJua5h0ccJS8lVndt3alkXEEA043IchZi7J1+BlECcnTw
3ao6qQcaPCEH6zZjAjJGPhavVyUjYiqCzTY0fPW2J4XC+nh+4LRH64AxzsUcrCrY
O/R4aVy26Rjm1iaMe2fEBllQDW9JyQIDAQABo4IBMjCCAS4wEQYJYIZIAYb4QgEB
BAQDAgeAMB0GA1UdDgQWBBTZGkiurNkhzC/kZSMqS7oOX8K48zCBuwYDVR0jBIGz
MIGwgBQ71tFTGIcFIrvuww/1zg9ropOnuKGBjKSBiTCBhjEXMBUGA1UEAxQOQkFO
R0FMT1JFQ0FfQ0ExCzAJBgNVBAYTAklOMQ8wDQYDVQQKEwZDSVRSSVgxDDAKBgNV
BAsTA0FORzELMAkGA1UECBMCS0ExMjAwBgkqhkiG9w0BCQEWI0JBTkdBTE9SRUNB
X0NBQEJBTkdBTE9SRUNBX21haWwuY29tggkAoay02kZTWEAwPAYIKwYBBQUHAQEE
MDAuMCwGCCsGAQUFBzABhiBodHRwOi8vMTcyLjE2LjIwLjEvcmVzcG9uZGVycGF0
aDANBgkqhkiG9w0BAQsFAAOCAQEAn7cUhzssycjOPU0uGWcDSLsNI++rPiBJvJ7R
lXvvB4EX6HaRDSU5XFBokTZ6zyMD77TSMjUETTxz3wfbGoDCq446Ryovh8RB9U7l
CmeDKDIwlBnHhebuWVrWJJncMV+l6gT0K2PoqRsVzkwQPpdlzndkGjF6EYHGBYpZ
WSGGx2Vp/q9gJ9T+TK7cS/2MO3/K1kRTp2gXIDCOVEH6Enypkk/pJ+PWGxXshioC
4Hmwbw+tZhUnmE6PMbUW1VrrlH8tgLnJ+A8cCv3bnRS1lYWqfurzRhbTDnc9UkqC
+B1utBKdnS57AiJ1TxQyUq28DD2tz8kxpwlrlOx8QEOraNPh/A==
-----END CERTIFICATE-----
