Certificate:
    Data:
        Version: 3 (0x2)
        Serial Number: 11042563100219 (0xa0b0c0d0e3b)
    Signature Algorithm: sha256WithRSAEncryption
        Issuer: CN=BANGALORECA_CA, C=IN, O=CITRIX, OU=ANG, ST=KA/emailAddress=BANGALORECA_CA@BANGALORECA_mail.com
        Validity
            Not Before: Aug 23 09:06:41 2017 GMT
            Not After : Aug 21 09:06:41 2027 GMT
        Subject: ST=KA, C=IN, CN=blr_5_client/emailAddress=blr_5@test_ca.com, O=CITRIX
        Subject Public Key Info:
            Public Key Algorithm: rsaEncryption
                Public-Key: (2048 bit)
                Modulus:
                    00:b1:8d:8b:19:ea:07:59:e6:03:7f:23:73:19:ce:
                    d0:7b:39:c4:99:e3:d6:ab:d4:46:b5:99:ac:73:e6:
                    9b:46:f5:cc:54:0e:9c:90:b9:b7:29:95:74:12:b4:
                    c7:af:8e:06:2e:02:c5:76:ae:c9:0c:e5:99:8d:fb:
                    1d:91:78:9a:5e:fb:80:54:c7:9c:1b:24:e5:3b:4e:
                    d4:8d:eb:fb:2c:28:ea:c7:c0:30:1a:6c:9f:1f:a5:
                    80:9c:8e:1e:a8:c9:92:cc:10:1a:77:f8:ae:4f:15:
                    37:c0:26:ca:fd:91:e7:77:ba:be:32:68:02:cc:f6:
                    64:98:13:6b:ca:49:f8:ff:ff:b8:fa:52:99:e1:41:
                    4e:88:bc:e1:57:94:a7:7d:36:78:fa:e2:e3:23:08:
                    46:84:d1:ba:52:90:10:e7:cc:3e:23:54:ad:71:de:
                    21:f9:6b:08:12:92:bc:ad:d0:80:86:e2:f8:3b:6f:
                    ba:96:92:58:6c:df:d8:eb:89:2c:6c:42:e1:c6:91:
                    f4:97:a5:f9:51:57:93:6e:f2:34:3b:3c:49:ec:cc:
                    d9:2c:84:c4:09:47:11:46:2e:81:85:53:ff:f4:f5:
                    d8:0e:f1:ff:94:9b:53:3b:a0:91:87:b1:22:76:c5:
                    98:43:f4:cc:6d:41:c1:2b:45:52:e8:f3:3a:e1:fe:
                    35:f3
                Exponent: 65537 (0x10001)
        X509v3 extensions:
            Netscape Cert Type: 
                SSL Client
            X509v3 Subject Key Identifier: 
                B9:06:17:76:52:78:06:20:75:C7:07:C4:F1:31:36:54:AF:73:B0:63
            X509v3 Authority Key Identifier: 
                keyid:3B:D6:D1:53:18:87:05:22:BB:EE:C3:0F:F5:CE:0F:6B:A2:93:A7:B8
                DirName:/CN=BANGALORECA_CA/C=IN/O=CITRIX/OU=ANG/ST=KA/emailAddress=BANGALORECA_CA@BANGALORECA_mail.com
                serial:A1:AC:B4:DA:46:53:58:40

            Authority Information Access: 
                OCSP - URI:http://172.16.20.1/responderpath

    Signature Algorithm: sha256WithRSAEncryption
         5f:b5:c5:f6:93:76:ce:de:a1:19:bd:6b:c2:73:17:6a:1f:97:
         c4:fa:2d:e7:19:86:bc:e5:ca:25:9f:8c:6a:f2:14:27:bd:61:
         39:09:cb:29:eb:60:c4:31:49:81:35:2a:54:c2:2f:07:6c:c2:
         90:0c:e9:c3:d5:11:80:e2:1b:28:6c:b8:41:9b:ee:9a:e5:50:
         22:a5:f4:65:fa:0e:3b:1a:b5:fa:d6:20:69:bf:fe:f0:c9:30:
         5a:4b:05:dc:63:d0:82:b0:c4:32:ca:6d:52:08:20:72:28:6c:
         84:12:89:e9:71:67:84:9d:f4:89:b5:78:8a:e0:97:76:3f:d9:
         1e:bf:b7:78:07:16:81:e9:fb:02:42:03:1d:d7:1e:26:ff:06:
         53:8a:a7:45:66:3f:2a:84:f2:01:6e:07:64:5d:ae:4a:90:94:
         0b:51:cc:34:19:a8:57:29:e9:fc:6c:08:ae:88:c8:51:ba:b2:
         12:ba:c2:b1:e6:f8:d3:04:00:bb:03:b1:ff:56:61:c2:8e:f5:
         bd:df:62:86:ed:23:55:58:ab:e8:03:14:8d:1e:2a:fc:a7:49:
         63:fd:79:f6:b1:cf:d4:e2:5e:06:bd:a7:13:1e:8c:3a:4a:d8:
         2e:96:69:53:82:83:a2:fb:f0:e0:f5:33:e6:49:b7:fa:3f:1a:
         e7:d1:78:92
-----BEGIN CERTIFICATE-----
MIIEnzCCA4egAwIBAgIGCgsMDQ47MA0GCSqGSIb3DQEBCwUAMIGGMRcwFQYDVQQD
FA5CQU5HQUxPUkVDQV9DQTELMAkGA1UEBhMCSU4xDzANBgNVBAoTBkNJVFJJWDEM
MAoGA1UECxMDQU5HMQswCQYDVQQIEwJLQTEyMDAGCSqGSIb3DQEJARYjQkFOR0FM
T1JFQ0FfQ0FAQkFOR0FMT1JFQ0FfbWFpbC5jb20wHhcNMTcwODIzMDkwNjQxWhcN
MjcwODIxMDkwNjQxWjBkMQswCQYDVQQIEwJLQTELMAkGA1UEBhMCSU4xFTATBgNV
BAMUDGJscl81X2NsaWVudDEgMB4GCSqGSIb3DQEJARYRYmxyXzVAdGVzdF9jYS5j
b20xDzANBgNVBAoTBkNJVFJJWDCCASIwDQYJKoZIhvcNAQEBBQADggEPADCCAQoC
ggEBALGNixnqB1nmA38jcxnO0Hs5xJnj1qvURrWZrHPmm0b1zFQOnJC5tymVdBK0
x6+OBi4CxXauyQzlmY37HZF4ml77gFTHnBsk5TtO1I3r+ywo6sfAMBpsnx+lgJyO
HqjJkswQGnf4rk8VN8Amyv2R53e6vjJoAsz2ZJgTa8pJ+P//uPpSmeFBToi84VeU
p302ePri4yMIRoTRulKQEOfMPiNUrXHeIflrCBKSvK3QgIbi+DtvupaSWGzf2OuJ
LGxC4caR9Jel+VFXk27yNDs8SezM2SyExAlHEUYugYVT//T12A7x/5SbUzugkYex
InbFmEP0zG1BwStFUujzOuH+NfMCAwEAAaOCATIwggEuMBEGCWCGSAGG+EIBAQQE
AwIHgDAdBgNVHQ4EFgQUuQYXdlJ4BiB1xwfE8TE2VK9zsGMwgbsGA1UdIwSBszCB
sIAUO9bRUxiHBSK77sMP9c4Pa6KTp7ihgYykgYkwgYYxFzAVBgNVBAMUDkJBTkdB
TE9SRUNBX0NBMQswCQYDVQQGEwJJTjEPMA0GA1UEChMGQ0lUUklYMQwwCgYDVQQL
EwNBTkcxCzAJBgNVBAgTAktBMTIwMAYJKoZIhvcNAQkBFiNCQU5HQUxPUkVDQV9D
QUBCQU5HQUxPUkVDQV9tYWlsLmNvbYIJAKGstNpGU1hAMDwGCCsGAQUFBwEBBDAw
LjAsBggrBgEFBQcwAYYgaHR0cDovLzE3Mi4xNi4yMC4xL3Jlc3BvbmRlcnBhdGgw
DQYJKoZIhvcNAQELBQADggEBAF+1xfaTds7eoRm9a8JzF2ofl8T6LecZhrzlyiWf
jGryFCe9YTkJyynrYMQxSYE1KlTCLwdswpAM6cPVEYDiGyhsuEGb7prlUCKl9GX6
DjsatfrWIGm//vDJMFpLBdxj0IKwxDLKbVIIIHIobIQSielxZ4Sd9Im1eIrgl3Y/
2R6/t3gHFoHp+wJCAx3XHib/BlOKp0VmPyqE8gFuB2RdrkqQlAtRzDQZqFcp6fxs
CK6IyFG6shK6wrHm+NMEALsDsf9WYcKO9b3fYobtI1VYq+gDFI0eKvynSWP9efax
z9TiXga9pxMejDpK2C6WaVOCg6L78OD1M+ZJt/o/GufReJI=
-----END CERTIFICATE-----
