Certificate:
    Data:
        Version: 3 (0x2)
        Serial Number: 11042563100226 (0xa0b0c0d0e42)
    Signature Algorithm: sha256WithRSAEncryption
        Issuer: CN=BANGALORECA_CA, C=IN, O=CITRIX, OU=ANG, ST=KA/emailAddress=BANGALORECA_CA@BANGALORECA_mail.com
        Validity
            Not Before: Aug 23 09:06:46 2017 GMT
            Not After : Aug 21 09:06:46 2027 GMT
        Subject: ST=KA, C=IN, CN=blr_12_client/emailAddress=blr_12@test_ca.com, O=CITRIX
        Subject Public Key Info:
            Public Key Algorithm: rsaEncryption
                Public-Key: (2048 bit)
                Modulus:
                    00:b5:f8:03:a9:f0:d1:cd:b1:13:33:8b:a5:fb:46:
                    e7:dd:59:3b:7f:68:f3:f9:4b:8c:a1:60:e4:90:ba:
                    a2:a9:9d:4f:16:c5:78:ca:1e:76:07:87:27:48:d7:
                    30:3a:d4:71:f7:2b:42:53:85:a9:25:f9:22:d9:72:
                    79:2b:04:cb:89:95:40:53:59:af:67:da:c0:cc:41:
                    ff:fb:c1:e9:d4:ff:30:88:26:92:4d:84:36:8f:ca:
                    de:d5:d1:0c:b8:74:a7:6f:fc:49:50:9e:e0:c7:f1:
                    c4:bd:4a:49:b1:84:40:4a:3e:d3:7d:3e:b3:25:24:
                    ee:28:39:b3:ec:84:3f:f3:01:61:e7:22:36:3b:57:
                    35:4b:2f:4a:07:12:12:f8:88:77:64:08:b5:01:6a:
                    dd:ae:b5:be:35:f5:e2:9d:a2:a9:17:46:ff:98:cd:
                    00:c8:d1:2e:f7:e7:25:b7:0c:dc:90:ae:cd:85:92:
                    91:9e:6e:f7:c2:bc:a9:b6:f4:6a:3d:0c:c6:2d:f0:
                    62:8a:d7:f8:24:00:cf:fe:78:9c:ae:da:24:bc:09:
                    c4:88:75:35:5c:20:d7:fa:f6:62:17:bb:64:75:ee:
                    58:2d:e6:59:3c:12:a3:2e:c2:57:c7:ce:65:26:7a:
                    e8:f7:aa:15:a3:70:be:37:bf:f1:bb:f3:6a:ed:63:
                    2a:bb
                Exponent: 65537 (0x10001)
        X509v3 extensions:
            Netscape Cert Type: 
                SSL Client
            X509v3 Subject Key Identifier: 
                26:67:84:34:87:02:6A:63:2B:DF:AF:07:2D:17:BA:C4:CF:4A:95:E1
            X509v3 Authority Key Identifier: 
                keyid:3B:D6:D1:53:18:87:05:22:BB:EE:C3:0F:F5:CE:0F:6B:A2:93:A7:B8
                DirName:/CN=BANGALORECA_CA/C=IN/O=CITRIX/OU=ANG/ST=KA/emailAddress=BANGALORECA_CA@BANGALORECA_mail.com
                serial:A1:AC:B4:DA:46:53:58:40

            Authority Information Access: 
                OCSP - URI:http://172.16.20.1/responderpath

    Signature Algorithm: sha256WithRSAEncryption
         25:bc:86:d2:1e:3a:d8:0a:10:c4:fb:de:64:1a:fb:79:dd:dc:
         9e:7b:21:cd:29:36:6a:58:a1:fc:68:a7:8f:ab:9e:29:d6:ae:
         d5:0f:42:fa:36:29:69:84:a1:d9:f1:8c:cd:1c:6b:c1:e3:e2:
         a2:01:aa:c8:e4:b5:c8:0c:c6:4f:58:c8:95:69:07:19:85:67:
         64:5c:ef:ac:d2:d4:45:39:e8:fe:27:f1:fd:b9:c5:79:54:f0:
         61:66:5f:86:78:ab:f0:8f:99:6b:87:fe:f5:c9:35:7e:62:22:
         d0:02:72:64:d9:d2:ac:c4:d3:29:e6:b4:fc:4d:52:71:d2:a7:
         a3:01:ba:8a:d0:8a:fd:01:f3:ce:3a:21:98:9a:56:16:20:d6:
         39:4d:bc:c7:79:93:0e:6c:21:95:89:cd:53:1b:65:ce:8f:08:
         fc:c4:4f:26:0e:be:aa:23:92:93:a1:0b:95:7e:4c:91:9a:06:
         ea:95:6f:66:a1:ec:59:a8:78:c1:77:4d:d6:a1:28:93:af:f1:
         91:1e:28:0d:fc:4e:9b:12:ad:88:85:a6:e5:d7:cd:89:f9:98:
         22:4d:e9:24:69:11:ff:1d:b5:aa:0b:bb:cc:b1:0d:76:70:af:
         55:98:61:0e:e9:7d:e6:88:fe:ad:f3:88:64:e1:9b:3a:43:cb:
         98:6f:36:cf
-----BEGIN CERTIFICATE-----
MIIEoTCCA4mgAwIBAgIGCgsMDQ5CMA0GCSqGSIb3DQEBCwUAMIGGMRcwFQYDVQQD
FA5CQU5HQUxPUkVDQV9DQTELMAkGA1UEBhMCSU4xDzANBgNVBAoTBkNJVFJJWDEM
MAoGA1UECxMDQU5HMQswCQYDVQQIEwJLQTEyMDAGCSqGSIb3DQEJARYjQkFOR0FM
T1JFQ0FfQ0FAQkFOR0FMT1JFQ0FfbWFpbC5jb20wHhcNMTcwODIzMDkwNjQ2WhcN
MjcwODIxMDkwNjQ2WjBmMQswCQYDVQQIEwJLQTELMAkGA1UEBhMCSU4xFjAUBgNV
BAMUDWJscl8xMl9jbGllbnQxITAfBgkqhkiG9w0BCQEWEmJscl8xMkB0ZXN0X2Nh
LmNvbTEPMA0GA1UEChMGQ0lUUklYMIIBIjANBgkqhkiG9w0BAQEFAAOCAQ8AMIIB
CgKCAQEAtfgDqfDRzbETM4ul+0bn3Vk7f2jz+UuMoWDkkLqiqZ1PFsV4yh52B4cn
SNcwOtRx9ytCU4WpJfki2XJ5KwTLiZVAU1mvZ9rAzEH/+8Hp1P8wiCaSTYQ2j8re
1dEMuHSnb/xJUJ7gx/HEvUpJsYRASj7TfT6zJSTuKDmz7IQ/8wFh5yI2O1c1Sy9K
BxIS+Ih3ZAi1AWrdrrW+NfXinaKpF0b/mM0AyNEu9+cltwzckK7NhZKRnm73wryp
tvRqPQzGLfBiitf4JADP/nicrtokvAnEiHU1XCDX+vZiF7tkde5YLeZZPBKjLsJX
x85lJnro96oVo3C+N7/xu/Nq7WMquwIDAQABo4IBMjCCAS4wEQYJYIZIAYb4QgEB
BAQDAgeAMB0GA1UdDgQWBBQmZ4Q0hwJqYyvfrwctF7rEz0qV4TCBuwYDVR0jBIGz
MIGwgBQ71tFTGIcFIrvuww/1zg9ropOnuKGBjKSBiTCBhjEXMBUGA1UEAxQOQkFO
R0FMT1JFQ0FfQ0ExCzAJBgNVBAYTAklOMQ8wDQYDVQQKEwZDSVRSSVgxDDAKBgNV
BAsTA0FORzELMAkGA1UECBMCS0ExMjAwBgkqhkiG9w0BCQEWI0JBTkdBTE9SRUNB
X0NBQEJBTkdBTE9SRUNBX21haWwuY29tggkAoay02kZTWEAwPAYIKwYBBQUHAQEE
MDAuMCwGCCsGAQUFBzABhiBodHRwOi8vMTcyLjE2LjIwLjEvcmVzcG9uZGVycGF0
aDANBgkqhkiG9w0BAQsFAAOCAQEAJbyG0h462AoQxPveZBr7ed3cnnshzSk2alih
/Ginj6ueKdau1Q9C+jYpaYSh2fGMzRxrwePiogGqyOS1yAzGT1jIlWkHGYVnZFzv
rNLURTno/ifx/bnFeVTwYWZfhnir8I+Za4f+9ck1fmIi0AJyZNnSrMTTKea0/E1S
cdKnowG6itCK/QHzzjohmJpWFiDWOU28x3mTDmwhlYnNUxtlzo8I/MRPJg6+qiOS
k6ELlX5MkZoG6pVvZqHsWah4wXdN1qEok6/xkR4oDfxOmxKtiIWm5dfNifmYIk3p
JGkR/x21qgu7zLENdnCvVZhhDul95oj+rfOIZOGbOkPLmG82zw==
-----END CERTIFICATE-----
