Certificate:
    Data:
        Version: 3 (0x2)
        Serial Number: 11042563100250 (0xa0b0c0d0e5a)
    Signature Algorithm: sha256WithRSAEncryption
        Issuer: CN=BANGALORECA_CA, C=IN, O=CITRIX, OU=ANG, ST=KA/emailAddress=BANGALORECA_CA@BANGALORECA_mail.com
        Validity
            Not Before: Aug 23 09:07:01 2017 GMT
            Not After : Aug 21 09:07:01 2027 GMT
        Subject: ST=KA, C=IN, CN=blr_36_client/emailAddress=blr_36@test_ca.com, O=CITRIX
        Subject Public Key Info:
            Public Key Algorithm: rsaEncryption
                Public-Key: (2048 bit)
                Modulus:
                    00:eb:ab:00:46:de:33:32:26:a6:72:71:99:a3:5b:
                    d6:c7:c9:9f:16:ad:82:c5:27:80:de:a6:1d:a4:c5:
                    ff:9a:22:20:4f:91:a6:cf:7c:87:04:a9:08:bc:01:
                    aa:98:c3:ad:5b:70:8b:1e:e3:b2:db:6f:fe:2b:56:
                    5e:48:88:fc:f7:e8:f5:21:1c:31:9c:70:82:04:c7:
                    3c:2c:ea:56:06:f7:96:43:96:e5:4b:4a:bb:b3:e5:
                    e2:d3:6e:fe:f5:a4:c2:d8:9a:65:75:e1:f3:05:2e:
                    48:77:6e:f2:c5:b5:52:8e:1d:0b:5a:16:fd:cc:91:
                    4e:74:e2:f1:1e:be:3a:48:0b:ed:7c:ab:7f:a4:04:
                    ef:52:c0:75:b9:72:4a:f3:a2:5f:82:2f:c7:e4:8d:
                    61:9f:6c:7e:63:2b:e0:ce:b8:f2:87:de:9c:a7:a2:
                    1c:04:4f:48:32:6c:9b:aa:70:2d:72:0b:e7:6f:8d:
                    23:2a:14:ec:2d:0f:c8:51:42:35:a0:66:e5:cd:ca:
                    99:28:de:6b:46:f2:df:3c:d3:39:19:27:e3:7e:e3:
                    18:6a:c2:fc:90:10:4e:b6:d5:4e:05:a4:72:fb:26:
                    83:9b:2c:a5:e5:6a:3b:35:93:d7:71:82:2e:50:21:
                    8f:4a:7d:4b:f2:95:2f:05:f0:bd:d1:8c:50:48:21:
                    ba:5f
                Exponent: 65537 (0x10001)
        X509v3 extensions:
            Netscape Cert Type: 
                SSL Client
            X509v3 Subject Key Identifier: 
                25:2B:EC:E3:BF:27:15:5E:33:2C:7D:18:61:CB:51:D2:51:15:34:8F
            X509v3 Authority Key Identifier: 
                keyid:3B:D6:D1:53:18:87:05:22:BB:EE:C3:0F:F5:CE:0F:6B:A2:93:A7:B8
                DirName:/CN=BANGALORECA_CA/C=IN/O=CITRIX/OU=ANG/ST=KA/emailAddress=BANGALORECA_CA@BANGALORECA_mail.com
                serial:A1:AC:B4:DA:46:53:58:40

            Authority Information Access: 
                OCSP - URI:http://172.16.20.1/responderpath

    Signature Algorithm: sha256WithRSAEncryption
         71:f2:68:33:31:37:1a:de:46:2a:d3:bf:b1:4d:ed:0c:b1:7d:
         67:81:59:84:80:22:6c:56:40:60:cd:85:db:e7:72:6f:14:f2:
         0c:bf:43:84:de:36:89:6c:d6:a1:5f:c0:8c:37:8b:34:91:e1:
         14:60:86:a7:ed:96:b4:5b:2e:45:f4:45:b0:fc:6e:de:d6:f3:
         c2:f5:57:d0:13:5e:61:ca:65:45:93:41:cc:3f:c8:06:39:fc:
         d6:f8:27:53:56:ba:96:4c:05:25:75:5c:22:6c:86:69:3d:16:
         3a:47:b5:20:08:68:96:92:94:1d:58:e5:cc:f7:cf:a8:5f:55:
         cd:94:6f:dd:53:ed:cf:b3:ba:c2:fd:47:98:1b:87:57:67:77:
         2b:e1:ce:e2:72:f9:2e:b4:49:2c:45:e4:79:c7:fc:22:de:a5:
         55:5d:d1:3c:9e:61:8f:53:c4:eb:67:46:c3:21:6a:b9:97:da:
         47:54:e9:b9:71:02:2d:6c:7d:26:3d:f4:bc:37:e5:34:51:c3:
         54:5b:73:f8:5e:e3:6e:31:4e:e2:b2:66:d5:4e:24:f1:1c:29:
         28:de:fd:25:69:f9:8f:69:b5:5e:d1:5f:a5:d8:d9:29:47:8d:
         7d:c6:bf:0b:5a:4e:3f:27:33:8b:56:0e:a2:40:a2:61:8e:68:
         73:a4:0a:03
-----BEGIN CERTIFICATE-----
MIIEoTCCA4mgAwIBAgIGCgsMDQ5aMA0GCSqGSIb3DQEBCwUAMIGGMRcwFQYDVQQD
FA5CQU5HQUxPUkVDQV9DQTELMAkGA1UEBhMCSU4xDzANBgNVBAoTBkNJVFJJWDEM
MAoGA1UECxMDQU5HMQswCQYDVQQIEwJLQTEyMDAGCSqGSIb3DQEJARYjQkFOR0FM
T1JFQ0FfQ0FAQkFOR0FMT1JFQ0FfbWFpbC5jb20wHhcNMTcwODIzMDkwNzAxWhcN
MjcwODIxMDkwNzAxWjBmMQswCQYDVQQIEwJLQTELMAkGA1UEBhMCSU4xFjAUBgNV
BAMUDWJscl8zNl9jbGllbnQxITAfBgkqhkiG9w0BCQEWEmJscl8zNkB0ZXN0X2Nh
LmNvbTEPMA0GA1UEChMGQ0lUUklYMIIBIjANBgkqhkiG9w0BAQEFAAOCAQ8AMIIB
CgKCAQEA66sARt4zMiamcnGZo1vWx8mfFq2CxSeA3qYdpMX/miIgT5Gmz3yHBKkI
vAGqmMOtW3CLHuOy22/+K1ZeSIj89+j1IRwxnHCCBMc8LOpWBveWQ5blS0q7s+Xi
027+9aTC2JpldeHzBS5Id27yxbVSjh0LWhb9zJFOdOLxHr46SAvtfKt/pATvUsB1
uXJK86Jfgi/H5I1hn2x+Yyvgzrjyh96cp6IcBE9IMmybqnAtcgvnb40jKhTsLQ/I
UUI1oGblzcqZKN5rRvLfPNM5GSfjfuMYasL8kBBOttVOBaRy+yaDmyyl5Wo7NZPX
cYIuUCGPSn1L8pUvBfC90YxQSCG6XwIDAQABo4IBMjCCAS4wEQYJYIZIAYb4QgEB
BAQDAgeAMB0GA1UdDgQWBBQlK+zjvycVXjMsfRhhy1HSURU0jzCBuwYDVR0jBIGz
MIGwgBQ71tFTGIcFIrvuww/1zg9ropOnuKGBjKSBiTCBhjEXMBUGA1UEAxQOQkFO
R0FMT1JFQ0FfQ0ExCzAJBgNVBAYTAklOMQ8wDQYDVQQKEwZDSVRSSVgxDDAKBgNV
BAsTA0FORzELMAkGA1UECBMCS0ExMjAwBgkqhkiG9w0BCQEWI0JBTkdBTE9SRUNB
X0NBQEJBTkdBTE9SRUNBX21haWwuY29tggkAoay02kZTWEAwPAYIKwYBBQUHAQEE
MDAuMCwGCCsGAQUFBzABhiBodHRwOi8vMTcyLjE2LjIwLjEvcmVzcG9uZGVycGF0
aDANBgkqhkiG9w0BAQsFAAOCAQEAcfJoMzE3Gt5GKtO/sU3tDLF9Z4FZhIAibFZA
YM2F2+dybxTyDL9DhN42iWzWoV/AjDeLNJHhFGCGp+2WtFsuRfRFsPxu3tbzwvVX
0BNeYcplRZNBzD/IBjn81vgnU1a6lkwFJXVcImyGaT0WOke1IAholpKUHVjlzPfP
qF9VzZRv3VPtz7O6wv1HmBuHV2d3K+HO4nL5LrRJLEXkecf8It6lVV3RPJ5hj1PE
62dGwyFquZfaR1TpuXECLWx9Jj30vDflNFHDVFtz+F7jbjFO4rJm1U4k8RwpKN79
JWn5j2m1XtFfpdjZKUeNfca/C1pOPyczi1YOokCiYY5oc6QKAw==
-----END CERTIFICATE-----
