Certificate:
    Data:
        Version: 3 (0x2)
        Serial Number: 11042563100224 (0xa0b0c0d0e40)
    Signature Algorithm: sha256WithRSAEncryption
        Issuer: CN=BANGALORECA_CA, C=IN, O=CITRIX, OU=ANG, ST=KA/emailAddress=BANGALORECA_CA@BANGALORECA_mail.com
        Validity
            Not Before: Aug 23 09:06:45 2017 GMT
            Not After : Aug 21 09:06:45 2027 GMT
        Subject: ST=KA, C=IN, CN=blr_10_client/emailAddress=blr_10@test_ca.com, O=CITRIX
        Subject Public Key Info:
            Public Key Algorithm: rsaEncryption
                Public-Key: (2048 bit)
                Modulus:
                    00:f7:5c:22:09:81:6f:c7:b2:6b:be:00:1c:ce:f4:
                    c9:2e:63:8b:9f:53:cc:b3:fb:a6:fc:d8:f6:24:96:
                    aa:ba:bd:0a:f6:80:f3:7e:04:72:aa:4c:18:7f:d4:
                    3d:48:87:1f:9c:c6:66:6c:cb:c5:5b:83:ad:17:2c:
                    5f:ad:14:6b:2c:47:47:f2:62:ac:66:d6:e4:93:0d:
                    29:c3:6d:6c:09:e8:96:ec:06:4a:9e:47:d4:a0:f6:
                    0b:95:e3:47:d7:7d:86:6e:42:d1:34:1d:37:03:f4:
                    14:dd:b2:68:e5:91:ae:0f:02:b9:3f:c8:dc:fb:99:
                    9a:37:f1:3e:f7:1f:41:fa:a9:49:4f:c5:4e:87:0d:
                    dc:72:3b:6c:5a:ed:3d:d0:af:03:e9:3c:71:20:12:
                    25:6d:05:73:05:21:12:b0:fe:71:c3:49:4d:8a:95:
                    a2:21:52:9c:b2:1d:74:95:2b:a0:c8:30:f6:30:3d:
                    32:d9:30:de:88:61:fd:7e:3d:88:eb:86:8b:e2:dd:
                    9a:88:fc:c5:09:a9:2b:21:93:c2:c0:41:76:1d:3e:
                    a1:45:b4:e6:5e:85:20:d6:2e:ee:cb:d5:39:31:a6:
                    da:fb:ff:df:a6:e8:ff:ac:20:00:f5:d6:a0:7a:fe:
                    ae:4d:ef:c2:8c:3a:a1:11:e2:bd:f9:82:5e:cc:fa:
                    d9:a1
                Exponent: 65537 (0x10001)
        X509v3 extensions:
            Netscape Cert Type: 
                SSL Client
            X509v3 Subject Key Identifier: 
                28:EB:3A:D2:D0:2E:78:D4:97:DA:DD:94:E3:34:96:1A:F4:E9:E6:1B
            X509v3 Authority Key Identifier: 
                keyid:3B:D6:D1:53:18:87:05:22:BB:EE:C3:0F:F5:CE:0F:6B:A2:93:A7:B8
                DirName:/CN=BANGALORECA_CA/C=IN/O=CITRIX/OU=ANG/ST=KA/emailAddress=BANGALORECA_CA@BANGALORECA_mail.com
                serial:A1:AC:B4:DA:46:53:58:40

            Authority Information Access: 
                OCSP - URI:http://172.16.20.1/responderpath

    Signature Algorithm: sha256WithRSAEncryption
         ab:86:0d:c1:99:7f:60:2c:83:b7:9d:aa:9e:e7:ef:6f:5e:dc:
         40:fb:97:a8:98:ad:5e:2b:a6:89:48:d0:a6:86:e0:8a:a6:ac:
         d3:fb:69:d9:ea:23:1b:ce:e8:be:2f:5a:ef:c6:37:4f:80:36:
         e3:99:48:26:85:97:26:6c:f9:55:a3:d0:c8:90:66:11:e9:54:
         34:01:59:6b:05:0c:e0:b0:1e:42:fc:be:44:36:80:32:b4:37:
         ff:0c:61:1f:1e:97:a4:6c:23:00:01:56:5b:95:5b:93:f1:ec:
         bd:c2:23:22:62:50:0d:63:0b:9c:34:14:b6:1e:18:9a:a2:5e:
         63:68:36:ad:67:7c:34:c3:70:ee:b9:2d:62:ee:a9:22:14:5c:
         08:a3:eb:0e:0c:fe:03:69:86:1d:49:85:b7:f1:16:07:a9:5c:
         3b:35:90:fd:b0:05:05:6c:bb:75:57:14:a8:18:3a:6c:ed:5f:
         36:7b:90:a8:81:57:2f:64:8a:09:9b:2c:49:74:2e:6e:18:ed:
         47:f6:41:9d:04:ee:90:6e:83:9a:d5:20:ca:82:f9:76:7f:6f:
         e8:11:15:45:8a:d3:af:06:a0:7b:41:8a:b1:3c:a8:ff:0c:8b:
         90:34:e0:e3:e6:08:13:1b:f9:25:51:a1:d5:bf:85:0e:2c:13:
         ee:33:fe:41
-----BEGIN CERTIFICATE-----
MIIEoTCCA4mgAwIBAgIGCgsMDQ5AMA0GCSqGSIb3DQEBCwUAMIGGMRcwFQYDVQQD
FA5CQU5HQUxPUkVDQV9DQTELMAkGA1UEBhMCSU4xDzANBgNVBAoTBkNJVFJJWDEM
MAoGA1UECxMDQU5HMQswCQYDVQQIEwJLQTEyMDAGCSqGSIb3DQEJARYjQkFOR0FM
T1JFQ0FfQ0FAQkFOR0FMT1JFQ0FfbWFpbC5jb20wHhcNMTcwODIzMDkwNjQ1WhcN
MjcwODIxMDkwNjQ1WjBmMQswCQYDVQQIEwJLQTELMAkGA1UEBhMCSU4xFjAUBgNV
BAMUDWJscl8xMF9jbGllbnQxITAfBgkqhkiG9w0BCQEWEmJscl8xMEB0ZXN0X2Nh
LmNvbTEPMA0GA1UEChMGQ0lUUklYMIIBIjANBgkqhkiG9w0BAQEFAAOCAQ8AMIIB
CgKCAQEA91wiCYFvx7JrvgAczvTJLmOLn1PMs/um/Nj2JJaqur0K9oDzfgRyqkwY
f9Q9SIcfnMZmbMvFW4OtFyxfrRRrLEdH8mKsZtbkkw0pw21sCeiW7AZKnkfUoPYL
leNH132GbkLRNB03A/QU3bJo5ZGuDwK5P8jc+5maN/E+9x9B+qlJT8VOhw3ccjts
Wu090K8D6TxxIBIlbQVzBSESsP5xw0lNipWiIVKcsh10lSugyDD2MD0y2TDeiGH9
fj2I64aL4t2aiPzFCakrIZPCwEF2HT6hRbTmXoUg1i7uy9U5Maba+//fpuj/rCAA
9dagev6uTe/CjDqhEeK9+YJezPrZoQIDAQABo4IBMjCCAS4wEQYJYIZIAYb4QgEB
BAQDAgeAMB0GA1UdDgQWBBQo6zrS0C541Jfa3ZTjNJYa9OnmGzCBuwYDVR0jBIGz
MIGwgBQ71tFTGIcFIrvuww/1zg9ropOnuKGBjKSBiTCBhjEXMBUGA1UEAxQOQkFO
R0FMT1JFQ0FfQ0ExCzAJBgNVBAYTAklOMQ8wDQYDVQQKEwZDSVRSSVgxDDAKBgNV
BAsTA0FORzELMAkGA1UECBMCS0ExMjAwBgkqhkiG9w0BCQEWI0JBTkdBTE9SRUNB
X0NBQEJBTkdBTE9SRUNBX21haWwuY29tggkAoay02kZTWEAwPAYIKwYBBQUHAQEE
MDAuMCwGCCsGAQUFBzABhiBodHRwOi8vMTcyLjE2LjIwLjEvcmVzcG9uZGVycGF0
aDANBgkqhkiG9w0BAQsFAAOCAQEAq4YNwZl/YCyDt52qnufvb17cQPuXqJitXium
iUjQpobgiqas0/tp2eojG87ovi9a78Y3T4A245lIJoWXJmz5VaPQyJBmEelUNAFZ
awUM4LAeQvy+RDaAMrQ3/wxhHx6XpGwjAAFWW5Vbk/HsvcIjImJQDWMLnDQUth4Y
mqJeY2g2rWd8NMNw7rktYu6pIhRcCKPrDgz+A2mGHUmFt/EWB6lcOzWQ/bAFBWy7
dVcUqBg6bO1fNnuQqIFXL2SKCZssSXQubhjtR/ZBnQTukG6DmtUgyoL5dn9v6BEV
RYrTrwage0GKsTyo/wyLkDTg4+YIExv5JVGh1b+FDiwT7jP+QQ==
-----END CERTIFICATE-----
