Certificate:
    Data:
        Version: 3 (0x2)
        Serial Number: 11042563100223 (0xa0b0c0d0e3f)
    Signature Algorithm: sha256WithRSAEncryption
        Issuer: CN=BANGALORECA_CA, C=IN, O=CITRIX, OU=ANG, ST=KA/emailAddress=BANGALORECA_CA@BANGALORECA_mail.com
        Validity
            Not Before: Aug 23 09:06:44 2017 GMT
            Not After : Aug 21 09:06:44 2027 GMT
        Subject: ST=KA, C=IN, CN=blr_9_client/emailAddress=blr_9@test_ca.com, O=CITRIX
        Subject Public Key Info:
            Public Key Algorithm: rsaEncryption
                Public-Key: (2048 bit)
                Modulus:
                    00:ab:2a:c2:32:21:ee:4b:ad:aa:de:e2:37:31:dd:
                    30:18:b8:af:85:7f:95:0c:40:69:ca:af:36:0d:41:
                    66:43:75:62:71:29:ab:8b:2a:8e:e2:5d:f0:7b:8b:
                    7c:f8:14:9c:32:da:3c:b0:ba:63:34:0f:c9:3c:25:
                    66:7d:a8:6a:f4:b9:4e:e8:61:a7:e8:93:41:e2:e9:
                    34:04:0e:93:dc:2f:9f:24:6c:0c:96:ec:f0:9f:7d:
                    13:87:ea:fa:a6:98:3c:69:54:9e:61:23:f3:c4:d3:
                    ad:49:71:91:0b:44:2d:74:39:f7:51:ba:fa:e6:c8:
                    a2:9f:14:5a:4b:2f:dc:fa:ac:ae:aa:4a:e0:84:80:
                    8d:ac:1b:f5:52:b8:58:41:66:9d:19:58:19:49:60:
                    e1:3e:c3:9e:66:83:55:17:88:82:73:e3:d2:dc:38:
                    b0:6a:3f:40:ee:e9:58:1a:c7:e6:94:10:ca:de:b1:
                    02:8a:a7:8c:14:3f:cf:ca:90:7d:cb:7a:70:f1:c0:
                    36:c5:60:c7:3e:5e:c4:a0:16:2c:d7:d1:2b:fe:44:
                    12:e1:6b:71:f6:b5:d5:89:a9:0a:8f:88:ae:88:a9:
                    02:dc:6c:c2:e2:f6:2b:6f:8f:66:ba:21:e6:38:50:
                    97:5e:be:4c:6c:7e:e1:31:54:04:95:1d:52:d5:1b:
                    41:27
                Exponent: 65537 (0x10001)
        X509v3 extensions:
            Netscape Cert Type: 
                SSL Client
            X509v3 Subject Key Identifier: 
                09:5F:BB:EF:B0:BC:0D:62:AB:D4:36:EA:2F:27:CC:E9:46:4E:46:EF
            X509v3 Authority Key Identifier: 
                keyid:3B:D6:D1:53:18:87:05:22:BB:EE:C3:0F:F5:CE:0F:6B:A2:93:A7:B8
                DirName:/CN=BANGALORECA_CA/C=IN/O=CITRIX/OU=ANG/ST=KA/emailAddress=BANGALORECA_CA@BANGALORECA_mail.com
                serial:A1:AC:B4:DA:46:53:58:40

            Authority Information Access: 
                OCSP - URI:http://172.16.20.1/responderpath

    Signature Algorithm: sha256WithRSAEncryption
         3b:0d:5b:e4:53:2e:79:bb:db:c7:37:99:eb:e5:f8:af:41:d4:
         60:5f:01:b7:cb:32:08:df:3e:6e:ed:02:ac:7b:3d:19:64:5d:
         d8:ce:7a:91:1c:25:0c:04:18:b8:f8:88:e8:7a:cc:e9:b3:26:
         46:d9:7e:8b:cc:fe:ba:6f:e2:f2:61:ee:5d:2f:4a:57:39:1d:
         5b:6c:46:85:93:27:dd:81:aa:ad:2a:53:27:96:ff:45:88:6a:
         68:a0:a8:dc:36:3c:2d:af:07:43:66:9f:e6:73:87:e2:d2:e1:
         03:49:2b:93:ab:e5:be:47:7a:f7:80:ed:6e:4e:18:b2:26:e0:
         43:62:e5:91:7f:55:69:1b:38:2d:ae:e2:47:a3:ff:2a:4f:58:
         b4:f3:22:a6:1a:d5:cb:f2:8f:5b:38:58:ec:5c:82:84:14:67:
         12:14:3d:cb:b8:c6:ec:b1:b9:bb:49:ea:63:2c:75:ff:df:45:
         2a:aa:e7:7a:fe:82:2f:5a:78:56:1c:3b:69:44:a1:b2:bb:7d:
         12:49:30:13:00:fd:ed:89:67:b6:5b:90:69:8c:bc:0c:fd:1a:
         b3:cc:f8:f9:98:87:04:7d:30:34:f3:7c:ff:4b:f9:e0:f9:21:
         38:51:a5:dd:fb:84:77:85:a8:f0:b1:fd:4d:99:4f:24:bc:3b:
         65:6a:71:13
-----BEGIN CERTIFICATE-----
MIIEnzCCA4egAwIBAgIGCgsMDQ4/MA0GCSqGSIb3DQEBCwUAMIGGMRcwFQYDVQQD
FA5CQU5HQUxPUkVDQV9DQTELMAkGA1UEBhMCSU4xDzANBgNVBAoTBkNJVFJJWDEM
MAoGA1UECxMDQU5HMQswCQYDVQQIEwJLQTEyMDAGCSqGSIb3DQEJARYjQkFOR0FM
T1JFQ0FfQ0FAQkFOR0FMT1JFQ0FfbWFpbC5jb20wHhcNMTcwODIzMDkwNjQ0WhcN
MjcwODIxMDkwNjQ0WjBkMQswCQYDVQQIEwJLQTELMAkGA1UEBhMCSU4xFTATBgNV
BAMUDGJscl85X2NsaWVudDEgMB4GCSqGSIb3DQEJARYRYmxyXzlAdGVzdF9jYS5j
b20xDzANBgNVBAoTBkNJVFJJWDCCASIwDQYJKoZIhvcNAQEBBQADggEPADCCAQoC
ggEBAKsqwjIh7kutqt7iNzHdMBi4r4V/lQxAacqvNg1BZkN1YnEpq4sqjuJd8HuL
fPgUnDLaPLC6YzQPyTwlZn2oavS5Tuhhp+iTQeLpNAQOk9wvnyRsDJbs8J99E4fq
+qaYPGlUnmEj88TTrUlxkQtELXQ591G6+ubIop8UWksv3PqsrqpK4ISAjawb9VK4
WEFmnRlYGUlg4T7DnmaDVReIgnPj0tw4sGo/QO7pWBrH5pQQyt6xAoqnjBQ/z8qQ
fct6cPHANsVgxz5exKAWLNfRK/5EEuFrcfa11YmpCo+IroipAtxswuL2K2+PZroh
5jhQl16+TGx+4TFUBJUdUtUbQScCAwEAAaOCATIwggEuMBEGCWCGSAGG+EIBAQQE
AwIHgDAdBgNVHQ4EFgQUCV+777C8DWKr1DbqLyfM6UZORu8wgbsGA1UdIwSBszCB
sIAUO9bRUxiHBSK77sMP9c4Pa6KTp7ihgYykgYkwgYYxFzAVBgNVBAMUDkJBTkdB
TE9SRUNBX0NBMQswCQYDVQQGEwJJTjEPMA0GA1UEChMGQ0lUUklYMQwwCgYDVQQL
EwNBTkcxCzAJBgNVBAgTAktBMTIwMAYJKoZIhvcNAQkBFiNCQU5HQUxPUkVDQV9D
QUBCQU5HQUxPUkVDQV9tYWlsLmNvbYIJAKGstNpGU1hAMDwGCCsGAQUFBwEBBDAw
LjAsBggrBgEFBQcwAYYgaHR0cDovLzE3Mi4xNi4yMC4xL3Jlc3BvbmRlcnBhdGgw
DQYJKoZIhvcNAQELBQADggEBADsNW+RTLnm728c3mevl+K9B1GBfAbfLMgjfPm7t
Aqx7PRlkXdjOepEcJQwEGLj4iOh6zOmzJkbZfovM/rpv4vJh7l0vSlc5HVtsRoWT
J92Bqq0qUyeW/0WIamigqNw2PC2vB0Nmn+Zzh+LS4QNJK5Or5b5HeveA7W5OGLIm
4ENi5ZF/VWkbOC2u4kej/ypPWLTzIqYa1cvyj1s4WOxcgoQUZxIUPcu4xuyxubtJ
6mMsdf/fRSqq53r+gi9aeFYcO2lEobK7fRJJMBMA/e2JZ7ZbkGmMvAz9GrPM+PmY
hwR9MDTzfP9L+eD5IThRpd37hHeFqPCx/U2ZTyS8O2VqcRM=
-----END CERTIFICATE-----
