Certificate:
    Data:
        Version: 3 (0x2)
        Serial Number: 11042563100234 (0xa0b0c0d0e4a)
    Signature Algorithm: sha256WithRSAEncryption
        Issuer: CN=BANGALORECA_CA, C=IN, O=CITRIX, OU=ANG, ST=KA/emailAddress=BANGALORECA_CA@BANGALORECA_mail.com
        Validity
            Not Before: Aug 23 09:06:51 2017 GMT
            Not After : Aug 21 09:06:51 2027 GMT
        Subject: ST=KA, C=IN, CN=blr_20_client/emailAddress=blr_20@test_ca.com, O=CITRIX
        Subject Public Key Info:
            Public Key Algorithm: rsaEncryption
                Public-Key: (2048 bit)
                Modulus:
                    00:ba:b7:38:40:1c:e3:a9:e8:39:dd:ae:8a:58:d9:
                    53:02:4b:7a:6e:c9:be:39:6e:36:2b:0a:8b:65:45:
                    33:80:ef:33:29:f5:b1:5e:43:69:17:1b:d0:a6:6e:
                    c0:ea:6d:61:b0:3c:e3:5b:19:52:9f:8c:f1:3e:51:
                    ea:b5:b0:19:ec:3b:a9:07:53:6d:1b:de:f0:f5:72:
                    81:56:ed:d1:0f:09:79:05:56:11:7c:74:8b:2a:5e:
                    7e:e6:7f:85:2a:28:9c:95:ab:d6:6c:44:f5:f8:54:
                    bd:d5:42:83:a6:5c:89:e7:64:98:36:a1:ba:db:bb:
                    c9:31:5a:05:16:3d:cb:ff:c2:ac:78:10:3c:f6:5a:
                    8d:1f:bc:5d:45:39:69:7d:78:80:ee:09:f4:91:d6:
                    7e:3d:3c:ab:f4:4e:ac:ac:d8:9c:a9:e1:08:b4:89:
                    f4:64:f1:4d:92:ac:a5:a7:2b:d9:1f:2a:d4:1b:96:
                    3d:5d:ea:9d:2c:e9:d0:6b:fa:fc:9e:94:06:0b:5f:
                    2c:b3:6b:cc:03:cc:73:eb:00:36:a9:53:1e:73:f6:
                    15:6d:ec:ce:85:dd:a0:42:b0:d2:0d:1f:d7:04:5c:
                    e9:b3:5b:44:4d:a2:cc:99:00:e6:fb:2d:a2:9b:eb:
                    78:e5:5f:79:c4:7f:01:26:e0:57:c8:82:7c:63:7a:
                    c8:0f
                Exponent: 65537 (0x10001)
        X509v3 extensions:
            Netscape Cert Type: 
                SSL Client
            X509v3 Subject Key Identifier: 
                9F:8C:C2:7E:E0:2F:AB:37:A2:03:75:2A:28:A2:71:03:B0:68:0F:C4
            X509v3 Authority Key Identifier: 
                keyid:3B:D6:D1:53:18:87:05:22:BB:EE:C3:0F:F5:CE:0F:6B:A2:93:A7:B8
                DirName:/CN=BANGALORECA_CA/C=IN/O=CITRIX/OU=ANG/ST=KA/emailAddress=BANGALORECA_CA@BANGALORECA_mail.com
                serial:A1:AC:B4:DA:46:53:58:40

            Authority Information Access: 
                OCSP - URI:http://172.16.20.1/responderpath

    Signature Algorithm: sha256WithRSAEncryption
         62:80:5d:7d:95:99:b4:fb:b4:76:74:b9:ed:f6:57:5f:0c:2d:
         46:0c:f3:82:5b:62:cf:f6:67:5c:c2:dc:d4:4d:cd:2d:92:b3:
         f5:2f:92:e9:80:ea:2d:76:58:a4:f6:17:d6:c7:06:47:e7:84:
         81:ad:8f:54:79:8e:f0:67:c1:3e:81:cc:00:85:ba:bd:b2:37:
         b7:de:d1:52:36:46:d0:ba:46:bb:2d:21:0b:5b:ca:dc:45:8e:
         66:00:91:74:b2:6c:c2:c5:c9:8f:cf:ec:6b:50:cc:2e:71:e7:
         d0:ad:88:f1:e9:5b:e1:3d:24:28:7b:43:3c:33:bb:d2:0b:13:
         b7:38:23:2e:d6:f1:29:04:38:be:08:77:ab:d3:79:07:c2:2a:
         2c:ea:75:04:fa:3a:3f:16:40:3a:30:4b:c8:12:ab:e7:8f:25:
         b9:eb:97:9c:7f:7a:2d:10:fd:c3:49:d2:39:76:84:f9:ac:d7:
         57:6c:67:19:6b:4e:8f:58:e6:d4:05:6d:3d:a9:4d:20:94:4f:
         b0:23:23:d3:aa:07:e8:c9:df:0f:e9:71:6d:53:e5:28:7e:9d:
         3b:1f:94:e1:23:63:89:db:b5:10:9c:c4:8a:96:41:c0:9f:86:
         c8:3d:3d:6f:3c:8e:5a:df:06:ab:b1:ef:33:ff:95:ae:d8:b4:
         7b:39:28:e4
-----BEGIN CERTIFICATE-----
MIIEoTCCA4mgAwIBAgIGCgsMDQ5KMA0GCSqGSIb3DQEBCwUAMIGGMRcwFQYDVQQD
FA5CQU5HQUxPUkVDQV9DQTELMAkGA1UEBhMCSU4xDzANBgNVBAoTBkNJVFJJWDEM
MAoGA1UECxMDQU5HMQswCQYDVQQIEwJLQTEyMDAGCSqGSIb3DQEJARYjQkFOR0FM
T1JFQ0FfQ0FAQkFOR0FMT1JFQ0FfbWFpbC5jb20wHhcNMTcwODIzMDkwNjUxWhcN
MjcwODIxMDkwNjUxWjBmMQswCQYDVQQIEwJLQTELMAkGA1UEBhMCSU4xFjAUBgNV
BAMUDWJscl8yMF9jbGllbnQxITAfBgkqhkiG9w0BCQEWEmJscl8yMEB0ZXN0X2Nh
LmNvbTEPMA0GA1UEChMGQ0lUUklYMIIBIjANBgkqhkiG9w0BAQEFAAOCAQ8AMIIB
CgKCAQEAurc4QBzjqeg53a6KWNlTAkt6bsm+OW42KwqLZUUzgO8zKfWxXkNpFxvQ
pm7A6m1hsDzjWxlSn4zxPlHqtbAZ7DupB1NtG97w9XKBVu3RDwl5BVYRfHSLKl5+
5n+FKiiclavWbET1+FS91UKDplyJ52SYNqG627vJMVoFFj3L/8KseBA89lqNH7xd
RTlpfXiA7gn0kdZ+PTyr9E6srNicqeEItIn0ZPFNkqylpyvZHyrUG5Y9XeqdLOnQ
a/r8npQGC18ss2vMA8xz6wA2qVMec/YVbezOhd2gQrDSDR/XBFzps1tETaLMmQDm
+y2im+t45V95xH8BJuBXyIJ8Y3rIDwIDAQABo4IBMjCCAS4wEQYJYIZIAYb4QgEB
BAQDAgeAMB0GA1UdDgQWBBSfjMJ+4C+rN6IDdSooonEDsGgPxDCBuwYDVR0jBIGz
MIGwgBQ71tFTGIcFIrvuww/1zg9ropOnuKGBjKSBiTCBhjEXMBUGA1UEAxQOQkFO
R0FMT1JFQ0FfQ0ExCzAJBgNVBAYTAklOMQ8wDQYDVQQKEwZDSVRSSVgxDDAKBgNV
BAsTA0FORzELMAkGA1UECBMCS0ExMjAwBgkqhkiG9w0BCQEWI0JBTkdBTE9SRUNB
X0NBQEJBTkdBTE9SRUNBX21haWwuY29tggkAoay02kZTWEAwPAYIKwYBBQUHAQEE
MDAuMCwGCCsGAQUFBzABhiBodHRwOi8vMTcyLjE2LjIwLjEvcmVzcG9uZGVycGF0
aDANBgkqhkiG9w0BAQsFAAOCAQEAYoBdfZWZtPu0dnS57fZXXwwtRgzzgltiz/Zn
XMLc1E3NLZKz9S+S6YDqLXZYpPYX1scGR+eEga2PVHmO8GfBPoHMAIW6vbI3t97R
UjZG0LpGuy0hC1vK3EWOZgCRdLJswsXJj8/sa1DMLnHn0K2I8elb4T0kKHtDPDO7
0gsTtzgjLtbxKQQ4vgh3q9N5B8IqLOp1BPo6PxZAOjBLyBKr548lueuXnH96LRD9
w0nSOXaE+azXV2xnGWtOj1jm1AVtPalNIJRPsCMj06oH6MnfD+lxbVPlKH6dOx+U
4SNjidu1EJzEipZBwJ+GyD09bzyOWt8Gq7HvM/+Vrti0ezko5A==
-----END CERTIFICATE-----
