Certificate:
    Data:
        Version: 3 (0x2)
        Serial Number: 11042563100220 (0xa0b0c0d0e3c)
    Signature Algorithm: sha256WithRSAEncryption
        Issuer: CN=BANGALORECA_CA, C=IN, O=CITRIX, OU=ANG, ST=KA/emailAddress=BANGALORECA_CA@BANGALORECA_mail.com
        Validity
            Not Before: Aug 23 09:06:41 2017 GMT
            Not After : Aug 21 09:06:41 2027 GMT
        Subject: ST=KA, C=IN, CN=blr_6_client/emailAddress=blr_6@test_ca.com, O=CITRIX
        Subject Public Key Info:
            Public Key Algorithm: rsaEncryption
                Public-Key: (2048 bit)
                Modulus:
                    00:b6:4a:c0:6e:19:70:6a:2f:8e:5d:a7:fc:57:d6:
                    13:9b:44:18:02:c2:df:ee:1e:4e:93:8c:88:9c:a8:
                    12:5f:04:d7:8b:9c:4e:34:64:27:83:da:87:2c:c0:
                    ab:22:8d:50:6b:ce:76:8f:31:86:07:4d:7a:74:9c:
                    3a:eb:78:0b:46:8f:04:eb:dd:58:3c:a2:5f:9e:da:
                    16:fe:cf:fc:7d:d9:61:de:dc:fa:57:3e:a9:f7:7e:
                    70:be:fa:a3:cd:8d:ee:d5:0b:a0:ac:ad:74:36:75:
                    72:dc:7d:33:f3:78:c9:c5:81:d4:8c:5d:1d:84:f0:
                    c1:ad:77:c2:9f:3b:1a:26:6f:80:c5:3b:8d:1d:73:
                    86:e2:ef:40:76:e1:a7:d0:48:28:87:6e:d9:c0:3f:
                    c1:ca:35:d4:cf:5f:8c:8e:77:70:97:2e:27:50:05:
                    b9:db:4f:01:ed:72:5b:4f:b2:02:bf:b2:76:7f:d6:
                    4e:78:85:5e:1b:0d:0f:46:ce:f8:77:d5:de:64:c6:
                    49:9e:d5:3f:0e:ae:de:cb:f2:d5:78:19:86:cb:fd:
                    12:0b:8b:98:eb:43:39:8c:86:2f:b6:69:a0:87:27:
                    4c:86:6d:46:1c:b6:52:72:93:67:03:d5:05:91:36:
                    05:00:94:59:ac:3b:42:9a:90:8d:4e:2d:96:68:d7:
                    60:31
                Exponent: 65537 (0x10001)
        X509v3 extensions:
            Netscape Cert Type: 
                SSL Client
            X509v3 Subject Key Identifier: 
                76:BA:76:D0:FD:95:07:EF:EC:46:91:B2:A9:74:5F:F3:62:2B:52:80
            X509v3 Authority Key Identifier: 
                keyid:3B:D6:D1:53:18:87:05:22:BB:EE:C3:0F:F5:CE:0F:6B:A2:93:A7:B8
                DirName:/CN=BANGALORECA_CA/C=IN/O=CITRIX/OU=ANG/ST=KA/emailAddress=BANGALORECA_CA@BANGALORECA_mail.com
                serial:A1:AC:B4:DA:46:53:58:40

            Authority Information Access: 
                OCSP - URI:http://172.16.20.1/responderpath

    Signature Algorithm: sha256WithRSAEncryption
         25:3e:3d:23:0a:13:ab:36:b6:a1:7b:c4:95:e4:ce:44:ce:e9:
         e3:f0:3b:da:3f:eb:10:08:74:75:92:02:60:22:1d:d9:78:5e:
         05:4b:54:a6:9f:58:f7:10:07:9f:c2:e1:1a:e5:3f:d7:e9:cf:
         5d:d5:a9:27:56:15:a1:c4:38:3a:b3:85:de:2a:7b:d1:8b:05:
         05:af:b0:2e:56:cb:0e:eb:fc:bd:a6:f5:1e:a4:9a:c9:fa:ca:
         d8:8b:7d:68:47:49:bb:24:f0:5e:47:a9:71:93:01:4e:0c:c6:
         38:86:c2:e6:1f:f1:ad:71:bc:38:20:50:ba:9d:11:21:c2:92:
         1f:85:63:f8:9e:b8:bf:c0:c2:98:ef:43:ab:b5:ce:d8:6d:24:
         b9:75:9a:9d:00:74:93:c6:5b:ba:a5:f6:a2:93:c5:89:c0:b7:
         64:98:f6:81:20:f5:af:27:42:9a:7f:80:4a:85:11:96:39:f1:
         97:46:cf:dc:2c:3c:3f:e3:d9:41:4d:c5:70:ba:90:b4:aa:c3:
         62:0f:3d:5e:0a:20:7d:ba:e8:e7:6e:59:b0:8b:97:d5:15:fa:
         5b:49:dc:80:e4:bc:95:1d:06:5b:a3:ac:09:33:67:e5:1f:9e:
         ae:c1:c5:3f:f7:72:11:ce:3f:b4:08:52:8b:65:e6:75:69:d5:
         b5:7d:75:9e
-----BEGIN CERTIFICATE-----
MIIEnzCCA4egAwIBAgIGCgsMDQ48MA0GCSqGSIb3DQEBCwUAMIGGMRcwFQYDVQQD
FA5CQU5HQUxPUkVDQV9DQTELMAkGA1UEBhMCSU4xDzANBgNVBAoTBkNJVFJJWDEM
MAoGA1UECxMDQU5HMQswCQYDVQQIEwJLQTEyMDAGCSqGSIb3DQEJARYjQkFOR0FM
T1JFQ0FfQ0FAQkFOR0FMT1JFQ0FfbWFpbC5jb20wHhcNMTcwODIzMDkwNjQxWhcN
MjcwODIxMDkwNjQxWjBkMQswCQYDVQQIEwJLQTELMAkGA1UEBhMCSU4xFTATBgNV
BAMUDGJscl82X2NsaWVudDEgMB4GCSqGSIb3DQEJARYRYmxyXzZAdGVzdF9jYS5j
b20xDzANBgNVBAoTBkNJVFJJWDCCASIwDQYJKoZIhvcNAQEBBQADggEPADCCAQoC
ggEBALZKwG4ZcGovjl2n/FfWE5tEGALC3+4eTpOMiJyoEl8E14ucTjRkJ4PahyzA
qyKNUGvOdo8xhgdNenScOut4C0aPBOvdWDyiX57aFv7P/H3ZYd7c+lc+qfd+cL76
o82N7tULoKytdDZ1ctx9M/N4ycWB1IxdHYTwwa13wp87GiZvgMU7jR1zhuLvQHbh
p9BIKIdu2cA/wco11M9fjI53cJcuJ1AFudtPAe1yW0+yAr+ydn/WTniFXhsND0bO
+HfV3mTGSZ7VPw6u3svy1XgZhsv9EguLmOtDOYyGL7ZpoIcnTIZtRhy2UnKTZwPV
BZE2BQCUWaw7QpqQjU4tlmjXYDECAwEAAaOCATIwggEuMBEGCWCGSAGG+EIBAQQE
AwIHgDAdBgNVHQ4EFgQUdrp20P2VB+/sRpGyqXRf82IrUoAwgbsGA1UdIwSBszCB
sIAUO9bRUxiHBSK77sMP9c4Pa6KTp7ihgYykgYkwgYYxFzAVBgNVBAMUDkJBTkdB
TE9SRUNBX0NBMQswCQYDVQQGEwJJTjEPMA0GA1UEChMGQ0lUUklYMQwwCgYDVQQL
EwNBTkcxCzAJBgNVBAgTAktBMTIwMAYJKoZIhvcNAQkBFiNCQU5HQUxPUkVDQV9D
QUBCQU5HQUxPUkVDQV9tYWlsLmNvbYIJAKGstNpGU1hAMDwGCCsGAQUFBwEBBDAw
LjAsBggrBgEFBQcwAYYgaHR0cDovLzE3Mi4xNi4yMC4xL3Jlc3BvbmRlcnBhdGgw
DQYJKoZIhvcNAQELBQADggEBACU+PSMKE6s2tqF7xJXkzkTO6ePwO9o/6xAIdHWS
AmAiHdl4XgVLVKafWPcQB5/C4RrlP9fpz13VqSdWFaHEODqzhd4qe9GLBQWvsC5W
yw7r/L2m9R6kmsn6ytiLfWhHSbsk8F5HqXGTAU4MxjiGwuYf8a1xvDggULqdESHC
kh+FY/ieuL/AwpjvQ6u1zthtJLl1mp0AdJPGW7ql9qKTxYnAt2SY9oEg9a8nQpp/
gEqFEZY58ZdGz9wsPD/j2UFNxXC6kLSqw2IPPV4KIH266OduWbCLl9UV+ltJ3IDk
vJUdBlujrAkzZ+Ufnq7BxT/3chHOP7QIUotl5nVp1bV9dZ4=
-----END CERTIFICATE-----
