Certificate:
    Data:
        Version: 3 (0x2)
        Serial Number: 11042563100242 (0xa0b0c0d0e52)
    Signature Algorithm: sha256WithRSAEncryption
        Issuer: CN=BANGALORECA_CA, C=IN, O=CITRIX, OU=ANG, ST=KA/emailAddress=BANGALORECA_CA@BANGALORECA_mail.com
        Validity
            Not Before: Aug 23 09:06:57 2017 GMT
            Not After : Aug 21 09:06:57 2027 GMT
        Subject: ST=KA, C=IN, CN=blr_28_client/emailAddress=blr_28@test_ca.com, O=CITRIX
        Subject Public Key Info:
            Public Key Algorithm: rsaEncryption
                Public-Key: (2048 bit)
                Modulus:
                    00:db:b9:33:26:65:ff:49:ec:74:d2:1f:55:9b:d9:
                    82:49:7f:f4:5e:2a:53:c0:de:b4:f7:b3:6e:4b:41:
                    a8:19:69:a7:5b:01:63:0f:db:84:bd:c8:e4:bb:36:
                    ad:73:86:98:03:8e:22:69:aa:6d:df:31:38:d3:ae:
                    b5:42:d0:d5:6d:90:ce:e5:4e:2d:e1:c7:4c:38:20:
                    c7:13:d6:cf:9b:e3:d7:31:2f:58:79:48:79:21:35:
                    9f:56:b3:3d:d3:36:74:75:14:63:83:e3:fa:3d:b9:
                    7c:54:dc:5b:51:c0:16:53:18:01:8a:2c:23:94:86:
                    d7:cf:76:d1:b9:95:6e:a6:5d:7d:68:28:b0:e2:ec:
                    39:62:cf:42:0a:7d:05:5b:fa:ba:c2:06:89:06:91:
                    be:ce:4e:a5:4b:a6:15:9a:d2:b7:91:86:0c:48:4d:
                    e2:55:c4:01:71:ab:9a:bc:1a:92:47:c5:3c:34:2c:
                    7f:f0:96:4b:6e:81:03:63:81:b9:e4:cb:8b:72:51:
                    d1:85:b3:ec:5f:5a:0b:21:3f:79:ef:e8:6b:31:63:
                    38:3d:fe:bc:4f:b3:a0:37:f3:62:39:6e:92:20:7c:
                    89:b7:5c:a3:aa:46:4b:ca:bc:d2:fe:e3:3d:4b:07:
                    fc:c2:53:65:d7:35:e2:67:88:5d:5f:98:07:7f:d8:
                    21:bd
                Exponent: 65537 (0x10001)
        X509v3 extensions:
            Netscape Cert Type: 
                SSL Client
            X509v3 Subject Key Identifier: 
                01:64:89:32:DB:C8:D3:F2:E7:E8:5C:07:36:42:E6:4F:2F:FF:49:73
            X509v3 Authority Key Identifier: 
                keyid:3B:D6:D1:53:18:87:05:22:BB:EE:C3:0F:F5:CE:0F:6B:A2:93:A7:B8
                DirName:/CN=BANGALORECA_CA/C=IN/O=CITRIX/OU=ANG/ST=KA/emailAddress=BANGALORECA_CA@BANGALORECA_mail.com
                serial:A1:AC:B4:DA:46:53:58:40

            Authority Information Access: 
                OCSP - URI:http://172.16.20.1/responderpath

    Signature Algorithm: sha256WithRSAEncryption
         0b:7f:0c:0a:ea:e1:c9:61:47:9a:c8:b1:88:80:fa:90:30:d9:
         2f:55:d1:be:2f:7e:59:a0:e5:b0:2e:e2:db:1a:4c:80:87:41:
         81:38:3d:6a:97:02:b7:d6:21:6e:01:fd:6b:03:23:b4:10:31:
         97:fd:88:ae:61:8c:91:66:c1:f8:20:07:8f:ee:87:42:c0:8f:
         81:5f:72:9a:9d:24:f3:2b:72:7f:24:3b:67:d7:64:3e:0b:a3:
         d9:05:3c:b2:b4:9e:e5:9e:b8:a7:15:af:43:8e:f0:92:bb:12:
         0c:42:e3:74:2d:c3:ac:fb:46:3b:ce:5e:9a:92:fe:73:f1:4c:
         d0:90:b7:04:7e:d0:d8:66:7d:27:47:83:8d:0b:79:45:36:a8:
         cd:01:9c:e7:7f:6d:f6:c1:e1:70:30:a3:ae:2b:17:24:dd:3b:
         56:94:82:a2:91:68:69:20:90:0c:3c:75:ff:af:19:77:83:24:
         35:de:19:ff:50:da:f0:14:37:1c:a4:3f:d6:8b:39:00:d3:fa:
         ee:5c:f0:6e:f9:9a:e2:cc:e4:b6:59:7d:52:0a:ba:f9:19:f8:
         9b:5b:7e:d0:cb:31:2d:5f:31:d8:4d:b0:66:9d:fb:e5:09:48:
         01:7f:9e:d6:2e:7e:38:55:c4:95:73:9f:c4:92:31:16:45:2b:
         7c:b1:9e:b9
-----BEGIN CERTIFICATE-----
MIIEoTCCA4mgAwIBAgIGCgsMDQ5SMA0GCSqGSIb3DQEBCwUAMIGGMRcwFQYDVQQD
FA5CQU5HQUxPUkVDQV9DQTELMAkGA1UEBhMCSU4xDzANBgNVBAoTBkNJVFJJWDEM
MAoGA1UECxMDQU5HMQswCQYDVQQIEwJLQTEyMDAGCSqGSIb3DQEJARYjQkFOR0FM
T1JFQ0FfQ0FAQkFOR0FMT1JFQ0FfbWFpbC5jb20wHhcNMTcwODIzMDkwNjU3WhcN
MjcwODIxMDkwNjU3WjBmMQswCQYDVQQIEwJLQTELMAkGA1UEBhMCSU4xFjAUBgNV
BAMUDWJscl8yOF9jbGllbnQxITAfBgkqhkiG9w0BCQEWEmJscl8yOEB0ZXN0X2Nh
LmNvbTEPMA0GA1UEChMGQ0lUUklYMIIBIjANBgkqhkiG9w0BAQEFAAOCAQ8AMIIB
CgKCAQEA27kzJmX/Sex00h9Vm9mCSX/0XipTwN6097NuS0GoGWmnWwFjD9uEvcjk
uzatc4aYA44iaapt3zE40661QtDVbZDO5U4t4cdMOCDHE9bPm+PXMS9YeUh5ITWf
VrM90zZ0dRRjg+P6Pbl8VNxbUcAWUxgBiiwjlIbXz3bRuZVupl19aCiw4uw5Ys9C
Cn0FW/q6wgaJBpG+zk6lS6YVmtK3kYYMSE3iVcQBcauavBqSR8U8NCx/8JZLboED
Y4G55MuLclHRhbPsX1oLIT957+hrMWM4Pf68T7OgN/NiOW6SIHyJt1yjqkZLyrzS
/uM9Swf8wlNl1zXiZ4hdX5gHf9ghvQIDAQABo4IBMjCCAS4wEQYJYIZIAYb4QgEB
BAQDAgeAMB0GA1UdDgQWBBQBZIky28jT8ufoXAc2QuZPL/9JczCBuwYDVR0jBIGz
MIGwgBQ71tFTGIcFIrvuww/1zg9ropOnuKGBjKSBiTCBhjEXMBUGA1UEAxQOQkFO
R0FMT1JFQ0FfQ0ExCzAJBgNVBAYTAklOMQ8wDQYDVQQKEwZDSVRSSVgxDDAKBgNV
BAsTA0FORzELMAkGA1UECBMCS0ExMjAwBgkqhkiG9w0BCQEWI0JBTkdBTE9SRUNB
X0NBQEJBTkdBTE9SRUNBX21haWwuY29tggkAoay02kZTWEAwPAYIKwYBBQUHAQEE
MDAuMCwGCCsGAQUFBzABhiBodHRwOi8vMTcyLjE2LjIwLjEvcmVzcG9uZGVycGF0
aDANBgkqhkiG9w0BAQsFAAOCAQEAC38MCurhyWFHmsixiID6kDDZL1XRvi9+WaDl
sC7i2xpMgIdBgTg9apcCt9YhbgH9awMjtBAxl/2IrmGMkWbB+CAHj+6HQsCPgV9y
mp0k8ytyfyQ7Z9dkPguj2QU8srSe5Z64pxWvQ47wkrsSDELjdC3DrPtGO85empL+
c/FM0JC3BH7Q2GZ9J0eDjQt5RTaozQGc539t9sHhcDCjrisXJN07VpSCopFoaSCQ
DDx1/68Zd4MkNd4Z/1Da8BQ3HKQ/1os5ANP67lzwbvma4szktll9Ugq6+Rn4m1t+
0MsxLV8x2E2wZp375QlIAX+e1i5+OFXElXOfxJIxFkUrfLGeuQ==
-----END CERTIFICATE-----
