Certificate:
    Data:
        Version: 3 (0x2)
        Serial Number: 11042563100236 (0xa0b0c0d0e4c)
    Signature Algorithm: sha256WithRSAEncryption
        Issuer: CN=BANGALORECA_CA, C=IN, O=CITRIX, OU=ANG, ST=KA/emailAddress=BANGALORECA_CA@BANGALORECA_mail.com
        Validity
            Not Before: Aug 23 09:06:53 2017 GMT
            Not After : Aug 21 09:06:53 2027 GMT
        Subject: ST=KA, C=IN, CN=blr_22_client/emailAddress=blr_22@test_ca.com, O=CITRIX
        Subject Public Key Info:
            Public Key Algorithm: rsaEncryption
                Public-Key: (2048 bit)
                Modulus:
                    00:a3:6a:50:b2:cb:22:8c:71:95:40:df:30:98:0f:
                    5d:b1:7a:4f:34:f7:20:14:d0:f4:72:44:65:47:9a:
                    fd:dd:0e:d3:bc:af:d0:63:25:ce:ed:7f:20:ed:5d:
                    2f:53:10:03:6d:40:4d:b9:e2:2f:64:39:c8:e6:6c:
                    21:f7:05:82:e4:35:2b:58:a7:d5:e4:80:a4:52:30:
                    03:57:67:5d:c7:c8:e1:61:22:fa:08:e2:82:61:07:
                    eb:d8:0e:86:9e:08:31:d0:4a:94:95:5c:7a:0b:c1:
                    6d:c2:31:15:97:7d:9d:80:04:8b:a2:89:f0:50:bd:
                    1a:2f:fb:aa:f7:62:ba:5f:60:d2:22:ab:88:b9:49:
                    b8:4e:1c:3c:c4:62:aa:cd:27:84:21:d8:dd:4e:c0:
                    0b:3e:87:4e:e4:cc:5a:eb:92:9d:e7:6e:b7:5e:80:
                    77:52:14:55:62:9f:35:f8:cf:79:73:2d:c0:e6:9c:
                    13:e6:51:67:63:e2:d8:e7:f3:2d:c8:69:dd:34:8f:
                    86:49:56:7d:62:40:65:75:71:1c:3b:1b:0e:72:61:
                    15:d8:af:ef:58:48:80:3a:39:3b:61:d6:1c:aa:0c:
                    b9:db:6f:86:92:4e:a3:22:6b:f4:81:3e:aa:c8:86:
                    eb:72:16:da:31:ae:3a:84:44:9b:be:b1:49:34:ee:
                    bc:f7
                Exponent: 65537 (0x10001)
        X509v3 extensions:
            Netscape Cert Type: 
                SSL Client
            X509v3 Subject Key Identifier: 
                A9:78:14:80:BD:6D:CE:28:99:4E:24:61:D4:3E:09:E1:7D:CF:9F:EB
            X509v3 Authority Key Identifier: 
                keyid:3B:D6:D1:53:18:87:05:22:BB:EE:C3:0F:F5:CE:0F:6B:A2:93:A7:B8
                DirName:/CN=BANGALORECA_CA/C=IN/O=CITRIX/OU=ANG/ST=KA/emailAddress=BANGALORECA_CA@BANGALORECA_mail.com
                serial:A1:AC:B4:DA:46:53:58:40

            Authority Information Access: 
                OCSP - URI:http://172.16.20.1/responderpath

    Signature Algorithm: sha256WithRSAEncryption
         4a:04:84:70:2a:1e:3f:69:64:c7:c0:cf:c5:90:ab:a7:4a:0f:
         ea:f4:9c:7e:69:49:48:a6:b5:d3:57:d4:bd:24:b3:25:0a:df:
         18:4c:d5:38:d9:d1:79:76:66:7a:49:bd:4c:6f:bf:e6:f4:33:
         43:eb:69:d6:c3:9d:ed:17:84:6f:bb:4e:f5:2d:2e:bc:09:1d:
         96:71:34:d3:d8:9e:45:55:a2:dd:4e:ab:b8:37:cc:ec:c1:43:
         a7:da:b7:ab:26:88:83:b3:f0:12:99:38:5d:35:0d:61:57:ca:
         ae:28:66:ef:f1:82:21:a9:36:84:3d:cb:7d:0f:c7:b2:16:b8:
         b2:22:71:b7:82:34:8e:f2:d2:64:d3:27:c6:5e:4c:e6:c9:6e:
         7c:1f:4d:46:4f:23:ad:a7:00:3a:d4:53:dc:55:0f:b1:7c:62:
         63:c9:1e:22:02:a3:79:13:64:c8:34:6d:9f:89:8d:18:fb:5a:
         51:7b:03:da:33:94:8b:48:24:2c:cc:59:bf:ba:13:3b:2b:7f:
         4e:ed:51:42:44:a0:1d:fc:41:2f:0a:84:21:04:23:33:c2:1c:
         39:fb:8f:65:1d:4f:74:c9:65:77:72:4c:d4:82:de:ae:d7:90:
         06:df:27:6a:b5:c4:83:db:45:43:c2:bc:77:0c:b4:c1:12:51:
         0d:d1:c2:56
-----BEGIN CERTIFICATE-----
MIIEoTCCA4mgAwIBAgIGCgsMDQ5MMA0GCSqGSIb3DQEBCwUAMIGGMRcwFQYDVQQD
FA5CQU5HQUxPUkVDQV9DQTELMAkGA1UEBhMCSU4xDzANBgNVBAoTBkNJVFJJWDEM
MAoGA1UECxMDQU5HMQswCQYDVQQIEwJLQTEyMDAGCSqGSIb3DQEJARYjQkFOR0FM
T1JFQ0FfQ0FAQkFOR0FMT1JFQ0FfbWFpbC5jb20wHhcNMTcwODIzMDkwNjUzWhcN
MjcwODIxMDkwNjUzWjBmMQswCQYDVQQIEwJLQTELMAkGA1UEBhMCSU4xFjAUBgNV
BAMUDWJscl8yMl9jbGllbnQxITAfBgkqhkiG9w0BCQEWEmJscl8yMkB0ZXN0X2Nh
LmNvbTEPMA0GA1UEChMGQ0lUUklYMIIBIjANBgkqhkiG9w0BAQEFAAOCAQ8AMIIB
CgKCAQEAo2pQsssijHGVQN8wmA9dsXpPNPcgFND0ckRlR5r93Q7TvK/QYyXO7X8g
7V0vUxADbUBNueIvZDnI5mwh9wWC5DUrWKfV5ICkUjADV2ddx8jhYSL6COKCYQfr
2A6Gnggx0EqUlVx6C8FtwjEVl32dgASLoonwUL0aL/uq92K6X2DSIquIuUm4Thw8
xGKqzSeEIdjdTsALPodO5Mxa65Kd5263XoB3UhRVYp81+M95cy3A5pwT5lFnY+LY
5/MtyGndNI+GSVZ9YkBldXEcOxsOcmEV2K/vWEiAOjk7YdYcqgy522+Gkk6jImv0
gT6qyIbrchbaMa46hESbvrFJNO689wIDAQABo4IBMjCCAS4wEQYJYIZIAYb4QgEB
BAQDAgeAMB0GA1UdDgQWBBSpeBSAvW3OKJlOJGHUPgnhfc+f6zCBuwYDVR0jBIGz
MIGwgBQ71tFTGIcFIrvuww/1zg9ropOnuKGBjKSBiTCBhjEXMBUGA1UEAxQOQkFO
R0FMT1JFQ0FfQ0ExCzAJBgNVBAYTAklOMQ8wDQYDVQQKEwZDSVRSSVgxDDAKBgNV
BAsTA0FORzELMAkGA1UECBMCS0ExMjAwBgkqhkiG9w0BCQEWI0JBTkdBTE9SRUNB
X0NBQEJBTkdBTE9SRUNBX21haWwuY29tggkAoay02kZTWEAwPAYIKwYBBQUHAQEE
MDAuMCwGCCsGAQUFBzABhiBodHRwOi8vMTcyLjE2LjIwLjEvcmVzcG9uZGVycGF0
aDANBgkqhkiG9w0BAQsFAAOCAQEASgSEcCoeP2lkx8DPxZCrp0oP6vScfmlJSKa1
01fUvSSzJQrfGEzVONnReXZmekm9TG+/5vQzQ+tp1sOd7ReEb7tO9S0uvAkdlnE0
09ieRVWi3U6ruDfM7MFDp9q3qyaIg7PwEpk4XTUNYVfKrihm7/GCIak2hD3LfQ/H
sha4siJxt4I0jvLSZNMnxl5M5slufB9NRk8jracAOtRT3FUPsXxiY8keIgKjeRNk
yDRtn4mNGPtaUXsD2jOUi0gkLMxZv7oTOyt/Tu1RQkSgHfxBLwqEIQQjM8IcOfuP
ZR1PdMlld3JM1ILerteQBt8narXEg9tFQ8K8dwy0wRJRDdHCVg==
-----END CERTIFICATE-----
