Certificate:
    Data:
        Version: 3 (0x2)
        Serial Number: 11042563100257 (0xa0b0c0d0e61)
    Signature Algorithm: sha256WithRSAEncryption
        Issuer: CN=BANGALORECA_CA, C=IN, O=CITRIX, OU=ANG, ST=KA/emailAddress=BANGALORECA_CA@BANGALORECA_mail.com
        Validity
            Not Before: Aug 23 09:07:05 2017 GMT
            Not After : Aug 21 09:07:05 2027 GMT
        Subject: ST=KA, C=IN, CN=blr_43_client/emailAddress=blr_43@test_ca.com, O=CITRIX
        Subject Public Key Info:
            Public Key Algorithm: rsaEncryption
                Public-Key: (2048 bit)
                Modulus:
                    00:d4:fa:3b:64:01:4c:da:2d:ba:0a:0a:e4:e1:ab:
                    94:9c:3c:85:f8:3d:96:00:68:f4:a9:26:26:5f:9f:
                    ca:2c:89:1b:6b:0f:2a:8c:2a:90:73:e9:e0:9a:bc:
                    68:f2:3a:13:fb:a9:2b:f5:68:13:e6:50:05:c8:e4:
                    c3:3c:f4:8f:b3:6d:5a:69:fc:0b:f1:7a:de:a9:68:
                    20:7f:ed:e9:90:24:59:0f:95:e4:cb:34:f4:f4:24:
                    05:a4:97:be:ca:17:87:8c:9c:cd:5d:7e:34:b8:f2:
                    71:43:02:84:3e:be:57:2a:c0:d9:ec:38:fa:c3:3e:
                    ea:d4:63:78:04:8c:8c:4e:03:21:40:9b:d9:dc:29:
                    6f:40:ba:3d:ce:4c:cf:a0:96:ae:f4:09:b2:e4:f8:
                    01:63:a4:39:ff:27:aa:92:9b:09:4f:67:99:50:50:
                    f2:28:5a:6b:5a:b6:15:1c:59:9d:fa:57:2a:9b:08:
                    33:9f:d4:53:70:a3:df:32:41:da:32:b0:e0:38:f5:
                    7b:20:31:7c:8c:87:b4:b1:73:c2:98:85:4a:d0:0b:
                    b8:80:1e:57:fa:41:0f:03:83:76:da:cc:b4:d7:f8:
                    8c:6f:5e:44:4c:b5:27:8d:35:a2:28:55:55:f8:f7:
                    58:9e:e8:ad:fd:d4:8d:b8:d9:f8:5d:36:01:9a:d0:
                    a8:39
                Exponent: 65537 (0x10001)
        X509v3 extensions:
            Netscape Cert Type: 
                SSL Client
            X509v3 Subject Key Identifier: 
                C2:69:5F:5A:90:7B:7B:08:AD:8D:A6:2C:3D:FC:A3:4E:45:0C:9A:74
            X509v3 Authority Key Identifier: 
                keyid:3B:D6:D1:53:18:87:05:22:BB:EE:C3:0F:F5:CE:0F:6B:A2:93:A7:B8
                DirName:/CN=BANGALORECA_CA/C=IN/O=CITRIX/OU=ANG/ST=KA/emailAddress=BANGALORECA_CA@BANGALORECA_mail.com
                serial:A1:AC:B4:DA:46:53:58:40

            Authority Information Access: 
                OCSP - URI:http://172.16.20.1/responderpath

    Signature Algorithm: sha256WithRSAEncryption
         98:40:61:ae:35:f9:9a:0e:ab:f8:df:e3:02:d8:d8:4f:b0:d6:
         cb:1b:f3:bf:df:02:ab:9b:76:a2:f1:3a:da:f1:ea:01:3b:09:
         a6:12:53:c8:12:e3:fc:07:c3:db:f3:29:de:de:c6:77:4c:6e:
         07:d9:69:e7:2a:b0:34:1f:97:4b:04:50:c5:d9:a3:59:34:bf:
         1d:e5:0c:5a:3a:39:e4:54:50:23:2b:69:36:20:08:58:de:48:
         c9:99:32:5a:cc:ac:c0:16:29:49:40:7a:ae:b1:68:33:4a:b2:
         4f:bb:da:f8:3e:6c:ab:c6:8a:7f:fb:1c:a1:46:b7:e0:67:c1:
         95:a5:d4:e1:39:65:47:27:f2:7c:be:1c:e2:65:af:08:6e:bf:
         01:f0:de:43:75:fd:08:6b:27:8e:d4:54:17:5e:15:5d:bf:b7:
         a0:58:af:4c:7c:75:dd:e1:7e:e7:2c:df:cf:25:b2:72:64:ea:
         db:52:60:eb:5d:58:f3:53:33:e6:ab:4e:60:b7:f0:c4:d7:c2:
         b1:1b:73:30:c8:cf:d2:d1:60:b7:13:7a:2a:6c:94:ff:fb:0a:
         73:0d:1c:5a:b6:dd:8f:e7:1c:56:ae:95:41:13:84:44:3f:52:
         17:e7:fd:97:96:30:ac:62:7a:63:88:68:97:16:04:0e:4e:9e:
         cc:69:d7:d4
-----BEGIN CERTIFICATE-----
MIIEoTCCA4mgAwIBAgIGCgsMDQ5hMA0GCSqGSIb3DQEBCwUAMIGGMRcwFQYDVQQD
FA5CQU5HQUxPUkVDQV9DQTELMAkGA1UEBhMCSU4xDzANBgNVBAoTBkNJVFJJWDEM
MAoGA1UECxMDQU5HMQswCQYDVQQIEwJLQTEyMDAGCSqGSIb3DQEJARYjQkFOR0FM
T1JFQ0FfQ0FAQkFOR0FMT1JFQ0FfbWFpbC5jb20wHhcNMTcwODIzMDkwNzA1WhcN
MjcwODIxMDkwNzA1WjBmMQswCQYDVQQIEwJLQTELMAkGA1UEBhMCSU4xFjAUBgNV
BAMUDWJscl80M19jbGllbnQxITAfBgkqhkiG9w0BCQEWEmJscl80M0B0ZXN0X2Nh
LmNvbTEPMA0GA1UEChMGQ0lUUklYMIIBIjANBgkqhkiG9w0BAQEFAAOCAQ8AMIIB
CgKCAQEA1Po7ZAFM2i26Cgrk4auUnDyF+D2WAGj0qSYmX5/KLIkbaw8qjCqQc+ng
mrxo8joT+6kr9WgT5lAFyOTDPPSPs21aafwL8XreqWggf+3pkCRZD5XkyzT09CQF
pJe+yheHjJzNXX40uPJxQwKEPr5XKsDZ7Dj6wz7q1GN4BIyMTgMhQJvZ3ClvQLo9
zkzPoJau9Amy5PgBY6Q5/yeqkpsJT2eZUFDyKFprWrYVHFmd+lcqmwgzn9RTcKPf
MkHaMrDgOPV7IDF8jIe0sXPCmIVK0Au4gB5X+kEPA4N22sy01/iMb15ETLUnjTWi
KFVV+PdYnuit/dSNuNn4XTYBmtCoOQIDAQABo4IBMjCCAS4wEQYJYIZIAYb4QgEB
BAQDAgeAMB0GA1UdDgQWBBTCaV9akHt7CK2Npiw9/KNORQyadDCBuwYDVR0jBIGz
MIGwgBQ71tFTGIcFIrvuww/1zg9ropOnuKGBjKSBiTCBhjEXMBUGA1UEAxQOQkFO
R0FMT1JFQ0FfQ0ExCzAJBgNVBAYTAklOMQ8wDQYDVQQKEwZDSVRSSVgxDDAKBgNV
BAsTA0FORzELMAkGA1UECBMCS0ExMjAwBgkqhkiG9w0BCQEWI0JBTkdBTE9SRUNB
X0NBQEJBTkdBTE9SRUNBX21haWwuY29tggkAoay02kZTWEAwPAYIKwYBBQUHAQEE
MDAuMCwGCCsGAQUFBzABhiBodHRwOi8vMTcyLjE2LjIwLjEvcmVzcG9uZGVycGF0
aDANBgkqhkiG9w0BAQsFAAOCAQEAmEBhrjX5mg6r+N/jAtjYT7DWyxvzv98Cq5t2
ovE62vHqATsJphJTyBLj/AfD2/Mp3t7Gd0xuB9lp5yqwNB+XSwRQxdmjWTS/HeUM
Wjo55FRQIytpNiAIWN5IyZkyWsyswBYpSUB6rrFoM0qyT7va+D5sq8aKf/scoUa3
4GfBlaXU4TllRyfyfL4c4mWvCG6/AfDeQ3X9CGsnjtRUF14VXb+3oFivTHx13eF+
5yzfzyWycmTq21Jg611Y81Mz5qtOYLfwxNfCsRtzMMjP0tFgtxN6KmyU//sKcw0c
Wrbdj+ccVq6VQROERD9SF+f9l5YwrGJ6Y4holxYEDk6ezGnX1A==
-----END CERTIFICATE-----
