Certificate:
    Data:
        Version: 3 (0x2)
        Serial Number: 11042563100229 (0xa0b0c0d0e45)
    Signature Algorithm: sha256WithRSAEncryption
        Issuer: CN=BANGALORECA_CA, C=IN, O=CITRIX, OU=ANG, ST=KA/emailAddress=BANGALORECA_CA@BANGALORECA_mail.com
        Validity
            Not Before: Aug 23 09:06:48 2017 GMT
            Not After : Aug 21 09:06:48 2027 GMT
        Subject: ST=KA, C=IN, CN=blr_15_client/emailAddress=blr_15@test_ca.com, O=CITRIX
        Subject Public Key Info:
            Public Key Algorithm: rsaEncryption
                Public-Key: (2048 bit)
                Modulus:
                    00:c9:b4:bd:cc:df:16:52:54:6f:bf:a7:ed:29:ac:
                    f1:09:61:6e:2c:e1:b6:50:99:53:85:a7:4d:e3:94:
                    59:bd:b2:08:36:39:0f:8d:f0:1e:6f:46:76:4e:d4:
                    d0:53:bc:83:3b:48:df:d7:8e:68:52:5b:40:69:a9:
                    a9:17:16:1a:68:b2:f1:b9:d1:d1:c4:ed:f4:51:fb:
                    42:ef:45:da:53:10:1e:ca:69:52:b1:6d:de:dd:70:
                    71:3c:65:3b:c2:94:b9:32:40:37:c1:23:1a:72:ef:
                    45:e9:d3:6c:3f:04:45:9c:8d:87:97:b3:8f:bd:5a:
                    2a:5e:23:f9:4b:e0:e8:32:32:5d:91:dc:c8:02:7b:
                    f0:99:b0:e2:ba:22:98:b2:55:5c:c2:97:27:92:e1:
                    a1:f6:50:83:47:b3:b5:84:e7:f3:27:e7:55:cc:75:
                    00:32:6a:2c:f7:3a:04:75:1c:44:f0:02:e3:98:9b:
                    1f:a7:b1:ef:07:a8:fc:1e:d9:29:1e:7d:6f:c8:af:
                    3e:45:f3:6e:a4:a7:4a:8c:21:d6:9b:5f:39:54:1f:
                    9b:f6:0e:ab:02:32:65:5f:c0:c4:ce:7a:44:e0:55:
                    c1:c5:33:78:c9:7f:1c:d4:f1:78:64:36:ff:c2:27:
                    02:d0:10:2d:29:67:e2:55:e9:c0:54:d2:c2:07:87:
                    c6:95
                Exponent: 65537 (0x10001)
        X509v3 extensions:
            Netscape Cert Type: 
                SSL Client
            X509v3 Subject Key Identifier: 
                0D:95:3B:51:BB:26:09:D9:53:0C:DF:8D:2A:3D:AC:5D:16:31:51:47
            X509v3 Authority Key Identifier: 
                keyid:3B:D6:D1:53:18:87:05:22:BB:EE:C3:0F:F5:CE:0F:6B:A2:93:A7:B8
                DirName:/CN=BANGALORECA_CA/C=IN/O=CITRIX/OU=ANG/ST=KA/emailAddress=BANGALORECA_CA@BANGALORECA_mail.com
                serial:A1:AC:B4:DA:46:53:58:40

            Authority Information Access: 
                OCSP - URI:http://172.16.20.1/responderpath

    Signature Algorithm: sha256WithRSAEncryption
         8d:7c:e6:74:86:da:ab:25:c0:9a:39:48:01:05:f9:de:2a:4e:
         62:6b:04:3f:1e:55:64:6b:e2:56:a5:30:9a:f9:f1:d8:c2:6e:
         ed:7b:d9:3f:13:df:da:80:9a:e1:2c:18:ba:c0:9e:4a:5e:9d:
         93:95:8d:0b:2d:d3:de:f5:66:9a:39:7f:bc:fa:53:fe:34:17:
         64:b4:60:37:55:e8:3b:a8:df:04:28:c7:ac:1f:39:d0:3b:10:
         28:e7:9f:ac:9e:05:84:61:0e:7b:b6:26:a4:c0:11:28:e0:b7:
         75:10:88:ce:98:40:f3:e4:01:ae:5e:ab:fb:f0:ee:40:82:f6:
         50:10:80:4d:c7:df:4e:3a:62:99:f5:f8:78:7e:c6:11:25:cc:
         4a:f5:3f:f5:e7:64:64:77:9e:a1:d4:42:d2:d9:28:e6:4f:19:
         4d:24:16:51:1f:15:8a:13:07:88:0f:dd:e3:32:12:c2:de:a7:
         47:4e:03:5c:d5:91:30:f9:f0:3b:1c:d4:b0:5c:66:06:f3:cb:
         6c:93:36:80:89:0f:79:e4:72:60:c8:a4:f5:93:2b:3b:01:f2:
         94:fa:80:61:41:90:70:1c:6c:70:b6:58:74:42:c6:a6:43:44:
         45:cb:18:ab:ec:6d:a4:c8:e0:85:31:65:fd:87:cf:60:92:51:
         86:62:9c:91
-----BEGIN CERTIFICATE-----
MIIEoTCCA4mgAwIBAgIGCgsMDQ5FMA0GCSqGSIb3DQEBCwUAMIGGMRcwFQYDVQQD
FA5CQU5HQUxPUkVDQV9DQTELMAkGA1UEBhMCSU4xDzANBgNVBAoTBkNJVFJJWDEM
MAoGA1UECxMDQU5HMQswCQYDVQQIEwJLQTEyMDAGCSqGSIb3DQEJARYjQkFOR0FM
T1JFQ0FfQ0FAQkFOR0FMT1JFQ0FfbWFpbC5jb20wHhcNMTcwODIzMDkwNjQ4WhcN
MjcwODIxMDkwNjQ4WjBmMQswCQYDVQQIEwJLQTELMAkGA1UEBhMCSU4xFjAUBgNV
BAMUDWJscl8xNV9jbGllbnQxITAfBgkqhkiG9w0BCQEWEmJscl8xNUB0ZXN0X2Nh
LmNvbTEPMA0GA1UEChMGQ0lUUklYMIIBIjANBgkqhkiG9w0BAQEFAAOCAQ8AMIIB
CgKCAQEAybS9zN8WUlRvv6ftKazxCWFuLOG2UJlThadN45RZvbIINjkPjfAeb0Z2
TtTQU7yDO0jf145oUltAaampFxYaaLLxudHRxO30UftC70XaUxAeymlSsW3e3XBx
PGU7wpS5MkA3wSMacu9F6dNsPwRFnI2Hl7OPvVoqXiP5S+DoMjJdkdzIAnvwmbDi
uiKYslVcwpcnkuGh9lCDR7O1hOfzJ+dVzHUAMmos9zoEdRxE8ALjmJsfp7HvB6j8
HtkpHn1vyK8+RfNupKdKjCHWm185VB+b9g6rAjJlX8DEznpE4FXBxTN4yX8c1PF4
ZDb/wicC0BAtKWfiVenAVNLCB4fGlQIDAQABo4IBMjCCAS4wEQYJYIZIAYb4QgEB
BAQDAgeAMB0GA1UdDgQWBBQNlTtRuyYJ2VMM340qPaxdFjFRRzCBuwYDVR0jBIGz
MIGwgBQ71tFTGIcFIrvuww/1zg9ropOnuKGBjKSBiTCBhjEXMBUGA1UEAxQOQkFO
R0FMT1JFQ0FfQ0ExCzAJBgNVBAYTAklOMQ8wDQYDVQQKEwZDSVRSSVgxDDAKBgNV
BAsTA0FORzELMAkGA1UECBMCS0ExMjAwBgkqhkiG9w0BCQEWI0JBTkdBTE9SRUNB
X0NBQEJBTkdBTE9SRUNBX21haWwuY29tggkAoay02kZTWEAwPAYIKwYBBQUHAQEE
MDAuMCwGCCsGAQUFBzABhiBodHRwOi8vMTcyLjE2LjIwLjEvcmVzcG9uZGVycGF0
aDANBgkqhkiG9w0BAQsFAAOCAQEAjXzmdIbaqyXAmjlIAQX53ipOYmsEPx5VZGvi
VqUwmvnx2MJu7XvZPxPf2oCa4SwYusCeSl6dk5WNCy3T3vVmmjl/vPpT/jQXZLRg
N1XoO6jfBCjHrB850DsQKOefrJ4FhGEOe7YmpMARKOC3dRCIzphA8+QBrl6r+/Du
QIL2UBCATcffTjpimfX4eH7GESXMSvU/9edkZHeeodRC0tko5k8ZTSQWUR8VihMH
iA/d4zISwt6nR04DXNWRMPnwOxzUsFxmBvPLbJM2gIkPeeRyYMik9ZMrOwHylPqA
YUGQcBxscLZYdELGpkNERcsYq+xtpMjghTFl/YfPYJJRhmKckQ==
-----END CERTIFICATE-----
