Certificate:
    Data:
        Version: 3 (0x2)
        Serial Number: 11042563100235 (0xa0b0c0d0e4b)
    Signature Algorithm: sha256WithRSAEncryption
        Issuer: CN=BANGALORECA_CA, C=IN, O=CITRIX, OU=ANG, ST=KA/emailAddress=BANGALORECA_CA@BANGALORECA_mail.com
        Validity
            Not Before: Aug 23 09:06:52 2017 GMT
            Not After : Aug 21 09:06:52 2027 GMT
        Subject: ST=KA, C=IN, CN=blr_21_client/emailAddress=blr_21@test_ca.com, O=CITRIX
        Subject Public Key Info:
            Public Key Algorithm: rsaEncryption
                Public-Key: (2048 bit)
                Modulus:
                    00:bb:c3:e0:47:b3:0e:e7:bf:7c:1a:c0:3f:51:d2:
                    e6:77:6a:e9:fb:8d:9a:cd:4d:d7:f9:43:c5:8d:47:
                    53:b2:09:ea:3e:14:52:1a:5c:86:1f:64:f5:82:15:
                    c2:01:39:0f:a1:e5:29:d2:75:74:36:56:70:14:14:
                    f6:89:b3:58:13:3c:78:41:33:22:c1:c0:a3:34:49:
                    08:0d:2c:43:34:ba:de:63:17:f2:ee:d9:f7:e6:4e:
                    fe:bd:06:af:0a:24:94:6c:c3:b1:62:9a:33:d8:04:
                    10:8c:4c:b3:3b:c1:2e:17:a7:c2:34:16:eb:a5:9d:
                    46:54:c2:9f:f5:8d:07:c9:a8:0c:25:88:8e:f4:67:
                    a6:99:ea:5e:83:e2:70:6e:e7:31:d7:31:44:41:ed:
                    48:b1:d7:18:52:4f:25:78:d9:bc:00:26:bb:5d:a1:
                    9b:d4:ec:6f:25:bd:c4:f4:b6:ba:dd:a9:69:33:00:
                    49:65:22:9c:3e:c1:3b:ac:7c:9b:ff:91:e3:fa:e5:
                    90:7b:4d:b2:52:45:c2:98:16:91:d1:08:47:df:21:
                    4e:a3:ed:14:f9:48:8c:9d:f9:41:15:e1:e6:8c:52:
                    df:91:14:d9:6b:52:57:cf:64:9b:bc:e3:f5:cf:c6:
                    f7:2f:cd:cf:b1:17:8f:40:f5:65:0c:c3:5a:53:74:
                    e9:41
                Exponent: 65537 (0x10001)
        X509v3 extensions:
            Netscape Cert Type: 
                SSL Client
            X509v3 Subject Key Identifier: 
                70:B3:A6:FB:EF:47:DD:48:71:41:87:5C:AB:9B:0C:6A:70:D4:C2:87
            X509v3 Authority Key Identifier: 
                keyid:3B:D6:D1:53:18:87:05:22:BB:EE:C3:0F:F5:CE:0F:6B:A2:93:A7:B8
                DirName:/CN=BANGALORECA_CA/C=IN/O=CITRIX/OU=ANG/ST=KA/emailAddress=BANGALORECA_CA@BANGALORECA_mail.com
                serial:A1:AC:B4:DA:46:53:58:40

            Authority Information Access: 
                OCSP - URI:http://172.16.20.1/responderpath

    Signature Algorithm: sha256WithRSAEncryption
         62:54:91:85:d5:73:f5:0e:e0:16:74:4a:43:6f:38:9c:07:7a:
         02:64:c3:5c:63:e2:fb:b8:31:79:1f:5f:3c:dc:6c:0f:43:00:
         be:c3:3f:69:d5:fe:fa:36:64:e2:36:12:d5:72:71:43:96:c4:
         74:46:b1:c2:2f:0e:fe:3e:37:1d:a6:7b:5a:4e:36:7e:ce:e7:
         f8:43:71:4a:41:7a:11:dd:55:0a:a5:be:d2:84:26:e3:f5:9c:
         11:ed:7d:91:f1:81:0d:03:39:78:69:42:00:43:5a:b1:c6:45:
         dd:12:c4:6d:86:b1:f5:40:6a:49:d6:15:75:2d:1c:ad:5d:34:
         ae:55:09:9e:6e:97:93:bd:cf:bd:2c:28:7b:03:69:df:24:52:
         1e:da:8a:09:82:1b:99:ce:97:c6:e7:9b:a1:4c:e6:6e:07:55:
         73:96:3a:e0:6f:f8:30:52:31:19:4e:0f:08:c1:61:a6:44:de:
         78:cf:4c:01:59:6e:db:f4:ba:da:ad:e7:c9:87:66:ab:f8:ef:
         22:12:3a:bf:6a:86:e9:31:0a:32:51:ed:45:ee:72:d8:a7:96:
         ee:e1:6a:66:6a:a8:fd:13:94:b3:39:5b:1b:1b:39:78:81:04:
         08:8b:66:7c:dd:87:e9:d5:23:5c:45:f4:ce:ac:07:32:2b:9a:
         b8:13:e0:8c
-----BEGIN CERTIFICATE-----
MIIEoTCCA4mgAwIBAgIGCgsMDQ5LMA0GCSqGSIb3DQEBCwUAMIGGMRcwFQYDVQQD
FA5CQU5HQUxPUkVDQV9DQTELMAkGA1UEBhMCSU4xDzANBgNVBAoTBkNJVFJJWDEM
MAoGA1UECxMDQU5HMQswCQYDVQQIEwJLQTEyMDAGCSqGSIb3DQEJARYjQkFOR0FM
T1JFQ0FfQ0FAQkFOR0FMT1JFQ0FfbWFpbC5jb20wHhcNMTcwODIzMDkwNjUyWhcN
MjcwODIxMDkwNjUyWjBmMQswCQYDVQQIEwJLQTELMAkGA1UEBhMCSU4xFjAUBgNV
BAMUDWJscl8yMV9jbGllbnQxITAfBgkqhkiG9w0BCQEWEmJscl8yMUB0ZXN0X2Nh
LmNvbTEPMA0GA1UEChMGQ0lUUklYMIIBIjANBgkqhkiG9w0BAQEFAAOCAQ8AMIIB
CgKCAQEAu8PgR7MO5798GsA/UdLmd2rp+42azU3X+UPFjUdTsgnqPhRSGlyGH2T1
ghXCATkPoeUp0nV0NlZwFBT2ibNYEzx4QTMiwcCjNEkIDSxDNLreYxfy7tn35k7+
vQavCiSUbMOxYpoz2AQQjEyzO8EuF6fCNBbrpZ1GVMKf9Y0HyagMJYiO9Gemmepe
g+Jwbucx1zFEQe1IsdcYUk8leNm8ACa7XaGb1OxvJb3E9La63alpMwBJZSKcPsE7
rHyb/5Hj+uWQe02yUkXCmBaR0QhH3yFOo+0U+UiMnflBFeHmjFLfkRTZa1JXz2Sb
vOP1z8b3L83PsRePQPVlDMNaU3TpQQIDAQABo4IBMjCCAS4wEQYJYIZIAYb4QgEB
BAQDAgeAMB0GA1UdDgQWBBRws6b770fdSHFBh1yrmwxqcNTChzCBuwYDVR0jBIGz
MIGwgBQ71tFTGIcFIrvuww/1zg9ropOnuKGBjKSBiTCBhjEXMBUGA1UEAxQOQkFO
R0FMT1JFQ0FfQ0ExCzAJBgNVBAYTAklOMQ8wDQYDVQQKEwZDSVRSSVgxDDAKBgNV
BAsTA0FORzELMAkGA1UECBMCS0ExMjAwBgkqhkiG9w0BCQEWI0JBTkdBTE9SRUNB
X0NBQEJBTkdBTE9SRUNBX21haWwuY29tggkAoay02kZTWEAwPAYIKwYBBQUHAQEE
MDAuMCwGCCsGAQUFBzABhiBodHRwOi8vMTcyLjE2LjIwLjEvcmVzcG9uZGVycGF0
aDANBgkqhkiG9w0BAQsFAAOCAQEAYlSRhdVz9Q7gFnRKQ284nAd6AmTDXGPi+7gx
eR9fPNxsD0MAvsM/adX++jZk4jYS1XJxQ5bEdEaxwi8O/j43HaZ7Wk42fs7n+ENx
SkF6Ed1VCqW+0oQm4/WcEe19kfGBDQM5eGlCAENascZF3RLEbYax9UBqSdYVdS0c
rV00rlUJnm6Xk73PvSwoewNp3yRSHtqKCYIbmc6XxueboUzmbgdVc5Y64G/4MFIx
GU4PCMFhpkTeeM9MAVlu2/S62q3nyYdmq/jvIhI6v2qG6TEKMlHtRe5y2KeW7uFq
Zmqo/ROUszlbGxs5eIEECItmfN2H6dUjXEX0zqwHMiuauBPgjA==
-----END CERTIFICATE-----
