Certificate:
    Data:
        Version: 3 (0x2)
        Serial Number: 11042563100248 (0xa0b0c0d0e58)
    Signature Algorithm: sha256WithRSAEncryption
        Issuer: CN=BANGALORECA_CA, C=IN, O=CITRIX, OU=ANG, ST=KA/emailAddress=BANGALORECA_CA@BANGALORECA_mail.com
        Validity
            Not Before: Aug 23 09:06:59 2017 GMT
            Not After : Aug 21 09:06:59 2027 GMT
        Subject: ST=KA, C=IN, CN=blr_34_client/emailAddress=blr_34@test_ca.com, O=CITRIX
        Subject Public Key Info:
            Public Key Algorithm: rsaEncryption
                Public-Key: (2048 bit)
                Modulus:
                    00:bd:23:82:44:62:db:8c:f6:0d:21:97:f1:4a:fb:
                    97:f9:7b:c2:16:27:83:98:4e:c9:47:1b:cd:1c:5a:
                    7f:b6:bb:c9:df:1e:d9:98:be:dd:54:c1:12:42:eb:
                    b1:b8:f1:3b:34:09:f1:64:e6:42:42:a1:6f:1a:08:
                    a2:49:c1:dc:12:91:24:37:6f:b5:e1:b9:b5:50:ff:
                    07:d9:41:d2:a6:c6:af:9d:76:84:7e:25:5e:76:da:
                    27:5e:2c:c0:0a:7d:6b:44:3c:2d:d3:87:5c:45:d4:
                    f2:2b:61:18:65:32:e9:98:88:e2:9a:58:2d:87:e0:
                    71:96:81:ef:e1:82:7e:2f:96:5f:cd:10:e1:03:d0:
                    a4:c7:fd:6a:eb:39:16:3f:51:00:0d:4f:ed:ff:c7:
                    51:fb:af:b4:1b:be:69:84:70:6d:f2:8f:2d:c2:0a:
                    74:63:5f:52:65:cc:c2:af:70:ed:1e:2a:1b:c3:48:
                    c1:91:1d:f2:53:63:0c:30:18:8c:a6:0f:50:6b:d6:
                    1d:96:65:83:6f:6e:cd:c9:eb:34:16:be:3b:40:9a:
                    91:41:78:e6:f6:45:51:d8:5a:24:fa:52:5a:15:7b:
                    af:67:ef:e1:69:0f:85:bc:eb:60:f2:f6:ec:e8:41:
                    ab:f9:3b:f0:c8:78:96:d9:e4:23:4e:2e:dd:b0:fd:
                    42:a1
                Exponent: 65537 (0x10001)
        X509v3 extensions:
            Netscape Cert Type: 
                SSL Client
            X509v3 Subject Key Identifier: 
                B4:9B:C2:C6:C3:47:57:3D:CF:D2:EB:73:3F:AA:80:37:AE:7F:C0:29
            X509v3 Authority Key Identifier: 
                keyid:3B:D6:D1:53:18:87:05:22:BB:EE:C3:0F:F5:CE:0F:6B:A2:93:A7:B8
                DirName:/CN=BANGALORECA_CA/C=IN/O=CITRIX/OU=ANG/ST=KA/emailAddress=BANGALORECA_CA@BANGALORECA_mail.com
                serial:A1:AC:B4:DA:46:53:58:40

            Authority Information Access: 
                OCSP - URI:http://172.16.20.1/responderpath

    Signature Algorithm: sha256WithRSAEncryption
         6b:71:39:f7:f2:7a:c7:9d:2d:05:40:6f:15:50:5d:2e:79:1d:
         52:9f:f0:0f:d6:fd:1d:47:fa:f6:02:91:79:e9:eb:3b:7a:7b:
         88:ab:fd:59:1a:12:2a:ff:94:d9:df:bd:0b:c6:56:35:bf:b6:
         32:a3:64:06:73:32:28:7d:af:57:24:99:52:97:04:58:0d:92:
         f2:28:4a:2b:ae:c4:bc:41:fe:78:e9:25:72:39:75:76:7b:2a:
         01:51:81:52:99:ce:06:bc:94:aa:bf:5a:a6:35:e9:f6:49:27:
         98:e6:35:89:bf:97:e6:da:73:a5:b2:4a:ca:37:93:89:04:65:
         c6:07:6f:40:27:ce:39:20:8a:08:a4:24:d1:40:b3:47:8f:ac:
         fb:a0:40:65:ce:79:ea:68:b1:ff:5b:fe:91:70:44:ea:f8:f9:
         20:79:03:ce:11:03:d3:ee:77:d8:59:9f:f2:7d:3e:1c:4b:b0:
         41:5f:1b:14:78:08:e0:23:66:4c:3c:13:a3:79:a7:56:b5:a3:
         f4:60:07:c1:ef:88:92:2c:c4:ef:20:40:e9:19:55:af:88:b4:
         39:83:75:5c:63:52:8c:95:58:f6:54:59:c2:17:a9:cd:fc:fd:
         03:40:f4:94:dc:68:50:f2:08:ff:5a:af:9b:e9:b6:d6:57:c2:
         25:d6:e6:39
-----BEGIN CERTIFICATE-----
MIIEoTCCA4mgAwIBAgIGCgsMDQ5YMA0GCSqGSIb3DQEBCwUAMIGGMRcwFQYDVQQD
FA5CQU5HQUxPUkVDQV9DQTELMAkGA1UEBhMCSU4xDzANBgNVBAoTBkNJVFJJWDEM
MAoGA1UECxMDQU5HMQswCQYDVQQIEwJLQTEyMDAGCSqGSIb3DQEJARYjQkFOR0FM
T1JFQ0FfQ0FAQkFOR0FMT1JFQ0FfbWFpbC5jb20wHhcNMTcwODIzMDkwNjU5WhcN
MjcwODIxMDkwNjU5WjBmMQswCQYDVQQIEwJLQTELMAkGA1UEBhMCSU4xFjAUBgNV
BAMUDWJscl8zNF9jbGllbnQxITAfBgkqhkiG9w0BCQEWEmJscl8zNEB0ZXN0X2Nh
LmNvbTEPMA0GA1UEChMGQ0lUUklYMIIBIjANBgkqhkiG9w0BAQEFAAOCAQ8AMIIB
CgKCAQEAvSOCRGLbjPYNIZfxSvuX+XvCFieDmE7JRxvNHFp/trvJ3x7ZmL7dVMES
QuuxuPE7NAnxZOZCQqFvGgiiScHcEpEkN2+14bm1UP8H2UHSpsavnXaEfiVedton
XizACn1rRDwt04dcRdTyK2EYZTLpmIjimlgth+BxloHv4YJ+L5ZfzRDhA9Ckx/1q
6zkWP1EADU/t/8dR+6+0G75phHBt8o8twgp0Y19SZczCr3DtHiobw0jBkR3yU2MM
MBiMpg9Qa9YdlmWDb27Nyes0Fr47QJqRQXjm9kVR2Fok+lJaFXuvZ+/haQ+FvOtg
8vbs6EGr+TvwyHiW2eQjTi7dsP1CoQIDAQABo4IBMjCCAS4wEQYJYIZIAYb4QgEB
BAQDAgeAMB0GA1UdDgQWBBS0m8LGw0dXPc/S63M/qoA3rn/AKTCBuwYDVR0jBIGz
MIGwgBQ71tFTGIcFIrvuww/1zg9ropOnuKGBjKSBiTCBhjEXMBUGA1UEAxQOQkFO
R0FMT1JFQ0FfQ0ExCzAJBgNVBAYTAklOMQ8wDQYDVQQKEwZDSVRSSVgxDDAKBgNV
BAsTA0FORzELMAkGA1UECBMCS0ExMjAwBgkqhkiG9w0BCQEWI0JBTkdBTE9SRUNB
X0NBQEJBTkdBTE9SRUNBX21haWwuY29tggkAoay02kZTWEAwPAYIKwYBBQUHAQEE
MDAuMCwGCCsGAQUFBzABhiBodHRwOi8vMTcyLjE2LjIwLjEvcmVzcG9uZGVycGF0
aDANBgkqhkiG9w0BAQsFAAOCAQEAa3E59/J6x50tBUBvFVBdLnkdUp/wD9b9HUf6
9gKReenrO3p7iKv9WRoSKv+U2d+9C8ZWNb+2MqNkBnMyKH2vVySZUpcEWA2S8ihK
K67EvEH+eOklcjl1dnsqAVGBUpnOBryUqr9apjXp9kknmOY1ib+X5tpzpbJKyjeT
iQRlxgdvQCfOOSCKCKQk0UCzR4+s+6BAZc556mix/1v+kXBE6vj5IHkDzhED0+53
2Fmf8n0+HEuwQV8bFHgI4CNmTDwTo3mnVrWj9GAHwe+IkizE7yBA6RlVr4i0OYN1
XGNSjJVY9lRZwhepzfz9A0D0lNxoUPII/1qvm+m21lfCJdbmOQ==
-----END CERTIFICATE-----
