Certificate:
    Data:
        Version: 3 (0x2)
        Serial Number: 11042563100251 (0xa0b0c0d0e5b)
    Signature Algorithm: sha256WithRSAEncryption
        Issuer: CN=BANGALORECA_CA, C=IN, O=CITRIX, OU=ANG, ST=KA/emailAddress=BANGALORECA_CA@BANGALORECA_mail.com
        Validity
            Not Before: Aug 23 09:07:02 2017 GMT
            Not After : Aug 21 09:07:02 2027 GMT
        Subject: ST=KA, C=IN, CN=blr_37_client/emailAddress=blr_37@test_ca.com, O=CITRIX
        Subject Public Key Info:
            Public Key Algorithm: rsaEncryption
                Public-Key: (2048 bit)
                Modulus:
                    00:dd:e7:37:01:1a:c4:cb:70:73:f6:56:0c:5d:08:
                    78:14:9e:2c:a7:fa:fb:97:f7:49:53:51:31:66:ee:
                    39:cf:b7:9e:2e:44:90:42:3c:65:8c:fb:ed:c6:4a:
                    a9:c1:ac:59:92:25:16:a9:38:18:f7:63:21:28:7f:
                    f6:86:77:9c:8a:33:e1:c4:f1:c1:9a:8a:6a:24:ad:
                    89:53:0c:d0:ff:78:12:83:be:b4:33:62:61:1a:8d:
                    c8:23:77:ff:7b:6d:c7:69:23:63:8a:78:01:f4:11:
                    99:b1:ad:fe:24:07:1f:40:5f:ab:2f:9a:7e:27:0e:
                    a4:98:3d:4f:c1:fe:b6:ea:d3:31:52:ae:28:6f:89:
                    c8:fe:52:fa:06:e6:d3:b0:06:04:84:61:bf:d2:9d:
                    17:a5:f4:9a:a4:e1:76:06:31:20:d5:7e:c9:df:fe:
                    d9:84:a4:35:b8:af:96:73:ca:33:c8:d7:00:46:5e:
                    25:08:d8:fc:57:2b:98:10:93:56:01:cb:83:ee:5a:
                    1f:c2:11:56:2f:6c:79:3c:da:98:00:55:54:05:41:
                    2f:0f:53:55:29:6a:c6:ab:49:bb:8c:9d:4b:be:8a:
                    f2:54:cf:35:74:f0:bf:d1:be:83:30:39:6c:4c:f2:
                    38:dc:4a:14:12:a1:e3:29:60:42:f2:e6:24:55:f6:
                    40:dd
                Exponent: 65537 (0x10001)
        X509v3 extensions:
            Netscape Cert Type: 
                SSL Client
            X509v3 Subject Key Identifier: 
                E9:C7:D2:A8:5D:F8:B4:BD:4A:B8:C3:E9:4B:DA:72:7B:2E:4E:6D:67
            X509v3 Authority Key Identifier: 
                keyid:3B:D6:D1:53:18:87:05:22:BB:EE:C3:0F:F5:CE:0F:6B:A2:93:A7:B8
                DirName:/CN=BANGALORECA_CA/C=IN/O=CITRIX/OU=ANG/ST=KA/emailAddress=BANGALORECA_CA@BANGALORECA_mail.com
                serial:A1:AC:B4:DA:46:53:58:40

            Authority Information Access: 
                OCSP - URI:http://172.16.20.1/responderpath

    Signature Algorithm: sha256WithRSAEncryption
         76:22:37:f2:56:c5:9c:ac:a3:0e:2d:a7:ca:ea:4a:04:3f:0f:
         f1:88:ca:3e:45:b1:67:1b:23:ad:8f:94:13:df:ff:72:2f:88:
         97:4f:8e:ea:5a:96:aa:69:e3:6c:43:76:c9:57:b6:c3:aa:78:
         4e:c9:06:d6:4c:62:35:0a:4f:a9:22:e9:b4:4a:33:e5:88:c9:
         2b:8c:b5:a8:69:d1:6f:c5:d4:42:ab:96:f2:9b:fe:10:75:8f:
         58:68:03:1d:18:61:9b:7b:a0:d5:d1:bf:25:2b:2b:07:1d:11:
         4c:42:db:dd:b8:52:2a:44:ad:9d:07:aa:c9:8c:9a:ae:4a:1a:
         f9:da:a3:db:2e:ea:f4:7a:fc:b3:f2:16:af:0a:d5:26:6f:4f:
         0b:8d:6b:98:68:b7:bf:d9:2f:4f:ac:81:2c:51:c9:0b:dc:74:
         71:91:cd:b4:68:89:c7:df:27:a3:a4:cb:48:d3:63:3c:32:6b:
         21:6b:ef:6d:f6:d8:39:2c:61:d7:c8:0e:b4:54:b5:b2:ac:6c:
         36:a2:8a:b7:d5:57:fa:46:06:c3:36:3d:25:ff:e3:98:b7:39:
         04:fb:4c:e8:10:01:60:2e:39:6a:7a:ef:0e:fe:7c:af:fc:00:
         2f:cf:5c:6f:aa:2e:34:e1:a7:a1:32:2a:8e:3e:44:fd:25:c6:
         d6:ff:50:41
-----BEGIN CERTIFICATE-----
MIIEoTCCA4mgAwIBAgIGCgsMDQ5bMA0GCSqGSIb3DQEBCwUAMIGGMRcwFQYDVQQD
FA5CQU5HQUxPUkVDQV9DQTELMAkGA1UEBhMCSU4xDzANBgNVBAoTBkNJVFJJWDEM
MAoGA1UECxMDQU5HMQswCQYDVQQIEwJLQTEyMDAGCSqGSIb3DQEJARYjQkFOR0FM
T1JFQ0FfQ0FAQkFOR0FMT1JFQ0FfbWFpbC5jb20wHhcNMTcwODIzMDkwNzAyWhcN
MjcwODIxMDkwNzAyWjBmMQswCQYDVQQIEwJLQTELMAkGA1UEBhMCSU4xFjAUBgNV
BAMUDWJscl8zN19jbGllbnQxITAfBgkqhkiG9w0BCQEWEmJscl8zN0B0ZXN0X2Nh
LmNvbTEPMA0GA1UEChMGQ0lUUklYMIIBIjANBgkqhkiG9w0BAQEFAAOCAQ8AMIIB
CgKCAQEA3ec3ARrEy3Bz9lYMXQh4FJ4sp/r7l/dJU1ExZu45z7eeLkSQQjxljPvt
xkqpwaxZkiUWqTgY92MhKH/2hnecijPhxPHBmopqJK2JUwzQ/3gSg760M2JhGo3I
I3f/e23HaSNjingB9BGZsa3+JAcfQF+rL5p+Jw6kmD1Pwf626tMxUq4ob4nI/lL6
BubTsAYEhGG/0p0XpfSapOF2BjEg1X7J3/7ZhKQ1uK+Wc8ozyNcARl4lCNj8VyuY
EJNWAcuD7lofwhFWL2x5PNqYAFVUBUEvD1NVKWrGq0m7jJ1LvoryVM81dPC/0b6D
MDlsTPI43EoUEqHjKWBC8uYkVfZA3QIDAQABo4IBMjCCAS4wEQYJYIZIAYb4QgEB
BAQDAgeAMB0GA1UdDgQWBBTpx9KoXfi0vUq4w+lL2nJ7Lk5tZzCBuwYDVR0jBIGz
MIGwgBQ71tFTGIcFIrvuww/1zg9ropOnuKGBjKSBiTCBhjEXMBUGA1UEAxQOQkFO
R0FMT1JFQ0FfQ0ExCzAJBgNVBAYTAklOMQ8wDQYDVQQKEwZDSVRSSVgxDDAKBgNV
BAsTA0FORzELMAkGA1UECBMCS0ExMjAwBgkqhkiG9w0BCQEWI0JBTkdBTE9SRUNB
X0NBQEJBTkdBTE9SRUNBX21haWwuY29tggkAoay02kZTWEAwPAYIKwYBBQUHAQEE
MDAuMCwGCCsGAQUFBzABhiBodHRwOi8vMTcyLjE2LjIwLjEvcmVzcG9uZGVycGF0
aDANBgkqhkiG9w0BAQsFAAOCAQEAdiI38lbFnKyjDi2nyupKBD8P8YjKPkWxZxsj
rY+UE9//ci+Il0+O6lqWqmnjbEN2yVe2w6p4TskG1kxiNQpPqSLptEoz5YjJK4y1
qGnRb8XUQquW8pv+EHWPWGgDHRhhm3ug1dG/JSsrBx0RTELb3bhSKkStnQeqyYya
rkoa+dqj2y7q9Hr8s/IWrwrVJm9PC41rmGi3v9kvT6yBLFHJC9x0cZHNtGiJx98n
o6TLSNNjPDJrIWvvbfbYOSxh18gOtFS1sqxsNqKKt9VX+kYGwzY9Jf/jmLc5BPtM
6BABYC45anrvDv58r/wAL89cb6ouNOGnoTIqjj5E/SXG1v9QQQ==
-----END CERTIFICATE-----
