Certificate:
    Data:
        Version: 3 (0x2)
        Serial Number: 11042563100239 (0xa0b0c0d0e4f)
    Signature Algorithm: sha256WithRSAEncryption
        Issuer: CN=BANGALORECA_CA, C=IN, O=CITRIX, OU=ANG, ST=KA/emailAddress=BANGALORECA_CA@BANGALORECA_mail.com
        Validity
            Not Before: Aug 23 09:06:55 2017 GMT
            Not After : Aug 21 09:06:55 2027 GMT
        Subject: ST=KA, C=IN, CN=blr_25_client/emailAddress=blr_25@test_ca.com, O=CITRIX
        Subject Public Key Info:
            Public Key Algorithm: rsaEncryption
                Public-Key: (2048 bit)
                Modulus:
                    00:ca:65:6c:9d:e2:82:e9:3e:7f:47:d2:3e:40:60:
                    e5:87:4d:31:4d:ad:af:54:f9:b5:5e:7f:a6:40:57:
                    30:14:ca:ce:60:f3:9c:c9:bd:10:de:10:e5:23:d1:
                    d8:0b:d1:d4:fa:69:35:d3:97:10:6a:65:3e:6d:7a:
                    ad:34:bd:b4:8b:5e:38:e2:07:14:7b:dd:19:a8:1f:
                    f8:8d:32:9c:17:a0:24:e4:14:30:80:05:19:54:45:
                    60:fc:6c:12:33:8e:69:3e:d9:c3:30:6c:64:66:8c:
                    0b:96:e9:f4:30:e6:49:33:a9:c3:0d:20:db:3d:9a:
                    d0:79:d0:83:cf:74:cb:97:9f:f2:41:a0:f5:8e:a9:
                    38:80:c1:f3:91:30:56:ab:97:a2:3e:fa:64:82:6a:
                    88:1e:55:41:73:b8:da:3a:c3:d2:88:08:10:56:d0:
                    cc:c0:9d:3e:1d:b4:1e:3d:0e:fd:ac:ae:e6:44:96:
                    c5:e6:51:a7:34:ea:47:ab:bf:47:40:0b:d9:66:e8:
                    10:44:7e:53:8c:5b:78:1e:63:d7:b1:04:89:84:a3:
                    d1:6f:f4:1d:b3:76:9c:57:e0:4a:be:8f:61:05:0b:
                    d1:11:69:1a:f0:e7:a5:ac:e4:e5:22:76:25:e6:76:
                    fc:55:eb:66:d6:f0:13:92:08:96:43:a3:37:46:57:
                    7e:83
                Exponent: 65537 (0x10001)
        X509v3 extensions:
            Netscape Cert Type: 
                SSL Client
            X509v3 Subject Key Identifier: 
                37:8E:AB:73:D3:FD:7E:8A:46:9E:2B:FA:5D:A2:E9:C4:E4:D6:28:3C
            X509v3 Authority Key Identifier: 
                keyid:3B:D6:D1:53:18:87:05:22:BB:EE:C3:0F:F5:CE:0F:6B:A2:93:A7:B8
                DirName:/CN=BANGALORECA_CA/C=IN/O=CITRIX/OU=ANG/ST=KA/emailAddress=BANGALORECA_CA@BANGALORECA_mail.com
                serial:A1:AC:B4:DA:46:53:58:40

            Authority Information Access: 
                OCSP - URI:http://172.16.20.1/responderpath

    Signature Algorithm: sha256WithRSAEncryption
         0f:af:f1:9f:48:79:42:ab:94:e1:76:fd:18:66:38:d7:19:01:
         ce:d6:58:a2:70:10:3c:f0:12:21:23:25:05:72:56:17:c0:83:
         74:66:ba:8a:7d:0d:a8:fc:b6:34:bd:ed:4f:e0:ec:1e:e8:c8:
         59:77:26:29:5c:3e:88:cc:43:83:f5:37:dd:a9:ed:42:e6:ea:
         80:f5:99:17:50:5e:86:af:c5:b4:2a:fd:44:ad:f8:22:ec:9f:
         5a:77:3e:06:c1:5c:f8:8d:dc:01:43:eb:e1:47:c4:be:ef:cd:
         c7:e5:2d:a3:03:ae:59:9a:d2:45:73:e9:c8:99:45:cb:f0:4e:
         6e:6a:b2:a7:a9:ae:ea:75:6f:bb:d6:1d:57:21:49:5a:11:9a:
         91:50:f2:e7:b6:01:30:e5:4d:00:77:72:7b:4b:24:c3:85:50:
         01:fb:a1:33:ce:58:9d:67:21:33:52:91:82:83:95:49:04:3e:
         4b:4b:50:d4:93:6a:90:f3:1d:94:74:6d:71:b7:0b:38:6d:df:
         af:9f:9f:c6:f0:17:fa:e0:d0:51:cc:31:b8:2c:2a:5b:54:bd:
         5c:6d:54:3c:44:c4:a6:c1:cd:da:92:6d:c5:33:8d:58:f7:7b:
         2b:56:aa:54:e1:ec:3d:96:62:06:2e:41:f7:6c:df:cf:33:ff:
         af:15:05:75
-----BEGIN CERTIFICATE-----
MIIEoTCCA4mgAwIBAgIGCgsMDQ5PMA0GCSqGSIb3DQEBCwUAMIGGMRcwFQYDVQQD
FA5CQU5HQUxPUkVDQV9DQTELMAkGA1UEBhMCSU4xDzANBgNVBAoTBkNJVFJJWDEM
MAoGA1UECxMDQU5HMQswCQYDVQQIEwJLQTEyMDAGCSqGSIb3DQEJARYjQkFOR0FM
T1JFQ0FfQ0FAQkFOR0FMT1JFQ0FfbWFpbC5jb20wHhcNMTcwODIzMDkwNjU1WhcN
MjcwODIxMDkwNjU1WjBmMQswCQYDVQQIEwJLQTELMAkGA1UEBhMCSU4xFjAUBgNV
BAMUDWJscl8yNV9jbGllbnQxITAfBgkqhkiG9w0BCQEWEmJscl8yNUB0ZXN0X2Nh
LmNvbTEPMA0GA1UEChMGQ0lUUklYMIIBIjANBgkqhkiG9w0BAQEFAAOCAQ8AMIIB
CgKCAQEAymVsneKC6T5/R9I+QGDlh00xTa2vVPm1Xn+mQFcwFMrOYPOcyb0Q3hDl
I9HYC9HU+mk105cQamU+bXqtNL20i1444gcUe90ZqB/4jTKcF6Ak5BQwgAUZVEVg
/GwSM45pPtnDMGxkZowLlun0MOZJM6nDDSDbPZrQedCDz3TLl5/yQaD1jqk4gMHz
kTBWq5eiPvpkgmqIHlVBc7jaOsPSiAgQVtDMwJ0+HbQePQ79rK7mRJbF5lGnNOpH
q79HQAvZZugQRH5TjFt4HmPXsQSJhKPRb/Qds3acV+BKvo9hBQvREWka8OelrOTl
InYl5nb8Vetm1vATkgiWQ6M3Rld+gwIDAQABo4IBMjCCAS4wEQYJYIZIAYb4QgEB
BAQDAgeAMB0GA1UdDgQWBBQ3jqtz0/1+ikaeK/pdounE5NYoPDCBuwYDVR0jBIGz
MIGwgBQ71tFTGIcFIrvuww/1zg9ropOnuKGBjKSBiTCBhjEXMBUGA1UEAxQOQkFO
R0FMT1JFQ0FfQ0ExCzAJBgNVBAYTAklOMQ8wDQYDVQQKEwZDSVRSSVgxDDAKBgNV
BAsTA0FORzELMAkGA1UECBMCS0ExMjAwBgkqhkiG9w0BCQEWI0JBTkdBTE9SRUNB
X0NBQEJBTkdBTE9SRUNBX21haWwuY29tggkAoay02kZTWEAwPAYIKwYBBQUHAQEE
MDAuMCwGCCsGAQUFBzABhiBodHRwOi8vMTcyLjE2LjIwLjEvcmVzcG9uZGVycGF0
aDANBgkqhkiG9w0BAQsFAAOCAQEAD6/xn0h5QquU4Xb9GGY41xkBztZYonAQPPAS
ISMlBXJWF8CDdGa6in0NqPy2NL3tT+DsHujIWXcmKVw+iMxDg/U33antQubqgPWZ
F1Behq/FtCr9RK34IuyfWnc+BsFc+I3cAUPr4UfEvu/Nx+UtowOuWZrSRXPpyJlF
y/BObmqyp6mu6nVvu9YdVyFJWhGakVDy57YBMOVNAHdye0skw4VQAfuhM85YnWch
M1KRgoOVSQQ+S0tQ1JNqkPMdlHRtcbcLOG3fr5+fxvAX+uDQUcwxuCwqW1S9XG1U
PETEpsHN2pJtxTONWPd7K1aqVOHsPZZiBi5B92zfzzP/rxUFdQ==
-----END CERTIFICATE-----
