Certificate:
    Data:
        Version: 3 (0x2)
        Serial Number: 11042563100256 (0xa0b0c0d0e60)
    Signature Algorithm: sha256WithRSAEncryption
        Issuer: CN=BANGALORECA_CA, C=IN, O=CITRIX, OU=ANG, ST=KA/emailAddress=BANGALORECA_CA@BANGALORECA_mail.com
        Validity
            Not Before: Aug 23 09:07:05 2017 GMT
            Not After : Aug 21 09:07:05 2027 GMT
        Subject: ST=KA, C=IN, CN=blr_42_client/emailAddress=blr_42@test_ca.com, O=CITRIX
        Subject Public Key Info:
            Public Key Algorithm: rsaEncryption
                Public-Key: (2048 bit)
                Modulus:
                    00:d2:0e:96:ab:e0:29:f8:a8:ff:07:28:43:07:f2:
                    fd:a1:ea:14:83:f5:1c:85:c3:cd:4b:8e:1f:b2:3d:
                    6d:26:ce:d0:6f:14:05:f6:58:7d:ee:59:7c:91:4a:
                    ec:0b:da:87:16:7b:fd:c2:dc:d7:e0:bd:e8:f3:62:
                    d5:ab:3c:19:66:80:60:5e:0f:b3:e3:61:72:41:c6:
                    0e:48:96:cc:37:06:f3:19:0d:00:44:74:3e:58:05:
                    c1:d6:28:36:c6:12:26:9a:8e:8c:d8:c8:d3:4e:49:
                    cb:cc:e5:93:2c:53:9a:9c:f6:d5:66:87:13:54:e0:
                    6c:16:ea:ff:43:0a:c1:5f:30:a4:45:fc:ad:1d:7a:
                    40:70:e0:e2:c1:59:cb:df:0a:02:16:85:1e:dd:00:
                    3d:30:00:17:2f:82:26:7e:91:9a:f4:a6:e8:9a:d6:
                    70:ac:14:2b:a5:2a:21:bd:66:76:80:7c:dd:4d:e2:
                    5e:13:f6:a5:d3:23:a5:34:72:d1:b6:1b:0d:0d:f6:
                    30:b6:4e:13:d5:47:10:4d:65:70:40:17:15:7c:36:
                    d2:c1:e6:44:e3:a9:01:2f:9c:8f:ce:ad:4d:6d:21:
                    2a:e2:73:ce:2d:d9:21:af:f9:d4:62:b3:c6:e5:00:
                    c8:f1:6d:8b:0b:55:f5:59:c4:cf:06:56:a9:d4:c9:
                    cc:f9
                Exponent: 65537 (0x10001)
        X509v3 extensions:
            Netscape Cert Type: 
                SSL Client
            X509v3 Subject Key Identifier: 
                17:1A:1B:42:E1:64:C8:DB:C0:9F:61:C3:1E:B3:00:DD:76:0D:8D:E9
            X509v3 Authority Key Identifier: 
                keyid:3B:D6:D1:53:18:87:05:22:BB:EE:C3:0F:F5:CE:0F:6B:A2:93:A7:B8
                DirName:/CN=BANGALORECA_CA/C=IN/O=CITRIX/OU=ANG/ST=KA/emailAddress=BANGALORECA_CA@BANGALORECA_mail.com
                serial:A1:AC:B4:DA:46:53:58:40

            Authority Information Access: 
                OCSP - URI:http://172.16.20.1/responderpath

    Signature Algorithm: sha256WithRSAEncryption
         3c:f4:d4:7c:a5:0a:cb:12:53:05:ae:17:ec:b0:db:f0:ba:fe:
         3b:5e:fe:94:eb:f7:dd:29:3d:73:1d:e4:8b:38:9d:32:d8:b3:
         d8:a6:1f:61:74:8c:eb:db:52:8f:db:8f:b4:0b:18:29:5b:4b:
         7d:ed:77:0d:03:30:7a:65:8c:19:b7:94:16:e8:91:0a:8d:c6:
         bd:69:85:2b:e5:aa:13:a1:bc:7d:6f:0e:56:4f:bf:d6:cb:e7:
         1d:78:bc:84:d2:dd:87:65:79:45:b5:74:e3:6b:13:54:ee:34:
         ad:cd:7c:0f:84:2c:17:62:73:96:7b:14:b0:6c:96:f0:ac:69:
         fb:47:25:47:98:05:c1:18:95:e1:cf:64:87:c2:82:4e:26:b4:
         a8:7d:50:89:c9:65:75:9f:64:33:92:98:5e:c9:c9:2c:ef:f4:
         60:8e:df:84:05:1b:dc:97:c3:f4:77:d5:a8:26:17:33:f6:91:
         7e:a3:4a:93:b2:0e:37:c6:21:25:4a:c0:d5:f7:fd:ab:da:bb:
         1b:16:77:9a:a8:89:3e:d4:ed:7b:32:f3:06:b8:fa:36:94:69:
         ca:e5:66:a5:a2:06:98:c2:21:60:a3:ad:57:79:7c:ee:c9:4a:
         a3:e7:14:48:6c:af:bb:b5:e1:40:1f:26:1d:7f:a1:09:4f:e4:
         ae:66:d2:f1
-----BEGIN CERTIFICATE-----
MIIEoTCCA4mgAwIBAgIGCgsMDQ5gMA0GCSqGSIb3DQEBCwUAMIGGMRcwFQYDVQQD
FA5CQU5HQUxPUkVDQV9DQTELMAkGA1UEBhMCSU4xDzANBgNVBAoTBkNJVFJJWDEM
MAoGA1UECxMDQU5HMQswCQYDVQQIEwJLQTEyMDAGCSqGSIb3DQEJARYjQkFOR0FM
T1JFQ0FfQ0FAQkFOR0FMT1JFQ0FfbWFpbC5jb20wHhcNMTcwODIzMDkwNzA1WhcN
MjcwODIxMDkwNzA1WjBmMQswCQYDVQQIEwJLQTELMAkGA1UEBhMCSU4xFjAUBgNV
BAMUDWJscl80Ml9jbGllbnQxITAfBgkqhkiG9w0BCQEWEmJscl80MkB0ZXN0X2Nh
LmNvbTEPMA0GA1UEChMGQ0lUUklYMIIBIjANBgkqhkiG9w0BAQEFAAOCAQ8AMIIB
CgKCAQEA0g6Wq+Ap+Kj/ByhDB/L9oeoUg/UchcPNS44fsj1tJs7QbxQF9lh97ll8
kUrsC9qHFnv9wtzX4L3o82LVqzwZZoBgXg+z42FyQcYOSJbMNwbzGQ0ARHQ+WAXB
1ig2xhImmo6M2MjTTknLzOWTLFOanPbVZocTVOBsFur/QwrBXzCkRfytHXpAcODi
wVnL3woCFoUe3QA9MAAXL4ImfpGa9KbomtZwrBQrpSohvWZ2gHzdTeJeE/al0yOl
NHLRthsNDfYwtk4T1UcQTWVwQBcVfDbSweZE46kBL5yPzq1NbSEq4nPOLdkhr/nU
YrPG5QDI8W2LC1X1WcTPBlap1MnM+QIDAQABo4IBMjCCAS4wEQYJYIZIAYb4QgEB
BAQDAgeAMB0GA1UdDgQWBBQXGhtC4WTI28CfYcMeswDddg2N6TCBuwYDVR0jBIGz
MIGwgBQ71tFTGIcFIrvuww/1zg9ropOnuKGBjKSBiTCBhjEXMBUGA1UEAxQOQkFO
R0FMT1JFQ0FfQ0ExCzAJBgNVBAYTAklOMQ8wDQYDVQQKEwZDSVRSSVgxDDAKBgNV
BAsTA0FORzELMAkGA1UECBMCS0ExMjAwBgkqhkiG9w0BCQEWI0JBTkdBTE9SRUNB
X0NBQEJBTkdBTE9SRUNBX21haWwuY29tggkAoay02kZTWEAwPAYIKwYBBQUHAQEE
MDAuMCwGCCsGAQUFBzABhiBodHRwOi8vMTcyLjE2LjIwLjEvcmVzcG9uZGVycGF0
aDANBgkqhkiG9w0BAQsFAAOCAQEAPPTUfKUKyxJTBa4X7LDb8Lr+O17+lOv33Sk9
cx3kizidMtiz2KYfYXSM69tSj9uPtAsYKVtLfe13DQMwemWMGbeUFuiRCo3GvWmF
K+WqE6G8fW8OVk+/1svnHXi8hNLdh2V5RbV042sTVO40rc18D4QsF2JzlnsUsGyW
8Kxp+0clR5gFwRiV4c9kh8KCTia0qH1QiclldZ9kM5KYXsnJLO/0YI7fhAUb3JfD
9HfVqCYXM/aRfqNKk7ION8YhJUrA1ff9q9q7GxZ3mqiJPtTtezLzBrj6NpRpyuVm
paIGmMIhYKOtV3l87slKo+cUSGyvu7XhQB8mHX+hCU/krmbS8Q==
-----END CERTIFICATE-----
