Certificate:
    Data:
        Version: 3 (0x2)
        Serial Number: 11042563100261 (0xa0b0c0d0e65)
    Signature Algorithm: sha256WithRSAEncryption
        Issuer: CN=BANGALORECA_CA, C=IN, O=CITRIX, OU=ANG, ST=KA/emailAddress=BANGALORECA_CA@BANGALORECA_mail.com
        Validity
            Not Before: Aug 23 09:07:09 2017 GMT
            Not After : Aug 21 09:07:09 2027 GMT
        Subject: ST=KA, C=IN, CN=blr_47_client/emailAddress=blr_47@test_ca.com, O=CITRIX
        Subject Public Key Info:
            Public Key Algorithm: rsaEncryption
                Public-Key: (2048 bit)
                Modulus:
                    00:f4:d1:60:02:59:2f:6f:3f:03:37:47:dd:9f:6d:
                    d8:ca:9d:63:25:22:d6:51:e3:0f:17:17:48:d1:7b:
                    6d:63:0c:9a:27:46:16:cd:8b:ae:76:a5:f2:f6:09:
                    68:fe:a2:4b:61:5e:4a:de:91:2e:a6:f6:a9:fe:5e:
                    1d:ce:57:56:d9:79:7a:a9:2d:41:99:3e:a8:94:a6:
                    8a:9b:54:0c:1d:55:0a:90:62:e2:07:0e:27:e0:96:
                    a5:6d:27:98:5d:53:80:c0:e5:a4:dc:9a:7d:23:0b:
                    ca:b5:83:4d:ad:87:53:4a:57:49:69:8d:40:e7:e6:
                    be:e8:fe:c9:18:79:09:74:a4:88:56:ac:b6:bf:6e:
                    d8:af:3d:b9:4c:8d:f2:fb:0c:2b:63:f1:c3:86:e6:
                    cf:c4:fd:0b:e0:fe:25:27:49:10:6f:4f:8c:c8:4d:
                    37:a3:59:c2:ac:37:31:1c:52:68:52:41:58:92:3d:
                    0c:42:93:c5:81:81:ae:a7:8f:dd:da:88:e8:90:fc:
                    0a:6a:8a:ae:9b:e6:01:d6:25:7e:f0:e2:49:dd:d9:
                    13:11:e8:89:3d:1a:e3:5b:16:b4:ef:92:e3:63:f1:
                    8e:93:aa:25:fe:46:e0:1d:0c:b5:9f:d1:61:5c:2a:
                    fb:40:b1:11:14:6c:90:3e:91:87:36:00:1e:69:c0:
                    fc:8d
                Exponent: 65537 (0x10001)
        X509v3 extensions:
            Netscape Cert Type: 
                SSL Client
            X509v3 Subject Key Identifier: 
                D4:4B:31:93:53:7D:58:C2:16:BE:60:54:F4:E8:AC:24:7B:07:72:93
            X509v3 Authority Key Identifier: 
                keyid:3B:D6:D1:53:18:87:05:22:BB:EE:C3:0F:F5:CE:0F:6B:A2:93:A7:B8
                DirName:/CN=BANGALORECA_CA/C=IN/O=CITRIX/OU=ANG/ST=KA/emailAddress=BANGALORECA_CA@BANGALORECA_mail.com
                serial:A1:AC:B4:DA:46:53:58:40

            Authority Information Access: 
                OCSP - URI:http://172.16.20.1/responderpath

    Signature Algorithm: sha256WithRSAEncryption
         2b:19:e5:c6:50:0e:d0:14:23:b6:79:f8:7e:5d:68:49:37:d1:
         aa:25:b7:1f:3b:d7:67:c8:fc:8d:1a:b2:b4:55:25:c3:ff:cc:
         69:44:e3:9b:10:3e:01:8b:e4:c0:e0:51:d2:de:7e:93:17:d2:
         45:2a:28:3d:58:be:c0:50:36:13:9e:04:f3:d7:2a:49:3a:d1:
         6e:67:41:83:e7:f4:37:7b:8a:0a:bf:e2:b4:37:e7:38:c0:bb:
         99:53:cb:d1:61:48:99:f3:57:67:5e:11:03:52:42:d8:ab:54:
         77:b4:5b:1d:13:5c:e3:2e:c1:49:95:8a:dc:2e:6b:ee:c7:ce:
         9c:86:29:30:65:de:f8:00:7c:c1:a8:3b:90:e9:0f:71:35:53:
         b6:1f:86:22:f8:8b:17:59:17:8d:15:94:c9:0d:24:2f:1a:b1:
         e5:6d:80:a0:9f:25:f6:17:c7:53:ea:aa:2a:a2:d2:c0:40:98:
         7a:0a:71:3b:90:95:84:50:27:af:56:02:93:0f:fe:2e:af:e5:
         02:32:6c:ea:4e:ee:e5:38:61:cd:c9:9f:8e:fb:90:8b:a5:ec:
         b3:23:b9:b2:9d:59:68:0f:06:65:38:35:60:6b:79:2c:26:3b:
         74:4b:82:d2:d6:d0:03:f9:38:de:a6:af:59:21:4f:64:fe:a4:
         64:de:92:90
-----BEGIN CERTIFICATE-----
MIIEoTCCA4mgAwIBAgIGCgsMDQ5lMA0GCSqGSIb3DQEBCwUAMIGGMRcwFQYDVQQD
FA5CQU5HQUxPUkVDQV9DQTELMAkGA1UEBhMCSU4xDzANBgNVBAoTBkNJVFJJWDEM
MAoGA1UECxMDQU5HMQswCQYDVQQIEwJLQTEyMDAGCSqGSIb3DQEJARYjQkFOR0FM
T1JFQ0FfQ0FAQkFOR0FMT1JFQ0FfbWFpbC5jb20wHhcNMTcwODIzMDkwNzA5WhcN
MjcwODIxMDkwNzA5WjBmMQswCQYDVQQIEwJLQTELMAkGA1UEBhMCSU4xFjAUBgNV
BAMUDWJscl80N19jbGllbnQxITAfBgkqhkiG9w0BCQEWEmJscl80N0B0ZXN0X2Nh
LmNvbTEPMA0GA1UEChMGQ0lUUklYMIIBIjANBgkqhkiG9w0BAQEFAAOCAQ8AMIIB
CgKCAQEA9NFgAlkvbz8DN0fdn23Yyp1jJSLWUeMPFxdI0XttYwyaJ0YWzYuudqXy
9glo/qJLYV5K3pEupvap/l4dzldW2Xl6qS1BmT6olKaKm1QMHVUKkGLiBw4n4Jal
bSeYXVOAwOWk3Jp9IwvKtYNNrYdTSldJaY1A5+a+6P7JGHkJdKSIVqy2v27Yrz25
TI3y+wwrY/HDhubPxP0L4P4lJ0kQb0+MyE03o1nCrDcxHFJoUkFYkj0MQpPFgYGu
p4/d2ojokPwKaoqum+YB1iV+8OJJ3dkTEeiJPRrjWxa075LjY/GOk6ol/kbgHQy1
n9FhXCr7QLERFGyQPpGHNgAeacD8jQIDAQABo4IBMjCCAS4wEQYJYIZIAYb4QgEB
BAQDAgeAMB0GA1UdDgQWBBTUSzGTU31Ywha+YFT06KwkewdykzCBuwYDVR0jBIGz
MIGwgBQ71tFTGIcFIrvuww/1zg9ropOnuKGBjKSBiTCBhjEXMBUGA1UEAxQOQkFO
R0FMT1JFQ0FfQ0ExCzAJBgNVBAYTAklOMQ8wDQYDVQQKEwZDSVRSSVgxDDAKBgNV
BAsTA0FORzELMAkGA1UECBMCS0ExMjAwBgkqhkiG9w0BCQEWI0JBTkdBTE9SRUNB
X0NBQEJBTkdBTE9SRUNBX21haWwuY29tggkAoay02kZTWEAwPAYIKwYBBQUHAQEE
MDAuMCwGCCsGAQUFBzABhiBodHRwOi8vMTcyLjE2LjIwLjEvcmVzcG9uZGVycGF0
aDANBgkqhkiG9w0BAQsFAAOCAQEAKxnlxlAO0BQjtnn4fl1oSTfRqiW3HzvXZ8j8
jRqytFUlw//MaUTjmxA+AYvkwOBR0t5+kxfSRSooPVi+wFA2E54E89cqSTrRbmdB
g+f0N3uKCr/itDfnOMC7mVPL0WFImfNXZ14RA1JC2KtUd7RbHRNc4y7BSZWK3C5r
7sfOnIYpMGXe+AB8wag7kOkPcTVTth+GIviLF1kXjRWUyQ0kLxqx5W2AoJ8l9hfH
U+qqKqLSwECYegpxO5CVhFAnr1YCkw/+Lq/lAjJs6k7u5ThhzcmfjvuQi6XssyO5
sp1ZaA8GZTg1YGt5LCY7dEuC0tbQA/k43qavWSFPZP6kZN6SkA==
-----END CERTIFICATE-----
