Certificate:
    Data:
        Version: 3 (0x2)
        Serial Number: 11042563100262 (0xa0b0c0d0e66)
    Signature Algorithm: sha256WithRSAEncryption
        Issuer: CN=BANGALORECA_CA, C=IN, O=CITRIX, OU=ANG, ST=KA/emailAddress=BANGALORECA_CA@BANGALORECA_mail.com
        Validity
            Not Before: Aug 23 09:07:09 2017 GMT
            Not After : Aug 21 09:07:09 2027 GMT
        Subject: ST=KA, C=IN, CN=blr_48_client/emailAddress=blr_48@test_ca.com, O=CITRIX
        Subject Public Key Info:
            Public Key Algorithm: rsaEncryption
                Public-Key: (2048 bit)
                Modulus:
                    00:b4:d3:65:3d:ba:1d:95:11:e9:a7:d8:27:9e:94:
                    f1:bd:72:2b:47:96:af:b5:b5:ea:12:e8:40:52:b3:
                    30:6e:0e:ef:50:2b:5a:1c:4c:f7:a6:94:ce:f2:7b:
                    28:d3:e6:d2:60:1e:29:95:03:64:c2:f7:84:f6:f6:
                    8c:f1:a5:b3:50:0a:69:8c:76:76:04:bd:33:32:0a:
                    cd:b6:26:af:a3:3b:17:65:71:84:5b:93:14:77:13:
                    a8:59:10:da:64:ba:82:55:79:f5:c5:12:fd:73:59:
                    0e:c6:fb:16:1e:5a:17:88:c2:e1:a6:e5:df:35:9d:
                    25:99:ee:4b:49:f0:b3:66:d4:75:93:bf:31:27:ff:
                    9e:f7:f0:55:83:14:77:da:4c:10:6f:2f:78:d5:2d:
                    a8:52:89:e3:07:2b:b5:75:5a:cc:4a:06:3c:db:e6:
                    ca:44:cf:51:7b:a6:56:16:a7:a3:68:21:86:6e:1d:
                    bb:ed:4e:59:22:dd:b8:7a:54:fb:9c:28:7f:7a:cf:
                    62:0d:a0:ab:62:40:a7:2c:43:d5:04:f6:ab:00:8b:
                    e8:28:34:b6:c9:41:5d:8b:95:31:96:68:6f:c2:d5:
                    9f:ea:61:ce:92:70:1f:93:28:ea:a2:4e:c8:43:7b:
                    e9:20:e8:28:09:f0:9b:64:86:2d:38:9f:3c:85:47:
                    49:8f
                Exponent: 65537 (0x10001)
        X509v3 extensions:
            Netscape Cert Type: 
                SSL Client
            X509v3 Subject Key Identifier: 
                DB:4B:84:2B:FD:A2:AC:7E:53:D7:44:76:A6:93:1B:A6:BE:A5:B8:BA
            X509v3 Authority Key Identifier: 
                keyid:3B:D6:D1:53:18:87:05:22:BB:EE:C3:0F:F5:CE:0F:6B:A2:93:A7:B8
                DirName:/CN=BANGALORECA_CA/C=IN/O=CITRIX/OU=ANG/ST=KA/emailAddress=BANGALORECA_CA@BANGALORECA_mail.com
                serial:A1:AC:B4:DA:46:53:58:40

            Authority Information Access: 
                OCSP - URI:http://172.16.20.1/responderpath

    Signature Algorithm: sha256WithRSAEncryption
         96:ef:f5:bc:9b:a9:a0:b6:82:a3:2e:16:fa:35:01:b3:17:30:
         c4:f7:b5:ad:b1:8e:69:99:0e:31:ce:7f:91:98:19:24:57:3d:
         ef:ed:50:69:42:f3:04:21:f8:0a:04:c8:22:90:37:93:f0:ab:
         6c:ea:26:35:dd:eb:78:ab:ab:10:0c:65:e4:fc:91:bc:0e:ce:
         8a:3c:19:25:48:94:6c:ec:2c:1e:01:1b:a8:b6:73:13:19:ca:
         80:3a:1c:9f:41:06:bb:1b:46:56:5c:d0:07:ac:1c:bd:64:56:
         de:86:b4:b9:59:a8:54:12:c4:29:55:aa:29:c9:75:b2:83:1a:
         6e:5a:2b:93:3d:af:dd:34:8d:44:d5:35:d4:8b:83:18:8f:65:
         f1:c8:97:ce:06:32:b4:a1:18:4f:0e:16:b7:f2:c5:2e:9b:53:
         7f:9d:cb:4a:43:25:fa:d7:fa:10:a6:1b:c1:ea:44:4b:49:77:
         ae:69:ae:f8:1b:5a:bb:17:b8:b6:b7:f4:db:ec:b7:06:6c:3e:
         8e:9b:1d:f0:45:47:15:4c:59:4b:99:0f:d4:78:f9:ed:0c:fb:
         bf:25:dc:f8:b3:53:a4:aa:92:77:45:2f:82:e5:f3:d7:b1:61:
         84:a4:54:07:55:fb:4e:63:68:aa:ea:84:6d:41:63:4f:08:54:
         a3:8b:d8:21
-----BEGIN CERTIFICATE-----
MIIEoTCCA4mgAwIBAgIGCgsMDQ5mMA0GCSqGSIb3DQEBCwUAMIGGMRcwFQYDVQQD
FA5CQU5HQUxPUkVDQV9DQTELMAkGA1UEBhMCSU4xDzANBgNVBAoTBkNJVFJJWDEM
MAoGA1UECxMDQU5HMQswCQYDVQQIEwJLQTEyMDAGCSqGSIb3DQEJARYjQkFOR0FM
T1JFQ0FfQ0FAQkFOR0FMT1JFQ0FfbWFpbC5jb20wHhcNMTcwODIzMDkwNzA5WhcN
MjcwODIxMDkwNzA5WjBmMQswCQYDVQQIEwJLQTELMAkGA1UEBhMCSU4xFjAUBgNV
BAMUDWJscl80OF9jbGllbnQxITAfBgkqhkiG9w0BCQEWEmJscl80OEB0ZXN0X2Nh
LmNvbTEPMA0GA1UEChMGQ0lUUklYMIIBIjANBgkqhkiG9w0BAQEFAAOCAQ8AMIIB
CgKCAQEAtNNlPbodlRHpp9gnnpTxvXIrR5avtbXqEuhAUrMwbg7vUCtaHEz3ppTO
8nso0+bSYB4plQNkwveE9vaM8aWzUAppjHZ2BL0zMgrNtiavozsXZXGEW5MUdxOo
WRDaZLqCVXn1xRL9c1kOxvsWHloXiMLhpuXfNZ0lme5LSfCzZtR1k78xJ/+e9/BV
gxR32kwQby941S2oUonjByu1dVrMSgY82+bKRM9Re6ZWFqejaCGGbh277U5ZIt24
elT7nCh/es9iDaCrYkCnLEPVBParAIvoKDS2yUFdi5UxlmhvwtWf6mHOknAfkyjq
ok7IQ3vpIOgoCfCbZIYtOJ88hUdJjwIDAQABo4IBMjCCAS4wEQYJYIZIAYb4QgEB
BAQDAgeAMB0GA1UdDgQWBBTbS4Qr/aKsflPXRHamkxumvqW4ujCBuwYDVR0jBIGz
MIGwgBQ71tFTGIcFIrvuww/1zg9ropOnuKGBjKSBiTCBhjEXMBUGA1UEAxQOQkFO
R0FMT1JFQ0FfQ0ExCzAJBgNVBAYTAklOMQ8wDQYDVQQKEwZDSVRSSVgxDDAKBgNV
BAsTA0FORzELMAkGA1UECBMCS0ExMjAwBgkqhkiG9w0BCQEWI0JBTkdBTE9SRUNB
X0NBQEJBTkdBTE9SRUNBX21haWwuY29tggkAoay02kZTWEAwPAYIKwYBBQUHAQEE
MDAuMCwGCCsGAQUFBzABhiBodHRwOi8vMTcyLjE2LjIwLjEvcmVzcG9uZGVycGF0
aDANBgkqhkiG9w0BAQsFAAOCAQEAlu/1vJupoLaCoy4W+jUBsxcwxPe1rbGOaZkO
Mc5/kZgZJFc97+1QaULzBCH4CgTIIpA3k/CrbOomNd3reKurEAxl5PyRvA7OijwZ
JUiUbOwsHgEbqLZzExnKgDocn0EGuxtGVlzQB6wcvWRW3oa0uVmoVBLEKVWqKcl1
soMablorkz2v3TSNRNU11IuDGI9l8ciXzgYytKEYTw4Wt/LFLptTf53LSkMl+tf6
EKYbwepES0l3rmmu+Btauxe4trf02+y3Bmw+jpsd8EVHFUxZS5kP1Hj57Qz7vyXc
+LNTpKqSd0UvguXz17FhhKRUB1X7TmNoquqEbUFjTwhUo4vYIQ==
-----END CERTIFICATE-----
