Certificate:
    Data:
        Version: 3 (0x2)
        Serial Number: 11042563100225 (0xa0b0c0d0e41)
    Signature Algorithm: sha256WithRSAEncryption
        Issuer: CN=BANGALORECA_CA, C=IN, O=CITRIX, OU=ANG, ST=KA/emailAddress=BANGALORECA_CA@BANGALORECA_mail.com
        Validity
            Not Before: Aug 23 09:06:45 2017 GMT
            Not After : Aug 21 09:06:45 2027 GMT
        Subject: ST=KA, C=IN, CN=blr_11_client/emailAddress=blr_11@test_ca.com, O=CITRIX
        Subject Public Key Info:
            Public Key Algorithm: rsaEncryption
                Public-Key: (2048 bit)
                Modulus:
                    00:c0:2c:35:10:d8:db:92:fc:af:3b:a5:93:0d:f9:
                    23:dc:ef:e6:53:6a:ff:0a:5b:cb:26:da:a8:ad:ac:
                    32:4b:c7:6a:91:81:e3:fa:8c:94:2f:c2:8c:b0:fa:
                    16:a9:a9:eb:1e:25:52:6b:cf:3d:55:74:4b:3d:2c:
                    4e:ed:8e:ba:a5:11:fd:0e:99:e3:df:5f:7b:75:ea:
                    82:a9:82:3d:29:cd:01:c7:f8:a4:6a:c6:c2:08:54:
                    b7:9f:85:ee:71:c0:95:43:13:6a:ac:34:f1:05:bc:
                    42:b0:81:3d:b9:9d:eb:ed:b0:67:7c:ce:35:ac:2a:
                    1b:34:2c:02:3f:e2:c4:ad:a7:55:04:b3:bf:95:4c:
                    cc:63:f1:15:8f:f1:01:4b:50:0a:b7:32:ff:49:a0:
                    fc:ce:c3:d4:37:4e:4f:aa:e7:1e:7a:24:c6:a7:1a:
                    22:c7:c1:fd:12:ab:d9:f6:e8:a7:8f:c1:7f:f0:9a:
                    a9:60:5a:f5:dd:a7:e2:d2:f7:3c:0c:89:1e:15:cd:
                    77:e0:0c:28:81:16:a7:e7:ee:c0:ff:db:e4:ea:02:
                    79:4b:25:af:f0:0a:b7:fb:30:3f:77:8d:43:f9:59:
                    bd:16:4b:fb:2d:a2:d2:28:52:48:46:59:d6:7c:91:
                    08:ad:aa:0c:a4:39:b7:1f:75:9f:f2:1d:66:8d:56:
                    28:5f
                Exponent: 65537 (0x10001)
        X509v3 extensions:
            Netscape Cert Type: 
                SSL Client
            X509v3 Subject Key Identifier: 
                8C:C3:02:1C:34:CD:F6:24:73:78:A1:F8:D5:EB:1C:27:A5:48:91:13
            X509v3 Authority Key Identifier: 
                keyid:3B:D6:D1:53:18:87:05:22:BB:EE:C3:0F:F5:CE:0F:6B:A2:93:A7:B8
                DirName:/CN=BANGALORECA_CA/C=IN/O=CITRIX/OU=ANG/ST=KA/emailAddress=BANGALORECA_CA@BANGALORECA_mail.com
                serial:A1:AC:B4:DA:46:53:58:40

            Authority Information Access: 
                OCSP - URI:http://172.16.20.1/responderpath

    Signature Algorithm: sha256WithRSAEncryption
         78:0f:7a:76:65:6d:ca:d3:ce:04:8d:7b:21:3b:29:87:f8:d3:
         1d:ed:2e:20:87:c5:32:cc:6a:32:02:77:17:44:27:66:67:6a:
         62:e0:e8:96:e8:5c:5b:4a:5e:5e:f1:1c:43:03:11:ce:ca:b5:
         ad:a1:d1:54:9e:92:aa:eb:26:23:59:b1:04:0c:6e:77:a8:93:
         12:d2:8c:76:54:3f:ac:94:e5:6b:b7:a0:fc:34:eb:6b:e4:25:
         d0:87:f9:25:ac:07:6c:65:53:ef:50:50:d2:9a:a7:6e:66:a7:
         e6:97:c8:31:a9:1c:54:80:17:ca:82:e2:c0:99:b9:80:81:64:
         f9:17:e6:e8:15:b4:20:15:fb:e8:1a:1a:65:df:e7:60:5b:b9:
         a7:6c:e1:23:78:26:bf:16:4f:4f:2f:48:8c:74:2a:56:0c:b4:
         b2:1f:33:4a:24:46:69:91:79:4d:4c:41:66:04:ea:f0:e1:6a:
         64:01:d6:33:7e:74:31:48:72:da:e7:91:aa:ca:2b:7e:a9:51:
         44:85:cf:64:4a:4a:37:87:14:30:28:47:7e:96:1b:94:d9:56:
         81:6a:05:c6:3e:30:6b:e8:47:b9:23:79:61:a0:90:45:5e:f8:
         2f:f4:ca:c3:d3:fe:e9:aa:58:b2:b5:b7:0f:7c:27:d9:e8:bd:
         97:6e:75:ff
-----BEGIN CERTIFICATE-----
MIIEoTCCA4mgAwIBAgIGCgsMDQ5BMA0GCSqGSIb3DQEBCwUAMIGGMRcwFQYDVQQD
FA5CQU5HQUxPUkVDQV9DQTELMAkGA1UEBhMCSU4xDzANBgNVBAoTBkNJVFJJWDEM
MAoGA1UECxMDQU5HMQswCQYDVQQIEwJLQTEyMDAGCSqGSIb3DQEJARYjQkFOR0FM
T1JFQ0FfQ0FAQkFOR0FMT1JFQ0FfbWFpbC5jb20wHhcNMTcwODIzMDkwNjQ1WhcN
MjcwODIxMDkwNjQ1WjBmMQswCQYDVQQIEwJLQTELMAkGA1UEBhMCSU4xFjAUBgNV
BAMUDWJscl8xMV9jbGllbnQxITAfBgkqhkiG9w0BCQEWEmJscl8xMUB0ZXN0X2Nh
LmNvbTEPMA0GA1UEChMGQ0lUUklYMIIBIjANBgkqhkiG9w0BAQEFAAOCAQ8AMIIB
CgKCAQEAwCw1ENjbkvyvO6WTDfkj3O/mU2r/ClvLJtqorawyS8dqkYHj+oyUL8KM
sPoWqanrHiVSa889VXRLPSxO7Y66pRH9Dpnj3197deqCqYI9Kc0Bx/ikasbCCFS3
n4XuccCVQxNqrDTxBbxCsIE9uZ3r7bBnfM41rCobNCwCP+LEradVBLO/lUzMY/EV
j/EBS1AKtzL/SaD8zsPUN05PquceeiTGpxoix8H9EqvZ9uinj8F/8JqpYFr13afi
0vc8DIkeFc134AwogRan5+7A/9vk6gJ5SyWv8Aq3+zA/d41D+Vm9Fkv7LaLSKFJI
RlnWfJEIraoMpDm3H3Wf8h1mjVYoXwIDAQABo4IBMjCCAS4wEQYJYIZIAYb4QgEB
BAQDAgeAMB0GA1UdDgQWBBSMwwIcNM32JHN4ofjV6xwnpUiREzCBuwYDVR0jBIGz
MIGwgBQ71tFTGIcFIrvuww/1zg9ropOnuKGBjKSBiTCBhjEXMBUGA1UEAxQOQkFO
R0FMT1JFQ0FfQ0ExCzAJBgNVBAYTAklOMQ8wDQYDVQQKEwZDSVRSSVgxDDAKBgNV
BAsTA0FORzELMAkGA1UECBMCS0ExMjAwBgkqhkiG9w0BCQEWI0JBTkdBTE9SRUNB
X0NBQEJBTkdBTE9SRUNBX21haWwuY29tggkAoay02kZTWEAwPAYIKwYBBQUHAQEE
MDAuMCwGCCsGAQUFBzABhiBodHRwOi8vMTcyLjE2LjIwLjEvcmVzcG9uZGVycGF0
aDANBgkqhkiG9w0BAQsFAAOCAQEAeA96dmVtytPOBI17ITsph/jTHe0uIIfFMsxq
MgJ3F0QnZmdqYuDoluhcW0peXvEcQwMRzsq1raHRVJ6SqusmI1mxBAxud6iTEtKM
dlQ/rJTla7eg/DTra+Ql0If5JawHbGVT71BQ0pqnbman5pfIMakcVIAXyoLiwJm5
gIFk+Rfm6BW0IBX76BoaZd/nYFu5p2zhI3gmvxZPTy9IjHQqVgy0sh8zSiRGaZF5
TUxBZgTq8OFqZAHWM350MUhy2ueRqsorfqlRRIXPZEpKN4cUMChHfpYblNlWgWoF
xj4wa+hHuSN5YaCQRV74L/TKw9P+6apYsrW3D3wn2ei9l251/w==
-----END CERTIFICATE-----
