Certificate:
    Data:
        Version: 3 (0x2)
        Serial Number: 11042563100218 (0xa0b0c0d0e3a)
    Signature Algorithm: sha256WithRSAEncryption
        Issuer: CN=BANGALORECA_CA, C=IN, O=CITRIX, OU=ANG, ST=KA/emailAddress=BANGALORECA_CA@BANGALORECA_mail.com
        Validity
            Not Before: Aug 23 09:02:12 2017 GMT
            Not After : Aug 21 09:02:12 2027 GMT
        Subject: ST=KA, C=IN, CN=blr_4_client/emailAddress=blr_4@test_ca.com, O=CITRIX
        Subject Public Key Info:
            Public Key Algorithm: rsaEncryption
                Public-Key: (2048 bit)
                Modulus:
                    00:d7:40:4f:0b:8e:3e:b5:99:3e:ab:28:31:97:27:
                    c0:bf:51:38:43:8e:76:f6:d6:49:64:1a:9d:5b:44:
                    04:f3:41:6d:7b:0c:97:08:90:1d:25:0f:9b:f9:b6:
                    f1:bd:0e:a2:0e:eb:7a:b4:c1:b0:8f:0b:5b:de:1d:
                    26:e0:1a:4c:5f:6e:90:66:f2:32:93:c8:d0:88:af:
                    f5:4f:d2:86:10:2d:7c:40:71:e6:f1:68:f4:fa:74:
                    9b:1b:34:5c:0d:55:93:e5:33:61:cf:c3:79:a6:b3:
                    16:c2:dc:48:b2:85:65:bc:f7:a8:ac:fe:50:c2:ac:
                    77:27:18:3a:90:53:20:2a:0d:f2:dc:04:b9:4b:e9:
                    fb:44:d7:ad:86:69:76:5d:33:44:6f:c7:e1:a2:92:
                    25:8f:ee:32:2c:71:69:78:f7:81:0c:63:1a:62:09:
                    06:0e:5f:4a:57:48:ad:ad:d0:08:41:6a:e9:0d:ad:
                    01:34:bd:b9:8b:55:82:c7:06:e2:ed:36:b2:95:22:
                    1e:58:12:22:14:39:33:e8:41:6c:73:9d:2c:ed:d4:
                    ca:71:11:b5:27:a4:1c:fd:86:b2:c9:7f:be:e9:f1:
                    2f:72:12:19:45:2f:14:0d:1f:74:f6:9f:b5:61:e0:
                    68:3d:16:6e:60:0a:6b:c7:d5:e8:ce:c5:73:68:17:
                    6e:ed
                Exponent: 65537 (0x10001)
        X509v3 extensions:
            Netscape Cert Type: 
                SSL Client
            X509v3 Subject Key Identifier: 
                3A:42:D9:E6:AE:48:BB:AE:13:4B:E0:01:39:2F:C0:25:92:E4:8E:6B
            X509v3 Authority Key Identifier: 
                keyid:3B:D6:D1:53:18:87:05:22:BB:EE:C3:0F:F5:CE:0F:6B:A2:93:A7:B8
                DirName:/CN=BANGALORECA_CA/C=IN/O=CITRIX/OU=ANG/ST=KA/emailAddress=BANGALORECA_CA@BANGALORECA_mail.com
                serial:A1:AC:B4:DA:46:53:58:40

            Authority Information Access: 
                OCSP - URI:http://172.16.20.1/responderpath

    Signature Algorithm: sha256WithRSAEncryption
         64:63:96:b5:28:51:53:01:92:fd:8a:64:d9:20:65:2a:7e:5c:
         a4:da:3d:ff:73:2d:0e:2f:6f:d4:1c:6a:95:14:bf:f9:64:c5:
         f9:08:40:bc:25:d2:4b:5c:20:e1:a4:71:e7:f6:c8:8e:e4:5d:
         ab:ba:36:1e:09:48:1d:65:99:5a:ea:b6:cf:55:96:43:91:63:
         c3:6c:d3:59:49:04:44:6d:99:01:dc:53:75:b8:f4:05:f7:fd:
         a2:90:5c:f2:dd:f3:a5:64:26:47:8f:89:56:30:19:31:e5:a7:
         d7:93:f5:0e:6d:b4:be:77:72:60:54:10:13:72:ef:0b:d8:5e:
         db:92:5e:c6:8c:14:ba:af:ff:9a:e2:e0:93:a9:04:98:81:3d:
         3f:bf:60:31:6e:79:61:be:c2:7c:fb:e5:8d:7c:19:b4:e8:9f:
         50:a3:1a:3f:91:b7:62:54:70:1b:95:3c:83:0a:ae:81:a4:74:
         bc:43:d2:2d:9a:61:ec:f4:99:8c:ed:f4:4a:4e:b9:6f:45:7f:
         3c:45:ea:c6:ed:8a:5b:95:e6:d5:c4:28:b1:e8:c3:42:e2:1d:
         d2:81:47:42:fc:a6:31:db:d4:64:78:7c:06:70:ea:31:27:88:
         35:64:42:f9:db:36:b6:08:63:a4:2c:d7:f0:58:a9:65:d6:44:
         44:6d:18:b7
-----BEGIN CERTIFICATE-----
MIIEnzCCA4egAwIBAgIGCgsMDQ46MA0GCSqGSIb3DQEBCwUAMIGGMRcwFQYDVQQD
FA5CQU5HQUxPUkVDQV9DQTELMAkGA1UEBhMCSU4xDzANBgNVBAoTBkNJVFJJWDEM
MAoGA1UECxMDQU5HMQswCQYDVQQIEwJLQTEyMDAGCSqGSIb3DQEJARYjQkFOR0FM
T1JFQ0FfQ0FAQkFOR0FMT1JFQ0FfbWFpbC5jb20wHhcNMTcwODIzMDkwMjEyWhcN
MjcwODIxMDkwMjEyWjBkMQswCQYDVQQIEwJLQTELMAkGA1UEBhMCSU4xFTATBgNV
BAMUDGJscl80X2NsaWVudDEgMB4GCSqGSIb3DQEJARYRYmxyXzRAdGVzdF9jYS5j
b20xDzANBgNVBAoTBkNJVFJJWDCCASIwDQYJKoZIhvcNAQEBBQADggEPADCCAQoC
ggEBANdATwuOPrWZPqsoMZcnwL9ROEOOdvbWSWQanVtEBPNBbXsMlwiQHSUPm/m2
8b0Oog7rerTBsI8LW94dJuAaTF9ukGbyMpPI0Iiv9U/ShhAtfEBx5vFo9Pp0mxs0
XA1Vk+UzYc/DeaazFsLcSLKFZbz3qKz+UMKsdycYOpBTICoN8twEuUvp+0TXrYZp
dl0zRG/H4aKSJY/uMixxaXj3gQxjGmIJBg5fSldIra3QCEFq6Q2tATS9uYtVgscG
4u02spUiHlgSIhQ5M+hBbHOdLO3UynERtSekHP2Gssl/vunxL3ISGUUvFA0fdPaf
tWHgaD0WbmAKa8fV6M7Fc2gXbu0CAwEAAaOCATIwggEuMBEGCWCGSAGG+EIBAQQE
AwIHgDAdBgNVHQ4EFgQUOkLZ5q5Iu64TS+ABOS/AJZLkjmswgbsGA1UdIwSBszCB
sIAUO9bRUxiHBSK77sMP9c4Pa6KTp7ihgYykgYkwgYYxFzAVBgNVBAMUDkJBTkdB
TE9SRUNBX0NBMQswCQYDVQQGEwJJTjEPMA0GA1UEChMGQ0lUUklYMQwwCgYDVQQL
EwNBTkcxCzAJBgNVBAgTAktBMTIwMAYJKoZIhvcNAQkBFiNCQU5HQUxPUkVDQV9D
QUBCQU5HQUxPUkVDQV9tYWlsLmNvbYIJAKGstNpGU1hAMDwGCCsGAQUFBwEBBDAw
LjAsBggrBgEFBQcwAYYgaHR0cDovLzE3Mi4xNi4yMC4xL3Jlc3BvbmRlcnBhdGgw
DQYJKoZIhvcNAQELBQADggEBAGRjlrUoUVMBkv2KZNkgZSp+XKTaPf9zLQ4vb9Qc
apUUv/lkxfkIQLwl0ktcIOGkcef2yI7kXau6Nh4JSB1lmVrqts9VlkORY8Ns01lJ
BERtmQHcU3W49AX3/aKQXPLd86VkJkePiVYwGTHlp9eT9Q5ttL53cmBUEBNy7wvY
XtuSXsaMFLqv/5ri4JOpBJiBPT+/YDFueWG+wnz75Y18GbTon1CjGj+Rt2JUcBuV
PIMKroGkdLxD0i2aYez0mYzt9EpOuW9FfzxF6sbtiluV5tXEKLHow0LiHdKBR0L8
pjHb1GR4fAZw6jEniDVkQvnbNrYIY6Qs1/BYqWXWRERtGLc=
-----END CERTIFICATE-----
