Certificate:
    Data:
        Version: 3 (0x2)
        Serial Number: 11042563100255 (0xa0b0c0d0e5f)
    Signature Algorithm: sha256WithRSAEncryption
        Issuer: CN=BANGALORECA_CA, C=IN, O=CITRIX, OU=ANG, ST=KA/emailAddress=BANGALORECA_CA@BANGALORECA_mail.com
        Validity
            Not Before: Aug 23 09:07:04 2017 GMT
            Not After : Aug 21 09:07:04 2027 GMT
        Subject: ST=KA, C=IN, CN=blr_41_client/emailAddress=blr_41@test_ca.com, O=CITRIX
        Subject Public Key Info:
            Public Key Algorithm: rsaEncryption
                Public-Key: (2048 bit)
                Modulus:
                    00:ad:44:35:35:12:b6:8d:e5:d6:34:83:9d:9f:26:
                    98:27:36:44:7e:c7:39:28:26:30:9b:6b:26:c4:88:
                    ee:0b:93:51:ef:b7:7d:cf:75:b5:a1:2d:4d:02:6d:
                    3a:1a:ac:f3:8e:1a:10:1d:95:b0:49:29:b4:01:a6:
                    2e:69:25:fb:7b:f1:74:04:86:55:33:94:1b:f5:c4:
                    49:3b:f5:ad:9a:76:a6:e1:f8:b3:53:d6:3f:bb:66:
                    55:e0:d3:0c:01:f5:80:9b:1a:40:c6:f9:6a:5d:d5:
                    82:88:66:92:b5:e0:0a:bf:a8:91:41:20:d1:af:a9:
                    7b:f5:40:a2:65:6a:73:82:ee:7d:72:4f:91:9d:97:
                    4b:c5:08:26:50:48:90:0a:7e:e4:fb:75:97:28:78:
                    10:70:b3:3d:43:42:61:b7:81:8c:8d:16:15:8e:76:
                    99:43:61:07:48:33:5f:d2:dc:32:98:92:2e:08:0f:
                    0f:24:36:a7:65:81:c5:36:d0:4a:fe:9f:b1:e7:af:
                    d5:c7:bd:62:82:93:4b:ba:78:2b:84:7a:e3:2e:4b:
                    38:98:89:46:16:04:0b:4e:99:c2:fe:27:82:83:95:
                    39:6c:c6:bb:a1:c5:6a:13:90:49:88:b1:8b:60:60:
                    5d:5e:36:f3:68:34:43:6d:e6:76:1b:95:cc:10:e3:
                    97:3b
                Exponent: 65537 (0x10001)
        X509v3 extensions:
            Netscape Cert Type: 
                SSL Client
            X509v3 Subject Key Identifier: 
                2A:2C:F7:9E:AD:C1:5E:02:33:A8:F9:CA:65:56:8B:6D:72:5A:B1:95
            X509v3 Authority Key Identifier: 
                keyid:3B:D6:D1:53:18:87:05:22:BB:EE:C3:0F:F5:CE:0F:6B:A2:93:A7:B8
                DirName:/CN=BANGALORECA_CA/C=IN/O=CITRIX/OU=ANG/ST=KA/emailAddress=BANGALORECA_CA@BANGALORECA_mail.com
                serial:A1:AC:B4:DA:46:53:58:40

            Authority Information Access: 
                OCSP - URI:http://172.16.20.1/responderpath

    Signature Algorithm: sha256WithRSAEncryption
         72:d5:ee:f2:6f:1a:4e:7b:f4:ad:e9:19:9b:ad:2b:fa:5e:29:
         a5:85:5e:a5:b8:24:6b:db:6f:93:be:6b:04:15:10:39:76:0e:
         55:3d:73:d4:72:31:c5:b9:67:e8:ee:ee:8c:43:88:99:6b:30:
         58:da:01:72:64:9b:40:60:51:b5:6e:42:60:1e:c9:ea:a9:0b:
         72:93:23:9d:70:3b:2f:5e:ec:eb:76:ac:36:61:99:69:03:29:
         87:d0:e5:34:ff:62:56:fe:17:d2:e4:48:0a:26:5d:d3:88:d6:
         46:f3:4d:fc:9c:d5:08:3c:bc:b2:4e:ea:33:72:b7:34:f3:c4:
         08:48:ee:8a:88:f7:60:0c:98:40:76:a4:f1:d2:42:dd:6b:fb:
         81:42:7c:85:4b:a8:4e:3d:18:3b:42:3c:2f:94:e1:4d:f2:bf:
         12:1d:4c:38:2b:0c:51:e0:f3:42:c5:e1:8e:0d:27:a2:1e:89:
         a3:b5:d2:b9:ff:ae:8e:50:45:40:ca:fd:70:f0:c6:20:0c:15:
         0f:b2:d0:b9:72:fb:e5:b1:3a:cd:96:33:76:a5:29:ae:77:2c:
         28:af:6e:5e:9f:7e:30:44:69:2f:d2:3c:01:45:d9:63:52:25:
         aa:e7:92:63:7e:1c:7d:17:3f:3e:29:e0:65:b8:a8:30:84:3c:
         c8:78:37:08
-----BEGIN CERTIFICATE-----
MIIEoTCCA4mgAwIBAgIGCgsMDQ5fMA0GCSqGSIb3DQEBCwUAMIGGMRcwFQYDVQQD
FA5CQU5HQUxPUkVDQV9DQTELMAkGA1UEBhMCSU4xDzANBgNVBAoTBkNJVFJJWDEM
MAoGA1UECxMDQU5HMQswCQYDVQQIEwJLQTEyMDAGCSqGSIb3DQEJARYjQkFOR0FM
T1JFQ0FfQ0FAQkFOR0FMT1JFQ0FfbWFpbC5jb20wHhcNMTcwODIzMDkwNzA0WhcN
MjcwODIxMDkwNzA0WjBmMQswCQYDVQQIEwJLQTELMAkGA1UEBhMCSU4xFjAUBgNV
BAMUDWJscl80MV9jbGllbnQxITAfBgkqhkiG9w0BCQEWEmJscl80MUB0ZXN0X2Nh
LmNvbTEPMA0GA1UEChMGQ0lUUklYMIIBIjANBgkqhkiG9w0BAQEFAAOCAQ8AMIIB
CgKCAQEArUQ1NRK2jeXWNIOdnyaYJzZEfsc5KCYwm2smxIjuC5NR77d9z3W1oS1N
Am06GqzzjhoQHZWwSSm0AaYuaSX7e/F0BIZVM5Qb9cRJO/Wtmnam4fizU9Y/u2ZV
4NMMAfWAmxpAxvlqXdWCiGaSteAKv6iRQSDRr6l79UCiZWpzgu59ck+RnZdLxQgm
UEiQCn7k+3WXKHgQcLM9Q0Jht4GMjRYVjnaZQ2EHSDNf0twymJIuCA8PJDanZYHF
NtBK/p+x56/Vx71igpNLungrhHrjLks4mIlGFgQLTpnC/ieCg5U5bMa7ocVqE5BJ
iLGLYGBdXjbzaDRDbeZ2G5XMEOOXOwIDAQABo4IBMjCCAS4wEQYJYIZIAYb4QgEB
BAQDAgeAMB0GA1UdDgQWBBQqLPeercFeAjOo+cplVottclqxlTCBuwYDVR0jBIGz
MIGwgBQ71tFTGIcFIrvuww/1zg9ropOnuKGBjKSBiTCBhjEXMBUGA1UEAxQOQkFO
R0FMT1JFQ0FfQ0ExCzAJBgNVBAYTAklOMQ8wDQYDVQQKEwZDSVRSSVgxDDAKBgNV
BAsTA0FORzELMAkGA1UECBMCS0ExMjAwBgkqhkiG9w0BCQEWI0JBTkdBTE9SRUNB
X0NBQEJBTkdBTE9SRUNBX21haWwuY29tggkAoay02kZTWEAwPAYIKwYBBQUHAQEE
MDAuMCwGCCsGAQUFBzABhiBodHRwOi8vMTcyLjE2LjIwLjEvcmVzcG9uZGVycGF0
aDANBgkqhkiG9w0BAQsFAAOCAQEActXu8m8aTnv0rekZm60r+l4ppYVepbgka9tv
k75rBBUQOXYOVT1z1HIxxbln6O7ujEOImWswWNoBcmSbQGBRtW5CYB7J6qkLcpMj
nXA7L17s63asNmGZaQMph9DlNP9iVv4X0uRICiZd04jWRvNN/JzVCDy8sk7qM3K3
NPPECEjuioj3YAyYQHak8dJC3Wv7gUJ8hUuoTj0YO0I8L5ThTfK/Eh1MOCsMUeDz
QsXhjg0noh6Jo7XSuf+ujlBFQMr9cPDGIAwVD7LQuXL75bE6zZYzdqUprncsKK9u
Xp9+MERpL9I8AUXZY1IlqueSY34cfRc/PingZbioMIQ8yHg3CA==
-----END CERTIFICATE-----
