Certificate:
    Data:
        Version: 3 (0x2)
        Serial Number: 11042563100217 (0xa0b0c0d0e39)
    Signature Algorithm: sha256WithRSAEncryption
        Issuer: CN=BANGALORECA_CA, C=IN, O=CITRIX, OU=ANG, ST=KA/emailAddress=BANGALORECA_CA@BANGALORECA_mail.com
        Validity
            Not Before: Aug 23 09:02:04 2017 GMT
            Not After : Aug 21 09:02:04 2027 GMT
        Subject: ST=KA, C=IN, CN=blr_3_client/emailAddress=blr_3@test_ca.com, O=CITRIX
        Subject Public Key Info:
            Public Key Algorithm: rsaEncryption
                Public-Key: (2048 bit)
                Modulus:
                    00:cf:f9:b5:ec:59:71:85:4b:e2:ec:b3:a3:1d:a0:
                    c4:a6:d9:ea:b9:f8:90:ec:9f:5f:5d:1c:f1:46:64:
                    29:ec:d3:40:cb:db:49:ed:3b:a3:c4:d2:42:5e:3a:
                    9f:43:5f:78:68:67:6c:52:e4:00:26:81:9e:30:08:
                    9c:53:6e:4b:0f:0c:a1:5c:12:78:c0:12:52:17:c4:
                    ba:4f:e0:5e:ad:f5:b9:85:17:fe:c1:a4:e5:cc:97:
                    be:78:78:dc:26:0f:40:a6:48:52:1f:49:18:8a:68:
                    53:a5:cb:ac:ba:f2:df:e0:49:c9:e4:70:33:e2:6d:
                    a8:b3:a2:1a:7f:81:4b:4f:7f:7b:8d:cf:f3:0a:fb:
                    9f:40:9b:ea:9c:ea:97:77:9d:30:73:9f:34:20:00:
                    be:c2:17:fd:dd:b6:cc:6f:9b:9b:63:26:b5:f9:f6:
                    ea:b7:23:94:97:95:74:2a:0e:58:4e:ba:6d:1b:6f:
                    36:e5:24:0d:a5:50:9e:55:22:2d:a9:c6:54:66:8f:
                    56:2e:72:f1:f0:7c:12:9a:29:a5:09:c2:53:c2:c9:
                    02:a9:9d:c2:fe:9f:09:09:eb:0c:bb:04:34:a2:5a:
                    65:9b:19:96:36:eb:a1:1f:04:fc:9e:d9:0d:3a:3d:
                    ee:1a:41:a4:58:15:e8:08:91:b3:3f:8f:6d:a2:23:
                    01:c1
                Exponent: 65537 (0x10001)
        X509v3 extensions:
            Netscape Cert Type: 
                SSL Client
            X509v3 Subject Key Identifier: 
                5D:5F:60:C6:12:03:AB:C9:63:AC:31:F9:8D:C7:F1:80:75:59:71:9F
            X509v3 Authority Key Identifier: 
                keyid:3B:D6:D1:53:18:87:05:22:BB:EE:C3:0F:F5:CE:0F:6B:A2:93:A7:B8
                DirName:/CN=BANGALORECA_CA/C=IN/O=CITRIX/OU=ANG/ST=KA/emailAddress=BANGALORECA_CA@BANGALORECA_mail.com
                serial:A1:AC:B4:DA:46:53:58:40

            Authority Information Access: 
                OCSP - URI:http://172.16.20.1/responderpath

    Signature Algorithm: sha256WithRSAEncryption
         97:a3:1e:e7:fa:a5:7a:1b:40:a2:1f:51:54:c9:42:33:c6:da:
         6c:2a:d8:46:92:9f:e8:5d:a3:eb:60:a4:48:b5:1b:7d:97:f5:
         3d:c8:85:ea:db:5c:67:01:a9:a8:01:ca:da:ae:0c:c8:46:0d:
         ba:61:6d:52:ea:53:a6:79:21:ed:bf:82:1f:6d:a1:da:31:96:
         a3:b2:ea:b5:ac:a9:79:de:d2:f7:62:94:bc:0f:cb:89:ff:7b:
         ec:cc:e0:2b:4a:f9:4c:63:19:79:03:4b:e0:82:d6:1e:17:1b:
         af:03:80:87:b6:a2:db:ef:f2:05:df:18:99:38:e6:60:28:60:
         77:a5:d1:99:9d:f3:ca:4a:a3:8f:bd:2e:4c:8c:fa:b5:1e:8f:
         04:d9:b1:c5:e9:79:c1:63:b3:95:79:ba:d1:5f:36:d4:15:fb:
         8f:3a:d4:b9:85:b9:df:d9:84:1c:d9:da:e7:df:02:ea:87:cf:
         4f:9e:0e:61:ac:56:03:b8:73:67:14:6b:4c:d3:a7:a9:b6:05:
         af:b7:22:f0:7a:3a:b3:3f:9f:91:eb:19:49:c4:12:20:b6:16:
         e6:a3:09:42:c4:ad:19:24:ee:3a:ff:a9:b7:7c:3c:d7:9e:1f:
         dd:67:b9:60:4b:75:14:5c:08:3b:1c:e1:de:70:27:94:e7:ca:
         de:3d:1f:1f
-----BEGIN CERTIFICATE-----
MIIEnzCCA4egAwIBAgIGCgsMDQ45MA0GCSqGSIb3DQEBCwUAMIGGMRcwFQYDVQQD
FA5CQU5HQUxPUkVDQV9DQTELMAkGA1UEBhMCSU4xDzANBgNVBAoTBkNJVFJJWDEM
MAoGA1UECxMDQU5HMQswCQYDVQQIEwJLQTEyMDAGCSqGSIb3DQEJARYjQkFOR0FM
T1JFQ0FfQ0FAQkFOR0FMT1JFQ0FfbWFpbC5jb20wHhcNMTcwODIzMDkwMjA0WhcN
MjcwODIxMDkwMjA0WjBkMQswCQYDVQQIEwJLQTELMAkGA1UEBhMCSU4xFTATBgNV
BAMUDGJscl8zX2NsaWVudDEgMB4GCSqGSIb3DQEJARYRYmxyXzNAdGVzdF9jYS5j
b20xDzANBgNVBAoTBkNJVFJJWDCCASIwDQYJKoZIhvcNAQEBBQADggEPADCCAQoC
ggEBAM/5texZcYVL4uyzox2gxKbZ6rn4kOyfX10c8UZkKezTQMvbSe07o8TSQl46
n0NfeGhnbFLkACaBnjAInFNuSw8MoVwSeMASUhfEuk/gXq31uYUX/sGk5cyXvnh4
3CYPQKZIUh9JGIpoU6XLrLry3+BJyeRwM+JtqLOiGn+BS09/e43P8wr7n0Cb6pzq
l3edMHOfNCAAvsIX/d22zG+bm2Mmtfn26rcjlJeVdCoOWE66bRtvNuUkDaVQnlUi
LanGVGaPVi5y8fB8EpoppQnCU8LJAqmdwv6fCQnrDLsENKJaZZsZljbroR8E/J7Z
DTo97hpBpFgV6AiRsz+PbaIjAcECAwEAAaOCATIwggEuMBEGCWCGSAGG+EIBAQQE
AwIHgDAdBgNVHQ4EFgQUXV9gxhIDq8ljrDH5jcfxgHVZcZ8wgbsGA1UdIwSBszCB
sIAUO9bRUxiHBSK77sMP9c4Pa6KTp7ihgYykgYkwgYYxFzAVBgNVBAMUDkJBTkdB
TE9SRUNBX0NBMQswCQYDVQQGEwJJTjEPMA0GA1UEChMGQ0lUUklYMQwwCgYDVQQL
EwNBTkcxCzAJBgNVBAgTAktBMTIwMAYJKoZIhvcNAQkBFiNCQU5HQUxPUkVDQV9D
QUBCQU5HQUxPUkVDQV9tYWlsLmNvbYIJAKGstNpGU1hAMDwGCCsGAQUFBwEBBDAw
LjAsBggrBgEFBQcwAYYgaHR0cDovLzE3Mi4xNi4yMC4xL3Jlc3BvbmRlcnBhdGgw
DQYJKoZIhvcNAQELBQADggEBAJejHuf6pXobQKIfUVTJQjPG2mwq2EaSn+hdo+tg
pEi1G32X9T3IherbXGcBqagBytquDMhGDbphbVLqU6Z5Ie2/gh9todoxlqOy6rWs
qXne0vdilLwPy4n/e+zM4CtK+UxjGXkDS+CC1h4XG68DgIe2otvv8gXfGJk45mAo
YHel0Zmd88pKo4+9LkyM+rUejwTZscXpecFjs5V5utFfNtQV+4861LmFud/ZhBzZ
2uffAuqHz0+eDmGsVgO4c2cUa0zTp6m2Ba+3IvB6OrM/n5HrGUnEEiC2FuajCULE
rRkk7jr/qbd8PNeeH91nuWBLdRRcCDsc4d5wJ5Tnyt49Hx8=
-----END CERTIFICATE-----
