Certificate:
    Data:
        Version: 3 (0x2)
        Serial Number: 11042563100231 (0xa0b0c0d0e47)
    Signature Algorithm: sha256WithRSAEncryption
        Issuer: CN=BANGALORECA_CA, C=IN, O=CITRIX, OU=ANG, ST=KA/emailAddress=BANGALORECA_CA@BANGALORECA_mail.com
        Validity
            Not Before: Aug 23 09:06:50 2017 GMT
            Not After : Aug 21 09:06:50 2027 GMT
        Subject: ST=KA, C=IN, CN=blr_17_client/emailAddress=blr_17@test_ca.com, O=CITRIX
        Subject Public Key Info:
            Public Key Algorithm: rsaEncryption
                Public-Key: (2048 bit)
                Modulus:
                    00:c2:bf:f1:42:a2:9e:99:3b:93:da:75:76:eb:ad:
                    e3:78:3e:29:a7:1f:9e:01:b8:d2:89:2b:5e:ba:b5:
                    fd:61:62:c2:c2:0d:2d:b8:90:b6:ee:62:f1:9a:cc:
                    14:b0:be:60:4f:f1:96:94:d2:ff:ce:84:31:c9:d0:
                    13:88:63:0f:2f:53:79:0f:cf:40:53:fe:06:22:7f:
                    ce:9e:25:77:87:63:1f:a5:a6:30:e1:2a:a3:02:54:
                    3f:f1:c5:db:95:79:21:73:11:4a:62:2c:6b:75:9b:
                    74:dc:49:05:58:7c:bd:6e:50:56:96:c8:1a:0d:00:
                    3e:b7:d0:43:bf:68:c3:33:d8:25:bc:4c:2e:1a:81:
                    90:f2:37:1b:2c:bf:09:be:ae:41:72:37:ac:ca:97:
                    9e:14:0e:5b:c1:ea:15:a6:68:7d:9a:e0:44:02:a3:
                    e8:35:28:06:55:14:ca:5f:c4:a8:72:32:8f:ca:5b:
                    ce:e1:c5:34:2f:ae:87:51:27:c4:c1:d7:ae:eb:e5:
                    76:9a:69:9d:cf:b8:77:63:1a:ed:98:a1:eb:77:42:
                    03:cc:9c:38:b0:c4:7a:a4:be:54:ed:99:e8:1c:d0:
                    75:7a:1b:7d:48:2e:18:33:ec:68:5f:12:fd:8c:d0:
                    13:e6:da:20:f2:3b:dd:bf:20:b4:1d:e6:f4:e5:88:
                    27:6d
                Exponent: 65537 (0x10001)
        X509v3 extensions:
            Netscape Cert Type: 
                SSL Client
            X509v3 Subject Key Identifier: 
                F8:D9:B7:90:81:F3:D7:33:D6:DF:CA:B5:FD:9B:44:4A:FB:E7:E1:06
            X509v3 Authority Key Identifier: 
                keyid:3B:D6:D1:53:18:87:05:22:BB:EE:C3:0F:F5:CE:0F:6B:A2:93:A7:B8
                DirName:/CN=BANGALORECA_CA/C=IN/O=CITRIX/OU=ANG/ST=KA/emailAddress=BANGALORECA_CA@BANGALORECA_mail.com
                serial:A1:AC:B4:DA:46:53:58:40

            Authority Information Access: 
                OCSP - URI:http://172.16.20.1/responderpath

    Signature Algorithm: sha256WithRSAEncryption
         18:1e:f4:c8:5c:d0:57:f8:8a:ac:05:7a:d2:4b:ac:a8:cd:d0:
         8b:ff:42:8a:c4:0f:f1:93:07:45:86:cb:08:b5:ca:d0:15:11:
         d9:bc:d1:62:c0:11:6a:eb:6f:8b:cd:fd:4f:d7:de:3d:0c:f0:
         71:12:82:7c:86:69:af:6d:d5:6d:fe:ac:ee:73:33:d8:95:05:
         37:6b:f2:81:a9:76:63:53:ed:de:26:9c:03:a6:12:a2:c7:54:
         19:da:c3:08:a5:11:d9:ec:22:ef:a3:92:96:5d:3d:d9:e5:d8:
         0a:f5:70:35:81:c9:cc:6f:89:f9:28:dd:89:34:2a:df:b7:89:
         c3:73:a5:af:43:a1:45:66:d0:47:11:58:8c:7b:0d:d2:13:5b:
         52:d8:2f:fc:cf:b4:64:bf:3f:f8:d9:1e:6d:80:1f:54:33:25:
         9d:31:01:78:8e:59:b1:97:b5:ed:f5:ce:9c:62:cb:1c:ea:d4:
         34:a8:2b:15:a1:2f:fa:16:f0:ee:5f:29:47:c1:eb:05:8a:0c:
         1c:69:2b:04:f1:d3:a9:70:6e:b4:e2:e7:60:88:23:89:b8:e5:
         1a:89:dc:9c:f9:0d:46:69:02:8e:d8:3e:1f:27:c0:06:af:7f:
         b5:b3:cc:2d:36:9d:1e:69:b6:04:ef:61:0d:f2:75:c6:40:65:
         8d:fa:3f:11
-----BEGIN CERTIFICATE-----
MIIEoTCCA4mgAwIBAgIGCgsMDQ5HMA0GCSqGSIb3DQEBCwUAMIGGMRcwFQYDVQQD
FA5CQU5HQUxPUkVDQV9DQTELMAkGA1UEBhMCSU4xDzANBgNVBAoTBkNJVFJJWDEM
MAoGA1UECxMDQU5HMQswCQYDVQQIEwJLQTEyMDAGCSqGSIb3DQEJARYjQkFOR0FM
T1JFQ0FfQ0FAQkFOR0FMT1JFQ0FfbWFpbC5jb20wHhcNMTcwODIzMDkwNjUwWhcN
MjcwODIxMDkwNjUwWjBmMQswCQYDVQQIEwJLQTELMAkGA1UEBhMCSU4xFjAUBgNV
BAMUDWJscl8xN19jbGllbnQxITAfBgkqhkiG9w0BCQEWEmJscl8xN0B0ZXN0X2Nh
LmNvbTEPMA0GA1UEChMGQ0lUUklYMIIBIjANBgkqhkiG9w0BAQEFAAOCAQ8AMIIB
CgKCAQEAwr/xQqKemTuT2nV2663jeD4ppx+eAbjSiSteurX9YWLCwg0tuJC27mLx
mswUsL5gT/GWlNL/zoQxydATiGMPL1N5D89AU/4GIn/OniV3h2MfpaYw4SqjAlQ/
8cXblXkhcxFKYixrdZt03EkFWHy9blBWlsgaDQA+t9BDv2jDM9glvEwuGoGQ8jcb
LL8Jvq5BcjesypeeFA5bweoVpmh9muBEAqPoNSgGVRTKX8SocjKPylvO4cU0L66H
USfEwdeu6+V2mmmdz7h3YxrtmKHrd0IDzJw4sMR6pL5U7ZnoHNB1eht9SC4YM+xo
XxL9jNAT5tog8jvdvyC0Heb05YgnbQIDAQABo4IBMjCCAS4wEQYJYIZIAYb4QgEB
BAQDAgeAMB0GA1UdDgQWBBT42beQgfPXM9bfyrX9m0RK++fhBjCBuwYDVR0jBIGz
MIGwgBQ71tFTGIcFIrvuww/1zg9ropOnuKGBjKSBiTCBhjEXMBUGA1UEAxQOQkFO
R0FMT1JFQ0FfQ0ExCzAJBgNVBAYTAklOMQ8wDQYDVQQKEwZDSVRSSVgxDDAKBgNV
BAsTA0FORzELMAkGA1UECBMCS0ExMjAwBgkqhkiG9w0BCQEWI0JBTkdBTE9SRUNB
X0NBQEJBTkdBTE9SRUNBX21haWwuY29tggkAoay02kZTWEAwPAYIKwYBBQUHAQEE
MDAuMCwGCCsGAQUFBzABhiBodHRwOi8vMTcyLjE2LjIwLjEvcmVzcG9uZGVycGF0
aDANBgkqhkiG9w0BAQsFAAOCAQEAGB70yFzQV/iKrAV60kusqM3Qi/9CisQP8ZMH
RYbLCLXK0BUR2bzRYsARautvi839T9fePQzwcRKCfIZpr23Vbf6s7nMz2JUFN2vy
gal2Y1Pt3iacA6YSosdUGdrDCKUR2ewi76OSll092eXYCvVwNYHJzG+J+SjdiTQq
37eJw3Olr0OhRWbQRxFYjHsN0hNbUtgv/M+0ZL8/+NkebYAfVDMlnTEBeI5ZsZe1
7fXOnGLLHOrUNKgrFaEv+hbw7l8pR8HrBYoMHGkrBPHTqXButOLnYIgjibjlGonc
nPkNRmkCjtg+HyfABq9/tbPMLTadHmm2BO9hDfJ1xkBljfo/EQ==
-----END CERTIFICATE-----
