Certificate:
    Data:
        Version: 3 (0x2)
        Serial Number: 11042563100253 (0xa0b0c0d0e5d)
    Signature Algorithm: sha256WithRSAEncryption
        Issuer: CN=BANGALORECA_CA, C=IN, O=CITRIX, OU=ANG, ST=KA/emailAddress=BANGALORECA_CA@BANGALORECA_mail.com
        Validity
            Not Before: Aug 23 09:07:03 2017 GMT
            Not After : Aug 21 09:07:03 2027 GMT
        Subject: ST=KA, C=IN, CN=blr_39_client/emailAddress=blr_39@test_ca.com, O=CITRIX
        Subject Public Key Info:
            Public Key Algorithm: rsaEncryption
                Public-Key: (2048 bit)
                Modulus:
                    00:d4:1b:26:13:c7:6b:f8:3c:f9:01:d0:d3:77:86:
                    c3:44:a4:56:06:14:18:36:16:b1:21:c6:f2:8c:0c:
                    a3:c2:a1:0c:55:39:fb:02:3f:ff:19:9e:d9:66:28:
                    ff:76:7b:02:d4:e6:4a:d6:5d:1f:2e:36:55:3b:e1:
                    e4:81:c9:1c:ed:27:bb:58:b5:49:87:4e:f0:20:9d:
                    e3:53:b0:3a:b5:81:bc:99:c8:53:e7:53:47:e2:c1:
                    40:58:af:df:d4:e4:85:ad:5c:ff:ae:d0:9a:de:e0:
                    12:58:52:f7:9a:5a:af:72:8e:cb:c9:cc:7b:c2:0f:
                    b6:97:50:83:a8:b1:7b:f5:ab:98:b4:7d:45:11:a5:
                    da:05:31:62:7b:a9:80:d2:0d:d9:c6:02:24:f9:8f:
                    8a:d6:09:8a:02:fd:20:bd:6b:66:21:74:80:ef:b1:
                    88:97:0d:ed:0e:b9:86:72:99:b6:7d:c9:13:03:f4:
                    b4:fe:de:03:e4:d5:59:ab:d6:b9:57:55:b7:ae:2e:
                    eb:ee:95:86:8a:21:e7:de:9d:c4:4b:37:6a:17:58:
                    f1:d9:0c:c6:3e:a7:91:e8:ed:65:5c:a3:6e:89:37:
                    57:16:15:30:14:d4:8a:80:0f:5e:ba:ed:32:a0:6e:
                    45:b1:68:21:a6:14:a7:08:e8:e3:5d:0a:f6:27:22:
                    77:fb
                Exponent: 65537 (0x10001)
        X509v3 extensions:
            Netscape Cert Type: 
                SSL Client
            X509v3 Subject Key Identifier: 
                54:65:2C:5C:F2:9D:43:E4:AE:C7:C3:9B:20:2E:1F:12:36:CC:CA:C2
            X509v3 Authority Key Identifier: 
                keyid:3B:D6:D1:53:18:87:05:22:BB:EE:C3:0F:F5:CE:0F:6B:A2:93:A7:B8
                DirName:/CN=BANGALORECA_CA/C=IN/O=CITRIX/OU=ANG/ST=KA/emailAddress=BANGALORECA_CA@BANGALORECA_mail.com
                serial:A1:AC:B4:DA:46:53:58:40

            Authority Information Access: 
                OCSP - URI:http://172.16.20.1/responderpath

    Signature Algorithm: sha256WithRSAEncryption
         32:15:38:16:77:72:ba:d0:b6:ea:c0:7d:d2:6e:62:a4:c2:3b:
         fd:34:b3:2d:10:be:49:5d:66:2e:a0:18:d5:e9:fe:96:09:85:
         f8:51:2c:7e:07:a8:32:ec:83:7b:1a:74:97:f8:b4:1e:43:4e:
         87:8c:4f:70:13:26:13:43:6a:c3:90:20:e6:07:bc:8a:5e:d0:
         a3:fd:f9:ac:7e:90:0d:84:0a:83:0c:3a:91:12:02:3b:1d:c9:
         34:d2:90:c0:a3:fc:79:36:ca:0d:cc:e4:29:da:82:35:c3:cb:
         e3:2a:ea:f8:c0:f5:fe:9a:4a:ec:27:54:84:2d:7c:9d:da:5a:
         2a:d4:ce:33:26:3e:43:9f:af:f6:be:8f:ce:eb:32:67:50:7a:
         b7:b1:f7:da:7d:b4:95:59:c0:69:0b:3f:84:be:4d:60:9a:2b:
         d2:65:e1:10:13:a5:4e:2e:68:35:5a:9d:31:a1:c6:4a:63:bc:
         15:d7:e7:fd:08:56:9f:62:6a:bc:36:d1:87:5e:67:53:2e:cb:
         f0:51:3e:f1:8d:dc:17:52:01:a4:fa:f8:ad:f5:32:a7:94:18:
         a8:bc:8d:a4:2c:e5:93:dc:b5:b9:ff:e6:3c:bb:8b:20:cf:22:
         68:38:68:e6:44:2d:51:1a:f8:22:b5:47:02:46:d2:26:8f:dc:
         1e:12:f5:0f
-----BEGIN CERTIFICATE-----
MIIEoTCCA4mgAwIBAgIGCgsMDQ5dMA0GCSqGSIb3DQEBCwUAMIGGMRcwFQYDVQQD
FA5CQU5HQUxPUkVDQV9DQTELMAkGA1UEBhMCSU4xDzANBgNVBAoTBkNJVFJJWDEM
MAoGA1UECxMDQU5HMQswCQYDVQQIEwJLQTEyMDAGCSqGSIb3DQEJARYjQkFOR0FM
T1JFQ0FfQ0FAQkFOR0FMT1JFQ0FfbWFpbC5jb20wHhcNMTcwODIzMDkwNzAzWhcN
MjcwODIxMDkwNzAzWjBmMQswCQYDVQQIEwJLQTELMAkGA1UEBhMCSU4xFjAUBgNV
BAMUDWJscl8zOV9jbGllbnQxITAfBgkqhkiG9w0BCQEWEmJscl8zOUB0ZXN0X2Nh
LmNvbTEPMA0GA1UEChMGQ0lUUklYMIIBIjANBgkqhkiG9w0BAQEFAAOCAQ8AMIIB
CgKCAQEA1BsmE8dr+Dz5AdDTd4bDRKRWBhQYNhaxIcbyjAyjwqEMVTn7Aj//GZ7Z
Zij/dnsC1OZK1l0fLjZVO+Hkgckc7Se7WLVJh07wIJ3jU7A6tYG8mchT51NH4sFA
WK/f1OSFrVz/rtCa3uASWFL3mlqvco7Lycx7wg+2l1CDqLF79auYtH1FEaXaBTFi
e6mA0g3ZxgIk+Y+K1gmKAv0gvWtmIXSA77GIlw3tDrmGcpm2fckTA/S0/t4D5NVZ
q9a5V1W3ri7r7pWGiiHn3p3ESzdqF1jx2QzGPqeR6O1lXKNuiTdXFhUwFNSKgA9e
uu0yoG5FsWghphSnCOjjXQr2JyJ3+wIDAQABo4IBMjCCAS4wEQYJYIZIAYb4QgEB
BAQDAgeAMB0GA1UdDgQWBBRUZSxc8p1D5K7Hw5sgLh8SNszKwjCBuwYDVR0jBIGz
MIGwgBQ71tFTGIcFIrvuww/1zg9ropOnuKGBjKSBiTCBhjEXMBUGA1UEAxQOQkFO
R0FMT1JFQ0FfQ0ExCzAJBgNVBAYTAklOMQ8wDQYDVQQKEwZDSVRSSVgxDDAKBgNV
BAsTA0FORzELMAkGA1UECBMCS0ExMjAwBgkqhkiG9w0BCQEWI0JBTkdBTE9SRUNB
X0NBQEJBTkdBTE9SRUNBX21haWwuY29tggkAoay02kZTWEAwPAYIKwYBBQUHAQEE
MDAuMCwGCCsGAQUFBzABhiBodHRwOi8vMTcyLjE2LjIwLjEvcmVzcG9uZGVycGF0
aDANBgkqhkiG9w0BAQsFAAOCAQEAMhU4FndyutC26sB90m5ipMI7/TSzLRC+SV1m
LqAY1en+lgmF+FEsfgeoMuyDexp0l/i0HkNOh4xPcBMmE0Nqw5Ag5ge8il7Qo/35
rH6QDYQKgww6kRICOx3JNNKQwKP8eTbKDczkKdqCNcPL4yrq+MD1/ppK7CdUhC18
ndpaKtTOMyY+Q5+v9r6PzusyZ1B6t7H32n20lVnAaQs/hL5NYJor0mXhEBOlTi5o
NVqdMaHGSmO8Fdfn/QhWn2JqvDbRh15nUy7L8FE+8Y3cF1IBpPr4rfUyp5QYqLyN
pCzlk9y1uf/mPLuLIM8iaDho5kQtURr4IrVHAkbSJo/cHhL1Dw==
-----END CERTIFICATE-----
