Certificate:
    Data:
        Version: 3 (0x2)
        Serial Number: 11042563100246 (0xa0b0c0d0e56)
    Signature Algorithm: sha256WithRSAEncryption
        Issuer: CN=BANGALORECA_CA, C=IN, O=CITRIX, OU=ANG, ST=KA/emailAddress=BANGALORECA_CA@BANGALORECA_mail.com
        Validity
            Not Before: Aug 23 09:06:59 2017 GMT
            Not After : Aug 21 09:06:59 2027 GMT
        Subject: ST=KA, C=IN, CN=blr_32_client/emailAddress=blr_32@test_ca.com, O=CITRIX
        Subject Public Key Info:
            Public Key Algorithm: rsaEncryption
                Public-Key: (2048 bit)
                Modulus:
                    00:b7:f5:9b:8d:4d:65:7d:cf:d6:6b:e7:e6:45:ee:
                    29:b6:4c:b9:89:9b:46:d9:ca:d9:50:3c:5b:5c:30:
                    be:41:bb:64:5a:43:15:3a:77:92:76:d7:2c:10:a7:
                    e5:45:ea:0e:f4:c7:7b:e4:77:a1:4e:fd:d3:a7:99:
                    82:e5:4e:11:8f:9a:e2:fe:4f:c5:57:12:9a:bc:b3:
                    88:14:81:25:6f:78:8e:91:5e:76:bd:33:c8:d4:b7:
                    be:cc:43:6b:ca:1c:6e:be:42:f3:6b:c1:b6:ca:85:
                    9f:bb:ef:e3:6f:96:a6:6a:e3:61:e5:0b:c1:a8:aa:
                    52:87:f7:20:e8:fb:7a:58:7b:80:43:4f:47:77:8e:
                    13:df:b3:90:79:8e:6f:cc:12:da:ef:77:44:71:cf:
                    2a:94:7f:4e:e5:52:5c:27:6a:bc:cd:5e:56:41:4e:
                    15:ba:9c:90:8f:f9:d0:33:be:bb:e4:8f:e0:16:4e:
                    0f:9b:25:4e:c5:ac:bc:3f:34:44:25:55:9d:c5:15:
                    5f:f2:1b:f8:08:3e:02:4d:e0:96:1c:d7:69:44:00:
                    57:a4:d9:82:85:84:10:85:b2:4f:62:c0:81:47:94:
                    8e:0d:d9:63:e5:9b:39:06:68:2f:dc:a9:2b:32:db:
                    32:ae:f9:04:58:d4:61:61:01:56:4d:18:c5:f3:00:
                    bf:a9
                Exponent: 65537 (0x10001)
        X509v3 extensions:
            Netscape Cert Type: 
                SSL Client
            X509v3 Subject Key Identifier: 
                6A:8C:BB:6E:05:AB:57:0C:5A:27:8D:33:3A:12:E7:30:FE:50:8C:D1
            X509v3 Authority Key Identifier: 
                keyid:3B:D6:D1:53:18:87:05:22:BB:EE:C3:0F:F5:CE:0F:6B:A2:93:A7:B8
                DirName:/CN=BANGALORECA_CA/C=IN/O=CITRIX/OU=ANG/ST=KA/emailAddress=BANGALORECA_CA@BANGALORECA_mail.com
                serial:A1:AC:B4:DA:46:53:58:40

            Authority Information Access: 
                OCSP - URI:http://172.16.20.1/responderpath

    Signature Algorithm: sha256WithRSAEncryption
         14:a7:14:02:8a:06:a5:38:b8:40:23:70:7b:4b:0a:11:a3:6c:
         9d:d3:be:37:16:3d:7b:8c:f4:18:23:9a:5e:65:b4:00:67:30:
         53:f8:23:3b:9e:40:09:28:87:e4:b2:1d:70:cb:05:e1:19:7c:
         35:55:bb:ed:4d:8f:55:99:5e:b4:a7:c9:b1:21:9b:b1:e6:29:
         93:c7:21:48:7e:ca:bd:fc:4a:03:50:4a:d8:ea:ed:28:17:45:
         bb:e8:ec:5a:ba:7c:69:bb:f4:9b:2c:0f:2f:33:aa:fa:6d:25:
         4f:fb:53:4e:d7:67:49:10:52:f0:5d:d4:f0:65:36:a3:7d:51:
         59:ad:92:6d:ee:0b:f4:6c:c0:21:c8:4d:b0:af:60:66:f6:5e:
         63:29:93:73:07:5b:cb:2e:02:18:5d:2c:cf:5d:05:97:b3:33:
         fa:c7:01:98:2d:55:8d:45:c7:aa:43:1f:09:89:b6:28:86:c7:
         95:f9:07:a9:8d:54:4d:f2:c9:fd:8e:90:41:8f:1f:6b:49:5d:
         60:6a:85:1a:c4:d4:26:04:59:aa:ad:1a:c5:52:d9:26:2c:6f:
         a7:60:e7:6b:66:86:6c:67:ea:27:67:a5:f9:ba:6f:33:26:41:
         fa:49:8c:09:34:fb:0f:c6:82:ff:5a:b7:e0:d5:cf:10:52:4c:
         05:4d:1d:cf
-----BEGIN CERTIFICATE-----
MIIEoTCCA4mgAwIBAgIGCgsMDQ5WMA0GCSqGSIb3DQEBCwUAMIGGMRcwFQYDVQQD
FA5CQU5HQUxPUkVDQV9DQTELMAkGA1UEBhMCSU4xDzANBgNVBAoTBkNJVFJJWDEM
MAoGA1UECxMDQU5HMQswCQYDVQQIEwJLQTEyMDAGCSqGSIb3DQEJARYjQkFOR0FM
T1JFQ0FfQ0FAQkFOR0FMT1JFQ0FfbWFpbC5jb20wHhcNMTcwODIzMDkwNjU5WhcN
MjcwODIxMDkwNjU5WjBmMQswCQYDVQQIEwJLQTELMAkGA1UEBhMCSU4xFjAUBgNV
BAMUDWJscl8zMl9jbGllbnQxITAfBgkqhkiG9w0BCQEWEmJscl8zMkB0ZXN0X2Nh
LmNvbTEPMA0GA1UEChMGQ0lUUklYMIIBIjANBgkqhkiG9w0BAQEFAAOCAQ8AMIIB
CgKCAQEAt/WbjU1lfc/Wa+fmRe4ptky5iZtG2crZUDxbXDC+QbtkWkMVOneSdtcs
EKflReoO9Md75HehTv3Tp5mC5U4Rj5ri/k/FVxKavLOIFIElb3iOkV52vTPI1Le+
zENryhxuvkLza8G2yoWfu+/jb5amauNh5QvBqKpSh/cg6Pt6WHuAQ09Hd44T37OQ
eY5vzBLa73dEcc8qlH9O5VJcJ2q8zV5WQU4VupyQj/nQM7675I/gFk4PmyVOxay8
PzREJVWdxRVf8hv4CD4CTeCWHNdpRABXpNmChYQQhbJPYsCBR5SODdlj5Zs5Bmgv
3KkrMtsyrvkEWNRhYQFWTRjF8wC/qQIDAQABo4IBMjCCAS4wEQYJYIZIAYb4QgEB
BAQDAgeAMB0GA1UdDgQWBBRqjLtuBatXDFonjTM6Eucw/lCM0TCBuwYDVR0jBIGz
MIGwgBQ71tFTGIcFIrvuww/1zg9ropOnuKGBjKSBiTCBhjEXMBUGA1UEAxQOQkFO
R0FMT1JFQ0FfQ0ExCzAJBgNVBAYTAklOMQ8wDQYDVQQKEwZDSVRSSVgxDDAKBgNV
BAsTA0FORzELMAkGA1UECBMCS0ExMjAwBgkqhkiG9w0BCQEWI0JBTkdBTE9SRUNB
X0NBQEJBTkdBTE9SRUNBX21haWwuY29tggkAoay02kZTWEAwPAYIKwYBBQUHAQEE
MDAuMCwGCCsGAQUFBzABhiBodHRwOi8vMTcyLjE2LjIwLjEvcmVzcG9uZGVycGF0
aDANBgkqhkiG9w0BAQsFAAOCAQEAFKcUAooGpTi4QCNwe0sKEaNsndO+NxY9e4z0
GCOaXmW0AGcwU/gjO55ACSiH5LIdcMsF4Rl8NVW77U2PVZletKfJsSGbseYpk8ch
SH7KvfxKA1BK2OrtKBdFu+jsWrp8abv0mywPLzOq+m0lT/tTTtdnSRBS8F3U8GU2
o31RWa2Sbe4L9GzAIchNsK9gZvZeYymTcwdbyy4CGF0sz10Fl7Mz+scBmC1VjUXH
qkMfCYm2KIbHlfkHqY1UTfLJ/Y6QQY8fa0ldYGqFGsTUJgRZqq0axVLZJixvp2Dn
a2aGbGfqJ2el+bpvMyZB+kmMCTT7D8aC/1q34NXPEFJMBU0dzw==
-----END CERTIFICATE-----
