Certificate:
    Data:
        Version: 3 (0x2)
        Serial Number: 11042563100243 (0xa0b0c0d0e53)
    Signature Algorithm: sha256WithRSAEncryption
        Issuer: CN=BANGALORECA_CA, C=IN, O=CITRIX, OU=ANG, ST=KA/emailAddress=BANGALORECA_CA@BANGALORECA_mail.com
        Validity
            Not Before: Aug 23 09:06:57 2017 GMT
            Not After : Aug 21 09:06:57 2027 GMT
        Subject: ST=KA, C=IN, CN=blr_29_client/emailAddress=blr_29@test_ca.com, O=CITRIX
        Subject Public Key Info:
            Public Key Algorithm: rsaEncryption
                Public-Key: (2048 bit)
                Modulus:
                    00:b9:6f:70:f7:f9:3f:65:f1:88:0c:2f:da:a2:23:
                    03:ba:f1:de:6a:7e:4f:6f:ad:6c:33:95:3e:c2:69:
                    92:ce:69:9b:04:03:eb:12:97:5a:c6:72:3c:72:e4:
                    00:fa:fd:94:f3:10:98:8a:0a:ab:ce:96:8f:28:e5:
                    28:08:47:17:ab:5e:13:dc:0a:4d:9e:e3:32:cb:57:
                    c7:ec:37:98:60:3a:e6:16:0a:68:55:2b:b1:fb:c3:
                    80:bb:64:35:db:d9:f5:e9:31:b8:05:fb:57:06:c4:
                    6c:48:d0:f3:5b:1f:f8:8c:0e:21:65:dd:90:29:5e:
                    36:0c:c5:d5:23:7f:80:f6:c1:bd:19:4c:d0:8f:26:
                    e9:fe:ea:e3:51:33:76:a9:a6:1d:c8:ac:db:9b:3e:
                    30:da:74:5e:89:e4:2e:b6:eb:95:5b:e6:b1:a6:92:
                    c7:2b:6e:ad:af:bb:f7:83:34:da:e2:17:00:13:c3:
                    b8:6d:fb:6a:7d:22:f9:6e:79:da:72:d7:de:15:b6:
                    a3:82:d1:77:c6:5d:e0:f0:7b:1a:bd:84:aa:bb:7f:
                    27:27:a4:2f:ea:fc:c4:f7:84:69:b4:e9:bb:c2:93:
                    b0:1f:0e:0e:22:e1:3f:e7:6b:86:6a:fc:b5:4b:d5:
                    50:8e:80:68:25:6f:88:ab:7c:84:99:02:08:cd:df:
                    5f:e3
                Exponent: 65537 (0x10001)
        X509v3 extensions:
            Netscape Cert Type: 
                SSL Client
            X509v3 Subject Key Identifier: 
                04:97:1C:36:D7:DD:6B:40:88:9B:9F:5F:4C:AA:B4:7E:BB:7C:25:D1
            X509v3 Authority Key Identifier: 
                keyid:3B:D6:D1:53:18:87:05:22:BB:EE:C3:0F:F5:CE:0F:6B:A2:93:A7:B8
                DirName:/CN=BANGALORECA_CA/C=IN/O=CITRIX/OU=ANG/ST=KA/emailAddress=BANGALORECA_CA@BANGALORECA_mail.com
                serial:A1:AC:B4:DA:46:53:58:40

            Authority Information Access: 
                OCSP - URI:http://172.16.20.1/responderpath

    Signature Algorithm: sha256WithRSAEncryption
         48:6f:e2:6c:fe:31:ec:46:e5:c0:6c:a1:c8:6a:bf:ed:e6:17:
         11:e7:d3:62:0d:ea:05:36:b3:f0:e7:54:20:a6:5c:0a:bc:72:
         0d:aa:09:2e:af:ac:76:16:46:61:8a:de:6b:ba:5b:d2:60:46:
         0c:0f:3f:71:08:6d:ef:00:8b:1d:75:17:a0:7c:ea:07:a9:fa:
         ed:39:c8:98:c9:f2:94:88:64:8b:1d:fa:1f:1b:4b:3b:7c:46:
         6c:37:a8:ed:a5:13:db:00:d2:2d:d6:77:e7:84:ce:25:e9:33:
         91:d7:f0:d6:2e:14:44:15:bb:fb:66:f1:e4:8e:f5:21:ab:b5:
         8e:10:da:68:59:c8:d9:1a:74:f4:81:20:8b:36:13:b2:4d:c1:
         d4:76:1f:7a:93:9a:00:02:89:6c:9e:66:85:48:b9:a2:57:eb:
         66:24:b5:de:18:72:43:f7:6a:89:17:dd:f6:e6:59:a7:48:29:
         45:ba:bf:5f:d6:04:3b:81:bd:1d:1a:47:1e:94:c8:a8:fd:8c:
         db:40:9f:fd:91:88:d7:1a:5a:cd:be:d4:15:7e:e4:59:68:05:
         35:f7:28:00:a3:59:45:ad:f5:c0:63:73:eb:2d:89:a7:d5:91:
         88:37:fd:16:85:fb:fb:58:91:0d:59:15:8e:c4:f8:70:31:cd:
         92:70:d4:aa
-----BEGIN CERTIFICATE-----
MIIEoTCCA4mgAwIBAgIGCgsMDQ5TMA0GCSqGSIb3DQEBCwUAMIGGMRcwFQYDVQQD
FA5CQU5HQUxPUkVDQV9DQTELMAkGA1UEBhMCSU4xDzANBgNVBAoTBkNJVFJJWDEM
MAoGA1UECxMDQU5HMQswCQYDVQQIEwJLQTEyMDAGCSqGSIb3DQEJARYjQkFOR0FM
T1JFQ0FfQ0FAQkFOR0FMT1JFQ0FfbWFpbC5jb20wHhcNMTcwODIzMDkwNjU3WhcN
MjcwODIxMDkwNjU3WjBmMQswCQYDVQQIEwJLQTELMAkGA1UEBhMCSU4xFjAUBgNV
BAMUDWJscl8yOV9jbGllbnQxITAfBgkqhkiG9w0BCQEWEmJscl8yOUB0ZXN0X2Nh
LmNvbTEPMA0GA1UEChMGQ0lUUklYMIIBIjANBgkqhkiG9w0BAQEFAAOCAQ8AMIIB
CgKCAQEAuW9w9/k/ZfGIDC/aoiMDuvHean5Pb61sM5U+wmmSzmmbBAPrEpdaxnI8
cuQA+v2U8xCYigqrzpaPKOUoCEcXq14T3ApNnuMyy1fH7DeYYDrmFgpoVSux+8OA
u2Q129n16TG4BftXBsRsSNDzWx/4jA4hZd2QKV42DMXVI3+A9sG9GUzQjybp/urj
UTN2qaYdyKzbmz4w2nReieQutuuVW+axppLHK26tr7v3gzTa4hcAE8O4bftqfSL5
bnnactfeFbajgtF3xl3g8HsavYSqu38nJ6Qv6vzE94RptOm7wpOwHw4OIuE/52uG
avy1S9VQjoBoJW+Iq3yEmQIIzd9f4wIDAQABo4IBMjCCAS4wEQYJYIZIAYb4QgEB
BAQDAgeAMB0GA1UdDgQWBBQElxw2191rQIibn19MqrR+u3wl0TCBuwYDVR0jBIGz
MIGwgBQ71tFTGIcFIrvuww/1zg9ropOnuKGBjKSBiTCBhjEXMBUGA1UEAxQOQkFO
R0FMT1JFQ0FfQ0ExCzAJBgNVBAYTAklOMQ8wDQYDVQQKEwZDSVRSSVgxDDAKBgNV
BAsTA0FORzELMAkGA1UECBMCS0ExMjAwBgkqhkiG9w0BCQEWI0JBTkdBTE9SRUNB
X0NBQEJBTkdBTE9SRUNBX21haWwuY29tggkAoay02kZTWEAwPAYIKwYBBQUHAQEE
MDAuMCwGCCsGAQUFBzABhiBodHRwOi8vMTcyLjE2LjIwLjEvcmVzcG9uZGVycGF0
aDANBgkqhkiG9w0BAQsFAAOCAQEASG/ibP4x7EblwGyhyGq/7eYXEefTYg3qBTaz
8OdUIKZcCrxyDaoJLq+sdhZGYYrea7pb0mBGDA8/cQht7wCLHXUXoHzqB6n67TnI
mMnylIhkix36HxtLO3xGbDeo7aUT2wDSLdZ354TOJekzkdfw1i4URBW7+2bx5I71
Iau1jhDaaFnI2Rp09IEgizYTsk3B1HYfepOaAAKJbJ5mhUi5olfrZiS13hhyQ/dq
iRfd9uZZp0gpRbq/X9YEO4G9HRpHHpTIqP2M20Cf/ZGI1xpazb7UFX7kWWgFNfco
AKNZRa31wGNz6y2Jp9WRiDf9FoX7+1iRDVkVjsT4cDHNknDUqg==
-----END CERTIFICATE-----
