Certificate:
    Data:
        Version: 3 (0x2)
        Serial Number: 11042563100222 (0xa0b0c0d0e3e)
    Signature Algorithm: sha256WithRSAEncryption
        Issuer: CN=BANGALORECA_CA, C=IN, O=CITRIX, OU=ANG, ST=KA/emailAddress=BANGALORECA_CA@BANGALORECA_mail.com
        Validity
            Not Before: Aug 23 09:06:44 2017 GMT
            Not After : Aug 21 09:06:44 2027 GMT
        Subject: ST=KA, C=IN, CN=blr_8_client/emailAddress=blr_8@test_ca.com, O=CITRIX
        Subject Public Key Info:
            Public Key Algorithm: rsaEncryption
                Public-Key: (2048 bit)
                Modulus:
                    00:9c:10:fe:56:54:e5:fe:f2:4c:fb:5a:a2:93:ab:
                    37:cb:63:59:79:87:49:ae:73:3f:23:3f:aa:8a:b0:
                    42:1a:97:21:65:ea:98:ae:f4:79:63:3f:b3:fa:fd:
                    a5:4a:0f:89:c4:bb:ef:99:0e:4a:b7:39:8e:ab:70:
                    f4:26:61:57:a3:69:13:c5:ca:f6:fb:b5:80:6a:dd:
                    bd:26:76:4f:82:c5:a8:01:22:72:3d:00:74:be:82:
                    8c:94:43:cb:90:7c:68:9c:55:9c:b1:56:17:84:e8:
                    21:55:0f:9b:f4:e6:e1:b6:ce:80:50:5a:f2:0e:84:
                    f9:fe:dd:0d:9d:67:f2:a9:61:ba:cd:62:76:34:20:
                    63:d4:93:10:b3:75:2b:8c:4b:4f:91:24:a4:c7:f4:
                    f2:bd:73:f7:4b:69:25:c4:cb:2a:de:af:ec:ca:64:
                    70:c9:9d:62:c0:e1:1e:2b:37:9f:6e:72:9b:88:e8:
                    10:e3:b4:d2:32:da:6e:b3:11:dc:27:58:d8:e4:5c:
                    64:57:78:33:c3:a2:78:b8:b4:c3:72:c0:63:47:34:
                    99:85:a0:5c:ae:c0:65:d4:6b:a2:c1:9f:2c:9c:af:
                    36:ab:d5:78:c6:73:d9:03:40:58:cf:70:10:65:9d:
                    c1:92:67:1d:bb:c8:55:79:a1:e6:2e:f1:a3:d4:91:
                    8a:c9
                Exponent: 65537 (0x10001)
        X509v3 extensions:
            Netscape Cert Type: 
                SSL Client
            X509v3 Subject Key Identifier: 
                54:1A:9F:E1:3B:35:F8:20:A9:2E:30:82:BC:A7:75:AB:1A:E6:67:04
            X509v3 Authority Key Identifier: 
                keyid:3B:D6:D1:53:18:87:05:22:BB:EE:C3:0F:F5:CE:0F:6B:A2:93:A7:B8
                DirName:/CN=BANGALORECA_CA/C=IN/O=CITRIX/OU=ANG/ST=KA/emailAddress=BANGALORECA_CA@BANGALORECA_mail.com
                serial:A1:AC:B4:DA:46:53:58:40

            Authority Information Access: 
                OCSP - URI:http://172.16.20.1/responderpath

    Signature Algorithm: sha256WithRSAEncryption
         47:b4:ca:5d:fa:ee:21:3e:8e:f4:4d:22:43:3c:1c:fe:c8:75:
         05:e8:4c:6f:9d:f8:45:2a:79:b8:93:f1:76:c3:f2:d4:26:0a:
         6c:6e:b9:8b:f1:02:f5:78:28:f0:b4:bf:05:d2:fe:43:57:3c:
         52:cc:f8:09:d7:e1:24:cc:3e:dd:5a:56:ab:88:56:25:92:7a:
         72:07:7b:c1:38:41:78:53:60:77:4b:24:b6:2b:50:84:c8:48:
         7b:61:b7:94:c2:f2:f5:71:8d:71:3f:6e:d8:ca:b8:2b:9c:e0:
         10:ca:b6:f6:99:ce:2b:47:cb:ee:55:e3:c7:b2:3b:58:45:10:
         b6:de:53:34:8f:f3:9a:d6:f0:9a:10:d6:53:30:5b:d2:57:2e:
         c1:ff:d5:d4:61:12:ab:b5:36:37:29:db:2d:dc:45:5b:62:cd:
         a3:ba:fd:a4:07:c1:ec:f3:ef:11:60:08:70:75:a5:e5:fb:e2:
         5c:e4:61:b4:24:df:7d:ce:a5:29:99:a4:7f:dd:b7:d9:0b:ef:
         c9:2b:7f:79:1c:71:25:04:8c:ce:97:7e:b1:73:0b:5e:47:3b:
         f4:17:34:7c:69:b5:7f:8d:31:67:d8:49:b1:8d:99:a1:b8:f2:
         9b:bf:28:d3:40:08:f7:7b:26:0f:d5:07:94:7c:07:6a:a7:db:
         af:f3:17:0b
-----BEGIN CERTIFICATE-----
MIIEnzCCA4egAwIBAgIGCgsMDQ4+MA0GCSqGSIb3DQEBCwUAMIGGMRcwFQYDVQQD
FA5CQU5HQUxPUkVDQV9DQTELMAkGA1UEBhMCSU4xDzANBgNVBAoTBkNJVFJJWDEM
MAoGA1UECxMDQU5HMQswCQYDVQQIEwJLQTEyMDAGCSqGSIb3DQEJARYjQkFOR0FM
T1JFQ0FfQ0FAQkFOR0FMT1JFQ0FfbWFpbC5jb20wHhcNMTcwODIzMDkwNjQ0WhcN
MjcwODIxMDkwNjQ0WjBkMQswCQYDVQQIEwJLQTELMAkGA1UEBhMCSU4xFTATBgNV
BAMUDGJscl84X2NsaWVudDEgMB4GCSqGSIb3DQEJARYRYmxyXzhAdGVzdF9jYS5j
b20xDzANBgNVBAoTBkNJVFJJWDCCASIwDQYJKoZIhvcNAQEBBQADggEPADCCAQoC
ggEBAJwQ/lZU5f7yTPtaopOrN8tjWXmHSa5zPyM/qoqwQhqXIWXqmK70eWM/s/r9
pUoPicS775kOSrc5jqtw9CZhV6NpE8XK9vu1gGrdvSZ2T4LFqAEicj0AdL6CjJRD
y5B8aJxVnLFWF4ToIVUPm/Tm4bbOgFBa8g6E+f7dDZ1n8qlhus1idjQgY9STELN1
K4xLT5EkpMf08r1z90tpJcTLKt6v7MpkcMmdYsDhHis3n25ym4joEOO00jLabrMR
3CdY2ORcZFd4M8OieLi0w3LAY0c0mYWgXK7AZdRrosGfLJyvNqvVeMZz2QNAWM9w
EGWdwZJnHbvIVXmh5i7xo9SRiskCAwEAAaOCATIwggEuMBEGCWCGSAGG+EIBAQQE
AwIHgDAdBgNVHQ4EFgQUVBqf4Ts1+CCpLjCCvKd1qxrmZwQwgbsGA1UdIwSBszCB
sIAUO9bRUxiHBSK77sMP9c4Pa6KTp7ihgYykgYkwgYYxFzAVBgNVBAMUDkJBTkdB
TE9SRUNBX0NBMQswCQYDVQQGEwJJTjEPMA0GA1UEChMGQ0lUUklYMQwwCgYDVQQL
EwNBTkcxCzAJBgNVBAgTAktBMTIwMAYJKoZIhvcNAQkBFiNCQU5HQUxPUkVDQV9D
QUBCQU5HQUxPUkVDQV9tYWlsLmNvbYIJAKGstNpGU1hAMDwGCCsGAQUFBwEBBDAw
LjAsBggrBgEFBQcwAYYgaHR0cDovLzE3Mi4xNi4yMC4xL3Jlc3BvbmRlcnBhdGgw
DQYJKoZIhvcNAQELBQADggEBAEe0yl367iE+jvRNIkM8HP7IdQXoTG+d+EUqebiT
8XbD8tQmCmxuuYvxAvV4KPC0vwXS/kNXPFLM+AnX4STMPt1aVquIViWSenIHe8E4
QXhTYHdLJLYrUITISHtht5TC8vVxjXE/btjKuCuc4BDKtvaZzitHy+5V48eyO1hF
ELbeUzSP85rW8JoQ1lMwW9JXLsH/1dRhEqu1Njcp2y3cRVtizaO6/aQHwezz7xFg
CHB1peX74lzkYbQk333OpSmZpH/dt9kL78krf3kccSUEjM6XfrFzC15HO/QXNHxp
tX+NMWfYSbGNmaG48pu/KNNACPd7Jg/VB5R8B2qn26/zFws=
-----END CERTIFICATE-----
