Certificate:
    Data:
        Version: 3 (0x2)
        Serial Number: 11042563100233 (0xa0b0c0d0e49)
    Signature Algorithm: sha256WithRSAEncryption
        Issuer: CN=BANGALORECA_CA, C=IN, O=CITRIX, OU=ANG, ST=KA/emailAddress=BANGALORECA_CA@BANGALORECA_mail.com
        Validity
            Not Before: Aug 23 09:06:51 2017 GMT
            Not After : Aug 21 09:06:51 2027 GMT
        Subject: ST=KA, C=IN, CN=blr_19_client/emailAddress=blr_19@test_ca.com, O=CITRIX
        Subject Public Key Info:
            Public Key Algorithm: rsaEncryption
                Public-Key: (2048 bit)
                Modulus:
                    00:dd:e3:74:55:0a:27:0f:00:8c:55:5f:c2:8b:ea:
                    dc:e0:e3:8e:74:75:cd:76:cf:10:aa:ec:28:05:24:
                    b8:85:17:67:23:2f:f4:0c:4d:2d:6a:39:8c:39:5f:
                    93:51:3a:6d:d9:dc:ca:da:85:57:b2:e9:34:62:92:
                    86:f0:64:f7:04:31:dd:fb:ba:1a:7e:30:5d:86:1e:
                    d3:ea:a6:0e:19:48:f1:50:0f:06:e2:fa:95:4a:1f:
                    c5:94:b9:9f:ac:e9:2b:dc:5e:25:e7:d7:67:90:f0:
                    05:15:a4:79:9d:59:c1:fa:5f:f4:c8:ab:f3:56:8e:
                    c8:7d:f3:74:41:0c:63:1a:ab:bd:d6:e9:31:0d:d8:
                    bd:b4:30:dc:c3:1a:ad:8a:71:70:ca:25:f9:62:f8:
                    17:20:96:a6:33:91:23:6b:34:ba:fe:b0:0c:8f:c4:
                    9d:81:4b:84:83:5d:8e:47:4d:4b:f7:f5:7c:65:92:
                    c5:71:fc:b9:43:f9:b6:52:9d:24:09:15:da:db:22:
                    6c:89:4a:37:e7:66:59:93:84:63:37:8a:6b:68:17:
                    e5:5b:a0:7a:4a:75:72:e2:5d:49:1f:d0:3c:85:f3:
                    9d:79:33:14:a7:df:4d:aa:74:ea:6b:fb:bd:dd:c4:
                    07:cb:3e:42:7f:e7:ac:e2:87:41:1b:ec:d2:ac:97:
                    4d:ab
                Exponent: 65537 (0x10001)
        X509v3 extensions:
            Netscape Cert Type: 
                SSL Client
            X509v3 Subject Key Identifier: 
                95:92:A5:7F:2C:91:48:48:3E:90:33:03:93:DB:0C:D1:4F:DB:08:BA
            X509v3 Authority Key Identifier: 
                keyid:3B:D6:D1:53:18:87:05:22:BB:EE:C3:0F:F5:CE:0F:6B:A2:93:A7:B8
                DirName:/CN=BANGALORECA_CA/C=IN/O=CITRIX/OU=ANG/ST=KA/emailAddress=BANGALORECA_CA@BANGALORECA_mail.com
                serial:A1:AC:B4:DA:46:53:58:40

            Authority Information Access: 
                OCSP - URI:http://172.16.20.1/responderpath

    Signature Algorithm: sha256WithRSAEncryption
         3b:c7:9e:3a:00:2a:8b:40:9a:c3:26:dd:0a:3a:08:63:5d:57:
         be:e4:c4:89:46:e0:ee:ca:59:b3:82:e7:c9:7e:d6:c3:73:38:
         20:bd:15:bd:a8:ac:99:b2:bc:30:9b:e7:99:e5:90:71:7a:32:
         3d:05:a0:0f:ea:1b:41:c6:45:00:01:82:4d:c6:aa:8d:32:8a:
         84:87:a1:62:0d:89:d5:12:88:74:6d:22:05:c4:ad:26:1e:93:
         9c:b5:2d:43:88:77:b3:cf:30:08:54:44:1f:26:ef:8e:c9:11:
         57:b2:3e:9d:b9:3b:94:f1:8c:32:d3:66:0e:dc:a1:0e:df:5a:
         8a:3c:30:ea:62:0b:e6:25:be:85:86:15:cb:3d:e3:49:3a:42:
         ee:24:0b:c2:3f:49:ac:38:61:76:9a:41:8e:88:8f:b1:7a:40:
         28:c1:f8:99:8c:39:43:db:74:08:1d:02:5e:88:f6:29:25:eb:
         5b:57:46:38:6f:cd:49:45:33:51:b7:bf:49:1f:7f:da:ce:bc:
         82:7e:93:32:69:cb:72:c2:b8:e0:f8:04:88:a0:92:79:8d:40:
         36:da:f2:9b:bd:0d:d3:b8:8f:0f:e8:dd:8d:a1:fd:3e:7d:ad:
         e7:b9:06:bb:3a:28:f3:0c:53:08:63:6f:57:95:f1:9c:a8:5c:
         91:a2:6e:57
-----BEGIN CERTIFICATE-----
MIIEoTCCA4mgAwIBAgIGCgsMDQ5JMA0GCSqGSIb3DQEBCwUAMIGGMRcwFQYDVQQD
FA5CQU5HQUxPUkVDQV9DQTELMAkGA1UEBhMCSU4xDzANBgNVBAoTBkNJVFJJWDEM
MAoGA1UECxMDQU5HMQswCQYDVQQIEwJLQTEyMDAGCSqGSIb3DQEJARYjQkFOR0FM
T1JFQ0FfQ0FAQkFOR0FMT1JFQ0FfbWFpbC5jb20wHhcNMTcwODIzMDkwNjUxWhcN
MjcwODIxMDkwNjUxWjBmMQswCQYDVQQIEwJLQTELMAkGA1UEBhMCSU4xFjAUBgNV
BAMUDWJscl8xOV9jbGllbnQxITAfBgkqhkiG9w0BCQEWEmJscl8xOUB0ZXN0X2Nh
LmNvbTEPMA0GA1UEChMGQ0lUUklYMIIBIjANBgkqhkiG9w0BAQEFAAOCAQ8AMIIB
CgKCAQEA3eN0VQonDwCMVV/Ci+rc4OOOdHXNds8QquwoBSS4hRdnIy/0DE0tajmM
OV+TUTpt2dzK2oVXsuk0YpKG8GT3BDHd+7oafjBdhh7T6qYOGUjxUA8G4vqVSh/F
lLmfrOkr3F4l59dnkPAFFaR5nVnB+l/0yKvzVo7IffN0QQxjGqu91ukxDdi9tDDc
wxqtinFwyiX5YvgXIJamM5EjazS6/rAMj8SdgUuEg12OR01L9/V8ZZLFcfy5Q/m2
Up0kCRXa2yJsiUo352ZZk4RjN4praBflW6B6SnVy4l1JH9A8hfOdeTMUp99NqnTq
a/u93cQHyz5Cf+es4odBG+zSrJdNqwIDAQABo4IBMjCCAS4wEQYJYIZIAYb4QgEB
BAQDAgeAMB0GA1UdDgQWBBSVkqV/LJFISD6QMwOT2wzRT9sIujCBuwYDVR0jBIGz
MIGwgBQ71tFTGIcFIrvuww/1zg9ropOnuKGBjKSBiTCBhjEXMBUGA1UEAxQOQkFO
R0FMT1JFQ0FfQ0ExCzAJBgNVBAYTAklOMQ8wDQYDVQQKEwZDSVRSSVgxDDAKBgNV
BAsTA0FORzELMAkGA1UECBMCS0ExMjAwBgkqhkiG9w0BCQEWI0JBTkdBTE9SRUNB
X0NBQEJBTkdBTE9SRUNBX21haWwuY29tggkAoay02kZTWEAwPAYIKwYBBQUHAQEE
MDAuMCwGCCsGAQUFBzABhiBodHRwOi8vMTcyLjE2LjIwLjEvcmVzcG9uZGVycGF0
aDANBgkqhkiG9w0BAQsFAAOCAQEAO8eeOgAqi0CawybdCjoIY11XvuTEiUbg7spZ
s4LnyX7Ww3M4IL0VvaismbK8MJvnmeWQcXoyPQWgD+obQcZFAAGCTcaqjTKKhIeh
Yg2J1RKIdG0iBcStJh6TnLUtQ4h3s88wCFREHybvjskRV7I+nbk7lPGMMtNmDtyh
Dt9aijww6mIL5iW+hYYVyz3jSTpC7iQLwj9JrDhhdppBjoiPsXpAKMH4mYw5Q9t0
CB0CXoj2KSXrW1dGOG/NSUUzUbe/SR9/2s68gn6TMmnLcsK44PgEiKCSeY1ANtry
m70N07iPD+jdjaH9Pn2t57kGuzoo8wxTCGNvV5XxnKhckaJuVw==
-----END CERTIFICATE-----
