Certificate:
    Data:
        Version: 3 (0x2)
        Serial Number: 11042563100252 (0xa0b0c0d0e5c)
    Signature Algorithm: sha256WithRSAEncryption
        Issuer: CN=BANGALORECA_CA, C=IN, O=CITRIX, OU=ANG, ST=KA/emailAddress=BANGALORECA_CA@BANGALORECA_mail.com
        Validity
            Not Before: Aug 23 09:07:02 2017 GMT
            Not After : Aug 21 09:07:02 2027 GMT
        Subject: ST=KA, C=IN, CN=blr_38_client/emailAddress=blr_38@test_ca.com, O=CITRIX
        Subject Public Key Info:
            Public Key Algorithm: rsaEncryption
                Public-Key: (2048 bit)
                Modulus:
                    00:e5:48:ec:2b:27:0e:6b:af:cf:d9:eb:f9:21:db:
                    5d:c5:40:e0:02:49:25:0b:60:a9:87:d2:2b:79:2e:
                    83:3f:17:99:0b:71:aa:2b:66:e1:e4:7a:02:13:00:
                    bf:32:b8:e6:49:a2:7a:ea:25:39:00:8c:d9:cd:56:
                    ae:00:84:86:cb:98:d7:6c:a7:ea:5a:7c:2c:08:65:
                    09:71:fa:60:17:69:d8:32:a7:78:29:ef:a8:32:c3:
                    8a:6f:ec:52:23:b2:d4:3c:cd:cb:dc:36:f8:c5:de:
                    5b:7d:d9:24:48:60:b9:20:26:4d:80:c0:e6:b5:db:
                    70:6e:75:f1:04:0b:09:cd:a2:eb:4e:f5:6c:a0:d0:
                    08:47:6c:e2:41:78:fc:ca:f7:e7:e7:c9:d6:a5:48:
                    30:e7:b2:a6:44:15:2f:6f:82:39:64:01:a3:74:08:
                    0e:16:95:8f:32:ce:f4:48:fd:4f:41:7f:3e:24:92:
                    3f:9b:61:a6:7d:7c:e7:4d:d2:1f:69:8d:92:c1:67:
                    89:84:37:76:98:7e:fc:a4:8f:8e:ea:76:24:3e:50:
                    cc:a7:ee:a6:b9:aa:8d:33:e1:38:50:bf:30:c8:eb:
                    68:fd:a7:25:fc:bd:74:2c:1b:65:a3:34:f6:77:80:
                    b1:c1:ef:38:ba:01:6d:23:8b:50:fe:bd:b5:af:ce:
                    25:b3
                Exponent: 65537 (0x10001)
        X509v3 extensions:
            Netscape Cert Type: 
                SSL Client
            X509v3 Subject Key Identifier: 
                B3:7D:3C:1A:3B:AB:F7:5D:A0:D1:20:9D:43:8C:FE:AD:80:38:C6:9E
            X509v3 Authority Key Identifier: 
                keyid:3B:D6:D1:53:18:87:05:22:BB:EE:C3:0F:F5:CE:0F:6B:A2:93:A7:B8
                DirName:/CN=BANGALORECA_CA/C=IN/O=CITRIX/OU=ANG/ST=KA/emailAddress=BANGALORECA_CA@BANGALORECA_mail.com
                serial:A1:AC:B4:DA:46:53:58:40

            Authority Information Access: 
                OCSP - URI:http://172.16.20.1/responderpath

    Signature Algorithm: sha256WithRSAEncryption
         4a:a1:17:6e:26:38:95:6a:0b:da:3d:37:ea:7b:b6:e2:1a:53:
         1d:72:a2:ef:f2:06:f8:0e:3e:5f:60:2d:b3:7e:5d:42:4f:85:
         90:79:21:af:e1:fb:87:2b:01:59:31:b9:f6:59:91:75:e1:6b:
         a0:d8:18:d5:d1:e5:73:b2:d4:e3:27:d9:20:d0:ec:df:51:23:
         4d:c7:9b:58:9f:f5:81:a3:e1:ba:58:b3:c6:4a:52:8c:c0:b7:
         a9:ad:f6:5a:4f:5b:92:9a:80:69:63:76:57:69:e9:60:a7:0f:
         e8:b5:39:b8:87:85:1c:5b:50:b9:69:15:ca:10:2e:cc:ec:84:
         4d:f9:a1:8b:a9:93:3e:b8:d4:4c:63:d9:3b:1f:fa:c8:a6:a4:
         63:ff:6a:5c:8c:86:20:78:c0:b9:6d:9c:bb:86:9b:4c:d4:02:
         17:25:1c:6c:a6:9e:26:0c:73:87:11:98:e7:da:60:8e:e0:00:
         de:9b:78:b7:71:72:8d:3f:01:59:75:b0:35:d6:e9:0d:74:de:
         bd:8a:80:ad:3f:ed:f9:45:11:3d:04:bc:3c:38:19:53:39:84:
         2c:8a:50:2f:97:87:ca:a4:29:82:e0:8a:f6:08:a2:ec:f2:80:
         59:95:af:10:35:a8:16:b3:5d:23:b3:58:49:2c:86:11:eb:5d:
         63:8f:2b:9f
-----BEGIN CERTIFICATE-----
MIIEoTCCA4mgAwIBAgIGCgsMDQ5cMA0GCSqGSIb3DQEBCwUAMIGGMRcwFQYDVQQD
FA5CQU5HQUxPUkVDQV9DQTELMAkGA1UEBhMCSU4xDzANBgNVBAoTBkNJVFJJWDEM
MAoGA1UECxMDQU5HMQswCQYDVQQIEwJLQTEyMDAGCSqGSIb3DQEJARYjQkFOR0FM
T1JFQ0FfQ0FAQkFOR0FMT1JFQ0FfbWFpbC5jb20wHhcNMTcwODIzMDkwNzAyWhcN
MjcwODIxMDkwNzAyWjBmMQswCQYDVQQIEwJLQTELMAkGA1UEBhMCSU4xFjAUBgNV
BAMUDWJscl8zOF9jbGllbnQxITAfBgkqhkiG9w0BCQEWEmJscl8zOEB0ZXN0X2Nh
LmNvbTEPMA0GA1UEChMGQ0lUUklYMIIBIjANBgkqhkiG9w0BAQEFAAOCAQ8AMIIB
CgKCAQEA5UjsKycOa6/P2ev5IdtdxUDgAkklC2Cph9IreS6DPxeZC3GqK2bh5HoC
EwC/MrjmSaJ66iU5AIzZzVauAISGy5jXbKfqWnwsCGUJcfpgF2nYMqd4Ke+oMsOK
b+xSI7LUPM3L3Db4xd5bfdkkSGC5ICZNgMDmtdtwbnXxBAsJzaLrTvVsoNAIR2zi
QXj8yvfn58nWpUgw57KmRBUvb4I5ZAGjdAgOFpWPMs70SP1PQX8+JJI/m2GmfXzn
TdIfaY2SwWeJhDd2mH78pI+O6nYkPlDMp+6muaqNM+E4UL8wyOto/acl/L10LBtl
ozT2d4Cxwe84ugFtI4tQ/r21r84lswIDAQABo4IBMjCCAS4wEQYJYIZIAYb4QgEB
BAQDAgeAMB0GA1UdDgQWBBSzfTwaO6v3XaDRIJ1DjP6tgDjGnjCBuwYDVR0jBIGz
MIGwgBQ71tFTGIcFIrvuww/1zg9ropOnuKGBjKSBiTCBhjEXMBUGA1UEAxQOQkFO
R0FMT1JFQ0FfQ0ExCzAJBgNVBAYTAklOMQ8wDQYDVQQKEwZDSVRSSVgxDDAKBgNV
BAsTA0FORzELMAkGA1UECBMCS0ExMjAwBgkqhkiG9w0BCQEWI0JBTkdBTE9SRUNB
X0NBQEJBTkdBTE9SRUNBX21haWwuY29tggkAoay02kZTWEAwPAYIKwYBBQUHAQEE
MDAuMCwGCCsGAQUFBzABhiBodHRwOi8vMTcyLjE2LjIwLjEvcmVzcG9uZGVycGF0
aDANBgkqhkiG9w0BAQsFAAOCAQEASqEXbiY4lWoL2j036nu24hpTHXKi7/IG+A4+
X2Ats35dQk+FkHkhr+H7hysBWTG59lmRdeFroNgY1dHlc7LU4yfZINDs31EjTceb
WJ/1gaPhulizxkpSjMC3qa32Wk9bkpqAaWN2V2npYKcP6LU5uIeFHFtQuWkVyhAu
zOyETfmhi6mTPrjUTGPZOx/6yKakY/9qXIyGIHjAuW2cu4abTNQCFyUcbKaeJgxz
hxGY59pgjuAA3pt4t3FyjT8BWXWwNdbpDXTevYqArT/t+UURPQS8PDgZUzmELIpQ
L5eHyqQpguCK9gii7PKAWZWvEDWoFrNdI7NYSSyGEetdY48rnw==
-----END CERTIFICATE-----
