Certificate:
    Data:
        Version: 3 (0x2)
        Serial Number: 11042563100244 (0xa0b0c0d0e54)
    Signature Algorithm: sha256WithRSAEncryption
        Issuer: CN=BANGALORECA_CA, C=IN, O=CITRIX, OU=ANG, ST=KA/emailAddress=BANGALORECA_CA@BANGALORECA_mail.com
        Validity
            Not Before: Aug 23 09:06:58 2017 GMT
            Not After : Aug 21 09:06:58 2027 GMT
        Subject: ST=KA, C=IN, CN=blr_30_client/emailAddress=blr_30@test_ca.com, O=CITRIX
        Subject Public Key Info:
            Public Key Algorithm: rsaEncryption
                Public-Key: (2048 bit)
                Modulus:
                    00:dc:3d:d2:42:35:96:bf:af:44:78:c7:53:b1:aa:
                    11:30:dd:c2:2b:d4:15:9c:e9:b1:60:bb:1e:d5:42:
                    a1:60:61:71:cc:e2:52:b1:5e:a8:c8:da:58:c3:3b:
                    bb:84:19:75:ab:e5:d7:1c:f7:1f:0a:25:da:ed:ac:
                    b8:6c:25:0c:13:73:48:bc:84:29:69:17:ca:1f:72:
                    44:9a:36:ad:39:51:a2:11:cb:29:a8:af:6e:d3:77:
                    d7:b1:fa:0d:53:d8:13:30:4d:59:2a:1b:2e:c9:86:
                    27:0c:cb:1f:60:7e:7b:59:49:7b:85:1d:33:27:04:
                    60:44:aa:ff:c4:6b:23:d1:bb:cb:36:6e:e6:c0:73:
                    7c:0e:83:9b:7c:86:81:f5:5d:7d:ce:4f:0c:38:42:
                    11:12:c8:bb:65:5b:27:e8:69:9b:ce:a9:7b:e8:7e:
                    35:77:c6:df:4e:1d:52:0c:47:c2:69:b9:19:52:1c:
                    68:e7:ee:b9:e4:35:22:b8:cc:9c:28:7b:43:d4:b4:
                    a0:d4:3c:72:28:32:7b:84:5b:30:38:6a:20:fe:11:
                    ed:89:b5:23:4a:49:c2:dd:0e:48:dd:bb:66:4d:d6:
                    1e:71:81:de:2b:21:42:9d:3e:cb:15:d1:a9:10:bb:
                    dd:7c:da:7a:87:89:61:20:33:21:36:e3:8c:a4:61:
                    4a:11
                Exponent: 65537 (0x10001)
        X509v3 extensions:
            Netscape Cert Type: 
                SSL Client
            X509v3 Subject Key Identifier: 
                B4:06:B5:AC:CF:CD:A6:EC:E5:1C:B0:31:8C:13:63:E9:9E:B3:6A:D1
            X509v3 Authority Key Identifier: 
                keyid:3B:D6:D1:53:18:87:05:22:BB:EE:C3:0F:F5:CE:0F:6B:A2:93:A7:B8
                DirName:/CN=BANGALORECA_CA/C=IN/O=CITRIX/OU=ANG/ST=KA/emailAddress=BANGALORECA_CA@BANGALORECA_mail.com
                serial:A1:AC:B4:DA:46:53:58:40

            Authority Information Access: 
                OCSP - URI:http://172.16.20.1/responderpath

    Signature Algorithm: sha256WithRSAEncryption
         82:bd:1d:c9:a2:ef:39:56:f0:e3:0d:fb:ac:36:18:8d:43:bb:
         80:87:40:a1:02:f2:92:9a:42:40:32:d4:68:91:9f:a2:d5:68:
         57:5f:b6:b0:3a:62:67:f9:94:ba:ee:d8:6f:4d:3b:0e:26:59:
         6f:7a:25:d8:d5:d0:cb:f3:d2:93:84:2e:32:44:9b:1d:6f:06:
         ea:ae:1b:50:cf:be:e5:bc:0d:58:ee:12:5e:37:c7:5f:06:d9:
         fa:07:9a:24:33:05:e2:d3:d4:56:b0:e7:a7:ed:23:ed:08:95:
         6e:0a:60:29:cc:06:79:3d:de:26:bf:a2:65:92:7f:ed:98:81:
         cf:d0:93:0c:f5:57:be:83:65:51:04:fa:bb:48:3d:00:e9:26:
         fc:0b:da:30:a0:c0:7b:aa:21:71:4d:a8:46:cd:47:e1:63:80:
         ab:20:34:d5:ca:09:5a:8d:3f:34:b2:66:d0:a5:2b:99:be:5a:
         b6:fb:60:ef:7d:4f:13:56:2f:6e:42:45:d9:3b:ff:8a:7d:4e:
         0f:bf:47:9b:29:f0:eb:75:8d:e5:7a:56:11:a7:82:98:0c:56:
         93:9b:b8:23:95:a3:c1:2f:1d:87:6b:61:c9:d6:04:21:b3:bd:
         60:cf:66:b7:8c:8e:55:c4:93:1f:fb:2a:4e:96:e5:89:71:7c:
         82:3e:6b:0c
-----BEGIN CERTIFICATE-----
MIIEoTCCA4mgAwIBAgIGCgsMDQ5UMA0GCSqGSIb3DQEBCwUAMIGGMRcwFQYDVQQD
FA5CQU5HQUxPUkVDQV9DQTELMAkGA1UEBhMCSU4xDzANBgNVBAoTBkNJVFJJWDEM
MAoGA1UECxMDQU5HMQswCQYDVQQIEwJLQTEyMDAGCSqGSIb3DQEJARYjQkFOR0FM
T1JFQ0FfQ0FAQkFOR0FMT1JFQ0FfbWFpbC5jb20wHhcNMTcwODIzMDkwNjU4WhcN
MjcwODIxMDkwNjU4WjBmMQswCQYDVQQIEwJLQTELMAkGA1UEBhMCSU4xFjAUBgNV
BAMUDWJscl8zMF9jbGllbnQxITAfBgkqhkiG9w0BCQEWEmJscl8zMEB0ZXN0X2Nh
LmNvbTEPMA0GA1UEChMGQ0lUUklYMIIBIjANBgkqhkiG9w0BAQEFAAOCAQ8AMIIB
CgKCAQEA3D3SQjWWv69EeMdTsaoRMN3CK9QVnOmxYLse1UKhYGFxzOJSsV6oyNpY
wzu7hBl1q+XXHPcfCiXa7ay4bCUME3NIvIQpaRfKH3JEmjatOVGiEcspqK9u03fX
sfoNU9gTME1ZKhsuyYYnDMsfYH57WUl7hR0zJwRgRKr/xGsj0bvLNm7mwHN8DoOb
fIaB9V19zk8MOEIREsi7ZVsn6Gmbzql76H41d8bfTh1SDEfCabkZUhxo5+655DUi
uMycKHtD1LSg1DxyKDJ7hFswOGog/hHtibUjSknC3Q5I3btmTdYecYHeKyFCnT7L
FdGpELvdfNp6h4lhIDMhNuOMpGFKEQIDAQABo4IBMjCCAS4wEQYJYIZIAYb4QgEB
BAQDAgeAMB0GA1UdDgQWBBS0BrWsz82m7OUcsDGME2PpnrNq0TCBuwYDVR0jBIGz
MIGwgBQ71tFTGIcFIrvuww/1zg9ropOnuKGBjKSBiTCBhjEXMBUGA1UEAxQOQkFO
R0FMT1JFQ0FfQ0ExCzAJBgNVBAYTAklOMQ8wDQYDVQQKEwZDSVRSSVgxDDAKBgNV
BAsTA0FORzELMAkGA1UECBMCS0ExMjAwBgkqhkiG9w0BCQEWI0JBTkdBTE9SRUNB
X0NBQEJBTkdBTE9SRUNBX21haWwuY29tggkAoay02kZTWEAwPAYIKwYBBQUHAQEE
MDAuMCwGCCsGAQUFBzABhiBodHRwOi8vMTcyLjE2LjIwLjEvcmVzcG9uZGVycGF0
aDANBgkqhkiG9w0BAQsFAAOCAQEAgr0dyaLvOVbw4w37rDYYjUO7gIdAoQLykppC
QDLUaJGfotVoV1+2sDpiZ/mUuu7Yb007DiZZb3ol2NXQy/PSk4QuMkSbHW8G6q4b
UM++5bwNWO4SXjfHXwbZ+geaJDMF4tPUVrDnp+0j7QiVbgpgKcwGeT3eJr+iZZJ/
7ZiBz9CTDPVXvoNlUQT6u0g9AOkm/AvaMKDAe6ohcU2oRs1H4WOAqyA01coJWo0/
NLJm0KUrmb5atvtg731PE1YvbkJF2Tv/in1OD79Hmynw63WN5XpWEaeCmAxWk5u4
I5WjwS8dh2thydYEIbO9YM9mt4yOVcSTH/sqTpbliXF8gj5rDA==
-----END CERTIFICATE-----
