Certificate:
    Data:
        Version: 3 (0x2)
        Serial Number: 11042563100258 (0xa0b0c0d0e62)
    Signature Algorithm: sha256WithRSAEncryption
        Issuer: CN=BANGALORECA_CA, C=IN, O=CITRIX, OU=ANG, ST=KA/emailAddress=BANGALORECA_CA@BANGALORECA_mail.com
        Validity
            Not Before: Aug 23 09:07:06 2017 GMT
            Not After : Aug 21 09:07:06 2027 GMT
        Subject: ST=KA, C=IN, CN=blr_44_client/emailAddress=blr_44@test_ca.com, O=CITRIX
        Subject Public Key Info:
            Public Key Algorithm: rsaEncryption
                Public-Key: (2048 bit)
                Modulus:
                    00:c0:f5:78:bd:e3:db:0d:aa:c1:b7:1b:2a:a7:b5:
                    4a:53:1a:05:75:5f:8b:c6:63:f5:fd:d5:a7:02:da:
                    2d:8b:5d:df:ae:db:dc:f2:4c:69:b2:50:77:dd:3a:
                    6d:1e:c4:43:d5:66:17:3c:69:0b:7e:a9:dd:7b:81:
                    cd:0e:fe:60:67:3b:81:79:dc:c8:00:b4:ba:1a:6f:
                    15:e8:ff:81:46:31:e5:4e:b4:71:48:9c:66:f0:9f:
                    70:93:46:b5:ba:3f:31:ce:a9:e2:90:2c:8e:a8:ae:
                    a4:f3:9b:af:ee:88:b6:42:a8:e2:5e:48:21:93:20:
                    b9:aa:d4:9d:f1:6a:ec:6b:41:57:11:74:67:0a:71:
                    6d:3b:9b:ba:75:57:ab:e9:9b:90:54:d9:cc:60:b0:
                    51:24:37:19:45:2e:8b:1b:46:33:3e:e5:d1:c5:a9:
                    9e:3d:7e:74:5c:f7:b6:19:0a:92:30:3e:ef:d3:89:
                    db:6d:5a:51:f7:c1:ce:55:a7:e1:ad:19:d2:18:a4:
                    d1:1a:9b:f3:33:e5:45:f7:1a:c6:9f:c1:8a:ae:c7:
                    b8:46:34:4c:1d:ff:a8:fc:65:14:a5:ae:f9:46:16:
                    3b:cf:66:24:95:4c:bc:61:b3:46:65:a1:76:94:36:
                    05:6e:eb:4a:16:e4:f3:50:09:dd:3d:8a:35:22:24:
                    8b:89
                Exponent: 65537 (0x10001)
        X509v3 extensions:
            Netscape Cert Type: 
                SSL Client
            X509v3 Subject Key Identifier: 
                AE:13:20:1A:96:D5:16:31:C9:8F:92:36:95:F4:6B:23:CE:6D:00:38
            X509v3 Authority Key Identifier: 
                keyid:3B:D6:D1:53:18:87:05:22:BB:EE:C3:0F:F5:CE:0F:6B:A2:93:A7:B8
                DirName:/CN=BANGALORECA_CA/C=IN/O=CITRIX/OU=ANG/ST=KA/emailAddress=BANGALORECA_CA@BANGALORECA_mail.com
                serial:A1:AC:B4:DA:46:53:58:40

            Authority Information Access: 
                OCSP - URI:http://172.16.20.1/responderpath

    Signature Algorithm: sha256WithRSAEncryption
         6a:fc:c0:d9:14:0f:86:02:45:44:e9:40:3e:88:e0:3d:d2:c3:
         40:3a:59:fd:73:8c:72:34:38:45:20:82:89:7c:e7:d8:06:29:
         0d:44:7b:c8:f6:27:d7:5f:70:55:b0:8b:5d:3d:6a:37:73:ce:
         e4:ab:0a:93:67:07:54:2b:3e:2f:67:b5:56:2e:fa:4d:a8:33:
         47:a1:2f:5e:94:03:c8:4c:fe:fd:23:5b:0d:10:2a:84:d2:ff:
         8a:a2:e7:bb:1c:a1:73:39:95:07:4f:83:95:b8:bf:1d:1d:4a:
         59:82:e6:98:be:9d:3e:73:39:22:58:98:77:88:3f:44:61:d5:
         87:13:3f:36:21:f8:0e:05:fc:81:27:59:95:c1:f6:db:7f:c8:
         c0:f2:28:f7:e4:d6:df:0d:47:25:a7:be:44:d3:28:f0:4e:52:
         72:c6:a5:e9:a7:26:51:03:fb:ba:c2:09:82:ca:5e:3d:85:bb:
         5e:93:4f:f5:39:2a:1a:db:d4:57:76:60:5e:45:ab:88:65:48:
         5b:47:13:d2:fc:69:20:fb:52:2f:b8:b4:c3:d7:25:9c:53:da:
         d4:17:b4:83:ac:9d:a9:f1:45:e0:c9:63:5e:01:8a:ec:70:6f:
         61:f1:a6:72:03:cd:e2:f9:e4:d0:54:a6:d5:30:dc:82:36:12:
         5a:2b:cf:1f
-----BEGIN CERTIFICATE-----
MIIEoTCCA4mgAwIBAgIGCgsMDQ5iMA0GCSqGSIb3DQEBCwUAMIGGMRcwFQYDVQQD
FA5CQU5HQUxPUkVDQV9DQTELMAkGA1UEBhMCSU4xDzANBgNVBAoTBkNJVFJJWDEM
MAoGA1UECxMDQU5HMQswCQYDVQQIEwJLQTEyMDAGCSqGSIb3DQEJARYjQkFOR0FM
T1JFQ0FfQ0FAQkFOR0FMT1JFQ0FfbWFpbC5jb20wHhcNMTcwODIzMDkwNzA2WhcN
MjcwODIxMDkwNzA2WjBmMQswCQYDVQQIEwJLQTELMAkGA1UEBhMCSU4xFjAUBgNV
BAMUDWJscl80NF9jbGllbnQxITAfBgkqhkiG9w0BCQEWEmJscl80NEB0ZXN0X2Nh
LmNvbTEPMA0GA1UEChMGQ0lUUklYMIIBIjANBgkqhkiG9w0BAQEFAAOCAQ8AMIIB
CgKCAQEAwPV4vePbDarBtxsqp7VKUxoFdV+LxmP1/dWnAtoti13frtvc8kxpslB3
3TptHsRD1WYXPGkLfqnde4HNDv5gZzuBedzIALS6Gm8V6P+BRjHlTrRxSJxm8J9w
k0a1uj8xzqnikCyOqK6k85uv7oi2QqjiXkghkyC5qtSd8Wrsa0FXEXRnCnFtO5u6
dVer6ZuQVNnMYLBRJDcZRS6LG0YzPuXRxamePX50XPe2GQqSMD7v04nbbVpR98HO
VafhrRnSGKTRGpvzM+VF9xrGn8GKrse4RjRMHf+o/GUUpa75RhY7z2YklUy8YbNG
ZaF2lDYFbutKFuTzUAndPYo1IiSLiQIDAQABo4IBMjCCAS4wEQYJYIZIAYb4QgEB
BAQDAgeAMB0GA1UdDgQWBBSuEyAaltUWMcmPkjaV9Gsjzm0AODCBuwYDVR0jBIGz
MIGwgBQ71tFTGIcFIrvuww/1zg9ropOnuKGBjKSBiTCBhjEXMBUGA1UEAxQOQkFO
R0FMT1JFQ0FfQ0ExCzAJBgNVBAYTAklOMQ8wDQYDVQQKEwZDSVRSSVgxDDAKBgNV
BAsTA0FORzELMAkGA1UECBMCS0ExMjAwBgkqhkiG9w0BCQEWI0JBTkdBTE9SRUNB
X0NBQEJBTkdBTE9SRUNBX21haWwuY29tggkAoay02kZTWEAwPAYIKwYBBQUHAQEE
MDAuMCwGCCsGAQUFBzABhiBodHRwOi8vMTcyLjE2LjIwLjEvcmVzcG9uZGVycGF0
aDANBgkqhkiG9w0BAQsFAAOCAQEAavzA2RQPhgJFROlAPojgPdLDQDpZ/XOMcjQ4
RSCCiXzn2AYpDUR7yPYn119wVbCLXT1qN3PO5KsKk2cHVCs+L2e1Vi76TagzR6Ev
XpQDyEz+/SNbDRAqhNL/iqLnuxyhczmVB0+Dlbi/HR1KWYLmmL6dPnM5IliYd4g/
RGHVhxM/NiH4DgX8gSdZlcH223/IwPIo9+TW3w1HJae+RNMo8E5Scsal6acmUQP7
usIJgspePYW7XpNP9TkqGtvUV3ZgXkWriGVIW0cT0vxpIPtSL7i0w9clnFPa1Be0
g6ydqfFF4MljXgGK7HBvYfGmcgPN4vnk0FSm1TDcgjYSWivPHw==
-----END CERTIFICATE-----
