Certificate:
    Data:
        Version: 3 (0x2)
        Serial Number: 11042563100215 (0xa0b0c0d0e37)
    Signature Algorithm: sha256WithRSAEncryption
        Issuer: CN=BANGALORECA_CA, C=IN, O=CITRIX, OU=ANG, ST=KA/emailAddress=BANGALORECA_CA@BANGALORECA_mail.com
        Validity
            Not Before: Aug 23 09:01:17 2017 GMT
            Not After : Aug 21 09:01:17 2027 GMT
        Subject: ST=KA, C=IN, CN=blr_1_client/emailAddress=blr_1@test_ca.com, O=CITRIX
        Subject Public Key Info:
            Public Key Algorithm: rsaEncryption
                Public-Key: (2048 bit)
                Modulus:
                    00:bc:c5:ea:56:4b:c3:b0:2f:27:43:8c:f0:a4:17:
                    6a:6a:96:13:7b:b9:1a:fd:69:2d:bc:77:cb:9a:01:
                    d8:b6:48:78:bc:b7:23:1c:c7:c7:8b:db:c6:cb:9c:
                    85:53:27:a5:fc:fe:a3:e4:d0:1b:81:d2:ad:c0:f5:
                    cb:90:b4:4c:85:d7:ed:29:03:cd:93:87:3f:3d:8d:
                    6a:e3:d2:0e:28:ac:c8:ce:8f:6f:46:1c:14:22:a5:
                    c0:e2:02:41:7d:17:18:73:89:ba:26:43:cb:dc:82:
                    a5:34:65:5c:92:56:eb:71:0b:2e:dc:ca:8c:18:e5:
                    fa:79:10:c9:61:d5:6e:8d:df:50:c3:5e:db:95:dc:
                    d4:69:fa:2c:6a:f6:62:ea:8b:2b:b5:ab:f5:6f:cb:
                    cf:8c:16:d4:46:c2:cd:5f:19:fe:90:72:f5:95:76:
                    54:ce:ce:1a:9c:67:96:1b:df:86:9f:37:fc:ed:e5:
                    38:42:82:00:c8:43:61:de:c0:65:98:29:ec:bb:94:
                    dd:11:e9:f5:74:3b:96:16:5e:aa:cd:ef:7b:6d:dd:
                    9b:02:93:c7:17:9d:69:3e:1f:bc:85:0e:9b:24:91:
                    6b:02:c8:19:c1:2d:18:ce:33:71:72:50:ff:27:d2:
                    f9:25:a2:88:58:99:97:ff:53:f4:de:4c:95:d7:35:
                    7a:f1
                Exponent: 65537 (0x10001)
        X509v3 extensions:
            Netscape Cert Type: 
                SSL Client
            X509v3 Subject Key Identifier: 
                7F:6B:4E:9C:20:13:03:A0:5D:8E:7C:1E:D2:6E:14:91:E4:B8:D5:21
            X509v3 Authority Key Identifier: 
                keyid:3B:D6:D1:53:18:87:05:22:BB:EE:C3:0F:F5:CE:0F:6B:A2:93:A7:B8
                DirName:/CN=BANGALORECA_CA/C=IN/O=CITRIX/OU=ANG/ST=KA/emailAddress=BANGALORECA_CA@BANGALORECA_mail.com
                serial:A1:AC:B4:DA:46:53:58:40

            Authority Information Access: 
                OCSP - URI:http://172.16.20.1/responderpath

    Signature Algorithm: sha256WithRSAEncryption
         70:99:31:ca:66:81:ea:0e:46:f5:ae:8a:6e:47:23:43:9a:c2:
         ab:87:1f:c6:d8:6a:ed:3c:0e:a8:dc:ef:16:7b:31:2a:e7:28:
         53:41:4b:19:56:9f:5d:95:9d:fa:62:d5:55:e7:00:7c:32:f1:
         89:93:b8:4e:57:b2:06:6d:32:90:ea:a6:d0:e0:75:3b:ec:b0:
         36:53:84:d7:9b:90:3b:e5:e6:ae:04:41:2e:6d:a2:fe:a9:1d:
         54:d6:df:d4:64:21:ca:22:a3:5d:30:20:69:ca:65:e6:41:4a:
         4f:45:e5:3b:9a:2e:c2:29:ff:d1:78:47:1b:ca:1d:ec:34:a5:
         8a:81:5e:c1:a4:36:86:ec:9e:e6:22:8b:f2:2e:d6:02:0b:8e:
         02:aa:7d:d1:ee:7c:4d:b7:8f:9e:b6:19:79:d5:c8:e7:ce:ee:
         7e:5b:0a:92:a7:9d:f0:0e:9d:9b:49:1e:19:64:55:f1:2a:25:
         04:8b:5f:5d:a9:7d:cb:24:aa:8f:ac:f7:d9:6d:c4:4a:28:7c:
         37:2d:50:5b:3c:e9:97:16:1e:cc:bf:57:11:6c:5a:9c:d8:e0:
         8e:7b:e8:6a:f0:0e:04:02:d5:12:78:10:c7:fd:8a:3f:a7:58:
         62:7a:d0:d7:24:06:cb:ff:5c:ad:ff:82:ab:03:1b:aa:21:27:
         da:11:5f:f9
-----BEGIN CERTIFICATE-----
MIIEnzCCA4egAwIBAgIGCgsMDQ43MA0GCSqGSIb3DQEBCwUAMIGGMRcwFQYDVQQD
FA5CQU5HQUxPUkVDQV9DQTELMAkGA1UEBhMCSU4xDzANBgNVBAoTBkNJVFJJWDEM
MAoGA1UECxMDQU5HMQswCQYDVQQIEwJLQTEyMDAGCSqGSIb3DQEJARYjQkFOR0FM
T1JFQ0FfQ0FAQkFOR0FMT1JFQ0FfbWFpbC5jb20wHhcNMTcwODIzMDkwMTE3WhcN
MjcwODIxMDkwMTE3WjBkMQswCQYDVQQIEwJLQTELMAkGA1UEBhMCSU4xFTATBgNV
BAMUDGJscl8xX2NsaWVudDEgMB4GCSqGSIb3DQEJARYRYmxyXzFAdGVzdF9jYS5j
b20xDzANBgNVBAoTBkNJVFJJWDCCASIwDQYJKoZIhvcNAQEBBQADggEPADCCAQoC
ggEBALzF6lZLw7AvJ0OM8KQXamqWE3u5Gv1pLbx3y5oB2LZIeLy3IxzHx4vbxsuc
hVMnpfz+o+TQG4HSrcD1y5C0TIXX7SkDzZOHPz2NauPSDiisyM6Pb0YcFCKlwOIC
QX0XGHOJuiZDy9yCpTRlXJJW63ELLtzKjBjl+nkQyWHVbo3fUMNe25Xc1Gn6LGr2
YuqLK7Wr9W/Lz4wW1EbCzV8Z/pBy9ZV2VM7OGpxnlhvfhp83/O3lOEKCAMhDYd7A
ZZgp7LuU3RHp9XQ7lhZeqs3ve23dmwKTxxedaT4fvIUOmySRawLIGcEtGM4zcXJQ
/yfS+SWiiFiZl/9T9N5Mldc1evECAwEAAaOCATIwggEuMBEGCWCGSAGG+EIBAQQE
AwIHgDAdBgNVHQ4EFgQUf2tOnCATA6Bdjnwe0m4UkeS41SEwgbsGA1UdIwSBszCB
sIAUO9bRUxiHBSK77sMP9c4Pa6KTp7ihgYykgYkwgYYxFzAVBgNVBAMUDkJBTkdB
TE9SRUNBX0NBMQswCQYDVQQGEwJJTjEPMA0GA1UEChMGQ0lUUklYMQwwCgYDVQQL
EwNBTkcxCzAJBgNVBAgTAktBMTIwMAYJKoZIhvcNAQkBFiNCQU5HQUxPUkVDQV9D
QUBCQU5HQUxPUkVDQV9tYWlsLmNvbYIJAKGstNpGU1hAMDwGCCsGAQUFBwEBBDAw
LjAsBggrBgEFBQcwAYYgaHR0cDovLzE3Mi4xNi4yMC4xL3Jlc3BvbmRlcnBhdGgw
DQYJKoZIhvcNAQELBQADggEBAHCZMcpmgeoORvWuim5HI0OawquHH8bYau08Dqjc
7xZ7MSrnKFNBSxlWn12Vnfpi1VXnAHwy8YmTuE5XsgZtMpDqptDgdTvssDZThNeb
kDvl5q4EQS5tov6pHVTW39RkIcoio10wIGnKZeZBSk9F5TuaLsIp/9F4RxvKHew0
pYqBXsGkNobsnuYii/Iu1gILjgKqfdHufE23j562GXnVyOfO7n5bCpKnnfAOnZtJ
HhlkVfEqJQSLX12pfcskqo+s99ltxEoofDctUFs86ZcWHsy/VxFsWpzY4I576Grw
DgQC1RJ4EMf9ij+nWGJ60NckBsv/XK3/gqsDG6ohJ9oRX/k=
-----END CERTIFICATE-----
