Certificate:
    Data:
        Version: 3 (0x2)
        Serial Number: 11042563100237 (0xa0b0c0d0e4d)
    Signature Algorithm: sha256WithRSAEncryption
        Issuer: CN=BANGALORECA_CA, C=IN, O=CITRIX, OU=ANG, ST=KA/emailAddress=BANGALORECA_CA@BANGALORECA_mail.com
        Validity
            Not Before: Aug 23 09:06:54 2017 GMT
            Not After : Aug 21 09:06:54 2027 GMT
        Subject: ST=KA, C=IN, CN=blr_23_client/emailAddress=blr_23@test_ca.com, O=CITRIX
        Subject Public Key Info:
            Public Key Algorithm: rsaEncryption
                Public-Key: (2048 bit)
                Modulus:
                    00:cb:d4:d0:6c:aa:53:aa:75:da:cf:5f:12:48:6d:
                    34:c3:d6:50:41:b9:78:d1:62:f8:e7:1a:2d:cc:44:
                    e7:a5:39:75:4c:1b:f8:dc:ac:c3:b5:5c:8e:7b:4d:
                    c3:c7:83:d8:d8:f6:22:7b:a3:1a:4c:49:94:28:03:
                    69:04:7e:96:a2:25:54:ff:2b:53:74:41:95:c3:e9:
                    80:10:85:29:91:81:92:00:db:ae:34:f0:8b:10:c5:
                    ac:63:08:83:8a:8c:01:0e:00:49:cf:07:46:77:ee:
                    89:c5:4d:e3:76:67:79:2c:95:63:c8:5b:a2:28:0f:
                    b3:cd:10:20:54:9d:0a:d3:f2:9a:0e:8f:2f:67:95:
                    35:ce:81:86:1c:24:af:0e:f2:ed:1a:e3:71:6b:a3:
                    83:1a:ca:c6:85:7e:fd:06:0c:2c:d1:92:46:00:b1:
                    45:8b:9c:a9:0b:8f:92:0b:06:57:98:62:4d:2d:31:
                    fa:f4:0c:94:5f:c9:98:be:b8:11:3a:c4:15:d5:a5:
                    0f:14:1f:1c:89:a7:6b:de:d9:0d:f0:ca:9d:60:6f:
                    fc:9b:1b:75:8a:e1:99:6b:9a:98:e4:7e:9d:89:64:
                    a8:ef:aa:06:ef:2f:68:e5:1c:c2:7a:3b:7d:82:d3:
                    2a:c5:51:93:cd:5b:60:73:7a:6f:23:8c:f9:9b:4f:
                    fb:5b
                Exponent: 65537 (0x10001)
        X509v3 extensions:
            Netscape Cert Type: 
                SSL Client
            X509v3 Subject Key Identifier: 
                26:38:08:70:3C:0F:3E:81:AE:E4:F5:04:3F:3D:0A:DA:C2:96:9F:43
            X509v3 Authority Key Identifier: 
                keyid:3B:D6:D1:53:18:87:05:22:BB:EE:C3:0F:F5:CE:0F:6B:A2:93:A7:B8
                DirName:/CN=BANGALORECA_CA/C=IN/O=CITRIX/OU=ANG/ST=KA/emailAddress=BANGALORECA_CA@BANGALORECA_mail.com
                serial:A1:AC:B4:DA:46:53:58:40

            Authority Information Access: 
                OCSP - URI:http://172.16.20.1/responderpath

    Signature Algorithm: sha256WithRSAEncryption
         0b:d0:26:aa:bf:50:42:b3:22:15:83:94:5e:45:3e:ff:98:0c:
         f0:af:9c:3b:bf:b8:d9:05:1d:a9:59:9e:88:be:20:22:ba:d3:
         54:81:d3:a0:0f:83:67:37:b1:e9:98:33:43:97:80:d3:c0:93:
         b9:4d:3d:d4:1d:9f:b2:f5:d1:e2:0b:39:00:3d:a8:a3:db:74:
         2c:82:e0:b6:b9:6f:b6:03:3b:01:48:c9:a9:06:77:ef:d6:a9:
         f4:a8:93:ef:2f:6e:51:41:6e:f1:34:51:6f:33:06:fe:bc:81:
         a2:9e:4a:dd:51:42:81:6e:1e:45:08:8c:68:b1:9f:cd:a3:d8:
         13:6f:74:0b:a6:3c:7e:fa:b6:e1:8d:aa:05:40:e5:83:3f:5a:
         e8:f7:a6:c9:de:39:3e:82:8f:db:a5:b5:7f:21:1b:1e:50:57:
         09:ab:f4:09:17:46:b5:d1:53:56:d9:37:5b:e2:c3:61:bb:2b:
         d3:b7:01:45:4b:fe:13:5d:62:9a:c3:3d:f2:8d:8f:b4:03:84:
         2d:30:ad:e6:35:0f:69:e5:27:fb:3e:4e:d6:23:12:73:a9:95:
         84:7c:90:c1:64:d8:d8:81:f5:ac:17:0a:0b:4c:7d:56:31:9b:
         36:ed:da:2d:d1:11:b2:11:98:d8:14:b4:b7:01:27:9c:b4:8f:
         17:cc:c5:3d
-----BEGIN CERTIFICATE-----
MIIEoTCCA4mgAwIBAgIGCgsMDQ5NMA0GCSqGSIb3DQEBCwUAMIGGMRcwFQYDVQQD
FA5CQU5HQUxPUkVDQV9DQTELMAkGA1UEBhMCSU4xDzANBgNVBAoTBkNJVFJJWDEM
MAoGA1UECxMDQU5HMQswCQYDVQQIEwJLQTEyMDAGCSqGSIb3DQEJARYjQkFOR0FM
T1JFQ0FfQ0FAQkFOR0FMT1JFQ0FfbWFpbC5jb20wHhcNMTcwODIzMDkwNjU0WhcN
MjcwODIxMDkwNjU0WjBmMQswCQYDVQQIEwJLQTELMAkGA1UEBhMCSU4xFjAUBgNV
BAMUDWJscl8yM19jbGllbnQxITAfBgkqhkiG9w0BCQEWEmJscl8yM0B0ZXN0X2Nh
LmNvbTEPMA0GA1UEChMGQ0lUUklYMIIBIjANBgkqhkiG9w0BAQEFAAOCAQ8AMIIB
CgKCAQEAy9TQbKpTqnXaz18SSG00w9ZQQbl40WL45xotzETnpTl1TBv43KzDtVyO
e03Dx4PY2PYie6MaTEmUKANpBH6WoiVU/ytTdEGVw+mAEIUpkYGSANuuNPCLEMWs
YwiDiowBDgBJzwdGd+6JxU3jdmd5LJVjyFuiKA+zzRAgVJ0K0/KaDo8vZ5U1zoGG
HCSvDvLtGuNxa6ODGsrGhX79Bgws0ZJGALFFi5ypC4+SCwZXmGJNLTH69AyUX8mY
vrgROsQV1aUPFB8ciadr3tkN8MqdYG/8mxt1iuGZa5qY5H6diWSo76oG7y9o5RzC
ejt9gtMqxVGTzVtgc3pvI4z5m0/7WwIDAQABo4IBMjCCAS4wEQYJYIZIAYb4QgEB
BAQDAgeAMB0GA1UdDgQWBBQmOAhwPA8+ga7k9QQ/PQrawpafQzCBuwYDVR0jBIGz
MIGwgBQ71tFTGIcFIrvuww/1zg9ropOnuKGBjKSBiTCBhjEXMBUGA1UEAxQOQkFO
R0FMT1JFQ0FfQ0ExCzAJBgNVBAYTAklOMQ8wDQYDVQQKEwZDSVRSSVgxDDAKBgNV
BAsTA0FORzELMAkGA1UECBMCS0ExMjAwBgkqhkiG9w0BCQEWI0JBTkdBTE9SRUNB
X0NBQEJBTkdBTE9SRUNBX21haWwuY29tggkAoay02kZTWEAwPAYIKwYBBQUHAQEE
MDAuMCwGCCsGAQUFBzABhiBodHRwOi8vMTcyLjE2LjIwLjEvcmVzcG9uZGVycGF0
aDANBgkqhkiG9w0BAQsFAAOCAQEAC9Amqr9QQrMiFYOUXkU+/5gM8K+cO7+42QUd
qVmeiL4gIrrTVIHToA+DZzex6ZgzQ5eA08CTuU091B2fsvXR4gs5AD2oo9t0LILg
trlvtgM7AUjJqQZ379ap9KiT7y9uUUFu8TRRbzMG/ryBop5K3VFCgW4eRQiMaLGf
zaPYE290C6Y8fvq24Y2qBUDlgz9a6Pemyd45PoKP26W1fyEbHlBXCav0CRdGtdFT
Vtk3W+LDYbsr07cBRUv+E11imsM98o2PtAOELTCt5jUPaeUn+z5O1iMSc6mVhHyQ
wWTY2IH1rBcKC0x9VjGbNu3aLdERshGY2BS0twEnnLSPF8zFPQ==
-----END CERTIFICATE-----
