Certificate:
    Data:
        Version: 3 (0x2)
        Serial Number: 11042563100227 (0xa0b0c0d0e43)
    Signature Algorithm: sha256WithRSAEncryption
        Issuer: CN=BANGALORECA_CA, C=IN, O=CITRIX, OU=ANG, ST=KA/emailAddress=BANGALORECA_CA@BANGALORECA_mail.com
        Validity
            Not Before: Aug 23 09:06:47 2017 GMT
            Not After : Aug 21 09:06:47 2027 GMT
        Subject: ST=KA, C=IN, CN=blr_13_client/emailAddress=blr_13@test_ca.com, O=CITRIX
        Subject Public Key Info:
            Public Key Algorithm: rsaEncryption
                Public-Key: (2048 bit)
                Modulus:
                    00:c7:70:bf:1d:1b:f2:e3:fe:e2:9b:c9:6a:f5:c7:
                    8f:f1:dc:8a:a0:97:34:1e:34:1a:01:ef:6e:cd:c9:
                    12:42:c9:6c:ba:26:cc:9d:e1:07:fd:b2:e6:9f:d0:
                    56:00:a9:f5:e8:4a:43:30:3d:2d:ff:c8:d7:4c:e7:
                    8b:f4:e6:d5:6e:8d:0e:c5:74:16:3f:42:9d:c4:fe:
                    1e:eb:b2:61:58:d0:61:31:d5:f7:21:90:51:8a:cd:
                    b8:72:91:8b:1f:30:a6:5d:3d:43:93:6d:b8:84:9d:
                    ca:63:3a:92:b7:3b:d6:af:79:9a:8e:2f:e6:c3:25:
                    48:79:91:30:a9:4e:c7:c8:81:7d:36:e7:f3:ed:1e:
                    57:9f:c8:9e:97:3c:f3:d4:f5:b9:a1:03:8e:36:96:
                    1f:ad:d2:57:40:47:df:e5:b3:98:6a:4d:fd:99:eb:
                    09:6f:3f:24:5b:78:df:e8:0a:71:f7:32:16:1e:96:
                    25:b9:c0:fb:15:9c:93:ce:3f:b4:26:6f:dc:41:b8:
                    7b:80:04:08:b2:de:24:ef:c0:09:a3:b3:e4:a7:99:
                    28:94:7d:01:e5:e5:ab:62:de:b8:39:6f:47:25:97:
                    84:5b:8d:b0:81:50:45:c8:d6:d6:55:23:db:0a:2f:
                    ee:7f:9b:ba:1c:cd:73:3e:6e:cc:bf:6f:d7:4d:6c:
                    7f:b9
                Exponent: 65537 (0x10001)
        X509v3 extensions:
            Netscape Cert Type: 
                SSL Client
            X509v3 Subject Key Identifier: 
                15:3B:B8:F2:55:F9:BE:C0:6C:1C:BB:C9:42:04:26:66:C8:67:E3:42
            X509v3 Authority Key Identifier: 
                keyid:3B:D6:D1:53:18:87:05:22:BB:EE:C3:0F:F5:CE:0F:6B:A2:93:A7:B8
                DirName:/CN=BANGALORECA_CA/C=IN/O=CITRIX/OU=ANG/ST=KA/emailAddress=BANGALORECA_CA@BANGALORECA_mail.com
                serial:A1:AC:B4:DA:46:53:58:40

            Authority Information Access: 
                OCSP - URI:http://172.16.20.1/responderpath

    Signature Algorithm: sha256WithRSAEncryption
         9c:6a:28:cf:26:90:83:c9:e5:d0:e2:0c:0b:ec:fa:71:1c:67:
         7f:24:d5:d8:46:df:9a:44:cf:de:a3:20:d7:6d:2d:52:02:35:
         39:3d:0c:62:6c:e9:8f:22:30:60:5e:68:cd:55:b1:32:9e:64:
         06:a6:bc:d5:c9:d6:93:46:4a:f8:38:94:cc:ba:59:71:79:4b:
         fc:a6:a8:da:f2:d4:0d:b3:cf:86:2f:6a:45:cf:5d:a8:28:06:
         16:41:12:76:fe:18:e2:7b:7a:3f:49:1c:a5:e1:9c:68:8b:e6:
         3a:ed:05:3b:1c:66:53:c0:53:d1:00:96:fa:44:ed:93:f9:0c:
         d6:fb:7e:98:7e:11:b8:a6:8f:2d:a7:e4:80:f5:a5:20:4d:6a:
         bb:97:f0:ac:a2:4d:b3:be:d2:a9:e9:0f:89:30:ce:09:4e:ce:
         7a:03:e9:6d:ae:a1:62:b7:86:83:50:67:e0:ac:31:ab:01:6e:
         c2:15:f4:57:0e:b7:d8:91:9d:59:46:f7:3a:35:23:45:d7:f1:
         67:6d:11:24:b6:a5:ea:34:bc:bf:a3:fa:56:df:70:a4:11:8b:
         3c:b8:d1:98:ea:34:64:cd:e0:4c:9c:86:8d:cd:7a:59:47:8f:
         2e:bb:ed:09:70:b1:35:2b:49:09:31:88:2d:a0:a8:dd:4d:aa:
         3a:64:d4:aa
-----BEGIN CERTIFICATE-----
MIIEoTCCA4mgAwIBAgIGCgsMDQ5DMA0GCSqGSIb3DQEBCwUAMIGGMRcwFQYDVQQD
FA5CQU5HQUxPUkVDQV9DQTELMAkGA1UEBhMCSU4xDzANBgNVBAoTBkNJVFJJWDEM
MAoGA1UECxMDQU5HMQswCQYDVQQIEwJLQTEyMDAGCSqGSIb3DQEJARYjQkFOR0FM
T1JFQ0FfQ0FAQkFOR0FMT1JFQ0FfbWFpbC5jb20wHhcNMTcwODIzMDkwNjQ3WhcN
MjcwODIxMDkwNjQ3WjBmMQswCQYDVQQIEwJLQTELMAkGA1UEBhMCSU4xFjAUBgNV
BAMUDWJscl8xM19jbGllbnQxITAfBgkqhkiG9w0BCQEWEmJscl8xM0B0ZXN0X2Nh
LmNvbTEPMA0GA1UEChMGQ0lUUklYMIIBIjANBgkqhkiG9w0BAQEFAAOCAQ8AMIIB
CgKCAQEAx3C/HRvy4/7im8lq9ceP8dyKoJc0HjQaAe9uzckSQslsuibMneEH/bLm
n9BWAKn16EpDMD0t/8jXTOeL9ObVbo0OxXQWP0KdxP4e67JhWNBhMdX3IZBRis24
cpGLHzCmXT1Dk224hJ3KYzqStzvWr3maji/mwyVIeZEwqU7HyIF9Nufz7R5Xn8ie
lzzz1PW5oQOONpYfrdJXQEff5bOYak39mesJbz8kW3jf6Apx9zIWHpYlucD7FZyT
zj+0Jm/cQbh7gAQIst4k78AJo7Pkp5kolH0B5eWrYt64OW9HJZeEW42wgVBFyNbW
VSPbCi/uf5u6HM1zPm7Mv2/XTWx/uQIDAQABo4IBMjCCAS4wEQYJYIZIAYb4QgEB
BAQDAgeAMB0GA1UdDgQWBBQVO7jyVfm+wGwcu8lCBCZmyGfjQjCBuwYDVR0jBIGz
MIGwgBQ71tFTGIcFIrvuww/1zg9ropOnuKGBjKSBiTCBhjEXMBUGA1UEAxQOQkFO
R0FMT1JFQ0FfQ0ExCzAJBgNVBAYTAklOMQ8wDQYDVQQKEwZDSVRSSVgxDDAKBgNV
BAsTA0FORzELMAkGA1UECBMCS0ExMjAwBgkqhkiG9w0BCQEWI0JBTkdBTE9SRUNB
X0NBQEJBTkdBTE9SRUNBX21haWwuY29tggkAoay02kZTWEAwPAYIKwYBBQUHAQEE
MDAuMCwGCCsGAQUFBzABhiBodHRwOi8vMTcyLjE2LjIwLjEvcmVzcG9uZGVycGF0
aDANBgkqhkiG9w0BAQsFAAOCAQEAnGoozyaQg8nl0OIMC+z6cRxnfyTV2EbfmkTP
3qMg120tUgI1OT0MYmzpjyIwYF5ozVWxMp5kBqa81cnWk0ZK+DiUzLpZcXlL/Kao
2vLUDbPPhi9qRc9dqCgGFkESdv4Y4nt6P0kcpeGcaIvmOu0FOxxmU8BT0QCW+kTt
k/kM1vt+mH4RuKaPLafkgPWlIE1qu5fwrKJNs77SqekPiTDOCU7OegPpba6hYreG
g1Bn4KwxqwFuwhX0Vw632JGdWUb3OjUjRdfxZ20RJLal6jS8v6P6Vt9wpBGLPLjR
mOo0ZM3gTJyGjc16WUePLrvtCXCxNStJCTGILaCo3U2qOmTUqg==
-----END CERTIFICATE-----
