Certificate:
    Data:
        Version: 3 (0x2)
        Serial Number: 11042563100249 (0xa0b0c0d0e59)
    Signature Algorithm: sha256WithRSAEncryption
        Issuer: CN=BANGALORECA_CA, C=IN, O=CITRIX, OU=ANG, ST=KA/emailAddress=BANGALORECA_CA@BANGALORECA_mail.com
        Validity
            Not Before: Aug 23 09:07:00 2017 GMT
            Not After : Aug 21 09:07:00 2027 GMT
        Subject: ST=KA, C=IN, CN=blr_35_client/emailAddress=blr_35@test_ca.com, O=CITRIX
        Subject Public Key Info:
            Public Key Algorithm: rsaEncryption
                Public-Key: (2048 bit)
                Modulus:
                    00:c1:ad:62:2c:bc:10:25:b7:77:1f:84:24:95:55:
                    8f:e4:28:cb:d7:dd:67:e2:cd:3a:5f:b5:84:f2:7d:
                    63:79:e3:1b:fb:79:03:9b:8b:fd:8b:1a:26:ea:80:
                    3a:3c:88:5f:b6:fe:65:c8:61:f2:2b:d6:67:e2:1d:
                    4b:d9:85:82:58:8a:1b:7f:5f:33:f4:41:ab:4f:1a:
                    ce:b9:72:89:62:2a:a8:5c:b9:55:f6:8c:fa:1b:02:
                    d2:b7:4c:95:2e:11:96:20:0a:0b:45:e8:57:1d:13:
                    80:95:49:74:d5:70:0c:08:14:be:ce:0d:71:99:01:
                    d4:30:a6:df:8f:f5:26:b5:41:37:6d:ce:82:a0:56:
                    f5:b0:f4:30:6c:84:94:28:b8:71:43:88:5e:d9:72:
                    b1:24:8a:d7:a3:bd:5e:60:0a:dc:f7:35:38:fe:c8:
                    e2:69:80:80:fb:b7:ed:80:72:8d:82:69:76:23:91:
                    c3:ab:55:a0:42:ea:a1:35:f7:15:cd:a4:8d:a2:69:
                    30:96:0a:72:4d:83:cb:16:98:61:ea:d4:d6:aa:1f:
                    74:4a:bf:b2:48:fe:b8:64:be:70:d2:0a:eb:0f:db:
                    e4:b0:27:10:f6:9c:bf:0c:22:d8:80:f1:f8:31:99:
                    e5:bc:e9:70:30:ae:60:a3:df:d0:a8:7e:85:22:47:
                    b0:d9
                Exponent: 65537 (0x10001)
        X509v3 extensions:
            Netscape Cert Type: 
                SSL Client
            X509v3 Subject Key Identifier: 
                DD:D4:75:11:D7:12:8D:57:05:C8:22:A3:F7:E4:9D:E8:92:3D:7B:96
            X509v3 Authority Key Identifier: 
                keyid:3B:D6:D1:53:18:87:05:22:BB:EE:C3:0F:F5:CE:0F:6B:A2:93:A7:B8
                DirName:/CN=BANGALORECA_CA/C=IN/O=CITRIX/OU=ANG/ST=KA/emailAddress=BANGALORECA_CA@BANGALORECA_mail.com
                serial:A1:AC:B4:DA:46:53:58:40

            Authority Information Access: 
                OCSP - URI:http://172.16.20.1/responderpath

    Signature Algorithm: sha256WithRSAEncryption
         81:ec:98:a8:ac:0a:42:50:2d:94:75:00:48:b4:5c:56:6f:0f:
         5e:f5:42:6a:0d:a8:92:4b:cc:b8:8b:25:44:b6:30:1f:d1:98:
         11:0b:50:0a:94:70:2f:84:bb:16:c9:96:3a:8b:7e:02:60:bf:
         97:65:c4:c2:19:63:85:c4:f7:fe:27:37:86:10:51:33:68:fa:
         d3:b9:7f:21:e2:40:68:22:cf:1c:f0:f2:5f:c8:ef:ff:2d:ac:
         5f:3e:26:37:5f:4e:1f:f9:db:0a:c3:d8:13:db:28:e6:8b:6c:
         49:47:64:e1:ee:81:5e:03:37:fa:8d:7d:cc:8e:be:30:6d:16:
         3e:58:ec:ad:c1:8d:82:aa:56:2d:cc:5d:da:15:83:77:db:77:
         96:59:a5:1f:d7:14:d5:22:ad:5d:6d:1f:8b:82:8c:a6:a1:57:
         67:42:a0:31:a5:4c:cb:61:01:b6:3b:f0:91:97:ab:28:f8:fe:
         74:48:71:13:02:8e:54:35:5c:25:a5:ff:37:84:c5:e7:49:90:
         f8:52:64:0d:5d:32:78:a8:24:c3:b7:c0:a7:a8:db:72:d4:69:
         f6:15:29:d5:82:8c:f6:ee:52:49:9f:da:b1:48:46:2f:c9:3d:
         22:5e:6c:3b:3d:47:47:fd:41:9f:74:16:da:62:bd:c2:3e:0e:
         5b:26:15:78
-----BEGIN CERTIFICATE-----
MIIEoTCCA4mgAwIBAgIGCgsMDQ5ZMA0GCSqGSIb3DQEBCwUAMIGGMRcwFQYDVQQD
FA5CQU5HQUxPUkVDQV9DQTELMAkGA1UEBhMCSU4xDzANBgNVBAoTBkNJVFJJWDEM
MAoGA1UECxMDQU5HMQswCQYDVQQIEwJLQTEyMDAGCSqGSIb3DQEJARYjQkFOR0FM
T1JFQ0FfQ0FAQkFOR0FMT1JFQ0FfbWFpbC5jb20wHhcNMTcwODIzMDkwNzAwWhcN
MjcwODIxMDkwNzAwWjBmMQswCQYDVQQIEwJLQTELMAkGA1UEBhMCSU4xFjAUBgNV
BAMUDWJscl8zNV9jbGllbnQxITAfBgkqhkiG9w0BCQEWEmJscl8zNUB0ZXN0X2Nh
LmNvbTEPMA0GA1UEChMGQ0lUUklYMIIBIjANBgkqhkiG9w0BAQEFAAOCAQ8AMIIB
CgKCAQEAwa1iLLwQJbd3H4QklVWP5CjL191n4s06X7WE8n1jeeMb+3kDm4v9ixom
6oA6PIhftv5lyGHyK9Zn4h1L2YWCWIobf18z9EGrTxrOuXKJYiqoXLlV9oz6GwLS
t0yVLhGWIAoLRehXHROAlUl01XAMCBS+zg1xmQHUMKbfj/UmtUE3bc6CoFb1sPQw
bISUKLhxQ4he2XKxJIrXo71eYArc9zU4/sjiaYCA+7ftgHKNgml2I5HDq1WgQuqh
NfcVzaSNomkwlgpyTYPLFphh6tTWqh90Sr+ySP64ZL5w0grrD9vksCcQ9py/DCLY
gPH4MZnlvOlwMK5go9/QqH6FIkew2QIDAQABo4IBMjCCAS4wEQYJYIZIAYb4QgEB
BAQDAgeAMB0GA1UdDgQWBBTd1HUR1xKNVwXIIqP35J3okj17ljCBuwYDVR0jBIGz
MIGwgBQ71tFTGIcFIrvuww/1zg9ropOnuKGBjKSBiTCBhjEXMBUGA1UEAxQOQkFO
R0FMT1JFQ0FfQ0ExCzAJBgNVBAYTAklOMQ8wDQYDVQQKEwZDSVRSSVgxDDAKBgNV
BAsTA0FORzELMAkGA1UECBMCS0ExMjAwBgkqhkiG9w0BCQEWI0JBTkdBTE9SRUNB
X0NBQEJBTkdBTE9SRUNBX21haWwuY29tggkAoay02kZTWEAwPAYIKwYBBQUHAQEE
MDAuMCwGCCsGAQUFBzABhiBodHRwOi8vMTcyLjE2LjIwLjEvcmVzcG9uZGVycGF0
aDANBgkqhkiG9w0BAQsFAAOCAQEAgeyYqKwKQlAtlHUASLRcVm8PXvVCag2okkvM
uIslRLYwH9GYEQtQCpRwL4S7FsmWOot+AmC/l2XEwhljhcT3/ic3hhBRM2j607l/
IeJAaCLPHPDyX8jv/y2sXz4mN19OH/nbCsPYE9so5otsSUdk4e6BXgM3+o19zI6+
MG0WPljsrcGNgqpWLcxd2hWDd9t3llmlH9cU1SKtXW0fi4KMpqFXZ0KgMaVMy2EB
tjvwkZerKPj+dEhxEwKOVDVcJaX/N4TF50mQ+FJkDV0yeKgkw7fAp6jbctRp9hUp
1YKM9u5SSZ/asUhGL8k9Il5sOz1HR/1Bn3QW2mK9wj4OWyYVeA==
-----END CERTIFICATE-----
