Certificate:
    Data:
        Version: 3 (0x2)
        Serial Number: 11042563100228 (0xa0b0c0d0e44)
    Signature Algorithm: sha256WithRSAEncryption
        Issuer: CN=BANGALORECA_CA, C=IN, O=CITRIX, OU=ANG, ST=KA/emailAddress=BANGALORECA_CA@BANGALORECA_mail.com
        Validity
            Not Before: Aug 23 09:06:47 2017 GMT
            Not After : Aug 21 09:06:47 2027 GMT
        Subject: ST=KA, C=IN, CN=blr_14_client/emailAddress=blr_14@test_ca.com, O=CITRIX
        Subject Public Key Info:
            Public Key Algorithm: rsaEncryption
                Public-Key: (2048 bit)
                Modulus:
                    00:ae:ec:0b:a1:02:bc:74:53:e6:9b:3e:e0:1a:a0:
                    4b:77:68:0a:19:75:86:77:85:1a:0b:fe:f4:0a:54:
                    f3:7a:ec:e5:4f:ed:09:15:22:11:98:78:fd:e7:4e:
                    c2:ba:3c:d6:36:98:21:80:86:f0:59:ca:32:45:fa:
                    26:e6:dd:cb:4d:d7:64:4d:5d:c6:bc:14:50:3c:09:
                    08:a5:2e:c6:d6:f4:9b:cb:63:f2:81:ba:d6:e6:41:
                    28:8c:d2:ca:b7:32:10:0e:9e:11:17:7f:16:3d:94:
                    26:e9:57:27:d2:7b:a6:23:e5:79:78:d2:42:7e:7f:
                    d9:86:e4:58:dc:0b:2d:35:d2:00:fa:53:e6:30:dd:
                    6b:89:d2:14:44:8a:3f:b5:19:f9:8c:ac:52:c0:8d:
                    61:15:df:fb:ed:15:91:1a:e6:47:22:06:0b:e7:d6:
                    24:a3:cd:3e:64:d5:c0:c8:c0:15:50:4f:a2:6a:56:
                    13:c0:72:2f:9f:65:4a:84:7b:57:ad:d9:79:c4:15:
                    0e:c3:18:2e:22:65:e6:3f:7a:ed:f3:a2:ec:60:e5:
                    f6:f2:b5:0a:8b:52:36:fd:c8:2e:07:75:bc:d4:05:
                    24:c4:71:50:f1:02:54:dd:d3:51:ba:c5:c4:d0:85:
                    e1:57:b0:5a:ed:c0:84:f3:34:00:2f:3f:e2:f4:75:
                    4b:2f
                Exponent: 65537 (0x10001)
        X509v3 extensions:
            Netscape Cert Type: 
                SSL Client
            X509v3 Subject Key Identifier: 
                24:A0:9F:97:37:95:6A:99:72:BA:AC:06:E6:FF:77:F5:F8:64:F8:2C
            X509v3 Authority Key Identifier: 
                keyid:3B:D6:D1:53:18:87:05:22:BB:EE:C3:0F:F5:CE:0F:6B:A2:93:A7:B8
                DirName:/CN=BANGALORECA_CA/C=IN/O=CITRIX/OU=ANG/ST=KA/emailAddress=BANGALORECA_CA@BANGALORECA_mail.com
                serial:A1:AC:B4:DA:46:53:58:40

            Authority Information Access: 
                OCSP - URI:http://172.16.20.1/responderpath

    Signature Algorithm: sha256WithRSAEncryption
         59:b1:7f:6d:27:60:43:5a:b6:a5:dd:98:a5:85:e3:e1:5b:42:
         f6:4c:db:8e:03:29:35:3f:10:32:60:8c:30:4e:0d:fc:04:33:
         16:27:76:54:1c:3f:7d:e2:84:46:02:02:99:6c:75:0b:2d:24:
         9d:e1:fb:30:46:a0:de:29:27:c9:f1:9e:4d:5f:d4:e8:00:7a:
         15:38:79:22:1e:a2:39:df:53:8f:05:85:fe:5b:2d:58:25:8b:
         ba:bd:ff:74:18:2b:d0:90:58:ff:a9:39:1f:29:43:b7:5a:0e:
         41:28:ee:3f:2f:35:fb:6a:44:89:2d:8d:2d:ae:8f:69:b6:20:
         7d:45:e8:c0:15:68:fd:30:fb:44:c5:6b:86:98:7f:91:02:00:
         65:28:db:4f:14:c7:57:d0:cf:b4:96:f8:aa:c6:1a:fe:cb:2c:
         97:42:1f:08:23:f9:1b:58:94:c8:e1:07:74:38:04:68:1d:05:
         f0:69:d6:ba:69:e7:2e:f7:52:ae:31:be:09:cc:ed:25:d5:00:
         10:b0:74:c0:a8:5c:36:35:01:03:3d:4e:5e:45:68:fc:80:74:
         96:66:ad:ad:64:83:d7:f5:aa:cf:c4:f4:75:7d:d8:d8:5c:8c:
         b5:c1:e1:4e:9e:1a:60:8e:b9:2d:ce:86:a7:06:18:ce:f3:2a:
         2f:f2:a3:3a
-----BEGIN CERTIFICATE-----
MIIEoTCCA4mgAwIBAgIGCgsMDQ5EMA0GCSqGSIb3DQEBCwUAMIGGMRcwFQYDVQQD
FA5CQU5HQUxPUkVDQV9DQTELMAkGA1UEBhMCSU4xDzANBgNVBAoTBkNJVFJJWDEM
MAoGA1UECxMDQU5HMQswCQYDVQQIEwJLQTEyMDAGCSqGSIb3DQEJARYjQkFOR0FM
T1JFQ0FfQ0FAQkFOR0FMT1JFQ0FfbWFpbC5jb20wHhcNMTcwODIzMDkwNjQ3WhcN
MjcwODIxMDkwNjQ3WjBmMQswCQYDVQQIEwJLQTELMAkGA1UEBhMCSU4xFjAUBgNV
BAMUDWJscl8xNF9jbGllbnQxITAfBgkqhkiG9w0BCQEWEmJscl8xNEB0ZXN0X2Nh
LmNvbTEPMA0GA1UEChMGQ0lUUklYMIIBIjANBgkqhkiG9w0BAQEFAAOCAQ8AMIIB
CgKCAQEAruwLoQK8dFPmmz7gGqBLd2gKGXWGd4UaC/70ClTzeuzlT+0JFSIRmHj9
507CujzWNpghgIbwWcoyRfom5t3LTddkTV3GvBRQPAkIpS7G1vSby2PygbrW5kEo
jNLKtzIQDp4RF38WPZQm6Vcn0numI+V5eNJCfn/ZhuRY3AstNdIA+lPmMN1ridIU
RIo/tRn5jKxSwI1hFd/77RWRGuZHIgYL59Yko80+ZNXAyMAVUE+ialYTwHIvn2VK
hHtXrdl5xBUOwxguImXmP3rt86LsYOX28rUKi1I2/cguB3W81AUkxHFQ8QJU3dNR
usXE0IXhV7Ba7cCE8zQALz/i9HVLLwIDAQABo4IBMjCCAS4wEQYJYIZIAYb4QgEB
BAQDAgeAMB0GA1UdDgQWBBQkoJ+XN5VqmXK6rAbm/3f1+GT4LDCBuwYDVR0jBIGz
MIGwgBQ71tFTGIcFIrvuww/1zg9ropOnuKGBjKSBiTCBhjEXMBUGA1UEAxQOQkFO
R0FMT1JFQ0FfQ0ExCzAJBgNVBAYTAklOMQ8wDQYDVQQKEwZDSVRSSVgxDDAKBgNV
BAsTA0FORzELMAkGA1UECBMCS0ExMjAwBgkqhkiG9w0BCQEWI0JBTkdBTE9SRUNB
X0NBQEJBTkdBTE9SRUNBX21haWwuY29tggkAoay02kZTWEAwPAYIKwYBBQUHAQEE
MDAuMCwGCCsGAQUFBzABhiBodHRwOi8vMTcyLjE2LjIwLjEvcmVzcG9uZGVycGF0
aDANBgkqhkiG9w0BAQsFAAOCAQEAWbF/bSdgQ1q2pd2YpYXj4VtC9kzbjgMpNT8Q
MmCMME4N/AQzFid2VBw/feKERgICmWx1Cy0kneH7MEag3iknyfGeTV/U6AB6FTh5
Ih6iOd9TjwWF/lstWCWLur3/dBgr0JBY/6k5HylDt1oOQSjuPy81+2pEiS2NLa6P
abYgfUXowBVo/TD7RMVrhph/kQIAZSjbTxTHV9DPtJb4qsYa/sssl0IfCCP5G1iU
yOEHdDgEaB0F8GnWumnnLvdSrjG+CcztJdUAELB0wKhcNjUBAz1OXkVo/IB0lmat
rWSD1/Wqz8T0dX3Y2FyMtcHhTp4aYI65Lc6GpwYYzvMqL/KjOg==
-----END CERTIFICATE-----
