Certificate:
    Data:
        Version: 3 (0x2)
        Serial Number: 11042563100232 (0xa0b0c0d0e48)
    Signature Algorithm: sha256WithRSAEncryption
        Issuer: CN=BANGALORECA_CA, C=IN, O=CITRIX, OU=ANG, ST=KA/emailAddress=BANGALORECA_CA@BANGALORECA_mail.com
        Validity
            Not Before: Aug 23 09:06:51 2017 GMT
            Not After : Aug 21 09:06:51 2027 GMT
        Subject: ST=KA, C=IN, CN=blr_18_client/emailAddress=blr_18@test_ca.com, O=CITRIX
        Subject Public Key Info:
            Public Key Algorithm: rsaEncryption
                Public-Key: (2048 bit)
                Modulus:
                    00:e8:b4:7d:95:78:d9:4c:20:42:12:87:e6:21:e4:
                    cf:71:30:88:0e:29:f2:4b:33:34:25:91:53:26:8c:
                    01:4b:eb:02:2c:08:3e:f3:a4:97:23:15:94:84:a7:
                    2c:7d:93:c8:cd:5d:22:6d:ee:99:e5:0c:1a:8e:4e:
                    48:e2:90:68:a3:24:a1:98:64:13:c4:42:50:99:72:
                    7c:b4:66:cb:5a:87:94:c1:76:1d:76:60:60:e5:f4:
                    f1:bd:c8:2c:cb:d3:54:37:ed:dd:b4:61:ba:e6:7e:
                    38:c7:3e:6f:93:aa:6e:b7:1b:67:ab:9d:a5:42:22:
                    6b:62:c7:cf:b6:3f:2b:ca:f4:3d:5b:b6:96:32:8e:
                    66:34:c4:52:89:5a:c2:6e:1b:32:3b:76:9f:17:f6:
                    bb:4a:2f:40:98:b2:89:ec:42:30:8f:9f:c7:33:6b:
                    eb:11:54:8b:b8:56:d2:0e:45:3d:2d:da:d1:50:bf:
                    1b:cd:53:e0:d9:6b:40:9f:d8:0b:c1:44:f9:36:10:
                    b5:f9:25:25:de:d0:d8:21:03:50:e5:ba:7d:d8:21:
                    37:46:f7:5b:72:ab:00:8c:72:53:ab:87:b7:92:a7:
                    6c:64:0b:57:e4:39:a5:35:98:8f:86:22:41:18:78:
                    72:a7:b6:61:4d:18:38:e2:3f:99:cd:c2:41:c4:2a:
                    ad:3b
                Exponent: 65537 (0x10001)
        X509v3 extensions:
            Netscape Cert Type: 
                SSL Client
            X509v3 Subject Key Identifier: 
                DD:81:5C:2B:05:57:94:A9:E2:0D:FE:3F:BE:4B:B2:95:C1:6C:1B:AE
            X509v3 Authority Key Identifier: 
                keyid:3B:D6:D1:53:18:87:05:22:BB:EE:C3:0F:F5:CE:0F:6B:A2:93:A7:B8
                DirName:/CN=BANGALORECA_CA/C=IN/O=CITRIX/OU=ANG/ST=KA/emailAddress=BANGALORECA_CA@BANGALORECA_mail.com
                serial:A1:AC:B4:DA:46:53:58:40

            Authority Information Access: 
                OCSP - URI:http://172.16.20.1/responderpath

    Signature Algorithm: sha256WithRSAEncryption
         6f:58:f7:83:aa:7a:64:63:0f:55:1b:0e:1b:9d:b1:d8:0d:da:
         5d:d4:63:19:dc:d6:08:e1:e1:1d:d0:c1:76:a8:64:39:80:a4:
         62:c1:bd:43:92:66:bd:2f:a6:1b:02:e9:e4:c0:c0:50:d3:35:
         c4:04:79:e0:0d:62:c7:19:71:48:ee:cb:ab:d7:e4:44:ed:15:
         5c:1f:b7:17:53:64:a9:ed:3d:ae:9e:87:60:c9:c2:e0:91:c4:
         ea:8b:3f:27:ef:cd:3b:ac:03:a2:5c:44:44:bc:43:57:9b:02:
         82:ec:74:76:9a:ac:b9:98:f1:55:ae:60:4e:92:eb:33:7f:35:
         b4:0a:fd:f3:80:ac:c7:5f:32:04:41:fe:0e:7c:71:42:1a:ed:
         25:51:15:43:1d:fe:c9:ca:8a:59:73:db:f9:dd:ba:9e:02:bf:
         29:7e:c9:5c:74:4b:a3:5e:6b:e3:8d:bb:ce:a6:cb:67:17:f1:
         f2:d9:b6:9c:01:92:f6:25:db:72:c3:fa:03:92:6b:0f:10:65:
         e5:b0:01:38:3c:af:7a:21:ac:94:51:54:e9:92:f2:8a:bb:47:
         d6:9c:e7:05:51:53:2c:b4:52:e5:50:41:7b:67:8d:80:72:30:
         f7:ca:01:be:99:d5:02:97:a4:1f:ca:7f:57:88:8e:0b:b2:08:
         24:74:ed:cf
-----BEGIN CERTIFICATE-----
MIIEoTCCA4mgAwIBAgIGCgsMDQ5IMA0GCSqGSIb3DQEBCwUAMIGGMRcwFQYDVQQD
FA5CQU5HQUxPUkVDQV9DQTELMAkGA1UEBhMCSU4xDzANBgNVBAoTBkNJVFJJWDEM
MAoGA1UECxMDQU5HMQswCQYDVQQIEwJLQTEyMDAGCSqGSIb3DQEJARYjQkFOR0FM
T1JFQ0FfQ0FAQkFOR0FMT1JFQ0FfbWFpbC5jb20wHhcNMTcwODIzMDkwNjUxWhcN
MjcwODIxMDkwNjUxWjBmMQswCQYDVQQIEwJLQTELMAkGA1UEBhMCSU4xFjAUBgNV
BAMUDWJscl8xOF9jbGllbnQxITAfBgkqhkiG9w0BCQEWEmJscl8xOEB0ZXN0X2Nh
LmNvbTEPMA0GA1UEChMGQ0lUUklYMIIBIjANBgkqhkiG9w0BAQEFAAOCAQ8AMIIB
CgKCAQEA6LR9lXjZTCBCEofmIeTPcTCIDinySzM0JZFTJowBS+sCLAg+86SXIxWU
hKcsfZPIzV0ibe6Z5Qwajk5I4pBooyShmGQTxEJQmXJ8tGbLWoeUwXYddmBg5fTx
vcgsy9NUN+3dtGG65n44xz5vk6putxtnq52lQiJrYsfPtj8ryvQ9W7aWMo5mNMRS
iVrCbhsyO3afF/a7Si9AmLKJ7EIwj5/HM2vrEVSLuFbSDkU9LdrRUL8bzVPg2WtA
n9gLwUT5NhC1+SUl3tDYIQNQ5bp92CE3RvdbcqsAjHJTq4e3kqdsZAtX5DmlNZiP
hiJBGHhyp7ZhTRg44j+ZzcJBxCqtOwIDAQABo4IBMjCCAS4wEQYJYIZIAYb4QgEB
BAQDAgeAMB0GA1UdDgQWBBTdgVwrBVeUqeIN/j++S7KVwWwbrjCBuwYDVR0jBIGz
MIGwgBQ71tFTGIcFIrvuww/1zg9ropOnuKGBjKSBiTCBhjEXMBUGA1UEAxQOQkFO
R0FMT1JFQ0FfQ0ExCzAJBgNVBAYTAklOMQ8wDQYDVQQKEwZDSVRSSVgxDDAKBgNV
BAsTA0FORzELMAkGA1UECBMCS0ExMjAwBgkqhkiG9w0BCQEWI0JBTkdBTE9SRUNB
X0NBQEJBTkdBTE9SRUNBX21haWwuY29tggkAoay02kZTWEAwPAYIKwYBBQUHAQEE
MDAuMCwGCCsGAQUFBzABhiBodHRwOi8vMTcyLjE2LjIwLjEvcmVzcG9uZGVycGF0
aDANBgkqhkiG9w0BAQsFAAOCAQEAb1j3g6p6ZGMPVRsOG52x2A3aXdRjGdzWCOHh
HdDBdqhkOYCkYsG9Q5JmvS+mGwLp5MDAUNM1xAR54A1ixxlxSO7Lq9fkRO0VXB+3
F1Nkqe09rp6HYMnC4JHE6os/J+/NO6wDolxERLxDV5sCgux0dpqsuZjxVa5gTpLr
M381tAr984Csx18yBEH+DnxxQhrtJVEVQx3+ycqKWXPb+d26ngK/KX7JXHRLo15r
4427zqbLZxfx8tm2nAGS9iXbcsP6A5JrDxBl5bABODyveiGslFFU6ZLyirtH1pzn
BVFTLLRS5VBBe2eNgHIw98oBvpnVApekH8p/V4iOC7IIJHTtzw==
-----END CERTIFICATE-----
