Certificate:
    Data:
        Version: 3 (0x2)
        Serial Number: 11042563100254 (0xa0b0c0d0e5e)
    Signature Algorithm: sha256WithRSAEncryption
        Issuer: CN=BANGALORECA_CA, C=IN, O=CITRIX, OU=ANG, ST=KA/emailAddress=BANGALORECA_CA@BANGALORECA_mail.com
        Validity
            Not Before: Aug 23 09:07:04 2017 GMT
            Not After : Aug 21 09:07:04 2027 GMT
        Subject: ST=KA, C=IN, CN=blr_40_client/emailAddress=blr_40@test_ca.com, O=CITRIX
        Subject Public Key Info:
            Public Key Algorithm: rsaEncryption
                Public-Key: (2048 bit)
                Modulus:
                    00:b0:57:28:28:e2:18:0c:57:77:2e:cb:f6:ea:bc:
                    53:03:1d:98:f4:bf:d7:f1:66:0c:a2:0d:ff:94:c8:
                    35:25:58:d1:c8:bf:2e:ce:6e:af:77:c9:c0:9c:c3:
                    f0:05:91:9b:26:71:a1:68:86:4b:fa:04:44:7a:d0:
                    6a:ed:37:20:aa:66:37:79:9d:07:2c:51:84:d4:16:
                    99:9b:e0:b3:c2:c2:c5:a0:94:00:d9:54:b9:ed:30:
                    21:a1:00:12:31:18:0c:fb:10:00:2c:2d:b4:4d:87:
                    cd:65:d3:fe:a2:63:a0:0b:1c:b0:ff:53:cb:73:7c:
                    2c:a8:cf:a5:1a:cf:f3:bf:3f:ea:49:27:ab:00:55:
                    5f:1e:3d:1c:90:b1:f8:b9:85:b9:5b:80:16:be:08:
                    e6:39:87:2e:06:81:ec:37:e5:f5:a1:ea:2d:64:58:
                    e5:88:f4:ab:69:88:9c:c6:1e:04:1f:f8:07:9d:ba:
                    88:18:e7:81:c7:bd:8a:d8:51:25:48:80:f5:46:53:
                    65:8e:a0:b5:d5:c9:ac:3b:6c:07:dc:56:db:35:76:
                    ef:2c:56:0d:74:2b:c9:99:15:41:dc:33:2a:ac:4d:
                    2e:9a:6e:50:8f:f1:e6:21:e9:79:1e:a5:d8:fc:3f:
                    82:28:8c:87:43:e5:de:b6:0e:20:36:8b:0f:a5:ea:
                    c2:bd
                Exponent: 65537 (0x10001)
        X509v3 extensions:
            Netscape Cert Type: 
                SSL Client
            X509v3 Subject Key Identifier: 
                E8:53:F7:51:C9:11:FB:C9:00:7E:76:21:FB:BB:07:A6:5B:8D:66:9A
            X509v3 Authority Key Identifier: 
                keyid:3B:D6:D1:53:18:87:05:22:BB:EE:C3:0F:F5:CE:0F:6B:A2:93:A7:B8
                DirName:/CN=BANGALORECA_CA/C=IN/O=CITRIX/OU=ANG/ST=KA/emailAddress=BANGALORECA_CA@BANGALORECA_mail.com
                serial:A1:AC:B4:DA:46:53:58:40

            Authority Information Access: 
                OCSP - URI:http://172.16.20.1/responderpath

    Signature Algorithm: sha256WithRSAEncryption
         6d:03:f1:e8:8f:89:00:e4:37:26:d2:d8:87:f0:0f:e4:99:7b:
         f5:ca:9e:e5:74:79:b8:46:36:06:30:99:1f:69:73:b2:63:6f:
         93:93:bc:1b:7a:b9:03:e6:2a:71:08:a3:d1:c1:dd:3d:03:e6:
         10:10:96:15:0a:ba:8f:bf:71:56:bc:71:f0:18:76:6f:55:6e:
         71:d2:88:9b:9f:a1:45:a9:b5:cf:ee:1a:93:40:bc:89:76:50:
         db:da:4a:6f:d6:ad:8f:e2:05:90:fb:3b:2e:bc:9e:97:b3:19:
         e2:bb:20:02:be:f1:e6:e2:27:8f:51:bb:c7:60:dd:0d:9a:77:
         94:24:39:ee:d5:e3:bd:0a:55:85:66:21:12:d1:19:dc:ec:ca:
         93:6c:17:0a:e1:ff:62:90:02:33:44:50:79:4c:9b:d9:a5:df:
         3d:30:e3:50:8d:2d:71:8a:9e:6e:9b:17:7a:e3:59:31:22:53:
         b2:4a:2e:b0:4b:e1:71:92:9f:fa:8d:52:8b:0c:f5:78:d4:85:
         bf:68:7b:8d:18:ce:fc:22:5a:77:79:cd:f0:7a:c5:8d:4e:63:
         b0:53:db:25:46:ce:ea:4c:b7:28:e8:0f:34:2c:15:b7:4e:c8:
         b4:8a:7f:a6:c9:28:56:d0:45:3a:c7:ef:43:c1:27:e0:13:ae:
         f9:9a:5b:51
-----BEGIN CERTIFICATE-----
MIIEoTCCA4mgAwIBAgIGCgsMDQ5eMA0GCSqGSIb3DQEBCwUAMIGGMRcwFQYDVQQD
FA5CQU5HQUxPUkVDQV9DQTELMAkGA1UEBhMCSU4xDzANBgNVBAoTBkNJVFJJWDEM
MAoGA1UECxMDQU5HMQswCQYDVQQIEwJLQTEyMDAGCSqGSIb3DQEJARYjQkFOR0FM
T1JFQ0FfQ0FAQkFOR0FMT1JFQ0FfbWFpbC5jb20wHhcNMTcwODIzMDkwNzA0WhcN
MjcwODIxMDkwNzA0WjBmMQswCQYDVQQIEwJLQTELMAkGA1UEBhMCSU4xFjAUBgNV
BAMUDWJscl80MF9jbGllbnQxITAfBgkqhkiG9w0BCQEWEmJscl80MEB0ZXN0X2Nh
LmNvbTEPMA0GA1UEChMGQ0lUUklYMIIBIjANBgkqhkiG9w0BAQEFAAOCAQ8AMIIB
CgKCAQEAsFcoKOIYDFd3Lsv26rxTAx2Y9L/X8WYMog3/lMg1JVjRyL8uzm6vd8nA
nMPwBZGbJnGhaIZL+gREetBq7TcgqmY3eZ0HLFGE1BaZm+CzwsLFoJQA2VS57TAh
oQASMRgM+xAALC20TYfNZdP+omOgCxyw/1PLc3wsqM+lGs/zvz/qSSerAFVfHj0c
kLH4uYW5W4AWvgjmOYcuBoHsN+X1oeotZFjliPSraYicxh4EH/gHnbqIGOeBx72K
2FElSID1RlNljqC11cmsO2wH3FbbNXbvLFYNdCvJmRVB3DMqrE0umm5Qj/HmIel5
HqXY/D+CKIyHQ+Xetg4gNosPperCvQIDAQABo4IBMjCCAS4wEQYJYIZIAYb4QgEB
BAQDAgeAMB0GA1UdDgQWBBToU/dRyRH7yQB+diH7uwemW41mmjCBuwYDVR0jBIGz
MIGwgBQ71tFTGIcFIrvuww/1zg9ropOnuKGBjKSBiTCBhjEXMBUGA1UEAxQOQkFO
R0FMT1JFQ0FfQ0ExCzAJBgNVBAYTAklOMQ8wDQYDVQQKEwZDSVRSSVgxDDAKBgNV
BAsTA0FORzELMAkGA1UECBMCS0ExMjAwBgkqhkiG9w0BCQEWI0JBTkdBTE9SRUNB
X0NBQEJBTkdBTE9SRUNBX21haWwuY29tggkAoay02kZTWEAwPAYIKwYBBQUHAQEE
MDAuMCwGCCsGAQUFBzABhiBodHRwOi8vMTcyLjE2LjIwLjEvcmVzcG9uZGVycGF0
aDANBgkqhkiG9w0BAQsFAAOCAQEAbQPx6I+JAOQ3JtLYh/AP5Jl79cqe5XR5uEY2
BjCZH2lzsmNvk5O8G3q5A+YqcQij0cHdPQPmEBCWFQq6j79xVrxx8Bh2b1VucdKI
m5+hRam1z+4ak0C8iXZQ29pKb9atj+IFkPs7Lryel7MZ4rsgAr7x5uInj1G7x2Dd
DZp3lCQ57tXjvQpVhWYhEtEZ3OzKk2wXCuH/YpACM0RQeUyb2aXfPTDjUI0tcYqe
bpsXeuNZMSJTskousEvhcZKf+o1Siwz1eNSFv2h7jRjO/CJad3nN8HrFjU5jsFPb
JUbO6ky3KOgPNCwVt07ItIp/pskoVtBFOsfvQ8En4BOu+ZpbUQ==
-----END CERTIFICATE-----
