Certificate:
    Data:
        Version: 3 (0x2)
        Serial Number: 11042563100240 (0xa0b0c0d0e50)
    Signature Algorithm: sha256WithRSAEncryption
        Issuer: CN=BANGALORECA_CA, C=IN, O=CITRIX, OU=ANG, ST=KA/emailAddress=BANGALORECA_CA@BANGALORECA_mail.com
        Validity
            Not Before: Aug 23 09:06:56 2017 GMT
            Not After : Aug 21 09:06:56 2027 GMT
        Subject: ST=KA, C=IN, CN=blr_26_client/emailAddress=blr_26@test_ca.com, O=CITRIX
        Subject Public Key Info:
            Public Key Algorithm: rsaEncryption
                Public-Key: (2048 bit)
                Modulus:
                    00:d1:38:59:f9:84:2f:8a:d0:35:9f:a8:24:e7:ab:
                    0f:59:ce:e7:20:ff:d0:27:3c:63:21:e3:78:35:99:
                    9d:2a:aa:36:1f:d7:db:ca:8f:47:79:11:b6:ec:68:
                    ec:ae:22:b0:43:95:11:39:35:c6:8d:69:05:b0:10:
                    38:3d:3b:12:a6:62:23:0e:44:3b:c6:73:65:c2:d1:
                    e5:4f:62:cf:37:9f:09:bf:d9:c1:3f:d4:a3:08:66:
                    e6:bc:cf:08:93:b0:71:45:8a:b3:2f:0b:7e:5e:e0:
                    b9:27:60:f7:3b:28:7c:20:1c:38:51:fb:f5:4f:6e:
                    13:29:37:43:ac:1e:40:b4:f2:65:67:a0:c8:b3:b7:
                    7a:eb:be:08:5c:1f:b1:ff:db:5b:1f:7f:a2:03:69:
                    d1:1f:26:58:2c:58:20:aa:8f:f0:cb:2d:1b:1b:40:
                    96:47:ad:19:4b:98:29:c0:9a:47:dc:92:87:bc:47:
                    4d:74:e9:65:43:5c:41:e7:34:af:a6:4c:fd:fd:28:
                    83:88:76:e2:b3:42:85:93:1b:48:4b:05:ac:ec:be:
                    d0:2f:6b:ad:cf:91:a2:cd:ed:ae:ad:83:46:67:a5:
                    29:90:5a:ec:59:a4:70:9a:45:3b:53:b5:d0:1c:d8:
                    c4:f7:c2:a2:ed:32:f6:a6:f9:85:ce:ce:32:25:02:
                    b9:2b
                Exponent: 65537 (0x10001)
        X509v3 extensions:
            Netscape Cert Type: 
                SSL Client
            X509v3 Subject Key Identifier: 
                96:4A:CB:D4:53:1F:24:D5:AE:D2:6E:E6:D7:B3:0A:F8:4C:58:C5:C8
            X509v3 Authority Key Identifier: 
                keyid:3B:D6:D1:53:18:87:05:22:BB:EE:C3:0F:F5:CE:0F:6B:A2:93:A7:B8
                DirName:/CN=BANGALORECA_CA/C=IN/O=CITRIX/OU=ANG/ST=KA/emailAddress=BANGALORECA_CA@BANGALORECA_mail.com
                serial:A1:AC:B4:DA:46:53:58:40

            Authority Information Access: 
                OCSP - URI:http://172.16.20.1/responderpath

    Signature Algorithm: sha256WithRSAEncryption
         29:9c:bb:3e:3b:43:56:de:f2:a8:26:95:dd:df:6f:7b:58:74:
         5e:53:2d:a5:f9:db:31:95:82:40:92:60:52:6e:76:11:38:2a:
         17:79:96:69:75:26:34:0b:79:ca:96:77:bb:87:e5:98:c4:18:
         b9:3a:a3:be:a9:0f:40:ae:72:ca:0a:f7:83:80:37:97:a0:9c:
         94:08:71:c9:c1:b8:97:56:59:ca:e6:b9:5b:cb:f4:6c:80:18:
         15:63:75:f5:28:d4:d3:45:19:f9:c4:81:d1:58:e1:76:93:54:
         0a:7d:7d:99:c3:2c:e1:9a:32:ad:24:ca:9b:a1:2e:32:b3:83:
         84:3f:af:67:d7:1d:d3:66:fe:5f:f8:6e:ae:90:23:6f:19:f4:
         7a:7f:b8:27:b4:e0:88:89:be:42:ab:39:67:b6:2c:f5:16:95:
         e9:1c:c0:df:09:6b:87:c4:97:8c:98:15:d6:d6:a0:d8:bc:a8:
         16:b5:90:6f:1f:03:9f:a0:76:5d:a9:00:2b:9d:4c:36:ba:b0:
         44:ad:e8:2b:92:c0:b3:65:65:28:43:8e:d9:03:0c:03:75:07:
         9f:33:f1:64:24:97:67:dc:ce:7a:b5:e5:f6:3c:d8:b8:b2:4d:
         3a:5e:3f:68:18:47:75:81:c1:3d:18:b1:fa:06:7c:9e:a9:20:
         38:83:31:a8
-----BEGIN CERTIFICATE-----
MIIEoTCCA4mgAwIBAgIGCgsMDQ5QMA0GCSqGSIb3DQEBCwUAMIGGMRcwFQYDVQQD
FA5CQU5HQUxPUkVDQV9DQTELMAkGA1UEBhMCSU4xDzANBgNVBAoTBkNJVFJJWDEM
MAoGA1UECxMDQU5HMQswCQYDVQQIEwJLQTEyMDAGCSqGSIb3DQEJARYjQkFOR0FM
T1JFQ0FfQ0FAQkFOR0FMT1JFQ0FfbWFpbC5jb20wHhcNMTcwODIzMDkwNjU2WhcN
MjcwODIxMDkwNjU2WjBmMQswCQYDVQQIEwJLQTELMAkGA1UEBhMCSU4xFjAUBgNV
BAMUDWJscl8yNl9jbGllbnQxITAfBgkqhkiG9w0BCQEWEmJscl8yNkB0ZXN0X2Nh
LmNvbTEPMA0GA1UEChMGQ0lUUklYMIIBIjANBgkqhkiG9w0BAQEFAAOCAQ8AMIIB
CgKCAQEA0ThZ+YQvitA1n6gk56sPWc7nIP/QJzxjIeN4NZmdKqo2H9fbyo9HeRG2
7GjsriKwQ5UROTXGjWkFsBA4PTsSpmIjDkQ7xnNlwtHlT2LPN58Jv9nBP9SjCGbm
vM8Ik7BxRYqzLwt+XuC5J2D3Oyh8IBw4Ufv1T24TKTdDrB5AtPJlZ6DIs7d6674I
XB+x/9tbH3+iA2nRHyZYLFggqo/wyy0bG0CWR60ZS5gpwJpH3JKHvEdNdOllQ1xB
5zSvpkz9/SiDiHbis0KFkxtISwWs7L7QL2utz5Gize2urYNGZ6UpkFrsWaRwmkU7
U7XQHNjE98Ki7TL2pvmFzs4yJQK5KwIDAQABo4IBMjCCAS4wEQYJYIZIAYb4QgEB
BAQDAgeAMB0GA1UdDgQWBBSWSsvUUx8k1a7SbubXswr4TFjFyDCBuwYDVR0jBIGz
MIGwgBQ71tFTGIcFIrvuww/1zg9ropOnuKGBjKSBiTCBhjEXMBUGA1UEAxQOQkFO
R0FMT1JFQ0FfQ0ExCzAJBgNVBAYTAklOMQ8wDQYDVQQKEwZDSVRSSVgxDDAKBgNV
BAsTA0FORzELMAkGA1UECBMCS0ExMjAwBgkqhkiG9w0BCQEWI0JBTkdBTE9SRUNB
X0NBQEJBTkdBTE9SRUNBX21haWwuY29tggkAoay02kZTWEAwPAYIKwYBBQUHAQEE
MDAuMCwGCCsGAQUFBzABhiBodHRwOi8vMTcyLjE2LjIwLjEvcmVzcG9uZGVycGF0
aDANBgkqhkiG9w0BAQsFAAOCAQEAKZy7PjtDVt7yqCaV3d9ve1h0XlMtpfnbMZWC
QJJgUm52ETgqF3mWaXUmNAt5ypZ3u4flmMQYuTqjvqkPQK5yygr3g4A3l6CclAhx
ycG4l1ZZyua5W8v0bIAYFWN19SjU00UZ+cSB0VjhdpNUCn19mcMs4ZoyrSTKm6Eu
MrODhD+vZ9cd02b+X/hurpAjbxn0en+4J7TgiIm+Qqs5Z7Ys9RaV6RzA3wlrh8SX
jJgV1tag2LyoFrWQbx8Dn6B2XakAK51MNrqwRK3oK5LAs2VlKEOO2QMMA3UHnzPx
ZCSXZ9zOerXl9jzYuLJNOl4/aBhHdYHBPRix+gZ8nqkgOIMxqA==
-----END CERTIFICATE-----
