Certificate:
    Data:
        Version: 3 (0x2)
        Serial Number: 11042563100241 (0xa0b0c0d0e51)
    Signature Algorithm: sha256WithRSAEncryption
        Issuer: CN=BANGALORECA_CA, C=IN, O=CITRIX, OU=ANG, ST=KA/emailAddress=BANGALORECA_CA@BANGALORECA_mail.com
        Validity
            Not Before: Aug 23 09:06:57 2017 GMT
            Not After : Aug 21 09:06:57 2027 GMT
        Subject: ST=KA, C=IN, CN=blr_27_client/emailAddress=blr_27@test_ca.com, O=CITRIX
        Subject Public Key Info:
            Public Key Algorithm: rsaEncryption
                Public-Key: (2048 bit)
                Modulus:
                    00:c5:da:b0:88:e8:ba:1c:d3:77:33:51:0d:99:6e:
                    f9:21:e9:1e:8c:5a:f1:c6:35:46:9a:b9:12:20:f7:
                    75:b3:3e:46:9a:59:83:f7:3d:8c:39:93:18:69:88:
                    1c:c0:f3:2d:b0:e1:90:16:66:65:56:a2:35:cc:df:
                    dd:31:bd:31:a7:55:b6:ae:2b:05:ad:34:2d:0f:29:
                    4c:8b:a4:72:03:52:ff:f2:e9:d9:16:72:a9:61:53:
                    89:00:d8:69:cf:b9:4d:a0:23:e1:bd:6b:74:6e:98:
                    21:86:d2:d3:ea:df:fd:48:3e:18:7c:7e:9b:68:12:
                    3e:b7:17:9e:13:7c:6d:05:25:de:f3:d6:59:be:65:
                    ea:a1:3f:f2:8c:44:0e:1e:2b:62:a7:f2:52:d7:54:
                    88:c9:45:fa:63:d2:51:e0:68:ae:28:d0:d4:0a:94:
                    b1:74:99:89:98:6c:4b:79:6b:c3:de:da:06:fe:64:
                    bb:a9:76:b8:d0:52:a9:9e:36:27:d9:78:09:81:cd:
                    5c:08:1a:e8:fa:96:44:6d:3b:8a:9e:0d:55:9d:af:
                    56:1a:99:17:dd:f6:d3:fd:a9:d1:51:41:4a:ec:e2:
                    23:2a:04:4f:50:c8:56:ce:68:55:19:4b:ee:53:e3:
                    86:6e:76:de:82:56:87:ab:11:61:10:4f:ce:90:38:
                    a6:fb
                Exponent: 65537 (0x10001)
        X509v3 extensions:
            Netscape Cert Type: 
                SSL Client
            X509v3 Subject Key Identifier: 
                CF:24:A2:7B:EE:ED:25:CB:F8:18:A3:10:E6:13:44:C9:CB:03:59:18
            X509v3 Authority Key Identifier: 
                keyid:3B:D6:D1:53:18:87:05:22:BB:EE:C3:0F:F5:CE:0F:6B:A2:93:A7:B8
                DirName:/CN=BANGALORECA_CA/C=IN/O=CITRIX/OU=ANG/ST=KA/emailAddress=BANGALORECA_CA@BANGALORECA_mail.com
                serial:A1:AC:B4:DA:46:53:58:40

            Authority Information Access: 
                OCSP - URI:http://172.16.20.1/responderpath

    Signature Algorithm: sha256WithRSAEncryption
         05:81:30:17:56:b6:be:df:c7:13:be:58:54:a6:0b:de:56:36:
         fd:4c:36:68:98:bd:33:23:cd:7e:a9:98:d1:21:a3:c0:5d:dd:
         18:ff:0a:c9:31:2d:cf:fe:5a:20:24:83:8e:f1:af:58:33:c2:
         09:b2:18:b9:b6:f8:d5:7b:5c:c6:50:cd:cb:7c:7c:0b:16:e5:
         cd:64:ce:fa:0d:86:47:cc:9a:c2:87:27:e6:88:a9:ef:00:db:
         c6:0a:5a:5f:bb:01:ee:ad:5c:ca:d7:07:dc:9b:54:80:97:28:
         a7:9c:dd:be:c2:f8:03:72:d7:da:19:86:8f:92:e5:01:fc:bf:
         61:62:e9:dd:89:c5:1f:2d:41:8e:92:80:b9:64:42:a4:4f:8a:
         1f:89:b3:e7:40:ba:12:e6:44:61:dd:23:d5:73:9f:d4:9a:5f:
         a1:52:32:be:e6:aa:ea:de:f9:3a:b7:49:36:eb:f7:b3:c0:74:
         b1:66:1f:87:34:e8:97:76:9b:27:e2:c0:32:93:aa:9b:4f:77:
         4d:1d:ff:22:f6:9c:74:2f:60:49:36:da:af:51:a5:42:76:e9:
         1d:15:90:16:9d:8b:c6:d8:d9:eb:3a:27:6f:1f:6e:bc:a9:74:
         ef:ad:bf:0a:f0:23:78:9f:68:d1:42:02:02:c6:44:62:3f:2d:
         dc:51:d7:50
-----BEGIN CERTIFICATE-----
MIIEoTCCA4mgAwIBAgIGCgsMDQ5RMA0GCSqGSIb3DQEBCwUAMIGGMRcwFQYDVQQD
FA5CQU5HQUxPUkVDQV9DQTELMAkGA1UEBhMCSU4xDzANBgNVBAoTBkNJVFJJWDEM
MAoGA1UECxMDQU5HMQswCQYDVQQIEwJLQTEyMDAGCSqGSIb3DQEJARYjQkFOR0FM
T1JFQ0FfQ0FAQkFOR0FMT1JFQ0FfbWFpbC5jb20wHhcNMTcwODIzMDkwNjU3WhcN
MjcwODIxMDkwNjU3WjBmMQswCQYDVQQIEwJLQTELMAkGA1UEBhMCSU4xFjAUBgNV
BAMUDWJscl8yN19jbGllbnQxITAfBgkqhkiG9w0BCQEWEmJscl8yN0B0ZXN0X2Nh
LmNvbTEPMA0GA1UEChMGQ0lUUklYMIIBIjANBgkqhkiG9w0BAQEFAAOCAQ8AMIIB
CgKCAQEAxdqwiOi6HNN3M1ENmW75IekejFrxxjVGmrkSIPd1sz5GmlmD9z2MOZMY
aYgcwPMtsOGQFmZlVqI1zN/dMb0xp1W2risFrTQtDylMi6RyA1L/8unZFnKpYVOJ
ANhpz7lNoCPhvWt0bpghhtLT6t/9SD4YfH6baBI+txeeE3xtBSXe89ZZvmXqoT/y
jEQOHitip/JS11SIyUX6Y9JR4GiuKNDUCpSxdJmJmGxLeWvD3toG/mS7qXa40FKp
njYn2XgJgc1cCBro+pZEbTuKng1Vna9WGpkX3fbT/anRUUFK7OIjKgRPUMhWzmhV
GUvuU+OGbnbeglaHqxFhEE/OkDim+wIDAQABo4IBMjCCAS4wEQYJYIZIAYb4QgEB
BAQDAgeAMB0GA1UdDgQWBBTPJKJ77u0ly/gYoxDmE0TJywNZGDCBuwYDVR0jBIGz
MIGwgBQ71tFTGIcFIrvuww/1zg9ropOnuKGBjKSBiTCBhjEXMBUGA1UEAxQOQkFO
R0FMT1JFQ0FfQ0ExCzAJBgNVBAYTAklOMQ8wDQYDVQQKEwZDSVRSSVgxDDAKBgNV
BAsTA0FORzELMAkGA1UECBMCS0ExMjAwBgkqhkiG9w0BCQEWI0JBTkdBTE9SRUNB
X0NBQEJBTkdBTE9SRUNBX21haWwuY29tggkAoay02kZTWEAwPAYIKwYBBQUHAQEE
MDAuMCwGCCsGAQUFBzABhiBodHRwOi8vMTcyLjE2LjIwLjEvcmVzcG9uZGVycGF0
aDANBgkqhkiG9w0BAQsFAAOCAQEABYEwF1a2vt/HE75YVKYL3lY2/Uw2aJi9MyPN
fqmY0SGjwF3dGP8KyTEtz/5aICSDjvGvWDPCCbIYubb41XtcxlDNy3x8CxblzWTO
+g2GR8yawocn5oip7wDbxgpaX7sB7q1cytcH3JtUgJcop5zdvsL4A3LX2hmGj5Ll
Afy/YWLp3YnFHy1BjpKAuWRCpE+KH4mz50C6EuZEYd0j1XOf1JpfoVIyvuaq6t75
OrdJNuv3s8B0sWYfhzTol3abJ+LAMpOqm093TR3/IvacdC9gSTbar1GlQnbpHRWQ
Fp2LxtjZ6zonbx9uvKl0762/CvAjeJ9o0UICAsZEYj8t3FHXUA==
-----END CERTIFICATE-----
