Certificate:
    Data:
        Version: 3 (0x2)
        Serial Number: 11042563100216 (0xa0b0c0d0e38)
    Signature Algorithm: sha256WithRSAEncryption
        Issuer: CN=BANGALORECA_CA, C=IN, O=CITRIX, OU=ANG, ST=KA/emailAddress=BANGALORECA_CA@BANGALORECA_mail.com
        Validity
            Not Before: Aug 23 09:01:59 2017 GMT
            Not After : Aug 21 09:01:59 2027 GMT
        Subject: ST=KA, C=IN, CN=blr_2_client/emailAddress=blr_2@test_ca.com, O=CITRIX
        Subject Public Key Info:
            Public Key Algorithm: rsaEncryption
                Public-Key: (2048 bit)
                Modulus:
                    00:99:96:25:ef:e5:8c:75:e0:9c:7c:29:ad:21:4f:
                    24:d8:c3:64:a4:f0:e8:5d:14:9a:47:47:14:09:de:
                    9b:1e:1c:e6:84:e2:68:e3:7d:fa:fa:35:21:9a:3d:
                    1b:ec:74:c1:d4:d3:84:0e:1f:10:6a:36:df:ea:9b:
                    73:d8:18:e8:fd:01:b4:85:6c:09:2b:24:9c:68:3a:
                    97:3e:b9:d6:a9:d9:ab:89:f6:a3:87:97:36:e2:67:
                    10:d0:ec:62:28:32:6d:1a:ab:0d:78:f8:c9:c5:70:
                    ac:0a:2a:e2:27:29:b9:89:f9:cd:98:23:68:22:0a:
                    c9:00:2a:e4:9e:72:9f:0b:7f:4f:e2:ba:4f:5c:d0:
                    90:1d:0e:0e:23:f5:64:1e:c3:87:c2:cc:db:19:3c:
                    e0:64:39:ae:ed:73:59:60:5e:20:58:02:50:5f:a5:
                    d1:39:35:5e:af:05:34:ba:1b:00:8f:fd:9f:a6:6b:
                    85:3f:81:9a:16:8c:9e:ef:6c:a0:7a:9b:48:a6:5f:
                    13:87:bc:35:57:62:4f:de:e1:2f:28:37:91:f6:17:
                    a0:71:f0:60:8a:15:bc:bc:73:ef:73:96:61:93:07:
                    eb:2a:b4:cf:d3:cf:83:43:7a:68:68:ea:a5:fc:6a:
                    50:c7:02:b3:f5:f2:b4:5e:a7:e7:bf:91:cf:3f:94:
                    8c:33
                Exponent: 65537 (0x10001)
        X509v3 extensions:
            Netscape Cert Type: 
                SSL Client
            X509v3 Subject Key Identifier: 
                88:79:A2:C9:BC:9A:F5:20:BF:4B:EA:F3:67:E7:7B:DB:3B:BC:BC:82
            X509v3 Authority Key Identifier: 
                keyid:3B:D6:D1:53:18:87:05:22:BB:EE:C3:0F:F5:CE:0F:6B:A2:93:A7:B8
                DirName:/CN=BANGALORECA_CA/C=IN/O=CITRIX/OU=ANG/ST=KA/emailAddress=BANGALORECA_CA@BANGALORECA_mail.com
                serial:A1:AC:B4:DA:46:53:58:40

            Authority Information Access: 
                OCSP - URI:http://172.16.20.1/responderpath

    Signature Algorithm: sha256WithRSAEncryption
         11:46:0c:8f:8c:2e:c9:11:2a:cf:02:80:d7:5b:9e:1b:bb:e4:
         93:e5:4d:d6:57:9f:83:87:27:ce:92:29:e0:4f:ca:0b:e6:27:
         7a:c0:a6:70:e2:78:1e:5a:9f:14:26:3b:9f:ec:83:bc:62:0b:
         89:b7:00:22:06:7a:2d:b2:8d:ba:31:b6:4d:9c:50:fc:9b:52:
         d6:69:e2:81:68:00:4e:0c:7d:01:92:e1:d8:a5:53:2c:45:47:
         9a:67:4d:87:3c:d4:74:4d:c8:48:16:9b:c6:43:74:37:1a:bc:
         24:1b:9a:a1:1e:ad:6f:1f:76:b7:ee:33:ec:d5:78:a5:9c:fb:
         4c:95:f0:78:c0:99:24:db:03:8a:cb:74:d2:f5:80:6c:43:e8:
         a0:00:11:ae:fa:86:bc:29:8e:b9:ce:f4:52:1a:40:c8:cc:a7:
         94:13:7d:a4:c3:6b:e8:a9:83:a0:59:8c:68:cc:38:79:27:bb:
         ff:b7:22:ba:2b:c2:98:34:46:d7:89:a5:45:00:3d:e4:fe:b3:
         2c:c9:cf:77:93:91:97:f4:52:e0:27:7b:cb:40:44:0b:65:ec:
         b8:97:07:f1:78:37:2d:46:68:41:34:11:2e:ce:4e:2f:ae:03:
         b5:6d:b9:c5:46:c7:41:44:4d:8c:87:d8:c5:dc:45:db:df:0a:
         f7:13:70:e3
-----BEGIN CERTIFICATE-----
MIIEnzCCA4egAwIBAgIGCgsMDQ44MA0GCSqGSIb3DQEBCwUAMIGGMRcwFQYDVQQD
FA5CQU5HQUxPUkVDQV9DQTELMAkGA1UEBhMCSU4xDzANBgNVBAoTBkNJVFJJWDEM
MAoGA1UECxMDQU5HMQswCQYDVQQIEwJLQTEyMDAGCSqGSIb3DQEJARYjQkFOR0FM
T1JFQ0FfQ0FAQkFOR0FMT1JFQ0FfbWFpbC5jb20wHhcNMTcwODIzMDkwMTU5WhcN
MjcwODIxMDkwMTU5WjBkMQswCQYDVQQIEwJLQTELMAkGA1UEBhMCSU4xFTATBgNV
BAMUDGJscl8yX2NsaWVudDEgMB4GCSqGSIb3DQEJARYRYmxyXzJAdGVzdF9jYS5j
b20xDzANBgNVBAoTBkNJVFJJWDCCASIwDQYJKoZIhvcNAQEBBQADggEPADCCAQoC
ggEBAJmWJe/ljHXgnHwprSFPJNjDZKTw6F0UmkdHFAnemx4c5oTiaON9+vo1IZo9
G+x0wdTThA4fEGo23+qbc9gY6P0BtIVsCSsknGg6lz651qnZq4n2o4eXNuJnENDs
YigybRqrDXj4ycVwrAoq4icpuYn5zZgjaCIKyQAq5J5ynwt/T+K6T1zQkB0ODiP1
ZB7Dh8LM2xk84GQ5ru1zWWBeIFgCUF+l0Tk1Xq8FNLobAI/9n6ZrhT+BmhaMnu9s
oHqbSKZfE4e8NVdiT97hLyg3kfYXoHHwYIoVvLxz73OWYZMH6yq0z9PPg0N6aGjq
pfxqUMcCs/XytF6n57+Rzz+UjDMCAwEAAaOCATIwggEuMBEGCWCGSAGG+EIBAQQE
AwIHgDAdBgNVHQ4EFgQUiHmiybya9SC/S+rzZ+d72zu8vIIwgbsGA1UdIwSBszCB
sIAUO9bRUxiHBSK77sMP9c4Pa6KTp7ihgYykgYkwgYYxFzAVBgNVBAMUDkJBTkdB
TE9SRUNBX0NBMQswCQYDVQQGEwJJTjEPMA0GA1UEChMGQ0lUUklYMQwwCgYDVQQL
EwNBTkcxCzAJBgNVBAgTAktBMTIwMAYJKoZIhvcNAQkBFiNCQU5HQUxPUkVDQV9D
QUBCQU5HQUxPUkVDQV9tYWlsLmNvbYIJAKGstNpGU1hAMDwGCCsGAQUFBwEBBDAw
LjAsBggrBgEFBQcwAYYgaHR0cDovLzE3Mi4xNi4yMC4xL3Jlc3BvbmRlcnBhdGgw
DQYJKoZIhvcNAQELBQADggEBABFGDI+MLskRKs8CgNdbnhu75JPlTdZXn4OHJ86S
KeBPygvmJ3rApnDieB5anxQmO5/sg7xiC4m3ACIGei2yjboxtk2cUPybUtZp4oFo
AE4MfQGS4dilUyxFR5pnTYc81HRNyEgWm8ZDdDcavCQbmqEerW8fdrfuM+zVeKWc
+0yV8HjAmSTbA4rLdNL1gGxD6KAAEa76hrwpjrnO9FIaQMjMp5QTfaTDa+ipg6BZ
jGjMOHknu/+3Irorwpg0RteJpUUAPeT+syzJz3eTkZf0UuAne8tARAtl7LiXB/F4
Ny1GaEE0ES7OTi+uA7VtucVGx0FETYyH2MXcRdvfCvcTcOM=
-----END CERTIFICATE-----
