Certificate:
    Data:
        Version: 3 (0x2)
        Serial Number: 1108152157448 (0x10203040508)
    Signature Algorithm: sha1WithRSAEncryption
        Issuer: CN=RootTestCA, ST=KA, C=IN/emailAddress=RootTestCA@testca.com, O=CITRIX
        Validity
            Not Before: Jun 17 22:35:06 2016 GMT
            Not After : Jun 15 22:35:06 2026 GMT
        Subject: ST=KA, C=IN, CN=512_server/emailAddress=512@test_ca.com, O=CITRIX
        Subject Public Key Info:
            Public Key Algorithm: rsaEncryption
                Public-Key: (512 bit)
                Modulus:
                    00:a4:a9:6c:48:a5:3d:0e:1b:fc:46:ed:2a:4d:82:
                    d7:d1:58:20:3b:7c:9f:7c:e7:fc:e4:e5:db:2a:bc:
                    76:04:72:15:3b:f3:fd:01:d0:2d:d8:d9:ef:da:c1:
                    16:4a:cc:87:33:51:de:fc:04:44:66:37:89:b4:18:
                    ae:50:eb:80:67
                Exponent: 65537 (0x10001)
        X509v3 extensions:
            X509v3 Basic Constraints: 
                CA:FALSE
            Authority Information Access: 
                CA Issuers - URI:http://server.whatever.org/cert-path

            X509v3 Subject Key Identifier: 
                15:B4:85:4A:FE:AE:8F:03:5D:8B:21:2D:31:11:BE:20:D7:DB:A1:C2
            X509v3 Authority Key Identifier: 
                keyid:28:F3:9E:25:54:F7:24:FD:1F:50:30:35:EF:F3:53:9D:43:EC:9E:8F
                DirName:/CN=RootTestCA/ST=KA/C=IN/emailAddress=RootTestCA@testca.com/O=CITRIX
                serial:9C:3A:18:50:07:30:7B:F9

            X509v3 Certificate Policies: 
                Policy: testoid1
                Policy: 1.5.6.7.8
                Policy: 1.3.5.8
                  CPS: http://my.host.name/
                  CPS: http://my.your.name/
                  User Notice:
                    Organization: Organisation Name
                    Numbers: 1, 2, 3, 4
                    Explicit Text: Explicit Text Here

            X509v3 Policy Mappings: 
                0.10.11.12:0.1.2.3, 0.3.5.7:0.2.4.6
    Signature Algorithm: sha1WithRSAEncryption
         23:f5:7d:7f:ec:7b:f7:5f:bc:02:52:e8:da:be:6b:13:0c:b8:
         c9:86:6d:fc:e2:4e:b6:3c:4f:82:fc:77:c2:0a:b7:ec:c5:76:
         d3:4e:00:d9:c7:b7:73:f7:62:13:ad:be:51:e2:a9:18:8b:77:
         fd:ea:53:6a:05:2c:de:63:6b:45:46:14:8e:95:58:f9:bb:3f:
         97:00:37:9f:98:3d:94:21:21:59:1b:ed:43:5d:64:01:bb:61:
         24:d0:f4:46:c7:74:89:dc:ba:35:77:4f:29:db:15:8d:d6:1c:
         62:61:7e:44:ae:f9:b4:dc:27:1d:3a:c0:61:d1:28:78:d3:f2:
         83:56:bd:36:be:b8:88:68:91:71:5a:6b:a5:ec:d3:0f:94:40:
         d8:2c:8c:a0:ba:de:fe:3c:44:38:35:73:37:aa:46:26:44:81:
         90:c8:59:89:2b:6e:bc:e8:a1:9e:7f:dc:90:a8:b1:30:62:1f:
         3c:74:8d:25:b1:48:46:fe:29:00:1a:f8:ac:25:a0:24:51:60:
         63:5f:fc:83:24:ae:ef:a6:36:3c:b2:79:fd:d9:fa:53:ad:a0:
         d5:40:80:3e:0c:ba:25:8c:fa:72:55:79:3e:3a:29:b0:e1:3b:
         5b:2c:62:c1:5b:5b:44:ac:84:ac:83:73:bc:3c:8f:37:35:0b:
         d0:f1:b3:04
-----BEGIN CERTIFICATE-----
MIIEYTCCA0mgAwIBAgIGAQIDBAUIMA0GCSqGSIb3DQEBBQUAMGYxEzARBgNVBAMT
ClJvb3RUZXN0Q0ExCzAJBgNVBAgTAktBMQswCQYDVQQGEwJJTjEkMCIGCSqGSIb3
DQEJARYVUm9vdFRlc3RDQUB0ZXN0Y2EuY29tMQ8wDQYDVQQKEwZDSVRSSVgwHhcN
MTYwNjE3MjIzNTA2WhcNMjYwNjE1MjIzNTA2WjBgMQswCQYDVQQIEwJLQTELMAkG
A1UEBhMCSU4xEzARBgNVBAMUCjUxMl9zZXJ2ZXIxHjAcBgkqhkiG9w0BCQEWDzUx
MkB0ZXN0X2NhLmNvbTEPMA0GA1UEChMGQ0lUUklYMFwwDQYJKoZIhvcNAQEBBQAD
SwAwSAJBAKSpbEilPQ4b/EbtKk2C19FYIDt8n3zn/OTl2yq8dgRyFTvz/QHQLdjZ
79rBFkrMhzNR3vwERGY3ibQYrlDrgGcCAwEAAaOCAeEwggHdMAkGA1UdEwQCMAAw
QAYIKwYBBQUHAQEENDAyMDAGCCsGAQUFBzAChiRodHRwOi8vc2VydmVyLndoYXRl
dmVyLm9yZy9jZXJ0LXBhdGgwHQYDVR0OBBYEFBW0hUr+ro8DXYshLTERviDX26HC
MIGYBgNVHSMEgZAwgY2AFCjzniVU9yT9H1AwNe/zU51D7J6PoWqkaDBmMRMwEQYD
VQQDEwpSb290VGVzdENBMQswCQYDVQQIEwJLQTELMAkGA1UEBhMCSU4xJDAiBgkq
hkiG9w0BCQEWFVJvb3RUZXN0Q0FAdGVzdGNhLmNvbTEPMA0GA1UEChMGQ0lUUklY
ggkAnDoYUAcwe/kwga4GA1UdIASBpjCBozAFBgMqAwQwBgYELQYHCDCBkQYDKwUI
MIGJMCAGCCsGAQUFBwIBFhRodHRwOi8vbXkuaG9zdC5uYW1lLzAgBggrBgEFBQcC
ARYUaHR0cDovL215LnlvdXIubmFtZS8wQwYIKwYBBQUHAgIwNzAhFhFPcmdhbmlz
YXRpb24gTmFtZTAMAgEBAgECAgEDAgEEGhJFeHBsaWNpdCBUZXh0IEhlcmUwIwYD
VR0hBBwwgDAKBgMKCwwGAwECAzAKBgMDBQcGAwIEBgAAMA0GCSqGSIb3DQEBBQUA
A4IBAQAj9X1/7Hv3X7wCUujavmsTDLjJhm384k62PE+C/HfCCrfsxXbTTgDZx7dz
92ITrb5R4qkYi3f96lNqBSzeY2tFRhSOlVj5uz+XADefmD2UISFZG+1DXWQBu2Ek
0PRGx3SJ3Lo1d08p2xWN1hxiYX5Ervm03CcdOsBh0Sh40/KDVr02vriIaJFxWmul
7NMPlEDYLIygut7+PEQ4NXM3qkYmRIGQyFmJK2686KGef9yQqLEwYh88dI0lsUhG
/ikAGvisJaAkUWBjX/yDJK7vpjY8snn92fpTraDVQIA+DLoljPpyVXk+Oimw4Ttb
LGLBW1tErISsg3O8PI83NQvQ8bME
-----END CERTIFICATE-----
