Certificate:
    Data:
        Version: 3 (0x2)
        Serial Number: 1108152157447 (0x10203040507)
    Signature Algorithm: sha1WithRSAEncryption
        Issuer: CN=RootTestCA, ST=KA, C=IN/emailAddress=RootTestCA@testca.com, O=CITRIX
        Validity
            Not Before: Feb 17 10:05:58 2016 GMT
            Not After : Feb 14 10:05:58 2026 GMT
        Subject: ST=KA, C=IN, CN=ClientOneLevelOneCA/emailAddress=ClientOneLevelOnetCA@test_ca.com, O=CITRIX
        Subject Public Key Info:
            Public Key Algorithm: rsaEncryption
                Public-Key: (2048 bit)
                Modulus:
                    00:d0:ef:cd:a6:a3:94:ce:4f:3b:64:c0:c8:97:8a:
                    74:2a:88:3c:9d:70:c9:a4:60:82:65:f8:db:2a:d3:
                    ce:07:fd:e5:b6:31:58:50:36:17:e9:9b:d2:16:84:
                    3f:c6:4c:83:15:47:7c:13:02:0b:90:e8:65:d2:4d:
                    62:fa:8f:a6:5b:2a:f4:ff:40:e6:09:01:b2:e3:cb:
                    b8:5b:6d:29:18:85:08:7a:94:cf:f8:ea:e8:39:36:
                    7b:f5:b0:31:ce:1c:2a:98:21:db:ed:d0:05:92:9f:
                    43:fa:55:de:f9:bf:6c:25:4b:75:04:b5:ec:c9:7c:
                    35:48:6f:f6:df:35:22:64:2a:49:c7:af:b4:26:cf:
                    32:e6:a4:0d:6a:ac:dc:04:10:9d:96:87:84:59:4d:
                    b9:59:6d:fa:d2:4a:a6:56:4c:a8:fe:66:ee:3b:6a:
                    6b:7e:bd:35:6e:e6:08:cc:75:aa:b9:54:9d:8d:3f:
                    74:a7:2d:3e:19:ae:b6:e1:8b:6f:b3:91:ee:7b:4f:
                    fe:80:ee:fa:c0:0e:75:a2:bc:67:93:cf:b4:c4:b2:
                    9a:84:fb:c5:36:ff:ef:1f:27:c6:5b:c4:ef:ae:7b:
                    c1:8b:ec:8e:02:2a:3e:f0:8c:9f:b6:67:ab:a0:5e:
                    68:ce:7c:08:1a:d5:34:0f:55:6c:04:54:ff:b3:b4:
                    9f:af
                Exponent: 65537 (0x10001)
        X509v3 extensions:
            X509v3 Basic Constraints: 
                CA:TRUE
            Authority Information Access: 
                CA Issuers - URI:http://server.whatever.org/cert-path

            X509v3 Subject Key Identifier: 
                CE:92:BE:41:DD:02:69:06:60:9B:2D:56:A3:85:FA:C4:BE:11:03:A0
            X509v3 Authority Key Identifier: 
                keyid:28:F3:9E:25:54:F7:24:FD:1F:50:30:35:EF:F3:53:9D:43:EC:9E:8F
                DirName:/CN=RootTestCA/ST=KA/C=IN/emailAddress=RootTestCA@testca.com/O=CITRIX
                serial:9C:3A:18:50:07:30:7B:F9

            X509v3 Certificate Policies: 
                Policy: testoid1
                Policy: 1.5.6.7.8
                Policy: 1.3.5.8
                  CPS: http://my.host.name/
                  CPS: http://my.your.name/
                  User Notice:
                    Organization: Organisation Name
                    Numbers: 1, 2, 3, 4
                    Explicit Text: Explicit Text Here

            X509v3 Policy Mappings: 
                0.10.11.12:0.1.2.3, 0.3.5.7:0.2.4.6
    Signature Algorithm: sha1WithRSAEncryption
         7b:47:f5:91:fc:62:19:25:9e:cd:b6:11:cb:8c:3b:a9:af:13:
         c4:b7:a8:aa:fc:28:7c:65:6f:bf:56:20:e5:a6:3c:f2:44:bf:
         cb:d0:47:7f:34:6e:01:3d:af:de:d4:58:0f:d6:64:9a:f0:77:
         fd:6d:0e:bb:39:6d:a7:d2:27:13:57:0b:58:cc:a0:d1:f0:00:
         f0:f6:f2:b7:25:b0:e6:51:be:4b:f7:82:12:34:42:ec:d6:02:
         44:e3:0f:a7:13:d8:39:46:81:e9:2a:47:db:e6:77:7b:39:1b:
         fa:f0:3c:26:9c:82:04:22:10:1c:ca:31:0b:32:e2:ed:47:dc:
         12:c8:6e:ca:8c:92:60:b3:dd:c6:ce:9f:34:03:c2:98:dc:67:
         66:68:4f:1f:31:17:2e:ee:29:76:b0:1f:84:6e:a9:23:ae:7a:
         c0:2d:44:f5:49:fa:a6:b5:f1:cf:e4:13:9c:34:12:54:cd:8a:
         fc:63:e0:50:c2:cd:a5:61:cf:fe:1a:6c:da:99:2e:0e:e3:83:
         b9:1e:ad:db:28:fd:e2:69:ec:fd:ac:69:eb:ec:8d:b8:fc:ba:
         7a:27:de:1c:c4:9c:40:e0:6e:fa:b3:c6:c4:41:88:8d:58:8a:
         d5:f2:a7:25:ed:13:5b:5c:e2:12:75:27:e0:59:06:14:4c:c4:
         1f:01:0b:7a
-----BEGIN CERTIFICATE-----
MIIFRjCCBC6gAwIBAgIGAQIDBAUHMA0GCSqGSIb3DQEBBQUAMGYxEzARBgNVBAMT
ClJvb3RUZXN0Q0ExCzAJBgNVBAgTAktBMQswCQYDVQQGEwJJTjEkMCIGCSqGSIb3
DQEJARYVUm9vdFRlc3RDQUB0ZXN0Y2EuY29tMQ8wDQYDVQQKEwZDSVRSSVgwHhcN
MTYwMjE3MTAwNTU4WhcNMjYwMjE0MTAwNTU4WjB6MQswCQYDVQQIEwJLQTELMAkG
A1UEBhMCSU4xHDAaBgNVBAMTE0NsaWVudE9uZUxldmVsT25lQ0ExLzAtBgkqhkiG
9w0BCQEWIENsaWVudE9uZUxldmVsT25ldENBQHRlc3RfY2EuY29tMQ8wDQYDVQQK
EwZDSVRSSVgwggEiMA0GCSqGSIb3DQEBAQUAA4IBDwAwggEKAoIBAQDQ782mo5TO
TztkwMiXinQqiDydcMmkYIJl+Nsq084H/eW2MVhQNhfpm9IWhD/GTIMVR3wTAguQ
6GXSTWL6j6ZbKvT/QOYJAbLjy7hbbSkYhQh6lM/46ug5Nnv1sDHOHCqYIdvt0AWS
n0P6Vd75v2wlS3UEtezJfDVIb/bfNSJkKknHr7QmzzLmpA1qrNwEEJ2Wh4RZTblZ
bfrSSqZWTKj+Zu47amt+vTVu5gjMdaq5VJ2NP3SnLT4Zrrbhi2+zke57T/6A7vrA
DnWivGeTz7TEspqE+8U2/+8fJ8ZbxO+ue8GL7I4CKj7wjJ+2Z6ugXmjOfAga1TQP
VWwEVP+ztJ+vAgMBAAGjggHkMIIB4DAMBgNVHRMEBTADAQH/MEAGCCsGAQUFBwEB
BDQwMjAwBggrBgEFBQcwAoYkaHR0cDovL3NlcnZlci53aGF0ZXZlci5vcmcvY2Vy
dC1wYXRoMB0GA1UdDgQWBBTOkr5B3QJpBmCbLVajhfrEvhEDoDCBmAYDVR0jBIGQ
MIGNgBQo854lVPck/R9QMDXv81OdQ+yej6FqpGgwZjETMBEGA1UEAxMKUm9vdFRl
c3RDQTELMAkGA1UECBMCS0ExCzAJBgNVBAYTAklOMSQwIgYJKoZIhvcNAQkBFhVS
b290VGVzdENBQHRlc3RjYS5jb20xDzANBgNVBAoTBkNJVFJJWIIJAJw6GFAHMHv5
MIGuBgNVHSAEgaYwgaMwBQYDKgMEMAYGBC0GBwgwgZEGAysFCDCBiTAgBggrBgEF
BQcCARYUaHR0cDovL215Lmhvc3QubmFtZS8wIAYIKwYBBQUHAgEWFGh0dHA6Ly9t
eS55b3VyLm5hbWUvMEMGCCsGAQUFBwICMDcwIRYRT3JnYW5pc2F0aW9uIE5hbWUw
DAIBAQIBAgIBAwIBBBoSRXhwbGljaXQgVGV4dCBIZXJlMCMGA1UdIQQcMIAwCgYD
CgsMBgMBAgMwCgYDAwUHBgMCBAYAADANBgkqhkiG9w0BAQUFAAOCAQEAe0f1kfxi
GSWezbYRy4w7qa8TxLeoqvwofGVvv1Yg5aY88kS/y9BHfzRuAT2v3tRYD9ZkmvB3
/W0Ouzltp9InE1cLWMyg0fAA8PbytyWw5lG+S/eCEjRC7NYCROMPpxPYOUaB6SpH
2+Z3ezkb+vA8JpyCBCIQHMoxCzLi7UfcEshuyoySYLPdxs6fNAPCmNxnZmhPHzEX
Lu4pdrAfhG6pI656wC1E9Un6prXxz+QTnDQSVM2K/GPgUMLNpWHP/hps2pkuDuOD
uR6t2yj94mns/axp6+yNuPy6eifeHMScQOBu+rPGxEGIjViK1fKnJe0TW1ziEnUn
4FkGFEzEHwELeg==
-----END CERTIFICATE-----
