Certificate:
    Data:
        Version: 3 (0x2)
        Serial Number: 1108152289059 (0x10203060723)
    Signature Algorithm: sha256WithRSAEncryption
        Issuer: CN=OCSP_CAONE, ST=KA, C=IN/emailAddress=ocsp_caone@ocsptest.com, O=CITRIX
        Validity
            Not Before: Jun 27 02:32:36 2016 GMT
            Not After : Jun 25 02:32:36 2026 GMT
        Subject: ST=KA, C=IN, CN=ocsp_caone_server_five_server/emailAddress=ocsp_caone_server_five@test_ca.com, O=CITRIX
        Subject Public Key Info:
            Public Key Algorithm: rsaEncryption
                Public-Key: (2048 bit)
                Modulus:
                    00:b7:23:63:77:38:5e:3b:3f:d4:92:88:43:f2:9c:
                    b5:0c:67:20:ed:d1:e2:fa:82:7a:14:8d:53:4a:b7:
                    55:fe:f9:e9:d2:72:9f:60:75:43:77:d6:75:d0:8e:
                    ec:1e:34:bb:77:a6:6b:46:ee:2a:8c:6f:a6:6a:af:
                    62:38:df:49:2c:be:67:ba:a2:9e:d9:58:33:83:4f:
                    0a:a0:84:7f:de:9b:26:69:e2:14:29:72:45:39:d6:
                    d0:f4:c6:31:27:8c:85:39:6d:6c:9d:33:9c:b9:e7:
                    03:fd:aa:0e:52:01:44:ab:b8:11:ff:a3:89:f9:a4:
                    4f:2a:a8:cb:c4:64:4d:35:04:8f:24:b4:29:45:0e:
                    69:59:72:2c:58:db:05:2e:33:8d:45:e1:42:8c:46:
                    b0:cc:59:4a:f9:ee:12:bb:f7:3e:6e:9b:9d:9d:b2:
                    44:09:d0:c9:db:77:42:80:6a:c4:37:3c:4a:c9:69:
                    df:dd:de:33:da:d7:22:a3:95:5c:30:17:bc:a2:e8:
                    8f:e2:14:3f:f0:e5:3f:b0:b5:c0:e4:80:00:1c:08:
                    9a:90:b6:0a:2d:15:0a:5e:e4:e1:e5:4f:88:35:df:
                    4f:2f:10:36:d8:0e:b5:23:5f:9f:13:c9:be:d4:39:
                    66:4a:39:50:29:f9:53:a2:3b:90:8a:cc:eb:d9:ee:
                    5a:57
                Exponent: 65537 (0x10001)
        X509v3 extensions:
            Netscape Cert Type: 
                SSL Server
            X509v3 Subject Key Identifier: 
                75:B6:5D:2E:56:CF:DF:F9:A5:38:55:D7:F4:AB:51:A5:9C:88:AD:8E
            X509v3 Authority Key Identifier: 
                keyid:B7:5F:A4:77:93:33:C4:32:94:1C:8E:F1:0C:3B:DE:62:5E:E2:96:0E
                DirName:/CN=OCSP_CAONE/ST=KA/C=IN/emailAddress=ocsp_caone@ocsptest.com/O=CITRIX
                serial:A2:D9:70:A5:7D:CC:76:E4

            Authority Information Access: 
                OCSP - URI:http://172.16.10.20/responderpath

    Signature Algorithm: sha256WithRSAEncryption
         49:21:f7:57:41:99:29:a9:11:cd:b1:c1:a8:34:2f:86:e1:96:
         8b:e9:e8:2d:06:ef:c0:42:c8:d4:ce:2a:ae:c9:bf:92:0c:10:
         d9:8e:be:f0:c2:0a:0f:be:09:6d:1c:ab:3b:99:bc:16:61:16:
         39:61:06:f9:41:f2:87:15:36:c4:1c:c9:bc:59:37:af:a3:b6:
         6e:ed:d8:a0:eb:40:7e:e8:eb:fe:06:82:90:e2:a0:4b:1f:e5:
         67:a9:7b:14:30:03:e5:0c:83:a4:ed:96:ca:f9:22:71:b1:94:
         0a:29:71:e2:e4:f2:78:81:3a:57:fc:86:80:b8:fe:2a:68:62:
         3c:f1:6c:29:83:63:50:5c:03:18:6c:db:98:a3:c0:e6:9b:dc:
         05:d1:4a:73:9d:d4:a8:f4:6f:fb:c4:e7:91:24:44:86:a0:9b:
         aa:3f:d0:32:2e:23:c3:c4:1d:24:0a:34:e8:96:78:fd:97:c7:
         1a:3c:bf:77:37:c3:06:c7:68:b0:54:9f:01:3a:01:94:f5:c5:
         18:1f:fa:64:17:90:8e:5e:b9:e2:19:53:a9:fb:f5:ae:b1:32:
         82:e1:e8:a2:6c:cf:9b:04:08:d8:46:de:b0:f6:00:94:ef:8b:
         82:2a:f2:2a:01:04:4b:59:78:f1:23:f8:bc:d2:c0:fc:34:9f:
         51:9b:b9:2b
-----BEGIN CERTIFICATE-----
MIIEgzCCA2ugAwIBAgIGAQIDBgcjMA0GCSqGSIb3DQEBCwUAMGgxEzARBgNVBAMU
Ck9DU1BfQ0FPTkUxCzAJBgNVBAgTAktBMQswCQYDVQQGEwJJTjEmMCQGCSqGSIb3
DQEJARYXb2NzcF9jYW9uZUBvY3NwdGVzdC5jb20xDzANBgNVBAoTBkNJVFJJWDAe
Fw0xNjA2MjcwMjMyMzZaFw0yNjA2MjUwMjMyMzZaMIGGMQswCQYDVQQIEwJLQTEL
MAkGA1UEBhMCSU4xJjAkBgNVBAMUHW9jc3BfY2FvbmVfc2VydmVyX2ZpdmVfc2Vy
dmVyMTEwLwYJKoZIhvcNAQkBFiJvY3NwX2Nhb25lX3NlcnZlcl9maXZlQHRlc3Rf
Y2EuY29tMQ8wDQYDVQQKEwZDSVRSSVgwggEiMA0GCSqGSIb3DQEBAQUAA4IBDwAw
ggEKAoIBAQC3I2N3OF47P9SSiEPynLUMZyDt0eL6gnoUjVNKt1X++enScp9gdUN3
1nXQjuweNLt3pmtG7iqMb6Zqr2I430ksvme6op7ZWDODTwqghH/emyZp4hQpckU5
1tD0xjEnjIU5bWydM5y55wP9qg5SAUSruBH/o4n5pE8qqMvEZE01BI8ktClFDmlZ
cixY2wUuM41F4UKMRrDMWUr57hK79z5um52dskQJ0Mnbd0KAasQ3PErJad/d3jPa
1yKjlVwwF7yi6I/iFD/w5T+wtcDkgAAcCJqQtgotFQpe5OHlT4g1308vEDbYDrUj
X58Tyb7UOWZKOVAp+VOiO5CKzOvZ7lpXAgMBAAGjggESMIIBDjARBglghkgBhvhC
AQEEBAMCBkAwHQYDVR0OBBYEFHW2XS5Wz9/5pThV1/SrUaWciK2OMIGaBgNVHSME
gZIwgY+AFLdfpHeTM8QylByO8Qw73mJe4pYOoWykajBoMRMwEQYDVQQDFApPQ1NQ
X0NBT05FMQswCQYDVQQIEwJLQTELMAkGA1UEBhMCSU4xJjAkBgkqhkiG9w0BCQEW
F29jc3BfY2FvbmVAb2NzcHRlc3QuY29tMQ8wDQYDVQQKEwZDSVRSSViCCQCi2XCl
fcx25DA9BggrBgEFBQcBAQQxMC8wLQYIKwYBBQUHMAGGIWh0dHA6Ly8xNzIuMTYu
MTAuMjAvcmVzcG9uZGVycGF0aDANBgkqhkiG9w0BAQsFAAOCAQEASSH3V0GZKakR
zbHBqDQvhuGWi+noLQbvwELI1M4qrsm/kgwQ2Y6+8MIKD74JbRyrO5m8FmEWOWEG
+UHyhxU2xBzJvFk3r6O2bu3YoOtAfujr/gaCkOKgSx/lZ6l7FDAD5QyDpO2Wyvki
cbGUCilx4uTyeIE6V/yGgLj+KmhiPPFsKYNjUFwDGGzbmKPA5pvcBdFKc53UqPRv
+8TnkSREhqCbqj/QMi4jw8QdJAo06JZ4/ZfHGjy/dzfDBsdosFSfAToBlPXFGB/6
ZBeQjl654hlTqfv1rrEyguHoomzPmwQI2EbesPYAlO+LgiryKgEES1l48SP4vNLA
/DSfUZu5Kw==
-----END CERTIFICATE-----
