Certificate:
    Data:
        Version: 3 (0x2)
        Serial Number: 1108152289057 (0x10203060721)
    Signature Algorithm: sha256WithRSAEncryption
        Issuer: CN=OCSP_CAONE, ST=KA, C=IN/emailAddress=ocsp_caone@ocsptest.com, O=CITRIX
        Validity
            Not Before: Jun 27 02:31:26 2016 GMT
            Not After : Jun 25 02:31:26 2026 GMT
        Subject: ST=KA, C=IN, CN=ocsp_caone_server_three_server/emailAddress=ocsp_caone_server_three@test_ca.com, O=CITRIX
        Subject Public Key Info:
            Public Key Algorithm: rsaEncryption
                Public-Key: (2048 bit)
                Modulus:
                    00:b1:f9:69:fe:8f:4c:84:bc:eb:aa:d1:1a:d3:67:
                    39:93:fc:9f:12:fa:44:64:b0:27:71:c6:62:00:fe:
                    e1:20:ff:3c:2a:cf:77:67:05:a6:97:dd:1b:ee:f4:
                    3c:65:6d:be:b5:7f:9a:c7:20:46:e7:6d:d0:79:3d:
                    0d:a9:6b:24:66:9f:67:6c:b7:99:93:dd:90:fb:9b:
                    7f:19:5d:ac:9d:2e:f3:b4:f2:03:59:57:38:dc:18:
                    f5:6f:c5:3c:30:ae:ce:20:07:c4:49:21:ce:76:60:
                    30:03:9d:81:82:56:87:0e:ec:f5:b6:07:e5:88:69:
                    22:b2:ba:c4:55:c7:20:82:dd:b1:81:33:4f:00:b4:
                    d2:e0:31:ac:52:be:dc:60:1b:11:85:47:ca:bf:f6:
                    b5:9d:67:7a:26:98:4c:67:a1:8c:40:34:dc:dd:6c:
                    b2:a5:6e:22:23:48:5d:d1:59:4c:1f:b3:90:b7:f4:
                    1d:d3:ab:13:33:3c:6c:d5:6c:62:d6:40:2e:6e:27:
                    33:07:e5:19:24:1a:ba:f1:0a:42:ec:ba:b4:98:4e:
                    06:2e:a8:cf:21:cd:d2:65:3d:08:c0:50:7a:f1:6a:
                    b4:17:6a:a6:17:47:1b:47:63:5b:1f:b1:99:d9:b0:
                    f2:6a:d4:61:1b:bc:e3:62:ff:aa:a7:d2:9a:ce:ee:
                    f5:b1
                Exponent: 65537 (0x10001)
        X509v3 extensions:
            Netscape Cert Type: 
                SSL Server
            X509v3 Subject Key Identifier: 
                B0:C0:9B:AA:4B:C0:B1:B2:66:FC:70:5F:17:6D:42:2E:42:C6:83:E2
            X509v3 Authority Key Identifier: 
                keyid:B7:5F:A4:77:93:33:C4:32:94:1C:8E:F1:0C:3B:DE:62:5E:E2:96:0E
                DirName:/CN=OCSP_CAONE/ST=KA/C=IN/emailAddress=ocsp_caone@ocsptest.com/O=CITRIX
                serial:A2:D9:70:A5:7D:CC:76:E4

            Authority Information Access: 
                OCSP - URI:http://ashoke_2__ocsp_caone.citrite.net/responderpath

    Signature Algorithm: sha256WithRSAEncryption
         8e:1b:53:45:68:1e:47:78:b3:a3:8c:d5:85:83:8c:35:59:11:
         82:5e:15:db:0e:c1:19:41:61:c8:99:dd:8c:f7:75:88:e0:7a:
         b7:36:b9:93:4f:d7:3a:88:94:24:59:0f:a6:c5:22:12:40:91:
         dc:ff:da:25:9c:a1:55:99:6a:d0:c3:17:00:ee:4a:d7:eb:7a:
         55:db:23:b2:95:8e:39:55:b0:00:b8:a5:68:47:26:f6:00:29:
         6f:2c:27:f2:05:d5:1a:49:0e:a2:51:04:7d:e1:4b:e2:1f:47:
         06:58:f6:fa:5e:86:09:2d:c1:67:98:ab:fc:ce:31:62:97:4e:
         4e:44:03:00:10:42:da:ec:39:70:48:c1:bc:4e:35:cb:16:5f:
         f4:4f:26:3d:9d:4e:f8:22:49:8a:f4:11:6d:10:76:7b:6c:5c:
         49:f6:0b:df:48:c9:bc:fb:7c:4e:ec:25:68:dc:89:4e:ee:bc:
         0e:b5:99:39:e3:88:51:53:d9:91:32:92:d6:b9:72:45:6c:74:
         ff:88:1f:e9:68:89:58:33:0e:b2:2a:46:b5:c4:ed:35:ce:df:
         38:32:55:41:83:63:2c:5d:1c:67:dd:de:0b:73:d6:54:a2:c1:
         a8:f4:c5:29:da:6a:d2:4d:40:cd:b7:97:ee:55:b3:a2:89:dc:
         00:3b:5d:e4
-----BEGIN CERTIFICATE-----
MIIEmTCCA4GgAwIBAgIGAQIDBgchMA0GCSqGSIb3DQEBCwUAMGgxEzARBgNVBAMU
Ck9DU1BfQ0FPTkUxCzAJBgNVBAgTAktBMQswCQYDVQQGEwJJTjEmMCQGCSqGSIb3
DQEJARYXb2NzcF9jYW9uZUBvY3NwdGVzdC5jb20xDzANBgNVBAoTBkNJVFJJWDAe
Fw0xNjA2MjcwMjMxMjZaFw0yNjA2MjUwMjMxMjZaMIGIMQswCQYDVQQIEwJLQTEL
MAkGA1UEBhMCSU4xJzAlBgNVBAMUHm9jc3BfY2FvbmVfc2VydmVyX3RocmVlX3Nl
cnZlcjEyMDAGCSqGSIb3DQEJARYjb2NzcF9jYW9uZV9zZXJ2ZXJfdGhyZWVAdGVz
dF9jYS5jb20xDzANBgNVBAoTBkNJVFJJWDCCASIwDQYJKoZIhvcNAQEBBQADggEP
ADCCAQoCggEBALH5af6PTIS866rRGtNnOZP8nxL6RGSwJ3HGYgD+4SD/PCrPd2cF
ppfdG+70PGVtvrV/mscgRudt0Hk9DalrJGafZ2y3mZPdkPubfxldrJ0u87TyA1lX
ONwY9W/FPDCuziAHxEkhznZgMAOdgYJWhw7s9bYH5YhpIrK6xFXHIILdsYEzTwC0
0uAxrFK+3GAbEYVHyr/2tZ1neiaYTGehjEA03N1ssqVuIiNIXdFZTB+zkLf0HdOr
EzM8bNVsYtZALm4nMwflGSQauvEKQuy6tJhOBi6ozyHN0mU9CMBQevFqtBdqphdH
G0djWx+xmdmw8mrUYRu842L/qqfSms7u9bECAwEAAaOCASYwggEiMBEGCWCGSAGG
+EIBAQQEAwIGQDAdBgNVHQ4EFgQUsMCbqkvAsbJm/HBfF21CLkLGg+IwgZoGA1Ud
IwSBkjCBj4AUt1+kd5MzxDKUHI7xDDveYl7ilg6hbKRqMGgxEzARBgNVBAMUCk9D
U1BfQ0FPTkUxCzAJBgNVBAgTAktBMQswCQYDVQQGEwJJTjEmMCQGCSqGSIb3DQEJ
ARYXb2NzcF9jYW9uZUBvY3NwdGVzdC5jb20xDzANBgNVBAoTBkNJVFJJWIIJAKLZ
cKV9zHbkMFEGCCsGAQUFBwEBBEUwQzBBBggrBgEFBQcwAYY1aHR0cDovL2FzaG9r
ZV8yX19vY3NwX2Nhb25lLmNpdHJpdGUubmV0L3Jlc3BvbmRlcnBhdGgwDQYJKoZI
hvcNAQELBQADggEBAI4bU0VoHkd4s6OM1YWDjDVZEYJeFdsOwRlBYciZ3Yz3dYjg
erc2uZNP1zqIlCRZD6bFIhJAkdz/2iWcoVWZatDDFwDuStfrelXbI7KVjjlVsAC4
pWhHJvYAKW8sJ/IF1RpJDqJRBH3hS+IfRwZY9vpehgktwWeYq/zOMWKXTk5EAwAQ
QtrsOXBIwbxONcsWX/RPJj2dTvgiSYr0EW0QdntsXEn2C99Iybz7fE7sJWjciU7u
vA61mTnjiFFT2ZEykta5ckVsdP+IH+loiVgzDrIqRrXE7TXO3zgyVUGDYyxdHGfd
3gtz1lSiwaj0xSnaatJNQM23l+5Vs6KJ3AA7XeQ=
-----END CERTIFICATE-----
