Certificate:
    Data:
        Version: 3 (0x2)
        Serial Number: 11042563100301 (0xa0b0c0d0e8d)
    Signature Algorithm: sha256WithRSAEncryption
        Issuer: CN=BHOPALCA_CA, C=IN, O=CITRIX, OU=ANG, ST=KA/emailAddress=BHOPALCA_CA@BHOPALCA_mail.com
        Validity
            Not Before: Aug 23 10:01:34 2017 GMT
            Not After : Aug 21 10:01:34 2027 GMT
        Subject: ST=KA, C=IN, CN=bhopal_38_client/emailAddress=bhopal_38@test_ca.com, O=CITRIX
        Subject Public Key Info:
            Public Key Algorithm: rsaEncryption
                Public-Key: (2048 bit)
                Modulus:
                    00:d1:3f:70:0e:df:fb:f3:38:9e:c1:88:31:b4:3f:
                    b1:78:e8:e6:33:a6:0b:68:45:94:d6:d6:ef:e4:33:
                    aa:8b:b4:0d:63:b4:bf:77:cb:9f:3a:e8:2b:55:6e:
                    a1:2c:94:28:b1:0c:42:d8:7f:de:ac:35:8f:d2:84:
                    0f:2f:78:67:02:99:c0:95:3d:bf:0a:72:fc:32:9a:
                    78:37:1f:a9:38:66:d3:92:da:8a:a6:95:32:93:96:
                    e5:f7:f1:97:b6:88:63:42:78:de:15:89:a7:cc:e5:
                    84:40:f4:78:9a:dd:80:75:0d:c5:a5:7c:35:78:20:
                    31:77:f0:41:47:ae:45:ad:b4:5b:97:36:8d:2e:11:
                    fb:a3:5b:d0:03:c3:1a:9e:d4:10:b3:e1:58:b8:b2:
                    52:9f:de:0a:b9:8b:2d:8b:1b:b8:4d:43:91:11:32:
                    d4:88:76:72:2a:f4:91:a8:8f:c5:55:84:0e:5f:5b:
                    72:66:44:05:6e:35:31:73:e1:8a:78:ef:0f:44:23:
                    68:39:b8:e6:ce:14:a2:66:ab:ae:6c:bc:7e:e1:75:
                    f6:90:a1:f5:b5:29:86:56:64:14:f9:23:3f:c2:b4:
                    6d:a3:29:40:a8:19:22:0d:2b:00:96:65:91:36:ac:
                    77:77:07:13:1f:b9:de:6f:1c:04:74:e1:d6:02:1c:
                    cc:f7
                Exponent: 65537 (0x10001)
        X509v3 extensions:
            Netscape Cert Type: 
                SSL Client
            X509v3 Subject Key Identifier: 
                8C:02:E0:FB:AE:4C:BF:A0:7B:10:4B:F7:67:BE:D8:14:9C:24:0E:DF
            X509v3 Authority Key Identifier: 
                keyid:A6:66:0E:59:0F:3C:5C:11:35:B2:B3:99:59:A9:D3:A6:B1:5E:95:D2
                DirName:/CN=BHOPALCA_CA/C=IN/O=CITRIX/OU=ANG/ST=KA/emailAddress=BHOPALCA_CA@BHOPALCA_mail.com
                serial:BE:89:55:F3:65:28:17:9A

            Authority Information Access: 
                OCSP - URI:http://172.17.20.1/responderpath

    Signature Algorithm: sha256WithRSAEncryption
         9c:54:fb:d3:96:61:b2:b5:1a:be:b5:68:06:6d:2d:24:bd:61:
         d8:6a:c4:ff:b8:be:12:d4:a4:a2:17:12:b5:69:71:61:53:c0:
         61:6b:7d:35:09:75:62:b4:b2:f3:27:59:92:8a:58:83:37:d7:
         99:ac:6a:2d:f2:c4:a4:ef:3d:21:24:19:f8:97:63:11:81:7d:
         fb:02:a4:a9:9f:18:cd:5e:91:7e:e3:f1:9b:c3:92:66:6a:0a:
         25:96:b7:f8:9b:fc:e6:18:c2:c7:2d:72:2b:64:99:b4:e2:82:
         f3:f3:36:0d:54:d6:5d:e3:d7:f7:dd:d9:aa:7f:63:71:03:f9:
         3c:32:8b:30:61:7d:2d:92:f6:2a:59:fc:1b:d8:06:33:84:27:
         06:5e:ad:f7:ff:1d:4d:b2:29:f8:8f:d8:e4:62:02:c4:b4:53:
         b2:58:13:7a:51:14:54:02:77:ca:0b:1a:41:32:6b:06:08:94:
         a4:b8:d4:d8:4b:96:5f:43:22:5c:5b:bf:e7:53:a4:ff:7e:24:
         58:95:e3:34:a0:f0:a3:95:34:4e:e3:34:93:e2:60:7b:04:6a:
         25:48:cc:a9:23:1c:94:d8:26:0a:46:ac:de:dc:75:8d:ae:4a:
         79:83:63:a5:75:66:5c:ac:9e:79:c9:97:e5:0a:f3:e7:1a:79:
         b2:3e:7f:16
-----BEGIN CERTIFICATE-----
MIIEkjCCA3qgAwIBAgIGCgsMDQ6NMA0GCSqGSIb3DQEBCwUAMH0xFDASBgNVBAMU
C0JIT1BBTENBX0NBMQswCQYDVQQGEwJJTjEPMA0GA1UEChMGQ0lUUklYMQwwCgYD
VQQLEwNBTkcxCzAJBgNVBAgTAktBMSwwKgYJKoZIhvcNAQkBFh1CSE9QQUxDQV9D
QUBCSE9QQUxDQV9tYWlsLmNvbTAeFw0xNzA4MjMxMDAxMzRaFw0yNzA4MjExMDAx
MzRaMGwxCzAJBgNVBAgTAktBMQswCQYDVQQGEwJJTjEZMBcGA1UEAxQQYmhvcGFs
XzM4X2NsaWVudDEkMCIGCSqGSIb3DQEJARYVYmhvcGFsXzM4QHRlc3RfY2EuY29t
MQ8wDQYDVQQKEwZDSVRSSVgwggEiMA0GCSqGSIb3DQEBAQUAA4IBDwAwggEKAoIB
AQDRP3AO3/vzOJ7BiDG0P7F46OYzpgtoRZTW1u/kM6qLtA1jtL93y5866CtVbqEs
lCixDELYf96sNY/ShA8veGcCmcCVPb8Kcvwymng3H6k4ZtOS2oqmlTKTluX38Ze2
iGNCeN4ViafM5YRA9Hia3YB1DcWlfDV4IDF38EFHrkWttFuXNo0uEfujW9ADwxqe
1BCz4Vi4slKf3gq5iy2LG7hNQ5ERMtSIdnIq9JGoj8VVhA5fW3JmRAVuNTFz4Yp4
7w9EI2g5uObOFKJmq65svH7hdfaQofW1KYZWZBT5Iz/CtG2jKUCoGSINKwCWZZE2
rHd3BxMfud5vHAR04dYCHMz3AgMBAAGjggEnMIIBIzARBglghkgBhvhCAQEEBAMC
B4AwHQYDVR0OBBYEFIwC4PuuTL+gexBL92e+2BScJA7fMIGwBgNVHSMEgagwgaWA
FKZmDlkPPFwRNbKzmVmp06axXpXSoYGBpH8wfTEUMBIGA1UEAxQLQkhPUEFMQ0Ff
Q0ExCzAJBgNVBAYTAklOMQ8wDQYDVQQKEwZDSVRSSVgxDDAKBgNVBAsTA0FORzEL
MAkGA1UECBMCS0ExLDAqBgkqhkiG9w0BCQEWHUJIT1BBTENBX0NBQEJIT1BBTENB
X21haWwuY29tggkAvolV82UoF5owPAYIKwYBBQUHAQEEMDAuMCwGCCsGAQUFBzAB
hiBodHRwOi8vMTcyLjE3LjIwLjEvcmVzcG9uZGVycGF0aDANBgkqhkiG9w0BAQsF
AAOCAQEAnFT705ZhsrUavrVoBm0tJL1h2GrE/7i+EtSkohcStWlxYVPAYWt9NQl1
YrSy8ydZkopYgzfXmaxqLfLEpO89ISQZ+JdjEYF9+wKkqZ8YzV6RfuPxm8OSZmoK
JZa3+Jv85hjCxy1yK2SZtOKC8/M2DVTWXePX993Zqn9jcQP5PDKLMGF9LZL2Kln8
G9gGM4QnBl6t9/8dTbIp+I/Y5GICxLRTslgTelEUVAJ3ygsaQTJrBgiUpLjU2EuW
X0MiXFu/51Ok/34kWJXjNKDwo5U0TuM0k+JgewRqJUjMqSMclNgmCkas3tx1ja5K
eYNjpXVmXKyeecmX5Qrz5xp5sj5/Fg==
-----END CERTIFICATE-----
