Certificate:
    Data:
        Version: 3 (0x2)
        Serial Number: 11042563100201 (0xa0b0c0d0e29)
    Signature Algorithm: sha256WithRSAEncryption
        Issuer: CN=BHOPALCA_CA, C=IN, O=CITRIX, OU=ANG, ST=KA/emailAddress=BHOPALCA_CA@BHOPALCA_mail.com
        Validity
            Not Before: Jul  8 04:32:39 2016 GMT
            Not After : Jul  6 04:32:39 2026 GMT
        Subject: ST=KA, C=IN, CN=127_BHOPALCA_server/emailAddress=127_BHOPALCA@test_ca.com, O=CITRIX
        Subject Public Key Info:
            Public Key Algorithm: rsaEncryption
                Public-Key: (2048 bit)
                Modulus:
                    00:d5:61:9c:63:84:25:3e:cf:57:31:1b:4c:10:ec:
                    fa:c5:05:d2:9c:d1:c2:65:4b:cb:65:8d:ea:66:d4:
                    b1:ac:72:c4:f2:3e:8c:41:74:db:c7:57:52:b8:11:
                    34:51:d7:31:b5:97:09:9c:96:e3:b4:26:66:b7:91:
                    c0:6c:59:4f:76:86:c3:0e:ad:8d:86:db:ab:70:22:
                    44:d9:61:b3:eb:f0:38:2e:8e:dc:53:ee:36:3d:9d:
                    33:fc:6d:7f:01:35:ff:8c:d9:37:34:26:fb:b8:f4:
                    95:80:96:49:8c:43:97:28:09:5f:16:85:e9:14:e7:
                    ae:a9:76:90:2d:70:ac:ef:6f:9d:e7:14:e5:fd:ae:
                    00:94:11:22:73:91:13:3f:2c:89:7a:2d:02:66:21:
                    02:1d:97:b9:a8:80:16:c1:55:b2:83:f7:0b:ea:6d:
                    fe:b9:2b:33:89:2f:5a:be:16:c0:b2:4b:4b:a9:a4:
                    20:90:a2:c1:46:32:27:8a:5b:f5:8a:cb:dd:98:ac:
                    70:09:5f:46:44:b5:79:2a:81:46:f9:30:a9:30:0b:
                    ea:0a:f8:3b:54:e5:f3:80:5f:55:30:4c:67:57:a7:
                    7f:6d:81:e1:5b:b2:3a:ab:a4:3d:49:bf:b6:85:66:
                    d7:2a:0e:ea:13:28:b0:e9:74:7f:20:e9:40:62:76:
                    18:47
                Exponent: 65537 (0x10001)
        X509v3 extensions:
            Netscape Cert Type: 
                SSL Server
            X509v3 Subject Key Identifier: 
                5C:49:60:26:96:CA:F4:68:9B:BE:A3:63:8A:60:18:3D:12:3C:B1:7D
            X509v3 Authority Key Identifier: 
                keyid:A6:66:0E:59:0F:3C:5C:11:35:B2:B3:99:59:A9:D3:A6:B1:5E:95:D2
                DirName:/CN=BHOPALCA_CA/C=IN/O=CITRIX/OU=ANG/ST=KA/emailAddress=BHOPALCA_CA@BHOPALCA_mail.com
                serial:BE:89:55:F3:65:28:17:9A

            Authority Information Access: 
                OCSP - URI:http://172.17.10.1/responderpath

    Signature Algorithm: sha256WithRSAEncryption
         9a:d8:41:79:2a:01:20:3f:52:32:69:d5:6f:0c:ea:b9:2e:c2:
         ce:88:55:fa:32:0f:d1:a3:ef:2b:5d:e2:fb:40:db:62:6f:a6:
         09:e5:6e:ab:72:d1:c8:19:49:e5:0e:1b:e6:cd:93:89:1f:09:
         96:af:ea:50:ff:39:66:8d:2f:8f:17:11:49:42:e7:86:35:63:
         62:b2:86:22:cf:e8:97:08:71:6c:76:c3:4e:2d:9e:d2:99:87:
         77:d5:54:37:15:6d:39:09:37:71:50:af:30:42:9e:2c:e1:e6:
         e4:79:51:89:7d:c5:5d:6b:02:17:c8:8a:0b:a6:8b:b1:33:96:
         1c:95:f2:cc:91:ad:88:3b:6b:7b:39:99:c2:11:86:4c:7b:2c:
         97:21:91:ec:19:28:ff:5c:5b:f6:87:b6:8a:ab:a1:c9:fd:45:
         e0:20:00:80:32:26:7f:d1:b9:95:ba:d6:c3:b4:98:7d:81:95:
         14:4b:c9:0b:fe:be:40:00:d3:23:42:da:0e:ef:8c:66:dd:2e:
         17:f9:ad:d3:ac:48:bc:26:88:fd:6b:90:37:01:a9:b6:4e:52:
         fe:48:e1:66:3b:59:51:e3:1a:10:fd:49:b7:f1:2c:6e:38:10:
         fb:7a:bd:72:19:1a:eb:e4:30:a0:98:b6:67:80:30:82:9c:11:
         46:49:43:b1
-----BEGIN CERTIFICATE-----
MIIEmDCCA4CgAwIBAgIGCgsMDQ4pMA0GCSqGSIb3DQEBCwUAMH0xFDASBgNVBAMU
C0JIT1BBTENBX0NBMQswCQYDVQQGEwJJTjEPMA0GA1UEChMGQ0lUUklYMQwwCgYD
VQQLEwNBTkcxCzAJBgNVBAgTAktBMSwwKgYJKoZIhvcNAQkBFh1CSE9QQUxDQV9D
QUBCSE9QQUxDQV9tYWlsLmNvbTAeFw0xNjA3MDgwNDMyMzlaFw0yNjA3MDYwNDMy
MzlaMHIxCzAJBgNVBAgTAktBMQswCQYDVQQGEwJJTjEcMBoGA1UEAxQTMTI3X0JI
T1BBTENBX3NlcnZlcjEnMCUGCSqGSIb3DQEJARYYMTI3X0JIT1BBTENBQHRlc3Rf
Y2EuY29tMQ8wDQYDVQQKEwZDSVRSSVgwggEiMA0GCSqGSIb3DQEBAQUAA4IBDwAw
ggEKAoIBAQDVYZxjhCU+z1cxG0wQ7PrFBdKc0cJlS8tljepm1LGscsTyPoxBdNvH
V1K4ETRR1zG1lwmcluO0Jma3kcBsWU92hsMOrY2G26twIkTZYbPr8DgujtxT7jY9
nTP8bX8BNf+M2Tc0Jvu49JWAlkmMQ5coCV8WhekU566pdpAtcKzvb53nFOX9rgCU
ESJzkRM/LIl6LQJmIQIdl7mogBbBVbKD9wvqbf65KzOJL1q+FsCyS0uppCCQosFG
MieKW/WKy92YrHAJX0ZEtXkqgUb5MKkwC+oK+DtU5fOAX1UwTGdXp39tgeFbsjqr
pD1Jv7aFZtcqDuoTKLDpdH8g6UBidhhHAgMBAAGjggEnMIIBIzARBglghkgBhvhC
AQEEBAMCBkAwHQYDVR0OBBYEFFxJYCaWyvRom76jY4pgGD0SPLF9MIGwBgNVHSME
gagwgaWAFKZmDlkPPFwRNbKzmVmp06axXpXSoYGBpH8wfTEUMBIGA1UEAxQLQkhP
UEFMQ0FfQ0ExCzAJBgNVBAYTAklOMQ8wDQYDVQQKEwZDSVRSSVgxDDAKBgNVBAsT
A0FORzELMAkGA1UECBMCS0ExLDAqBgkqhkiG9w0BCQEWHUJIT1BBTENBX0NBQEJI
T1BBTENBX21haWwuY29tggkAvolV82UoF5owPAYIKwYBBQUHAQEEMDAuMCwGCCsG
AQUFBzABhiBodHRwOi8vMTcyLjE3LjEwLjEvcmVzcG9uZGVycGF0aDANBgkqhkiG
9w0BAQsFAAOCAQEAmthBeSoBID9SMmnVbwzquS7CzohV+jIP0aPvK13i+0DbYm+m
CeVuq3LRyBlJ5Q4b5s2TiR8Jlq/qUP85Zo0vjxcRSULnhjVjYrKGIs/olwhxbHbD
Ti2e0pmHd9VUNxVtOQk3cVCvMEKeLOHm5HlRiX3FXWsCF8iKC6aLsTOWHJXyzJGt
iDtrezmZwhGGTHsslyGR7Bko/1xb9oe2iquhyf1F4CAAgDImf9G5lbrWw7SYfYGV
FEvJC/6+QADTI0LaDu+MZt0uF/mt06xIvCaI/WuQNwGptk5S/kjhZjtZUeMaEP1J
t/EsbjgQ+3q9chka6+QwoJi2Z4AwgpwRRklDsQ==
-----END CERTIFICATE-----
