Certificate:
    Data:
        Version: 3 (0x2)
        Serial Number: 11042563100310 (0xa0b0c0d0e96)
    Signature Algorithm: sha256WithRSAEncryption
        Issuer: CN=BHOPALCA_CA, C=IN, O=CITRIX, OU=ANG, ST=KA/emailAddress=BHOPALCA_CA@BHOPALCA_mail.com
        Validity
            Not Before: Aug 23 10:01:38 2017 GMT
            Not After : Aug 21 10:01:38 2027 GMT
        Subject: ST=KA, C=IN, CN=bhopal_47_client/emailAddress=bhopal_47@test_ca.com, O=CITRIX
        Subject Public Key Info:
            Public Key Algorithm: rsaEncryption
                Public-Key: (2048 bit)
                Modulus:
                    00:aa:8f:d5:73:c3:25:34:07:cb:90:3c:88:a0:56:
                    e7:e7:f1:cd:47:d6:b7:63:a2:13:7a:25:17:16:c9:
                    e9:ca:b1:ae:c9:30:f5:61:0a:5c:46:03:f7:3e:28:
                    e7:a8:c4:41:ee:ab:9d:36:79:f2:85:f3:62:bb:7c:
                    f3:36:9e:91:76:ab:8f:19:e0:7e:b8:28:43:af:7e:
                    26:5c:e6:ec:c4:fa:de:6f:01:a5:e5:33:fc:0c:8d:
                    b3:57:6f:03:ae:59:d5:05:c1:25:45:5d:1a:c7:c3:
                    8a:e0:46:41:df:62:66:d2:33:10:e2:a5:2d:a0:3f:
                    64:38:e5:7e:74:2f:12:11:4b:0d:ad:f6:86:4a:48:
                    34:6c:08:fd:81:94:25:f5:89:6b:18:f1:2d:fc:69:
                    c5:e2:ff:e8:f8:91:96:c3:b3:14:18:e3:d8:4e:58:
                    59:ae:ca:14:70:c1:44:4d:05:24:fa:75:48:76:34:
                    61:d6:eb:7f:ea:fd:3c:a6:f2:11:52:4b:46:1b:36:
                    b5:26:c0:b1:77:47:ab:9c:1d:e5:ae:e6:5f:9d:92:
                    f6:27:73:56:e1:d9:56:38:1f:2b:bf:07:87:f2:aa:
                    4d:6c:47:7f:50:9c:65:f0:7c:f6:84:dc:a2:1e:30:
                    9b:f5:17:39:db:29:47:4d:ba:0e:23:99:02:79:2c:
                    da:07
                Exponent: 65537 (0x10001)
        X509v3 extensions:
            Netscape Cert Type: 
                SSL Client
            X509v3 Subject Key Identifier: 
                A9:62:F1:63:9F:E5:FC:2C:BB:E5:5D:0D:F9:42:6A:61:C7:48:CA:7D
            X509v3 Authority Key Identifier: 
                keyid:A6:66:0E:59:0F:3C:5C:11:35:B2:B3:99:59:A9:D3:A6:B1:5E:95:D2
                DirName:/CN=BHOPALCA_CA/C=IN/O=CITRIX/OU=ANG/ST=KA/emailAddress=BHOPALCA_CA@BHOPALCA_mail.com
                serial:BE:89:55:F3:65:28:17:9A

            Authority Information Access: 
                OCSP - URI:http://172.17.20.1/responderpath

    Signature Algorithm: sha256WithRSAEncryption
         70:5c:e4:e5:62:95:2e:e9:7d:26:16:dd:9f:56:eb:0d:ae:a1:
         a3:e1:79:f1:89:05:60:9b:f0:56:d3:2b:2e:0e:4d:11:99:91:
         79:f9:32:5a:32:16:c7:b8:20:f9:b2:76:fa:dc:24:e0:ca:4e:
         da:78:49:ef:b3:79:ef:4a:11:98:d3:79:e3:2b:48:8a:34:e2:
         f5:9f:99:a3:82:8a:c4:e6:b5:15:09:3c:a4:1e:96:eb:75:d0:
         85:5e:5c:92:15:aa:2d:70:ba:ed:9e:35:8f:cd:31:dc:72:c7:
         df:0e:9c:c8:af:0a:f1:d6:5a:c5:ee:bd:0e:0c:d7:54:6e:77:
         0a:6c:e2:d7:05:a0:16:cc:02:78:36:36:66:1e:e1:a9:38:ee:
         c2:41:66:a5:83:f7:0c:3b:a2:43:2e:f7:bb:3b:fe:04:d4:96:
         9c:ee:c0:ce:a2:18:dd:49:ff:c3:1e:f2:af:11:16:a1:a8:2e:
         61:8f:e4:a4:f0:2e:38:f5:08:c8:42:f9:58:e3:2f:76:b3:84:
         d9:39:14:70:c9:e3:1b:b2:d0:7a:4b:16:b1:ef:a3:a5:28:ee:
         3e:f5:4e:94:94:01:0e:93:31:cf:3a:7c:43:8a:89:cb:f0:a8:
         f5:66:d5:3b:62:40:0f:b9:03:f9:bc:db:a3:7d:70:55:f2:9a:
         6e:7c:8e:a9
-----BEGIN CERTIFICATE-----
MIIEkjCCA3qgAwIBAgIGCgsMDQ6WMA0GCSqGSIb3DQEBCwUAMH0xFDASBgNVBAMU
C0JIT1BBTENBX0NBMQswCQYDVQQGEwJJTjEPMA0GA1UEChMGQ0lUUklYMQwwCgYD
VQQLEwNBTkcxCzAJBgNVBAgTAktBMSwwKgYJKoZIhvcNAQkBFh1CSE9QQUxDQV9D
QUBCSE9QQUxDQV9tYWlsLmNvbTAeFw0xNzA4MjMxMDAxMzhaFw0yNzA4MjExMDAx
MzhaMGwxCzAJBgNVBAgTAktBMQswCQYDVQQGEwJJTjEZMBcGA1UEAxQQYmhvcGFs
XzQ3X2NsaWVudDEkMCIGCSqGSIb3DQEJARYVYmhvcGFsXzQ3QHRlc3RfY2EuY29t
MQ8wDQYDVQQKEwZDSVRSSVgwggEiMA0GCSqGSIb3DQEBAQUAA4IBDwAwggEKAoIB
AQCqj9VzwyU0B8uQPIigVufn8c1H1rdjohN6JRcWyenKsa7JMPVhClxGA/c+KOeo
xEHuq502efKF82K7fPM2npF2q48Z4H64KEOvfiZc5uzE+t5vAaXlM/wMjbNXbwOu
WdUFwSVFXRrHw4rgRkHfYmbSMxDipS2gP2Q45X50LxIRSw2t9oZKSDRsCP2BlCX1
iWsY8S38acXi/+j4kZbDsxQY49hOWFmuyhRwwURNBST6dUh2NGHW63/q/Tym8hFS
S0YbNrUmwLF3R6ucHeWu5l+dkvYnc1bh2VY4Hyu/B4fyqk1sR39QnGXwfPaE3KIe
MJv1FznbKUdNug4jmQJ5LNoHAgMBAAGjggEnMIIBIzARBglghkgBhvhCAQEEBAMC
B4AwHQYDVR0OBBYEFKli8WOf5fwsu+VdDflCamHHSMp9MIGwBgNVHSMEgagwgaWA
FKZmDlkPPFwRNbKzmVmp06axXpXSoYGBpH8wfTEUMBIGA1UEAxQLQkhPUEFMQ0Ff
Q0ExCzAJBgNVBAYTAklOMQ8wDQYDVQQKEwZDSVRSSVgxDDAKBgNVBAsTA0FORzEL
MAkGA1UECBMCS0ExLDAqBgkqhkiG9w0BCQEWHUJIT1BBTENBX0NBQEJIT1BBTENB
X21haWwuY29tggkAvolV82UoF5owPAYIKwYBBQUHAQEEMDAuMCwGCCsGAQUFBzAB
hiBodHRwOi8vMTcyLjE3LjIwLjEvcmVzcG9uZGVycGF0aDANBgkqhkiG9w0BAQsF
AAOCAQEAcFzk5WKVLul9Jhbdn1brDa6ho+F58YkFYJvwVtMrLg5NEZmRefkyWjIW
x7gg+bJ2+twk4MpO2nhJ77N570oRmNN54ytIijTi9Z+Zo4KKxOa1FQk8pB6W63XQ
hV5ckhWqLXC67Z41j80x3HLH3w6cyK8K8dZaxe69DgzXVG53Cmzi1wWgFswCeDY2
Zh7hqTjuwkFmpYP3DDuiQy73uzv+BNSWnO7AzqIY3Un/wx7yrxEWoaguYY/kpPAu
OPUIyEL5WOMvdrOE2TkUcMnjG7LQeksWse+jpSjuPvVOlJQBDpMxzzp8Q4qJy/Co
9WbVO2JAD7kD+bzbo31wVfKabnyOqQ==
-----END CERTIFICATE-----
