Certificate:
    Data:
        Version: 3 (0x2)
        Serial Number: 11042563100292 (0xa0b0c0d0e84)
    Signature Algorithm: sha256WithRSAEncryption
        Issuer: CN=BHOPALCA_CA, C=IN, O=CITRIX, OU=ANG, ST=KA/emailAddress=BHOPALCA_CA@BHOPALCA_mail.com
        Validity
            Not Before: Aug 23 10:01:29 2017 GMT
            Not After : Aug 21 10:01:29 2027 GMT
        Subject: ST=KA, C=IN, CN=bhopal_29_client/emailAddress=bhopal_29@test_ca.com, O=CITRIX
        Subject Public Key Info:
            Public Key Algorithm: rsaEncryption
                Public-Key: (2048 bit)
                Modulus:
                    00:b4:b2:3c:aa:02:db:69:10:e2:52:04:87:42:50:
                    4c:8f:ae:e1:34:40:e4:aa:af:4a:6f:c3:3a:e5:54:
                    b4:e2:49:fa:1b:f9:39:92:ec:bf:e8:26:0a:e2:17:
                    43:70:29:4a:f0:32:42:fa:84:dc:d9:0e:de:df:76:
                    1f:2b:e6:45:c4:6f:db:73:4f:30:c7:2b:20:7a:82:
                    ec:47:73:4f:6e:fa:73:95:a0:73:20:31:d7:f1:ae:
                    cd:c7:ef:76:6f:9d:f2:eb:9f:97:ef:94:3b:29:eb:
                    1e:9b:c5:9b:79:28:23:ac:3d:6b:95:62:ff:80:d0:
                    60:4b:07:3f:51:54:86:78:5c:fd:5a:c1:83:7f:07:
                    75:6b:ad:1e:af:13:19:1c:99:39:10:ac:2d:7f:67:
                    9b:24:d3:fd:5a:22:5c:da:e2:ae:bc:a3:31:cd:b2:
                    30:2e:36:05:cd:4f:a6:c2:ad:93:d1:07:16:b1:7d:
                    3d:6e:40:73:72:77:97:53:7d:74:17:a8:96:e0:ad:
                    ea:2d:dd:9f:0a:38:c2:6b:0c:c7:46:8c:77:ab:3e:
                    ec:95:44:52:8a:1a:46:5d:87:2c:92:3b:14:7f:de:
                    ea:db:2e:f3:db:0b:a2:44:ce:6f:a0:23:75:94:4d:
                    77:a4:c0:14:05:0f:cf:81:a8:37:ae:01:88:6d:a9:
                    0c:49
                Exponent: 65537 (0x10001)
        X509v3 extensions:
            Netscape Cert Type: 
                SSL Client
            X509v3 Subject Key Identifier: 
                41:DE:3B:37:54:9E:F7:AE:AB:35:58:B4:91:91:E5:CB:29:13:AE:B1
            X509v3 Authority Key Identifier: 
                keyid:A6:66:0E:59:0F:3C:5C:11:35:B2:B3:99:59:A9:D3:A6:B1:5E:95:D2
                DirName:/CN=BHOPALCA_CA/C=IN/O=CITRIX/OU=ANG/ST=KA/emailAddress=BHOPALCA_CA@BHOPALCA_mail.com
                serial:BE:89:55:F3:65:28:17:9A

            Authority Information Access: 
                OCSP - URI:http://172.17.20.1/responderpath

    Signature Algorithm: sha256WithRSAEncryption
         1a:8a:18:a6:94:8a:05:24:5d:64:ff:62:d6:43:84:0a:fd:72:
         5e:ff:18:57:63:77:0d:c3:ba:0e:7c:3b:b0:5a:dd:31:c4:7e:
         32:cb:01:26:19:cc:93:1b:c5:49:37:fa:7a:cb:72:ce:02:d5:
         5b:0d:36:48:02:9e:dd:3c:f3:9a:a7:0f:29:80:c1:35:86:9b:
         54:d4:c1:e6:4e:b9:16:7e:a9:23:f5:e2:ea:9a:20:23:24:4d:
         75:83:8c:32:95:d6:c1:23:12:f7:2b:6a:21:c5:f6:e4:96:b3:
         b4:fe:28:bf:f9:44:ab:7d:4a:3d:01:ee:a8:d3:14:9a:ed:50:
         ae:8f:5d:29:e4:b8:b1:93:4d:24:3d:94:93:4f:33:27:1f:52:
         d9:05:95:ca:7f:b4:0a:be:69:f3:4f:6f:73:c7:0d:b5:85:19:
         ea:88:52:c0:d3:76:6a:3e:0e:d3:13:3a:f3:3e:ca:db:83:b3:
         b6:c6:20:bf:21:13:01:24:64:7a:89:ab:20:af:22:db:95:28:
         07:f0:fa:55:cd:fb:04:42:66:6c:d8:4f:e9:16:e4:e3:31:dd:
         b0:a3:fe:3b:d6:88:a8:8e:db:9b:66:b9:77:76:7b:4b:da:37:
         46:10:7f:85:d6:4b:0d:95:06:76:60:1d:d9:86:25:3f:93:98:
         c0:f9:22:64
-----BEGIN CERTIFICATE-----
MIIEkjCCA3qgAwIBAgIGCgsMDQ6EMA0GCSqGSIb3DQEBCwUAMH0xFDASBgNVBAMU
C0JIT1BBTENBX0NBMQswCQYDVQQGEwJJTjEPMA0GA1UEChMGQ0lUUklYMQwwCgYD
VQQLEwNBTkcxCzAJBgNVBAgTAktBMSwwKgYJKoZIhvcNAQkBFh1CSE9QQUxDQV9D
QUBCSE9QQUxDQV9tYWlsLmNvbTAeFw0xNzA4MjMxMDAxMjlaFw0yNzA4MjExMDAx
MjlaMGwxCzAJBgNVBAgTAktBMQswCQYDVQQGEwJJTjEZMBcGA1UEAxQQYmhvcGFs
XzI5X2NsaWVudDEkMCIGCSqGSIb3DQEJARYVYmhvcGFsXzI5QHRlc3RfY2EuY29t
MQ8wDQYDVQQKEwZDSVRSSVgwggEiMA0GCSqGSIb3DQEBAQUAA4IBDwAwggEKAoIB
AQC0sjyqAttpEOJSBIdCUEyPruE0QOSqr0pvwzrlVLTiSfob+TmS7L/oJgriF0Nw
KUrwMkL6hNzZDt7fdh8r5kXEb9tzTzDHKyB6guxHc09u+nOVoHMgMdfxrs3H73Zv
nfLrn5fvlDsp6x6bxZt5KCOsPWuVYv+A0GBLBz9RVIZ4XP1awYN/B3VrrR6vExkc
mTkQrC1/Z5sk0/1aIlza4q68ozHNsjAuNgXNT6bCrZPRBxaxfT1uQHNyd5dTfXQX
qJbgreot3Z8KOMJrDMdGjHerPuyVRFKKGkZdhyySOxR/3urbLvPbC6JEzm+gI3WU
TXekwBQFD8+BqDeuAYhtqQxJAgMBAAGjggEnMIIBIzARBglghkgBhvhCAQEEBAMC
B4AwHQYDVR0OBBYEFEHeOzdUnveuqzVYtJGR5cspE66xMIGwBgNVHSMEgagwgaWA
FKZmDlkPPFwRNbKzmVmp06axXpXSoYGBpH8wfTEUMBIGA1UEAxQLQkhPUEFMQ0Ff
Q0ExCzAJBgNVBAYTAklOMQ8wDQYDVQQKEwZDSVRSSVgxDDAKBgNVBAsTA0FORzEL
MAkGA1UECBMCS0ExLDAqBgkqhkiG9w0BCQEWHUJIT1BBTENBX0NBQEJIT1BBTENB
X21haWwuY29tggkAvolV82UoF5owPAYIKwYBBQUHAQEEMDAuMCwGCCsGAQUFBzAB
hiBodHRwOi8vMTcyLjE3LjIwLjEvcmVzcG9uZGVycGF0aDANBgkqhkiG9w0BAQsF
AAOCAQEAGooYppSKBSRdZP9i1kOECv1yXv8YV2N3DcO6Dnw7sFrdMcR+MssBJhnM
kxvFSTf6estyzgLVWw02SAKe3TzzmqcPKYDBNYabVNTB5k65Fn6pI/Xi6pogIyRN
dYOMMpXWwSMS9ytqIcX25JaztP4ov/lEq31KPQHuqNMUmu1Qro9dKeS4sZNNJD2U
k08zJx9S2QWVyn+0Cr5p809vc8cNtYUZ6ohSwNN2aj4O0xM68z7K24OztsYgvyET
ASRkeomrIK8i25UoB/D6Vc37BEJmbNhP6Rbk4zHdsKP+O9aIqI7bm2a5d3Z7S9o3
RhB/hdZLDZUGdmAd2YYlP5OYwPkiZA==
-----END CERTIFICATE-----
