Certificate:
    Data:
        Version: 3 (0x2)
        Serial Number: 11042563100304 (0xa0b0c0d0e90)
    Signature Algorithm: sha256WithRSAEncryption
        Issuer: CN=BHOPALCA_CA, C=IN, O=CITRIX, OU=ANG, ST=KA/emailAddress=BHOPALCA_CA@BHOPALCA_mail.com
        Validity
            Not Before: Aug 23 10:01:36 2017 GMT
            Not After : Aug 21 10:01:36 2027 GMT
        Subject: ST=KA, C=IN, CN=bhopal_41_client/emailAddress=bhopal_41@test_ca.com, O=CITRIX
        Subject Public Key Info:
            Public Key Algorithm: rsaEncryption
                Public-Key: (2048 bit)
                Modulus:
                    00:c7:4a:a9:eb:cf:00:0d:89:0e:9e:2b:ee:bf:a2:
                    f7:ce:be:43:42:6e:52:20:24:5b:e0:3e:87:3b:5c:
                    05:56:f8:ac:c3:9a:d4:22:69:f4:a0:6e:5a:7c:31:
                    9f:d3:99:27:7a:9e:00:fe:3f:43:ee:b3:4f:99:4b:
                    8f:5d:a9:3f:64:43:84:c5:28:16:77:45:bc:e6:fc:
                    d9:3b:22:1e:b9:54:61:3d:2e:15:7e:b8:b8:48:28:
                    49:87:12:14:95:59:94:2c:c2:47:bf:fd:f0:bd:c5:
                    38:b1:01:0c:8c:c8:66:9f:12:a7:b8:57:83:65:e4:
                    2e:b6:53:4d:58:2f:07:8a:3d:35:b8:02:ac:9b:5b:
                    7d:17:60:dd:a7:9b:6a:1c:57:ee:c4:4e:d7:54:1c:
                    cb:69:54:64:c9:0e:44:f1:b9:58:33:18:7b:e4:08:
                    77:09:2a:df:7f:70:c8:d6:50:52:c9:73:07:8a:44:
                    1a:86:c3:fa:11:d0:3b:80:7e:88:c5:75:57:f6:85:
                    96:32:1f:e3:3a:5b:08:29:37:28:34:02:55:a1:44:
                    10:ca:64:cc:26:41:0a:fb:84:51:24:f3:37:ce:3d:
                    e6:ae:f8:6f:bd:8c:95:e4:cd:a9:a6:8a:42:83:c4:
                    52:4f:c8:cf:3e:fe:4c:b7:88:a8:92:01:54:98:9a:
                    6d:2f
                Exponent: 65537 (0x10001)
        X509v3 extensions:
            Netscape Cert Type: 
                SSL Client
            X509v3 Subject Key Identifier: 
                76:3B:F9:69:30:B7:CA:6E:8C:7E:2E:EE:72:C9:DB:06:77:09:2B:8A
            X509v3 Authority Key Identifier: 
                keyid:A6:66:0E:59:0F:3C:5C:11:35:B2:B3:99:59:A9:D3:A6:B1:5E:95:D2
                DirName:/CN=BHOPALCA_CA/C=IN/O=CITRIX/OU=ANG/ST=KA/emailAddress=BHOPALCA_CA@BHOPALCA_mail.com
                serial:BE:89:55:F3:65:28:17:9A

            Authority Information Access: 
                OCSP - URI:http://172.17.20.1/responderpath

    Signature Algorithm: sha256WithRSAEncryption
         5f:6c:3a:07:92:79:00:07:46:48:21:6c:be:cb:08:bc:cf:3b:
         cb:cc:b7:eb:80:66:ad:15:0e:bf:a6:d0:87:e6:40:76:38:c9:
         b5:83:ae:b1:78:9a:4a:d5:25:c9:df:66:7d:6c:a8:2d:54:0e:
         f6:84:4a:8c:89:a9:9c:32:3e:33:a3:98:3c:71:f5:86:14:73:
         35:4b:09:68:fe:35:3a:5a:9b:8c:d7:fe:2e:66:0a:b4:e7:27:
         02:15:87:f9:60:e7:78:fa:4e:45:86:93:f4:d6:e1:ae:06:c6:
         10:da:71:f5:5d:6f:cf:95:59:7c:c9:eb:db:37:54:e6:59:4e:
         19:cf:f1:da:1f:bb:50:da:2f:7d:5a:63:50:64:df:62:b7:69:
         62:3a:04:9e:5a:20:d7:50:5c:32:96:90:59:38:80:8a:ef:7e:
         bb:bd:ea:83:fb:9c:54:e2:7a:ae:a7:d2:af:91:5a:8a:5f:b7:
         c1:98:90:4a:e1:d3:ff:0a:24:de:5e:65:d9:ef:ce:01:0f:17:
         47:ee:c3:67:af:b5:18:0e:de:4a:04:60:e2:e4:61:d8:38:6e:
         6e:88:ff:c7:62:8e:ab:ed:b9:7c:e9:f1:3a:10:3d:ba:48:ee:
         09:e8:71:91:1c:d0:45:90:7c:c2:d5:cc:88:15:f5:77:20:6c:
         18:fe:8b:87
-----BEGIN CERTIFICATE-----
MIIEkjCCA3qgAwIBAgIGCgsMDQ6QMA0GCSqGSIb3DQEBCwUAMH0xFDASBgNVBAMU
C0JIT1BBTENBX0NBMQswCQYDVQQGEwJJTjEPMA0GA1UEChMGQ0lUUklYMQwwCgYD
VQQLEwNBTkcxCzAJBgNVBAgTAktBMSwwKgYJKoZIhvcNAQkBFh1CSE9QQUxDQV9D
QUBCSE9QQUxDQV9tYWlsLmNvbTAeFw0xNzA4MjMxMDAxMzZaFw0yNzA4MjExMDAx
MzZaMGwxCzAJBgNVBAgTAktBMQswCQYDVQQGEwJJTjEZMBcGA1UEAxQQYmhvcGFs
XzQxX2NsaWVudDEkMCIGCSqGSIb3DQEJARYVYmhvcGFsXzQxQHRlc3RfY2EuY29t
MQ8wDQYDVQQKEwZDSVRSSVgwggEiMA0GCSqGSIb3DQEBAQUAA4IBDwAwggEKAoIB
AQDHSqnrzwANiQ6eK+6/ovfOvkNCblIgJFvgPoc7XAVW+KzDmtQiafSgblp8MZ/T
mSd6ngD+P0Pus0+ZS49dqT9kQ4TFKBZ3Rbzm/Nk7Ih65VGE9LhV+uLhIKEmHEhSV
WZQswke//fC9xTixAQyMyGafEqe4V4Nl5C62U01YLweKPTW4AqybW30XYN2nm2oc
V+7ETtdUHMtpVGTJDkTxuVgzGHvkCHcJKt9/cMjWUFLJcweKRBqGw/oR0DuAfojF
dVf2hZYyH+M6WwgpNyg0AlWhRBDKZMwmQQr7hFEk8zfOPeau+G+9jJXkzammikKD
xFJPyM8+/ky3iKiSAVSYmm0vAgMBAAGjggEnMIIBIzARBglghkgBhvhCAQEEBAMC
B4AwHQYDVR0OBBYEFHY7+Wkwt8pujH4u7nLJ2wZ3CSuKMIGwBgNVHSMEgagwgaWA
FKZmDlkPPFwRNbKzmVmp06axXpXSoYGBpH8wfTEUMBIGA1UEAxQLQkhPUEFMQ0Ff
Q0ExCzAJBgNVBAYTAklOMQ8wDQYDVQQKEwZDSVRSSVgxDDAKBgNVBAsTA0FORzEL
MAkGA1UECBMCS0ExLDAqBgkqhkiG9w0BCQEWHUJIT1BBTENBX0NBQEJIT1BBTENB
X21haWwuY29tggkAvolV82UoF5owPAYIKwYBBQUHAQEEMDAuMCwGCCsGAQUFBzAB
hiBodHRwOi8vMTcyLjE3LjIwLjEvcmVzcG9uZGVycGF0aDANBgkqhkiG9w0BAQsF
AAOCAQEAX2w6B5J5AAdGSCFsvssIvM87y8y364BmrRUOv6bQh+ZAdjjJtYOusXia
StUlyd9mfWyoLVQO9oRKjImpnDI+M6OYPHH1hhRzNUsJaP41OlqbjNf+LmYKtOcn
AhWH+WDnePpORYaT9NbhrgbGENpx9V1vz5VZfMnr2zdU5llOGc/x2h+7UNovfVpj
UGTfYrdpYjoEnlog11BcMpaQWTiAiu9+u73qg/ucVOJ6rqfSr5Fail+3wZiQSuHT
/wok3l5l2e/OAQ8XR+7DZ6+1GA7eSgRg4uRh2Dhuboj/x2KOq+25fOnxOhA9ukju
CehxkRzQRZB8wtXMiBX1dyBsGP6Lhw==
-----END CERTIFICATE-----
