Certificate:
    Data:
        Version: 3 (0x2)
        Serial Number: 11042563100303 (0xa0b0c0d0e8f)
    Signature Algorithm: sha256WithRSAEncryption
        Issuer: CN=BHOPALCA_CA, C=IN, O=CITRIX, OU=ANG, ST=KA/emailAddress=BHOPALCA_CA@BHOPALCA_mail.com
        Validity
            Not Before: Aug 23 10:01:35 2017 GMT
            Not After : Aug 21 10:01:35 2027 GMT
        Subject: ST=KA, C=IN, CN=bhopal_40_client/emailAddress=bhopal_40@test_ca.com, O=CITRIX
        Subject Public Key Info:
            Public Key Algorithm: rsaEncryption
                Public-Key: (2048 bit)
                Modulus:
                    00:f3:8e:80:39:23:66:a5:a9:93:2a:ae:67:b6:6a:
                    b3:28:4d:77:c6:d3:63:69:23:f4:b7:8d:31:2c:33:
                    99:37:b1:55:50:70:97:89:11:45:a7:ec:fc:55:e6:
                    7e:e1:11:ce:8b:7f:fd:f9:c1:5c:23:ec:e1:11:47:
                    3e:e6:e6:4d:e9:7f:19:b2:6f:54:06:26:40:99:57:
                    3a:a2:6f:66:50:74:a8:50:84:f3:fd:05:e9:1b:4f:
                    02:64:9c:20:e7:e6:88:b7:c5:c6:e9:b9:35:d6:ad:
                    8b:3a:b9:59:dc:60:98:38:52:8b:69:e3:75:a1:9b:
                    ea:ab:85:71:30:73:5f:8c:29:c1:fa:d5:12:51:05:
                    79:2a:74:0e:6d:f5:65:13:7b:2c:77:dc:27:e1:72:
                    0d:ee:30:e2:ed:b2:80:17:3f:11:e0:0c:ae:51:a0:
                    52:fd:74:78:e6:67:32:0a:6e:22:14:a0:17:ac:4d:
                    8f:21:cb:38:36:2b:30:a4:08:ba:0d:0b:7f:3f:2d:
                    0d:d9:09:e1:20:61:8e:6f:2f:e7:dd:ac:61:95:a0:
                    5b:b6:c6:a5:19:50:95:4a:bb:2f:b7:c2:b3:9d:26:
                    b7:60:cd:ae:1d:cd:66:23:c1:26:d4:16:45:49:96:
                    cd:c4:81:a0:66:dc:12:14:d0:96:87:31:1e:c3:00:
                    62:3b
                Exponent: 65537 (0x10001)
        X509v3 extensions:
            Netscape Cert Type: 
                SSL Client
            X509v3 Subject Key Identifier: 
                11:4A:5A:9B:CE:AC:7A:7D:42:06:49:79:F2:27:EE:1C:65:40:08:3D
            X509v3 Authority Key Identifier: 
                keyid:A6:66:0E:59:0F:3C:5C:11:35:B2:B3:99:59:A9:D3:A6:B1:5E:95:D2
                DirName:/CN=BHOPALCA_CA/C=IN/O=CITRIX/OU=ANG/ST=KA/emailAddress=BHOPALCA_CA@BHOPALCA_mail.com
                serial:BE:89:55:F3:65:28:17:9A

            Authority Information Access: 
                OCSP - URI:http://172.17.20.1/responderpath

    Signature Algorithm: sha256WithRSAEncryption
         0a:47:a9:b6:07:b5:56:1b:ab:d9:36:d5:64:32:16:cd:ba:e8:
         c5:c7:77:e8:09:ad:ce:8e:22:d9:45:a5:03:45:82:79:82:10:
         e6:04:96:cc:a1:c8:d4:bb:2f:cd:a3:ba:48:b5:d3:c7:40:15:
         ee:64:76:9b:1c:55:56:4b:c5:49:e2:97:6b:16:67:ce:c3:c9:
         4d:1a:b5:a2:7f:1a:e3:43:af:d5:c2:26:b7:59:42:65:8e:ee:
         74:6f:5e:27:c1:13:90:de:9b:34:1e:63:df:3d:8b:f8:ab:d5:
         82:58:1f:f2:b1:53:2a:f5:90:1c:48:78:cf:2f:e0:20:29:69:
         79:a5:7e:15:db:0d:e6:2a:48:0c:e3:65:be:b9:fe:ed:33:5f:
         e5:06:95:fc:7d:7e:ca:46:74:ea:8d:10:dc:cc:23:b9:03:a2:
         59:59:0a:4b:2d:ca:9f:19:7b:ed:6d:55:72:ae:4c:0d:04:99:
         f1:03:65:31:7c:b0:34:60:2b:4b:c4:e1:e8:e9:77:9d:bd:ee:
         f1:38:40:62:9f:10:e7:5c:c2:7d:8d:cc:69:86:5d:ee:5e:01:
         42:31:47:65:c7:8e:46:24:00:0c:18:42:f2:06:d1:e4:f0:95:
         74:92:fd:5f:5a:62:4f:ed:32:3c:4b:03:f5:75:cd:b7:cd:e5:
         8b:a4:94:92
-----BEGIN CERTIFICATE-----
MIIEkjCCA3qgAwIBAgIGCgsMDQ6PMA0GCSqGSIb3DQEBCwUAMH0xFDASBgNVBAMU
C0JIT1BBTENBX0NBMQswCQYDVQQGEwJJTjEPMA0GA1UEChMGQ0lUUklYMQwwCgYD
VQQLEwNBTkcxCzAJBgNVBAgTAktBMSwwKgYJKoZIhvcNAQkBFh1CSE9QQUxDQV9D
QUBCSE9QQUxDQV9tYWlsLmNvbTAeFw0xNzA4MjMxMDAxMzVaFw0yNzA4MjExMDAx
MzVaMGwxCzAJBgNVBAgTAktBMQswCQYDVQQGEwJJTjEZMBcGA1UEAxQQYmhvcGFs
XzQwX2NsaWVudDEkMCIGCSqGSIb3DQEJARYVYmhvcGFsXzQwQHRlc3RfY2EuY29t
MQ8wDQYDVQQKEwZDSVRSSVgwggEiMA0GCSqGSIb3DQEBAQUAA4IBDwAwggEKAoIB
AQDzjoA5I2alqZMqrme2arMoTXfG02NpI/S3jTEsM5k3sVVQcJeJEUWn7PxV5n7h
Ec6Lf/35wVwj7OERRz7m5k3pfxmyb1QGJkCZVzqib2ZQdKhQhPP9BekbTwJknCDn
5oi3xcbpuTXWrYs6uVncYJg4Uotp43Whm+qrhXEwc1+MKcH61RJRBXkqdA5t9WUT
eyx33Cfhcg3uMOLtsoAXPxHgDK5RoFL9dHjmZzIKbiIUoBesTY8hyzg2KzCkCLoN
C38/LQ3ZCeEgYY5vL+fdrGGVoFu2xqUZUJVKuy+3wrOdJrdgza4dzWYjwSbUFkVJ
ls3EgaBm3BIU0JaHMR7DAGI7AgMBAAGjggEnMIIBIzARBglghkgBhvhCAQEEBAMC
B4AwHQYDVR0OBBYEFBFKWpvOrHp9QgZJefIn7hxlQAg9MIGwBgNVHSMEgagwgaWA
FKZmDlkPPFwRNbKzmVmp06axXpXSoYGBpH8wfTEUMBIGA1UEAxQLQkhPUEFMQ0Ff
Q0ExCzAJBgNVBAYTAklOMQ8wDQYDVQQKEwZDSVRSSVgxDDAKBgNVBAsTA0FORzEL
MAkGA1UECBMCS0ExLDAqBgkqhkiG9w0BCQEWHUJIT1BBTENBX0NBQEJIT1BBTENB
X21haWwuY29tggkAvolV82UoF5owPAYIKwYBBQUHAQEEMDAuMCwGCCsGAQUFBzAB
hiBodHRwOi8vMTcyLjE3LjIwLjEvcmVzcG9uZGVycGF0aDANBgkqhkiG9w0BAQsF
AAOCAQEACkeptge1Vhur2TbVZDIWzbroxcd36Amtzo4i2UWlA0WCeYIQ5gSWzKHI
1LsvzaO6SLXTx0AV7mR2mxxVVkvFSeKXaxZnzsPJTRq1on8a40Ov1cImt1lCZY7u
dG9eJ8ETkN6bNB5j3z2L+KvVglgf8rFTKvWQHEh4zy/gIClpeaV+FdsN5ipIDONl
vrn+7TNf5QaV/H1+ykZ06o0Q3MwjuQOiWVkKSy3Knxl77W1Vcq5MDQSZ8QNlMXyw
NGArS8Th6Ol3nb3u8ThAYp8Q51zCfY3MaYZd7l4BQjFHZceORiQADBhC8gbR5PCV
dJL9X1piT+0yPEsD9XXNt83li6SUkg==
-----END CERTIFICATE-----
