Certificate:
    Data:
        Version: 3 (0x2)
        Serial Number: 11042563100178 (0xa0b0c0d0e12)
    Signature Algorithm: sha256WithRSAEncryption
        Issuer: CN=BHOPALCA_CA, C=IN, O=CITRIX, OU=ANG, ST=KA/emailAddress=BHOPALCA_CA@BHOPALCA_mail.com
        Validity
            Not Before: Jul  8 04:32:33 2016 GMT
            Not After : Jul  6 04:32:33 2026 GMT
        Subject: ST=KA, C=IN, CN=104_BHOPALCA_server/emailAddress=104_BHOPALCA@test_ca.com, O=CITRIX
        Subject Public Key Info:
            Public Key Algorithm: rsaEncryption
                Public-Key: (2048 bit)
                Modulus:
                    00:c2:4e:fd:f6:3f:5d:f3:b8:9e:aa:05:30:dc:58:
                    f2:95:01:ae:f7:fa:a2:01:2b:b4:4c:5a:6c:eb:fd:
                    b5:b9:db:e9:be:b6:14:6d:70:ef:ca:03:7a:b0:c1:
                    80:3e:ed:58:e2:f1:fe:9f:69:3f:30:99:21:84:87:
                    c6:fa:09:46:43:16:00:8d:e8:af:85:4f:be:fd:60:
                    c2:5d:d3:b5:4b:de:6a:59:49:d0:2b:0c:9a:dd:12:
                    26:9a:e1:3b:e8:f6:79:a1:25:6b:e4:8a:72:b9:8c:
                    44:f7:fc:fa:60:de:37:da:f0:a4:e2:f9:63:d4:63:
                    a2:16:79:bd:9c:df:da:1d:db:53:e1:0e:01:28:de:
                    b6:08:54:77:28:51:e8:29:49:a7:86:87:8c:16:0a:
                    ed:02:a2:31:c5:0e:72:46:e0:8c:d0:72:53:a5:bc:
                    50:d6:62:29:aa:95:12:c2:74:ea:89:ff:26:02:c7:
                    c4:6a:37:69:6d:b4:be:c4:6d:2e:c2:17:cb:1c:fc:
                    47:1c:54:09:46:ce:ec:38:c5:59:98:0b:d7:76:45:
                    0e:ea:18:e4:5f:b5:53:a3:30:7b:07:0e:08:69:ce:
                    92:8c:e5:89:da:b5:51:03:73:b3:79:fe:f8:cc:f7:
                    fa:88:a7:62:64:e3:84:b8:74:92:f7:c9:ad:51:70:
                    73:25
                Exponent: 65537 (0x10001)
        X509v3 extensions:
            Netscape Cert Type: 
                SSL Server
            X509v3 Subject Key Identifier: 
                33:FB:8A:FA:F3:A7:CF:AC:F6:9F:56:5E:C6:5A:15:CB:BF:BB:0A:0C
            X509v3 Authority Key Identifier: 
                keyid:A6:66:0E:59:0F:3C:5C:11:35:B2:B3:99:59:A9:D3:A6:B1:5E:95:D2
                DirName:/CN=BHOPALCA_CA/C=IN/O=CITRIX/OU=ANG/ST=KA/emailAddress=BHOPALCA_CA@BHOPALCA_mail.com
                serial:BE:89:55:F3:65:28:17:9A

            Authority Information Access: 
                OCSP - URI:http://BHOPALCA_one.ocsptest.com/responderpath

    Signature Algorithm: sha256WithRSAEncryption
         6b:ba:fc:0b:75:41:db:6d:6a:45:3d:ee:79:54:a0:e6:7b:d6:
         82:f8:29:8b:f6:fa:60:96:62:e4:64:8b:7a:88:ec:f7:03:53:
         db:43:7a:f8:2d:62:0d:da:aa:e8:77:94:1e:a2:f9:c1:ef:5e:
         55:63:f3:97:e4:82:f2:e5:8f:e8:4f:e8:6c:bf:70:d4:58:b0:
         8a:dc:01:46:dd:21:60:8a:15:cb:c4:c9:e7:95:4e:72:dd:a6:
         cf:15:98:62:63:78:f0:95:71:9b:ab:ed:a6:74:89:d3:97:55:
         88:e1:b5:3c:58:e9:c2:63:c1:b9:50:34:a0:52:8a:6e:d9:2e:
         cb:b6:e9:83:d9:2e:ba:ca:4d:0c:60:86:19:5c:69:e6:40:90:
         60:86:4e:0f:7e:f2:cb:26:fe:84:20:bb:13:a2:09:a8:05:10:
         37:ae:a9:4e:d2:28:c9:85:db:f2:4c:0e:3a:de:88:ad:1b:d7:
         32:23:19:c3:da:6c:d4:e5:62:16:a9:1f:2a:90:4b:c4:71:b2:
         81:25:1e:5d:7e:47:04:2f:63:2b:c5:d2:b6:4d:55:64:52:61:
         bb:89:87:87:17:a4:b8:fa:b0:df:ea:cf:ca:7d:2a:f7:e9:aa:
         16:28:21:09:40:a1:3c:a3:a4:0e:8d:a5:b2:c7:b4:f1:3e:9d:
         aa:f3:6f:5f
-----BEGIN CERTIFICATE-----
MIIEpjCCA46gAwIBAgIGCgsMDQ4SMA0GCSqGSIb3DQEBCwUAMH0xFDASBgNVBAMU
C0JIT1BBTENBX0NBMQswCQYDVQQGEwJJTjEPMA0GA1UEChMGQ0lUUklYMQwwCgYD
VQQLEwNBTkcxCzAJBgNVBAgTAktBMSwwKgYJKoZIhvcNAQkBFh1CSE9QQUxDQV9D
QUBCSE9QQUxDQV9tYWlsLmNvbTAeFw0xNjA3MDgwNDMyMzNaFw0yNjA3MDYwNDMy
MzNaMHIxCzAJBgNVBAgTAktBMQswCQYDVQQGEwJJTjEcMBoGA1UEAxQTMTA0X0JI
T1BBTENBX3NlcnZlcjEnMCUGCSqGSIb3DQEJARYYMTA0X0JIT1BBTENBQHRlc3Rf
Y2EuY29tMQ8wDQYDVQQKEwZDSVRSSVgwggEiMA0GCSqGSIb3DQEBAQUAA4IBDwAw
ggEKAoIBAQDCTv32P13zuJ6qBTDcWPKVAa73+qIBK7RMWmzr/bW52+m+thRtcO/K
A3qwwYA+7Vji8f6faT8wmSGEh8b6CUZDFgCN6K+FT779YMJd07VL3mpZSdArDJrd
Eiaa4Tvo9nmhJWvkinK5jET3/Ppg3jfa8KTi+WPUY6IWeb2c39od21PhDgEo3rYI
VHcoUegpSaeGh4wWCu0CojHFDnJG4IzQclOlvFDWYimqlRLCdOqJ/yYCx8RqN2lt
tL7EbS7CF8sc/EccVAlGzuw4xVmYC9d2RQ7qGORftVOjMHsHDghpzpKM5YnatVED
c7N5/vjM9/qIp2Jk44S4dJL3ya1RcHMlAgMBAAGjggE1MIIBMTARBglghkgBhvhC
AQEEBAMCBkAwHQYDVR0OBBYEFDP7ivrzp8+s9p9WXsZaFcu/uwoMMIGwBgNVHSME
gagwgaWAFKZmDlkPPFwRNbKzmVmp06axXpXSoYGBpH8wfTEUMBIGA1UEAxQLQkhP
UEFMQ0FfQ0ExCzAJBgNVBAYTAklOMQ8wDQYDVQQKEwZDSVRSSVgxDDAKBgNVBAsT
A0FORzELMAkGA1UECBMCS0ExLDAqBgkqhkiG9w0BCQEWHUJIT1BBTENBX0NBQEJI
T1BBTENBX21haWwuY29tggkAvolV82UoF5owSgYIKwYBBQUHAQEEPjA8MDoGCCsG
AQUFBzABhi5odHRwOi8vQkhPUEFMQ0Ffb25lLm9jc3B0ZXN0LmNvbS9yZXNwb25k
ZXJwYXRoMA0GCSqGSIb3DQEBCwUAA4IBAQBruvwLdUHbbWpFPe55VKDme9aC+CmL
9vpglmLkZIt6iOz3A1PbQ3r4LWIN2qrod5QeovnB715VY/OX5ILy5Y/oT+hsv3DU
WLCK3AFG3SFgihXLxMnnlU5y3abPFZhiY3jwlXGbq+2mdInTl1WI4bU8WOnCY8G5
UDSgUopu2S7LtumD2S66yk0MYIYZXGnmQJBghk4PfvLLJv6EILsTogmoBRA3rqlO
0ijJhdvyTA463oitG9cyIxnD2mzU5WIWqR8qkEvEcbKBJR5dfkcEL2MrxdK2TVVk
UmG7iYeHF6S4+rDf6s/KfSr36aoWKCEJQKE8o6QOjaWyx7TxPp2q829f
-----END CERTIFICATE-----
