Certificate:
    Data:
        Version: 3 (0x2)
        Serial Number: 11042563100308 (0xa0b0c0d0e94)
    Signature Algorithm: sha256WithRSAEncryption
        Issuer: CN=BHOPALCA_CA, C=IN, O=CITRIX, OU=ANG, ST=KA/emailAddress=BHOPALCA_CA@BHOPALCA_mail.com
        Validity
            Not Before: Aug 23 10:01:38 2017 GMT
            Not After : Aug 21 10:01:38 2027 GMT
        Subject: ST=KA, C=IN, CN=bhopal_45_client/emailAddress=bhopal_45@test_ca.com, O=CITRIX
        Subject Public Key Info:
            Public Key Algorithm: rsaEncryption
                Public-Key: (2048 bit)
                Modulus:
                    00:be:13:85:0d:59:12:f9:09:a6:e5:bd:ae:10:a2:
                    96:a0:36:cd:77:e6:c4:92:cf:3a:1a:a4:d8:fb:be:
                    31:a3:ac:90:cd:d0:f4:fe:41:a6:56:46:31:31:5a:
                    1a:95:74:2a:bf:94:83:42:1a:29:78:33:92:c3:f3:
                    e2:ae:75:0e:51:4f:e5:8d:e9:e6:ba:f7:1f:0d:aa:
                    1f:fc:73:8a:fc:29:fb:cc:51:84:3c:d3:14:5d:b6:
                    3b:ca:19:da:cc:0f:6b:e0:a9:c0:90:15:ae:93:7c:
                    a9:67:c1:84:86:1c:26:e6:b8:94:1a:c8:e7:5b:64:
                    26:89:f3:5a:7b:ac:af:5b:b9:d3:19:90:cd:b6:60:
                    c3:8a:db:2e:12:bd:2d:0d:7b:8c:2b:bb:09:cc:b7:
                    d6:ad:e9:1d:05:e6:74:ad:63:0e:4d:99:75:78:89:
                    85:21:c5:d4:3d:6c:4e:f4:56:5b:c5:79:82:0a:68:
                    0b:97:3a:3d:10:50:ab:4a:9e:19:fb:8c:d4:61:5f:
                    35:3f:5b:1f:3f:cf:18:13:34:26:5f:0a:61:82:a5:
                    23:40:de:c0:5e:ef:34:3b:94:de:73:0c:0f:c3:8d:
                    cc:c3:f6:06:75:95:cf:d4:20:8a:70:4b:80:be:3d:
                    1c:79:d7:c2:db:d2:65:9e:c9:5c:0e:bd:9e:29:a9:
                    13:c7
                Exponent: 65537 (0x10001)
        X509v3 extensions:
            Netscape Cert Type: 
                SSL Client
            X509v3 Subject Key Identifier: 
                AE:74:63:2B:95:6F:1E:A8:28:3D:B5:62:89:95:B9:7A:FD:53:9F:81
            X509v3 Authority Key Identifier: 
                keyid:A6:66:0E:59:0F:3C:5C:11:35:B2:B3:99:59:A9:D3:A6:B1:5E:95:D2
                DirName:/CN=BHOPALCA_CA/C=IN/O=CITRIX/OU=ANG/ST=KA/emailAddress=BHOPALCA_CA@BHOPALCA_mail.com
                serial:BE:89:55:F3:65:28:17:9A

            Authority Information Access: 
                OCSP - URI:http://172.17.20.1/responderpath

    Signature Algorithm: sha256WithRSAEncryption
         90:55:c0:5f:bb:06:d6:b2:67:2e:f0:8f:e0:e5:8b:14:e3:da:
         f6:9c:46:26:1f:5d:ff:f5:1f:e5:10:ba:8b:44:f5:52:f5:61:
         7d:cd:3e:f6:b5:83:46:f9:71:26:21:bb:4c:53:0d:21:2f:1e:
         43:99:b2:b6:60:b6:b5:a3:c1:c7:a5:bc:c6:5b:3a:9d:56:ee:
         3f:8a:26:ba:ea:dc:79:a5:f4:1a:f4:9c:b6:97:db:2d:3c:17:
         d4:91:80:a0:18:0b:06:15:78:21:d7:72:47:64:06:ca:99:82:
         1b:3c:35:32:e4:e8:07:1a:27:0a:3c:e0:07:b0:f7:fc:e7:38:
         28:03:d2:0c:ae:2f:25:f8:cb:cb:dc:d8:ac:a6:ee:68:c8:63:
         78:be:41:2c:d8:09:d7:8b:ac:bf:07:8d:22:5a:b0:9f:02:7d:
         ac:02:cd:4f:aa:4d:36:48:ef:99:82:e6:5d:1e:45:b9:ea:ee:
         ae:75:26:4b:73:59:41:bc:0b:87:d9:58:26:ec:b0:0e:63:ff:
         fb:2f:03:40:40:53:22:b9:fd:43:69:32:eb:87:37:45:8b:c0:
         94:52:f9:fe:28:62:64:75:de:7f:cb:b4:dc:22:60:3e:f6:3c:
         92:6d:62:9d:ab:ff:5a:ee:d9:f7:53:23:6d:c2:05:e2:e1:cf:
         b0:ba:4f:e3
-----BEGIN CERTIFICATE-----
MIIEkjCCA3qgAwIBAgIGCgsMDQ6UMA0GCSqGSIb3DQEBCwUAMH0xFDASBgNVBAMU
C0JIT1BBTENBX0NBMQswCQYDVQQGEwJJTjEPMA0GA1UEChMGQ0lUUklYMQwwCgYD
VQQLEwNBTkcxCzAJBgNVBAgTAktBMSwwKgYJKoZIhvcNAQkBFh1CSE9QQUxDQV9D
QUBCSE9QQUxDQV9tYWlsLmNvbTAeFw0xNzA4MjMxMDAxMzhaFw0yNzA4MjExMDAx
MzhaMGwxCzAJBgNVBAgTAktBMQswCQYDVQQGEwJJTjEZMBcGA1UEAxQQYmhvcGFs
XzQ1X2NsaWVudDEkMCIGCSqGSIb3DQEJARYVYmhvcGFsXzQ1QHRlc3RfY2EuY29t
MQ8wDQYDVQQKEwZDSVRSSVgwggEiMA0GCSqGSIb3DQEBAQUAA4IBDwAwggEKAoIB
AQC+E4UNWRL5Cablva4QopagNs135sSSzzoapNj7vjGjrJDN0PT+QaZWRjExWhqV
dCq/lINCGil4M5LD8+KudQ5RT+WN6ea69x8Nqh/8c4r8KfvMUYQ80xRdtjvKGdrM
D2vgqcCQFa6TfKlnwYSGHCbmuJQayOdbZCaJ81p7rK9budMZkM22YMOK2y4SvS0N
e4wruwnMt9at6R0F5nStYw5NmXV4iYUhxdQ9bE70VlvFeYIKaAuXOj0QUKtKnhn7
jNRhXzU/Wx8/zxgTNCZfCmGCpSNA3sBe7zQ7lN5zDA/DjczD9gZ1lc/UIIpwS4C+
PRx518Lb0mWeyVwOvZ4pqRPHAgMBAAGjggEnMIIBIzARBglghkgBhvhCAQEEBAMC
B4AwHQYDVR0OBBYEFK50YyuVbx6oKD21YomVuXr9U5+BMIGwBgNVHSMEgagwgaWA
FKZmDlkPPFwRNbKzmVmp06axXpXSoYGBpH8wfTEUMBIGA1UEAxQLQkhPUEFMQ0Ff
Q0ExCzAJBgNVBAYTAklOMQ8wDQYDVQQKEwZDSVRSSVgxDDAKBgNVBAsTA0FORzEL
MAkGA1UECBMCS0ExLDAqBgkqhkiG9w0BCQEWHUJIT1BBTENBX0NBQEJIT1BBTENB
X21haWwuY29tggkAvolV82UoF5owPAYIKwYBBQUHAQEEMDAuMCwGCCsGAQUFBzAB
hiBodHRwOi8vMTcyLjE3LjIwLjEvcmVzcG9uZGVycGF0aDANBgkqhkiG9w0BAQsF
AAOCAQEAkFXAX7sG1rJnLvCP4OWLFOPa9pxGJh9d//Uf5RC6i0T1UvVhfc0+9rWD
RvlxJiG7TFMNIS8eQ5mytmC2taPBx6W8xls6nVbuP4omuurceaX0GvSctpfbLTwX
1JGAoBgLBhV4IddyR2QGypmCGzw1MuToBxonCjzgB7D3/Oc4KAPSDK4vJfjLy9zY
rKbuaMhjeL5BLNgJ14usvweNIlqwnwJ9rALNT6pNNkjvmYLmXR5FuerurnUmS3NZ
QbwLh9lYJuywDmP/+y8DQEBTIrn9Q2ky64c3RYvAlFL5/ihiZHXef8u03CJgPvY8
km1inav/Wu7Z91MjbcIF4uHPsLpP4w==
-----END CERTIFICATE-----
