Certificate:
    Data:
        Version: 3 (0x2)
        Serial Number: 11042563100283 (0xa0b0c0d0e7b)
    Signature Algorithm: sha256WithRSAEncryption
        Issuer: CN=BHOPALCA_CA, C=IN, O=CITRIX, OU=ANG, ST=KA/emailAddress=BHOPALCA_CA@BHOPALCA_mail.com
        Validity
            Not Before: Aug 23 10:01:24 2017 GMT
            Not After : Aug 21 10:01:24 2027 GMT
        Subject: ST=KA, C=IN, CN=bhopal_20_client/emailAddress=bhopal_20@test_ca.com, O=CITRIX
        Subject Public Key Info:
            Public Key Algorithm: rsaEncryption
                Public-Key: (2048 bit)
                Modulus:
                    00:c2:d4:78:aa:e7:c2:04:6e:13:a8:0e:f2:be:fa:
                    81:89:e0:77:75:69:96:b6:a0:26:30:7b:2c:d2:ef:
                    fc:8f:9c:2d:7a:94:f8:bb:95:2c:89:15:89:d5:e1:
                    f3:73:14:5f:81:f4:eb:73:6d:6d:3d:8f:70:c5:bc:
                    8f:72:1c:eb:cc:68:b4:34:58:43:2a:e2:12:ee:1c:
                    b4:e1:f5:86:43:9d:ba:e8:1b:3a:07:59:d3:28:cd:
                    83:d9:d5:b1:bb:17:9f:75:60:59:36:b1:b3:09:73:
                    07:33:93:01:f0:3e:66:74:57:2b:3d:b8:fc:f1:d9:
                    a0:b0:d4:f0:99:10:c8:a4:37:46:a9:78:ef:63:97:
                    45:4f:5f:43:8a:d2:6a:d8:93:c7:e1:7a:aa:96:22:
                    20:a6:08:05:85:52:52:4f:04:4e:72:8f:66:1c:85:
                    57:d2:90:ca:92:ec:24:44:4c:21:a8:7e:a0:9d:31:
                    6d:2d:60:6d:3f:60:66:34:ed:41:1c:d3:5c:c0:24:
                    ad:7a:5c:92:bf:a9:1b:94:a8:e6:ea:28:e7:32:06:
                    ef:90:ca:3b:f2:a1:87:6e:62:f1:56:bf:78:f3:4e:
                    5e:68:89:cf:99:0b:57:c1:26:c6:c6:3b:4c:eb:2a:
                    15:7b:b2:23:de:72:9c:75:41:b7:4c:3e:a2:35:fb:
                    6f:b3
                Exponent: 65537 (0x10001)
        X509v3 extensions:
            Netscape Cert Type: 
                SSL Client
            X509v3 Subject Key Identifier: 
                60:3A:55:A6:C6:26:E8:01:D9:27:C6:0B:FF:5B:CF:27:03:9B:DA:17
            X509v3 Authority Key Identifier: 
                keyid:A6:66:0E:59:0F:3C:5C:11:35:B2:B3:99:59:A9:D3:A6:B1:5E:95:D2
                DirName:/CN=BHOPALCA_CA/C=IN/O=CITRIX/OU=ANG/ST=KA/emailAddress=BHOPALCA_CA@BHOPALCA_mail.com
                serial:BE:89:55:F3:65:28:17:9A

            Authority Information Access: 
                OCSP - URI:http://172.17.20.1/responderpath

    Signature Algorithm: sha256WithRSAEncryption
         9f:38:2a:f9:28:ad:ca:a6:1f:a6:23:2d:21:fd:2b:6a:27:66:
         1a:58:95:ab:f0:4e:ef:25:a8:6b:a7:86:ae:43:cb:fc:e3:1e:
         b7:d1:da:02:4d:c6:14:3f:e0:ec:43:9f:34:0b:05:54:09:f3:
         51:e5:8e:b9:a7:a8:5c:cf:48:5a:8c:01:2a:1a:51:8a:09:24:
         c5:83:f3:47:00:08:26:8b:17:55:50:07:54:d8:c1:d6:7d:a2:
         50:db:2f:83:16:95:b4:21:03:6e:7f:74:eb:21:7f:b0:cb:b6:
         dd:7a:54:20:a9:37:dd:30:43:96:de:ed:d3:89:43:a2:de:8d:
         e5:fa:71:bf:fc:5c:52:8d:18:83:8e:1d:80:e8:bb:0b:82:25:
         26:ce:1f:e2:4a:f7:04:bc:3c:63:02:d8:69:ad:6b:c9:54:2a:
         3f:6d:a8:06:ec:38:a7:a4:cc:d4:d4:7b:2d:be:52:78:43:15:
         12:2e:6b:1a:75:ca:b1:b1:20:24:7f:56:21:c6:ba:96:37:dd:
         96:e1:7a:c4:ef:e6:cf:a2:91:7d:4d:9d:c3:b8:94:1f:c9:e4:
         17:58:b8:26:b7:71:13:48:a6:0f:96:86:56:20:3a:32:2f:8e:
         b2:4b:53:12:be:97:51:ab:03:d7:fa:ab:87:f8:1d:25:83:74:
         2e:0f:38:c3
-----BEGIN CERTIFICATE-----
MIIEkjCCA3qgAwIBAgIGCgsMDQ57MA0GCSqGSIb3DQEBCwUAMH0xFDASBgNVBAMU
C0JIT1BBTENBX0NBMQswCQYDVQQGEwJJTjEPMA0GA1UEChMGQ0lUUklYMQwwCgYD
VQQLEwNBTkcxCzAJBgNVBAgTAktBMSwwKgYJKoZIhvcNAQkBFh1CSE9QQUxDQV9D
QUBCSE9QQUxDQV9tYWlsLmNvbTAeFw0xNzA4MjMxMDAxMjRaFw0yNzA4MjExMDAx
MjRaMGwxCzAJBgNVBAgTAktBMQswCQYDVQQGEwJJTjEZMBcGA1UEAxQQYmhvcGFs
XzIwX2NsaWVudDEkMCIGCSqGSIb3DQEJARYVYmhvcGFsXzIwQHRlc3RfY2EuY29t
MQ8wDQYDVQQKEwZDSVRSSVgwggEiMA0GCSqGSIb3DQEBAQUAA4IBDwAwggEKAoIB
AQDC1Hiq58IEbhOoDvK++oGJ4Hd1aZa2oCYweyzS7/yPnC16lPi7lSyJFYnV4fNz
FF+B9OtzbW09j3DFvI9yHOvMaLQ0WEMq4hLuHLTh9YZDnbroGzoHWdMozYPZ1bG7
F591YFk2sbMJcwczkwHwPmZ0Vys9uPzx2aCw1PCZEMikN0apeO9jl0VPX0OK0mrY
k8fheqqWIiCmCAWFUlJPBE5yj2YchVfSkMqS7CRETCGofqCdMW0tYG0/YGY07UEc
01zAJK16XJK/qRuUqObqKOcyBu+QyjvyoYduYvFWv3jzTl5oic+ZC1fBJsbGO0zr
KhV7siPecpx1QbdMPqI1+2+zAgMBAAGjggEnMIIBIzARBglghkgBhvhCAQEEBAMC
B4AwHQYDVR0OBBYEFGA6VabGJugB2SfGC/9bzycDm9oXMIGwBgNVHSMEgagwgaWA
FKZmDlkPPFwRNbKzmVmp06axXpXSoYGBpH8wfTEUMBIGA1UEAxQLQkhPUEFMQ0Ff
Q0ExCzAJBgNVBAYTAklOMQ8wDQYDVQQKEwZDSVRSSVgxDDAKBgNVBAsTA0FORzEL
MAkGA1UECBMCS0ExLDAqBgkqhkiG9w0BCQEWHUJIT1BBTENBX0NBQEJIT1BBTENB
X21haWwuY29tggkAvolV82UoF5owPAYIKwYBBQUHAQEEMDAuMCwGCCsGAQUFBzAB
hiBodHRwOi8vMTcyLjE3LjIwLjEvcmVzcG9uZGVycGF0aDANBgkqhkiG9w0BAQsF
AAOCAQEAnzgq+SityqYfpiMtIf0raidmGliVq/BO7yWoa6eGrkPL/OMet9HaAk3G
FD/g7EOfNAsFVAnzUeWOuaeoXM9IWowBKhpRigkkxYPzRwAIJosXVVAHVNjB1n2i
UNsvgxaVtCEDbn906yF/sMu23XpUIKk33TBDlt7t04lDot6N5fpxv/xcUo0Yg44d
gOi7C4IlJs4f4kr3BLw8YwLYaa1ryVQqP22oBuw4p6TM1NR7Lb5SeEMVEi5rGnXK
sbEgJH9WIca6ljfdluF6xO/mz6KRfU2dw7iUH8nkF1i4JrdxE0imD5aGViA6Mi+O
sktTEr6XUasD1/qrh/gdJYN0Lg84ww==
-----END CERTIFICATE-----
