Certificate:
    Data:
        Version: 3 (0x2)
        Serial Number: 11042563100278 (0xa0b0c0d0e76)
    Signature Algorithm: sha256WithRSAEncryption
        Issuer: CN=BHOPALCA_CA, C=IN, O=CITRIX, OU=ANG, ST=KA/emailAddress=BHOPALCA_CA@BHOPALCA_mail.com
        Validity
            Not Before: Aug 23 10:01:21 2017 GMT
            Not After : Aug 21 10:01:21 2027 GMT
        Subject: ST=KA, C=IN, CN=bhopal_15_client/emailAddress=bhopal_15@test_ca.com, O=CITRIX
        Subject Public Key Info:
            Public Key Algorithm: rsaEncryption
                Public-Key: (2048 bit)
                Modulus:
                    00:b9:a0:78:e2:0a:97:e6:44:7f:60:61:45:d8:20:
                    ea:6d:2a:fa:bb:c5:2b:03:69:e8:ed:7a:a8:7a:90:
                    56:6d:10:43:ba:9a:92:87:db:ab:7b:2f:7d:03:b4:
                    12:c3:9b:72:89:8d:a4:76:00:6f:bb:91:79:72:2e:
                    15:5f:09:4c:c4:00:bb:69:e3:bd:ac:91:a3:1c:e4:
                    cd:40:c9:3d:82:58:60:25:d1:e5:41:74:87:cd:bc:
                    3b:d9:04:4c:f2:3d:97:8f:ee:92:ac:7a:f1:24:ab:
                    4d:4e:6c:84:1e:ac:cd:0a:ed:1b:7d:a2:9c:a4:3e:
                    d8:2d:47:23:30:20:58:59:ea:1d:9a:38:6e:84:fc:
                    bb:84:0d:40:ba:04:57:43:9b:d7:d7:1a:99:22:9a:
                    ec:10:47:99:49:28:40:7f:92:f4:d8:d7:4b:10:5e:
                    d7:10:4b:14:4a:1f:9d:ba:ef:76:64:c1:ad:ac:c2:
                    b6:99:b0:b7:f1:dd:e6:73:5c:5b:54:98:7a:60:45:
                    72:3b:97:1c:b6:ee:7a:4b:dd:4c:8b:99:2b:de:f3:
                    a7:b8:13:e3:56:10:c6:df:41:2e:ba:45:53:66:f7:
                    6e:98:37:e8:04:f3:ff:a9:68:ae:f8:29:69:7e:09:
                    ff:cb:f2:25:16:a8:81:9d:39:a9:b6:bf:38:56:86:
                    ba:49
                Exponent: 65537 (0x10001)
        X509v3 extensions:
            Netscape Cert Type: 
                SSL Client
            X509v3 Subject Key Identifier: 
                09:73:35:CF:3A:CA:FE:E0:F8:57:45:53:36:49:4A:48:2F:F4:1F:75
            X509v3 Authority Key Identifier: 
                keyid:A6:66:0E:59:0F:3C:5C:11:35:B2:B3:99:59:A9:D3:A6:B1:5E:95:D2
                DirName:/CN=BHOPALCA_CA/C=IN/O=CITRIX/OU=ANG/ST=KA/emailAddress=BHOPALCA_CA@BHOPALCA_mail.com
                serial:BE:89:55:F3:65:28:17:9A

            Authority Information Access: 
                OCSP - URI:http://172.17.20.1/responderpath

    Signature Algorithm: sha256WithRSAEncryption
         17:1c:e4:8f:fa:93:d8:6c:7f:16:33:ef:92:aa:f6:1f:9a:0a:
         11:ab:ce:39:c3:04:a1:31:11:4c:49:9b:fd:91:03:94:37:a7:
         06:fe:ab:4e:d0:63:3e:5b:f3:40:5b:87:4a:6f:fc:2e:28:ef:
         23:c9:a8:29:e4:6b:c2:e7:59:34:72:df:16:d8:48:bd:28:fc:
         fb:f8:e9:7a:0d:34:75:7d:3c:f4:4e:a9:98:14:65:cb:91:1c:
         66:d4:2d:ea:50:4b:66:88:fd:70:2c:f8:2c:bf:88:58:75:cf:
         cc:74:c5:65:1e:23:83:b4:d2:1a:28:ae:c2:13:96:bd:d7:ae:
         cd:5b:3a:5f:78:df:12:1d:33:fb:86:fe:07:37:54:78:2b:01:
         72:cd:9c:b6:ac:fe:b6:3c:0d:4a:41:cc:ab:11:c2:67:95:80:
         c4:68:ac:6a:74:26:f9:85:48:c3:04:c4:b0:c1:8e:0a:ae:fd:
         18:39:bf:28:bb:7a:53:1b:e7:56:f7:42:03:7a:f9:15:a6:73:
         5c:c7:0d:2b:0a:e9:92:6e:55:79:63:71:7e:71:04:57:d9:f8:
         b9:d5:46:31:3e:d4:49:fc:d7:5f:77:c3:cd:76:9c:31:01:eb:
         96:c3:38:a6:77:51:d7:20:cc:45:9e:f9:c7:49:87:89:c3:73:
         f9:d8:a2:2a
-----BEGIN CERTIFICATE-----
MIIEkjCCA3qgAwIBAgIGCgsMDQ52MA0GCSqGSIb3DQEBCwUAMH0xFDASBgNVBAMU
C0JIT1BBTENBX0NBMQswCQYDVQQGEwJJTjEPMA0GA1UEChMGQ0lUUklYMQwwCgYD
VQQLEwNBTkcxCzAJBgNVBAgTAktBMSwwKgYJKoZIhvcNAQkBFh1CSE9QQUxDQV9D
QUBCSE9QQUxDQV9tYWlsLmNvbTAeFw0xNzA4MjMxMDAxMjFaFw0yNzA4MjExMDAx
MjFaMGwxCzAJBgNVBAgTAktBMQswCQYDVQQGEwJJTjEZMBcGA1UEAxQQYmhvcGFs
XzE1X2NsaWVudDEkMCIGCSqGSIb3DQEJARYVYmhvcGFsXzE1QHRlc3RfY2EuY29t
MQ8wDQYDVQQKEwZDSVRSSVgwggEiMA0GCSqGSIb3DQEBAQUAA4IBDwAwggEKAoIB
AQC5oHjiCpfmRH9gYUXYIOptKvq7xSsDaejteqh6kFZtEEO6mpKH26t7L30DtBLD
m3KJjaR2AG+7kXlyLhVfCUzEALtp472skaMc5M1AyT2CWGAl0eVBdIfNvDvZBEzy
PZeP7pKsevEkq01ObIQerM0K7Rt9opykPtgtRyMwIFhZ6h2aOG6E/LuEDUC6BFdD
m9fXGpkimuwQR5lJKEB/kvTY10sQXtcQSxRKH52673Zkwa2swraZsLfx3eZzXFtU
mHpgRXI7lxy27npL3UyLmSve86e4E+NWEMbfQS66RVNm926YN+gE8/+paK74KWl+
Cf/L8iUWqIGdOam2vzhWhrpJAgMBAAGjggEnMIIBIzARBglghkgBhvhCAQEEBAMC
B4AwHQYDVR0OBBYEFAlzNc86yv7g+FdFUzZJSkgv9B91MIGwBgNVHSMEgagwgaWA
FKZmDlkPPFwRNbKzmVmp06axXpXSoYGBpH8wfTEUMBIGA1UEAxQLQkhPUEFMQ0Ff
Q0ExCzAJBgNVBAYTAklOMQ8wDQYDVQQKEwZDSVRSSVgxDDAKBgNVBAsTA0FORzEL
MAkGA1UECBMCS0ExLDAqBgkqhkiG9w0BCQEWHUJIT1BBTENBX0NBQEJIT1BBTENB
X21haWwuY29tggkAvolV82UoF5owPAYIKwYBBQUHAQEEMDAuMCwGCCsGAQUFBzAB
hiBodHRwOi8vMTcyLjE3LjIwLjEvcmVzcG9uZGVycGF0aDANBgkqhkiG9w0BAQsF
AAOCAQEAFxzkj/qT2Gx/FjPvkqr2H5oKEavOOcMEoTERTEmb/ZEDlDenBv6rTtBj
PlvzQFuHSm/8LijvI8moKeRrwudZNHLfFthIvSj8+/jpeg00dX089E6pmBRly5Ec
ZtQt6lBLZoj9cCz4LL+IWHXPzHTFZR4jg7TSGiiuwhOWvdeuzVs6X3jfEh0z+4b+
BzdUeCsBcs2ctqz+tjwNSkHMqxHCZ5WAxGisanQm+YVIwwTEsMGOCq79GDm/KLt6
UxvnVvdCA3r5FaZzXMcNKwrpkm5VeWNxfnEEV9n4udVGMT7USfzXX3fDzXacMQHr
lsM4pndR1yDMRZ75x0mHicNz+diiKg==
-----END CERTIFICATE-----
