Certificate:
    Data:
        Version: 3 (0x2)
        Serial Number: 11042563100265 (0xa0b0c0d0e69)
    Signature Algorithm: sha256WithRSAEncryption
        Issuer: CN=BHOPALCA_CA, C=IN, O=CITRIX, OU=ANG, ST=KA/emailAddress=BHOPALCA_CA@BHOPALCA_mail.com
        Validity
            Not Before: Aug 23 10:01:14 2017 GMT
            Not After : Aug 21 10:01:14 2027 GMT
        Subject: ST=KA, C=IN, CN=bhopal_2_client/emailAddress=bhopal_2@test_ca.com, O=CITRIX
        Subject Public Key Info:
            Public Key Algorithm: rsaEncryption
                Public-Key: (2048 bit)
                Modulus:
                    00:c1:90:e4:57:de:81:f1:1e:82:8d:8d:7f:cb:86:
                    e4:54:4d:9c:2c:84:92:a6:23:57:ac:ff:97:35:ea:
                    c1:cc:88:b9:98:20:dd:8a:2a:65:01:3f:31:64:2b:
                    47:5e:1a:ef:19:e3:8f:98:c0:6e:db:46:44:14:7f:
                    f0:7f:06:b6:d9:43:23:4f:1f:f1:18:ed:8d:b7:1d:
                    4a:0c:59:a8:ea:17:35:c5:05:16:a4:88:06:32:5a:
                    41:09:da:6a:74:a2:1f:be:ca:05:c9:be:e8:66:0c:
                    0d:83:c2:1a:7e:96:c7:3f:eb:37:d1:6c:01:99:38:
                    5a:05:dc:3b:53:df:91:7b:ba:8a:4a:0d:7a:6d:55:
                    1b:25:85:43:f7:e0:2c:88:ed:6a:72:72:97:9a:3d:
                    29:a6:4b:03:41:fc:d9:97:39:e8:53:c3:e3:31:08:
                    e5:fb:4c:78:f3:05:61:41:f9:d5:62:6b:1c:81:fd:
                    90:b0:59:29:71:9f:4e:be:18:2c:58:4b:0e:90:9e:
                    26:a1:a8:96:52:60:2d:2e:ef:68:7f:71:77:a7:23:
                    03:b0:bc:32:a2:06:c5:56:d0:55:ab:49:18:ee:e3:
                    83:67:a8:ee:85:71:b5:b1:9d:a2:49:04:a3:ea:fe:
                    0c:d9:2b:e9:d1:69:35:c9:7a:38:da:22:72:11:dd:
                    bf:a7
                Exponent: 65537 (0x10001)
        X509v3 extensions:
            Netscape Cert Type: 
                SSL Client
            X509v3 Subject Key Identifier: 
                0B:51:12:A7:E9:46:75:63:C5:77:D1:14:8F:87:31:AF:DC:AD:6B:68
            X509v3 Authority Key Identifier: 
                keyid:A6:66:0E:59:0F:3C:5C:11:35:B2:B3:99:59:A9:D3:A6:B1:5E:95:D2
                DirName:/CN=BHOPALCA_CA/C=IN/O=CITRIX/OU=ANG/ST=KA/emailAddress=BHOPALCA_CA@BHOPALCA_mail.com
                serial:BE:89:55:F3:65:28:17:9A

            Authority Information Access: 
                OCSP - URI:http://172.17.20.1/responderpath

    Signature Algorithm: sha256WithRSAEncryption
         18:a6:d9:12:f8:b8:6f:9f:a7:ca:05:78:a2:0e:96:91:20:54:
         43:f2:f8:ad:f0:3c:1d:57:f3:25:f9:b5:e5:99:71:bb:e7:21:
         87:35:43:c1:a9:71:a1:a4:13:a9:ed:84:71:8a:d1:9e:bc:15:
         1f:83:06:51:3f:0d:e4:ee:5c:88:ad:0a:bd:00:16:7f:60:fd:
         49:ea:81:a7:c8:1c:1d:78:05:d7:12:ed:b1:17:90:5f:a7:43:
         0f:c3:30:2a:a7:7a:2a:06:a5:b1:a8:50:c4:04:08:9a:35:3c:
         76:16:c5:1d:b6:f1:ba:36:66:d2:42:9c:44:0d:d1:54:89:04:
         da:70:14:63:81:27:ab:c9:a9:bb:b6:5e:3e:cc:cb:46:38:75:
         2f:0d:42:ef:6c:51:60:70:b1:57:9e:03:1a:2d:4a:53:7f:86:
         9d:df:87:d1:5d:c0:b3:2d:52:bf:95:b2:fe:5c:7c:6f:b1:46:
         bb:b7:bc:2a:b1:ca:08:23:31:b5:1d:15:42:7d:89:57:c3:b2:
         9a:ec:66:ee:90:6c:6b:b5:0f:49:55:5f:92:7b:fd:da:2f:f7:
         60:c7:de:0c:a4:37:8b:a7:6c:04:0e:0c:98:1b:97:f4:37:6b:
         00:5e:72:78:33:21:ed:e2:a4:05:e0:d4:45:0f:43:01:c7:22:
         a9:bf:07:a2
-----BEGIN CERTIFICATE-----
MIIEkDCCA3igAwIBAgIGCgsMDQ5pMA0GCSqGSIb3DQEBCwUAMH0xFDASBgNVBAMU
C0JIT1BBTENBX0NBMQswCQYDVQQGEwJJTjEPMA0GA1UEChMGQ0lUUklYMQwwCgYD
VQQLEwNBTkcxCzAJBgNVBAgTAktBMSwwKgYJKoZIhvcNAQkBFh1CSE9QQUxDQV9D
QUBCSE9QQUxDQV9tYWlsLmNvbTAeFw0xNzA4MjMxMDAxMTRaFw0yNzA4MjExMDAx
MTRaMGoxCzAJBgNVBAgTAktBMQswCQYDVQQGEwJJTjEYMBYGA1UEAxQPYmhvcGFs
XzJfY2xpZW50MSMwIQYJKoZIhvcNAQkBFhRiaG9wYWxfMkB0ZXN0X2NhLmNvbTEP
MA0GA1UEChMGQ0lUUklYMIIBIjANBgkqhkiG9w0BAQEFAAOCAQ8AMIIBCgKCAQEA
wZDkV96B8R6CjY1/y4bkVE2cLISSpiNXrP+XNerBzIi5mCDdiiplAT8xZCtHXhrv
GeOPmMBu20ZEFH/wfwa22UMjTx/xGO2Ntx1KDFmo6hc1xQUWpIgGMlpBCdpqdKIf
vsoFyb7oZgwNg8IafpbHP+s30WwBmThaBdw7U9+Re7qKSg16bVUbJYVD9+AsiO1q
cnKXmj0ppksDQfzZlznoU8PjMQjl+0x48wVhQfnVYmscgf2QsFkpcZ9OvhgsWEsO
kJ4moaiWUmAtLu9of3F3pyMDsLwyogbFVtBVq0kY7uODZ6juhXG1sZ2iSQSj6v4M
2Svp0Wk1yXo42iJyEd2/pwIDAQABo4IBJzCCASMwEQYJYIZIAYb4QgEBBAQDAgeA
MB0GA1UdDgQWBBQLURKn6UZ1Y8V30RSPhzGv3K1raDCBsAYDVR0jBIGoMIGlgBSm
Zg5ZDzxcETWys5lZqdOmsV6V0qGBgaR/MH0xFDASBgNVBAMUC0JIT1BBTENBX0NB
MQswCQYDVQQGEwJJTjEPMA0GA1UEChMGQ0lUUklYMQwwCgYDVQQLEwNBTkcxCzAJ
BgNVBAgTAktBMSwwKgYJKoZIhvcNAQkBFh1CSE9QQUxDQV9DQUBCSE9QQUxDQV9t
YWlsLmNvbYIJAL6JVfNlKBeaMDwGCCsGAQUFBwEBBDAwLjAsBggrBgEFBQcwAYYg
aHR0cDovLzE3Mi4xNy4yMC4xL3Jlc3BvbmRlcnBhdGgwDQYJKoZIhvcNAQELBQAD
ggEBABim2RL4uG+fp8oFeKIOlpEgVEPy+K3wPB1X8yX5teWZcbvnIYc1Q8GpcaGk
E6nthHGK0Z68FR+DBlE/DeTuXIitCr0AFn9g/UnqgafIHB14BdcS7bEXkF+nQw/D
MCqneioGpbGoUMQECJo1PHYWxR228bo2ZtJCnEQN0VSJBNpwFGOBJ6vJqbu2Xj7M
y0Y4dS8NQu9sUWBwsVeeAxotSlN/hp3fh9FdwLMtUr+Vsv5cfG+xRru3vCqxyggj
MbUdFUJ9iVfDsprsZu6QbGu1D0lVX5J7/dov92DH3gykN4unbAQODJgbl/Q3awBe
cngzIe3ipAXg1EUPQwHHIqm/B6I=
-----END CERTIFICATE-----
