Certificate:
    Data:
        Version: 3 (0x2)
        Serial Number: 11042563100266 (0xa0b0c0d0e6a)
    Signature Algorithm: sha256WithRSAEncryption
        Issuer: CN=BHOPALCA_CA, C=IN, O=CITRIX, OU=ANG, ST=KA/emailAddress=BHOPALCA_CA@BHOPALCA_mail.com
        Validity
            Not Before: Aug 23 10:01:14 2017 GMT
            Not After : Aug 21 10:01:14 2027 GMT
        Subject: ST=KA, C=IN, CN=bhopal_3_client/emailAddress=bhopal_3@test_ca.com, O=CITRIX
        Subject Public Key Info:
            Public Key Algorithm: rsaEncryption
                Public-Key: (2048 bit)
                Modulus:
                    00:e6:7d:b2:c3:5c:9c:bf:16:ae:d0:5a:51:37:b2:
                    b4:f8:4b:73:86:a2:a5:f9:46:f7:b9:01:4b:26:98:
                    e6:40:c5:7a:c5:54:89:8e:6d:15:28:06:c7:e9:26:
                    a7:ba:df:40:1d:19:d5:7c:43:50:cd:a0:a8:eb:d9:
                    ab:e8:68:98:f1:a4:08:23:37:1c:8e:7a:5e:20:9c:
                    6d:67:aa:b4:5e:7c:33:a3:c0:5c:24:2a:55:25:6e:
                    ae:8c:9e:61:7c:24:87:59:cf:6d:33:ce:c0:f9:41:
                    8c:38:98:e9:5c:ad:36:f3:33:e2:2d:87:10:04:e9:
                    eb:bc:fa:a3:7a:99:2e:32:d0:7e:74:75:bf:da:df:
                    57:07:54:0f:ab:5b:88:cd:b5:6a:ad:f2:f7:e0:cf:
                    47:05:1f:9c:9e:6d:fc:fa:78:cf:17:c4:e9:cf:7d:
                    89:92:f2:a1:a8:93:9f:c9:26:6b:37:16:6e:46:4e:
                    58:ba:95:91:c7:42:79:e0:04:de:9b:f9:ec:78:ed:
                    d4:f7:bb:c2:33:f1:f8:91:ff:c4:fd:61:33:55:70:
                    63:b2:6c:d1:82:f2:04:00:40:f5:6e:b5:1b:01:1c:
                    f5:db:c8:18:31:d5:73:c9:fc:7d:67:5c:e2:3d:dc:
                    83:d3:b1:77:85:ad:d9:da:44:e5:68:d3:56:2b:c1:
                    80:45
                Exponent: 65537 (0x10001)
        X509v3 extensions:
            Netscape Cert Type: 
                SSL Client
            X509v3 Subject Key Identifier: 
                7B:DA:1C:5D:99:C0:7E:72:90:7D:46:7A:4F:37:C1:51:A1:A7:8C:E5
            X509v3 Authority Key Identifier: 
                keyid:A6:66:0E:59:0F:3C:5C:11:35:B2:B3:99:59:A9:D3:A6:B1:5E:95:D2
                DirName:/CN=BHOPALCA_CA/C=IN/O=CITRIX/OU=ANG/ST=KA/emailAddress=BHOPALCA_CA@BHOPALCA_mail.com
                serial:BE:89:55:F3:65:28:17:9A

            Authority Information Access: 
                OCSP - URI:http://172.17.20.1/responderpath

    Signature Algorithm: sha256WithRSAEncryption
         02:af:54:51:cc:a1:8e:d8:a5:6a:68:5c:5a:a4:8d:49:c8:0b:
         14:d3:9c:e0:2f:4d:97:47:2e:e3:53:23:90:47:15:ba:09:91:
         fa:26:76:75:e7:01:7b:69:b1:ec:b8:d3:c9:d4:59:9b:b5:da:
         30:f4:d0:f2:1a:cd:ca:02:2b:7b:08:b7:78:58:95:a2:46:26:
         8e:e3:2e:2a:24:39:a1:6f:05:a1:16:91:0b:3f:6a:ed:d0:92:
         f0:0b:48:de:1f:a8:ab:42:5d:ac:37:29:84:1d:c1:19:d1:d5:
         f2:65:4a:4d:71:78:63:b7:b4:e8:c1:60:46:48:d0:3c:81:9f:
         e2:65:89:d0:7c:4d:b2:46:d0:4b:da:de:81:54:9e:81:13:57:
         01:da:8d:d6:05:0b:c5:74:e2:9a:d0:32:2a:dd:16:91:fb:89:
         61:88:5f:14:26:f8:6e:3b:96:cf:a9:72:9a:67:6b:4c:ba:0a:
         e2:b7:b1:4a:83:e0:68:65:f8:32:5e:d8:79:81:2e:8e:a4:8f:
         32:3c:54:2f:26:4c:9f:30:f9:bf:0e:69:45:2b:c8:ff:b7:e6:
         61:a3:da:23:13:4c:fe:1d:c4:a5:99:dd:12:da:95:bd:50:df:
         a7:36:bc:a2:7c:ec:c5:93:fa:23:6c:11:6d:63:4f:c3:c6:17:
         b0:3a:cd:4c
-----BEGIN CERTIFICATE-----
MIIEkDCCA3igAwIBAgIGCgsMDQ5qMA0GCSqGSIb3DQEBCwUAMH0xFDASBgNVBAMU
C0JIT1BBTENBX0NBMQswCQYDVQQGEwJJTjEPMA0GA1UEChMGQ0lUUklYMQwwCgYD
VQQLEwNBTkcxCzAJBgNVBAgTAktBMSwwKgYJKoZIhvcNAQkBFh1CSE9QQUxDQV9D
QUBCSE9QQUxDQV9tYWlsLmNvbTAeFw0xNzA4MjMxMDAxMTRaFw0yNzA4MjExMDAx
MTRaMGoxCzAJBgNVBAgTAktBMQswCQYDVQQGEwJJTjEYMBYGA1UEAxQPYmhvcGFs
XzNfY2xpZW50MSMwIQYJKoZIhvcNAQkBFhRiaG9wYWxfM0B0ZXN0X2NhLmNvbTEP
MA0GA1UEChMGQ0lUUklYMIIBIjANBgkqhkiG9w0BAQEFAAOCAQ8AMIIBCgKCAQEA
5n2yw1ycvxau0FpRN7K0+EtzhqKl+Ub3uQFLJpjmQMV6xVSJjm0VKAbH6Sanut9A
HRnVfENQzaCo69mr6GiY8aQIIzccjnpeIJxtZ6q0Xnwzo8BcJCpVJW6ujJ5hfCSH
Wc9tM87A+UGMOJjpXK028zPiLYcQBOnrvPqjepkuMtB+dHW/2t9XB1QPq1uIzbVq
rfL34M9HBR+cnm38+njPF8Tpz32JkvKhqJOfySZrNxZuRk5YupWRx0J54ATem/ns
eO3U97vCM/H4kf/E/WEzVXBjsmzRgvIEAED1brUbARz128gYMdVzyfx9Z1ziPdyD
07F3ha3Z2kTlaNNWK8GARQIDAQABo4IBJzCCASMwEQYJYIZIAYb4QgEBBAQDAgeA
MB0GA1UdDgQWBBR72hxdmcB+cpB9RnpPN8FRoaeM5TCBsAYDVR0jBIGoMIGlgBSm
Zg5ZDzxcETWys5lZqdOmsV6V0qGBgaR/MH0xFDASBgNVBAMUC0JIT1BBTENBX0NB
MQswCQYDVQQGEwJJTjEPMA0GA1UEChMGQ0lUUklYMQwwCgYDVQQLEwNBTkcxCzAJ
BgNVBAgTAktBMSwwKgYJKoZIhvcNAQkBFh1CSE9QQUxDQV9DQUBCSE9QQUxDQV9t
YWlsLmNvbYIJAL6JVfNlKBeaMDwGCCsGAQUFBwEBBDAwLjAsBggrBgEFBQcwAYYg
aHR0cDovLzE3Mi4xNy4yMC4xL3Jlc3BvbmRlcnBhdGgwDQYJKoZIhvcNAQELBQAD
ggEBAAKvVFHMoY7YpWpoXFqkjUnICxTTnOAvTZdHLuNTI5BHFboJkfomdnXnAXtp
sey408nUWZu12jD00PIazcoCK3sIt3hYlaJGJo7jLiokOaFvBaEWkQs/au3QkvAL
SN4fqKtCXaw3KYQdwRnR1fJlSk1xeGO3tOjBYEZI0DyBn+JlidB8TbJG0Eva3oFU
noETVwHajdYFC8V04prQMirdFpH7iWGIXxQm+G47ls+pcppna0y6CuK3sUqD4Ghl
+DJe2HmBLo6kjzI8VC8mTJ8w+b8OaUUryP+35mGj2iMTTP4dxKWZ3RLalb1Q36c2
vKJ87MWT+iNsEW1jT8PGF7A6zUw=
-----END CERTIFICATE-----
