Certificate:
    Data:
        Version: 3 (0x2)
        Serial Number: 11042563100209 (0xa0b0c0d0e31)
    Signature Algorithm: sha256WithRSAEncryption
        Issuer: CN=BHOPALCA_CA, C=IN, O=CITRIX, OU=ANG, ST=KA/emailAddress=BHOPALCA_CA@BHOPALCA_mail.com
        Validity
            Not Before: Jul  8 04:32:42 2016 GMT
            Not After : Jul  6 04:32:42 2026 GMT
        Subject: ST=KA, C=IN, CN=135_BHOPALCA_server/emailAddress=135_BHOPALCA@test_ca.com, O=CITRIX
        Subject Public Key Info:
            Public Key Algorithm: rsaEncryption
                Public-Key: (2048 bit)
                Modulus:
                    00:bf:57:7a:62:d4:a2:21:be:2e:e4:5a:fd:35:6c:
                    e7:8b:52:f9:e3:0c:90:61:c9:dc:66:f3:13:43:64:
                    a9:48:a3:7b:47:80:de:c9:38:30:88:5c:0e:a9:d2:
                    ed:8a:8e:f5:a5:71:84:0a:91:98:7c:97:d7:bf:79:
                    42:a2:4d:81:5a:25:22:6e:d1:26:83:64:b4:11:40:
                    92:20:bf:0f:af:fc:ab:75:6e:2f:31:6b:0b:02:04:
                    20:55:89:94:69:c8:be:83:4a:71:3a:70:f5:33:68:
                    99:8e:e6:cf:c2:d3:f6:53:e8:39:23:de:65:ea:8e:
                    d3:38:fb:87:05:a8:55:dd:e7:21:55:3b:6f:4f:4d:
                    06:b4:70:77:ae:40:53:27:9b:8b:b0:da:ab:4e:73:
                    dd:43:f7:ce:8a:63:5d:86:f6:5d:62:ad:e3:14:42:
                    08:48:dc:e1:5d:81:17:cf:b2:fc:3c:97:a7:56:3d:
                    a8:06:81:50:20:83:72:57:69:e7:b2:dd:8d:1b:09:
                    de:8d:d9:17:19:a5:30:49:f7:48:3f:83:e5:a5:8c:
                    00:94:4e:06:75:fe:7f:a2:4c:56:49:c3:18:ea:f4:
                    c5:67:02:8c:7a:aa:10:1c:d7:78:74:ff:6b:8d:4d:
                    ec:c8:ad:b1:b9:31:f5:ac:0e:4d:c9:9f:2e:e5:dd:
                    d8:63
                Exponent: 65537 (0x10001)
        X509v3 extensions:
            Netscape Cert Type: 
                SSL Server
            X509v3 Subject Key Identifier: 
                01:0D:5B:B5:16:A6:1A:E9:FF:D5:BE:7A:93:45:78:A2:4B:20:AC:FE
            X509v3 Authority Key Identifier: 
                keyid:A6:66:0E:59:0F:3C:5C:11:35:B2:B3:99:59:A9:D3:A6:B1:5E:95:D2
                DirName:/CN=BHOPALCA_CA/C=IN/O=CITRIX/OU=ANG/ST=KA/emailAddress=BHOPALCA_CA@BHOPALCA_mail.com
                serial:BE:89:55:F3:65:28:17:9A

            Authority Information Access: 
                OCSP - URI:http://172.17.20.1/responderpath

    Signature Algorithm: sha256WithRSAEncryption
         93:e4:a5:5e:6c:b5:83:2d:f4:1d:78:a4:db:32:f6:d0:18:14:
         5e:c9:50:60:23:0f:56:a0:56:7f:da:0d:e5:a2:a2:65:c7:ea:
         b3:51:29:73:65:ff:5c:03:29:be:67:fd:60:91:30:ab:ee:bf:
         94:5e:5d:26:5d:6e:47:85:f3:df:f3:f2:52:62:35:ee:a6:4f:
         b8:4c:ca:6b:2d:87:56:35:53:b8:bf:42:98:d5:c2:33:ef:08:
         30:65:fe:3e:67:1d:fa:49:a1:78:69:26:1a:5e:f4:43:0d:35:
         60:62:a4:74:d1:e4:4d:49:08:db:d4:a3:d8:7d:f3:76:e2:43:
         d1:2f:66:ff:79:6d:d4:ea:22:0a:dd:70:d7:60:f9:6d:3a:5e:
         7a:99:47:51:19:e6:bf:e5:3c:cb:b4:e2:a6:ac:c2:68:1a:4b:
         60:f3:41:2c:29:7d:7c:c2:e8:87:9e:8a:5a:70:ff:10:ed:9c:
         9f:5b:99:d0:af:c2:25:db:e5:85:0c:11:c1:df:99:21:bb:e7:
         18:02:f6:30:d4:47:10:38:b9:89:15:02:bf:5e:ad:df:32:40:
         6f:25:ef:f2:cc:4b:ac:23:ab:00:46:d4:ae:99:16:11:d3:d9:
         bb:e5:f7:5f:b6:c9:0f:26:a4:00:12:c3:ec:60:1a:4c:15:bb:
         d2:98:e7:3e
-----BEGIN CERTIFICATE-----
MIIEmDCCA4CgAwIBAgIGCgsMDQ4xMA0GCSqGSIb3DQEBCwUAMH0xFDASBgNVBAMU
C0JIT1BBTENBX0NBMQswCQYDVQQGEwJJTjEPMA0GA1UEChMGQ0lUUklYMQwwCgYD
VQQLEwNBTkcxCzAJBgNVBAgTAktBMSwwKgYJKoZIhvcNAQkBFh1CSE9QQUxDQV9D
QUBCSE9QQUxDQV9tYWlsLmNvbTAeFw0xNjA3MDgwNDMyNDJaFw0yNjA3MDYwNDMy
NDJaMHIxCzAJBgNVBAgTAktBMQswCQYDVQQGEwJJTjEcMBoGA1UEAxQTMTM1X0JI
T1BBTENBX3NlcnZlcjEnMCUGCSqGSIb3DQEJARYYMTM1X0JIT1BBTENBQHRlc3Rf
Y2EuY29tMQ8wDQYDVQQKEwZDSVRSSVgwggEiMA0GCSqGSIb3DQEBAQUAA4IBDwAw
ggEKAoIBAQC/V3pi1KIhvi7kWv01bOeLUvnjDJBhydxm8xNDZKlIo3tHgN7JODCI
XA6p0u2KjvWlcYQKkZh8l9e/eUKiTYFaJSJu0SaDZLQRQJIgvw+v/Kt1bi8xawsC
BCBViZRpyL6DSnE6cPUzaJmO5s/C0/ZT6Dkj3mXqjtM4+4cFqFXd5yFVO29PTQa0
cHeuQFMnm4uw2qtOc91D986KY12G9l1ireMUQghI3OFdgRfPsvw8l6dWPagGgVAg
g3JXaeey3Y0bCd6N2RcZpTBJ90g/g+WljACUTgZ1/n+iTFZJwxjq9MVnAox6qhAc
13h0/2uNTezIrbG5MfWsDk3Jny7l3dhjAgMBAAGjggEnMIIBIzARBglghkgBhvhC
AQEEBAMCBkAwHQYDVR0OBBYEFAENW7UWphrp/9W+epNFeKJLIKz+MIGwBgNVHSME
gagwgaWAFKZmDlkPPFwRNbKzmVmp06axXpXSoYGBpH8wfTEUMBIGA1UEAxQLQkhP
UEFMQ0FfQ0ExCzAJBgNVBAYTAklOMQ8wDQYDVQQKEwZDSVRSSVgxDDAKBgNVBAsT
A0FORzELMAkGA1UECBMCS0ExLDAqBgkqhkiG9w0BCQEWHUJIT1BBTENBX0NBQEJI
T1BBTENBX21haWwuY29tggkAvolV82UoF5owPAYIKwYBBQUHAQEEMDAuMCwGCCsG
AQUFBzABhiBodHRwOi8vMTcyLjE3LjIwLjEvcmVzcG9uZGVycGF0aDANBgkqhkiG
9w0BAQsFAAOCAQEAk+SlXmy1gy30HXik2zL20BgUXslQYCMPVqBWf9oN5aKiZcfq
s1Epc2X/XAMpvmf9YJEwq+6/lF5dJl1uR4Xz3/PyUmI17qZPuEzKay2HVjVTuL9C
mNXCM+8IMGX+Pmcd+kmheGkmGl70Qw01YGKkdNHkTUkI29Sj2H3zduJD0S9m/3lt
1OoiCt1w12D5bTpeeplHURnmv+U8y7TipqzCaBpLYPNBLCl9fMLoh56KWnD/EO2c
n1uZ0K/CJdvlhQwRwd+ZIbvnGAL2MNRHEDi5iRUCv16t3zJAbyXv8sxLrCOrAEbU
rpkWEdPZu+X3X7bJDyakABLD7GAaTBW70pjnPg==
-----END CERTIFICATE-----
