Certificate:
    Data:
        Version: 3 (0x2)
        Serial Number: 11042563100309 (0xa0b0c0d0e95)
    Signature Algorithm: sha256WithRSAEncryption
        Issuer: CN=BHOPALCA_CA, C=IN, O=CITRIX, OU=ANG, ST=KA/emailAddress=BHOPALCA_CA@BHOPALCA_mail.com
        Validity
            Not Before: Aug 23 10:01:38 2017 GMT
            Not After : Aug 21 10:01:38 2027 GMT
        Subject: ST=KA, C=IN, CN=bhopal_46_client/emailAddress=bhopal_46@test_ca.com, O=CITRIX
        Subject Public Key Info:
            Public Key Algorithm: rsaEncryption
                Public-Key: (2048 bit)
                Modulus:
                    00:e1:19:2f:49:d0:09:b3:3d:8c:4b:e7:18:cc:01:
                    91:88:eb:c4:9d:2e:06:47:9d:d9:49:cc:16:79:af:
                    63:5c:43:ca:e4:1a:3d:d4:b3:bd:96:a5:37:3c:a3:
                    42:26:99:66:3a:8b:48:cf:94:3c:d2:90:31:18:65:
                    ee:1b:47:e4:2d:ce:bf:85:07:a8:5b:29:f2:51:d7:
                    b6:d4:6d:89:60:49:5d:d7:cb:2a:64:f0:49:6b:b1:
                    c9:77:c5:78:31:05:77:a5:5d:3a:d0:d2:a2:1a:0a:
                    8d:6b:47:0b:17:30:8b:b6:5b:fd:38:0e:9a:77:62:
                    62:60:8f:7d:8f:ae:7b:4c:59:90:08:42:ab:10:31:
                    65:b1:89:90:ec:ce:fe:6e:72:f2:e7:f6:c4:8c:c2:
                    2b:ad:66:2b:5e:92:76:f2:c8:e8:96:fa:2c:38:b3:
                    91:cb:49:a9:2d:bc:32:34:33:3b:91:2d:a0:a8:13:
                    83:2e:93:37:10:2d:c1:b7:64:29:23:c8:fb:09:ba:
                    da:d2:4a:18:81:54:f7:ec:eb:3a:f1:bd:fc:20:dd:
                    bb:41:28:78:d0:ba:86:b4:1c:b6:ed:79:68:26:96:
                    af:e1:8b:22:4b:ad:40:6b:c3:b4:48:d4:93:d1:a5:
                    3e:c7:66:16:3c:4d:e2:ab:f7:a8:59:2e:23:8d:f3:
                    05:fb
                Exponent: 65537 (0x10001)
        X509v3 extensions:
            Netscape Cert Type: 
                SSL Client
            X509v3 Subject Key Identifier: 
                E1:D3:34:93:8F:4A:F4:87:73:D3:17:EE:E6:E3:66:2C:CE:A4:02:60
            X509v3 Authority Key Identifier: 
                keyid:A6:66:0E:59:0F:3C:5C:11:35:B2:B3:99:59:A9:D3:A6:B1:5E:95:D2
                DirName:/CN=BHOPALCA_CA/C=IN/O=CITRIX/OU=ANG/ST=KA/emailAddress=BHOPALCA_CA@BHOPALCA_mail.com
                serial:BE:89:55:F3:65:28:17:9A

            Authority Information Access: 
                OCSP - URI:http://172.17.20.1/responderpath

    Signature Algorithm: sha256WithRSAEncryption
         47:4b:dc:82:23:73:53:88:97:9b:58:1e:12:1e:63:22:36:c5:
         ba:31:36:34:5d:d5:b2:2d:38:45:af:dc:a8:3a:57:84:b0:e9:
         c7:b0:a6:a6:b3:31:65:da:2e:11:63:85:0e:a1:a1:24:6a:a2:
         55:b9:f1:a5:34:27:38:9d:0e:0d:41:07:81:da:37:10:9b:c0:
         82:29:50:f5:89:cc:8d:97:31:84:85:2f:87:91:06:79:3c:57:
         2a:92:e6:8d:c9:ad:fb:7b:3a:7f:4c:12:8f:35:42:af:8d:a8:
         81:c2:ef:4a:1d:af:3a:77:b5:c4:ec:17:6a:2d:a7:53:0f:cd:
         16:2a:e1:90:e7:ac:49:99:62:b4:fc:82:cf:bf:15:f8:fb:43:
         00:2b:c2:3c:e2:d6:f3:d6:ee:2e:c6:31:f5:0b:f6:70:c9:b3:
         f7:94:36:e9:77:70:5b:be:8c:09:4c:40:64:2f:81:22:5c:7c:
         25:a3:f8:6e:8c:90:01:cd:b9:65:b4:2b:df:5c:81:a3:16:2e:
         ad:54:cf:12:cc:df:e8:3c:20:48:c9:c6:3d:35:a9:37:59:7f:
         54:7d:75:ac:2f:d3:ac:c3:47:1c:b1:68:9d:62:a8:6f:4f:80:
         1f:8a:c0:5a:27:9e:34:02:26:e9:78:a6:b1:2d:66:60:26:cb:
         a9:ef:54:9e
-----BEGIN CERTIFICATE-----
MIIEkjCCA3qgAwIBAgIGCgsMDQ6VMA0GCSqGSIb3DQEBCwUAMH0xFDASBgNVBAMU
C0JIT1BBTENBX0NBMQswCQYDVQQGEwJJTjEPMA0GA1UEChMGQ0lUUklYMQwwCgYD
VQQLEwNBTkcxCzAJBgNVBAgTAktBMSwwKgYJKoZIhvcNAQkBFh1CSE9QQUxDQV9D
QUBCSE9QQUxDQV9tYWlsLmNvbTAeFw0xNzA4MjMxMDAxMzhaFw0yNzA4MjExMDAx
MzhaMGwxCzAJBgNVBAgTAktBMQswCQYDVQQGEwJJTjEZMBcGA1UEAxQQYmhvcGFs
XzQ2X2NsaWVudDEkMCIGCSqGSIb3DQEJARYVYmhvcGFsXzQ2QHRlc3RfY2EuY29t
MQ8wDQYDVQQKEwZDSVRSSVgwggEiMA0GCSqGSIb3DQEBAQUAA4IBDwAwggEKAoIB
AQDhGS9J0AmzPYxL5xjMAZGI68SdLgZHndlJzBZ5r2NcQ8rkGj3Us72WpTc8o0Im
mWY6i0jPlDzSkDEYZe4bR+Qtzr+FB6hbKfJR17bUbYlgSV3Xyypk8Elrscl3xXgx
BXelXTrQ0qIaCo1rRwsXMIu2W/04Dpp3YmJgj32PrntMWZAIQqsQMWWxiZDszv5u
cvLn9sSMwiutZiteknbyyOiW+iw4s5HLSaktvDI0MzuRLaCoE4MukzcQLcG3ZCkj
yPsJutrSShiBVPfs6zrxvfwg3btBKHjQuoa0HLbteWgmlq/hiyJLrUBrw7RI1JPR
pT7HZhY8TeKr96hZLiON8wX7AgMBAAGjggEnMIIBIzARBglghkgBhvhCAQEEBAMC
B4AwHQYDVR0OBBYEFOHTNJOPSvSHc9MX7ubjZizOpAJgMIGwBgNVHSMEgagwgaWA
FKZmDlkPPFwRNbKzmVmp06axXpXSoYGBpH8wfTEUMBIGA1UEAxQLQkhPUEFMQ0Ff
Q0ExCzAJBgNVBAYTAklOMQ8wDQYDVQQKEwZDSVRSSVgxDDAKBgNVBAsTA0FORzEL
MAkGA1UECBMCS0ExLDAqBgkqhkiG9w0BCQEWHUJIT1BBTENBX0NBQEJIT1BBTENB
X21haWwuY29tggkAvolV82UoF5owPAYIKwYBBQUHAQEEMDAuMCwGCCsGAQUFBzAB
hiBodHRwOi8vMTcyLjE3LjIwLjEvcmVzcG9uZGVycGF0aDANBgkqhkiG9w0BAQsF
AAOCAQEAR0vcgiNzU4iXm1geEh5jIjbFujE2NF3Vsi04Ra/cqDpXhLDpx7CmprMx
ZdouEWOFDqGhJGqiVbnxpTQnOJ0ODUEHgdo3EJvAgilQ9YnMjZcxhIUvh5EGeTxX
KpLmjcmt+3s6f0wSjzVCr42ogcLvSh2vOne1xOwXai2nUw/NFirhkOesSZlitPyC
z78V+PtDACvCPOLW89buLsYx9Qv2cMmz95Q26XdwW76MCUxAZC+BIlx8JaP4boyQ
Ac25ZbQr31yBoxYurVTPEszf6DwgSMnGPTWpN1l/VH11rC/TrMNHHLFonWKob0+A
H4rAWieeNAIm6XimsS1mYCbLqe9Ung==
-----END CERTIFICATE-----
