Certificate:
    Data:
        Version: 3 (0x2)
        Serial Number: 11042563100276 (0xa0b0c0d0e74)
    Signature Algorithm: sha256WithRSAEncryption
        Issuer: CN=BHOPALCA_CA, C=IN, O=CITRIX, OU=ANG, ST=KA/emailAddress=BHOPALCA_CA@BHOPALCA_mail.com
        Validity
            Not Before: Aug 23 10:01:20 2017 GMT
            Not After : Aug 21 10:01:20 2027 GMT
        Subject: ST=KA, C=IN, CN=bhopal_13_client/emailAddress=bhopal_13@test_ca.com, O=CITRIX
        Subject Public Key Info:
            Public Key Algorithm: rsaEncryption
                Public-Key: (2048 bit)
                Modulus:
                    00:c9:88:d6:b7:b3:00:75:3b:6a:76:8c:d3:7f:60:
                    ab:ce:5e:bb:e0:cf:1d:9a:27:82:cc:7a:b1:01:3f:
                    27:b4:21:cd:17:a5:45:8c:c0:31:3f:19:da:47:b2:
                    5e:bc:b9:99:91:44:ed:01:35:a6:71:6c:1a:2a:55:
                    c2:45:0c:1e:92:1a:e1:5c:14:74:3a:46:20:91:a3:
                    62:db:45:c9:b3:22:e2:6e:1f:8a:ae:ef:8d:09:08:
                    ad:48:7c:a8:b0:1e:3a:b3:e6:ac:1b:90:db:39:aa:
                    94:ec:b6:d3:5e:54:ac:5f:76:53:12:24:b9:de:88:
                    0f:29:b8:fc:7c:3a:83:3a:24:28:30:f5:dc:a7:b0:
                    6a:c1:7b:d4:0d:65:e0:69:f4:6e:07:05:85:8b:82:
                    60:e2:1f:17:16:c3:81:b6:7d:37:99:96:08:cc:ba:
                    59:f4:ec:fc:87:06:69:41:81:1e:10:8b:14:ab:d2:
                    89:b3:39:98:1f:55:f1:cd:e1:e4:86:99:b3:ea:76:
                    16:fe:6f:e3:73:13:e8:d6:2e:16:48:c3:6c:07:76:
                    97:06:72:ed:10:59:a2:af:51:aa:f0:a1:2c:3e:12:
                    02:74:10:e6:41:54:46:1a:cf:14:4a:0b:2e:a1:72:
                    89:b6:73:dd:94:65:91:3c:b0:61:d1:26:7f:ef:fa:
                    36:cd
                Exponent: 65537 (0x10001)
        X509v3 extensions:
            Netscape Cert Type: 
                SSL Client
            X509v3 Subject Key Identifier: 
                81:A4:AE:64:6E:16:39:CE:19:36:62:4C:81:8F:41:FD:EC:11:A5:97
            X509v3 Authority Key Identifier: 
                keyid:A6:66:0E:59:0F:3C:5C:11:35:B2:B3:99:59:A9:D3:A6:B1:5E:95:D2
                DirName:/CN=BHOPALCA_CA/C=IN/O=CITRIX/OU=ANG/ST=KA/emailAddress=BHOPALCA_CA@BHOPALCA_mail.com
                serial:BE:89:55:F3:65:28:17:9A

            Authority Information Access: 
                OCSP - URI:http://172.17.20.1/responderpath

    Signature Algorithm: sha256WithRSAEncryption
         87:e7:fa:35:3b:0d:e7:1f:5b:ec:02:d5:c3:40:16:6c:05:ab:
         e8:79:93:f9:1f:30:b2:b5:b8:43:ae:a9:cf:35:35:70:59:c7:
         ee:c1:52:9b:c0:78:75:be:d1:0b:ae:14:58:93:ac:41:77:05:
         db:8b:ff:93:f1:04:20:26:89:ae:cc:41:8e:8d:85:87:52:52:
         46:00:5d:47:65:0d:a7:88:e0:50:49:78:f1:9e:37:4f:68:f8:
         a9:d8:ac:1a:88:72:97:b5:9d:90:2b:58:ac:67:f2:f7:a3:b1:
         e1:59:4a:0a:0d:56:45:88:61:9a:fa:34:17:4d:1b:ab:dd:97:
         dc:62:4d:f8:b1:c6:f6:ab:35:a1:68:d2:72:b9:c5:14:c7:ec:
         aa:3c:b6:02:21:e4:8f:ca:cb:15:03:6a:17:02:c3:ce:80:94:
         89:bf:b9:8a:dc:70:ad:1a:0b:53:39:b8:18:e9:21:7e:69:f3:
         a1:1a:88:d3:f4:71:a3:14:26:f3:08:97:cf:8c:9c:87:eb:4d:
         5c:f8:26:a3:d6:4a:8b:c3:9a:d1:32:90:00:09:34:e0:7f:9d:
         19:8f:02:5d:b9:4e:09:d5:dd:45:aa:84:9e:20:51:4a:64:38:
         ba:7d:45:27:cb:d2:4a:89:3f:64:6d:eb:59:08:ec:96:b2:56:
         18:f3:83:ae
-----BEGIN CERTIFICATE-----
MIIEkjCCA3qgAwIBAgIGCgsMDQ50MA0GCSqGSIb3DQEBCwUAMH0xFDASBgNVBAMU
C0JIT1BBTENBX0NBMQswCQYDVQQGEwJJTjEPMA0GA1UEChMGQ0lUUklYMQwwCgYD
VQQLEwNBTkcxCzAJBgNVBAgTAktBMSwwKgYJKoZIhvcNAQkBFh1CSE9QQUxDQV9D
QUBCSE9QQUxDQV9tYWlsLmNvbTAeFw0xNzA4MjMxMDAxMjBaFw0yNzA4MjExMDAx
MjBaMGwxCzAJBgNVBAgTAktBMQswCQYDVQQGEwJJTjEZMBcGA1UEAxQQYmhvcGFs
XzEzX2NsaWVudDEkMCIGCSqGSIb3DQEJARYVYmhvcGFsXzEzQHRlc3RfY2EuY29t
MQ8wDQYDVQQKEwZDSVRSSVgwggEiMA0GCSqGSIb3DQEBAQUAA4IBDwAwggEKAoIB
AQDJiNa3swB1O2p2jNN/YKvOXrvgzx2aJ4LMerEBPye0Ic0XpUWMwDE/GdpHsl68
uZmRRO0BNaZxbBoqVcJFDB6SGuFcFHQ6RiCRo2LbRcmzIuJuH4qu740JCK1IfKiw
Hjqz5qwbkNs5qpTsttNeVKxfdlMSJLneiA8puPx8OoM6JCgw9dynsGrBe9QNZeBp
9G4HBYWLgmDiHxcWw4G2fTeZlgjMuln07PyHBmlBgR4QixSr0omzOZgfVfHN4eSG
mbPqdhb+b+NzE+jWLhZIw2wHdpcGcu0QWaKvUarwoSw+EgJ0EOZBVEYazxRKCy6h
com2c92UZZE8sGHRJn/v+jbNAgMBAAGjggEnMIIBIzARBglghkgBhvhCAQEEBAMC
B4AwHQYDVR0OBBYEFIGkrmRuFjnOGTZiTIGPQf3sEaWXMIGwBgNVHSMEgagwgaWA
FKZmDlkPPFwRNbKzmVmp06axXpXSoYGBpH8wfTEUMBIGA1UEAxQLQkhPUEFMQ0Ff
Q0ExCzAJBgNVBAYTAklOMQ8wDQYDVQQKEwZDSVRSSVgxDDAKBgNVBAsTA0FORzEL
MAkGA1UECBMCS0ExLDAqBgkqhkiG9w0BCQEWHUJIT1BBTENBX0NBQEJIT1BBTENB
X21haWwuY29tggkAvolV82UoF5owPAYIKwYBBQUHAQEEMDAuMCwGCCsGAQUFBzAB
hiBodHRwOi8vMTcyLjE3LjIwLjEvcmVzcG9uZGVycGF0aDANBgkqhkiG9w0BAQsF
AAOCAQEAh+f6NTsN5x9b7ALVw0AWbAWr6HmT+R8wsrW4Q66pzzU1cFnH7sFSm8B4
db7RC64UWJOsQXcF24v/k/EEICaJrsxBjo2Fh1JSRgBdR2UNp4jgUEl48Z43T2j4
qdisGohyl7WdkCtYrGfy96Ox4VlKCg1WRYhhmvo0F00bq92X3GJN+LHG9qs1oWjS
crnFFMfsqjy2AiHkj8rLFQNqFwLDzoCUib+5itxwrRoLUzm4GOkhfmnzoRqI0/Rx
oxQm8wiXz4ych+tNXPgmo9ZKi8Oa0TKQAAk04H+dGY8CXblOCdXdRaqEniBRSmQ4
un1FJ8vSSok/ZG3rWQjslrJWGPODrg==
-----END CERTIFICATE-----
