Certificate:
    Data:
        Version: 3 (0x2)
        Serial Number: 11042563100281 (0xa0b0c0d0e79)
    Signature Algorithm: sha256WithRSAEncryption
        Issuer: CN=BHOPALCA_CA, C=IN, O=CITRIX, OU=ANG, ST=KA/emailAddress=BHOPALCA_CA@BHOPALCA_mail.com
        Validity
            Not Before: Aug 23 10:01:23 2017 GMT
            Not After : Aug 21 10:01:23 2027 GMT
        Subject: ST=KA, C=IN, CN=bhopal_18_client/emailAddress=bhopal_18@test_ca.com, O=CITRIX
        Subject Public Key Info:
            Public Key Algorithm: rsaEncryption
                Public-Key: (2048 bit)
                Modulus:
                    00:ba:c1:ef:ff:7c:85:68:14:69:1f:e9:93:8d:d6:
                    74:34:f8:91:da:d1:50:9b:56:2e:a1:bf:a0:a0:2e:
                    b8:2f:cd:ec:bd:ba:94:b8:23:76:03:23:3b:c1:4f:
                    b7:a2:e0:64:e2:67:9d:b0:d2:f6:fa:dd:93:91:a8:
                    a0:f7:db:a7:ce:6a:c6:53:d9:89:5b:dc:44:60:f8:
                    f6:9e:78:5b:df:d0:b0:7c:25:13:a8:5a:75:66:7f:
                    34:92:bb:bd:9a:c3:78:18:f0:4d:49:73:d9:1a:80:
                    4b:50:2e:46:f9:15:c5:3c:5c:e3:a7:ce:ed:a9:0f:
                    6e:18:5f:e5:03:3e:dd:95:14:ae:d8:64:e7:52:c3:
                    66:b7:96:f3:9d:29:74:e6:0c:14:a3:5e:8b:f1:50:
                    2e:c7:9b:e3:22:77:c0:da:18:51:7e:2c:ea:69:61:
                    c2:e9:8b:1a:a5:15:a0:29:4f:d5:9b:d1:43:68:46:
                    8a:27:a8:1d:1c:e0:4b:92:98:eb:b5:73:01:d8:3b:
                    02:1d:1b:01:39:ad:de:03:d2:79:3a:fc:7a:c5:3f:
                    88:d5:3d:63:d9:c3:f4:99:e5:5b:d4:44:0f:ce:a7:
                    9c:da:a0:c3:28:40:d4:02:78:1c:d0:c6:cf:ac:34:
                    8c:78:ea:60:ea:3d:df:68:80:fd:70:1b:8f:9a:35:
                    8b:cd
                Exponent: 65537 (0x10001)
        X509v3 extensions:
            Netscape Cert Type: 
                SSL Client
            X509v3 Subject Key Identifier: 
                F2:5D:E6:8A:D3:78:07:04:36:28:DA:E5:48:E8:B7:F3:94:CE:40:35
            X509v3 Authority Key Identifier: 
                keyid:A6:66:0E:59:0F:3C:5C:11:35:B2:B3:99:59:A9:D3:A6:B1:5E:95:D2
                DirName:/CN=BHOPALCA_CA/C=IN/O=CITRIX/OU=ANG/ST=KA/emailAddress=BHOPALCA_CA@BHOPALCA_mail.com
                serial:BE:89:55:F3:65:28:17:9A

            Authority Information Access: 
                OCSP - URI:http://172.17.20.1/responderpath

    Signature Algorithm: sha256WithRSAEncryption
         96:ae:a5:23:34:72:99:f3:6e:a7:e9:16:83:ec:78:90:8e:0c:
         05:89:ec:63:ab:92:f4:90:0f:9c:65:40:56:fe:e9:e0:ff:47:
         04:f0:6d:70:52:74:da:e5:20:e9:ac:c4:85:4d:1a:96:77:b2:
         99:d6:d6:0a:10:3a:49:ce:9b:8a:ff:fa:1c:19:a7:37:fc:55:
         e3:71:bf:37:8f:bc:a2:16:d6:51:c4:18:04:e1:95:1b:23:56:
         42:5b:20:1d:f6:fd:21:cf:15:43:a5:94:6b:9d:6c:69:7e:5f:
         9e:1c:ea:f0:6d:a1:b0:c7:e3:75:af:bc:79:0a:e0:1b:0d:6b:
         f1:da:f7:63:92:9d:8a:29:78:be:be:c0:83:c1:08:74:f5:14:
         17:7d:63:fd:30:4c:5e:19:66:ab:d4:98:38:8c:9b:02:98:c3:
         e5:39:e6:c1:1c:f5:c1:b3:f9:13:d8:d3:31:42:be:92:aa:77:
         f0:7f:f5:84:00:60:18:35:56:01:2d:e1:78:bd:35:da:01:22:
         e5:60:58:93:e8:aa:b8:5f:a1:eb:6f:95:2b:80:04:f4:3a:86:
         50:58:87:a1:ff:e3:d2:66:29:00:41:4f:9c:36:36:d6:e5:ff:
         ed:b5:25:43:70:0b:fc:ce:94:10:5a:05:2d:3c:e6:2d:99:55:
         bc:7f:ce:fd
-----BEGIN CERTIFICATE-----
MIIEkjCCA3qgAwIBAgIGCgsMDQ55MA0GCSqGSIb3DQEBCwUAMH0xFDASBgNVBAMU
C0JIT1BBTENBX0NBMQswCQYDVQQGEwJJTjEPMA0GA1UEChMGQ0lUUklYMQwwCgYD
VQQLEwNBTkcxCzAJBgNVBAgTAktBMSwwKgYJKoZIhvcNAQkBFh1CSE9QQUxDQV9D
QUBCSE9QQUxDQV9tYWlsLmNvbTAeFw0xNzA4MjMxMDAxMjNaFw0yNzA4MjExMDAx
MjNaMGwxCzAJBgNVBAgTAktBMQswCQYDVQQGEwJJTjEZMBcGA1UEAxQQYmhvcGFs
XzE4X2NsaWVudDEkMCIGCSqGSIb3DQEJARYVYmhvcGFsXzE4QHRlc3RfY2EuY29t
MQ8wDQYDVQQKEwZDSVRSSVgwggEiMA0GCSqGSIb3DQEBAQUAA4IBDwAwggEKAoIB
AQC6we//fIVoFGkf6ZON1nQ0+JHa0VCbVi6hv6CgLrgvzey9upS4I3YDIzvBT7ei
4GTiZ52w0vb63ZORqKD326fOasZT2Ylb3ERg+PaeeFvf0LB8JROoWnVmfzSSu72a
w3gY8E1Jc9kagEtQLkb5FcU8XOOnzu2pD24YX+UDPt2VFK7YZOdSw2a3lvOdKXTm
DBSjXovxUC7Hm+Mid8DaGFF+LOppYcLpixqlFaApT9Wb0UNoRoonqB0c4EuSmOu1
cwHYOwIdGwE5rd4D0nk6/HrFP4jVPWPZw/SZ5VvURA/Op5zaoMMoQNQCeBzQxs+s
NIx46mDqPd9ogP1wG4+aNYvNAgMBAAGjggEnMIIBIzARBglghkgBhvhCAQEEBAMC
B4AwHQYDVR0OBBYEFPJd5orTeAcENija5Ujot/OUzkA1MIGwBgNVHSMEgagwgaWA
FKZmDlkPPFwRNbKzmVmp06axXpXSoYGBpH8wfTEUMBIGA1UEAxQLQkhPUEFMQ0Ff
Q0ExCzAJBgNVBAYTAklOMQ8wDQYDVQQKEwZDSVRSSVgxDDAKBgNVBAsTA0FORzEL
MAkGA1UECBMCS0ExLDAqBgkqhkiG9w0BCQEWHUJIT1BBTENBX0NBQEJIT1BBTENB
X21haWwuY29tggkAvolV82UoF5owPAYIKwYBBQUHAQEEMDAuMCwGCCsGAQUFBzAB
hiBodHRwOi8vMTcyLjE3LjIwLjEvcmVzcG9uZGVycGF0aDANBgkqhkiG9w0BAQsF
AAOCAQEAlq6lIzRymfNup+kWg+x4kI4MBYnsY6uS9JAPnGVAVv7p4P9HBPBtcFJ0
2uUg6azEhU0alneymdbWChA6Sc6biv/6HBmnN/xV43G/N4+8ohbWUcQYBOGVGyNW
QlsgHfb9Ic8VQ6WUa51saX5fnhzq8G2hsMfjda+8eQrgGw1r8dr3Y5Kdiil4vr7A
g8EIdPUUF31j/TBMXhlmq9SYOIybApjD5TnmwRz1wbP5E9jTMUK+kqp38H/1hABg
GDVWAS3heL012gEi5WBYk+iquF+h62+VK4AE9DqGUFiHof/j0mYpAEFPnDY21uX/
7bUlQ3AL/M6UEFoFLTzmLZlVvH/O/Q==
-----END CERTIFICATE-----
