Certificate:
    Data:
        Version: 3 (0x2)
        Serial Number: 11042563100186 (0xa0b0c0d0e1a)
    Signature Algorithm: sha256WithRSAEncryption
        Issuer: CN=BHOPALCA_CA, C=IN, O=CITRIX, OU=ANG, ST=KA/emailAddress=BHOPALCA_CA@BHOPALCA_mail.com
        Validity
            Not Before: Jul  8 04:32:35 2016 GMT
            Not After : Jul  6 04:32:35 2026 GMT
        Subject: ST=KA, C=IN, CN=112_BHOPALCA_server/emailAddress=112_BHOPALCA@test_ca.com, O=CITRIX
        Subject Public Key Info:
            Public Key Algorithm: rsaEncryption
                Public-Key: (2048 bit)
                Modulus:
                    00:ef:6f:bf:d1:c7:a2:9c:ae:2a:d8:5b:eb:34:cc:
                    63:70:47:63:fd:d0:d9:20:25:76:1e:62:da:f4:4f:
                    41:0d:71:03:6b:ad:36:7a:e6:9d:8b:b2:3c:0b:d5:
                    fe:75:21:0b:12:7f:e0:a1:42:dc:26:ba:f6:2f:a7:
                    45:45:4a:4e:0f:2d:72:e4:78:6c:12:18:99:50:48:
                    bd:43:a1:9a:ef:c1:cf:c2:d2:14:0c:e0:28:5b:ae:
                    f6:0b:95:0b:e9:b1:50:27:49:b0:fe:86:c1:b0:3a:
                    45:d9:b1:d5:fc:97:ce:da:cf:1e:99:ec:aa:19:d0:
                    c0:dd:9a:e5:12:50:e8:c1:ee:1b:21:7f:cf:f5:44:
                    53:c6:00:8a:d0:c1:02:3e:f4:09:50:5b:d6:56:ee:
                    e8:d6:5b:f5:6c:b5:f0:4a:63:2a:e4:2b:97:45:be:
                    e6:2d:2a:f6:94:51:02:6d:5e:2d:c9:38:4f:e3:2a:
                    6d:66:74:6b:2e:4f:68:c3:fe:1b:8d:59:65:f5:38:
                    e2:74:fb:50:db:2e:69:d5:3c:a1:39:b3:aa:a6:70:
                    ef:a1:7f:ac:22:d7:e7:aa:37:fa:a4:e8:30:91:15:
                    a0:05:1c:7d:0e:68:14:80:7c:64:81:a8:f1:0a:a6:
                    9e:25:1f:71:65:76:6c:45:ec:df:72:e4:f6:8c:45:
                    7f:cb
                Exponent: 65537 (0x10001)
        X509v3 extensions:
            Netscape Cert Type: 
                SSL Server
            X509v3 Subject Key Identifier: 
                FA:B1:70:58:54:5B:E7:D0:AB:E7:4C:AE:00:B9:2E:EC:E7:F4:0E:76
            X509v3 Authority Key Identifier: 
                keyid:A6:66:0E:59:0F:3C:5C:11:35:B2:B3:99:59:A9:D3:A6:B1:5E:95:D2
                DirName:/CN=BHOPALCA_CA/C=IN/O=CITRIX/OU=ANG/ST=KA/emailAddress=BHOPALCA_CA@BHOPALCA_mail.com
                serial:BE:89:55:F3:65:28:17:9A

            Authority Information Access: 
                OCSP - URI:http://BHOPALCA_two.ocsptest.com/responderpath

    Signature Algorithm: sha256WithRSAEncryption
         54:4b:b6:e9:5e:f2:e4:c0:b7:50:62:4e:ba:bf:aa:9f:7c:9f:
         f1:46:07:98:22:dc:c4:64:f8:17:85:89:97:de:38:61:35:0d:
         6f:38:ce:e8:f5:fd:2f:8a:7f:56:56:bf:44:24:12:78:53:14:
         66:76:23:af:a0:d7:c2:f7:e9:77:03:2c:8f:04:91:0f:b7:a3:
         ab:73:80:8a:96:36:3c:de:55:b7:21:12:18:05:7a:d1:bf:38:
         bb:5a:29:da:23:11:0e:7b:b4:e7:8b:72:96:f9:60:4e:26:bf:
         c6:d1:3a:0d:b6:6d:b8:3d:02:1d:d7:0c:f6:d8:04:b4:0b:ed:
         fa:5a:26:09:93:73:0c:bf:0f:53:ca:17:1e:26:c4:53:08:15:
         e9:53:cb:cc:7e:95:58:0b:ae:a8:1c:f8:1c:11:ba:da:80:3a:
         34:65:e8:c0:75:3b:b9:c3:ad:5f:4a:c9:22:1d:1c:12:a3:89:
         04:75:6d:46:70:8c:bd:4f:c0:b5:f8:ac:34:dc:67:fa:16:8b:
         2e:bd:a2:6b:34:12:86:c7:be:56:d6:32:06:69:cc:74:22:bd:
         a9:4f:e0:a5:81:1f:d4:f6:bc:03:ce:ed:04:86:bb:79:86:fa:
         aa:a7:4d:b9:06:98:8a:7f:19:86:52:4f:8f:23:1e:2e:2f:cb:
         a3:95:a5:47
-----BEGIN CERTIFICATE-----
MIIEpjCCA46gAwIBAgIGCgsMDQ4aMA0GCSqGSIb3DQEBCwUAMH0xFDASBgNVBAMU
C0JIT1BBTENBX0NBMQswCQYDVQQGEwJJTjEPMA0GA1UEChMGQ0lUUklYMQwwCgYD
VQQLEwNBTkcxCzAJBgNVBAgTAktBMSwwKgYJKoZIhvcNAQkBFh1CSE9QQUxDQV9D
QUBCSE9QQUxDQV9tYWlsLmNvbTAeFw0xNjA3MDgwNDMyMzVaFw0yNjA3MDYwNDMy
MzVaMHIxCzAJBgNVBAgTAktBMQswCQYDVQQGEwJJTjEcMBoGA1UEAxQTMTEyX0JI
T1BBTENBX3NlcnZlcjEnMCUGCSqGSIb3DQEJARYYMTEyX0JIT1BBTENBQHRlc3Rf
Y2EuY29tMQ8wDQYDVQQKEwZDSVRSSVgwggEiMA0GCSqGSIb3DQEBAQUAA4IBDwAw
ggEKAoIBAQDvb7/Rx6KcrirYW+s0zGNwR2P90NkgJXYeYtr0T0ENcQNrrTZ65p2L
sjwL1f51IQsSf+ChQtwmuvYvp0VFSk4PLXLkeGwSGJlQSL1DoZrvwc/C0hQM4Chb
rvYLlQvpsVAnSbD+hsGwOkXZsdX8l87azx6Z7KoZ0MDdmuUSUOjB7hshf8/1RFPG
AIrQwQI+9AlQW9ZW7ujWW/VstfBKYyrkK5dFvuYtKvaUUQJtXi3JOE/jKm1mdGsu
T2jD/huNWWX1OOJ0+1DbLmnVPKE5s6qmcO+hf6wi1+eqN/qk6DCRFaAFHH0OaBSA
fGSBqPEKpp4lH3FldmxF7N9y5PaMRX/LAgMBAAGjggE1MIIBMTARBglghkgBhvhC
AQEEBAMCBkAwHQYDVR0OBBYEFPqxcFhUW+fQq+dMrgC5Luzn9A52MIGwBgNVHSME
gagwgaWAFKZmDlkPPFwRNbKzmVmp06axXpXSoYGBpH8wfTEUMBIGA1UEAxQLQkhP
UEFMQ0FfQ0ExCzAJBgNVBAYTAklOMQ8wDQYDVQQKEwZDSVRSSVgxDDAKBgNVBAsT
A0FORzELMAkGA1UECBMCS0ExLDAqBgkqhkiG9w0BCQEWHUJIT1BBTENBX0NBQEJI
T1BBTENBX21haWwuY29tggkAvolV82UoF5owSgYIKwYBBQUHAQEEPjA8MDoGCCsG
AQUFBzABhi5odHRwOi8vQkhPUEFMQ0FfdHdvLm9jc3B0ZXN0LmNvbS9yZXNwb25k
ZXJwYXRoMA0GCSqGSIb3DQEBCwUAA4IBAQBUS7bpXvLkwLdQYk66v6qffJ/xRgeY
ItzEZPgXhYmX3jhhNQ1vOM7o9f0vin9WVr9EJBJ4UxRmdiOvoNfC9+l3AyyPBJEP
t6Orc4CKljY83lW3IRIYBXrRvzi7WinaIxEOe7Tni3KW+WBOJr/G0ToNtm24PQId
1wz22AS0C+36WiYJk3MMvw9TyhceJsRTCBXpU8vMfpVYC66oHPgcEbragDo0ZejA
dTu5w61fSskiHRwSo4kEdW1GcIy9T8C1+Kw03Gf6FosuvaJrNBKGx75W1jIGacx0
Ir2pT+ClgR/U9rwDzu0Ehrt5hvqqp025BpiKfxmGUk+PIx4uL8ujlaVH
-----END CERTIFICATE-----
