Certificate:
    Data:
        Version: 3 (0x2)
        Serial Number: 11042563100210 (0xa0b0c0d0e32)
    Signature Algorithm: sha256WithRSAEncryption
        Issuer: CN=BHOPALCA_CA, C=IN, O=CITRIX, OU=ANG, ST=KA/emailAddress=BHOPALCA_CA@BHOPALCA_mail.com
        Validity
            Not Before: Jul  8 04:32:42 2016 GMT
            Not After : Jul  6 04:32:42 2026 GMT
        Subject: ST=KA, C=IN, CN=136_BHOPALCA_server/emailAddress=136_BHOPALCA@test_ca.com, O=CITRIX
        Subject Public Key Info:
            Public Key Algorithm: rsaEncryption
                Public-Key: (2048 bit)
                Modulus:
                    00:9b:36:af:0c:a7:d8:59:29:67:92:b1:38:20:0b:
                    bc:3a:bc:c2:52:fe:f1:44:1a:f2:19:df:b8:21:b3:
                    61:05:ae:96:79:ca:3f:09:b9:7f:65:10:f4:2b:7e:
                    57:09:7e:42:a3:f0:8a:3b:c2:03:c9:dc:f7:9a:61:
                    5c:3d:a9:78:a3:8a:67:a9:90:34:25:87:fa:ba:fe:
                    53:b9:e3:82:4a:89:b1:0c:73:5a:2e:3e:21:68:a4:
                    c9:93:93:6e:c3:cb:74:15:5e:b9:3d:3e:0c:60:62:
                    12:af:e9:7f:ee:9b:ee:0d:db:94:e4:a6:61:dc:41:
                    de:8e:8a:ad:77:a9:af:ea:f7:e8:6d:98:58:56:b4:
                    fa:07:5f:a5:bf:f2:54:15:f3:3b:61:78:02:74:f2:
                    b3:33:22:c1:98:15:13:b9:85:04:75:be:39:4f:fa:
                    fb:52:b0:41:ec:f7:56:38:7c:d3:d0:5a:44:45:5b:
                    88:ff:14:8c:03:07:4b:23:fc:9b:be:7b:be:f6:4c:
                    46:f9:2b:e6:b4:f7:15:f3:9c:5a:9d:e5:57:51:aa:
                    f4:5e:a8:c8:5b:1a:b1:6d:b3:d5:78:07:a8:f8:e2:
                    41:27:9d:ac:79:fc:c7:2e:f0:d0:2d:ca:68:7d:a0:
                    2e:49:b5:52:70:78:b9:73:68:6f:ef:e1:e1:07:ac:
                    d2:97
                Exponent: 65537 (0x10001)
        X509v3 extensions:
            Netscape Cert Type: 
                SSL Server
            X509v3 Subject Key Identifier: 
                3C:4A:FC:89:97:EC:F8:80:DB:5C:DE:71:BF:12:EC:B9:B7:8E:32:4B
            X509v3 Authority Key Identifier: 
                keyid:A6:66:0E:59:0F:3C:5C:11:35:B2:B3:99:59:A9:D3:A6:B1:5E:95:D2
                DirName:/CN=BHOPALCA_CA/C=IN/O=CITRIX/OU=ANG/ST=KA/emailAddress=BHOPALCA_CA@BHOPALCA_mail.com
                serial:BE:89:55:F3:65:28:17:9A

            Authority Information Access: 
                OCSP - URI:http://172.17.20.1/responderpath

    Signature Algorithm: sha256WithRSAEncryption
         9c:3f:31:e0:5b:18:c2:a7:c2:a0:40:b9:d0:86:ec:e5:7f:2f:
         f1:ea:d5:90:c3:ad:6e:ac:a9:c8:5a:2e:d6:33:ae:f3:71:0f:
         3c:24:99:2b:90:3d:29:7d:7a:02:e0:e5:7e:4f:18:bf:de:4b:
         e5:85:63:9f:21:09:d7:3d:bd:38:f3:3f:72:45:2f:bc:0f:c2:
         e7:e5:60:90:00:a2:0a:32:7d:3f:c4:c0:00:b9:88:03:81:ab:
         a9:eb:ea:87:c6:9f:db:80:02:7c:43:67:dd:3f:5d:81:78:5c:
         62:33:a3:7d:f8:e4:a0:b2:87:8e:b3:8b:58:d8:18:3b:96:15:
         43:d1:10:41:28:a6:75:65:dc:5d:3f:1c:5c:1c:d9:62:a0:c6:
         e4:2c:53:65:39:d1:68:8d:50:0d:48:88:c2:f5:95:02:bb:4b:
         42:8c:5a:e6:d9:62:74:75:76:1d:ed:73:46:56:88:24:d4:2e:
         50:13:02:bf:e0:3b:5a:70:31:1d:37:e9:d3:7d:75:4d:82:a1:
         3f:89:8e:5b:66:c7:61:80:bb:38:14:96:19:cc:91:bf:0d:a7:
         a0:0d:7a:56:29:d0:f5:60:82:b7:f8:1f:38:ef:4f:9e:53:27:
         6c:ea:7c:66:e9:60:20:ac:9c:e0:29:b9:ae:98:3b:30:51:80:
         eb:5f:cd:74
-----BEGIN CERTIFICATE-----
MIIEmDCCA4CgAwIBAgIGCgsMDQ4yMA0GCSqGSIb3DQEBCwUAMH0xFDASBgNVBAMU
C0JIT1BBTENBX0NBMQswCQYDVQQGEwJJTjEPMA0GA1UEChMGQ0lUUklYMQwwCgYD
VQQLEwNBTkcxCzAJBgNVBAgTAktBMSwwKgYJKoZIhvcNAQkBFh1CSE9QQUxDQV9D
QUBCSE9QQUxDQV9tYWlsLmNvbTAeFw0xNjA3MDgwNDMyNDJaFw0yNjA3MDYwNDMy
NDJaMHIxCzAJBgNVBAgTAktBMQswCQYDVQQGEwJJTjEcMBoGA1UEAxQTMTM2X0JI
T1BBTENBX3NlcnZlcjEnMCUGCSqGSIb3DQEJARYYMTM2X0JIT1BBTENBQHRlc3Rf
Y2EuY29tMQ8wDQYDVQQKEwZDSVRSSVgwggEiMA0GCSqGSIb3DQEBAQUAA4IBDwAw
ggEKAoIBAQCbNq8Mp9hZKWeSsTggC7w6vMJS/vFEGvIZ37ghs2EFrpZ5yj8JuX9l
EPQrflcJfkKj8Io7wgPJ3PeaYVw9qXijimepkDQlh/q6/lO544JKibEMc1ouPiFo
pMmTk27Dy3QVXrk9PgxgYhKv6X/um+4N25TkpmHcQd6Oiq13qa/q9+htmFhWtPoH
X6W/8lQV8ztheAJ08rMzIsGYFRO5hQR1vjlP+vtSsEHs91Y4fNPQWkRFW4j/FIwD
B0sj/Ju+e772TEb5K+a09xXznFqd5VdRqvReqMhbGrFts9V4B6j44kEnnax5/Mcu
8NAtymh9oC5JtVJweLlzaG/v4eEHrNKXAgMBAAGjggEnMIIBIzARBglghkgBhvhC
AQEEBAMCBkAwHQYDVR0OBBYEFDxK/ImX7PiA21zecb8S7Lm3jjJLMIGwBgNVHSME
gagwgaWAFKZmDlkPPFwRNbKzmVmp06axXpXSoYGBpH8wfTEUMBIGA1UEAxQLQkhP
UEFMQ0FfQ0ExCzAJBgNVBAYTAklOMQ8wDQYDVQQKEwZDSVRSSVgxDDAKBgNVBAsT
A0FORzELMAkGA1UECBMCS0ExLDAqBgkqhkiG9w0BCQEWHUJIT1BBTENBX0NBQEJI
T1BBTENBX21haWwuY29tggkAvolV82UoF5owPAYIKwYBBQUHAQEEMDAuMCwGCCsG
AQUFBzABhiBodHRwOi8vMTcyLjE3LjIwLjEvcmVzcG9uZGVycGF0aDANBgkqhkiG
9w0BAQsFAAOCAQEAnD8x4FsYwqfCoEC50Ibs5X8v8erVkMOtbqypyFou1jOu83EP
PCSZK5A9KX16AuDlfk8Yv95L5YVjnyEJ1z29OPM/ckUvvA/C5+VgkACiCjJ9P8TA
ALmIA4Grqevqh8af24ACfENn3T9dgXhcYjOjffjkoLKHjrOLWNgYO5YVQ9EQQSim
dWXcXT8cXBzZYqDG5CxTZTnRaI1QDUiIwvWVArtLQoxa5tlidHV2He1zRlaIJNQu
UBMCv+A7WnAxHTfp0311TYKhP4mOW2bHYYC7OBSWGcyRvw2noA16VinQ9WCCt/gf
OO9PnlMnbOp8ZulgIKyc4Cm5rpg7MFGA61/NdA==
-----END CERTIFICATE-----
