Certificate:
    Data:
        Version: 3 (0x2)
        Serial Number: 11042563100280 (0xa0b0c0d0e78)
    Signature Algorithm: sha256WithRSAEncryption
        Issuer: CN=BHOPALCA_CA, C=IN, O=CITRIX, OU=ANG, ST=KA/emailAddress=BHOPALCA_CA@BHOPALCA_mail.com
        Validity
            Not Before: Aug 23 10:01:23 2017 GMT
            Not After : Aug 21 10:01:23 2027 GMT
        Subject: ST=KA, C=IN, CN=bhopal_17_client/emailAddress=bhopal_17@test_ca.com, O=CITRIX
        Subject Public Key Info:
            Public Key Algorithm: rsaEncryption
                Public-Key: (2048 bit)
                Modulus:
                    00:c5:3b:76:86:a8:7e:cc:cf:09:d6:c3:08:e8:f4:
                    e6:c6:e8:5a:ae:16:ef:82:f6:43:8c:11:68:db:a9:
                    b9:8a:1b:34:a9:3e:88:d9:a7:3c:0f:e6:ee:d6:90:
                    92:4f:16:73:44:e1:e5:5a:eb:c6:1b:2c:d7:ba:9a:
                    f1:7d:60:dd:bc:57:90:19:86:4d:45:e4:72:1f:b8:
                    b8:80:d8:c2:2d:13:29:fd:20:1a:43:09:38:99:b5:
                    25:a9:83:57:73:07:1e:b7:c6:20:7a:42:33:26:bf:
                    95:7c:37:ed:2c:77:3a:c2:3a:97:e5:a4:67:7d:9c:
                    1b:08:93:61:31:4c:6d:19:4a:1e:63:3b:1b:b8:96:
                    f0:b7:57:3d:dc:3a:6c:3a:d8:60:40:71:96:e3:db:
                    e4:c6:db:02:f7:d5:ff:bc:c5:7a:78:e5:fa:fc:bd:
                    b9:16:88:c5:74:c2:44:22:4b:f1:15:e9:f9:73:89:
                    f4:30:99:97:04:5e:f5:f8:88:43:10:26:92:f2:be:
                    c2:8a:99:bd:c4:7f:59:fd:35:29:42:74:a0:c7:d2:
                    0c:18:53:f6:d8:bd:5c:bb:4e:ed:95:9d:9b:29:db:
                    64:15:4b:5d:2c:21:bc:f5:11:f7:e5:90:2b:53:fd:
                    68:dc:a9:d4:60:b1:14:83:25:1b:62:3b:27:e9:74:
                    0e:fb
                Exponent: 65537 (0x10001)
        X509v3 extensions:
            Netscape Cert Type: 
                SSL Client
            X509v3 Subject Key Identifier: 
                DC:48:9F:BF:80:F4:FD:71:45:01:CE:B0:C7:DB:60:EE:03:3E:D1:05
            X509v3 Authority Key Identifier: 
                keyid:A6:66:0E:59:0F:3C:5C:11:35:B2:B3:99:59:A9:D3:A6:B1:5E:95:D2
                DirName:/CN=BHOPALCA_CA/C=IN/O=CITRIX/OU=ANG/ST=KA/emailAddress=BHOPALCA_CA@BHOPALCA_mail.com
                serial:BE:89:55:F3:65:28:17:9A

            Authority Information Access: 
                OCSP - URI:http://172.17.20.1/responderpath

    Signature Algorithm: sha256WithRSAEncryption
         2d:db:b9:a8:d0:2e:33:e4:06:c5:23:7d:b1:ee:af:96:40:6e:
         4c:e5:03:fa:18:7d:ed:47:09:07:bb:7a:86:97:65:af:3c:89:
         2f:be:b9:91:0f:3e:8b:ca:d5:cf:ae:56:47:b7:53:23:7e:87:
         55:b6:ce:9b:92:9a:da:4b:96:a3:59:41:e9:c6:8a:a5:11:cc:
         f6:6f:c8:83:1c:3d:56:f4:65:6c:b2:76:4f:ed:8b:94:64:a7:
         92:57:f0:94:ae:c3:ed:b6:46:4c:d0:b8:66:fd:de:33:61:b8:
         0e:20:6c:74:1e:7d:65:fe:d1:eb:ce:88:ea:f8:c9:e4:e9:6c:
         53:10:0e:3b:fc:44:2a:4c:5e:f3:95:a1:1f:14:d0:20:6c:d6:
         97:b5:c8:84:18:18:c7:99:fa:b0:37:28:1d:60:63:44:ab:df:
         a9:dc:ac:e4:7c:97:19:04:4b:53:c2:b9:71:18:c8:41:2a:23:
         14:94:36:97:e0:06:35:33:f5:1c:b3:04:ed:ca:3f:ef:c9:0d:
         84:c2:26:8f:b2:e9:30:c6:0d:d7:00:97:fd:6a:92:3b:25:1e:
         aa:e9:4d:ad:b1:a3:99:aa:cc:ca:03:1e:19:cc:b8:18:6d:6b:
         a0:ab:96:49:bf:b6:63:33:83:d7:58:ee:b1:9f:7e:d6:99:35:
         a6:a9:f5:bd
-----BEGIN CERTIFICATE-----
MIIEkjCCA3qgAwIBAgIGCgsMDQ54MA0GCSqGSIb3DQEBCwUAMH0xFDASBgNVBAMU
C0JIT1BBTENBX0NBMQswCQYDVQQGEwJJTjEPMA0GA1UEChMGQ0lUUklYMQwwCgYD
VQQLEwNBTkcxCzAJBgNVBAgTAktBMSwwKgYJKoZIhvcNAQkBFh1CSE9QQUxDQV9D
QUBCSE9QQUxDQV9tYWlsLmNvbTAeFw0xNzA4MjMxMDAxMjNaFw0yNzA4MjExMDAx
MjNaMGwxCzAJBgNVBAgTAktBMQswCQYDVQQGEwJJTjEZMBcGA1UEAxQQYmhvcGFs
XzE3X2NsaWVudDEkMCIGCSqGSIb3DQEJARYVYmhvcGFsXzE3QHRlc3RfY2EuY29t
MQ8wDQYDVQQKEwZDSVRSSVgwggEiMA0GCSqGSIb3DQEBAQUAA4IBDwAwggEKAoIB
AQDFO3aGqH7MzwnWwwjo9ObG6FquFu+C9kOMEWjbqbmKGzSpPojZpzwP5u7WkJJP
FnNE4eVa68YbLNe6mvF9YN28V5AZhk1F5HIfuLiA2MItEyn9IBpDCTiZtSWpg1dz
Bx63xiB6QjMmv5V8N+0sdzrCOpflpGd9nBsIk2ExTG0ZSh5jOxu4lvC3Vz3cOmw6
2GBAcZbj2+TG2wL31f+8xXp45fr8vbkWiMV0wkQiS/EV6flzifQwmZcEXvX4iEMQ
JpLyvsKKmb3Ef1n9NSlCdKDH0gwYU/bYvVy7Tu2VnZsp22QVS10sIbz1EfflkCtT
/WjcqdRgsRSDJRtiOyfpdA77AgMBAAGjggEnMIIBIzARBglghkgBhvhCAQEEBAMC
B4AwHQYDVR0OBBYEFNxIn7+A9P1xRQHOsMfbYO4DPtEFMIGwBgNVHSMEgagwgaWA
FKZmDlkPPFwRNbKzmVmp06axXpXSoYGBpH8wfTEUMBIGA1UEAxQLQkhPUEFMQ0Ff
Q0ExCzAJBgNVBAYTAklOMQ8wDQYDVQQKEwZDSVRSSVgxDDAKBgNVBAsTA0FORzEL
MAkGA1UECBMCS0ExLDAqBgkqhkiG9w0BCQEWHUJIT1BBTENBX0NBQEJIT1BBTENB
X21haWwuY29tggkAvolV82UoF5owPAYIKwYBBQUHAQEEMDAuMCwGCCsGAQUFBzAB
hiBodHRwOi8vMTcyLjE3LjIwLjEvcmVzcG9uZGVycGF0aDANBgkqhkiG9w0BAQsF
AAOCAQEALdu5qNAuM+QGxSN9se6vlkBuTOUD+hh97UcJB7t6hpdlrzyJL765kQ8+
i8rVz65WR7dTI36HVbbOm5Ka2kuWo1lB6caKpRHM9m/Igxw9VvRlbLJ2T+2LlGSn
klfwlK7D7bZGTNC4Zv3eM2G4DiBsdB59Zf7R686I6vjJ5OlsUxAOO/xEKkxe85Wh
HxTQIGzWl7XIhBgYx5n6sDcoHWBjRKvfqdys5HyXGQRLU8K5cRjIQSojFJQ2l+AG
NTP1HLME7co/78kNhMImj7LpMMYN1wCX/WqSOyUequlNrbGjmarMygMeGcy4GG1r
oKuWSb+2YzOD11jusZ9+1pk1pqn1vQ==
-----END CERTIFICATE-----
