Certificate:
    Data:
        Version: 3 (0x2)
        Serial Number: 11042563100268 (0xa0b0c0d0e6c)
    Signature Algorithm: sha256WithRSAEncryption
        Issuer: CN=BHOPALCA_CA, C=IN, O=CITRIX, OU=ANG, ST=KA/emailAddress=BHOPALCA_CA@BHOPALCA_mail.com
        Validity
            Not Before: Aug 23 10:01:16 2017 GMT
            Not After : Aug 21 10:01:16 2027 GMT
        Subject: ST=KA, C=IN, CN=bhopal_5_client/emailAddress=bhopal_5@test_ca.com, O=CITRIX
        Subject Public Key Info:
            Public Key Algorithm: rsaEncryption
                Public-Key: (2048 bit)
                Modulus:
                    00:cd:71:c6:22:ae:d0:46:8f:3c:e1:82:83:f5:4e:
                    84:ce:8d:d1:04:c5:e6:e3:52:50:a8:0a:03:12:a0:
                    04:a8:2c:17:2b:d2:1f:39:60:42:f4:15:b7:91:0b:
                    19:5c:ce:06:cd:b9:9e:b9:7c:32:50:44:fe:64:e7:
                    5e:03:ea:c5:62:dd:51:d3:f1:9c:92:31:36:e2:28:
                    57:bb:42:52:53:92:62:dd:8f:0f:9a:a8:25:a0:12:
                    6c:bd:16:b2:4b:12:87:87:f6:db:08:4a:13:4b:3f:
                    13:e5:71:6c:d6:55:ea:ad:b8:2b:ae:8e:6b:f4:76:
                    ce:26:7c:81:c6:d9:a0:45:7f:36:52:47:20:47:6c:
                    3e:f0:16:dd:94:2b:0c:f3:f8:d3:10:18:95:be:eb:
                    cf:41:34:fe:3f:65:87:2e:9f:63:99:26:a3:76:fa:
                    9f:3d:82:4d:28:8d:28:b0:49:8a:1c:99:e5:ea:2b:
                    ac:64:df:4b:cb:9c:6f:8a:79:38:5c:5e:15:f6:79:
                    77:ff:cc:7d:f5:c9:c5:02:58:94:8f:ec:1e:56:b6:
                    85:a5:2b:1e:8d:56:4a:a9:6c:36:da:b9:d5:0f:15:
                    83:d2:da:ef:c8:d9:9f:89:fb:5d:ec:56:eb:0c:4c:
                    53:7c:87:0a:7b:65:c2:99:28:99:ac:54:eb:4d:e7:
                    6d:87
                Exponent: 65537 (0x10001)
        X509v3 extensions:
            Netscape Cert Type: 
                SSL Client
            X509v3 Subject Key Identifier: 
                1D:C5:36:74:3C:2B:BF:F6:A4:6F:FB:0F:D9:5D:44:FF:09:37:DF:EB
            X509v3 Authority Key Identifier: 
                keyid:A6:66:0E:59:0F:3C:5C:11:35:B2:B3:99:59:A9:D3:A6:B1:5E:95:D2
                DirName:/CN=BHOPALCA_CA/C=IN/O=CITRIX/OU=ANG/ST=KA/emailAddress=BHOPALCA_CA@BHOPALCA_mail.com
                serial:BE:89:55:F3:65:28:17:9A

            Authority Information Access: 
                OCSP - URI:http://172.17.20.1/responderpath

    Signature Algorithm: sha256WithRSAEncryption
         53:b7:2d:b3:a3:6f:b5:e4:12:7a:2c:01:b7:26:b8:a9:b6:fc:
         0b:ec:f7:3d:66:9a:50:53:5e:a2:9a:95:1d:86:94:3e:51:b7:
         67:ff:d6:06:d6:9e:db:f0:2e:b2:9d:a7:47:44:6d:d9:5b:37:
         ae:b3:07:68:80:56:f1:65:31:1d:a6:d5:71:9c:ca:2d:44:90:
         e2:5d:62:35:cf:99:3f:35:11:c3:70:d9:e4:b5:31:ff:4c:fc:
         26:34:05:84:79:34:4a:bf:be:ed:6d:10:07:f1:cf:2a:c5:57:
         71:56:66:0e:b9:fa:15:fa:d5:93:62:c7:19:8b:f1:c8:b0:c6:
         48:f9:09:53:86:a4:4d:6b:9e:a6:9a:64:5f:cf:c6:49:b5:4e:
         e0:a9:03:d7:8d:3b:28:6a:50:48:37:50:6b:65:3b:45:33:15:
         c1:5e:27:ee:b2:1a:ce:34:51:ae:7f:b3:bd:88:13:7e:e8:2e:
         7f:a7:22:ef:bf:78:7e:6a:6b:17:00:a0:2c:21:02:c7:4e:c6:
         9b:7b:91:b4:d5:eb:74:ff:b9:f3:39:08:31:5a:cd:cb:69:af:
         12:5f:cf:a9:83:62:1a:0b:a0:09:bf:8e:57:34:b4:19:62:e2:
         39:af:bb:e9:a1:88:42:83:d6:66:42:0b:a8:09:7b:41:59:d2:
         66:27:e9:ab
-----BEGIN CERTIFICATE-----
MIIEkDCCA3igAwIBAgIGCgsMDQ5sMA0GCSqGSIb3DQEBCwUAMH0xFDASBgNVBAMU
C0JIT1BBTENBX0NBMQswCQYDVQQGEwJJTjEPMA0GA1UEChMGQ0lUUklYMQwwCgYD
VQQLEwNBTkcxCzAJBgNVBAgTAktBMSwwKgYJKoZIhvcNAQkBFh1CSE9QQUxDQV9D
QUBCSE9QQUxDQV9tYWlsLmNvbTAeFw0xNzA4MjMxMDAxMTZaFw0yNzA4MjExMDAx
MTZaMGoxCzAJBgNVBAgTAktBMQswCQYDVQQGEwJJTjEYMBYGA1UEAxQPYmhvcGFs
XzVfY2xpZW50MSMwIQYJKoZIhvcNAQkBFhRiaG9wYWxfNUB0ZXN0X2NhLmNvbTEP
MA0GA1UEChMGQ0lUUklYMIIBIjANBgkqhkiG9w0BAQEFAAOCAQ8AMIIBCgKCAQEA
zXHGIq7QRo884YKD9U6Ezo3RBMXm41JQqAoDEqAEqCwXK9IfOWBC9BW3kQsZXM4G
zbmeuXwyUET+ZOdeA+rFYt1R0/GckjE24ihXu0JSU5Ji3Y8PmqgloBJsvRaySxKH
h/bbCEoTSz8T5XFs1lXqrbgrro5r9HbOJnyBxtmgRX82UkcgR2w+8BbdlCsM8/jT
EBiVvuvPQTT+P2WHLp9jmSajdvqfPYJNKI0osEmKHJnl6iusZN9Ly5xvink4XF4V
9nl3/8x99cnFAliUj+weVraFpSsejVZKqWw22rnVDxWD0trvyNmfiftd7FbrDExT
fIcKe2XCmSiZrFTrTedthwIDAQABo4IBJzCCASMwEQYJYIZIAYb4QgEBBAQDAgeA
MB0GA1UdDgQWBBQdxTZ0PCu/9qRv+w/ZXUT/CTff6zCBsAYDVR0jBIGoMIGlgBSm
Zg5ZDzxcETWys5lZqdOmsV6V0qGBgaR/MH0xFDASBgNVBAMUC0JIT1BBTENBX0NB
MQswCQYDVQQGEwJJTjEPMA0GA1UEChMGQ0lUUklYMQwwCgYDVQQLEwNBTkcxCzAJ
BgNVBAgTAktBMSwwKgYJKoZIhvcNAQkBFh1CSE9QQUxDQV9DQUBCSE9QQUxDQV9t
YWlsLmNvbYIJAL6JVfNlKBeaMDwGCCsGAQUFBwEBBDAwLjAsBggrBgEFBQcwAYYg
aHR0cDovLzE3Mi4xNy4yMC4xL3Jlc3BvbmRlcnBhdGgwDQYJKoZIhvcNAQELBQAD
ggEBAFO3LbOjb7XkEnosAbcmuKm2/Avs9z1mmlBTXqKalR2GlD5Rt2f/1gbWntvw
LrKdp0dEbdlbN66zB2iAVvFlMR2m1XGcyi1EkOJdYjXPmT81EcNw2eS1Mf9M/CY0
BYR5NEq/vu1tEAfxzyrFV3FWZg65+hX61ZNixxmL8ciwxkj5CVOGpE1rnqaaZF/P
xkm1TuCpA9eNOyhqUEg3UGtlO0UzFcFeJ+6yGs40Ua5/s72IE37oLn+nIu+/eH5q
axcAoCwhAsdOxpt7kbTV63T/ufM5CDFazctprxJfz6mDYhoLoAm/jlc0tBli4jmv
u+mhiEKD1mZCC6gJe0FZ0mYn6as=
-----END CERTIFICATE-----
