Certificate:
    Data:
        Version: 3 (0x2)
        Serial Number: 11042563100198 (0xa0b0c0d0e26)
    Signature Algorithm: sha256WithRSAEncryption
        Issuer: CN=BHOPALCA_CA, C=IN, O=CITRIX, OU=ANG, ST=KA/emailAddress=BHOPALCA_CA@BHOPALCA_mail.com
        Validity
            Not Before: Jul  8 04:32:38 2016 GMT
            Not After : Jul  6 04:32:38 2026 GMT
        Subject: ST=KA, C=IN, CN=124_BHOPALCA_server/emailAddress=124_BHOPALCA@test_ca.com, O=CITRIX
        Subject Public Key Info:
            Public Key Algorithm: rsaEncryption
                Public-Key: (2048 bit)
                Modulus:
                    00:c2:7b:c0:ee:12:ca:6e:bc:91:46:b2:fc:4a:7a:
                    42:14:d1:8b:0f:dc:51:e3:c0:9b:2b:09:34:86:a8:
                    ba:8b:49:86:2a:3a:f4:4e:8d:7d:99:3c:b2:d8:35:
                    29:98:df:3a:5c:00:7b:dd:7b:cb:3d:ba:29:b7:94:
                    95:91:05:59:b6:c7:19:95:9f:55:b8:24:07:71:e3:
                    0f:e9:2e:50:66:4d:53:e4:ca:66:32:4a:3c:d3:0e:
                    9a:38:71:5f:4d:ce:6d:b4:86:d4:53:27:0d:04:85:
                    60:99:61:d2:e4:18:03:0f:b7:0d:3d:10:7a:88:55:
                    21:70:a2:6d:7f:26:e0:a6:10:c1:a8:ac:1a:c4:e6:
                    3a:0f:d8:9b:7a:68:2b:c5:5c:e5:be:fe:86:56:af:
                    5d:62:a0:4d:d5:41:37:62:21:65:9c:9a:8b:ad:6b:
                    5b:c7:61:e9:7e:2c:33:c3:93:36:c6:3b:4f:35:f0:
                    27:93:ce:a4:7f:b6:58:3f:46:36:29:f9:ca:4f:00:
                    bc:58:fe:36:eb:c3:08:ed:81:f1:95:22:73:d5:49:
                    c5:58:60:89:b3:af:98:bd:fb:4a:d8:64:fd:21:d4:
                    7e:c9:fe:3f:67:6c:a7:c9:ec:5e:f8:5a:87:7e:27:
                    1c:9d:cc:4a:cd:aa:01:c8:1f:b5:bb:10:2a:45:66:
                    e3:71
                Exponent: 65537 (0x10001)
        X509v3 extensions:
            Netscape Cert Type: 
                SSL Server
            X509v3 Subject Key Identifier: 
                42:B6:10:91:D1:59:5E:59:0F:56:84:27:F6:25:13:31:7B:D9:25:3E
            X509v3 Authority Key Identifier: 
                keyid:A6:66:0E:59:0F:3C:5C:11:35:B2:B3:99:59:A9:D3:A6:B1:5E:95:D2
                DirName:/CN=BHOPALCA_CA/C=IN/O=CITRIX/OU=ANG/ST=KA/emailAddress=BHOPALCA_CA@BHOPALCA_mail.com
                serial:BE:89:55:F3:65:28:17:9A

            Authority Information Access: 
                OCSP - URI:http://172.17.10.1/responderpath

    Signature Algorithm: sha256WithRSAEncryption
         61:bf:2d:9f:49:28:02:0e:a9:6f:f5:26:59:b0:50:54:8d:66:
         77:04:7d:8d:14:03:80:2a:81:ac:2b:0d:54:71:c8:75:45:7c:
         fa:ec:06:dc:76:e2:b2:1d:49:9e:fd:8b:bc:32:fa:05:51:41:
         10:16:33:cf:88:ba:bc:78:d2:99:46:4c:d7:6b:a8:f2:1e:53:
         90:30:44:64:0c:66:73:6a:3f:16:d2:56:a4:bf:37:da:8a:05:
         25:32:38:5b:a3:11:e9:75:cf:d3:03:ac:3a:6f:ed:fd:5d:d1:
         c0:a6:32:ca:a6:8d:b6:c8:c7:6a:ee:de:13:5b:be:30:ff:b6:
         fa:1f:a1:8e:bd:dd:73:d7:db:40:da:77:3e:61:21:4e:a6:e8:
         91:62:7b:34:11:a1:f4:be:35:1a:6a:51:b5:99:a9:72:ce:f0:
         96:54:ad:b9:bd:5a:a9:4f:50:e9:28:c8:6f:44:bb:51:42:de:
         54:f4:82:79:c8:0c:fd:fe:b2:23:b2:c8:7e:b5:b9:c7:f9:c0:
         ea:ce:47:7b:23:d7:ce:9e:94:25:91:d6:d3:4a:e9:d4:4e:9e:
         7c:20:89:9b:d1:17:f4:e1:17:84:71:fd:5c:95:c3:00:18:b3:
         98:31:b9:31:ce:f1:2c:54:d6:33:1d:f7:9a:4d:ad:e9:95:e4:
         2e:27:8b:49
-----BEGIN CERTIFICATE-----
MIIEmDCCA4CgAwIBAgIGCgsMDQ4mMA0GCSqGSIb3DQEBCwUAMH0xFDASBgNVBAMU
C0JIT1BBTENBX0NBMQswCQYDVQQGEwJJTjEPMA0GA1UEChMGQ0lUUklYMQwwCgYD
VQQLEwNBTkcxCzAJBgNVBAgTAktBMSwwKgYJKoZIhvcNAQkBFh1CSE9QQUxDQV9D
QUBCSE9QQUxDQV9tYWlsLmNvbTAeFw0xNjA3MDgwNDMyMzhaFw0yNjA3MDYwNDMy
MzhaMHIxCzAJBgNVBAgTAktBMQswCQYDVQQGEwJJTjEcMBoGA1UEAxQTMTI0X0JI
T1BBTENBX3NlcnZlcjEnMCUGCSqGSIb3DQEJARYYMTI0X0JIT1BBTENBQHRlc3Rf
Y2EuY29tMQ8wDQYDVQQKEwZDSVRSSVgwggEiMA0GCSqGSIb3DQEBAQUAA4IBDwAw
ggEKAoIBAQDCe8DuEspuvJFGsvxKekIU0YsP3FHjwJsrCTSGqLqLSYYqOvROjX2Z
PLLYNSmY3zpcAHvde8s9uim3lJWRBVm2xxmVn1W4JAdx4w/pLlBmTVPkymYySjzT
Dpo4cV9Nzm20htRTJw0EhWCZYdLkGAMPtw09EHqIVSFwom1/JuCmEMGorBrE5joP
2Jt6aCvFXOW+/oZWr11ioE3VQTdiIWWcmouta1vHYel+LDPDkzbGO0818CeTzqR/
tlg/RjYp+cpPALxY/jbrwwjtgfGVInPVScVYYImzr5i9+0rYZP0h1H7J/j9nbKfJ
7F74Wod+JxydzErNqgHIH7W7ECpFZuNxAgMBAAGjggEnMIIBIzARBglghkgBhvhC
AQEEBAMCBkAwHQYDVR0OBBYEFEK2EJHRWV5ZD1aEJ/YlEzF72SU+MIGwBgNVHSME
gagwgaWAFKZmDlkPPFwRNbKzmVmp06axXpXSoYGBpH8wfTEUMBIGA1UEAxQLQkhP
UEFMQ0FfQ0ExCzAJBgNVBAYTAklOMQ8wDQYDVQQKEwZDSVRSSVgxDDAKBgNVBAsT
A0FORzELMAkGA1UECBMCS0ExLDAqBgkqhkiG9w0BCQEWHUJIT1BBTENBX0NBQEJI
T1BBTENBX21haWwuY29tggkAvolV82UoF5owPAYIKwYBBQUHAQEEMDAuMCwGCCsG
AQUFBzABhiBodHRwOi8vMTcyLjE3LjEwLjEvcmVzcG9uZGVycGF0aDANBgkqhkiG
9w0BAQsFAAOCAQEAYb8tn0koAg6pb/UmWbBQVI1mdwR9jRQDgCqBrCsNVHHIdUV8
+uwG3Hbish1Jnv2LvDL6BVFBEBYzz4i6vHjSmUZM12uo8h5TkDBEZAxmc2o/FtJW
pL832ooFJTI4W6MR6XXP0wOsOm/t/V3RwKYyyqaNtsjHau7eE1u+MP+2+h+hjr3d
c9fbQNp3PmEhTqbokWJ7NBGh9L41GmpRtZmpcs7wllStub1aqU9Q6SjIb0S7UULe
VPSCecgM/f6yI7LIfrW5x/nA6s5HeyPXzp6UJZHW00rp1E6efCCJm9EX9OEXhHH9
XJXDABizmDG5Mc7xLFTWMx33mk2t6ZXkLieLSQ==
-----END CERTIFICATE-----
