Certificate:
    Data:
        Version: 3 (0x2)
        Serial Number: 11042563100202 (0xa0b0c0d0e2a)
    Signature Algorithm: sha256WithRSAEncryption
        Issuer: CN=BHOPALCA_CA, C=IN, O=CITRIX, OU=ANG, ST=KA/emailAddress=BHOPALCA_CA@BHOPALCA_mail.com
        Validity
            Not Before: Jul  8 04:32:39 2016 GMT
            Not After : Jul  6 04:32:39 2026 GMT
        Subject: ST=KA, C=IN, CN=128_BHOPALCA_server/emailAddress=128_BHOPALCA@test_ca.com, O=CITRIX
        Subject Public Key Info:
            Public Key Algorithm: rsaEncryption
                Public-Key: (2048 bit)
                Modulus:
                    00:d2:7e:52:c3:51:63:ca:ca:bb:8a:8d:8a:71:d5:
                    ae:cf:a3:05:50:07:65:a2:bc:d7:4d:19:18:31:4a:
                    e5:80:e8:ee:1f:a1:7b:9d:4f:76:cf:93:56:03:39:
                    25:c5:ef:7b:13:04:ce:5b:98:a3:b9:21:ce:d1:07:
                    e7:31:2b:36:4a:bb:be:61:e4:53:35:6a:19:5f:11:
                    80:f6:56:0c:a0:80:47:bf:ad:db:d4:8d:38:c5:35:
                    f0:67:2c:0f:3d:42:6e:73:12:e9:8a:fa:d2:e8:b8:
                    4a:e0:a9:2e:5c:5a:58:4f:4e:96:38:f6:68:2a:24:
                    0f:c7:50:4d:3d:db:23:a2:93:0e:2e:88:81:b1:fd:
                    d0:c6:42:dc:73:93:fb:b3:d3:8b:ec:59:76:8f:25:
                    53:4f:e5:9f:ba:ef:96:c4:04:4d:49:de:ff:59:c2:
                    1e:32:a8:f4:6c:3a:ec:08:70:a5:7d:09:c3:36:79:
                    da:03:45:1a:0a:d8:fc:b7:aa:31:d5:99:1e:f2:fa:
                    b4:ba:d4:68:86:18:0a:c8:1c:ff:83:7d:2c:45:6a:
                    e1:ed:07:93:ac:8f:76:e3:01:9d:79:3f:24:47:b1:
                    c2:7e:56:99:8b:6b:9f:f8:66:1f:4c:42:9b:38:4c:
                    74:38:5c:df:4c:0c:e4:a9:b8:63:ce:2a:d1:a1:77:
                    24:43
                Exponent: 65537 (0x10001)
        X509v3 extensions:
            Netscape Cert Type: 
                SSL Server
            X509v3 Subject Key Identifier: 
                60:B7:2D:D3:70:59:A9:CC:45:DB:EE:DF:D5:ED:9E:02:7C:FD:57:13
            X509v3 Authority Key Identifier: 
                keyid:A6:66:0E:59:0F:3C:5C:11:35:B2:B3:99:59:A9:D3:A6:B1:5E:95:D2
                DirName:/CN=BHOPALCA_CA/C=IN/O=CITRIX/OU=ANG/ST=KA/emailAddress=BHOPALCA_CA@BHOPALCA_mail.com
                serial:BE:89:55:F3:65:28:17:9A

            Authority Information Access: 
                OCSP - URI:http://172.17.10.1/responderpath

    Signature Algorithm: sha256WithRSAEncryption
         82:c7:97:8f:1b:a8:25:44:e8:a9:3f:89:b4:58:cf:cf:a3:28:
         79:00:a4:a6:2c:5a:d9:6d:38:e7:4f:02:e5:7e:09:ca:76:f3:
         ce:13:97:0a:0a:40:93:0c:58:02:22:9c:e7:9b:68:3a:cf:d3:
         21:8c:e7:fc:b7:dd:1d:4b:85:7d:8d:c2:f0:4b:87:4b:67:6d:
         e7:02:b1:52:fa:12:b4:1c:ab:81:c6:b1:e1:84:ab:87:b2:3b:
         ab:26:b5:c4:31:a1:c1:f9:dc:d8:cb:85:49:de:e6:01:b1:c5:
         99:d7:ad:59:b9:21:1f:b7:db:87:2e:f4:5f:6f:9a:79:a2:e4:
         62:e3:4f:6b:ce:bc:72:ca:d9:6f:03:d3:59:91:3a:ff:54:db:
         c6:8a:c6:f3:8d:41:25:a3:e6:b2:b4:e6:0a:8d:ee:65:1e:df:
         05:b3:80:39:8c:69:c7:65:dc:9d:78:e1:b3:3d:fc:6f:ce:ac:
         cd:ca:5e:e2:82:b4:be:b4:86:84:ba:32:0f:10:b6:bc:38:3c:
         b1:7c:4c:cc:92:1f:a3:49:e8:b0:98:ac:3a:df:85:53:9c:79:
         aa:9b:0d:d3:86:13:6f:60:02:77:3b:19:b7:a1:4f:3d:c8:f2:
         5d:61:12:5a:5b:87:28:af:a9:83:f7:41:f8:74:d2:19:d4:97:
         8d:b9:b3:f1
-----BEGIN CERTIFICATE-----
MIIEmDCCA4CgAwIBAgIGCgsMDQ4qMA0GCSqGSIb3DQEBCwUAMH0xFDASBgNVBAMU
C0JIT1BBTENBX0NBMQswCQYDVQQGEwJJTjEPMA0GA1UEChMGQ0lUUklYMQwwCgYD
VQQLEwNBTkcxCzAJBgNVBAgTAktBMSwwKgYJKoZIhvcNAQkBFh1CSE9QQUxDQV9D
QUBCSE9QQUxDQV9tYWlsLmNvbTAeFw0xNjA3MDgwNDMyMzlaFw0yNjA3MDYwNDMy
MzlaMHIxCzAJBgNVBAgTAktBMQswCQYDVQQGEwJJTjEcMBoGA1UEAxQTMTI4X0JI
T1BBTENBX3NlcnZlcjEnMCUGCSqGSIb3DQEJARYYMTI4X0JIT1BBTENBQHRlc3Rf
Y2EuY29tMQ8wDQYDVQQKEwZDSVRSSVgwggEiMA0GCSqGSIb3DQEBAQUAA4IBDwAw
ggEKAoIBAQDSflLDUWPKyruKjYpx1a7PowVQB2WivNdNGRgxSuWA6O4foXudT3bP
k1YDOSXF73sTBM5bmKO5Ic7RB+cxKzZKu75h5FM1ahlfEYD2VgyggEe/rdvUjTjF
NfBnLA89Qm5zEumK+tLouErgqS5cWlhPTpY49mgqJA/HUE092yOikw4uiIGx/dDG
Qtxzk/uz04vsWXaPJVNP5Z+675bEBE1J3v9Zwh4yqPRsOuwIcKV9CcM2edoDRRoK
2Py3qjHVmR7y+rS61GiGGArIHP+DfSxFauHtB5Osj3bjAZ15PyRHscJ+VpmLa5/4
Zh9MQps4THQ4XN9MDOSpuGPOKtGhdyRDAgMBAAGjggEnMIIBIzARBglghkgBhvhC
AQEEBAMCBkAwHQYDVR0OBBYEFGC3LdNwWanMRdvu39XtngJ8/VcTMIGwBgNVHSME
gagwgaWAFKZmDlkPPFwRNbKzmVmp06axXpXSoYGBpH8wfTEUMBIGA1UEAxQLQkhP
UEFMQ0FfQ0ExCzAJBgNVBAYTAklOMQ8wDQYDVQQKEwZDSVRSSVgxDDAKBgNVBAsT
A0FORzELMAkGA1UECBMCS0ExLDAqBgkqhkiG9w0BCQEWHUJIT1BBTENBX0NBQEJI
T1BBTENBX21haWwuY29tggkAvolV82UoF5owPAYIKwYBBQUHAQEEMDAuMCwGCCsG
AQUFBzABhiBodHRwOi8vMTcyLjE3LjEwLjEvcmVzcG9uZGVycGF0aDANBgkqhkiG
9w0BAQsFAAOCAQEAgseXjxuoJUToqT+JtFjPz6MoeQCkpixa2W04508C5X4Jynbz
zhOXCgpAkwxYAiKc55toOs/TIYzn/LfdHUuFfY3C8EuHS2dt5wKxUvoStByrgcax
4YSrh7I7qya1xDGhwfnc2MuFSd7mAbHFmdetWbkhH7fbhy70X2+aeaLkYuNPa868
csrZbwPTWZE6/1TbxorG841BJaPmsrTmCo3uZR7fBbOAOYxpx2XcnXjhsz38b86s
zcpe4oK0vrSGhLoyDxC2vDg8sXxMzJIfo0nosJisOt+FU5x5qpsN04YTb2ACdzsZ
t6FPPcjyXWESWluHKK+pg/dB+HTSGdSXjbmz8Q==
-----END CERTIFICATE-----
