Certificate:
    Data:
        Version: 3 (0x2)
        Serial Number: 11042563100306 (0xa0b0c0d0e92)
    Signature Algorithm: sha256WithRSAEncryption
        Issuer: CN=BHOPALCA_CA, C=IN, O=CITRIX, OU=ANG, ST=KA/emailAddress=BHOPALCA_CA@BHOPALCA_mail.com
        Validity
            Not Before: Aug 23 10:01:37 2017 GMT
            Not After : Aug 21 10:01:37 2027 GMT
        Subject: ST=KA, C=IN, CN=bhopal_43_client/emailAddress=bhopal_43@test_ca.com, O=CITRIX
        Subject Public Key Info:
            Public Key Algorithm: rsaEncryption
                Public-Key: (2048 bit)
                Modulus:
                    00:d6:31:90:6b:03:e4:b3:1e:5d:8c:11:db:c6:44:
                    57:73:4a:0b:3f:43:02:84:c2:e3:2b:31:cd:46:7e:
                    68:0b:e8:4a:67:12:ce:1f:c0:d8:ad:ee:ee:b1:34:
                    25:96:a9:5f:b1:aa:5c:7d:53:8f:86:10:b3:b0:65:
                    00:0b:37:21:39:a2:8f:f0:e3:3e:fc:33:b9:8a:91:
                    36:42:80:aa:86:e6:40:4d:d1:e7:5d:f2:e4:8d:06:
                    42:43:c9:88:ff:60:23:a0:3e:a3:81:12:14:f2:aa:
                    05:37:51:ff:57:c9:bd:68:3a:ee:f1:26:d9:d8:94:
                    cc:7c:33:b4:61:68:cb:4a:c6:21:69:3e:ea:d1:5d:
                    35:a0:82:3d:02:c6:a1:d6:d7:cb:d0:71:5a:4a:69:
                    96:e2:34:7c:bd:b6:b4:f9:eb:c3:c2:34:4c:e9:14:
                    d3:03:5d:e9:b8:f3:76:79:10:0f:29:5a:46:e3:05:
                    52:f5:0c:19:24:8e:11:df:44:50:67:cb:a3:2c:b4:
                    5d:96:14:63:bf:93:77:1a:3a:03:0d:6b:c4:ba:f9:
                    27:30:c1:c5:34:ce:40:a6:fd:db:d7:0d:fc:be:90:
                    a5:92:32:22:87:3c:30:88:d9:85:be:5c:26:ca:60:
                    6a:2c:e3:c7:e1:c3:b2:92:98:84:42:b8:fa:b9:f8:
                    2f:3f
                Exponent: 65537 (0x10001)
        X509v3 extensions:
            Netscape Cert Type: 
                SSL Client
            X509v3 Subject Key Identifier: 
                26:61:2E:45:9B:6E:A4:3A:C2:3E:6F:64:45:21:42:2E:47:CF:35:1E
            X509v3 Authority Key Identifier: 
                keyid:A6:66:0E:59:0F:3C:5C:11:35:B2:B3:99:59:A9:D3:A6:B1:5E:95:D2
                DirName:/CN=BHOPALCA_CA/C=IN/O=CITRIX/OU=ANG/ST=KA/emailAddress=BHOPALCA_CA@BHOPALCA_mail.com
                serial:BE:89:55:F3:65:28:17:9A

            Authority Information Access: 
                OCSP - URI:http://172.17.20.1/responderpath

    Signature Algorithm: sha256WithRSAEncryption
         7b:ae:f3:94:ac:e8:fc:5a:94:ae:d4:7f:f7:bb:26:f0:a8:de:
         88:5d:c0:a7:fa:2b:e5:60:8a:40:29:1b:1d:5b:f9:83:3c:d6:
         4a:12:4b:c0:5a:a1:8c:f9:d9:74:d0:6b:3d:51:60:a7:4c:43:
         81:8d:fe:bc:28:10:b8:ca:e2:92:f2:b7:a5:65:77:1f:40:75:
         b7:4e:e5:91:37:31:c0:6e:d6:3e:da:04:0c:f7:2f:20:ec:59:
         90:da:62:25:3a:6a:1f:9c:ac:f3:9b:64:89:1c:ff:62:ac:c0:
         ea:d9:85:20:d1:8b:d7:c3:eb:ea:5f:73:10:d7:3e:71:0f:97:
         98:af:df:7f:d4:a6:76:bb:2e:01:10:94:00:e3:61:33:b5:b7:
         40:15:78:8c:54:2e:9d:64:03:17:2d:3c:f0:f7:97:44:e4:09:
         6a:c7:67:81:5d:3a:9d:90:85:7c:60:16:7b:18:93:f6:a5:df:
         4d:2d:47:ba:7b:38:76:40:12:6b:6d:7a:2d:13:b0:36:fb:06:
         75:44:5d:62:3a:50:e1:3d:81:2b:ec:2b:57:c6:a2:b6:3e:b7:
         fe:a1:71:ca:c9:64:b3:00:6b:0d:b6:9b:50:64:c4:18:ca:7f:
         80:34:bd:60:3b:ee:87:71:70:b0:82:dd:c0:09:e5:4e:e5:13:
         fc:bb:7b:dd
-----BEGIN CERTIFICATE-----
MIIEkjCCA3qgAwIBAgIGCgsMDQ6SMA0GCSqGSIb3DQEBCwUAMH0xFDASBgNVBAMU
C0JIT1BBTENBX0NBMQswCQYDVQQGEwJJTjEPMA0GA1UEChMGQ0lUUklYMQwwCgYD
VQQLEwNBTkcxCzAJBgNVBAgTAktBMSwwKgYJKoZIhvcNAQkBFh1CSE9QQUxDQV9D
QUBCSE9QQUxDQV9tYWlsLmNvbTAeFw0xNzA4MjMxMDAxMzdaFw0yNzA4MjExMDAx
MzdaMGwxCzAJBgNVBAgTAktBMQswCQYDVQQGEwJJTjEZMBcGA1UEAxQQYmhvcGFs
XzQzX2NsaWVudDEkMCIGCSqGSIb3DQEJARYVYmhvcGFsXzQzQHRlc3RfY2EuY29t
MQ8wDQYDVQQKEwZDSVRSSVgwggEiMA0GCSqGSIb3DQEBAQUAA4IBDwAwggEKAoIB
AQDWMZBrA+SzHl2MEdvGRFdzSgs/QwKEwuMrMc1GfmgL6EpnEs4fwNit7u6xNCWW
qV+xqlx9U4+GELOwZQALNyE5oo/w4z78M7mKkTZCgKqG5kBN0edd8uSNBkJDyYj/
YCOgPqOBEhTyqgU3Uf9Xyb1oOu7xJtnYlMx8M7RhaMtKxiFpPurRXTWggj0CxqHW
18vQcVpKaZbiNHy9trT568PCNEzpFNMDXem483Z5EA8pWkbjBVL1DBkkjhHfRFBn
y6MstF2WFGO/k3caOgMNa8S6+ScwwcU0zkCm/dvXDfy+kKWSMiKHPDCI2YW+XCbK
YGos48fhw7KSmIRCuPq5+C8/AgMBAAGjggEnMIIBIzARBglghkgBhvhCAQEEBAMC
B4AwHQYDVR0OBBYEFCZhLkWbbqQ6wj5vZEUhQi5HzzUeMIGwBgNVHSMEgagwgaWA
FKZmDlkPPFwRNbKzmVmp06axXpXSoYGBpH8wfTEUMBIGA1UEAxQLQkhPUEFMQ0Ff
Q0ExCzAJBgNVBAYTAklOMQ8wDQYDVQQKEwZDSVRSSVgxDDAKBgNVBAsTA0FORzEL
MAkGA1UECBMCS0ExLDAqBgkqhkiG9w0BCQEWHUJIT1BBTENBX0NBQEJIT1BBTENB
X21haWwuY29tggkAvolV82UoF5owPAYIKwYBBQUHAQEEMDAuMCwGCCsGAQUFBzAB
hiBodHRwOi8vMTcyLjE3LjIwLjEvcmVzcG9uZGVycGF0aDANBgkqhkiG9w0BAQsF
AAOCAQEAe67zlKzo/FqUrtR/97sm8KjeiF3Ap/or5WCKQCkbHVv5gzzWShJLwFqh
jPnZdNBrPVFgp0xDgY3+vCgQuMrikvK3pWV3H0B1t07lkTcxwG7WPtoEDPcvIOxZ
kNpiJTpqH5ys85tkiRz/YqzA6tmFINGL18Pr6l9zENc+cQ+XmK/ff9SmdrsuARCU
AONhM7W3QBV4jFQunWQDFy088PeXROQJasdngV06nZCFfGAWexiT9qXfTS1Huns4
dkASa216LROwNvsGdURdYjpQ4T2BK+wrV8aitj63/qFxyslkswBrDbabUGTEGMp/
gDS9YDvuh3FwsILdwAnlTuUT/Lt73Q==
-----END CERTIFICATE-----
