Certificate:
    Data:
        Version: 3 (0x2)
        Serial Number: 11042563100286 (0xa0b0c0d0e7e)
    Signature Algorithm: sha256WithRSAEncryption
        Issuer: CN=BHOPALCA_CA, C=IN, O=CITRIX, OU=ANG, ST=KA/emailAddress=BHOPALCA_CA@BHOPALCA_mail.com
        Validity
            Not Before: Aug 23 10:01:25 2017 GMT
            Not After : Aug 21 10:01:25 2027 GMT
        Subject: ST=KA, C=IN, CN=bhopal_23_client/emailAddress=bhopal_23@test_ca.com, O=CITRIX
        Subject Public Key Info:
            Public Key Algorithm: rsaEncryption
                Public-Key: (2048 bit)
                Modulus:
                    00:e6:60:a0:b3:2d:e2:4a:78:12:8a:37:1a:aa:be:
                    9f:e6:21:52:04:0d:cd:90:fd:81:b9:7f:92:68:e9:
                    ce:6f:d1:4d:ac:47:aa:8c:76:df:8b:9f:64:01:ac:
                    d8:d4:7e:6d:57:c6:bf:82:37:8b:4c:bc:fb:a9:2e:
                    e7:0d:36:74:d0:66:01:a5:ed:b5:31:1a:f6:ec:1b:
                    3c:8e:bd:a7:ee:a5:9e:c7:0b:82:35:d7:59:66:52:
                    09:45:e8:8a:45:6b:12:96:67:97:b1:52:1a:48:fc:
                    ef:4c:8d:b0:ca:6f:63:e9:2a:3b:4b:f3:c7:d8:90:
                    af:9c:1c:3d:02:a4:10:b7:d5:ac:34:73:c4:10:1a:
                    33:96:22:4e:a8:c9:d7:d9:05:e8:9d:61:1e:de:ae:
                    c2:30:f8:db:72:51:ed:28:63:da:43:aa:a8:d1:bc:
                    f3:55:b9:79:31:4c:ab:08:66:80:c1:75:69:05:04:
                    eb:c5:4d:7e:0b:ad:66:80:ef:cd:e2:c0:f7:0a:ff:
                    b3:51:d4:f3:2c:63:e0:8c:4a:04:8e:73:a3:1c:a8:
                    8b:7a:56:95:bc:f1:59:28:62:c7:ad:f5:2c:6c:ba:
                    19:ef:9a:07:a2:7a:51:88:d5:3a:fd:8b:95:82:b9:
                    3f:27:8b:e7:bd:36:86:56:36:56:a8:b4:2e:65:84:
                    21:d7
                Exponent: 65537 (0x10001)
        X509v3 extensions:
            Netscape Cert Type: 
                SSL Client
            X509v3 Subject Key Identifier: 
                02:4F:C0:9F:BC:75:AE:EF:76:66:E7:FF:0A:BF:FC:BA:C1:67:6C:CE
            X509v3 Authority Key Identifier: 
                keyid:A6:66:0E:59:0F:3C:5C:11:35:B2:B3:99:59:A9:D3:A6:B1:5E:95:D2
                DirName:/CN=BHOPALCA_CA/C=IN/O=CITRIX/OU=ANG/ST=KA/emailAddress=BHOPALCA_CA@BHOPALCA_mail.com
                serial:BE:89:55:F3:65:28:17:9A

            Authority Information Access: 
                OCSP - URI:http://172.17.20.1/responderpath

    Signature Algorithm: sha256WithRSAEncryption
         59:0a:8c:51:32:5e:ba:69:85:78:a5:ab:2f:7f:94:19:a0:8d:
         5f:14:f1:99:dd:52:73:ef:72:08:0e:09:67:0c:b0:60:c7:eb:
         cf:92:4f:60:b8:61:64:7b:7a:b8:1f:32:7e:19:54:5c:6e:c8:
         0e:79:1d:c3:f0:13:ed:36:23:01:a0:ce:c2:89:c3:d9:fa:ca:
         00:7c:b4:e4:7d:67:ea:07:bd:03:47:d0:92:6a:f2:99:0c:69:
         4b:56:bb:c5:87:c0:83:e8:cc:cb:86:ac:d8:cc:5c:07:24:fb:
         5a:b9:b9:dc:ce:0c:ae:06:e5:ed:e8:18:ce:a4:5f:df:bf:ef:
         e9:4f:d4:a4:4d:6a:6e:ce:50:d9:4a:57:e4:20:e7:7c:53:67:
         b9:48:51:95:1d:dd:72:cb:88:f7:3b:03:10:1d:2f:7e:c7:ed:
         ef:ab:cb:df:19:99:ef:c4:c3:a0:5a:fa:22:d7:e7:1f:91:fb:
         93:74:e0:2c:ca:01:a5:6e:60:a1:b4:da:d7:3a:29:74:97:b2:
         cb:ce:27:61:0a:70:6a:13:7b:74:34:52:63:15:51:56:32:48:
         f4:bd:d3:59:f2:ba:de:d6:c7:4a:69:71:29:9b:25:e1:1a:8c:
         99:f8:93:c7:3f:05:62:f3:c1:f1:21:03:a5:c3:38:5d:80:3d:
         6b:6e:36:a9
-----BEGIN CERTIFICATE-----
MIIEkjCCA3qgAwIBAgIGCgsMDQ5+MA0GCSqGSIb3DQEBCwUAMH0xFDASBgNVBAMU
C0JIT1BBTENBX0NBMQswCQYDVQQGEwJJTjEPMA0GA1UEChMGQ0lUUklYMQwwCgYD
VQQLEwNBTkcxCzAJBgNVBAgTAktBMSwwKgYJKoZIhvcNAQkBFh1CSE9QQUxDQV9D
QUBCSE9QQUxDQV9tYWlsLmNvbTAeFw0xNzA4MjMxMDAxMjVaFw0yNzA4MjExMDAx
MjVaMGwxCzAJBgNVBAgTAktBMQswCQYDVQQGEwJJTjEZMBcGA1UEAxQQYmhvcGFs
XzIzX2NsaWVudDEkMCIGCSqGSIb3DQEJARYVYmhvcGFsXzIzQHRlc3RfY2EuY29t
MQ8wDQYDVQQKEwZDSVRSSVgwggEiMA0GCSqGSIb3DQEBAQUAA4IBDwAwggEKAoIB
AQDmYKCzLeJKeBKKNxqqvp/mIVIEDc2Q/YG5f5Jo6c5v0U2sR6qMdt+Ln2QBrNjU
fm1Xxr+CN4tMvPupLucNNnTQZgGl7bUxGvbsGzyOvafupZ7HC4I111lmUglF6IpF
axKWZ5exUhpI/O9MjbDKb2PpKjtL88fYkK+cHD0CpBC31aw0c8QQGjOWIk6oydfZ
BeidYR7ersIw+NtyUe0oY9pDqqjRvPNVuXkxTKsIZoDBdWkFBOvFTX4LrWaA783i
wPcK/7NR1PMsY+CMSgSOc6McqIt6VpW88VkoYset9SxsuhnvmgeielGI1Tr9i5WC
uT8ni+e9NoZWNlaotC5lhCHXAgMBAAGjggEnMIIBIzARBglghkgBhvhCAQEEBAMC
B4AwHQYDVR0OBBYEFAJPwJ+8da7vdmbn/wq//LrBZ2zOMIGwBgNVHSMEgagwgaWA
FKZmDlkPPFwRNbKzmVmp06axXpXSoYGBpH8wfTEUMBIGA1UEAxQLQkhPUEFMQ0Ff
Q0ExCzAJBgNVBAYTAklOMQ8wDQYDVQQKEwZDSVRSSVgxDDAKBgNVBAsTA0FORzEL
MAkGA1UECBMCS0ExLDAqBgkqhkiG9w0BCQEWHUJIT1BBTENBX0NBQEJIT1BBTENB
X21haWwuY29tggkAvolV82UoF5owPAYIKwYBBQUHAQEEMDAuMCwGCCsGAQUFBzAB
hiBodHRwOi8vMTcyLjE3LjIwLjEvcmVzcG9uZGVycGF0aDANBgkqhkiG9w0BAQsF
AAOCAQEAWQqMUTJeummFeKWrL3+UGaCNXxTxmd1Sc+9yCA4JZwywYMfrz5JPYLhh
ZHt6uB8yfhlUXG7IDnkdw/AT7TYjAaDOwonD2frKAHy05H1n6ge9A0fQkmrymQxp
S1a7xYfAg+jMy4as2MxcByT7Wrm53M4Mrgbl7egYzqRf37/v6U/UpE1qbs5Q2UpX
5CDnfFNnuUhRlR3dcsuI9zsDEB0vfsft76vL3xmZ78TDoFr6ItfnH5H7k3TgLMoB
pW5gobTa1zopdJeyy84nYQpwahN7dDRSYxVRVjJI9L3TWfK63tbHSmlxKZsl4RqM
mfiTxz8FYvPB8SEDpcM4XYA9a242qQ==
-----END CERTIFICATE-----
