Certificate:
    Data:
        Version: 3 (0x2)
        Serial Number: 11042563100291 (0xa0b0c0d0e83)
    Signature Algorithm: sha256WithRSAEncryption
        Issuer: CN=BHOPALCA_CA, C=IN, O=CITRIX, OU=ANG, ST=KA/emailAddress=BHOPALCA_CA@BHOPALCA_mail.com
        Validity
            Not Before: Aug 23 10:01:28 2017 GMT
            Not After : Aug 21 10:01:28 2027 GMT
        Subject: ST=KA, C=IN, CN=bhopal_28_client/emailAddress=bhopal_28@test_ca.com, O=CITRIX
        Subject Public Key Info:
            Public Key Algorithm: rsaEncryption
                Public-Key: (2048 bit)
                Modulus:
                    00:ae:dc:9c:3d:60:2d:21:cd:8c:55:4f:36:f7:48:
                    b1:af:3e:e1:6e:f6:1f:18:83:2a:35:a2:63:86:6c:
                    97:6d:9d:12:3b:25:72:49:ac:bf:06:4b:7a:02:38:
                    6f:53:ff:7b:3c:41:0c:01:94:b7:31:45:21:d1:b0:
                    f4:30:4b:48:6c:38:44:c9:68:6e:3b:97:e2:1c:b0:
                    1a:31:73:ac:fa:fb:7b:60:85:52:e1:90:59:69:04:
                    13:7a:93:91:7b:40:37:cb:1a:77:8b:ed:20:dd:a0:
                    77:d0:a9:90:65:7f:2c:94:8a:30:e1:b6:71:fe:42:
                    84:0e:b7:6d:aa:9e:fb:7f:10:23:f5:44:45:11:cd:
                    6e:f0:4f:46:74:fc:d1:cf:7b:c6:3d:5e:50:e3:0c:
                    7e:72:2d:38:0a:52:77:d6:a9:39:34:05:4f:db:ca:
                    06:93:90:fb:2e:13:a2:aa:46:9d:07:a2:dd:a1:26:
                    21:01:80:58:c6:69:c0:28:13:8a:1c:ce:19:db:7f:
                    c2:eb:f4:09:90:91:7a:c7:bd:0e:ec:62:e9:31:f4:
                    78:e5:ad:7c:6b:d4:d6:f7:5b:b4:5a:b0:c9:9c:02:
                    8d:e8:a1:a7:60:8b:a9:63:8b:b8:1d:df:ed:b1:1f:
                    8c:18:e5:c5:d9:3d:8a:79:a5:90:30:2d:d6:f6:5c:
                    0a:0f
                Exponent: 65537 (0x10001)
        X509v3 extensions:
            Netscape Cert Type: 
                SSL Client
            X509v3 Subject Key Identifier: 
                97:EC:12:DB:90:44:FE:99:F6:5C:25:CE:41:9C:05:D0:BF:C4:E4:37
            X509v3 Authority Key Identifier: 
                keyid:A6:66:0E:59:0F:3C:5C:11:35:B2:B3:99:59:A9:D3:A6:B1:5E:95:D2
                DirName:/CN=BHOPALCA_CA/C=IN/O=CITRIX/OU=ANG/ST=KA/emailAddress=BHOPALCA_CA@BHOPALCA_mail.com
                serial:BE:89:55:F3:65:28:17:9A

            Authority Information Access: 
                OCSP - URI:http://172.17.20.1/responderpath

    Signature Algorithm: sha256WithRSAEncryption
         13:0d:9d:37:25:7c:fa:e0:06:49:56:8b:20:f9:2e:a5:3b:ee:
         ac:8f:82:92:07:e2:74:50:fb:b4:aa:21:56:10:82:20:51:eb:
         54:f7:b4:67:62:db:14:ad:c1:9d:9f:0f:3e:3c:75:3d:90:f5:
         ac:67:ad:ba:61:6d:f6:46:11:ed:42:0e:4d:9e:c0:90:4d:e9:
         f7:3f:6f:22:f1:ec:8b:93:e5:83:c6:d8:15:0c:96:bc:ce:22:
         1f:d4:fd:27:5c:55:42:23:af:81:9b:62:99:a4:9a:2c:90:d0:
         a4:ee:cf:8f:89:c7:03:bb:11:51:c9:d4:4d:81:2a:84:2b:f0:
         67:05:ac:5b:3e:26:b0:ac:83:ea:6c:a2:39:f7:50:6d:8e:38:
         4c:cf:53:81:83:f5:ea:5c:68:54:01:ca:6a:d8:01:de:11:20:
         f3:d3:40:77:5f:4a:e2:10:39:bd:ae:78:ff:e3:28:1a:93:f0:
         d3:32:da:11:18:f9:25:9d:f3:ac:1f:d1:7a:90:48:aa:36:14:
         ff:08:a6:1c:00:04:eb:2c:e3:e0:5e:d3:a7:53:64:b4:f2:41:
         88:f9:71:e1:51:c1:df:40:72:38:2a:07:0b:71:ad:93:c4:0a:
         8d:0d:5a:ef:d8:40:24:ce:4b:fc:0a:e7:a4:aa:4b:79:30:04:
         0d:72:e5:cf
-----BEGIN CERTIFICATE-----
MIIEkjCCA3qgAwIBAgIGCgsMDQ6DMA0GCSqGSIb3DQEBCwUAMH0xFDASBgNVBAMU
C0JIT1BBTENBX0NBMQswCQYDVQQGEwJJTjEPMA0GA1UEChMGQ0lUUklYMQwwCgYD
VQQLEwNBTkcxCzAJBgNVBAgTAktBMSwwKgYJKoZIhvcNAQkBFh1CSE9QQUxDQV9D
QUBCSE9QQUxDQV9tYWlsLmNvbTAeFw0xNzA4MjMxMDAxMjhaFw0yNzA4MjExMDAx
MjhaMGwxCzAJBgNVBAgTAktBMQswCQYDVQQGEwJJTjEZMBcGA1UEAxQQYmhvcGFs
XzI4X2NsaWVudDEkMCIGCSqGSIb3DQEJARYVYmhvcGFsXzI4QHRlc3RfY2EuY29t
MQ8wDQYDVQQKEwZDSVRSSVgwggEiMA0GCSqGSIb3DQEBAQUAA4IBDwAwggEKAoIB
AQCu3Jw9YC0hzYxVTzb3SLGvPuFu9h8Ygyo1omOGbJdtnRI7JXJJrL8GS3oCOG9T
/3s8QQwBlLcxRSHRsPQwS0hsOETJaG47l+IcsBoxc6z6+3tghVLhkFlpBBN6k5F7
QDfLGneL7SDdoHfQqZBlfyyUijDhtnH+QoQOt22qnvt/ECP1REURzW7wT0Z0/NHP
e8Y9XlDjDH5yLTgKUnfWqTk0BU/bygaTkPsuE6KqRp0Hot2hJiEBgFjGacAoE4oc
zhnbf8Lr9AmQkXrHvQ7sYukx9HjlrXxr1Nb3W7RasMmcAo3ooadgi6lji7gd3+2x
H4wY5cXZPYp5pZAwLdb2XAoPAgMBAAGjggEnMIIBIzARBglghkgBhvhCAQEEBAMC
B4AwHQYDVR0OBBYEFJfsEtuQRP6Z9lwlzkGcBdC/xOQ3MIGwBgNVHSMEgagwgaWA
FKZmDlkPPFwRNbKzmVmp06axXpXSoYGBpH8wfTEUMBIGA1UEAxQLQkhPUEFMQ0Ff
Q0ExCzAJBgNVBAYTAklOMQ8wDQYDVQQKEwZDSVRSSVgxDDAKBgNVBAsTA0FORzEL
MAkGA1UECBMCS0ExLDAqBgkqhkiG9w0BCQEWHUJIT1BBTENBX0NBQEJIT1BBTENB
X21haWwuY29tggkAvolV82UoF5owPAYIKwYBBQUHAQEEMDAuMCwGCCsGAQUFBzAB
hiBodHRwOi8vMTcyLjE3LjIwLjEvcmVzcG9uZGVycGF0aDANBgkqhkiG9w0BAQsF
AAOCAQEAEw2dNyV8+uAGSVaLIPkupTvurI+CkgfidFD7tKohVhCCIFHrVPe0Z2Lb
FK3BnZ8PPjx1PZD1rGetumFt9kYR7UIOTZ7AkE3p9z9vIvHsi5Plg8bYFQyWvM4i
H9T9J1xVQiOvgZtimaSaLJDQpO7Pj4nHA7sRUcnUTYEqhCvwZwWsWz4msKyD6myi
OfdQbY44TM9TgYP16lxoVAHKatgB3hEg89NAd19K4hA5va54/+MoGpPw0zLaERj5
JZ3zrB/RepBIqjYU/wimHAAE6yzj4F7Tp1NktPJBiPlx4VHB30ByOCoHC3Gtk8QK
jQ1a79hAJM5L/ArnpKpLeTAEDXLlzw==
-----END CERTIFICATE-----
