Certificate:
    Data:
        Version: 3 (0x2)
        Serial Number: 11042563100298 (0xa0b0c0d0e8a)
    Signature Algorithm: sha256WithRSAEncryption
        Issuer: CN=BHOPALCA_CA, C=IN, O=CITRIX, OU=ANG, ST=KA/emailAddress=BHOPALCA_CA@BHOPALCA_mail.com
        Validity
            Not Before: Aug 23 10:01:32 2017 GMT
            Not After : Aug 21 10:01:32 2027 GMT
        Subject: ST=KA, C=IN, CN=bhopal_35_client/emailAddress=bhopal_35@test_ca.com, O=CITRIX
        Subject Public Key Info:
            Public Key Algorithm: rsaEncryption
                Public-Key: (2048 bit)
                Modulus:
                    00:b1:fe:73:1b:d3:46:7e:cd:17:a3:12:b4:69:34:
                    6d:74:df:2a:17:ef:56:68:2e:a8:60:95:2e:f5:f3:
                    a2:a8:07:e5:93:26:23:f7:8c:e1:9b:a8:6d:a3:cb:
                    f5:c2:2e:62:64:4f:49:e0:63:27:db:29:e5:9d:52:
                    c8:23:1f:77:36:af:57:b4:63:b9:11:d1:f1:50:76:
                    82:0d:d5:a2:5b:c1:eb:a1:30:d9:fd:a7:12:ee:e4:
                    31:45:03:f6:9d:90:54:fa:f5:e9:c7:b0:7a:99:ec:
                    9f:4e:d8:6e:b6:6a:2f:a3:0f:94:86:a9:d9:d7:01:
                    44:26:0a:26:9e:b6:27:ef:4e:84:fb:cb:f5:dc:47:
                    fb:91:6b:55:fc:05:e2:bf:d5:76:72:56:13:7c:17:
                    7a:a9:c4:30:16:71:0c:06:cb:d2:42:66:7a:d4:c4:
                    3b:2b:04:a2:b7:c6:a5:5b:44:81:98:a3:2e:9b:5d:
                    f9:5d:06:10:4e:f2:4e:ee:65:08:03:1c:07:5d:14:
                    08:e7:72:cb:30:d6:5c:fa:79:74:4c:c8:0b:e0:d7:
                    4f:5e:f8:eb:89:f2:4a:8f:34:1e:be:fb:2a:b8:a7:
                    2e:ab:db:b2:f6:c8:c7:af:93:76:15:81:38:d6:8f:
                    ef:dc:be:4c:f1:a8:2d:c4:ac:4f:ec:02:a5:31:f0:
                    77:5b
                Exponent: 65537 (0x10001)
        X509v3 extensions:
            Netscape Cert Type: 
                SSL Client
            X509v3 Subject Key Identifier: 
                B5:17:1A:0D:F0:C1:A3:2F:ED:26:86:F3:03:46:02:F6:D6:C7:33:25
            X509v3 Authority Key Identifier: 
                keyid:A6:66:0E:59:0F:3C:5C:11:35:B2:B3:99:59:A9:D3:A6:B1:5E:95:D2
                DirName:/CN=BHOPALCA_CA/C=IN/O=CITRIX/OU=ANG/ST=KA/emailAddress=BHOPALCA_CA@BHOPALCA_mail.com
                serial:BE:89:55:F3:65:28:17:9A

            Authority Information Access: 
                OCSP - URI:http://172.17.20.1/responderpath

    Signature Algorithm: sha256WithRSAEncryption
         53:c8:3e:52:71:8e:3e:20:b4:67:cc:3b:64:85:67:a8:04:c5:
         61:0c:ad:45:29:e0:d2:ab:a9:c8:d5:d8:20:ac:a7:c2:d3:0f:
         aa:9b:45:6e:4b:11:92:77:b4:c6:25:ae:16:14:13:0e:6b:3a:
         b2:2b:f0:29:ff:f7:df:4c:7f:9e:e2:79:82:da:71:6c:14:eb:
         6e:f2:5a:b2:55:c3:61:1e:ca:6f:dd:f7:1e:e4:be:58:eb:60:
         9e:c7:23:29:5f:e0:0e:27:e0:c8:32:91:f9:81:14:37:1c:08:
         04:70:1c:68:e9:72:f7:62:3c:8f:9a:0e:65:99:f1:56:a3:d2:
         6e:f6:ca:f7:66:53:a5:ac:14:cd:f6:0d:72:d9:19:30:76:30:
         ae:47:3f:14:cd:78:a9:55:79:0f:2d:28:03:5b:66:4b:55:fd:
         7a:79:00:6a:c6:bc:9d:e2:aa:ce:f7:7f:f0:16:b3:26:95:f0:
         04:0f:89:34:8c:ae:6f:f5:ca:c2:7f:ef:c4:6f:af:9a:ca:b5:
         32:92:ee:d7:36:2a:af:9a:cc:68:43:e1:08:d1:26:16:2f:6c:
         e8:d5:c4:94:41:a4:16:bc:ed:48:fe:65:d3:17:42:f2:71:3f:
         2d:21:15:d7:ab:f7:bf:f5:48:cf:d2:8d:fc:bb:b2:47:63:b4:
         ab:3b:22:16
-----BEGIN CERTIFICATE-----
MIIEkjCCA3qgAwIBAgIGCgsMDQ6KMA0GCSqGSIb3DQEBCwUAMH0xFDASBgNVBAMU
C0JIT1BBTENBX0NBMQswCQYDVQQGEwJJTjEPMA0GA1UEChMGQ0lUUklYMQwwCgYD
VQQLEwNBTkcxCzAJBgNVBAgTAktBMSwwKgYJKoZIhvcNAQkBFh1CSE9QQUxDQV9D
QUBCSE9QQUxDQV9tYWlsLmNvbTAeFw0xNzA4MjMxMDAxMzJaFw0yNzA4MjExMDAx
MzJaMGwxCzAJBgNVBAgTAktBMQswCQYDVQQGEwJJTjEZMBcGA1UEAxQQYmhvcGFs
XzM1X2NsaWVudDEkMCIGCSqGSIb3DQEJARYVYmhvcGFsXzM1QHRlc3RfY2EuY29t
MQ8wDQYDVQQKEwZDSVRSSVgwggEiMA0GCSqGSIb3DQEBAQUAA4IBDwAwggEKAoIB
AQCx/nMb00Z+zRejErRpNG103yoX71ZoLqhglS7186KoB+WTJiP3jOGbqG2jy/XC
LmJkT0ngYyfbKeWdUsgjH3c2r1e0Y7kR0fFQdoIN1aJbweuhMNn9pxLu5DFFA/ad
kFT69enHsHqZ7J9O2G62ai+jD5SGqdnXAUQmCiaetifvToT7y/XcR/uRa1X8BeK/
1XZyVhN8F3qpxDAWcQwGy9JCZnrUxDsrBKK3xqVbRIGYoy6bXfldBhBO8k7uZQgD
HAddFAjncssw1lz6eXRMyAvg109e+OuJ8kqPNB6++yq4py6r27L2yMevk3YVgTjW
j+/cvkzxqC3ErE/sAqUx8HdbAgMBAAGjggEnMIIBIzARBglghkgBhvhCAQEEBAMC
B4AwHQYDVR0OBBYEFLUXGg3wwaMv7SaG8wNGAvbWxzMlMIGwBgNVHSMEgagwgaWA
FKZmDlkPPFwRNbKzmVmp06axXpXSoYGBpH8wfTEUMBIGA1UEAxQLQkhPUEFMQ0Ff
Q0ExCzAJBgNVBAYTAklOMQ8wDQYDVQQKEwZDSVRSSVgxDDAKBgNVBAsTA0FORzEL
MAkGA1UECBMCS0ExLDAqBgkqhkiG9w0BCQEWHUJIT1BBTENBX0NBQEJIT1BBTENB
X21haWwuY29tggkAvolV82UoF5owPAYIKwYBBQUHAQEEMDAuMCwGCCsGAQUFBzAB
hiBodHRwOi8vMTcyLjE3LjIwLjEvcmVzcG9uZGVycGF0aDANBgkqhkiG9w0BAQsF
AAOCAQEAU8g+UnGOPiC0Z8w7ZIVnqATFYQytRSng0qupyNXYIKynwtMPqptFbksR
kne0xiWuFhQTDms6sivwKf/330x/nuJ5gtpxbBTrbvJaslXDYR7Kb933HuS+WOtg
nscjKV/gDifgyDKR+YEUNxwIBHAcaOly92I8j5oOZZnxVqPSbvbK92ZTpawUzfYN
ctkZMHYwrkc/FM14qVV5Dy0oA1tmS1X9enkAasa8neKqzvd/8BazJpXwBA+JNIyu
b/XKwn/vxG+vmsq1MpLu1zYqr5rMaEPhCNEmFi9s6NXElEGkFrztSP5l0xdC8nE/
LSEV16v3v/VIz9KN/LuyR2O0qzsiFg==
-----END CERTIFICATE-----
