Certificate:
    Data:
        Version: 3 (0x2)
        Serial Number: 11042563100289 (0xa0b0c0d0e81)
    Signature Algorithm: sha256WithRSAEncryption
        Issuer: CN=BHOPALCA_CA, C=IN, O=CITRIX, OU=ANG, ST=KA/emailAddress=BHOPALCA_CA@BHOPALCA_mail.com
        Validity
            Not Before: Aug 23 10:01:28 2017 GMT
            Not After : Aug 21 10:01:28 2027 GMT
        Subject: ST=KA, C=IN, CN=bhopal_26_client/emailAddress=bhopal_26@test_ca.com, O=CITRIX
        Subject Public Key Info:
            Public Key Algorithm: rsaEncryption
                Public-Key: (2048 bit)
                Modulus:
                    00:cb:5d:be:61:0f:dd:cb:b0:0e:9e:09:d7:5f:bf:
                    57:c1:60:95:08:2e:d4:18:0b:fd:a6:79:7f:10:a9:
                    d1:a8:e9:77:8e:8c:3f:d8:48:bf:33:45:dd:14:2a:
                    44:4c:27:2f:fa:c0:1c:5b:75:21:f4:fe:16:aa:c4:
                    59:06:7d:83:ce:06:c6:7e:50:ee:2a:fd:0a:a8:b4:
                    92:af:1c:ec:40:dc:18:19:b2:46:2f:18:60:5d:57:
                    02:f2:e4:3d:41:85:53:cc:39:d1:be:bb:a2:6a:0c:
                    7e:18:2d:e3:1d:2a:7c:ea:de:2a:26:97:40:9f:53:
                    11:88:f6:29:dd:8b:0e:21:93:8a:6c:20:f5:8e:8b:
                    e2:05:a5:5d:8e:84:88:4a:f6:4b:8f:4c:93:09:fe:
                    79:75:0c:68:88:fa:9c:c8:23:4a:39:c7:3e:c1:d6:
                    75:42:b5:41:56:10:55:2d:2c:a0:b2:1a:64:2f:04:
                    80:3e:72:6c:cf:43:98:ae:69:0e:27:76:b6:ff:a4:
                    83:41:ec:24:5c:c0:ad:a8:1e:e5:cc:58:e7:8c:d8:
                    4d:9f:51:4b:6b:d5:4a:db:05:e6:a5:5f:19:1c:16:
                    f2:59:e5:51:01:60:ef:77:7b:26:85:7b:1d:aa:2c:
                    7c:36:b0:41:ce:97:6d:69:a9:fd:d3:b8:8d:b8:92:
                    38:b1
                Exponent: 65537 (0x10001)
        X509v3 extensions:
            Netscape Cert Type: 
                SSL Client
            X509v3 Subject Key Identifier: 
                2D:53:53:B7:1D:77:1E:E9:F0:98:6F:5E:CF:4D:99:F7:68:D7:7B:28
            X509v3 Authority Key Identifier: 
                keyid:A6:66:0E:59:0F:3C:5C:11:35:B2:B3:99:59:A9:D3:A6:B1:5E:95:D2
                DirName:/CN=BHOPALCA_CA/C=IN/O=CITRIX/OU=ANG/ST=KA/emailAddress=BHOPALCA_CA@BHOPALCA_mail.com
                serial:BE:89:55:F3:65:28:17:9A

            Authority Information Access: 
                OCSP - URI:http://172.17.20.1/responderpath

    Signature Algorithm: sha256WithRSAEncryption
         15:dc:ca:cc:3a:43:1b:37:79:46:e6:14:d3:b1:ca:eb:1e:8b:
         75:a6:99:86:84:89:8b:15:13:82:2d:0e:c5:36:6b:63:05:07:
         b1:b7:72:c4:6f:eb:90:7d:50:3a:63:e0:f3:34:af:a1:27:1c:
         5f:c1:8b:1d:09:6f:95:97:43:57:03:c3:8d:b3:4f:c2:48:39:
         e2:87:10:56:ac:48:0d:93:7e:b9:7e:55:14:ff:24:d9:aa:fd:
         0a:cb:c2:92:89:c5:b9:1c:a6:cf:5a:69:f7:6e:51:2d:dd:f6:
         68:9b:b7:34:80:34:59:76:5e:b3:30:38:48:92:41:b9:1c:54:
         6a:b1:df:ba:fa:85:49:af:9f:63:ad:48:bd:c6:90:39:c1:9a:
         31:21:d3:0e:6e:ce:e5:cb:90:0c:47:55:3e:37:aa:95:f0:24:
         cc:aa:17:3c:36:73:16:01:78:2e:a3:90:53:24:2b:a9:27:d1:
         1c:07:a7:36:16:82:cf:e8:f4:7f:3f:68:5d:b4:83:3b:62:df:
         e5:f8:c7:c4:67:fa:ba:0a:37:9d:5b:3a:1a:a5:ee:ef:e3:1c:
         23:f8:f3:69:29:b5:21:0b:eb:e0:ed:1c:d1:2b:18:a6:fd:0c:
         2b:4f:b3:ca:83:48:e0:66:d0:0b:55:9c:ac:9f:81:9d:3c:6b:
         4d:19:c4:15
-----BEGIN CERTIFICATE-----
MIIEkjCCA3qgAwIBAgIGCgsMDQ6BMA0GCSqGSIb3DQEBCwUAMH0xFDASBgNVBAMU
C0JIT1BBTENBX0NBMQswCQYDVQQGEwJJTjEPMA0GA1UEChMGQ0lUUklYMQwwCgYD
VQQLEwNBTkcxCzAJBgNVBAgTAktBMSwwKgYJKoZIhvcNAQkBFh1CSE9QQUxDQV9D
QUBCSE9QQUxDQV9tYWlsLmNvbTAeFw0xNzA4MjMxMDAxMjhaFw0yNzA4MjExMDAx
MjhaMGwxCzAJBgNVBAgTAktBMQswCQYDVQQGEwJJTjEZMBcGA1UEAxQQYmhvcGFs
XzI2X2NsaWVudDEkMCIGCSqGSIb3DQEJARYVYmhvcGFsXzI2QHRlc3RfY2EuY29t
MQ8wDQYDVQQKEwZDSVRSSVgwggEiMA0GCSqGSIb3DQEBAQUAA4IBDwAwggEKAoIB
AQDLXb5hD93LsA6eCddfv1fBYJUILtQYC/2meX8QqdGo6XeOjD/YSL8zRd0UKkRM
Jy/6wBxbdSH0/haqxFkGfYPOBsZ+UO4q/QqotJKvHOxA3BgZskYvGGBdVwLy5D1B
hVPMOdG+u6JqDH4YLeMdKnzq3ioml0CfUxGI9indiw4hk4psIPWOi+IFpV2OhIhK
9kuPTJMJ/nl1DGiI+pzII0o5xz7B1nVCtUFWEFUtLKCyGmQvBIA+cmzPQ5iuaQ4n
drb/pINB7CRcwK2oHuXMWOeM2E2fUUtr1UrbBealXxkcFvJZ5VEBYO93eyaFex2q
LHw2sEHOl21pqf3TuI24kjixAgMBAAGjggEnMIIBIzARBglghkgBhvhCAQEEBAMC
B4AwHQYDVR0OBBYEFC1TU7cddx7p8JhvXs9Nmfdo13soMIGwBgNVHSMEgagwgaWA
FKZmDlkPPFwRNbKzmVmp06axXpXSoYGBpH8wfTEUMBIGA1UEAxQLQkhPUEFMQ0Ff
Q0ExCzAJBgNVBAYTAklOMQ8wDQYDVQQKEwZDSVRSSVgxDDAKBgNVBAsTA0FORzEL
MAkGA1UECBMCS0ExLDAqBgkqhkiG9w0BCQEWHUJIT1BBTENBX0NBQEJIT1BBTENB
X21haWwuY29tggkAvolV82UoF5owPAYIKwYBBQUHAQEEMDAuMCwGCCsGAQUFBzAB
hiBodHRwOi8vMTcyLjE3LjIwLjEvcmVzcG9uZGVycGF0aDANBgkqhkiG9w0BAQsF
AAOCAQEAFdzKzDpDGzd5RuYU07HK6x6LdaaZhoSJixUTgi0OxTZrYwUHsbdyxG/r
kH1QOmPg8zSvoSccX8GLHQlvlZdDVwPDjbNPwkg54ocQVqxIDZN+uX5VFP8k2ar9
CsvCkonFuRymz1pp925RLd32aJu3NIA0WXZeszA4SJJBuRxUarHfuvqFSa+fY61I
vcaQOcGaMSHTDm7O5cuQDEdVPjeqlfAkzKoXPDZzFgF4LqOQUyQrqSfRHAenNhaC
z+j0fz9oXbSDO2Lf5fjHxGf6ugo3nVs6GqXu7+McI/jzaSm1IQvr4O0c0SsYpv0M
K0+zyoNI4GbQC1WcrJ+BnTxrTRnEFQ==
-----END CERTIFICATE-----
