Certificate:
    Data:
        Version: 3 (0x2)
        Serial Number: 11042563100273 (0xa0b0c0d0e71)
    Signature Algorithm: sha256WithRSAEncryption
        Issuer: CN=BHOPALCA_CA, C=IN, O=CITRIX, OU=ANG, ST=KA/emailAddress=BHOPALCA_CA@BHOPALCA_mail.com
        Validity
            Not Before: Aug 23 10:01:19 2017 GMT
            Not After : Aug 21 10:01:19 2027 GMT
        Subject: ST=KA, C=IN, CN=bhopal_10_client/emailAddress=bhopal_10@test_ca.com, O=CITRIX
        Subject Public Key Info:
            Public Key Algorithm: rsaEncryption
                Public-Key: (2048 bit)
                Modulus:
                    00:a1:9b:4f:52:9b:1e:58:29:9d:e0:2c:46:bf:4a:
                    f2:3a:dc:a4:17:eb:a1:3c:24:27:be:ad:52:e7:55:
                    ea:f2:21:9e:9d:1d:94:70:25:95:e2:cf:b1:1a:d1:
                    b3:1b:75:03:06:63:ca:44:8c:f7:1d:d2:e1:ad:e7:
                    ca:14:f9:06:2d:82:ec:b7:7c:7a:d5:ee:be:15:b9:
                    fa:55:a4:38:e3:6c:30:86:d4:5c:30:d6:2a:d3:2b:
                    46:2c:1c:75:18:ab:f5:f5:c6:75:f9:bd:1e:2d:58:
                    5b:c2:9d:d0:83:5f:93:df:36:37:db:97:d0:bb:0f:
                    a1:4f:e5:87:02:42:0f:04:07:d1:ef:4e:bc:e7:e1:
                    e6:11:fc:13:41:83:af:9b:53:ac:24:8f:ad:55:10:
                    83:ff:ba:88:15:7a:9b:03:13:ff:e4:0e:00:8a:a4:
                    91:fb:4d:39:64:e9:f0:f9:5a:39:3d:ef:28:85:41:
                    59:39:f7:94:c8:62:ba:a3:a9:eb:08:16:b1:8d:9a:
                    72:01:f9:52:3b:dd:fc:13:4a:20:43:e5:55:28:70:
                    38:49:30:70:13:42:9c:87:f6:45:4d:17:58:47:59:
                    28:4b:5c:b3:e0:0f:19:44:93:94:cd:c0:29:e4:f7:
                    06:81:d0:c1:b9:07:fe:03:51:aa:be:08:e5:3f:ad:
                    f2:73
                Exponent: 65537 (0x10001)
        X509v3 extensions:
            Netscape Cert Type: 
                SSL Client
            X509v3 Subject Key Identifier: 
                FC:F6:3C:E2:3A:06:48:42:B9:9F:FF:2F:AA:B9:DE:A6:AD:63:60:8D
            X509v3 Authority Key Identifier: 
                keyid:A6:66:0E:59:0F:3C:5C:11:35:B2:B3:99:59:A9:D3:A6:B1:5E:95:D2
                DirName:/CN=BHOPALCA_CA/C=IN/O=CITRIX/OU=ANG/ST=KA/emailAddress=BHOPALCA_CA@BHOPALCA_mail.com
                serial:BE:89:55:F3:65:28:17:9A

            Authority Information Access: 
                OCSP - URI:http://172.17.20.1/responderpath

    Signature Algorithm: sha256WithRSAEncryption
         42:43:41:25:5c:c0:27:3e:7a:f7:42:31:c8:00:e3:a2:b9:70:
         aa:88:fd:b8:dd:57:ff:ba:43:1b:e3:cd:7b:55:8d:63:e2:b3:
         f5:17:69:ff:80:55:cc:4a:04:55:1a:c0:db:42:79:cc:ac:f4:
         75:7c:84:2b:b4:ec:c1:e0:e0:2c:e6:5d:88:a4:43:61:05:d3:
         c4:90:c7:37:97:40:56:f9:46:6f:66:9f:da:89:21:0f:37:90:
         8e:52:d3:61:fe:c6:b1:4b:39:3e:85:b3:1b:66:9f:25:b9:9e:
         b3:f0:29:24:a2:16:ef:1c:b1:b4:2d:b3:fe:00:ab:6f:ed:93:
         d8:1c:f7:8f:15:c7:eb:5b:af:b7:f2:32:c8:44:ed:a4:8c:da:
         7d:2c:fb:53:e3:e5:42:cf:69:8f:9a:8a:4d:01:92:3c:80:22:
         0f:d1:6b:0c:98:d4:81:3b:db:27:69:04:89:e1:18:66:18:a5:
         89:b3:11:30:9e:7c:4c:11:b3:b3:71:04:47:69:b4:88:6d:02:
         ca:67:4c:e4:d4:1c:f1:d4:be:0a:49:ff:2e:b2:c1:0e:b7:a1:
         52:f6:94:b4:df:f3:9d:4e:61:9a:f3:ff:8d:cb:cf:d1:a5:39:
         90:d0:c8:7d:ab:6e:bd:db:0c:68:ec:60:55:31:17:9a:26:b2:
         f9:cb:b7:89
-----BEGIN CERTIFICATE-----
MIIEkjCCA3qgAwIBAgIGCgsMDQ5xMA0GCSqGSIb3DQEBCwUAMH0xFDASBgNVBAMU
C0JIT1BBTENBX0NBMQswCQYDVQQGEwJJTjEPMA0GA1UEChMGQ0lUUklYMQwwCgYD
VQQLEwNBTkcxCzAJBgNVBAgTAktBMSwwKgYJKoZIhvcNAQkBFh1CSE9QQUxDQV9D
QUBCSE9QQUxDQV9tYWlsLmNvbTAeFw0xNzA4MjMxMDAxMTlaFw0yNzA4MjExMDAx
MTlaMGwxCzAJBgNVBAgTAktBMQswCQYDVQQGEwJJTjEZMBcGA1UEAxQQYmhvcGFs
XzEwX2NsaWVudDEkMCIGCSqGSIb3DQEJARYVYmhvcGFsXzEwQHRlc3RfY2EuY29t
MQ8wDQYDVQQKEwZDSVRSSVgwggEiMA0GCSqGSIb3DQEBAQUAA4IBDwAwggEKAoIB
AQChm09Smx5YKZ3gLEa/SvI63KQX66E8JCe+rVLnVeryIZ6dHZRwJZXiz7Ea0bMb
dQMGY8pEjPcd0uGt58oU+QYtguy3fHrV7r4VufpVpDjjbDCG1Fww1irTK0YsHHUY
q/X1xnX5vR4tWFvCndCDX5PfNjfbl9C7D6FP5YcCQg8EB9HvTrzn4eYR/BNBg6+b
U6wkj61VEIP/uogVepsDE//kDgCKpJH7TTlk6fD5Wjk97yiFQVk595TIYrqjqesI
FrGNmnIB+VI73fwTSiBD5VUocDhJMHATQpyH9kVNF1hHWShLXLPgDxlEk5TNwCnk
9waB0MG5B/4DUaq+COU/rfJzAgMBAAGjggEnMIIBIzARBglghkgBhvhCAQEEBAMC
B4AwHQYDVR0OBBYEFPz2POI6BkhCuZ//L6q53qatY2CNMIGwBgNVHSMEgagwgaWA
FKZmDlkPPFwRNbKzmVmp06axXpXSoYGBpH8wfTEUMBIGA1UEAxQLQkhPUEFMQ0Ff
Q0ExCzAJBgNVBAYTAklOMQ8wDQYDVQQKEwZDSVRSSVgxDDAKBgNVBAsTA0FORzEL
MAkGA1UECBMCS0ExLDAqBgkqhkiG9w0BCQEWHUJIT1BBTENBX0NBQEJIT1BBTENB
X21haWwuY29tggkAvolV82UoF5owPAYIKwYBBQUHAQEEMDAuMCwGCCsGAQUFBzAB
hiBodHRwOi8vMTcyLjE3LjIwLjEvcmVzcG9uZGVycGF0aDANBgkqhkiG9w0BAQsF
AAOCAQEAQkNBJVzAJz5690IxyADjorlwqoj9uN1X/7pDG+PNe1WNY+Kz9Rdp/4BV
zEoEVRrA20J5zKz0dXyEK7TsweDgLOZdiKRDYQXTxJDHN5dAVvlGb2af2okhDzeQ
jlLTYf7GsUs5PoWzG2afJbmes/ApJKIW7xyxtC2z/gCrb+2T2Bz3jxXH61uvt/Iy
yETtpIzafSz7U+PlQs9pj5qKTQGSPIAiD9FrDJjUgTvbJ2kEieEYZhilibMRMJ58
TBGzs3EER2m0iG0CymdM5NQc8dS+Ckn/LrLBDrehUvaUtN/znU5hmvP/jcvP0aU5
kNDIfatuvdsMaOxgVTEXmiay+cu3iQ==
-----END CERTIFICATE-----
