Certificate:
    Data:
        Version: 3 (0x2)
        Serial Number: 11042563100285 (0xa0b0c0d0e7d)
    Signature Algorithm: sha256WithRSAEncryption
        Issuer: CN=BHOPALCA_CA, C=IN, O=CITRIX, OU=ANG, ST=KA/emailAddress=BHOPALCA_CA@BHOPALCA_mail.com
        Validity
            Not Before: Aug 23 10:01:25 2017 GMT
            Not After : Aug 21 10:01:25 2027 GMT
        Subject: ST=KA, C=IN, CN=bhopal_22_client/emailAddress=bhopal_22@test_ca.com, O=CITRIX
        Subject Public Key Info:
            Public Key Algorithm: rsaEncryption
                Public-Key: (2048 bit)
                Modulus:
                    00:bb:91:e5:e1:45:9c:f9:6f:9d:0d:1f:7b:d3:0c:
                    76:c0:b9:56:eb:1d:c3:27:59:63:fe:0c:4c:a6:34:
                    36:ff:4c:ec:f7:71:55:06:ba:87:34:dd:31:51:e6:
                    ea:30:13:07:0c:16:c3:89:ae:04:5c:ee:ff:fa:d5:
                    f5:9c:c4:df:2d:98:4f:4d:fd:c6:9d:61:ad:f6:b9:
                    98:e2:ae:15:77:35:a5:92:a2:91:b2:86:b1:4a:d7:
                    9b:95:32:77:c4:ae:dd:9a:de:3c:3a:83:80:06:5a:
                    72:a5:a6:b8:27:53:96:12:28:59:fc:1f:95:ab:6a:
                    14:f0:31:ba:0b:f6:c3:8c:b7:36:28:ab:f0:74:44:
                    ae:53:16:c1:d7:1d:e9:af:ef:d4:74:05:2d:ed:d6:
                    a6:d8:52:0d:d3:7b:fe:e3:e7:34:7f:01:b5:99:e8:
                    51:11:5c:c6:43:92:05:84:7e:e0:30:52:d6:93:65:
                    7b:bc:bb:a3:54:58:27:87:95:ef:ab:c5:f5:7c:10:
                    51:5b:72:9b:b3:d3:a6:2a:97:e9:fb:52:05:c0:6b:
                    e8:00:1c:16:c9:3e:de:0a:e0:08:cc:7a:aa:50:c6:
                    c8:61:95:52:47:d4:6a:1d:e3:f8:82:df:ef:fe:4d:
                    1e:ca:02:38:a9:41:7f:ca:f0:d5:59:11:8c:9a:68:
                    ce:35
                Exponent: 65537 (0x10001)
        X509v3 extensions:
            Netscape Cert Type: 
                SSL Client
            X509v3 Subject Key Identifier: 
                AA:E6:78:A5:D4:15:C8:10:49:86:37:EC:5B:D9:06:27:95:9E:BB:41
            X509v3 Authority Key Identifier: 
                keyid:A6:66:0E:59:0F:3C:5C:11:35:B2:B3:99:59:A9:D3:A6:B1:5E:95:D2
                DirName:/CN=BHOPALCA_CA/C=IN/O=CITRIX/OU=ANG/ST=KA/emailAddress=BHOPALCA_CA@BHOPALCA_mail.com
                serial:BE:89:55:F3:65:28:17:9A

            Authority Information Access: 
                OCSP - URI:http://172.17.20.1/responderpath

    Signature Algorithm: sha256WithRSAEncryption
         50:28:3f:ee:11:b1:73:b6:f9:1e:6e:c3:dd:ad:e8:c8:88:01:
         bc:6a:25:11:04:f8:cf:bf:0d:3e:2d:11:f4:44:db:aa:b9:df:
         9c:ff:dd:80:10:0d:4d:56:a3:5a:3d:c2:fe:a4:8e:22:25:75:
         72:f8:f9:9f:31:5f:1e:c5:12:20:f1:1d:3b:4b:bc:90:89:8b:
         da:a2:18:a9:67:74:f4:0d:b8:e8:53:f1:43:6b:6f:01:34:0d:
         ed:31:05:1b:a8:f1:c5:35:b2:bc:f5:3a:77:f3:5c:99:37:da:
         ec:e3:17:b4:cd:fe:3f:65:cf:de:28:5f:60:7a:5a:cc:a2:b8:
         62:73:c0:e9:06:4b:c4:50:81:e6:b4:88:cb:5f:c8:1b:89:62:
         ca:5a:dc:c5:11:ea:89:39:c2:a4:de:84:cf:a8:28:53:2c:c9:
         ee:bf:5d:4d:3a:1e:b1:4c:b6:3a:de:c5:38:3d:b0:f0:ca:25:
         25:b5:e6:1c:28:4f:86:2c:00:9b:82:2b:10:87:c7:a1:82:af:
         74:b5:37:6b:f2:dd:e9:90:91:38:e5:20:2c:89:2a:03:d7:d1:
         b2:7c:f3:a2:cb:38:38:38:4c:e6:a2:9f:39:53:ef:c5:22:ce:
         c3:e8:9e:82:81:a0:57:15:58:a7:f6:94:7c:20:19:d9:74:e8:
         d4:db:1b:62
-----BEGIN CERTIFICATE-----
MIIEkjCCA3qgAwIBAgIGCgsMDQ59MA0GCSqGSIb3DQEBCwUAMH0xFDASBgNVBAMU
C0JIT1BBTENBX0NBMQswCQYDVQQGEwJJTjEPMA0GA1UEChMGQ0lUUklYMQwwCgYD
VQQLEwNBTkcxCzAJBgNVBAgTAktBMSwwKgYJKoZIhvcNAQkBFh1CSE9QQUxDQV9D
QUBCSE9QQUxDQV9tYWlsLmNvbTAeFw0xNzA4MjMxMDAxMjVaFw0yNzA4MjExMDAx
MjVaMGwxCzAJBgNVBAgTAktBMQswCQYDVQQGEwJJTjEZMBcGA1UEAxQQYmhvcGFs
XzIyX2NsaWVudDEkMCIGCSqGSIb3DQEJARYVYmhvcGFsXzIyQHRlc3RfY2EuY29t
MQ8wDQYDVQQKEwZDSVRSSVgwggEiMA0GCSqGSIb3DQEBAQUAA4IBDwAwggEKAoIB
AQC7keXhRZz5b50NH3vTDHbAuVbrHcMnWWP+DEymNDb/TOz3cVUGuoc03TFR5uow
EwcMFsOJrgRc7v/61fWcxN8tmE9N/cadYa32uZjirhV3NaWSopGyhrFK15uVMnfE
rt2a3jw6g4AGWnKlprgnU5YSKFn8H5WrahTwMboL9sOMtzYoq/B0RK5TFsHXHemv
79R0BS3t1qbYUg3Te/7j5zR/AbWZ6FERXMZDkgWEfuAwUtaTZXu8u6NUWCeHle+r
xfV8EFFbcpuz06Yql+n7UgXAa+gAHBbJPt4K4AjMeqpQxshhlVJH1God4/iC3+/+
TR7KAjipQX/K8NVZEYyaaM41AgMBAAGjggEnMIIBIzARBglghkgBhvhCAQEEBAMC
B4AwHQYDVR0OBBYEFKrmeKXUFcgQSYY37FvZBieVnrtBMIGwBgNVHSMEgagwgaWA
FKZmDlkPPFwRNbKzmVmp06axXpXSoYGBpH8wfTEUMBIGA1UEAxQLQkhPUEFMQ0Ff
Q0ExCzAJBgNVBAYTAklOMQ8wDQYDVQQKEwZDSVRSSVgxDDAKBgNVBAsTA0FORzEL
MAkGA1UECBMCS0ExLDAqBgkqhkiG9w0BCQEWHUJIT1BBTENBX0NBQEJIT1BBTENB
X21haWwuY29tggkAvolV82UoF5owPAYIKwYBBQUHAQEEMDAuMCwGCCsGAQUFBzAB
hiBodHRwOi8vMTcyLjE3LjIwLjEvcmVzcG9uZGVycGF0aDANBgkqhkiG9w0BAQsF
AAOCAQEAUCg/7hGxc7b5Hm7D3a3oyIgBvGolEQT4z78NPi0R9ETbqrnfnP/dgBAN
TVajWj3C/qSOIiV1cvj5nzFfHsUSIPEdO0u8kImL2qIYqWd09A246FPxQ2tvATQN
7TEFG6jxxTWyvPU6d/NcmTfa7OMXtM3+P2XP3ihfYHpazKK4YnPA6QZLxFCB5rSI
y1/IG4liylrcxRHqiTnCpN6Ez6goUyzJ7r9dTToesUy2Ot7FOD2w8MolJbXmHChP
hiwAm4IrEIfHoYKvdLU3a/Ld6ZCROOUgLIkqA9fRsnzzoss4ODhM5qKfOVPvxSLO
w+iegoGgVxVYp/aUfCAZ2XTo1NsbYg==
-----END CERTIFICATE-----
