Certificate:
    Data:
        Version: 3 (0x2)
        Serial Number: 11042563100305 (0xa0b0c0d0e91)
    Signature Algorithm: sha256WithRSAEncryption
        Issuer: CN=BHOPALCA_CA, C=IN, O=CITRIX, OU=ANG, ST=KA/emailAddress=BHOPALCA_CA@BHOPALCA_mail.com
        Validity
            Not Before: Aug 23 10:01:36 2017 GMT
            Not After : Aug 21 10:01:36 2027 GMT
        Subject: ST=KA, C=IN, CN=bhopal_42_client/emailAddress=bhopal_42@test_ca.com, O=CITRIX
        Subject Public Key Info:
            Public Key Algorithm: rsaEncryption
                Public-Key: (2048 bit)
                Modulus:
                    00:de:d7:28:e8:05:31:ba:39:d3:80:71:6f:97:e7:
                    da:60:52:aa:61:61:bf:6f:46:ba:2a:b3:d3:68:4b:
                    21:06:d5:a0:38:1f:7e:6b:45:72:37:1e:94:f2:f6:
                    b3:e0:cf:c6:16:45:53:50:eb:47:fc:f5:29:fe:1e:
                    02:e4:9a:07:25:dd:d2:fa:52:f3:35:e8:e3:c1:df:
                    35:f3:b5:bd:f9:68:f2:d2:49:f8:3c:86:69:19:f1:
                    80:c6:88:8e:89:8f:b1:c9:0c:a8:ee:db:66:8d:b5:
                    f0:47:4d:88:7f:37:21:2f:f8:b8:66:90:cd:2e:ea:
                    05:16:c8:33:2b:33:88:30:05:54:90:02:b6:85:3d:
                    7b:55:79:f1:af:7d:a3:da:42:e9:a5:fb:50:58:3a:
                    64:39:11:f4:78:d9:85:8b:97:b9:40:39:24:47:27:
                    cb:f4:62:fd:7a:63:0a:8a:6d:d9:d0:3b:51:ff:c3:
                    63:3e:3f:36:bb:30:f6:00:37:eb:c9:34:65:0a:f9:
                    00:65:b2:c2:dd:85:8d:4f:98:3f:46:f4:5f:01:d6:
                    27:8a:3d:5f:79:ba:6c:03:68:3b:51:b9:67:c1:e3:
                    1a:5c:71:09:f4:2e:07:27:6a:56:51:d2:11:ca:cd:
                    84:ac:4c:dd:48:f1:3f:4f:e6:1a:c7:39:a9:75:9f:
                    a9:63
                Exponent: 65537 (0x10001)
        X509v3 extensions:
            Netscape Cert Type: 
                SSL Client
            X509v3 Subject Key Identifier: 
                36:D8:20:CE:78:1D:5A:CD:FF:0D:9E:9E:95:CE:2F:62:B8:6D:5C:E5
            X509v3 Authority Key Identifier: 
                keyid:A6:66:0E:59:0F:3C:5C:11:35:B2:B3:99:59:A9:D3:A6:B1:5E:95:D2
                DirName:/CN=BHOPALCA_CA/C=IN/O=CITRIX/OU=ANG/ST=KA/emailAddress=BHOPALCA_CA@BHOPALCA_mail.com
                serial:BE:89:55:F3:65:28:17:9A

            Authority Information Access: 
                OCSP - URI:http://172.17.20.1/responderpath

    Signature Algorithm: sha256WithRSAEncryption
         60:5c:dd:24:33:cc:20:2a:37:ca:88:52:27:93:a8:73:34:1d:
         11:17:b7:fd:cc:2c:4d:d6:0a:81:0c:09:35:2a:58:43:22:e1:
         84:e0:92:c7:96:08:94:87:6e:ac:97:a7:86:82:4b:76:03:71:
         cb:bc:97:d1:93:d9:e1:f9:b0:ec:40:61:a4:5b:a5:46:65:ff:
         94:61:f8:50:07:24:77:27:64:43:4c:84:6b:e5:6f:0a:a5:f1:
         50:a2:91:db:50:cc:57:7f:aa:82:34:04:6d:5a:3a:7a:d6:85:
         df:83:ed:d2:48:ee:78:39:a3:de:34:b1:91:59:d9:a4:a7:83:
         04:84:14:b3:b3:ce:0f:4d:c5:87:af:cb:58:f1:5a:a6:6c:34:
         20:b5:dc:3e:92:bf:1d:33:cf:ec:ec:9a:f2:47:6a:9e:99:39:
         4e:7e:17:4a:0c:3b:cc:7a:03:24:4b:a6:00:7e:ce:9a:80:df:
         93:d0:69:aa:13:72:1d:11:f1:31:8b:dd:da:ab:45:4e:03:cc:
         ce:13:8b:67:6d:19:fc:ca:98:14:d3:7c:ba:18:33:9d:a4:47:
         d0:94:72:06:4c:13:1f:55:f2:e8:75:a1:8a:03:51:da:85:1e:
         ae:77:23:f0:01:b8:16:b1:f0:b2:a5:00:91:48:38:b4:c3:00:
         5f:fc:c5:52
-----BEGIN CERTIFICATE-----
MIIEkjCCA3qgAwIBAgIGCgsMDQ6RMA0GCSqGSIb3DQEBCwUAMH0xFDASBgNVBAMU
C0JIT1BBTENBX0NBMQswCQYDVQQGEwJJTjEPMA0GA1UEChMGQ0lUUklYMQwwCgYD
VQQLEwNBTkcxCzAJBgNVBAgTAktBMSwwKgYJKoZIhvcNAQkBFh1CSE9QQUxDQV9D
QUBCSE9QQUxDQV9tYWlsLmNvbTAeFw0xNzA4MjMxMDAxMzZaFw0yNzA4MjExMDAx
MzZaMGwxCzAJBgNVBAgTAktBMQswCQYDVQQGEwJJTjEZMBcGA1UEAxQQYmhvcGFs
XzQyX2NsaWVudDEkMCIGCSqGSIb3DQEJARYVYmhvcGFsXzQyQHRlc3RfY2EuY29t
MQ8wDQYDVQQKEwZDSVRSSVgwggEiMA0GCSqGSIb3DQEBAQUAA4IBDwAwggEKAoIB
AQDe1yjoBTG6OdOAcW+X59pgUqphYb9vRroqs9NoSyEG1aA4H35rRXI3HpTy9rPg
z8YWRVNQ60f89Sn+HgLkmgcl3dL6UvM16OPB3zXztb35aPLSSfg8hmkZ8YDGiI6J
j7HJDKju22aNtfBHTYh/NyEv+LhmkM0u6gUWyDMrM4gwBVSQAraFPXtVefGvfaPa
Quml+1BYOmQ5EfR42YWLl7lAOSRHJ8v0Yv16YwqKbdnQO1H/w2M+Pza7MPYAN+vJ
NGUK+QBlssLdhY1PmD9G9F8B1ieKPV95umwDaDtRuWfB4xpccQn0LgcnalZR0hHK
zYSsTN1I8T9P5hrHOal1n6ljAgMBAAGjggEnMIIBIzARBglghkgBhvhCAQEEBAMC
B4AwHQYDVR0OBBYEFDbYIM54HVrN/w2enpXOL2K4bVzlMIGwBgNVHSMEgagwgaWA
FKZmDlkPPFwRNbKzmVmp06axXpXSoYGBpH8wfTEUMBIGA1UEAxQLQkhPUEFMQ0Ff
Q0ExCzAJBgNVBAYTAklOMQ8wDQYDVQQKEwZDSVRSSVgxDDAKBgNVBAsTA0FORzEL
MAkGA1UECBMCS0ExLDAqBgkqhkiG9w0BCQEWHUJIT1BBTENBX0NBQEJIT1BBTENB
X21haWwuY29tggkAvolV82UoF5owPAYIKwYBBQUHAQEEMDAuMCwGCCsGAQUFBzAB
hiBodHRwOi8vMTcyLjE3LjIwLjEvcmVzcG9uZGVycGF0aDANBgkqhkiG9w0BAQsF
AAOCAQEAYFzdJDPMICo3yohSJ5OoczQdERe3/cwsTdYKgQwJNSpYQyLhhOCSx5YI
lIdurJenhoJLdgNxy7yX0ZPZ4fmw7EBhpFulRmX/lGH4UAckdydkQ0yEa+VvCqXx
UKKR21DMV3+qgjQEbVo6etaF34Pt0kjueDmj3jSxkVnZpKeDBIQUs7POD03Fh6/L
WPFapmw0ILXcPpK/HTPP7Oya8kdqnpk5Tn4XSgw7zHoDJEumAH7OmoDfk9BpqhNy
HRHxMYvd2qtFTgPMzhOLZ20Z/MqYFNN8uhgznaRH0JRyBkwTH1Xy6HWhigNR2oUe
rncj8AG4FrHwsqUAkUg4tMMAX/zFUg==
-----END CERTIFICATE-----
