Certificate:
    Data:
        Version: 3 (0x2)
        Serial Number: 11042563100182 (0xa0b0c0d0e16)
    Signature Algorithm: sha256WithRSAEncryption
        Issuer: CN=BHOPALCA_CA, C=IN, O=CITRIX, OU=ANG, ST=KA/emailAddress=BHOPALCA_CA@BHOPALCA_mail.com
        Validity
            Not Before: Jul  8 04:32:34 2016 GMT
            Not After : Jul  6 04:32:34 2026 GMT
        Subject: ST=KA, C=IN, CN=108_BHOPALCA_server/emailAddress=108_BHOPALCA@test_ca.com, O=CITRIX
        Subject Public Key Info:
            Public Key Algorithm: rsaEncryption
                Public-Key: (2048 bit)
                Modulus:
                    00:ce:ac:7d:25:7b:6f:7e:bd:5f:5e:c5:6c:74:1e:
                    80:24:e9:d8:b1:f4:3c:73:69:9d:67:8c:7e:7e:0e:
                    9a:52:0c:e2:4a:12:0b:f1:e9:2f:8a:52:a6:7b:10:
                    ff:47:bb:a6:07:fb:71:eb:1d:77:92:83:86:54:13:
                    9d:f6:30:f4:2c:d6:03:11:71:26:fd:82:9a:ba:3e:
                    47:79:45:eb:22:f4:9e:c2:0e:f1:25:92:fe:1b:09:
                    82:3a:2c:44:d5:b6:b9:8f:b7:29:77:7a:ce:18:f7:
                    ea:c4:55:d5:15:4b:6f:e9:ac:37:aa:c6:5a:53:30:
                    ae:63:fd:b2:14:a2:d8:17:4f:2e:fd:ca:d2:f1:a4:
                    78:7a:4b:10:96:6a:45:c6:63:a3:ba:87:28:bc:10:
                    e6:17:cf:d4:df:cc:a5:ef:5e:1a:9c:40:5c:4a:86:
                    a5:d5:78:ee:0f:8b:7c:73:f2:5d:6f:02:f7:2c:c4:
                    28:7e:1e:a4:5c:c0:e3:99:03:82:d8:2b:df:bd:40:
                    df:d5:50:ac:84:a7:b0:45:56:1e:1e:70:6f:22:06:
                    f3:90:a1:bd:42:bb:d8:bb:bc:da:00:9a:eb:30:48:
                    98:6a:34:b5:68:24:d7:3c:5e:d6:4d:65:9d:fd:db:
                    d0:fc:99:d2:c0:3c:0b:b5:a5:f8:5a:11:00:88:f3:
                    f9:7b
                Exponent: 65537 (0x10001)
        X509v3 extensions:
            Netscape Cert Type: 
                SSL Server
            X509v3 Subject Key Identifier: 
                D6:48:4C:CE:75:6D:92:BD:6C:5D:74:E7:9F:C7:0A:D9:F3:F6:06:20
            X509v3 Authority Key Identifier: 
                keyid:A6:66:0E:59:0F:3C:5C:11:35:B2:B3:99:59:A9:D3:A6:B1:5E:95:D2
                DirName:/CN=BHOPALCA_CA/C=IN/O=CITRIX/OU=ANG/ST=KA/emailAddress=BHOPALCA_CA@BHOPALCA_mail.com
                serial:BE:89:55:F3:65:28:17:9A

            Authority Information Access: 
                OCSP - URI:http://BHOPALCA_one.ocsptest.com/responderpath

    Signature Algorithm: sha256WithRSAEncryption
         29:02:45:b1:3b:6c:ab:c6:83:2e:3b:2d:b1:b2:32:fa:ab:04:
         48:9f:54:ab:25:00:12:af:90:f6:18:d6:20:b9:c6:44:6c:1e:
         9c:fb:07:ad:1c:21:96:fd:98:fb:97:aa:9b:23:78:76:b6:8f:
         45:bd:21:10:16:f3:99:a4:0e:12:ef:f5:2a:00:c3:7c:07:08:
         ff:87:f4:79:b5:b1:19:86:47:8e:92:be:65:14:f5:90:a8:8e:
         c0:5d:c2:32:1e:9d:e9:bb:3a:8f:77:5c:d0:68:7a:e4:9e:cb:
         53:fa:ad:8f:7c:43:5d:f3:6f:a1:ee:cb:bb:79:33:44:94:31:
         0b:f0:0d:5b:fe:7e:c0:89:f9:81:ae:0a:3e:e6:f5:ea:6f:3c:
         5d:fc:ff:6f:8b:11:7c:0d:98:45:6c:55:ca:99:0d:da:74:f2:
         5e:85:fb:b9:3b:94:fa:de:e6:73:81:ff:17:4f:b5:8c:a4:af:
         ae:2e:17:ca:b8:e3:3a:bc:74:fb:49:9f:29:11:1a:d1:92:37:
         a5:cd:16:0a:cf:6f:8b:73:75:38:87:03:e0:5c:19:44:76:63:
         78:2c:48:e3:19:be:16:4d:97:18:64:85:c8:a3:9d:17:6d:08:
         98:13:75:cb:ce:16:84:76:e4:86:a8:60:24:84:76:ef:4d:7d:
         62:1e:b0:5e
-----BEGIN CERTIFICATE-----
MIIEpjCCA46gAwIBAgIGCgsMDQ4WMA0GCSqGSIb3DQEBCwUAMH0xFDASBgNVBAMU
C0JIT1BBTENBX0NBMQswCQYDVQQGEwJJTjEPMA0GA1UEChMGQ0lUUklYMQwwCgYD
VQQLEwNBTkcxCzAJBgNVBAgTAktBMSwwKgYJKoZIhvcNAQkBFh1CSE9QQUxDQV9D
QUBCSE9QQUxDQV9tYWlsLmNvbTAeFw0xNjA3MDgwNDMyMzRaFw0yNjA3MDYwNDMy
MzRaMHIxCzAJBgNVBAgTAktBMQswCQYDVQQGEwJJTjEcMBoGA1UEAxQTMTA4X0JI
T1BBTENBX3NlcnZlcjEnMCUGCSqGSIb3DQEJARYYMTA4X0JIT1BBTENBQHRlc3Rf
Y2EuY29tMQ8wDQYDVQQKEwZDSVRSSVgwggEiMA0GCSqGSIb3DQEBAQUAA4IBDwAw
ggEKAoIBAQDOrH0le29+vV9exWx0HoAk6dix9DxzaZ1njH5+DppSDOJKEgvx6S+K
UqZ7EP9Hu6YH+3HrHXeSg4ZUE532MPQs1gMRcSb9gpq6Pkd5Resi9J7CDvElkv4b
CYI6LETVtrmPtyl3es4Y9+rEVdUVS2/prDeqxlpTMK5j/bIUotgXTy79ytLxpHh6
SxCWakXGY6O6hyi8EOYXz9TfzKXvXhqcQFxKhqXVeO4Pi3xz8l1vAvcsxCh+HqRc
wOOZA4LYK9+9QN/VUKyEp7BFVh4ecG8iBvOQob1Cu9i7vNoAmuswSJhqNLVoJNc8
XtZNZZ3929D8mdLAPAu1pfhaEQCI8/l7AgMBAAGjggE1MIIBMTARBglghkgBhvhC
AQEEBAMCBkAwHQYDVR0OBBYEFNZITM51bZK9bF1055/HCtnz9gYgMIGwBgNVHSME
gagwgaWAFKZmDlkPPFwRNbKzmVmp06axXpXSoYGBpH8wfTEUMBIGA1UEAxQLQkhP
UEFMQ0FfQ0ExCzAJBgNVBAYTAklOMQ8wDQYDVQQKEwZDSVRSSVgxDDAKBgNVBAsT
A0FORzELMAkGA1UECBMCS0ExLDAqBgkqhkiG9w0BCQEWHUJIT1BBTENBX0NBQEJI
T1BBTENBX21haWwuY29tggkAvolV82UoF5owSgYIKwYBBQUHAQEEPjA8MDoGCCsG
AQUFBzABhi5odHRwOi8vQkhPUEFMQ0Ffb25lLm9jc3B0ZXN0LmNvbS9yZXNwb25k
ZXJwYXRoMA0GCSqGSIb3DQEBCwUAA4IBAQApAkWxO2yrxoMuOy2xsjL6qwRIn1Sr
JQASr5D2GNYgucZEbB6c+wetHCGW/Zj7l6qbI3h2to9FvSEQFvOZpA4S7/UqAMN8
Bwj/h/R5tbEZhkeOkr5lFPWQqI7AXcIyHp3puzqPd1zQaHrknstT+q2PfENd82+h
7su7eTNElDEL8A1b/n7AifmBrgo+5vXqbzxd/P9vixF8DZhFbFXKmQ3adPJehfu5
O5T63uZzgf8XT7WMpK+uLhfKuOM6vHT7SZ8pERrRkjelzRYKz2+Lc3U4hwPgXBlE
dmN4LEjjGb4WTZcYZIXIo50XbQiYE3XLzhaEduSGqGAkhHbvTX1iHrBe
-----END CERTIFICATE-----
