Certificate:
    Data:
        Version: 3 (0x2)
        Serial Number: 11042563100175 (0xa0b0c0d0e0f)
    Signature Algorithm: sha256WithRSAEncryption
        Issuer: CN=BHOPALCA_CA, C=IN, O=CITRIX, OU=ANG, ST=KA/emailAddress=BHOPALCA_CA@BHOPALCA_mail.com
        Validity
            Not Before: Jul  8 04:32:32 2016 GMT
            Not After : Jul  6 04:32:32 2026 GMT
        Subject: ST=KA, C=IN, CN=101_BHOPALCA_server/emailAddress=101_BHOPALCA@test_ca.com, O=CITRIX
        Subject Public Key Info:
            Public Key Algorithm: rsaEncryption
                Public-Key: (2048 bit)
                Modulus:
                    00:95:89:83:ab:a9:2e:6b:53:c2:f6:6b:a7:2c:97:
                    1c:1a:72:f9:18:0b:c9:6e:c6:40:de:69:fe:a6:8d:
                    25:56:a9:a3:ac:da:f0:47:73:da:e7:f7:70:93:e0:
                    93:16:ed:6c:0d:04:ca:53:9e:94:38:96:4c:12:5f:
                    8a:35:18:9a:fc:24:a2:f0:2c:d0:89:03:25:f4:3c:
                    8d:0c:cf:65:77:5a:e0:9a:5a:5c:9a:42:bc:06:a7:
                    b9:17:91:b6:1d:27:d4:4d:57:7f:99:3d:e0:fe:bc:
                    a2:14:0a:bc:63:99:5d:77:30:a4:4b:40:03:3d:25:
                    d6:82:05:05:58:36:d8:c6:32:f7:e1:ac:6d:26:78:
                    2e:09:4b:8e:59:b3:43:1b:fb:3e:78:89:93:da:15:
                    30:d9:f5:75:fb:52:d3:f0:fd:c5:69:e7:4e:84:dd:
                    45:26:3c:1b:5d:17:43:f9:de:27:54:02:30:bb:d8:
                    17:c8:26:88:e7:ee:98:66:60:24:7f:d8:2c:51:21:
                    93:be:de:ac:7e:18:02:80:78:74:04:72:a9:e4:b2:
                    67:92:c4:f4:9e:c3:25:2f:1b:6f:b2:cf:e6:0e:70:
                    02:3a:c6:32:a7:d3:f9:2b:1a:cd:6c:8e:45:58:ee:
                    b5:03:6c:b7:25:ac:25:e5:67:02:59:3b:59:07:f8:
                    d3:89
                Exponent: 65537 (0x10001)
        X509v3 extensions:
            Netscape Cert Type: 
                SSL Server
            X509v3 Subject Key Identifier: 
                DF:98:E5:72:99:D4:39:04:4F:3A:01:D5:02:28:DD:ED:20:18:2E:DB
            X509v3 Authority Key Identifier: 
                keyid:A6:66:0E:59:0F:3C:5C:11:35:B2:B3:99:59:A9:D3:A6:B1:5E:95:D2
                DirName:/CN=BHOPALCA_CA/C=IN/O=CITRIX/OU=ANG/ST=KA/emailAddress=BHOPALCA_CA@BHOPALCA_mail.com
                serial:BE:89:55:F3:65:28:17:9A

            Authority Information Access: 
                OCSP - URI:http://BHOPALCA_one.ocsptest.com/responderpath

    Signature Algorithm: sha256WithRSAEncryption
         00:8b:54:68:65:5a:bc:40:52:2a:76:b6:4b:b5:41:b2:41:60:
         57:f7:e3:46:9d:30:16:d1:ef:99:9b:46:ab:07:be:a7:81:90:
         d1:72:50:12:02:0f:a6:a6:33:b9:df:ef:e5:a7:0a:9e:6a:82:
         7c:31:f9:f9:e6:c7:f3:6d:f3:ee:b0:52:dc:dd:77:6f:80:eb:
         8b:bd:0e:af:ea:e8:08:a2:76:d6:84:42:45:99:35:8b:d1:56:
         51:f5:28:4a:94:f2:9c:38:c1:9b:c5:b9:73:4a:1f:c0:67:22:
         38:26:98:c8:2c:75:53:80:72:5a:15:90:0a:65:1a:d0:77:9c:
         06:e4:00:76:ea:c9:fc:9b:78:51:ed:96:f8:e3:9b:7e:0b:6b:
         bb:6c:82:60:9b:27:d1:0d:61:ad:e4:a0:8c:62:a4:f2:9a:4e:
         b8:e7:fa:3a:10:08:5d:c6:08:29:24:37:d6:8f:6b:00:65:16:
         db:40:d3:77:ee:e1:c3:60:92:2c:de:62:5c:6c:a8:fc:11:3b:
         14:23:4f:b0:86:fe:d2:b9:2b:2c:c1:2e:23:50:f0:45:26:78:
         5f:40:52:b6:f5:db:a4:9d:ad:68:a2:36:9a:4b:6b:c3:52:49:
         82:f7:1e:ff:6e:83:7c:4e:2d:66:05:73:05:4c:c7:2f:d6:48:
         8f:de:40:68
-----BEGIN CERTIFICATE-----
MIIEpjCCA46gAwIBAgIGCgsMDQ4PMA0GCSqGSIb3DQEBCwUAMH0xFDASBgNVBAMU
C0JIT1BBTENBX0NBMQswCQYDVQQGEwJJTjEPMA0GA1UEChMGQ0lUUklYMQwwCgYD
VQQLEwNBTkcxCzAJBgNVBAgTAktBMSwwKgYJKoZIhvcNAQkBFh1CSE9QQUxDQV9D
QUBCSE9QQUxDQV9tYWlsLmNvbTAeFw0xNjA3MDgwNDMyMzJaFw0yNjA3MDYwNDMy
MzJaMHIxCzAJBgNVBAgTAktBMQswCQYDVQQGEwJJTjEcMBoGA1UEAxQTMTAxX0JI
T1BBTENBX3NlcnZlcjEnMCUGCSqGSIb3DQEJARYYMTAxX0JIT1BBTENBQHRlc3Rf
Y2EuY29tMQ8wDQYDVQQKEwZDSVRSSVgwggEiMA0GCSqGSIb3DQEBAQUAA4IBDwAw
ggEKAoIBAQCViYOrqS5rU8L2a6cslxwacvkYC8luxkDeaf6mjSVWqaOs2vBHc9rn
93CT4JMW7WwNBMpTnpQ4lkwSX4o1GJr8JKLwLNCJAyX0PI0Mz2V3WuCaWlyaQrwG
p7kXkbYdJ9RNV3+ZPeD+vKIUCrxjmV13MKRLQAM9JdaCBQVYNtjGMvfhrG0meC4J
S45Zs0Mb+z54iZPaFTDZ9XX7UtPw/cVp506E3UUmPBtdF0P53idUAjC72BfIJojn
7phmYCR/2CxRIZO+3qx+GAKAeHQEcqnksmeSxPSewyUvG2+yz+YOcAI6xjKn0/kr
Gs1sjkVY7rUDbLclrCXlZwJZO1kH+NOJAgMBAAGjggE1MIIBMTARBglghkgBhvhC
AQEEBAMCBkAwHQYDVR0OBBYEFN+Y5XKZ1DkETzoB1QIo3e0gGC7bMIGwBgNVHSME
gagwgaWAFKZmDlkPPFwRNbKzmVmp06axXpXSoYGBpH8wfTEUMBIGA1UEAxQLQkhP
UEFMQ0FfQ0ExCzAJBgNVBAYTAklOMQ8wDQYDVQQKEwZDSVRSSVgxDDAKBgNVBAsT
A0FORzELMAkGA1UECBMCS0ExLDAqBgkqhkiG9w0BCQEWHUJIT1BBTENBX0NBQEJI
T1BBTENBX21haWwuY29tggkAvolV82UoF5owSgYIKwYBBQUHAQEEPjA8MDoGCCsG
AQUFBzABhi5odHRwOi8vQkhPUEFMQ0Ffb25lLm9jc3B0ZXN0LmNvbS9yZXNwb25k
ZXJwYXRoMA0GCSqGSIb3DQEBCwUAA4IBAQAAi1RoZVq8QFIqdrZLtUGyQWBX9+NG
nTAW0e+Zm0arB76ngZDRclASAg+mpjO53+/lpwqeaoJ8Mfn55sfzbfPusFLc3Xdv
gOuLvQ6v6ugIonbWhEJFmTWL0VZR9ShKlPKcOMGbxblzSh/AZyI4JpjILHVTgHJa
FZAKZRrQd5wG5AB26sn8m3hR7Zb445t+C2u7bIJgmyfRDWGt5KCMYqTymk645/o6
EAhdxggpJDfWj2sAZRbbQNN37uHDYJIs3mJcbKj8ETsUI0+whv7SuSsswS4jUPBF
JnhfQFK29dukna1oojaaS2vDUkmC9x7/boN8Ti1mBXMFTMcv1kiP3kBo
-----END CERTIFICATE-----
