Certificate:
    Data:
        Version: 3 (0x2)
        Serial Number: 11042563100181 (0xa0b0c0d0e15)
    Signature Algorithm: sha256WithRSAEncryption
        Issuer: CN=BHOPALCA_CA, C=IN, O=CITRIX, OU=ANG, ST=KA/emailAddress=BHOPALCA_CA@BHOPALCA_mail.com
        Validity
            Not Before: Jul  8 04:32:34 2016 GMT
            Not After : Jul  6 04:32:34 2026 GMT
        Subject: ST=KA, C=IN, CN=107_BHOPALCA_server/emailAddress=107_BHOPALCA@test_ca.com, O=CITRIX
        Subject Public Key Info:
            Public Key Algorithm: rsaEncryption
                Public-Key: (2048 bit)
                Modulus:
                    00:d6:ec:2b:f8:10:cb:2f:3d:bc:49:bf:fe:a4:bc:
                    bb:f4:51:d9:c2:ae:9f:08:8b:65:83:ca:0d:fb:53:
                    39:7e:c6:8c:fa:34:8a:f5:a7:a7:6b:42:e9:66:44:
                    65:48:97:b0:d1:55:08:73:ce:ae:49:a1:51:d7:97:
                    08:3b:72:91:c5:bd:d1:5f:7e:d9:9e:f5:b1:06:d4:
                    43:40:65:e0:54:33:b8:43:b1:ab:99:e7:3c:70:80:
                    91:63:2a:b4:c7:c9:93:66:18:6a:e2:27:52:3c:24:
                    05:8c:06:0d:de:48:94:f9:6e:da:43:fe:84:9a:1b:
                    1f:64:ac:61:12:e7:d7:2f:7c:1b:2b:06:b5:9a:79:
                    aa:75:66:c2:1c:63:ee:c4:b4:d7:05:66:1e:d8:13:
                    26:79:4b:ac:22:e2:bd:db:6c:8c:78:42:4e:90:f9:
                    33:d9:87:17:a0:d7:9a:6e:27:ce:65:11:64:45:86:
                    49:0a:98:c7:a1:a6:9d:0e:ae:d4:5f:16:3b:b1:14:
                    0f:b6:30:9d:a2:7e:5e:e2:4f:f5:a7:3a:9f:7e:12:
                    cd:10:89:c2:56:21:e3:71:26:cb:47:de:a0:b9:73:
                    fe:95:2b:cb:05:77:3c:dd:03:0f:cd:1d:1c:1f:c7:
                    b4:56:bf:9e:a7:c5:67:2c:d8:ac:94:2b:04:ef:af:
                    83:b9
                Exponent: 65537 (0x10001)
        X509v3 extensions:
            Netscape Cert Type: 
                SSL Server
            X509v3 Subject Key Identifier: 
                30:A3:27:E2:2D:9A:F6:D2:3C:B5:8C:B8:60:30:EB:CE:99:02:28:10
            X509v3 Authority Key Identifier: 
                keyid:A6:66:0E:59:0F:3C:5C:11:35:B2:B3:99:59:A9:D3:A6:B1:5E:95:D2
                DirName:/CN=BHOPALCA_CA/C=IN/O=CITRIX/OU=ANG/ST=KA/emailAddress=BHOPALCA_CA@BHOPALCA_mail.com
                serial:BE:89:55:F3:65:28:17:9A

            Authority Information Access: 
                OCSP - URI:http://BHOPALCA_one.ocsptest.com/responderpath

    Signature Algorithm: sha256WithRSAEncryption
         53:5e:c2:f4:da:a7:e2:90:69:9a:5e:c9:85:28:91:97:2d:ce:
         96:1a:4c:6a:38:3c:cd:39:4a:51:77:ad:17:5d:11:45:bd:30:
         31:17:45:ce:40:12:d5:c9:04:4b:89:5f:d9:5d:bf:87:56:f6:
         ed:3f:5e:8c:c6:60:cb:e9:65:02:b3:64:ef:d7:b0:72:84:40:
         7d:5f:be:69:46:91:0a:f8:79:74:40:e5:46:e7:3c:1a:92:ef:
         7e:32:b3:7c:ad:1d:50:a4:76:93:d5:55:2a:6f:a1:cb:89:11:
         53:10:8c:a4:cb:22:c1:7b:b2:9e:9f:5e:ab:9b:30:e5:18:56:
         23:30:c7:28:4d:18:25:33:cc:a1:21:13:9e:9d:d3:e7:e2:6b:
         e8:1a:a3:10:40:b6:f4:2b:15:34:d8:25:ef:99:66:6f:e0:92:
         a3:ae:7a:5c:30:e8:4e:18:c4:39:25:2a:11:5a:64:e1:9a:2e:
         ed:68:56:81:e4:37:04:f0:d1:97:ae:62:a1:f2:72:25:0a:81:
         74:ea:54:8e:a9:36:9d:49:22:c7:9f:a9:57:a1:3f:c5:52:ae:
         6d:44:80:b3:16:cc:79:dd:9e:b6:c8:05:d3:68:fb:2e:8e:21:
         46:dd:d1:ec:ce:59:39:8d:b8:7d:4d:d0:3f:7a:60:cb:5c:90:
         17:09:78:c3
-----BEGIN CERTIFICATE-----
MIIEpjCCA46gAwIBAgIGCgsMDQ4VMA0GCSqGSIb3DQEBCwUAMH0xFDASBgNVBAMU
C0JIT1BBTENBX0NBMQswCQYDVQQGEwJJTjEPMA0GA1UEChMGQ0lUUklYMQwwCgYD
VQQLEwNBTkcxCzAJBgNVBAgTAktBMSwwKgYJKoZIhvcNAQkBFh1CSE9QQUxDQV9D
QUBCSE9QQUxDQV9tYWlsLmNvbTAeFw0xNjA3MDgwNDMyMzRaFw0yNjA3MDYwNDMy
MzRaMHIxCzAJBgNVBAgTAktBMQswCQYDVQQGEwJJTjEcMBoGA1UEAxQTMTA3X0JI
T1BBTENBX3NlcnZlcjEnMCUGCSqGSIb3DQEJARYYMTA3X0JIT1BBTENBQHRlc3Rf
Y2EuY29tMQ8wDQYDVQQKEwZDSVRSSVgwggEiMA0GCSqGSIb3DQEBAQUAA4IBDwAw
ggEKAoIBAQDW7Cv4EMsvPbxJv/6kvLv0UdnCrp8Ii2WDyg37Uzl+xoz6NIr1p6dr
QulmRGVIl7DRVQhzzq5JoVHXlwg7cpHFvdFfftme9bEG1ENAZeBUM7hDsauZ5zxw
gJFjKrTHyZNmGGriJ1I8JAWMBg3eSJT5btpD/oSaGx9krGES59cvfBsrBrWaeap1
ZsIcY+7EtNcFZh7YEyZ5S6wi4r3bbIx4Qk6Q+TPZhxeg15puJ85lEWRFhkkKmMeh
pp0OrtRfFjuxFA+2MJ2ifl7iT/WnOp9+Es0QicJWIeNxJstH3qC5c/6VK8sFdzzd
Aw/NHRwfx7RWv56nxWcs2KyUKwTvr4O5AgMBAAGjggE1MIIBMTARBglghkgBhvhC
AQEEBAMCBkAwHQYDVR0OBBYEFDCjJ+ItmvbSPLWMuGAw686ZAigQMIGwBgNVHSME
gagwgaWAFKZmDlkPPFwRNbKzmVmp06axXpXSoYGBpH8wfTEUMBIGA1UEAxQLQkhP
UEFMQ0FfQ0ExCzAJBgNVBAYTAklOMQ8wDQYDVQQKEwZDSVRSSVgxDDAKBgNVBAsT
A0FORzELMAkGA1UECBMCS0ExLDAqBgkqhkiG9w0BCQEWHUJIT1BBTENBX0NBQEJI
T1BBTENBX21haWwuY29tggkAvolV82UoF5owSgYIKwYBBQUHAQEEPjA8MDoGCCsG
AQUFBzABhi5odHRwOi8vQkhPUEFMQ0Ffb25lLm9jc3B0ZXN0LmNvbS9yZXNwb25k
ZXJwYXRoMA0GCSqGSIb3DQEBCwUAA4IBAQBTXsL02qfikGmaXsmFKJGXLc6WGkxq
ODzNOUpRd60XXRFFvTAxF0XOQBLVyQRLiV/ZXb+HVvbtP16MxmDL6WUCs2Tv17By
hEB9X75pRpEK+Hl0QOVG5zwaku9+MrN8rR1QpHaT1VUqb6HLiRFTEIykyyLBe7Ke
n16rmzDlGFYjMMcoTRglM8yhIROendPn4mvoGqMQQLb0KxU02CXvmWZv4JKjrnpc
MOhOGMQ5JSoRWmThmi7taFaB5DcE8NGXrmKh8nIlCoF06lSOqTadSSLHn6lXoT/F
Uq5tRICzFsx53Z62yAXTaPsujiFG3dHszlk5jbh9TdA/emDLXJAXCXjD
-----END CERTIFICATE-----
