Certificate:
    Data:
        Version: 3 (0x2)
        Serial Number: 11042563100192 (0xa0b0c0d0e20)
    Signature Algorithm: sha256WithRSAEncryption
        Issuer: CN=BHOPALCA_CA, C=IN, O=CITRIX, OU=ANG, ST=KA/emailAddress=BHOPALCA_CA@BHOPALCA_mail.com
        Validity
            Not Before: Jul  8 04:32:36 2016 GMT
            Not After : Jul  6 04:32:36 2026 GMT
        Subject: ST=KA, C=IN, CN=118_BHOPALCA_server/emailAddress=118_BHOPALCA@test_ca.com, O=CITRIX
        Subject Public Key Info:
            Public Key Algorithm: rsaEncryption
                Public-Key: (2048 bit)
                Modulus:
                    00:da:ae:6b:1d:aa:54:aa:86:14:a8:19:97:7f:46:
                    1b:24:c5:2a:90:5f:f2:c5:0f:c9:db:3e:de:ad:7a:
                    6d:11:01:99:e6:fe:d7:c3:cd:f7:04:a0:d1:b2:fd:
                    af:b6:13:e5:cb:a0:7e:51:74:91:d2:6a:6e:cf:ab:
                    9b:8a:74:82:2d:98:e2:9c:c5:50:eb:85:b3:70:c5:
                    7b:76:d9:f5:35:59:4b:69:f3:23:7f:b2:4e:c8:64:
                    ea:e1:da:db:7f:f9:02:38:46:0a:99:13:d9:d5:3e:
                    02:e8:86:e9:0d:2d:7a:b4:bd:d0:48:90:62:7c:c8:
                    8f:b9:c3:e4:88:a4:f4:81:a6:25:29:48:eb:a5:3e:
                    ee:50:71:7f:53:b4:57:52:53:96:0c:dd:74:b4:7d:
                    ca:79:82:90:d0:03:33:16:89:fc:6d:bf:ac:71:59:
                    d3:11:90:3e:7a:0f:76:ff:27:a3:fa:a9:5f:50:29:
                    b6:9b:9a:2f:7f:f2:ca:21:62:4c:1a:86:63:1b:45:
                    b9:07:f6:3d:cd:b8:38:86:fa:2c:93:d1:13:a1:25:
                    ab:8c:0d:7d:aa:de:e3:fd:12:57:c6:35:14:00:2b:
                    28:cb:bb:00:02:ec:69:30:d8:50:2f:ce:11:02:4f:
                    2b:97:53:00:44:93:2d:9a:e3:49:a1:1c:37:6e:a1:
                    84:7b
                Exponent: 65537 (0x10001)
        X509v3 extensions:
            Netscape Cert Type: 
                SSL Server
            X509v3 Subject Key Identifier: 
                77:89:FA:EC:A9:FD:22:51:43:AB:89:D5:B9:E6:E9:B7:B7:E9:3C:62
            X509v3 Authority Key Identifier: 
                keyid:A6:66:0E:59:0F:3C:5C:11:35:B2:B3:99:59:A9:D3:A6:B1:5E:95:D2
                DirName:/CN=BHOPALCA_CA/C=IN/O=CITRIX/OU=ANG/ST=KA/emailAddress=BHOPALCA_CA@BHOPALCA_mail.com
                serial:BE:89:55:F3:65:28:17:9A

            Authority Information Access: 
                OCSP - URI:http://BHOPALCA_two.ocsptest.com/responderpath

    Signature Algorithm: sha256WithRSAEncryption
         3f:c7:78:fa:51:03:14:0a:52:1b:9a:92:ea:ad:ff:12:da:eb:
         cd:ea:e3:38:bf:10:b2:c2:59:91:af:83:23:19:ba:a8:df:d8:
         a6:a8:db:55:29:33:a1:66:a9:f9:2e:3c:09:6e:00:16:da:00:
         ab:c7:9e:27:d9:a3:89:66:d9:9c:2d:7c:c3:27:47:ca:04:f2:
         49:a0:17:ba:cc:a4:b7:e4:ba:23:84:43:0a:b3:04:6c:74:c7:
         74:8b:29:a5:b5:de:c3:fb:18:0b:b5:13:a0:47:7c:e8:85:3a:
         2a:60:45:b5:6e:53:b3:eb:29:9d:8d:fd:d7:89:69:4a:2b:0f:
         ff:f0:2a:7a:fe:cc:67:5a:b4:3b:3a:49:f6:6b:09:e2:24:4c:
         1c:03:cb:97:ef:42:e9:85:8b:5c:86:27:53:5e:6a:51:c1:53:
         4f:25:b2:84:3c:e4:1e:9f:3f:38:f7:cf:bf:21:29:e6:55:af:
         09:ff:2f:e1:ec:98:86:b7:a8:96:11:12:cc:ea:c9:cc:96:87:
         ff:8e:b5:9b:57:62:ba:dd:6d:35:98:a0:a8:d3:0a:4f:78:f6:
         8a:2e:90:cb:3f:83:ea:96:03:56:f8:86:cc:08:7c:49:10:bd:
         b1:e4:53:82:01:82:81:74:0f:09:42:b7:b2:f7:c6:b3:ee:9d:
         59:cf:67:fc
-----BEGIN CERTIFICATE-----
MIIEpjCCA46gAwIBAgIGCgsMDQ4gMA0GCSqGSIb3DQEBCwUAMH0xFDASBgNVBAMU
C0JIT1BBTENBX0NBMQswCQYDVQQGEwJJTjEPMA0GA1UEChMGQ0lUUklYMQwwCgYD
VQQLEwNBTkcxCzAJBgNVBAgTAktBMSwwKgYJKoZIhvcNAQkBFh1CSE9QQUxDQV9D
QUBCSE9QQUxDQV9tYWlsLmNvbTAeFw0xNjA3MDgwNDMyMzZaFw0yNjA3MDYwNDMy
MzZaMHIxCzAJBgNVBAgTAktBMQswCQYDVQQGEwJJTjEcMBoGA1UEAxQTMTE4X0JI
T1BBTENBX3NlcnZlcjEnMCUGCSqGSIb3DQEJARYYMTE4X0JIT1BBTENBQHRlc3Rf
Y2EuY29tMQ8wDQYDVQQKEwZDSVRSSVgwggEiMA0GCSqGSIb3DQEBAQUAA4IBDwAw
ggEKAoIBAQDarmsdqlSqhhSoGZd/RhskxSqQX/LFD8nbPt6tem0RAZnm/tfDzfcE
oNGy/a+2E+XLoH5RdJHSam7Pq5uKdIItmOKcxVDrhbNwxXt22fU1WUtp8yN/sk7I
ZOrh2tt/+QI4RgqZE9nVPgLohukNLXq0vdBIkGJ8yI+5w+SIpPSBpiUpSOulPu5Q
cX9TtFdSU5YM3XS0fcp5gpDQAzMWifxtv6xxWdMRkD56D3b/J6P6qV9QKbabmi9/
8sohYkwahmMbRbkH9j3NuDiG+iyT0ROhJauMDX2q3uP9ElfGNRQAKyjLuwAC7Gkw
2FAvzhECTyuXUwBEky2a40mhHDduoYR7AgMBAAGjggE1MIIBMTARBglghkgBhvhC
AQEEBAMCBkAwHQYDVR0OBBYEFHeJ+uyp/SJRQ6uJ1bnm6be36TxiMIGwBgNVHSME
gagwgaWAFKZmDlkPPFwRNbKzmVmp06axXpXSoYGBpH8wfTEUMBIGA1UEAxQLQkhP
UEFMQ0FfQ0ExCzAJBgNVBAYTAklOMQ8wDQYDVQQKEwZDSVRSSVgxDDAKBgNVBAsT
A0FORzELMAkGA1UECBMCS0ExLDAqBgkqhkiG9w0BCQEWHUJIT1BBTENBX0NBQEJI
T1BBTENBX21haWwuY29tggkAvolV82UoF5owSgYIKwYBBQUHAQEEPjA8MDoGCCsG
AQUFBzABhi5odHRwOi8vQkhPUEFMQ0FfdHdvLm9jc3B0ZXN0LmNvbS9yZXNwb25k
ZXJwYXRoMA0GCSqGSIb3DQEBCwUAA4IBAQA/x3j6UQMUClIbmpLqrf8S2uvN6uM4
vxCywlmRr4MjGbqo39imqNtVKTOhZqn5LjwJbgAW2gCrx54n2aOJZtmcLXzDJ0fK
BPJJoBe6zKS35LojhEMKswRsdMd0iymltd7D+xgLtROgR3zohToqYEW1blOz6ymd
jf3XiWlKKw//8Cp6/sxnWrQ7Okn2awniJEwcA8uX70LphYtchidTXmpRwVNPJbKE
POQenz8498+/ISnmVa8J/y/h7JiGt6iWERLM6snMlof/jrWbV2K63W01mKCo0wpP
ePaKLpDLP4PqlgNW+IbMCHxJEL2x5FOCAYKBdA8JQrey98az7p1Zz2f8
-----END CERTIFICATE-----
