Certificate:
    Data:
        Version: 3 (0x2)
        Serial Number: 11042563100196 (0xa0b0c0d0e24)
    Signature Algorithm: sha256WithRSAEncryption
        Issuer: CN=BHOPALCA_CA, C=IN, O=CITRIX, OU=ANG, ST=KA/emailAddress=BHOPALCA_CA@BHOPALCA_mail.com
        Validity
            Not Before: Jul  8 04:32:38 2016 GMT
            Not After : Jul  6 04:32:38 2026 GMT
        Subject: ST=KA, C=IN, CN=122_BHOPALCA_server/emailAddress=122_BHOPALCA@test_ca.com, O=CITRIX
        Subject Public Key Info:
            Public Key Algorithm: rsaEncryption
                Public-Key: (2048 bit)
                Modulus:
                    00:be:d5:af:8d:70:7c:63:ef:f2:28:56:cc:a7:62:
                    a3:fd:b4:29:38:aa:68:6d:fb:aa:f8:40:aa:82:94:
                    15:9c:87:09:35:72:38:66:3c:f0:32:41:90:0b:11:
                    42:63:8b:65:55:bf:10:0c:fb:eb:9d:05:13:c3:ee:
                    a9:98:40:07:28:b9:2a:f7:d5:7f:bb:94:ed:c8:b6:
                    f8:f2:30:a0:1c:8c:9c:d8:b6:bd:ab:ca:46:e7:71:
                    2e:ed:75:c9:06:32:56:94:9e:a7:43:1b:18:41:83:
                    5a:c2:9e:57:df:91:5d:d4:59:89:6a:dc:4b:cf:8f:
                    bf:2b:5c:16:56:04:5d:66:10:47:2a:c7:8a:c5:33:
                    8a:6d:81:b6:08:88:3c:60:a6:f4:48:de:95:19:90:
                    80:cc:be:27:c6:4b:7c:00:70:b0:75:d4:01:62:ba:
                    ef:00:77:f7:60:6a:66:57:26:47:06:01:fd:7f:d2:
                    d8:50:1a:b2:e6:73:2b:70:71:6a:70:3b:36:1d:1f:
                    22:aa:63:c4:54:40:49:5d:86:e3:34:78:34:83:b1:
                    7b:21:22:90:c4:99:08:d9:70:2a:d7:21:70:fd:0e:
                    fb:a2:75:c0:18:ba:be:1e:e1:74:9b:d5:3b:64:e1:
                    a0:9e:62:a6:5a:ae:a0:6f:a8:f6:60:ba:24:a5:8d:
                    5d:db
                Exponent: 65537 (0x10001)
        X509v3 extensions:
            Netscape Cert Type: 
                SSL Server
            X509v3 Subject Key Identifier: 
                54:A6:64:DE:1D:C0:49:BD:A8:E4:C6:B2:19:A2:94:22:18:A1:94:FB
            X509v3 Authority Key Identifier: 
                keyid:A6:66:0E:59:0F:3C:5C:11:35:B2:B3:99:59:A9:D3:A6:B1:5E:95:D2
                DirName:/CN=BHOPALCA_CA/C=IN/O=CITRIX/OU=ANG/ST=KA/emailAddress=BHOPALCA_CA@BHOPALCA_mail.com
                serial:BE:89:55:F3:65:28:17:9A

            Authority Information Access: 
                OCSP - URI:http://172.17.10.1/responderpath

    Signature Algorithm: sha256WithRSAEncryption
         03:3e:7c:ed:5f:c6:6b:20:32:97:37:3b:6f:1d:5f:a1:0b:36:
         33:7f:e0:46:b3:db:74:e7:b2:ec:39:10:73:9f:eb:fa:ca:84:
         63:da:f4:39:3a:57:16:da:10:e2:ac:ea:76:0c:92:8a:fb:f2:
         37:11:a7:8e:e2:0b:4c:46:71:59:d0:c1:7e:c1:3d:78:d6:6b:
         59:fe:99:a2:83:fc:f1:10:23:6e:f8:7d:5f:f2:7d:59:4f:45:
         03:0a:1e:73:9f:dd:99:6f:37:9a:56:df:0a:ac:0c:cd:ee:fb:
         91:16:87:bd:43:ed:5e:86:e9:4b:83:7a:2f:6e:47:92:ed:91:
         a3:a3:6b:27:bd:6b:b2:a5:72:e5:25:36:72:54:36:0a:40:81:
         7b:f4:ca:68:07:eb:d6:5c:c0:5b:f5:e6:9b:33:a0:b5:33:fd:
         45:2d:8f:78:e0:5c:7e:d2:b5:01:c9:4b:09:bc:d3:72:79:6a:
         2e:15:ab:f5:76:90:e8:af:aa:c5:9b:d9:06:0e:0c:a8:8c:b1:
         eb:a8:18:fc:27:4d:29:4c:0a:d2:80:d7:17:53:9c:d9:fb:63:
         ca:35:cd:a3:17:81:d2:fd:9c:48:3f:64:67:e9:61:a1:e3:fa:
         d8:7b:f8:44:53:73:fd:5b:f9:f3:ab:bf:97:a6:2f:ee:53:8b:
         d2:4a:51:4b
-----BEGIN CERTIFICATE-----
MIIEmDCCA4CgAwIBAgIGCgsMDQ4kMA0GCSqGSIb3DQEBCwUAMH0xFDASBgNVBAMU
C0JIT1BBTENBX0NBMQswCQYDVQQGEwJJTjEPMA0GA1UEChMGQ0lUUklYMQwwCgYD
VQQLEwNBTkcxCzAJBgNVBAgTAktBMSwwKgYJKoZIhvcNAQkBFh1CSE9QQUxDQV9D
QUBCSE9QQUxDQV9tYWlsLmNvbTAeFw0xNjA3MDgwNDMyMzhaFw0yNjA3MDYwNDMy
MzhaMHIxCzAJBgNVBAgTAktBMQswCQYDVQQGEwJJTjEcMBoGA1UEAxQTMTIyX0JI
T1BBTENBX3NlcnZlcjEnMCUGCSqGSIb3DQEJARYYMTIyX0JIT1BBTENBQHRlc3Rf
Y2EuY29tMQ8wDQYDVQQKEwZDSVRSSVgwggEiMA0GCSqGSIb3DQEBAQUAA4IBDwAw
ggEKAoIBAQC+1a+NcHxj7/IoVsynYqP9tCk4qmht+6r4QKqClBWchwk1cjhmPPAy
QZALEUJji2VVvxAM++udBRPD7qmYQAcouSr31X+7lO3ItvjyMKAcjJzYtr2rykbn
cS7tdckGMlaUnqdDGxhBg1rCnlffkV3UWYlq3EvPj78rXBZWBF1mEEcqx4rFM4pt
gbYIiDxgpvRI3pUZkIDMvifGS3wAcLB11AFiuu8Ad/dgamZXJkcGAf1/0thQGrLm
cytwcWpwOzYdHyKqY8RUQEldhuM0eDSDsXshIpDEmQjZcCrXIXD9DvuidcAYur4e
4XSb1Ttk4aCeYqZarqBvqPZguiSljV3bAgMBAAGjggEnMIIBIzARBglghkgBhvhC
AQEEBAMCBkAwHQYDVR0OBBYEFFSmZN4dwEm9qOTGshmilCIYoZT7MIGwBgNVHSME
gagwgaWAFKZmDlkPPFwRNbKzmVmp06axXpXSoYGBpH8wfTEUMBIGA1UEAxQLQkhP
UEFMQ0FfQ0ExCzAJBgNVBAYTAklOMQ8wDQYDVQQKEwZDSVRSSVgxDDAKBgNVBAsT
A0FORzELMAkGA1UECBMCS0ExLDAqBgkqhkiG9w0BCQEWHUJIT1BBTENBX0NBQEJI
T1BBTENBX21haWwuY29tggkAvolV82UoF5owPAYIKwYBBQUHAQEEMDAuMCwGCCsG
AQUFBzABhiBodHRwOi8vMTcyLjE3LjEwLjEvcmVzcG9uZGVycGF0aDANBgkqhkiG
9w0BAQsFAAOCAQEAAz587V/GayAylzc7bx1foQs2M3/gRrPbdOey7DkQc5/r+sqE
Y9r0OTpXFtoQ4qzqdgySivvyNxGnjuILTEZxWdDBfsE9eNZrWf6ZooP88RAjbvh9
X/J9WU9FAwoec5/dmW83mlbfCqwMze77kRaHvUPtXobpS4N6L25Hku2Ro6NrJ71r
sqVy5SU2clQ2CkCBe/TKaAfr1lzAW/XmmzOgtTP9RS2PeOBcftK1AclLCbzTcnlq
LhWr9XaQ6K+qxZvZBg4MqIyx66gY/CdNKUwK0oDXF1Oc2ftjyjXNoxeB0v2cSD9k
Z+lhoeP62Hv4RFNz/Vv586u/l6Yv7lOL0kpRSw==
-----END CERTIFICATE-----
