Certificate:
    Data:
        Version: 3 (0x2)
        Serial Number: 11042563100197 (0xa0b0c0d0e25)
    Signature Algorithm: sha256WithRSAEncryption
        Issuer: CN=BHOPALCA_CA, C=IN, O=CITRIX, OU=ANG, ST=KA/emailAddress=BHOPALCA_CA@BHOPALCA_mail.com
        Validity
            Not Before: Jul  8 04:32:38 2016 GMT
            Not After : Jul  6 04:32:38 2026 GMT
        Subject: ST=KA, C=IN, CN=123_BHOPALCA_server/emailAddress=123_BHOPALCA@test_ca.com, O=CITRIX
        Subject Public Key Info:
            Public Key Algorithm: rsaEncryption
                Public-Key: (2048 bit)
                Modulus:
                    00:c5:2d:d2:9e:23:de:93:73:a6:cd:30:d1:fb:67:
                    8c:31:94:46:6e:aa:de:e6:3d:36:f4:5b:2e:63:bd:
                    db:e2:a8:4f:60:6d:18:20:ea:a5:8b:09:ad:2c:f6:
                    8e:7a:8c:af:cb:44:20:0d:40:6d:98:68:67:9a:da:
                    05:96:bf:18:c1:f3:ea:db:a0:f6:ea:90:ca:e8:6b:
                    5a:d7:95:90:2c:8c:4a:ca:b3:4f:41:ff:b7:60:46:
                    63:7a:0d:17:12:64:24:b1:58:91:01:01:d0:c1:4d:
                    04:0b:47:7f:ca:85:a4:df:d1:22:94:7a:28:5e:16:
                    29:fc:e9:ec:a6:6a:7e:01:84:28:09:64:42:59:5b:
                    36:c0:0f:31:5a:13:a1:85:e5:90:0e:b5:53:56:b0:
                    c6:9f:f4:fd:a6:3f:ca:ea:91:bc:a1:56:94:2e:d1:
                    3b:16:79:12:ed:31:03:be:01:ca:a4:a7:be:47:07:
                    d7:f1:eb:1b:2f:d5:ac:cd:1e:7c:60:f5:e1:b7:ad:
                    6a:6e:9e:d4:b3:a8:fc:89:13:63:6b:ea:85:35:77:
                    5f:c9:00:c7:9c:54:28:45:0e:ad:b2:17:22:8f:f8:
                    d1:3b:32:bb:f3:85:7a:8b:53:ad:25:f9:d5:bb:64:
                    2c:53:f7:87:81:46:a1:37:4c:10:6d:d4:33:d5:0a:
                    23:4d
                Exponent: 65537 (0x10001)
        X509v3 extensions:
            Netscape Cert Type: 
                SSL Server
            X509v3 Subject Key Identifier: 
                7E:CF:0E:1A:0C:A2:44:CA:A7:4E:93:C5:F7:47:ED:87:8D:C5:6D:19
            X509v3 Authority Key Identifier: 
                keyid:A6:66:0E:59:0F:3C:5C:11:35:B2:B3:99:59:A9:D3:A6:B1:5E:95:D2
                DirName:/CN=BHOPALCA_CA/C=IN/O=CITRIX/OU=ANG/ST=KA/emailAddress=BHOPALCA_CA@BHOPALCA_mail.com
                serial:BE:89:55:F3:65:28:17:9A

            Authority Information Access: 
                OCSP - URI:http://172.17.10.1/responderpath

    Signature Algorithm: sha256WithRSAEncryption
         4b:95:28:9c:45:bc:ea:c4:e7:73:68:5c:ea:a7:0d:f6:17:ab:
         da:33:10:08:2f:97:9e:f6:4c:0c:6a:dd:24:33:f9:52:7a:8a:
         34:9f:11:15:eb:35:49:a2:30:a5:04:c8:cc:be:0b:c1:1e:a2:
         35:2f:bc:65:5d:b0:e8:c8:58:4a:3c:e3:90:7d:c8:32:03:c4:
         59:65:ed:00:af:d2:d1:b3:de:e7:d4:29:1f:f3:19:1a:33:39:
         f2:32:91:24:43:dd:ce:ec:0c:ca:b6:21:39:26:24:05:38:35:
         0c:5e:29:c6:f9:ef:65:c1:67:8f:91:ac:3f:0c:bd:3f:c6:10:
         c9:e0:6e:7f:50:c7:63:dd:a6:46:fb:1c:17:2f:a6:ea:8c:b2:
         7f:77:d6:aa:0d:72:13:d4:ce:72:76:34:ef:6b:5c:7d:08:9c:
         2e:11:06:18:cb:e9:b2:c1:53:50:21:27:42:ea:bf:af:12:7e:
         2f:07:05:11:67:c6:19:d4:a6:84:a4:aa:fd:f3:34:e4:8a:8f:
         41:98:98:46:a3:07:1d:1a:85:6c:f8:c1:56:fb:d6:4e:3d:26:
         96:19:04:14:49:ab:17:38:a3:e7:8d:f4:d4:3d:20:0d:4a:91:
         26:6a:4c:74:a4:f7:d2:d8:92:39:fa:cd:4e:cb:ff:5b:dd:b6:
         51:b1:7c:18
-----BEGIN CERTIFICATE-----
MIIEmDCCA4CgAwIBAgIGCgsMDQ4lMA0GCSqGSIb3DQEBCwUAMH0xFDASBgNVBAMU
C0JIT1BBTENBX0NBMQswCQYDVQQGEwJJTjEPMA0GA1UEChMGQ0lUUklYMQwwCgYD
VQQLEwNBTkcxCzAJBgNVBAgTAktBMSwwKgYJKoZIhvcNAQkBFh1CSE9QQUxDQV9D
QUBCSE9QQUxDQV9tYWlsLmNvbTAeFw0xNjA3MDgwNDMyMzhaFw0yNjA3MDYwNDMy
MzhaMHIxCzAJBgNVBAgTAktBMQswCQYDVQQGEwJJTjEcMBoGA1UEAxQTMTIzX0JI
T1BBTENBX3NlcnZlcjEnMCUGCSqGSIb3DQEJARYYMTIzX0JIT1BBTENBQHRlc3Rf
Y2EuY29tMQ8wDQYDVQQKEwZDSVRSSVgwggEiMA0GCSqGSIb3DQEBAQUAA4IBDwAw
ggEKAoIBAQDFLdKeI96Tc6bNMNH7Z4wxlEZuqt7mPTb0Wy5jvdviqE9gbRgg6qWL
Ca0s9o56jK/LRCANQG2YaGea2gWWvxjB8+rboPbqkMroa1rXlZAsjErKs09B/7dg
RmN6DRcSZCSxWJEBAdDBTQQLR3/KhaTf0SKUeiheFin86eyman4BhCgJZEJZWzbA
DzFaE6GF5ZAOtVNWsMaf9P2mP8rqkbyhVpQu0TsWeRLtMQO+Acqkp75HB9fx6xsv
1azNHnxg9eG3rWpuntSzqPyJE2Nr6oU1d1/JAMecVChFDq2yFyKP+NE7MrvzhXqL
U60l+dW7ZCxT94eBRqE3TBBt1DPVCiNNAgMBAAGjggEnMIIBIzARBglghkgBhvhC
AQEEBAMCBkAwHQYDVR0OBBYEFH7PDhoMokTKp06TxfdH7YeNxW0ZMIGwBgNVHSME
gagwgaWAFKZmDlkPPFwRNbKzmVmp06axXpXSoYGBpH8wfTEUMBIGA1UEAxQLQkhP
UEFMQ0FfQ0ExCzAJBgNVBAYTAklOMQ8wDQYDVQQKEwZDSVRSSVgxDDAKBgNVBAsT
A0FORzELMAkGA1UECBMCS0ExLDAqBgkqhkiG9w0BCQEWHUJIT1BBTENBX0NBQEJI
T1BBTENBX21haWwuY29tggkAvolV82UoF5owPAYIKwYBBQUHAQEEMDAuMCwGCCsG
AQUFBzABhiBodHRwOi8vMTcyLjE3LjEwLjEvcmVzcG9uZGVycGF0aDANBgkqhkiG
9w0BAQsFAAOCAQEAS5UonEW86sTnc2hc6qcN9her2jMQCC+XnvZMDGrdJDP5UnqK
NJ8RFes1SaIwpQTIzL4LwR6iNS+8ZV2w6MhYSjzjkH3IMgPEWWXtAK/S0bPe59Qp
H/MZGjM58jKRJEPdzuwMyrYhOSYkBTg1DF4pxvnvZcFnj5GsPwy9P8YQyeBuf1DH
Y92mRvscFy+m6oyyf3fWqg1yE9TOcnY072tcfQicLhEGGMvpssFTUCEnQuq/rxJ+
LwcFEWfGGdSmhKSq/fM05IqPQZiYRqMHHRqFbPjBVvvWTj0mlhkEFEmrFzij5430
1D0gDUqRJmpMdKT30tiSOfrNTsv/W922UbF8GA==
-----END CERTIFICATE-----
