Certificate:
    Data:
        Version: 3 (0x2)
        Serial Number: 11042563100200 (0xa0b0c0d0e28)
    Signature Algorithm: sha256WithRSAEncryption
        Issuer: CN=BHOPALCA_CA, C=IN, O=CITRIX, OU=ANG, ST=KA/emailAddress=BHOPALCA_CA@BHOPALCA_mail.com
        Validity
            Not Before: Jul  8 04:32:39 2016 GMT
            Not After : Jul  6 04:32:39 2026 GMT
        Subject: ST=KA, C=IN, CN=126_BHOPALCA_server/emailAddress=126_BHOPALCA@test_ca.com, O=CITRIX
        Subject Public Key Info:
            Public Key Algorithm: rsaEncryption
                Public-Key: (2048 bit)
                Modulus:
                    00:e1:77:8f:a6:24:96:52:fb:14:c0:64:76:bc:c3:
                    64:d9:a4:a9:11:5a:e6:3e:fc:43:5e:51:01:e3:f0:
                    02:89:77:5b:f8:a4:5f:c8:64:b4:ee:1b:71:ff:29:
                    46:25:e0:f7:02:da:5e:a0:05:f2:96:33:a8:67:ba:
                    3b:d1:d7:6a:f3:68:6f:87:bd:bd:f1:68:4e:b8:d8:
                    39:87:6e:37:8e:1d:20:37:d0:df:d7:5c:34:a6:22:
                    a7:f0:93:02:e4:e2:95:32:c3:0c:1d:ec:3e:62:2e:
                    d1:67:20:fa:f5:fb:3a:d0:28:34:46:38:e7:d1:68:
                    1f:9a:d6:51:3c:2b:59:6f:d8:2a:aa:be:cf:d8:ae:
                    0f:cd:61:7f:eb:aa:73:9c:d4:f4:1b:ac:07:f1:32:
                    12:8a:82:8c:13:96:e0:28:0d:49:0a:67:89:25:a4:
                    1c:ae:93:db:95:7e:c5:82:bb:71:e1:95:0d:a0:78:
                    b3:76:f0:fc:26:78:18:ee:19:c8:64:88:8e:8d:5d:
                    31:cc:be:9a:7a:8d:2c:be:2d:8c:be:18:a5:1e:ce:
                    b7:b7:1f:5c:41:c0:11:b6:71:aa:5c:71:fc:d9:08:
                    ed:71:58:48:e5:bb:7a:c0:fd:63:fc:55:54:fe:62:
                    c8:79:8a:df:81:e3:dd:4f:15:0b:5d:09:e3:32:32:
                    18:7b
                Exponent: 65537 (0x10001)
        X509v3 extensions:
            Netscape Cert Type: 
                SSL Server
            X509v3 Subject Key Identifier: 
                82:B9:CF:86:A7:60:A6:34:7E:92:99:CC:07:31:6E:54:7B:C8:5B:96
            X509v3 Authority Key Identifier: 
                keyid:A6:66:0E:59:0F:3C:5C:11:35:B2:B3:99:59:A9:D3:A6:B1:5E:95:D2
                DirName:/CN=BHOPALCA_CA/C=IN/O=CITRIX/OU=ANG/ST=KA/emailAddress=BHOPALCA_CA@BHOPALCA_mail.com
                serial:BE:89:55:F3:65:28:17:9A

            Authority Information Access: 
                OCSP - URI:http://172.17.10.1/responderpath

    Signature Algorithm: sha256WithRSAEncryption
         41:a1:0d:b3:c3:b3:6e:a1:9e:60:93:3e:5e:1b:77:73:46:2a:
         3f:0b:c2:8e:28:64:55:c9:1c:b6:19:d1:1a:77:37:64:3d:e9:
         92:2d:05:a7:91:22:76:cc:b0:00:83:3f:71:ae:4f:87:41:55:
         90:16:00:76:ee:4d:19:f4:52:fe:4f:94:a5:d6:e0:55:e4:85:
         9a:90:ed:13:af:27:34:b3:4c:7b:a3:4d:34:43:8a:98:f3:da:
         83:5b:e2:f6:37:09:44:f0:fd:9d:07:09:a8:de:4b:38:ba:c4:
         a3:ba:24:19:d6:51:8c:b0:ae:a5:3f:cb:33:f2:a3:e0:61:9a:
         04:30:11:74:5c:b3:84:ed:94:e1:8a:a3:62:cc:f6:de:7a:fd:
         e4:b8:ae:c6:d8:70:ac:f7:46:f3:c9:39:07:51:e2:e4:9e:9d:
         79:fb:29:65:b5:f3:c2:ff:2c:c8:c4:c6:8d:22:c6:8b:b4:f4:
         95:be:28:4b:7e:75:82:3e:51:3c:e0:cf:f9:78:fa:bf:04:98:
         ac:b4:ef:36:3c:44:9e:f8:54:9c:d3:ba:9e:b7:82:8e:89:1a:
         3a:50:c6:89:f0:c7:93:6f:c3:c7:5d:60:b6:1f:c8:0c:69:27:
         c4:fb:9c:59:c1:85:fd:db:1b:df:dd:57:48:57:e4:25:92:64:
         e9:d0:46:ea
-----BEGIN CERTIFICATE-----
MIIEmDCCA4CgAwIBAgIGCgsMDQ4oMA0GCSqGSIb3DQEBCwUAMH0xFDASBgNVBAMU
C0JIT1BBTENBX0NBMQswCQYDVQQGEwJJTjEPMA0GA1UEChMGQ0lUUklYMQwwCgYD
VQQLEwNBTkcxCzAJBgNVBAgTAktBMSwwKgYJKoZIhvcNAQkBFh1CSE9QQUxDQV9D
QUBCSE9QQUxDQV9tYWlsLmNvbTAeFw0xNjA3MDgwNDMyMzlaFw0yNjA3MDYwNDMy
MzlaMHIxCzAJBgNVBAgTAktBMQswCQYDVQQGEwJJTjEcMBoGA1UEAxQTMTI2X0JI
T1BBTENBX3NlcnZlcjEnMCUGCSqGSIb3DQEJARYYMTI2X0JIT1BBTENBQHRlc3Rf
Y2EuY29tMQ8wDQYDVQQKEwZDSVRSSVgwggEiMA0GCSqGSIb3DQEBAQUAA4IBDwAw
ggEKAoIBAQDhd4+mJJZS+xTAZHa8w2TZpKkRWuY+/ENeUQHj8AKJd1v4pF/IZLTu
G3H/KUYl4PcC2l6gBfKWM6hnujvR12rzaG+Hvb3xaE642DmHbjeOHSA30N/XXDSm
IqfwkwLk4pUywwwd7D5iLtFnIPr1+zrQKDRGOOfRaB+a1lE8K1lv2Cqqvs/Yrg/N
YX/rqnOc1PQbrAfxMhKKgowTluAoDUkKZ4klpByuk9uVfsWCu3HhlQ2geLN28Pwm
eBjuGchkiI6NXTHMvpp6jSy+LYy+GKUezre3H1xBwBG2capccfzZCO1xWEjlu3rA
/WP8VVT+Ysh5it+B491PFQtdCeMyMhh7AgMBAAGjggEnMIIBIzARBglghkgBhvhC
AQEEBAMCBkAwHQYDVR0OBBYEFIK5z4anYKY0fpKZzAcxblR7yFuWMIGwBgNVHSME
gagwgaWAFKZmDlkPPFwRNbKzmVmp06axXpXSoYGBpH8wfTEUMBIGA1UEAxQLQkhP
UEFMQ0FfQ0ExCzAJBgNVBAYTAklOMQ8wDQYDVQQKEwZDSVRSSVgxDDAKBgNVBAsT
A0FORzELMAkGA1UECBMCS0ExLDAqBgkqhkiG9w0BCQEWHUJIT1BBTENBX0NBQEJI
T1BBTENBX21haWwuY29tggkAvolV82UoF5owPAYIKwYBBQUHAQEEMDAuMCwGCCsG
AQUFBzABhiBodHRwOi8vMTcyLjE3LjEwLjEvcmVzcG9uZGVycGF0aDANBgkqhkiG
9w0BAQsFAAOCAQEAQaENs8OzbqGeYJM+Xht3c0YqPwvCjihkVckcthnRGnc3ZD3p
ki0Fp5EidsywAIM/ca5Ph0FVkBYAdu5NGfRS/k+UpdbgVeSFmpDtE68nNLNMe6NN
NEOKmPPag1vi9jcJRPD9nQcJqN5LOLrEo7okGdZRjLCupT/LM/Kj4GGaBDARdFyz
hO2U4YqjYsz23nr95LiuxthwrPdG88k5B1Hi5J6defspZbXzwv8syMTGjSLGi7T0
lb4oS351gj5RPODP+Xj6vwSYrLTvNjxEnvhUnNO6nreCjokaOlDGifDHk2/Dx11g
th/IDGknxPucWcGF/dsb391XSFfkJZJk6dBG6g==
-----END CERTIFICATE-----
