Certificate:
    Data:
        Version: 3 (0x2)
        Serial Number: 11042563100205 (0xa0b0c0d0e2d)
    Signature Algorithm: sha256WithRSAEncryption
        Issuer: CN=BHOPALCA_CA, C=IN, O=CITRIX, OU=ANG, ST=KA/emailAddress=BHOPALCA_CA@BHOPALCA_mail.com
        Validity
            Not Before: Jul  8 04:32:40 2016 GMT
            Not After : Jul  6 04:32:40 2026 GMT
        Subject: ST=KA, C=IN, CN=131_BHOPALCA_server/emailAddress=131_BHOPALCA@test_ca.com, O=CITRIX
        Subject Public Key Info:
            Public Key Algorithm: rsaEncryption
                Public-Key: (2048 bit)
                Modulus:
                    00:b1:d1:9c:f8:47:3c:67:ed:0b:24:1c:7f:a0:a7:
                    36:dc:2e:cf:fa:7e:d3:8f:a9:c4:79:9c:15:55:11:
                    ae:b4:2a:72:36:58:cb:ab:af:d5:c8:b4:67:14:c3:
                    5c:7f:63:15:a6:fe:31:b6:30:b5:a0:06:a0:30:cf:
                    a9:18:e6:ab:7d:6a:39:99:11:09:a5:77:2a:f0:d7:
                    13:dc:28:ed:24:0c:2e:22:17:07:38:0d:07:a5:ea:
                    4b:02:de:88:d3:a4:88:15:2a:c6:9f:fd:5d:1d:f3:
                    22:92:59:68:7f:0c:99:d1:77:76:3f:d4:69:ea:07:
                    c5:b6:85:d1:72:fe:45:19:f5:6c:e7:16:f7:64:a1:
                    f5:be:ad:3c:31:cc:b5:78:54:e9:5f:97:14:99:ac:
                    b4:62:52:00:8e:66:ab:b1:e8:0e:44:09:42:66:5d:
                    4d:2e:df:84:48:e8:ee:e1:47:21:46:8a:6f:dd:50:
                    a5:f2:6e:8f:fd:3b:e5:c3:60:ef:e0:70:7e:e5:5b:
                    0f:4c:db:3b:3f:d0:57:7c:1a:f6:52:b6:1c:e5:49:
                    1b:2a:4b:73:5c:fc:c7:56:5d:c2:e7:24:c7:a6:3c:
                    97:f3:17:56:69:14:9d:69:a5:f9:52:bf:56:50:dc:
                    2e:76:54:11:2b:02:cc:27:33:ba:b2:d2:03:f4:ef:
                    7b:b3
                Exponent: 65537 (0x10001)
        X509v3 extensions:
            Netscape Cert Type: 
                SSL Server
            X509v3 Subject Key Identifier: 
                59:C1:E0:95:1E:B2:D2:C5:F4:F0:3F:43:6D:44:56:75:F9:2D:59:99
            X509v3 Authority Key Identifier: 
                keyid:A6:66:0E:59:0F:3C:5C:11:35:B2:B3:99:59:A9:D3:A6:B1:5E:95:D2
                DirName:/CN=BHOPALCA_CA/C=IN/O=CITRIX/OU=ANG/ST=KA/emailAddress=BHOPALCA_CA@BHOPALCA_mail.com
                serial:BE:89:55:F3:65:28:17:9A

            Authority Information Access: 
                OCSP - URI:http://172.17.20.1/responderpath

    Signature Algorithm: sha256WithRSAEncryption
         1a:84:69:3b:39:f6:48:a8:7d:4f:4f:84:b1:3c:81:69:1d:32:
         a5:07:7f:80:ab:3f:2a:a7:41:4c:15:22:7d:53:c6:c7:ab:28:
         de:33:ea:26:58:f0:49:3a:d8:61:9f:78:ac:e2:d0:a9:d0:87:
         77:be:97:b1:56:eb:87:30:07:d7:45:29:f6:35:9a:67:79:7f:
         10:8c:28:a7:4f:f0:3d:bb:3c:33:14:ca:64:c1:6f:f6:6c:87:
         46:dd:16:15:b9:94:a5:cd:4a:23:ea:89:ea:01:de:60:f5:94:
         97:19:4b:fe:72:99:56:1c:be:44:76:e0:d6:26:15:04:fe:cb:
         3d:10:e9:b5:26:77:b5:2c:b1:fe:2b:0f:b1:00:dd:87:4e:92:
         d0:e5:3f:f7:e9:58:d1:ca:4e:33:d8:b8:26:c0:23:8b:67:11:
         60:74:24:ca:92:22:c5:29:63:e9:80:35:18:02:ae:b4:48:6c:
         4a:65:ad:b4:14:b3:20:fe:27:27:1d:9c:9c:57:14:9f:e4:53:
         80:05:87:b4:0f:03:7d:13:07:6c:04:53:c3:66:59:e2:57:22:
         d4:52:d7:03:08:e5:93:8b:9c:35:21:3c:5f:60:d0:79:09:69:
         63:02:2a:5b:55:f5:e8:31:27:eb:61:1f:24:e3:26:fd:9a:9e:
         cc:c8:59:70
-----BEGIN CERTIFICATE-----
MIIEmDCCA4CgAwIBAgIGCgsMDQ4tMA0GCSqGSIb3DQEBCwUAMH0xFDASBgNVBAMU
C0JIT1BBTENBX0NBMQswCQYDVQQGEwJJTjEPMA0GA1UEChMGQ0lUUklYMQwwCgYD
VQQLEwNBTkcxCzAJBgNVBAgTAktBMSwwKgYJKoZIhvcNAQkBFh1CSE9QQUxDQV9D
QUBCSE9QQUxDQV9tYWlsLmNvbTAeFw0xNjA3MDgwNDMyNDBaFw0yNjA3MDYwNDMy
NDBaMHIxCzAJBgNVBAgTAktBMQswCQYDVQQGEwJJTjEcMBoGA1UEAxQTMTMxX0JI
T1BBTENBX3NlcnZlcjEnMCUGCSqGSIb3DQEJARYYMTMxX0JIT1BBTENBQHRlc3Rf
Y2EuY29tMQ8wDQYDVQQKEwZDSVRSSVgwggEiMA0GCSqGSIb3DQEBAQUAA4IBDwAw
ggEKAoIBAQCx0Zz4Rzxn7QskHH+gpzbcLs/6ftOPqcR5nBVVEa60KnI2WMurr9XI
tGcUw1x/YxWm/jG2MLWgBqAwz6kY5qt9ajmZEQmldyrw1xPcKO0kDC4iFwc4DQel
6ksC3ojTpIgVKsaf/V0d8yKSWWh/DJnRd3Y/1GnqB8W2hdFy/kUZ9WznFvdkofW+
rTwxzLV4VOlflxSZrLRiUgCOZqux6A5ECUJmXU0u34RI6O7hRyFGim/dUKXybo/9
O+XDYO/gcH7lWw9M2zs/0Fd8GvZSthzlSRsqS3Nc/MdWXcLnJMemPJfzF1ZpFJ1p
pflSv1ZQ3C52VBErAswnM7qy0gP073uzAgMBAAGjggEnMIIBIzARBglghkgBhvhC
AQEEBAMCBkAwHQYDVR0OBBYEFFnB4JUestLF9PA/Q21EVnX5LVmZMIGwBgNVHSME
gagwgaWAFKZmDlkPPFwRNbKzmVmp06axXpXSoYGBpH8wfTEUMBIGA1UEAxQLQkhP
UEFMQ0FfQ0ExCzAJBgNVBAYTAklOMQ8wDQYDVQQKEwZDSVRSSVgxDDAKBgNVBAsT
A0FORzELMAkGA1UECBMCS0ExLDAqBgkqhkiG9w0BCQEWHUJIT1BBTENBX0NBQEJI
T1BBTENBX21haWwuY29tggkAvolV82UoF5owPAYIKwYBBQUHAQEEMDAuMCwGCCsG
AQUFBzABhiBodHRwOi8vMTcyLjE3LjIwLjEvcmVzcG9uZGVycGF0aDANBgkqhkiG
9w0BAQsFAAOCAQEAGoRpOzn2SKh9T0+EsTyBaR0ypQd/gKs/KqdBTBUifVPGx6so
3jPqJljwSTrYYZ94rOLQqdCHd76XsVbrhzAH10Up9jWaZ3l/EIwop0/wPbs8MxTK
ZMFv9myHRt0WFbmUpc1KI+qJ6gHeYPWUlxlL/nKZVhy+RHbg1iYVBP7LPRDptSZ3
tSyx/isPsQDdh06S0OU/9+lY0cpOM9i4JsAji2cRYHQkypIixSlj6YA1GAKutEhs
SmWttBSzIP4nJx2cnFcUn+RTgAWHtA8DfRMHbARTw2ZZ4lci1FLXAwjlk4ucNSE8
X2DQeQlpYwIqW1X16DEn62EfJOMm/ZqezMhZcA==
-----END CERTIFICATE-----
