Certificate:
    Data:
        Version: 3 (0x2)
        Serial Number: 11042563100207 (0xa0b0c0d0e2f)
    Signature Algorithm: sha256WithRSAEncryption
        Issuer: CN=BHOPALCA_CA, C=IN, O=CITRIX, OU=ANG, ST=KA/emailAddress=BHOPALCA_CA@BHOPALCA_mail.com
        Validity
            Not Before: Jul  8 04:32:41 2016 GMT
            Not After : Jul  6 04:32:41 2026 GMT
        Subject: ST=KA, C=IN, CN=133_BHOPALCA_server/emailAddress=133_BHOPALCA@test_ca.com, O=CITRIX
        Subject Public Key Info:
            Public Key Algorithm: rsaEncryption
                Public-Key: (2048 bit)
                Modulus:
                    00:af:c8:9f:2d:c2:3d:a4:75:fe:be:ea:a7:8e:75:
                    67:42:17:f6:36:25:6e:27:58:74:3a:f8:dd:ab:ab:
                    37:5a:78:49:06:34:a2:01:2e:70:5d:24:ee:09:cc:
                    e3:8b:65:75:4d:26:8d:6f:1d:4a:5f:26:a2:ed:33:
                    50:b5:73:0b:38:53:f1:27:56:90:16:8b:d5:0d:b3:
                    24:fb:6e:83:e3:b8:7d:a0:b3:6a:ec:ec:c3:1d:72:
                    ed:e5:93:cd:64:8d:d4:69:8a:00:69:df:77:e2:af:
                    bf:4c:4b:9e:36:f5:10:46:12:b6:a0:9a:1c:91:f2:
                    04:49:5b:52:84:04:86:ab:f9:a6:73:50:99:5b:d1:
                    36:54:62:1c:72:e6:64:d6:0b:60:98:8f:c0:32:8a:
                    fe:39:84:19:30:59:15:91:95:e3:d2:29:75:cb:45:
                    21:72:58:04:da:83:61:de:5d:1d:63:71:1d:be:29:
                    a3:54:4d:9b:9e:f5:7b:d9:eb:d1:e7:bb:94:0c:2e:
                    fc:6a:3b:33:a6:0f:c7:f5:79:21:49:f4:0b:79:55:
                    3e:07:62:55:cc:a9:a0:3c:6a:2d:d8:07:c9:70:ed:
                    39:a5:7f:a7:c9:4b:d7:2e:69:8d:fb:4d:c9:8c:e2:
                    0f:86:97:fa:87:b3:e2:62:e9:42:bd:b2:8a:2a:86:
                    8b:6d
                Exponent: 65537 (0x10001)
        X509v3 extensions:
            Netscape Cert Type: 
                SSL Server
            X509v3 Subject Key Identifier: 
                96:0C:16:DC:09:7B:EA:71:70:E5:9B:4F:70:6F:CE:6D:F2:32:72:0D
            X509v3 Authority Key Identifier: 
                keyid:A6:66:0E:59:0F:3C:5C:11:35:B2:B3:99:59:A9:D3:A6:B1:5E:95:D2
                DirName:/CN=BHOPALCA_CA/C=IN/O=CITRIX/OU=ANG/ST=KA/emailAddress=BHOPALCA_CA@BHOPALCA_mail.com
                serial:BE:89:55:F3:65:28:17:9A

            Authority Information Access: 
                OCSP - URI:http://172.17.20.1/responderpath

    Signature Algorithm: sha256WithRSAEncryption
         25:af:79:16:c0:0f:45:4c:a7:05:e4:9d:ed:39:5b:b7:c5:e5:
         87:4a:bd:f6:7c:3e:93:21:69:81:a1:89:a0:37:80:36:2a:78:
         6b:0d:dd:59:17:39:9d:40:2e:6b:87:a0:7a:bb:2a:31:bb:bb:
         e7:cc:1b:84:55:d7:92:e9:be:13:2b:ba:ee:ef:99:88:e5:d9:
         c3:4d:81:af:6e:43:07:81:48:41:d3:1b:89:cc:d9:6d:b1:b5:
         03:49:ef:d3:78:30:6e:a6:4a:45:a9:1d:a3:90:ef:e1:f5:1e:
         9e:74:f3:10:94:21:a7:41:d8:b2:d4:92:0d:53:b5:cb:c8:68:
         e8:03:b7:09:ce:4f:12:c2:ee:52:81:45:85:69:4f:ac:1b:da:
         79:38:75:ae:83:19:97:1d:01:07:79:c5:83:77:4b:f7:9a:36:
         6f:ed:30:73:cb:38:c5:dd:ea:7d:e7:a6:76:96:a9:5e:08:2c:
         d5:0a:cc:36:5f:5b:49:57:b5:6b:12:07:8d:9f:f3:ca:e2:01:
         3f:a7:2a:a2:5b:db:46:2c:fc:35:bf:62:38:ae:d6:22:c9:4f:
         34:53:3f:d6:48:11:e3:7a:67:a4:70:bb:16:0e:63:53:d7:d2:
         d7:a0:96:6b:42:9a:3b:bc:88:2c:ce:24:b5:c6:6b:a4:60:80:
         d0:a1:5a:a7
-----BEGIN CERTIFICATE-----
MIIEmDCCA4CgAwIBAgIGCgsMDQ4vMA0GCSqGSIb3DQEBCwUAMH0xFDASBgNVBAMU
C0JIT1BBTENBX0NBMQswCQYDVQQGEwJJTjEPMA0GA1UEChMGQ0lUUklYMQwwCgYD
VQQLEwNBTkcxCzAJBgNVBAgTAktBMSwwKgYJKoZIhvcNAQkBFh1CSE9QQUxDQV9D
QUBCSE9QQUxDQV9tYWlsLmNvbTAeFw0xNjA3MDgwNDMyNDFaFw0yNjA3MDYwNDMy
NDFaMHIxCzAJBgNVBAgTAktBMQswCQYDVQQGEwJJTjEcMBoGA1UEAxQTMTMzX0JI
T1BBTENBX3NlcnZlcjEnMCUGCSqGSIb3DQEJARYYMTMzX0JIT1BBTENBQHRlc3Rf
Y2EuY29tMQ8wDQYDVQQKEwZDSVRSSVgwggEiMA0GCSqGSIb3DQEBAQUAA4IBDwAw
ggEKAoIBAQCvyJ8twj2kdf6+6qeOdWdCF/Y2JW4nWHQ6+N2rqzdaeEkGNKIBLnBd
JO4JzOOLZXVNJo1vHUpfJqLtM1C1cws4U/EnVpAWi9UNsyT7boPjuH2gs2rs7MMd
cu3lk81kjdRpigBp33fir79MS5429RBGEragmhyR8gRJW1KEBIar+aZzUJlb0TZU
Yhxy5mTWC2CYj8Ayiv45hBkwWRWRlePSKXXLRSFyWATag2HeXR1jcR2+KaNUTZue
9XvZ69Hnu5QMLvxqOzOmD8f1eSFJ9At5VT4HYlXMqaA8ai3YB8lw7Tmlf6fJS9cu
aY37TcmM4g+Gl/qHs+Ji6UK9sooqhottAgMBAAGjggEnMIIBIzARBglghkgBhvhC
AQEEBAMCBkAwHQYDVR0OBBYEFJYMFtwJe+pxcOWbT3Bvzm3yMnINMIGwBgNVHSME
gagwgaWAFKZmDlkPPFwRNbKzmVmp06axXpXSoYGBpH8wfTEUMBIGA1UEAxQLQkhP
UEFMQ0FfQ0ExCzAJBgNVBAYTAklOMQ8wDQYDVQQKEwZDSVRSSVgxDDAKBgNVBAsT
A0FORzELMAkGA1UECBMCS0ExLDAqBgkqhkiG9w0BCQEWHUJIT1BBTENBX0NBQEJI
T1BBTENBX21haWwuY29tggkAvolV82UoF5owPAYIKwYBBQUHAQEEMDAuMCwGCCsG
AQUFBzABhiBodHRwOi8vMTcyLjE3LjIwLjEvcmVzcG9uZGVycGF0aDANBgkqhkiG
9w0BAQsFAAOCAQEAJa95FsAPRUynBeSd7Tlbt8Xlh0q99nw+kyFpgaGJoDeANip4
aw3dWRc5nUAua4egersqMbu758wbhFXXkum+Eyu67u+ZiOXZw02Br25DB4FIQdMb
iczZbbG1A0nv03gwbqZKRakdo5Dv4fUennTzEJQhp0HYstSSDVO1y8ho6AO3Cc5P
EsLuUoFFhWlPrBvaeTh1roMZlx0BB3nFg3dL95o2b+0wc8s4xd3qfeemdpapXggs
1QrMNl9bSVe1axIHjZ/zyuIBP6cqolvbRiz8Nb9iOK7WIslPNFM/1kgR43pnpHC7
Fg5jU9fS16CWa0KaO7yILM4ktcZrpGCA0KFapw==
-----END CERTIFICATE-----
