Certificate:
    Data:
        Version: 3 (0x2)
        Serial Number: 11042563100212 (0xa0b0c0d0e34)
    Signature Algorithm: sha256WithRSAEncryption
        Issuer: CN=BHOPALCA_CA, C=IN, O=CITRIX, OU=ANG, ST=KA/emailAddress=BHOPALCA_CA@BHOPALCA_mail.com
        Validity
            Not Before: Jul  8 04:32:43 2016 GMT
            Not After : Jul  6 04:32:43 2026 GMT
        Subject: ST=KA, C=IN, CN=138_BHOPALCA_server/emailAddress=138_BHOPALCA@test_ca.com, O=CITRIX
        Subject Public Key Info:
            Public Key Algorithm: rsaEncryption
                Public-Key: (2048 bit)
                Modulus:
                    00:b6:2b:c3:6f:d1:42:1f:f1:ff:1b:6c:a1:ba:1b:
                    c7:19:b2:ad:1e:84:61:df:01:bb:92:ac:0d:f3:60:
                    d6:cd:7b:2d:9c:06:ce:e3:ac:c5:98:18:21:b8:e6:
                    25:37:4a:aa:09:71:12:02:a2:55:6c:be:69:30:9d:
                    05:1c:fe:f7:f0:e1:88:91:4c:1f:d5:5f:88:f8:68:
                    50:bc:b3:82:62:e6:5d:9e:01:e3:e8:1d:22:9d:e5:
                    1e:b0:c5:3f:dd:81:dc:34:27:c4:7b:4d:e8:98:10:
                    59:23:00:3e:a2:1f:f8:86:8c:5a:93:98:d5:82:5c:
                    82:3e:8c:dc:b1:f8:c2:9d:3e:3a:56:30:a1:e7:c9:
                    c7:52:02:52:96:fa:38:f3:4b:cd:20:92:45:fb:18:
                    ac:0b:09:f5:f1:e7:f4:bc:0e:55:9b:e8:2c:f4:74:
                    96:93:68:95:da:5b:ee:1e:e4:45:55:2b:d2:e4:a7:
                    84:51:a8:c4:ec:ef:1b:56:75:69:a7:ca:83:e4:a1:
                    0e:36:1f:a7:6d:31:55:a2:2a:d4:bd:09:e1:23:2a:
                    7a:dd:85:06:d3:ce:73:0e:29:59:73:f7:93:c7:10:
                    56:d9:e6:20:61:3a:ce:f9:28:7b:bb:c2:71:a6:0f:
                    31:08:d2:1e:9b:7e:05:e1:8f:a3:6e:0c:8c:8d:0d:
                    12:97
                Exponent: 65537 (0x10001)
        X509v3 extensions:
            Netscape Cert Type: 
                SSL Server
            X509v3 Subject Key Identifier: 
                7A:21:A6:36:DC:DC:EC:FA:E7:36:A4:24:1D:7C:29:54:9D:C5:7F:87
            X509v3 Authority Key Identifier: 
                keyid:A6:66:0E:59:0F:3C:5C:11:35:B2:B3:99:59:A9:D3:A6:B1:5E:95:D2
                DirName:/CN=BHOPALCA_CA/C=IN/O=CITRIX/OU=ANG/ST=KA/emailAddress=BHOPALCA_CA@BHOPALCA_mail.com
                serial:BE:89:55:F3:65:28:17:9A

            Authority Information Access: 
                OCSP - URI:http://172.17.20.1/responderpath

    Signature Algorithm: sha256WithRSAEncryption
         2b:7a:e4:10:85:e6:67:72:46:cd:43:9b:9a:28:ed:3e:cd:6d:
         1c:1b:4c:03:ca:46:3b:de:77:38:27:89:85:70:f8:11:58:53:
         2a:ed:4d:9f:35:3d:bd:d1:46:4f:3e:35:a6:5c:fc:34:ac:35:
         66:04:20:1d:b1:37:0f:7e:62:55:e6:4a:73:40:29:f5:86:ba:
         7e:71:3d:bd:56:ac:bd:fe:12:1c:40:4c:fa:28:3e:74:35:35:
         01:f8:18:b5:99:e4:85:4c:01:ea:fa:f5:75:ec:e5:4d:54:a2:
         24:77:b9:d4:65:fc:4d:66:47:44:91:3f:0a:b4:17:c8:53:e5:
         4f:e0:b2:cc:fe:b4:e0:2c:1a:2c:d4:5a:02:9d:4b:f4:9c:28:
         d7:6b:5b:eb:f2:b5:31:cf:0c:86:02:f9:00:5d:c2:ff:77:4b:
         a2:db:ac:86:c8:09:94:07:3f:6d:43:1e:19:84:2a:ab:d9:f1:
         bf:54:ba:53:5f:2c:8f:0e:7e:e8:77:22:f7:63:6d:10:5c:bd:
         f3:a3:0a:98:7f:f7:48:e4:cc:cf:01:36:e6:29:92:4a:06:58:
         df:d3:89:bc:c2:20:92:f5:34:f3:77:6e:23:2f:44:87:e3:ee:
         a0:a5:50:46:a6:fb:c7:51:54:01:2b:ed:d6:18:94:c4:48:df:
         4f:a0:66:f2
-----BEGIN CERTIFICATE-----
MIIEmDCCA4CgAwIBAgIGCgsMDQ40MA0GCSqGSIb3DQEBCwUAMH0xFDASBgNVBAMU
C0JIT1BBTENBX0NBMQswCQYDVQQGEwJJTjEPMA0GA1UEChMGQ0lUUklYMQwwCgYD
VQQLEwNBTkcxCzAJBgNVBAgTAktBMSwwKgYJKoZIhvcNAQkBFh1CSE9QQUxDQV9D
QUBCSE9QQUxDQV9tYWlsLmNvbTAeFw0xNjA3MDgwNDMyNDNaFw0yNjA3MDYwNDMy
NDNaMHIxCzAJBgNVBAgTAktBMQswCQYDVQQGEwJJTjEcMBoGA1UEAxQTMTM4X0JI
T1BBTENBX3NlcnZlcjEnMCUGCSqGSIb3DQEJARYYMTM4X0JIT1BBTENBQHRlc3Rf
Y2EuY29tMQ8wDQYDVQQKEwZDSVRSSVgwggEiMA0GCSqGSIb3DQEBAQUAA4IBDwAw
ggEKAoIBAQC2K8Nv0UIf8f8bbKG6G8cZsq0ehGHfAbuSrA3zYNbNey2cBs7jrMWY
GCG45iU3SqoJcRIColVsvmkwnQUc/vfw4YiRTB/VX4j4aFC8s4Ji5l2eAePoHSKd
5R6wxT/dgdw0J8R7TeiYEFkjAD6iH/iGjFqTmNWCXII+jNyx+MKdPjpWMKHnycdS
AlKW+jjzS80gkkX7GKwLCfXx5/S8DlWb6Cz0dJaTaJXaW+4e5EVVK9Lkp4RRqMTs
7xtWdWmnyoPkoQ42H6dtMVWiKtS9CeEjKnrdhQbTznMOKVlz95PHEFbZ5iBhOs75
KHu7wnGmDzEI0h6bfgXhj6NuDIyNDRKXAgMBAAGjggEnMIIBIzARBglghkgBhvhC
AQEEBAMCBkAwHQYDVR0OBBYEFHohpjbc3Oz65zakJB18KVSdxX+HMIGwBgNVHSME
gagwgaWAFKZmDlkPPFwRNbKzmVmp06axXpXSoYGBpH8wfTEUMBIGA1UEAxQLQkhP
UEFMQ0FfQ0ExCzAJBgNVBAYTAklOMQ8wDQYDVQQKEwZDSVRSSVgxDDAKBgNVBAsT
A0FORzELMAkGA1UECBMCS0ExLDAqBgkqhkiG9w0BCQEWHUJIT1BBTENBX0NBQEJI
T1BBTENBX21haWwuY29tggkAvolV82UoF5owPAYIKwYBBQUHAQEEMDAuMCwGCCsG
AQUFBzABhiBodHRwOi8vMTcyLjE3LjIwLjEvcmVzcG9uZGVycGF0aDANBgkqhkiG
9w0BAQsFAAOCAQEAK3rkEIXmZ3JGzUObmijtPs1tHBtMA8pGO953OCeJhXD4EVhT
Ku1NnzU9vdFGTz41plz8NKw1ZgQgHbE3D35iVeZKc0Ap9Ya6fnE9vVasvf4SHEBM
+ig+dDU1AfgYtZnkhUwB6vr1dezlTVSiJHe51GX8TWZHRJE/CrQXyFPlT+CyzP60
4CwaLNRaAp1L9Jwo12tb6/K1Mc8MhgL5AF3C/3dLotushsgJlAc/bUMeGYQqq9nx
v1S6U18sjw5+6Hci92NtEFy986MKmH/3SOTMzwE25imSSgZY39OJvMIgkvU083du
Iy9Eh+PuoKVQRqb7x1FUASvt1hiUxEjfT6Bm8g==
-----END CERTIFICATE-----
