Certificate:
    Data:
        Version: 3 (0x2)
        Serial Number: 11042563100214 (0xa0b0c0d0e36)
    Signature Algorithm: sha256WithRSAEncryption
        Issuer: CN=BHOPALCA_CA, C=IN, O=CITRIX, OU=ANG, ST=KA/emailAddress=BHOPALCA_CA@BHOPALCA_mail.com
        Validity
            Not Before: Jul  8 04:32:43 2016 GMT
            Not After : Jul  6 04:32:43 2026 GMT
        Subject: ST=KA, C=IN, CN=140_BHOPALCA_server/emailAddress=140_BHOPALCA@test_ca.com, O=CITRIX
        Subject Public Key Info:
            Public Key Algorithm: rsaEncryption
                Public-Key: (2048 bit)
                Modulus:
                    00:cd:76:3b:9f:a6:db:18:c4:53:fb:5d:55:41:37:
                    a6:ee:81:69:6b:db:ec:17:8f:eb:a1:0e:d9:00:97:
                    58:66:d5:4f:f8:3d:5a:ad:e5:bf:2b:04:7f:63:ef:
                    14:65:a4:32:b0:73:9e:42:df:b5:51:33:b8:b1:d8:
                    41:e7:b3:96:c2:86:b7:3e:54:ce:db:9c:db:d8:b3:
                    e6:ce:cf:e6:c2:b1:cd:41:a4:f5:e2:24:ca:e3:a7:
                    e5:55:98:3b:80:f2:5b:8a:96:cd:16:c2:18:ac:c7:
                    bc:6d:07:08:3b:42:b3:d1:38:8b:de:d7:ff:5b:61:
                    c3:c3:14:ce:cc:33:fb:e3:34:8b:4e:e8:28:cb:95:
                    6b:af:bd:61:dc:17:97:4d:2c:a1:b5:c3:17:8f:9f:
                    93:2a:0a:73:7b:98:11:61:11:e3:8c:12:cb:f7:0e:
                    cb:5e:ee:4a:77:16:43:02:fe:d2:91:b7:c2:7b:4c:
                    21:89:a1:c6:05:e0:c4:a2:40:45:a9:93:b0:3b:1f:
                    ab:97:05:38:59:45:6b:b9:f6:df:bc:01:5e:a2:37:
                    89:f8:c0:90:20:37:b9:f1:c6:4f:ed:c1:ae:e8:1f:
                    c1:33:61:69:9d:4a:68:86:f1:e0:49:dd:87:3c:8e:
                    a8:8a:b9:ce:14:46:fd:11:3b:c1:be:22:2d:25:57:
                    d4:d3
                Exponent: 65537 (0x10001)
        X509v3 extensions:
            Netscape Cert Type: 
                SSL Server
            X509v3 Subject Key Identifier: 
                58:C3:FB:82:C3:36:F0:F0:86:40:9A:16:BB:FE:C3:6B:ED:E8:69:32
            X509v3 Authority Key Identifier: 
                keyid:A6:66:0E:59:0F:3C:5C:11:35:B2:B3:99:59:A9:D3:A6:B1:5E:95:D2
                DirName:/CN=BHOPALCA_CA/C=IN/O=CITRIX/OU=ANG/ST=KA/emailAddress=BHOPALCA_CA@BHOPALCA_mail.com
                serial:BE:89:55:F3:65:28:17:9A

            Authority Information Access: 
                OCSP - URI:http://172.17.20.1/responderpath

    Signature Algorithm: sha256WithRSAEncryption
         21:b2:60:53:0e:81:c0:d6:8a:e5:c1:ed:9d:6c:cb:33:e5:06:
         59:cc:6c:51:d9:a0:08:cf:4a:65:6b:73:3d:3c:cb:72:e8:f8:
         10:30:f2:bd:64:d7:c3:58:27:23:cf:04:6f:27:8b:f9:3e:ee:
         dc:af:51:46:bf:ae:0c:d5:e9:f4:85:eb:b8:b0:09:36:46:4b:
         d7:40:ab:87:83:45:d3:a7:98:12:f6:ba:9d:53:cd:7a:2e:c2:
         ff:a6:cc:a8:83:47:2f:87:a3:92:da:da:86:81:88:f8:52:87:
         8f:a4:1d:bb:1b:72:e3:2e:40:08:e9:d5:e0:47:af:14:1a:41:
         0c:0e:e8:30:b6:6d:63:82:eb:53:a7:7c:65:9b:32:48:6a:20:
         d1:a3:31:9b:ae:65:40:30:fb:9a:4d:45:da:3b:fa:ab:8e:5b:
         14:d9:61:4e:61:8b:c6:eb:ff:24:3b:c9:90:92:6b:ea:cf:af:
         f2:0c:05:b1:98:d3:cd:11:2c:0d:72:50:19:ed:60:7b:c1:f2:
         b0:63:48:34:5e:2a:06:37:c5:77:6b:40:c9:15:4c:7b:7e:59:
         f5:90:5d:e7:28:d7:17:56:0b:15:bd:70:e1:60:23:31:aa:9c:
         83:10:f7:b5:07:17:8c:65:84:2e:13:52:2d:45:f3:c4:70:a9:
         84:7c:9f:99
-----BEGIN CERTIFICATE-----
MIIEmDCCA4CgAwIBAgIGCgsMDQ42MA0GCSqGSIb3DQEBCwUAMH0xFDASBgNVBAMU
C0JIT1BBTENBX0NBMQswCQYDVQQGEwJJTjEPMA0GA1UEChMGQ0lUUklYMQwwCgYD
VQQLEwNBTkcxCzAJBgNVBAgTAktBMSwwKgYJKoZIhvcNAQkBFh1CSE9QQUxDQV9D
QUBCSE9QQUxDQV9tYWlsLmNvbTAeFw0xNjA3MDgwNDMyNDNaFw0yNjA3MDYwNDMy
NDNaMHIxCzAJBgNVBAgTAktBMQswCQYDVQQGEwJJTjEcMBoGA1UEAxQTMTQwX0JI
T1BBTENBX3NlcnZlcjEnMCUGCSqGSIb3DQEJARYYMTQwX0JIT1BBTENBQHRlc3Rf
Y2EuY29tMQ8wDQYDVQQKEwZDSVRSSVgwggEiMA0GCSqGSIb3DQEBAQUAA4IBDwAw
ggEKAoIBAQDNdjufptsYxFP7XVVBN6bugWlr2+wXj+uhDtkAl1hm1U/4PVqt5b8r
BH9j7xRlpDKwc55C37VRM7ix2EHns5bChrc+VM7bnNvYs+bOz+bCsc1BpPXiJMrj
p+VVmDuA8luKls0Wwhisx7xtBwg7QrPROIve1/9bYcPDFM7MM/vjNItO6CjLlWuv
vWHcF5dNLKG1wxePn5MqCnN7mBFhEeOMEsv3Dste7kp3FkMC/tKRt8J7TCGJocYF
4MSiQEWpk7A7H6uXBThZRWu59t+8AV6iN4n4wJAgN7nxxk/twa7oH8EzYWmdSmiG
8eBJ3Yc8jqiKuc4URv0RO8G+Ii0lV9TTAgMBAAGjggEnMIIBIzARBglghkgBhvhC
AQEEBAMCBkAwHQYDVR0OBBYEFFjD+4LDNvDwhkCaFrv+w2vt6GkyMIGwBgNVHSME
gagwgaWAFKZmDlkPPFwRNbKzmVmp06axXpXSoYGBpH8wfTEUMBIGA1UEAxQLQkhP
UEFMQ0FfQ0ExCzAJBgNVBAYTAklOMQ8wDQYDVQQKEwZDSVRSSVgxDDAKBgNVBAsT
A0FORzELMAkGA1UECBMCS0ExLDAqBgkqhkiG9w0BCQEWHUJIT1BBTENBX0NBQEJI
T1BBTENBX21haWwuY29tggkAvolV82UoF5owPAYIKwYBBQUHAQEEMDAuMCwGCCsG
AQUFBzABhiBodHRwOi8vMTcyLjE3LjIwLjEvcmVzcG9uZGVycGF0aDANBgkqhkiG
9w0BAQsFAAOCAQEAIbJgUw6BwNaK5cHtnWzLM+UGWcxsUdmgCM9KZWtzPTzLcuj4
EDDyvWTXw1gnI88EbyeL+T7u3K9RRr+uDNXp9IXruLAJNkZL10Crh4NF06eYEva6
nVPNei7C/6bMqINHL4ejktrahoGI+FKHj6Qduxty4y5ACOnV4EevFBpBDA7oMLZt
Y4LrU6d8ZZsySGog0aMxm65lQDD7mk1F2jv6q45bFNlhTmGLxuv/JDvJkJJr6s+v
8gwFsZjTzREsDXJQGe1ge8HysGNINF4qBjfFd2tAyRVMe35Z9ZBd5yjXF1YLFb1w
4WAjMaqcgxD3tQcXjGWELhNSLUXzxHCphHyfmQ==
-----END CERTIFICATE-----
