Certificate:
    Data:
        Version: 3 (0x2)
        Serial Number: 11042563100312 (0xa0b0c0d0e98)
    Signature Algorithm: sha256WithRSAEncryption
        Issuer: CN=BHOPALCA_CA, C=IN, O=CITRIX, OU=ANG, ST=KA/emailAddress=BHOPALCA_CA@BHOPALCA_mail.com
        Validity
            Not Before: Aug 23 10:01:39 2017 GMT
            Not After : Aug 21 10:01:39 2027 GMT
        Subject: ST=KA, C=IN, CN=bhopal_49_client/emailAddress=bhopal_49@test_ca.com, O=CITRIX
        Subject Public Key Info:
            Public Key Algorithm: rsaEncryption
                Public-Key: (2048 bit)
                Modulus:
                    00:a5:28:4f:b5:ec:4d:28:05:a6:79:de:c1:d5:0d:
                    48:27:5d:8d:1f:66:ab:0a:0b:79:a1:73:9c:df:b6:
                    45:40:f9:b3:a1:50:07:b7:30:46:19:57:cc:2d:02:
                    31:03:a1:f7:d1:01:26:72:90:12:ad:3b:23:e5:e1:
                    91:65:7b:fb:20:0f:fe:68:53:d0:e0:65:65:cb:2c:
                    84:d0:d3:4d:4a:45:42:4c:4f:9c:f0:37:59:bb:0c:
                    05:1f:a8:37:ca:d2:43:5d:59:a2:cc:0a:84:ea:84:
                    2c:fa:24:98:6b:06:fe:f1:9c:7c:a0:06:f9:ba:aa:
                    bd:33:cf:ae:1b:be:3b:88:37:2c:05:12:0e:35:c9:
                    e3:ea:8d:da:e2:59:a7:b1:1a:c2:0d:c7:4b:32:b0:
                    5c:70:b0:82:2b:31:3a:51:62:22:eb:cc:39:63:11:
                    28:bb:03:b6:d1:7e:11:ef:b2:04:7a:cf:29:bc:33:
                    46:71:ae:06:45:2b:9b:c9:15:4e:64:6a:2b:2c:a3:
                    27:79:76:7c:fc:84:36:1a:67:fc:b0:45:cd:8f:c6:
                    ea:5d:a5:27:e6:a1:48:a0:4c:f5:32:93:00:dc:82:
                    01:81:73:63:fe:92:df:5f:71:35:9a:83:b7:ae:6c:
                    7f:0d:82:a5:f3:43:8a:af:64:6b:7b:63:31:1a:2a:
                    ee:25
                Exponent: 65537 (0x10001)
        X509v3 extensions:
            Netscape Cert Type: 
                SSL Client
            X509v3 Subject Key Identifier: 
                49:50:4F:40:73:CD:6D:43:FE:12:C7:5D:66:BB:D8:9D:8C:A3:64:DB
            X509v3 Authority Key Identifier: 
                keyid:A6:66:0E:59:0F:3C:5C:11:35:B2:B3:99:59:A9:D3:A6:B1:5E:95:D2
                DirName:/CN=BHOPALCA_CA/C=IN/O=CITRIX/OU=ANG/ST=KA/emailAddress=BHOPALCA_CA@BHOPALCA_mail.com
                serial:BE:89:55:F3:65:28:17:9A

            Authority Information Access: 
                OCSP - URI:http://172.17.20.1/responderpath

    Signature Algorithm: sha256WithRSAEncryption
         3d:08:91:71:4b:b5:09:48:81:b9:de:49:a1:14:78:c1:0b:68:
         82:2c:a0:96:2a:0e:a8:12:ad:fb:aa:c1:aa:5b:75:06:d1:83:
         0f:7c:6c:f8:7f:b5:00:fa:32:0f:72:72:76:f5:76:28:12:26:
         67:c0:34:4b:36:6c:db:aa:46:b5:40:3c:7b:ae:57:ab:ea:ef:
         0c:73:04:fc:34:77:be:76:9e:6a:cb:58:99:f4:e9:9f:31:a8:
         82:61:df:85:8f:18:2b:77:18:d2:df:50:e4:14:b7:bb:07:df:
         83:d0:a0:40:34:e9:7c:8f:b7:a5:f3:7c:37:b4:cd:d3:47:f1:
         b9:aa:70:4c:34:ca:6b:78:da:60:b9:7a:56:57:2c:4d:24:96:
         1c:2b:1c:b2:dc:d0:bb:14:ed:68:ea:c5:78:14:e7:0a:0a:42:
         2e:fb:ce:78:ac:4b:48:b0:17:4c:72:71:4c:5d:f1:ee:06:6b:
         b1:ac:30:63:86:31:f7:63:2e:83:59:8e:cc:b0:53:b2:8a:8d:
         44:96:f7:b2:9a:7b:59:e7:7b:a6:06:97:47:e1:3f:12:71:6c:
         ea:1d:e3:7a:cc:e7:38:47:22:aa:c7:c6:72:44:f4:8e:05:a9:
         5a:fd:5b:5b:9c:ee:c6:77:e3:c9:5a:97:e6:74:18:38:dc:d1:
         00:31:90:0c
-----BEGIN CERTIFICATE-----
MIIEkjCCA3qgAwIBAgIGCgsMDQ6YMA0GCSqGSIb3DQEBCwUAMH0xFDASBgNVBAMU
C0JIT1BBTENBX0NBMQswCQYDVQQGEwJJTjEPMA0GA1UEChMGQ0lUUklYMQwwCgYD
VQQLEwNBTkcxCzAJBgNVBAgTAktBMSwwKgYJKoZIhvcNAQkBFh1CSE9QQUxDQV9D
QUBCSE9QQUxDQV9tYWlsLmNvbTAeFw0xNzA4MjMxMDAxMzlaFw0yNzA4MjExMDAx
MzlaMGwxCzAJBgNVBAgTAktBMQswCQYDVQQGEwJJTjEZMBcGA1UEAxQQYmhvcGFs
XzQ5X2NsaWVudDEkMCIGCSqGSIb3DQEJARYVYmhvcGFsXzQ5QHRlc3RfY2EuY29t
MQ8wDQYDVQQKEwZDSVRSSVgwggEiMA0GCSqGSIb3DQEBAQUAA4IBDwAwggEKAoIB
AQClKE+17E0oBaZ53sHVDUgnXY0fZqsKC3mhc5zftkVA+bOhUAe3MEYZV8wtAjED
offRASZykBKtOyPl4ZFle/sgD/5oU9DgZWXLLITQ001KRUJMT5zwN1m7DAUfqDfK
0kNdWaLMCoTqhCz6JJhrBv7xnHygBvm6qr0zz64bvjuINywFEg41yePqjdriWaex
GsINx0sysFxwsIIrMTpRYiLrzDljESi7A7bRfhHvsgR6zym8M0ZxrgZFK5vJFU5k
aissoyd5dnz8hDYaZ/ywRc2PxupdpSfmoUigTPUykwDcggGBc2P+kt9fcTWag7eu
bH8NgqXzQ4qvZGt7YzEaKu4lAgMBAAGjggEnMIIBIzARBglghkgBhvhCAQEEBAMC
B4AwHQYDVR0OBBYEFElQT0BzzW1D/hLHXWa72J2Mo2TbMIGwBgNVHSMEgagwgaWA
FKZmDlkPPFwRNbKzmVmp06axXpXSoYGBpH8wfTEUMBIGA1UEAxQLQkhPUEFMQ0Ff
Q0ExCzAJBgNVBAYTAklOMQ8wDQYDVQQKEwZDSVRSSVgxDDAKBgNVBAsTA0FORzEL
MAkGA1UECBMCS0ExLDAqBgkqhkiG9w0BCQEWHUJIT1BBTENBX0NBQEJIT1BBTENB
X21haWwuY29tggkAvolV82UoF5owPAYIKwYBBQUHAQEEMDAuMCwGCCsGAQUFBzAB
hiBodHRwOi8vMTcyLjE3LjIwLjEvcmVzcG9uZGVycGF0aDANBgkqhkiG9w0BAQsF
AAOCAQEAPQiRcUu1CUiBud5JoRR4wQtogiyglioOqBKt+6rBqlt1BtGDD3xs+H+1
APoyD3JydvV2KBImZ8A0SzZs26pGtUA8e65Xq+rvDHME/DR3vnaeastYmfTpnzGo
gmHfhY8YK3cY0t9Q5BS3uwffg9CgQDTpfI+3pfN8N7TN00fxuapwTDTKa3jaYLl6
VlcsTSSWHCscstzQuxTtaOrFeBTnCgpCLvvOeKxLSLAXTHJxTF3x7gZrsawwY4Yx
92Mug1mOzLBTsoqNRJb3spp7Wed7pgaXR+E/EnFs6h3jesznOEciqsfGckT0jgWp
Wv1bW5zuxnfjyVqX5nQYONzRADGQDA==
-----END CERTIFICATE-----
