Certificate:
    Data:
        Version: 3 (0x2)
        Serial Number: 11042563100269 (0xa0b0c0d0e6d)
    Signature Algorithm: sha256WithRSAEncryption
        Issuer: CN=BHOPALCA_CA, C=IN, O=CITRIX, OU=ANG, ST=KA/emailAddress=BHOPALCA_CA@BHOPALCA_mail.com
        Validity
            Not Before: Aug 23 10:01:16 2017 GMT
            Not After : Aug 21 10:01:16 2027 GMT
        Subject: ST=KA, C=IN, CN=bhopal_6_client/emailAddress=bhopal_6@test_ca.com, O=CITRIX
        Subject Public Key Info:
            Public Key Algorithm: rsaEncryption
                Public-Key: (2048 bit)
                Modulus:
                    00:c7:cc:0b:bf:69:b9:fd:fb:ce:2e:85:aa:2c:a7:
                    51:60:48:cb:7a:c2:c9:95:ad:42:9e:1e:95:10:bf:
                    31:75:1e:a7:38:7c:47:48:1c:f7:3a:20:97:0b:ec:
                    96:8d:5e:07:25:7c:02:bd:6d:20:f2:63:47:06:ab:
                    f0:08:a7:56:df:6d:56:d5:3a:4e:77:b3:e1:b0:fa:
                    13:29:95:38:ac:93:bf:50:c1:d2:ba:ab:c6:25:78:
                    56:84:64:00:26:85:88:35:e5:77:0f:c6:2e:73:1c:
                    a2:4d:4f:e4:30:72:81:77:5d:8a:e0:b8:f5:56:c7:
                    91:a8:d8:a5:59:3c:ba:30:a2:7c:39:f8:fa:fc:93:
                    75:50:83:c7:c8:cf:30:36:4d:a2:08:8f:a8:d4:7c:
                    e1:9b:81:35:56:56:b8:7d:de:38:8d:bb:cc:c2:d7:
                    71:ee:24:e3:e8:31:c3:39:bc:67:82:6a:4c:e3:dc:
                    e5:2e:c3:86:33:85:ad:55:dc:92:1f:de:44:b6:bd:
                    94:db:93:e7:eb:20:b4:cb:b0:36:0d:ff:82:af:a3:
                    55:a0:a8:32:ce:c8:a1:f7:c1:8e:c4:de:66:83:50:
                    7f:c8:7e:39:60:4e:66:1b:fe:2e:63:6b:42:94:d9:
                    6d:be:e4:52:97:e0:f1:2e:2d:e8:54:56:6c:65:7e:
                    5c:9f
                Exponent: 65537 (0x10001)
        X509v3 extensions:
            Netscape Cert Type: 
                SSL Client
            X509v3 Subject Key Identifier: 
                15:65:02:0D:F2:A0:20:02:A6:3C:36:A5:40:77:0F:88:03:60:EB:EA
            X509v3 Authority Key Identifier: 
                keyid:A6:66:0E:59:0F:3C:5C:11:35:B2:B3:99:59:A9:D3:A6:B1:5E:95:D2
                DirName:/CN=BHOPALCA_CA/C=IN/O=CITRIX/OU=ANG/ST=KA/emailAddress=BHOPALCA_CA@BHOPALCA_mail.com
                serial:BE:89:55:F3:65:28:17:9A

            Authority Information Access: 
                OCSP - URI:http://172.17.20.1/responderpath

    Signature Algorithm: sha256WithRSAEncryption
         01:e3:00:98:e2:e9:05:81:74:9d:b5:45:39:c2:03:62:ce:03:
         38:fe:a8:3a:dc:88:42:47:91:10:88:98:4c:9a:51:73:19:6c:
         33:36:62:4b:46:14:55:2e:07:8b:ca:91:44:35:b3:ee:3a:4b:
         c6:b2:c2:86:dc:a0:91:a6:c5:53:70:39:1c:85:4b:74:5b:88:
         47:d0:f0:8c:6f:6f:1a:2d:c8:87:06:58:ce:ee:59:06:c7:a2:
         97:5d:27:ec:8d:3f:20:4c:59:1b:cd:b4:39:82:ba:53:00:95:
         0c:2c:ba:44:54:ee:f2:ca:36:20:cd:a1:eb:e4:15:fe:94:43:
         03:a2:52:a7:ce:56:eb:2f:99:8e:74:64:5c:d5:4e:60:94:30:
         30:58:e7:c5:1b:e4:6a:d6:49:0c:03:3f:b0:18:63:ee:05:7f:
         7d:6e:08:cc:13:43:ee:0b:c8:a0:cd:11:bb:74:09:c9:bb:4f:
         d5:d0:bc:64:33:a3:f0:05:f1:4c:c1:e7:c1:82:99:ca:95:70:
         74:d7:df:13:89:10:9a:76:f6:60:f2:40:c4:07:ac:2d:86:25:
         c5:97:00:e6:14:6a:e8:15:20:69:bf:92:98:09:46:1f:2c:bc:
         be:f1:88:e5:57:8e:9d:4a:cd:85:6c:d1:aa:7d:f0:ed:9a:93:
         5b:76:68:e7
-----BEGIN CERTIFICATE-----
MIIEkDCCA3igAwIBAgIGCgsMDQ5tMA0GCSqGSIb3DQEBCwUAMH0xFDASBgNVBAMU
C0JIT1BBTENBX0NBMQswCQYDVQQGEwJJTjEPMA0GA1UEChMGQ0lUUklYMQwwCgYD
VQQLEwNBTkcxCzAJBgNVBAgTAktBMSwwKgYJKoZIhvcNAQkBFh1CSE9QQUxDQV9D
QUBCSE9QQUxDQV9tYWlsLmNvbTAeFw0xNzA4MjMxMDAxMTZaFw0yNzA4MjExMDAx
MTZaMGoxCzAJBgNVBAgTAktBMQswCQYDVQQGEwJJTjEYMBYGA1UEAxQPYmhvcGFs
XzZfY2xpZW50MSMwIQYJKoZIhvcNAQkBFhRiaG9wYWxfNkB0ZXN0X2NhLmNvbTEP
MA0GA1UEChMGQ0lUUklYMIIBIjANBgkqhkiG9w0BAQEFAAOCAQ8AMIIBCgKCAQEA
x8wLv2m5/fvOLoWqLKdRYEjLesLJla1Cnh6VEL8xdR6nOHxHSBz3OiCXC+yWjV4H
JXwCvW0g8mNHBqvwCKdW321W1TpOd7PhsPoTKZU4rJO/UMHSuqvGJXhWhGQAJoWI
NeV3D8YucxyiTU/kMHKBd12K4Lj1VseRqNilWTy6MKJ8Ofj6/JN1UIPHyM8wNk2i
CI+o1Hzhm4E1Vla4fd44jbvMwtdx7iTj6DHDObxngmpM49zlLsOGM4WtVdySH95E
tr2U25Pn6yC0y7A2Df+Cr6NVoKgyzsih98GOxN5mg1B/yH45YE5mG/4uY2tClNlt
vuRSl+DxLi3oVFZsZX5cnwIDAQABo4IBJzCCASMwEQYJYIZIAYb4QgEBBAQDAgeA
MB0GA1UdDgQWBBQVZQIN8qAgAqY8NqVAdw+IA2Dr6jCBsAYDVR0jBIGoMIGlgBSm
Zg5ZDzxcETWys5lZqdOmsV6V0qGBgaR/MH0xFDASBgNVBAMUC0JIT1BBTENBX0NB
MQswCQYDVQQGEwJJTjEPMA0GA1UEChMGQ0lUUklYMQwwCgYDVQQLEwNBTkcxCzAJ
BgNVBAgTAktBMSwwKgYJKoZIhvcNAQkBFh1CSE9QQUxDQV9DQUBCSE9QQUxDQV9t
YWlsLmNvbYIJAL6JVfNlKBeaMDwGCCsGAQUFBwEBBDAwLjAsBggrBgEFBQcwAYYg
aHR0cDovLzE3Mi4xNy4yMC4xL3Jlc3BvbmRlcnBhdGgwDQYJKoZIhvcNAQELBQAD
ggEBAAHjAJji6QWBdJ21RTnCA2LOAzj+qDrciEJHkRCImEyaUXMZbDM2YktGFFUu
B4vKkUQ1s+46S8aywobcoJGmxVNwORyFS3RbiEfQ8IxvbxotyIcGWM7uWQbHopdd
J+yNPyBMWRvNtDmCulMAlQwsukRU7vLKNiDNoevkFf6UQwOiUqfOVusvmY50ZFzV
TmCUMDBY58Ub5GrWSQwDP7AYY+4Ff31uCMwTQ+4LyKDNEbt0Ccm7T9XQvGQzo/AF
8UzB58GCmcqVcHTX3xOJEJp29mDyQMQHrC2GJcWXAOYUaugVIGm/kpgJRh8svL7x
iOVXjp1KzYVs0ap98O2ak1t2aOc=
-----END CERTIFICATE-----
