Certificate:
    Data:
        Version: 3 (0x2)
        Serial Number: 11042563100288 (0xa0b0c0d0e80)
    Signature Algorithm: sha256WithRSAEncryption
        Issuer: CN=BHOPALCA_CA, C=IN, O=CITRIX, OU=ANG, ST=KA/emailAddress=BHOPALCA_CA@BHOPALCA_mail.com
        Validity
            Not Before: Aug 23 10:01:27 2017 GMT
            Not After : Aug 21 10:01:27 2027 GMT
        Subject: ST=KA, C=IN, CN=bhopal_25_client/emailAddress=bhopal_25@test_ca.com, O=CITRIX
        Subject Public Key Info:
            Public Key Algorithm: rsaEncryption
                Public-Key: (2048 bit)
                Modulus:
                    00:f1:46:6b:47:ef:dc:4c:63:a7:50:01:66:07:3f:
                    84:7f:77:3e:4b:ca:e5:76:ca:1f:aa:8d:7d:99:d2:
                    cb:cc:4a:e7:4d:50:6d:e0:ae:49:17:c2:74:26:50:
                    a2:72:99:16:85:f2:46:20:e4:b2:32:cf:76:34:75:
                    5b:ee:39:44:b7:a6:4f:ed:a8:ec:b0:e1:d6:9e:d4:
                    d8:5b:8d:e2:6e:af:48:64:a7:ea:90:73:47:05:cc:
                    af:f5:1d:c2:80:ca:ca:60:22:e9:22:54:3e:fd:93:
                    58:f5:2c:d9:23:18:14:fe:7c:d4:7b:74:b4:63:1e:
                    33:b8:2a:c8:97:86:f7:16:1f:46:19:c0:2d:8f:05:
                    96:c3:06:25:e3:bc:01:4e:25:fb:10:4e:a7:87:af:
                    23:8b:63:19:88:f2:34:e4:37:e3:65:ad:0b:99:3e:
                    a5:ae:a4:c7:81:ff:58:d2:2e:7f:df:27:85:b9:9f:
                    d5:09:64:40:8b:51:39:3f:2f:a1:1e:36:aa:92:e1:
                    89:9a:f8:d3:6f:5e:b4:aa:c4:8b:3f:fb:2e:c5:a6:
                    b4:6a:64:79:40:d0:29:b2:e0:ca:f1:02:db:d9:c9:
                    65:b5:12:ef:5d:08:59:b9:39:31:17:da:2e:f3:70:
                    98:fc:a4:ab:36:4f:a3:73:10:6e:39:1c:35:15:84:
                    1b:55
                Exponent: 65537 (0x10001)
        X509v3 extensions:
            Netscape Cert Type: 
                SSL Client
            X509v3 Subject Key Identifier: 
                1B:4A:78:C6:C7:1F:35:08:C3:58:7B:77:8C:82:72:ED:35:1B:BD:12
            X509v3 Authority Key Identifier: 
                keyid:A6:66:0E:59:0F:3C:5C:11:35:B2:B3:99:59:A9:D3:A6:B1:5E:95:D2
                DirName:/CN=BHOPALCA_CA/C=IN/O=CITRIX/OU=ANG/ST=KA/emailAddress=BHOPALCA_CA@BHOPALCA_mail.com
                serial:BE:89:55:F3:65:28:17:9A

            Authority Information Access: 
                OCSP - URI:http://172.17.20.1/responderpath

    Signature Algorithm: sha256WithRSAEncryption
         34:c3:3d:52:3b:f2:a8:76:77:99:ad:0a:0b:f1:c1:01:ca:8a:
         ce:40:8a:35:72:61:8f:db:02:ae:60:af:4c:ff:ba:30:57:e6:
         e3:ac:b1:8d:bd:3b:39:0b:af:f5:8f:41:f3:77:03:f8:55:48:
         57:39:0d:31:65:9d:8f:07:ba:57:7e:5d:b4:f7:e2:71:6c:1a:
         3b:15:22:34:f7:0f:c6:25:b5:f2:23:7e:ea:a4:40:c2:0c:75:
         eb:b6:cb:55:b3:6e:04:fe:19:cb:c0:16:1d:5f:54:26:d6:ba:
         24:56:ac:77:4e:2c:cb:9a:cc:9e:1e:07:93:28:6d:08:e5:9a:
         8c:fb:e3:d1:b1:a6:b9:99:35:0f:66:38:72:79:c6:a8:4c:d5:
         2e:13:82:45:4a:ad:77:8b:72:b4:27:fd:25:93:24:3d:07:88:
         91:fa:61:b0:2d:af:d5:87:ea:69:10:44:1f:c0:32:85:17:9a:
         64:ae:d4:50:16:c9:3f:10:ec:0e:14:19:05:3a:6c:54:50:3c:
         be:7a:93:70:dd:bc:f2:51:7c:08:2a:d7:d0:99:e5:7e:a7:bf:
         7d:d1:79:83:cc:15:25:63:ce:b9:aa:10:69:4b:08:ce:f5:1c:
         13:74:de:90:55:97:c1:66:0e:e3:bf:4d:07:b3:67:2f:f8:46:
         d2:76:8a:23
-----BEGIN CERTIFICATE-----
MIIEkjCCA3qgAwIBAgIGCgsMDQ6AMA0GCSqGSIb3DQEBCwUAMH0xFDASBgNVBAMU
C0JIT1BBTENBX0NBMQswCQYDVQQGEwJJTjEPMA0GA1UEChMGQ0lUUklYMQwwCgYD
VQQLEwNBTkcxCzAJBgNVBAgTAktBMSwwKgYJKoZIhvcNAQkBFh1CSE9QQUxDQV9D
QUBCSE9QQUxDQV9tYWlsLmNvbTAeFw0xNzA4MjMxMDAxMjdaFw0yNzA4MjExMDAx
MjdaMGwxCzAJBgNVBAgTAktBMQswCQYDVQQGEwJJTjEZMBcGA1UEAxQQYmhvcGFs
XzI1X2NsaWVudDEkMCIGCSqGSIb3DQEJARYVYmhvcGFsXzI1QHRlc3RfY2EuY29t
MQ8wDQYDVQQKEwZDSVRSSVgwggEiMA0GCSqGSIb3DQEBAQUAA4IBDwAwggEKAoIB
AQDxRmtH79xMY6dQAWYHP4R/dz5LyuV2yh+qjX2Z0svMSudNUG3grkkXwnQmUKJy
mRaF8kYg5LIyz3Y0dVvuOUS3pk/tqOyw4dae1NhbjeJur0hkp+qQc0cFzK/1HcKA
yspgIukiVD79k1j1LNkjGBT+fNR7dLRjHjO4KsiXhvcWH0YZwC2PBZbDBiXjvAFO
JfsQTqeHryOLYxmI8jTkN+NlrQuZPqWupMeB/1jSLn/fJ4W5n9UJZECLUTk/L6Ee
NqqS4Yma+NNvXrSqxIs/+y7FprRqZHlA0Cmy4MrxAtvZyWW1Eu9dCFm5OTEX2i7z
cJj8pKs2T6NzEG45HDUVhBtVAgMBAAGjggEnMIIBIzARBglghkgBhvhCAQEEBAMC
B4AwHQYDVR0OBBYEFBtKeMbHHzUIw1h7d4yCcu01G70SMIGwBgNVHSMEgagwgaWA
FKZmDlkPPFwRNbKzmVmp06axXpXSoYGBpH8wfTEUMBIGA1UEAxQLQkhPUEFMQ0Ff
Q0ExCzAJBgNVBAYTAklOMQ8wDQYDVQQKEwZDSVRSSVgxDDAKBgNVBAsTA0FORzEL
MAkGA1UECBMCS0ExLDAqBgkqhkiG9w0BCQEWHUJIT1BBTENBX0NBQEJIT1BBTENB
X21haWwuY29tggkAvolV82UoF5owPAYIKwYBBQUHAQEEMDAuMCwGCCsGAQUFBzAB
hiBodHRwOi8vMTcyLjE3LjIwLjEvcmVzcG9uZGVycGF0aDANBgkqhkiG9w0BAQsF
AAOCAQEANMM9UjvyqHZ3ma0KC/HBAcqKzkCKNXJhj9sCrmCvTP+6MFfm46yxjb07
OQuv9Y9B83cD+FVIVzkNMWWdjwe6V35dtPficWwaOxUiNPcPxiW18iN+6qRAwgx1
67bLVbNuBP4Zy8AWHV9UJta6JFasd04sy5rMnh4HkyhtCOWajPvj0bGmuZk1D2Y4
cnnGqEzVLhOCRUqtd4tytCf9JZMkPQeIkfphsC2v1YfqaRBEH8AyhReaZK7UUBbJ
PxDsDhQZBTpsVFA8vnqTcN288lF8CCrX0Jnlfqe/fdF5g8wVJWPOuaoQaUsIzvUc
E3TekFWXwWYO479NB7NnL/hG0naKIw==
-----END CERTIFICATE-----
