Certificate:
    Data:
        Version: 3 (0x2)
        Serial Number: 11042563100294 (0xa0b0c0d0e86)
    Signature Algorithm: sha256WithRSAEncryption
        Issuer: CN=BHOPALCA_CA, C=IN, O=CITRIX, OU=ANG, ST=KA/emailAddress=BHOPALCA_CA@BHOPALCA_mail.com
        Validity
            Not Before: Aug 23 10:01:30 2017 GMT
            Not After : Aug 21 10:01:30 2027 GMT
        Subject: ST=KA, C=IN, CN=bhopal_31_client/emailAddress=bhopal_31@test_ca.com, O=CITRIX
        Subject Public Key Info:
            Public Key Algorithm: rsaEncryption
                Public-Key: (2048 bit)
                Modulus:
                    00:c3:0b:e5:13:9c:c0:bf:2e:3c:fd:cc:23:67:5c:
                    32:52:0e:74:03:2e:09:94:0b:39:af:45:a6:33:38:
                    36:b6:4e:fa:aa:e2:50:96:6f:4d:b3:3d:47:8a:7d:
                    2c:d3:66:51:9e:2a:fe:8d:22:cd:67:eb:b8:25:7f:
                    bf:d7:cc:13:8b:08:57:88:5a:c3:91:77:36:04:c3:
                    16:11:3b:d9:f4:8a:72:b6:d9:1b:e1:81:33:67:17:
                    13:27:f1:55:ae:9a:b6:2e:87:aa:89:ef:6c:65:a4:
                    9f:86:0c:f9:1d:3c:9e:64:b4:ef:1e:71:d1:a9:0d:
                    51:42:8f:4c:87:f1:c5:e6:e2:cd:81:4b:34:b6:7b:
                    a7:b7:61:66:27:d0:aa:e2:7c:dd:a3:10:ea:ae:93:
                    5a:f0:92:40:a8:a0:73:6f:57:31:f9:21:db:e9:20:
                    a1:ae:c1:86:f5:df:1f:62:75:72:a1:f1:88:b9:80:
                    27:b0:08:47:7c:97:39:21:4b:d4:51:da:9c:aa:5f:
                    bb:d1:d5:31:9f:e6:e5:0a:92:7c:8c:6a:97:b8:e4:
                    c8:7f:46:1f:5b:25:eb:94:1f:a8:3e:a9:72:76:cb:
                    b7:90:d2:eb:c8:d5:13:58:c6:6e:fa:d4:f4:4c:36:
                    13:8e:af:79:51:65:6c:b4:2e:4c:94:12:81:3a:80:
                    a8:85
                Exponent: 65537 (0x10001)
        X509v3 extensions:
            Netscape Cert Type: 
                SSL Client
            X509v3 Subject Key Identifier: 
                DE:6D:E2:8E:73:11:00:F9:4D:62:C5:05:3D:72:38:A7:6B:16:3A:E4
            X509v3 Authority Key Identifier: 
                keyid:A6:66:0E:59:0F:3C:5C:11:35:B2:B3:99:59:A9:D3:A6:B1:5E:95:D2
                DirName:/CN=BHOPALCA_CA/C=IN/O=CITRIX/OU=ANG/ST=KA/emailAddress=BHOPALCA_CA@BHOPALCA_mail.com
                serial:BE:89:55:F3:65:28:17:9A

            Authority Information Access: 
                OCSP - URI:http://172.17.20.1/responderpath

    Signature Algorithm: sha256WithRSAEncryption
         6a:f3:0f:54:fe:c8:96:3f:48:3c:51:23:33:14:44:9a:ff:d8:
         f8:13:3a:9b:bf:94:03:93:20:dd:16:81:52:a9:75:94:1b:7e:
         cc:d2:b1:2b:9d:4c:2b:1c:61:71:3d:71:42:07:95:4a:da:32:
         9e:07:c4:f9:e4:ae:a6:8c:df:36:45:7b:70:70:3a:f4:ea:51:
         fa:99:90:a7:b1:51:45:d3:b1:3a:38:7a:cc:f8:da:24:92:c6:
         a1:30:3c:3d:5b:03:0c:a0:21:79:7d:80:64:f3:a7:53:84:c4:
         54:f7:f5:26:e9:43:bf:7e:ef:b1:25:58:5c:d4:b3:0d:d5:67:
         48:63:3c:5b:dc:dd:e5:ff:c7:68:21:a6:0f:24:b3:1c:d0:ff:
         11:3b:21:fa:1b:9b:b1:7a:59:c1:65:be:44:e9:95:ae:e2:75:
         ba:b1:f3:a0:9b:37:3f:fe:23:09:f5:63:f2:b4:47:6c:41:95:
         3b:a3:41:17:26:e5:ff:94:fe:c5:6e:39:15:71:8d:69:f8:24:
         10:ed:52:ad:a0:d4:f1:78:20:e2:a9:05:5d:4f:2e:cc:50:63:
         9f:3f:85:54:bb:b3:2b:e7:85:c5:3d:12:ec:13:f0:cd:1f:d3:
         09:e5:3d:74:c5:fa:05:d7:cc:17:98:d3:4e:38:ee:27:d7:73:
         c8:9d:09:e9
-----BEGIN CERTIFICATE-----
MIIEkjCCA3qgAwIBAgIGCgsMDQ6GMA0GCSqGSIb3DQEBCwUAMH0xFDASBgNVBAMU
C0JIT1BBTENBX0NBMQswCQYDVQQGEwJJTjEPMA0GA1UEChMGQ0lUUklYMQwwCgYD
VQQLEwNBTkcxCzAJBgNVBAgTAktBMSwwKgYJKoZIhvcNAQkBFh1CSE9QQUxDQV9D
QUBCSE9QQUxDQV9tYWlsLmNvbTAeFw0xNzA4MjMxMDAxMzBaFw0yNzA4MjExMDAx
MzBaMGwxCzAJBgNVBAgTAktBMQswCQYDVQQGEwJJTjEZMBcGA1UEAxQQYmhvcGFs
XzMxX2NsaWVudDEkMCIGCSqGSIb3DQEJARYVYmhvcGFsXzMxQHRlc3RfY2EuY29t
MQ8wDQYDVQQKEwZDSVRSSVgwggEiMA0GCSqGSIb3DQEBAQUAA4IBDwAwggEKAoIB
AQDDC+UTnMC/Ljz9zCNnXDJSDnQDLgmUCzmvRaYzODa2Tvqq4lCWb02zPUeKfSzT
ZlGeKv6NIs1n67glf7/XzBOLCFeIWsORdzYEwxYRO9n0inK22RvhgTNnFxMn8VWu
mrYuh6qJ72xlpJ+GDPkdPJ5ktO8ecdGpDVFCj0yH8cXm4s2BSzS2e6e3YWYn0Kri
fN2jEOquk1rwkkCooHNvVzH5IdvpIKGuwYb13x9idXKh8Yi5gCewCEd8lzkhS9RR
2pyqX7vR1TGf5uUKknyMape45Mh/Rh9bJeuUH6g+qXJ2y7eQ0uvI1RNYxm761PRM
NhOOr3lRZWy0LkyUEoE6gKiFAgMBAAGjggEnMIIBIzARBglghkgBhvhCAQEEBAMC
B4AwHQYDVR0OBBYEFN5t4o5zEQD5TWLFBT1yOKdrFjrkMIGwBgNVHSMEgagwgaWA
FKZmDlkPPFwRNbKzmVmp06axXpXSoYGBpH8wfTEUMBIGA1UEAxQLQkhPUEFMQ0Ff
Q0ExCzAJBgNVBAYTAklOMQ8wDQYDVQQKEwZDSVRSSVgxDDAKBgNVBAsTA0FORzEL
MAkGA1UECBMCS0ExLDAqBgkqhkiG9w0BCQEWHUJIT1BBTENBX0NBQEJIT1BBTENB
X21haWwuY29tggkAvolV82UoF5owPAYIKwYBBQUHAQEEMDAuMCwGCCsGAQUFBzAB
hiBodHRwOi8vMTcyLjE3LjIwLjEvcmVzcG9uZGVycGF0aDANBgkqhkiG9w0BAQsF
AAOCAQEAavMPVP7Ilj9IPFEjMxREmv/Y+BM6m7+UA5Mg3RaBUql1lBt+zNKxK51M
KxxhcT1xQgeVStoyngfE+eSupozfNkV7cHA69OpR+pmQp7FRRdOxOjh6zPjaJJLG
oTA8PVsDDKAheX2AZPOnU4TEVPf1JulDv37vsSVYXNSzDdVnSGM8W9zd5f/HaCGm
DySzHND/ETsh+hubsXpZwWW+ROmVruJ1urHzoJs3P/4jCfVj8rRHbEGVO6NBFybl
/5T+xW45FXGNafgkEO1SraDU8Xgg4qkFXU8uzFBjnz+FVLuzK+eFxT0S7BPwzR/T
CeU9dMX6BdfMF5jTTjjuJ9dzyJ0J6Q==
-----END CERTIFICATE-----
