Certificate:
    Data:
        Version: 3 (0x2)
        Serial Number: 11042563100296 (0xa0b0c0d0e88)
    Signature Algorithm: sha256WithRSAEncryption
        Issuer: CN=BHOPALCA_CA, C=IN, O=CITRIX, OU=ANG, ST=KA/emailAddress=BHOPALCA_CA@BHOPALCA_mail.com
        Validity
            Not Before: Aug 23 10:01:30 2017 GMT
            Not After : Aug 21 10:01:30 2027 GMT
        Subject: ST=KA, C=IN, CN=bhopal_33_client/emailAddress=bhopal_33@test_ca.com, O=CITRIX
        Subject Public Key Info:
            Public Key Algorithm: rsaEncryption
                Public-Key: (2048 bit)
                Modulus:
                    00:b9:43:e0:af:19:2b:56:55:19:d3:a1:bb:4b:71:
                    96:ff:3f:59:c1:90:ed:c4:1e:5a:3d:38:70:65:03:
                    b9:27:74:cd:c3:b4:3e:c4:39:fa:6a:b3:e5:6e:58:
                    59:3a:bf:b3:c0:72:56:68:68:6d:5b:36:86:2f:32:
                    20:a6:2a:29:e1:78:23:b7:a1:56:49:a3:d6:40:d7:
                    93:31:9e:9d:f2:f6:86:73:8e:36:40:4a:22:95:c2:
                    72:83:86:84:8b:8c:b4:7c:4c:9c:a9:9b:52:c3:e6:
                    de:8f:89:70:f4:87:12:80:cf:7b:5f:e1:63:3e:6f:
                    e4:25:ed:8b:0d:e3:a2:36:e1:3f:26:f2:b6:0b:62:
                    f2:7d:02:76:46:91:ac:a8:8a:d1:4d:8b:75:81:fe:
                    8f:a4:f7:78:84:73:bc:cc:d5:1c:45:25:ff:9e:dd:
                    c0:02:62:f7:4c:d6:78:f4:f9:b4:a4:c1:e6:cc:17:
                    7e:56:ee:cf:4d:70:00:2a:d8:a5:f5:e4:0f:c5:aa:
                    5e:b4:93:ef:55:e8:da:b9:df:a4:e0:97:26:c2:7f:
                    18:39:04:06:f6:56:dc:7d:bb:88:bb:4d:09:e7:c7:
                    9f:a5:45:8f:3a:79:90:ed:63:0b:8a:c7:36:64:1a:
                    17:6f:90:72:64:91:f3:91:4f:b4:a8:fc:7b:5e:3d:
                    e0:4f
                Exponent: 65537 (0x10001)
        X509v3 extensions:
            Netscape Cert Type: 
                SSL Client
            X509v3 Subject Key Identifier: 
                6D:35:EF:35:03:3D:B8:9C:D9:59:EE:53:D2:5D:2C:32:11:7B:5D:18
            X509v3 Authority Key Identifier: 
                keyid:A6:66:0E:59:0F:3C:5C:11:35:B2:B3:99:59:A9:D3:A6:B1:5E:95:D2
                DirName:/CN=BHOPALCA_CA/C=IN/O=CITRIX/OU=ANG/ST=KA/emailAddress=BHOPALCA_CA@BHOPALCA_mail.com
                serial:BE:89:55:F3:65:28:17:9A

            Authority Information Access: 
                OCSP - URI:http://172.17.20.1/responderpath

    Signature Algorithm: sha256WithRSAEncryption
         20:9a:26:bd:e0:60:c8:a7:78:9f:ed:36:80:87:06:59:30:bc:
         12:08:f7:93:1c:f0:2f:37:03:de:1d:41:68:4d:1c:54:7c:5c:
         c2:45:bb:dd:4d:97:4e:e2:e9:47:72:d7:6d:1b:57:af:07:c9:
         ed:88:89:bd:3d:0c:87:37:bb:6f:2f:d0:f2:80:6d:67:b8:b4:
         9e:db:3c:6c:5d:81:6e:db:14:03:9a:fd:d0:00:c5:a2:4e:1d:
         a6:8b:9a:08:5d:55:05:96:f0:a0:a7:e1:64:5e:49:fb:a0:e2:
         9f:14:c3:c6:d8:22:af:08:73:74:99:5f:24:ba:c3:30:d4:0a:
         67:90:53:0c:f2:a3:1c:2c:e6:30:ef:42:e1:d9:45:7d:2b:f0:
         70:d0:32:ec:5c:c9:17:04:79:7e:1b:d2:92:eb:a1:03:92:d4:
         9b:31:32:c0:70:0b:6e:d2:a6:9b:a4:a9:43:5c:8d:e8:a0:da:
         b3:0e:a6:01:df:9a:47:0f:86:66:06:64:1b:e8:4f:d2:4d:67:
         cb:c9:e4:1c:2d:95:98:bb:d2:b5:a7:43:75:51:f9:8e:1e:00:
         51:88:e7:30:9a:5c:02:04:bd:2d:02:7f:3a:ba:3e:f4:9d:f9:
         aa:ce:7c:13:60:17:f1:6c:6c:15:61:95:e9:3e:7f:97:38:33:
         27:67:a3:2a
-----BEGIN CERTIFICATE-----
MIIEkjCCA3qgAwIBAgIGCgsMDQ6IMA0GCSqGSIb3DQEBCwUAMH0xFDASBgNVBAMU
C0JIT1BBTENBX0NBMQswCQYDVQQGEwJJTjEPMA0GA1UEChMGQ0lUUklYMQwwCgYD
VQQLEwNBTkcxCzAJBgNVBAgTAktBMSwwKgYJKoZIhvcNAQkBFh1CSE9QQUxDQV9D
QUBCSE9QQUxDQV9tYWlsLmNvbTAeFw0xNzA4MjMxMDAxMzBaFw0yNzA4MjExMDAx
MzBaMGwxCzAJBgNVBAgTAktBMQswCQYDVQQGEwJJTjEZMBcGA1UEAxQQYmhvcGFs
XzMzX2NsaWVudDEkMCIGCSqGSIb3DQEJARYVYmhvcGFsXzMzQHRlc3RfY2EuY29t
MQ8wDQYDVQQKEwZDSVRSSVgwggEiMA0GCSqGSIb3DQEBAQUAA4IBDwAwggEKAoIB
AQC5Q+CvGStWVRnTobtLcZb/P1nBkO3EHlo9OHBlA7kndM3DtD7EOfpqs+VuWFk6
v7PAclZoaG1bNoYvMiCmKinheCO3oVZJo9ZA15Mxnp3y9oZzjjZASiKVwnKDhoSL
jLR8TJypm1LD5t6PiXD0hxKAz3tf4WM+b+Ql7YsN46I24T8m8rYLYvJ9AnZGkayo
itFNi3WB/o+k93iEc7zM1RxFJf+e3cACYvdM1nj0+bSkwebMF35W7s9NcAAq2KX1
5A/Fql60k+9V6Nq536TglybCfxg5BAb2Vtx9u4i7TQnnx5+lRY86eZDtYwuKxzZk
GhdvkHJkkfORT7So/HtePeBPAgMBAAGjggEnMIIBIzARBglghkgBhvhCAQEEBAMC
B4AwHQYDVR0OBBYEFG017zUDPbic2VnuU9JdLDIRe10YMIGwBgNVHSMEgagwgaWA
FKZmDlkPPFwRNbKzmVmp06axXpXSoYGBpH8wfTEUMBIGA1UEAxQLQkhPUEFMQ0Ff
Q0ExCzAJBgNVBAYTAklOMQ8wDQYDVQQKEwZDSVRSSVgxDDAKBgNVBAsTA0FORzEL
MAkGA1UECBMCS0ExLDAqBgkqhkiG9w0BCQEWHUJIT1BBTENBX0NBQEJIT1BBTENB
X21haWwuY29tggkAvolV82UoF5owPAYIKwYBBQUHAQEEMDAuMCwGCCsGAQUFBzAB
hiBodHRwOi8vMTcyLjE3LjIwLjEvcmVzcG9uZGVycGF0aDANBgkqhkiG9w0BAQsF
AAOCAQEAIJomveBgyKd4n+02gIcGWTC8Egj3kxzwLzcD3h1BaE0cVHxcwkW73U2X
TuLpR3LXbRtXrwfJ7YiJvT0Mhze7by/Q8oBtZ7i0nts8bF2BbtsUA5r90ADFok4d
pouaCF1VBZbwoKfhZF5J+6DinxTDxtgirwhzdJlfJLrDMNQKZ5BTDPKjHCzmMO9C
4dlFfSvwcNAy7FzJFwR5fhvSkuuhA5LUmzEywHALbtKmm6SpQ1yN6KDasw6mAd+a
Rw+GZgZkG+hP0k1ny8nkHC2VmLvStadDdVH5jh4AUYjnMJpcAgS9LQJ/Oro+9J35
qs58E2AX8WxsFWGV6T5/lzgzJ2ejKg==
-----END CERTIFICATE-----
