Certificate:
    Data:
        Version: 3 (0x2)
        Serial Number: 11042563100287 (0xa0b0c0d0e7f)
    Signature Algorithm: sha256WithRSAEncryption
        Issuer: CN=BHOPALCA_CA, C=IN, O=CITRIX, OU=ANG, ST=KA/emailAddress=BHOPALCA_CA@BHOPALCA_mail.com
        Validity
            Not Before: Aug 23 10:01:27 2017 GMT
            Not After : Aug 21 10:01:27 2027 GMT
        Subject: ST=KA, C=IN, CN=bhopal_24_client/emailAddress=bhopal_24@test_ca.com, O=CITRIX
        Subject Public Key Info:
            Public Key Algorithm: rsaEncryption
                Public-Key: (2048 bit)
                Modulus:
                    00:a2:77:33:bf:2c:07:3a:dd:1e:b8:08:2a:a6:cf:
                    21:c1:d5:1a:95:4e:6f:6e:31:50:93:2a:c8:61:39:
                    e6:c3:8d:7d:2a:21:57:a3:aa:36:57:f4:9c:91:92:
                    8a:a9:a1:23:16:e7:be:ee:a4:58:53:59:41:f8:3c:
                    44:47:1e:42:01:4f:e2:ad:00:fd:86:a8:42:78:79:
                    d3:ad:fa:3b:c7:8c:89:e5:89:c0:e0:e8:39:4a:94:
                    93:88:76:ad:d6:07:ed:bf:67:b6:65:37:a1:07:45:
                    3c:13:7d:92:79:a9:34:b2:b8:c1:49:6f:53:6a:2f:
                    cd:cf:5e:00:57:67:37:c5:c9:37:0a:5c:c4:d0:93:
                    27:7a:d2:5d:c3:b1:c9:10:a9:0a:83:35:ed:fe:23:
                    e3:6f:80:4e:eb:1a:99:6b:39:c4:5f:99:ee:11:04:
                    d3:c6:2c:4e:f6:1d:85:6e:53:77:f3:36:ef:d5:71:
                    a9:5e:8c:12:98:11:ff:97:0a:31:9f:44:3f:0f:21:
                    d1:ff:e6:10:1a:70:bf:1e:c1:d3:85:2d:c7:12:78:
                    02:27:0d:1d:53:77:2e:3f:6c:6c:03:a2:20:24:e6:
                    ba:6f:4e:92:e3:ba:14:44:97:d8:9b:f2:44:57:e1:
                    3f:4d:c8:a8:b6:14:2e:6e:33:75:e5:4f:dd:5a:12:
                    77:11
                Exponent: 65537 (0x10001)
        X509v3 extensions:
            Netscape Cert Type: 
                SSL Client
            X509v3 Subject Key Identifier: 
                1B:87:A3:9C:8E:A1:D1:1D:5E:F6:5B:57:84:7F:A2:B4:CE:D0:AA:93
            X509v3 Authority Key Identifier: 
                keyid:A6:66:0E:59:0F:3C:5C:11:35:B2:B3:99:59:A9:D3:A6:B1:5E:95:D2
                DirName:/CN=BHOPALCA_CA/C=IN/O=CITRIX/OU=ANG/ST=KA/emailAddress=BHOPALCA_CA@BHOPALCA_mail.com
                serial:BE:89:55:F3:65:28:17:9A

            Authority Information Access: 
                OCSP - URI:http://172.17.20.1/responderpath

    Signature Algorithm: sha256WithRSAEncryption
         85:5c:8d:4f:3c:b1:46:a2:20:1d:7b:8f:55:42:f1:bd:a6:55:
         e3:72:30:e8:ac:ec:85:8a:06:f6:97:9b:0e:fd:12:f4:23:e6:
         33:56:75:15:ec:c8:a7:3f:a4:b2:32:91:a1:bd:c2:d0:32:b6:
         05:ee:d8:dd:7f:a6:72:f2:a5:27:2d:86:df:27:7c:83:57:2b:
         5d:b4:a0:96:45:c0:ea:f9:de:d1:4a:05:7c:e1:93:4a:71:b2:
         c9:c2:80:b7:2b:4a:ce:52:e4:ab:37:79:40:92:fa:c2:77:4b:
         e4:e7:b6:c7:80:67:8e:f4:a6:88:f4:3a:90:79:07:22:4a:fa:
         c5:40:43:79:f0:21:7a:76:39:8d:9b:8f:a8:91:28:f1:68:2a:
         75:21:ac:4c:61:41:47:77:fc:0d:33:da:2f:b3:e4:7d:74:f9:
         be:ec:cb:51:cf:f6:4a:0f:d9:dc:3b:e4:20:a3:26:bb:cc:61:
         4a:ee:ed:84:c2:e8:01:e2:18:39:3d:b1:7a:fd:dd:af:76:3e:
         01:81:82:a9:e6:55:d6:aa:28:5b:b3:29:9f:c7:7e:53:be:7f:
         bf:27:a8:7a:55:71:49:77:b7:d7:e0:99:59:06:0e:55:51:94:
         76:21:02:e3:d4:e1:68:ec:44:18:a5:23:65:94:2a:d9:1a:46:
         9d:17:3c:9b
-----BEGIN CERTIFICATE-----
MIIEkjCCA3qgAwIBAgIGCgsMDQ5/MA0GCSqGSIb3DQEBCwUAMH0xFDASBgNVBAMU
C0JIT1BBTENBX0NBMQswCQYDVQQGEwJJTjEPMA0GA1UEChMGQ0lUUklYMQwwCgYD
VQQLEwNBTkcxCzAJBgNVBAgTAktBMSwwKgYJKoZIhvcNAQkBFh1CSE9QQUxDQV9D
QUBCSE9QQUxDQV9tYWlsLmNvbTAeFw0xNzA4MjMxMDAxMjdaFw0yNzA4MjExMDAx
MjdaMGwxCzAJBgNVBAgTAktBMQswCQYDVQQGEwJJTjEZMBcGA1UEAxQQYmhvcGFs
XzI0X2NsaWVudDEkMCIGCSqGSIb3DQEJARYVYmhvcGFsXzI0QHRlc3RfY2EuY29t
MQ8wDQYDVQQKEwZDSVRSSVgwggEiMA0GCSqGSIb3DQEBAQUAA4IBDwAwggEKAoIB
AQCidzO/LAc63R64CCqmzyHB1RqVTm9uMVCTKshhOebDjX0qIVejqjZX9JyRkoqp
oSMW577upFhTWUH4PERHHkIBT+KtAP2GqEJ4edOt+jvHjInlicDg6DlKlJOIdq3W
B+2/Z7ZlN6EHRTwTfZJ5qTSyuMFJb1NqL83PXgBXZzfFyTcKXMTQkyd60l3DsckQ
qQqDNe3+I+NvgE7rGplrOcRfme4RBNPGLE72HYVuU3fzNu/VcalejBKYEf+XCjGf
RD8PIdH/5hAacL8ewdOFLccSeAInDR1Tdy4/bGwDoiAk5rpvTpLjuhREl9ib8kRX
4T9NyKi2FC5uM3XlT91aEncRAgMBAAGjggEnMIIBIzARBglghkgBhvhCAQEEBAMC
B4AwHQYDVR0OBBYEFBuHo5yOodEdXvZbV4R/orTO0KqTMIGwBgNVHSMEgagwgaWA
FKZmDlkPPFwRNbKzmVmp06axXpXSoYGBpH8wfTEUMBIGA1UEAxQLQkhPUEFMQ0Ff
Q0ExCzAJBgNVBAYTAklOMQ8wDQYDVQQKEwZDSVRSSVgxDDAKBgNVBAsTA0FORzEL
MAkGA1UECBMCS0ExLDAqBgkqhkiG9w0BCQEWHUJIT1BBTENBX0NBQEJIT1BBTENB
X21haWwuY29tggkAvolV82UoF5owPAYIKwYBBQUHAQEEMDAuMCwGCCsGAQUFBzAB
hiBodHRwOi8vMTcyLjE3LjIwLjEvcmVzcG9uZGVycGF0aDANBgkqhkiG9w0BAQsF
AAOCAQEAhVyNTzyxRqIgHXuPVULxvaZV43Iw6KzshYoG9pebDv0S9CPmM1Z1FezI
pz+ksjKRob3C0DK2Be7Y3X+mcvKlJy2G3yd8g1crXbSglkXA6vne0UoFfOGTSnGy
ycKAtytKzlLkqzd5QJL6wndL5Oe2x4BnjvSmiPQ6kHkHIkr6xUBDefAhenY5jZuP
qJEo8WgqdSGsTGFBR3f8DTPaL7PkfXT5vuzLUc/2Sg/Z3DvkIKMmu8xhSu7thMLo
AeIYOT2xev3dr3Y+AYGCqeZV1qooW7Mpn8d+U75/vyeoelVxSXe31+CZWQYOVVGU
diEC49ThaOxEGKUjZZQq2RpGnRc8mw==
-----END CERTIFICATE-----
