Certificate:
    Data:
        Version: 3 (0x2)
        Serial Number: 11042563100279 (0xa0b0c0d0e77)
    Signature Algorithm: sha256WithRSAEncryption
        Issuer: CN=BHOPALCA_CA, C=IN, O=CITRIX, OU=ANG, ST=KA/emailAddress=BHOPALCA_CA@BHOPALCA_mail.com
        Validity
            Not Before: Aug 23 10:01:22 2017 GMT
            Not After : Aug 21 10:01:22 2027 GMT
        Subject: ST=KA, C=IN, CN=bhopal_16_client/emailAddress=bhopal_16@test_ca.com, O=CITRIX
        Subject Public Key Info:
            Public Key Algorithm: rsaEncryption
                Public-Key: (2048 bit)
                Modulus:
                    00:af:fb:fa:17:57:36:bb:87:98:27:f2:23:fe:4b:
                    fd:0c:bd:3d:b9:64:8c:4c:9b:d3:7b:b3:10:46:22:
                    3e:05:66:ca:eb:ba:40:e6:da:bd:be:b0:da:97:4a:
                    0e:ab:96:d2:e4:d4:be:38:8e:4a:a4:36:bb:be:7e:
                    fb:c5:39:a3:66:54:d5:c0:42:94:21:4d:53:63:e0:
                    23:46:fb:5a:d2:d9:39:82:23:43:7e:a8:ec:fa:61:
                    57:3b:f1:e1:69:4a:3c:83:82:40:26:7d:e5:12:f0:
                    43:95:ec:ab:78:2a:39:e9:ea:85:73:fb:73:d0:f0:
                    29:30:eb:1d:80:27:63:03:8f:46:64:49:67:29:ea:
                    c4:7b:29:85:c7:e8:5d:a0:cd:7b:4e:94:f4:47:a5:
                    e4:d2:53:61:96:0e:a7:35:f6:d0:2d:bb:0b:a6:d6:
                    de:f9:29:97:41:f9:16:b9:c2:9f:2d:97:fd:95:12:
                    1f:90:dc:d2:5c:d1:40:11:53:85:f8:6e:7e:87:48:
                    6b:2e:7a:83:6c:27:e1:fe:5f:d4:88:63:fa:f9:4b:
                    07:73:1b:9f:1d:f8:69:50:a2:a6:2e:2a:56:ab:06:
                    9c:31:f5:bc:e3:ec:41:42:48:96:47:69:c7:29:15:
                    29:58:16:72:60:f8:12:de:17:ae:61:8a:df:26:de:
                    0f:e1
                Exponent: 65537 (0x10001)
        X509v3 extensions:
            Netscape Cert Type: 
                SSL Client
            X509v3 Subject Key Identifier: 
                26:A3:71:A7:33:19:71:AC:F9:47:4C:C3:A8:B7:0C:EC:03:35:9D:19
            X509v3 Authority Key Identifier: 
                keyid:A6:66:0E:59:0F:3C:5C:11:35:B2:B3:99:59:A9:D3:A6:B1:5E:95:D2
                DirName:/CN=BHOPALCA_CA/C=IN/O=CITRIX/OU=ANG/ST=KA/emailAddress=BHOPALCA_CA@BHOPALCA_mail.com
                serial:BE:89:55:F3:65:28:17:9A

            Authority Information Access: 
                OCSP - URI:http://172.17.20.1/responderpath

    Signature Algorithm: sha256WithRSAEncryption
         1a:86:b3:0d:9c:c9:4c:71:69:33:42:1d:1c:ac:81:de:41:75:
         f0:ee:e8:9d:25:a0:b6:3c:ec:b8:89:23:f8:8e:41:93:30:69:
         34:05:67:3a:7b:31:1e:f1:5c:d6:84:49:af:9a:21:a8:aa:d1:
         83:ce:6a:f5:7f:d4:56:5f:24:1d:c8:0e:4e:62:44:a6:02:a8:
         fa:5b:08:51:9c:33:e5:cb:4f:2d:f2:9b:08:06:6d:20:c7:2b:
         de:84:84:94:21:89:f2:de:34:28:0a:61:9c:c6:f9:8a:04:60:
         a8:2f:24:5d:26:39:fb:46:2b:65:2f:3c:5b:f1:3f:10:92:73:
         d7:fb:5c:57:5c:70:76:10:87:4c:10:32:fb:7f:c7:0b:4e:c3:
         c3:f3:93:90:0a:5e:b8:4f:ff:2b:6d:3e:73:f0:89:2c:0a:9f:
         ba:cd:5b:17:e8:dd:0d:ee:56:dd:ab:b5:da:45:f5:20:5c:5a:
         1e:43:d7:a1:87:84:2d:5d:da:a5:af:38:dd:00:bf:e8:22:a3:
         81:2f:ea:02:45:c8:53:18:2b:38:56:a7:86:34:74:dc:1b:da:
         67:f8:1e:71:81:e8:86:40:bc:9c:48:8e:8f:14:bc:0b:f8:5f:
         8b:14:64:1d:13:8f:41:ce:50:1f:85:9f:43:28:f7:cb:dc:dc:
         65:38:aa:3c
-----BEGIN CERTIFICATE-----
MIIEkjCCA3qgAwIBAgIGCgsMDQ53MA0GCSqGSIb3DQEBCwUAMH0xFDASBgNVBAMU
C0JIT1BBTENBX0NBMQswCQYDVQQGEwJJTjEPMA0GA1UEChMGQ0lUUklYMQwwCgYD
VQQLEwNBTkcxCzAJBgNVBAgTAktBMSwwKgYJKoZIhvcNAQkBFh1CSE9QQUxDQV9D
QUBCSE9QQUxDQV9tYWlsLmNvbTAeFw0xNzA4MjMxMDAxMjJaFw0yNzA4MjExMDAx
MjJaMGwxCzAJBgNVBAgTAktBMQswCQYDVQQGEwJJTjEZMBcGA1UEAxQQYmhvcGFs
XzE2X2NsaWVudDEkMCIGCSqGSIb3DQEJARYVYmhvcGFsXzE2QHRlc3RfY2EuY29t
MQ8wDQYDVQQKEwZDSVRSSVgwggEiMA0GCSqGSIb3DQEBAQUAA4IBDwAwggEKAoIB
AQCv+/oXVza7h5gn8iP+S/0MvT25ZIxMm9N7sxBGIj4FZsrrukDm2r2+sNqXSg6r
ltLk1L44jkqkNru+fvvFOaNmVNXAQpQhTVNj4CNG+1rS2TmCI0N+qOz6YVc78eFp
SjyDgkAmfeUS8EOV7Kt4Kjnp6oVz+3PQ8Ckw6x2AJ2MDj0ZkSWcp6sR7KYXH6F2g
zXtOlPRHpeTSU2GWDqc19tAtuwum1t75KZdB+Ra5wp8tl/2VEh+Q3NJc0UARU4X4
bn6HSGsueoNsJ+H+X9SIY/r5SwdzG58d+GlQoqYuKlarBpwx9bzj7EFCSJZHaccp
FSlYFnJg+BLeF65hit8m3g/hAgMBAAGjggEnMIIBIzARBglghkgBhvhCAQEEBAMC
B4AwHQYDVR0OBBYEFCajcaczGXGs+UdMw6i3DOwDNZ0ZMIGwBgNVHSMEgagwgaWA
FKZmDlkPPFwRNbKzmVmp06axXpXSoYGBpH8wfTEUMBIGA1UEAxQLQkhPUEFMQ0Ff
Q0ExCzAJBgNVBAYTAklOMQ8wDQYDVQQKEwZDSVRSSVgxDDAKBgNVBAsTA0FORzEL
MAkGA1UECBMCS0ExLDAqBgkqhkiG9w0BCQEWHUJIT1BBTENBX0NBQEJIT1BBTENB
X21haWwuY29tggkAvolV82UoF5owPAYIKwYBBQUHAQEEMDAuMCwGCCsGAQUFBzAB
hiBodHRwOi8vMTcyLjE3LjIwLjEvcmVzcG9uZGVycGF0aDANBgkqhkiG9w0BAQsF
AAOCAQEAGoazDZzJTHFpM0IdHKyB3kF18O7onSWgtjzsuIkj+I5BkzBpNAVnOnsx
HvFc1oRJr5ohqKrRg85q9X/UVl8kHcgOTmJEpgKo+lsIUZwz5ctPLfKbCAZtIMcr
3oSElCGJ8t40KAphnMb5igRgqC8kXSY5+0YrZS88W/E/EJJz1/tcV1xwdhCHTBAy
+3/HC07Dw/OTkApeuE//K20+c/CJLAqfus1bF+jdDe5W3au12kX1IFxaHkPXoYeE
LV3apa843QC/6CKjgS/qAkXIUxgrOFanhjR03BvaZ/gecYHohkC8nEiOjxS8C/hf
ixRkHROPQc5QH4WfQyj3y9zcZTiqPA==
-----END CERTIFICATE-----
