Certificate:
    Data:
        Version: 3 (0x2)
        Serial Number: 11042563100267 (0xa0b0c0d0e6b)
    Signature Algorithm: sha256WithRSAEncryption
        Issuer: CN=BHOPALCA_CA, C=IN, O=CITRIX, OU=ANG, ST=KA/emailAddress=BHOPALCA_CA@BHOPALCA_mail.com
        Validity
            Not Before: Aug 23 10:01:15 2017 GMT
            Not After : Aug 21 10:01:15 2027 GMT
        Subject: ST=KA, C=IN, CN=bhopal_4_client/emailAddress=bhopal_4@test_ca.com, O=CITRIX
        Subject Public Key Info:
            Public Key Algorithm: rsaEncryption
                Public-Key: (2048 bit)
                Modulus:
                    00:c9:b9:9d:83:c9:02:c0:79:08:6f:14:ae:9c:3d:
                    2b:cc:e3:49:11:70:6a:d3:0b:d7:04:91:f1:81:1a:
                    da:9f:7d:0e:2c:8f:ae:41:0f:e4:ba:cf:21:22:c6:
                    cd:da:4a:e7:f9:2f:2d:8f:f9:39:8b:30:73:1a:2d:
                    bc:bf:70:db:19:c2:6b:a0:91:68:97:e8:63:3b:af:
                    5a:4c:c3:c0:87:86:20:26:ea:40:b1:e8:d4:5f:32:
                    ed:07:eb:b3:b8:c0:13:5a:d8:68:e2:c3:61:67:e5:
                    9a:73:51:09:12:c3:33:98:07:43:8c:70:0b:87:e5:
                    b0:52:20:3a:f0:8e:49:0e:72:4b:e2:a7:d0:7a:d1:
                    72:de:0c:d2:5b:61:17:d4:75:6a:80:8a:0b:d2:4a:
                    a5:17:a4:76:56:18:15:69:32:01:7a:12:aa:a2:99:
                    2f:bf:e7:9b:37:bc:50:a5:7e:5d:b6:20:5f:59:9e:
                    36:21:39:46:ef:23:40:db:d4:1e:06:50:9d:6b:7e:
                    62:0a:e9:8a:cc:94:1e:cd:79:4a:8a:a4:0e:29:a1:
                    34:3c:09:05:cf:55:10:b5:3c:0a:ab:b6:fb:82:27:
                    c7:05:32:fe:60:05:db:97:cc:45:f6:73:0e:a5:ef:
                    28:82:f3:7f:34:1d:d9:c2:ea:75:46:0c:43:45:d9:
                    72:47
                Exponent: 65537 (0x10001)
        X509v3 extensions:
            Netscape Cert Type: 
                SSL Client
            X509v3 Subject Key Identifier: 
                A9:58:C4:7B:40:72:4F:D5:4A:8A:BB:91:92:8F:43:87:E9:27:36:E2
            X509v3 Authority Key Identifier: 
                keyid:A6:66:0E:59:0F:3C:5C:11:35:B2:B3:99:59:A9:D3:A6:B1:5E:95:D2
                DirName:/CN=BHOPALCA_CA/C=IN/O=CITRIX/OU=ANG/ST=KA/emailAddress=BHOPALCA_CA@BHOPALCA_mail.com
                serial:BE:89:55:F3:65:28:17:9A

            Authority Information Access: 
                OCSP - URI:http://172.17.20.1/responderpath

    Signature Algorithm: sha256WithRSAEncryption
         38:49:b1:9d:a4:9a:42:e2:fe:0b:76:aa:dd:e1:f3:9f:7a:1a:
         0b:56:3e:96:84:d2:19:58:3a:7a:f7:16:a4:cf:2c:0d:dc:91:
         5f:d7:ac:0c:ab:45:fb:c6:88:ab:f2:ab:60:ec:8e:eb:f7:b5:
         42:58:7d:c4:ad:65:36:be:e4:4b:df:0f:1f:4d:f9:e0:dd:f9:
         4a:93:2f:2b:ed:c3:23:c1:4d:9c:1c:8d:ae:c8:3c:49:91:99:
         a3:f1:27:b3:4a:ad:73:39:a3:b5:4a:23:c1:65:93:24:e7:3d:
         a9:fe:74:98:a5:af:3e:ca:89:46:f4:c9:8c:76:a3:20:b1:25:
         fa:9f:6b:9b:33:24:64:79:a0:51:90:fb:67:2d:45:2e:7f:6b:
         84:42:1e:a9:82:bf:1a:0e:c6:78:fd:fd:34:b0:5a:91:f9:59:
         4e:a9:38:58:ab:60:e1:b6:0e:84:c1:ba:f2:75:e2:e8:bf:9e:
         53:f9:76:6b:27:79:8f:b7:72:c8:f4:e0:06:66:5c:10:19:f5:
         6d:6d:0c:42:32:62:b2:1c:b9:70:6f:fe:79:3c:e6:c0:a8:0e:
         7c:7b:d0:d6:e9:06:7a:f6:50:5a:76:e5:b7:91:a4:8a:65:8e:
         46:ed:03:03:58:06:b2:1e:34:07:84:64:1c:15:e8:89:ef:ac:
         e8:55:15:53
-----BEGIN CERTIFICATE-----
MIIEkDCCA3igAwIBAgIGCgsMDQ5rMA0GCSqGSIb3DQEBCwUAMH0xFDASBgNVBAMU
C0JIT1BBTENBX0NBMQswCQYDVQQGEwJJTjEPMA0GA1UEChMGQ0lUUklYMQwwCgYD
VQQLEwNBTkcxCzAJBgNVBAgTAktBMSwwKgYJKoZIhvcNAQkBFh1CSE9QQUxDQV9D
QUBCSE9QQUxDQV9tYWlsLmNvbTAeFw0xNzA4MjMxMDAxMTVaFw0yNzA4MjExMDAx
MTVaMGoxCzAJBgNVBAgTAktBMQswCQYDVQQGEwJJTjEYMBYGA1UEAxQPYmhvcGFs
XzRfY2xpZW50MSMwIQYJKoZIhvcNAQkBFhRiaG9wYWxfNEB0ZXN0X2NhLmNvbTEP
MA0GA1UEChMGQ0lUUklYMIIBIjANBgkqhkiG9w0BAQEFAAOCAQ8AMIIBCgKCAQEA
ybmdg8kCwHkIbxSunD0rzONJEXBq0wvXBJHxgRran30OLI+uQQ/kus8hIsbN2krn
+S8tj/k5izBzGi28v3DbGcJroJFol+hjO69aTMPAh4YgJupAsejUXzLtB+uzuMAT
Wtho4sNhZ+Wac1EJEsMzmAdDjHALh+WwUiA68I5JDnJL4qfQetFy3gzSW2EX1HVq
gIoL0kqlF6R2VhgVaTIBehKqopkvv+ebN7xQpX5dtiBfWZ42ITlG7yNA29QeBlCd
a35iCumKzJQezXlKiqQOKaE0PAkFz1UQtTwKq7b7gifHBTL+YAXbl8xF9nMOpe8o
gvN/NB3Zwup1RgxDRdlyRwIDAQABo4IBJzCCASMwEQYJYIZIAYb4QgEBBAQDAgeA
MB0GA1UdDgQWBBSpWMR7QHJP1UqKu5GSj0OH6Sc24jCBsAYDVR0jBIGoMIGlgBSm
Zg5ZDzxcETWys5lZqdOmsV6V0qGBgaR/MH0xFDASBgNVBAMUC0JIT1BBTENBX0NB
MQswCQYDVQQGEwJJTjEPMA0GA1UEChMGQ0lUUklYMQwwCgYDVQQLEwNBTkcxCzAJ
BgNVBAgTAktBMSwwKgYJKoZIhvcNAQkBFh1CSE9QQUxDQV9DQUBCSE9QQUxDQV9t
YWlsLmNvbYIJAL6JVfNlKBeaMDwGCCsGAQUFBwEBBDAwLjAsBggrBgEFBQcwAYYg
aHR0cDovLzE3Mi4xNy4yMC4xL3Jlc3BvbmRlcnBhdGgwDQYJKoZIhvcNAQELBQAD
ggEBADhJsZ2kmkLi/gt2qt3h8596GgtWPpaE0hlYOnr3FqTPLA3ckV/XrAyrRfvG
iKvyq2Dsjuv3tUJYfcStZTa+5EvfDx9N+eDd+UqTLyvtwyPBTZwcja7IPEmRmaPx
J7NKrXM5o7VKI8FlkyTnPan+dJilrz7KiUb0yYx2oyCxJfqfa5szJGR5oFGQ+2ct
RS5/a4RCHqmCvxoOxnj9/TSwWpH5WU6pOFirYOG2DoTBuvJ14ui/nlP5dmsneY+3
csj04AZmXBAZ9W1tDEIyYrIcuXBv/nk85sCoDnx70NbpBnr2UFp25beRpIpljkbt
AwNYBrIeNAeEZBwV6InvrOhVFVM=
-----END CERTIFICATE-----
