Certificate:
    Data:
        Version: 3 (0x2)
        Serial Number: 11042563100282 (0xa0b0c0d0e7a)
    Signature Algorithm: sha256WithRSAEncryption
        Issuer: CN=BHOPALCA_CA, C=IN, O=CITRIX, OU=ANG, ST=KA/emailAddress=BHOPALCA_CA@BHOPALCA_mail.com
        Validity
            Not Before: Aug 23 10:01:23 2017 GMT
            Not After : Aug 21 10:01:23 2027 GMT
        Subject: ST=KA, C=IN, CN=bhopal_19_client/emailAddress=bhopal_19@test_ca.com, O=CITRIX
        Subject Public Key Info:
            Public Key Algorithm: rsaEncryption
                Public-Key: (2048 bit)
                Modulus:
                    00:99:da:b8:de:fb:8f:44:cc:1c:2b:a9:87:fb:c3:
                    04:c8:ae:b0:8a:2e:68:55:85:06:ec:f5:83:69:71:
                    6d:21:40:a8:97:45:a9:26:2c:2c:e7:c4:61:ee:44:
                    75:e4:f8:02:45:3f:b2:8f:78:24:e1:99:bf:70:9a:
                    36:67:a0:6d:5b:23:29:c4:a8:7a:36:08:42:dd:06:
                    6a:73:71:0e:3f:f5:1f:a5:45:d4:e2:8b:84:8e:2e:
                    94:27:38:54:9c:6a:2d:c9:30:a3:04:74:03:cf:f2:
                    d4:41:35:a4:5f:d7:12:e4:ff:bf:62:4d:a8:0a:16:
                    c0:c5:b9:01:b1:3c:de:ec:29:ea:95:03:36:94:7c:
                    0b:51:94:22:8b:ce:1a:22:a2:45:20:d3:74:c6:29:
                    42:ea:01:ca:3c:78:6d:4b:28:a1:f8:96:6e:de:52:
                    2c:48:6a:54:52:d0:bb:57:87:66:65:dd:75:4e:23:
                    31:4d:34:44:1c:9e:92:bc:4c:bf:1f:51:54:27:a3:
                    1d:f6:0d:2a:7b:a5:5c:07:4b:e8:62:6b:2b:70:75:
                    a1:64:da:44:62:8e:4b:30:87:7c:1b:ec:5a:30:32:
                    b1:da:07:bb:cb:db:a5:2c:e0:db:87:d5:11:62:6e:
                    cb:c3:86:06:41:0f:d6:b3:b8:71:88:1c:7a:8c:3b:
                    15:cf
                Exponent: 65537 (0x10001)
        X509v3 extensions:
            Netscape Cert Type: 
                SSL Client
            X509v3 Subject Key Identifier: 
                F5:1F:09:12:0F:4A:B6:FA:16:DB:8C:CF:4B:D5:0F:85:FD:0B:7D:41
            X509v3 Authority Key Identifier: 
                keyid:A6:66:0E:59:0F:3C:5C:11:35:B2:B3:99:59:A9:D3:A6:B1:5E:95:D2
                DirName:/CN=BHOPALCA_CA/C=IN/O=CITRIX/OU=ANG/ST=KA/emailAddress=BHOPALCA_CA@BHOPALCA_mail.com
                serial:BE:89:55:F3:65:28:17:9A

            Authority Information Access: 
                OCSP - URI:http://172.17.20.1/responderpath

    Signature Algorithm: sha256WithRSAEncryption
         27:b2:9b:cb:c2:68:a3:2a:d5:4b:4e:e8:64:66:b1:50:f7:5d:
         12:82:13:07:6b:e5:71:2a:a3:04:8b:b3:08:15:13:8d:1b:7e:
         41:01:e8:98:e6:6f:cf:48:83:a3:8f:32:fb:43:ad:62:d2:cb:
         50:d6:f5:b3:a8:0e:6e:07:b9:9b:3e:d5:64:fb:7d:ec:2b:38:
         f9:d1:7a:42:45:7e:f1:7a:e5:0c:89:62:94:17:12:85:64:3d:
         50:11:8e:38:ae:fa:39:2c:2f:76:e3:28:bd:99:0b:40:cf:6d:
         bc:b7:81:e8:95:b6:26:8d:e7:54:57:24:60:e1:1c:8e:32:fc:
         1c:ef:d3:8e:19:85:94:0a:be:60:28:b9:fd:0c:9a:eb:12:bd:
         94:95:c1:82:d4:bd:65:27:e2:32:d5:19:26:5a:ca:5b:cb:f8:
         a3:0b:b3:d7:1d:72:a2:9c:27:db:3b:ea:d8:ab:cb:30:48:1c:
         95:df:63:04:29:37:66:35:49:20:ac:2e:9f:cb:3a:1c:31:2e:
         1f:b8:a3:44:57:e4:e3:7e:ce:7a:c3:a8:c9:4d:1c:db:46:ef:
         0c:d2:2c:54:29:5b:f3:63:56:01:b2:39:0c:97:84:a0:f0:83:
         e5:93:84:06:41:e0:aa:d0:a1:50:82:0a:3e:ad:d6:e3:73:55:
         4c:5c:2f:01
-----BEGIN CERTIFICATE-----
MIIEkjCCA3qgAwIBAgIGCgsMDQ56MA0GCSqGSIb3DQEBCwUAMH0xFDASBgNVBAMU
C0JIT1BBTENBX0NBMQswCQYDVQQGEwJJTjEPMA0GA1UEChMGQ0lUUklYMQwwCgYD
VQQLEwNBTkcxCzAJBgNVBAgTAktBMSwwKgYJKoZIhvcNAQkBFh1CSE9QQUxDQV9D
QUBCSE9QQUxDQV9tYWlsLmNvbTAeFw0xNzA4MjMxMDAxMjNaFw0yNzA4MjExMDAx
MjNaMGwxCzAJBgNVBAgTAktBMQswCQYDVQQGEwJJTjEZMBcGA1UEAxQQYmhvcGFs
XzE5X2NsaWVudDEkMCIGCSqGSIb3DQEJARYVYmhvcGFsXzE5QHRlc3RfY2EuY29t
MQ8wDQYDVQQKEwZDSVRSSVgwggEiMA0GCSqGSIb3DQEBAQUAA4IBDwAwggEKAoIB
AQCZ2rje+49EzBwrqYf7wwTIrrCKLmhVhQbs9YNpcW0hQKiXRakmLCznxGHuRHXk
+AJFP7KPeCThmb9wmjZnoG1bIynEqHo2CELdBmpzcQ4/9R+lRdTii4SOLpQnOFSc
ai3JMKMEdAPP8tRBNaRf1xLk/79iTagKFsDFuQGxPN7sKeqVAzaUfAtRlCKLzhoi
okUg03TGKULqAco8eG1LKKH4lm7eUixIalRS0LtXh2Zl3XVOIzFNNEQcnpK8TL8f
UVQnox32DSp7pVwHS+hiaytwdaFk2kRijkswh3wb7FowMrHaB7vL26Us4NuH1RFi
bsvDhgZBD9azuHGIHHqMOxXPAgMBAAGjggEnMIIBIzARBglghkgBhvhCAQEEBAMC
B4AwHQYDVR0OBBYEFPUfCRIPSrb6FtuMz0vVD4X9C31BMIGwBgNVHSMEgagwgaWA
FKZmDlkPPFwRNbKzmVmp06axXpXSoYGBpH8wfTEUMBIGA1UEAxQLQkhPUEFMQ0Ff
Q0ExCzAJBgNVBAYTAklOMQ8wDQYDVQQKEwZDSVRSSVgxDDAKBgNVBAsTA0FORzEL
MAkGA1UECBMCS0ExLDAqBgkqhkiG9w0BCQEWHUJIT1BBTENBX0NBQEJIT1BBTENB
X21haWwuY29tggkAvolV82UoF5owPAYIKwYBBQUHAQEEMDAuMCwGCCsGAQUFBzAB
hiBodHRwOi8vMTcyLjE3LjIwLjEvcmVzcG9uZGVycGF0aDANBgkqhkiG9w0BAQsF
AAOCAQEAJ7Kby8JooyrVS07oZGaxUPddEoITB2vlcSqjBIuzCBUTjRt+QQHomOZv
z0iDo48y+0OtYtLLUNb1s6gObge5mz7VZPt97Cs4+dF6QkV+8XrlDIlilBcShWQ9
UBGOOK76OSwvduMovZkLQM9tvLeB6JW2Jo3nVFckYOEcjjL8HO/TjhmFlAq+YCi5
/Qya6xK9lJXBgtS9ZSfiMtUZJlrKW8v4owuz1x1yopwn2zvq2KvLMEgcld9jBCk3
ZjVJIKwun8s6HDEuH7ijRFfk437OesOoyU0c20bvDNIsVClb82NWAbI5DJeEoPCD
5ZOEBkHgqtChUIIKPq3W43NVTFwvAQ==
-----END CERTIFICATE-----
