Certificate:
    Data:
        Version: 3 (0x2)
        Serial Number: 11042563100271 (0xa0b0c0d0e6f)
    Signature Algorithm: sha256WithRSAEncryption
        Issuer: CN=BHOPALCA_CA, C=IN, O=CITRIX, OU=ANG, ST=KA/emailAddress=BHOPALCA_CA@BHOPALCA_mail.com
        Validity
            Not Before: Aug 23 10:01:18 2017 GMT
            Not After : Aug 21 10:01:18 2027 GMT
        Subject: ST=KA, C=IN, CN=bhopal_8_client/emailAddress=bhopal_8@test_ca.com, O=CITRIX
        Subject Public Key Info:
            Public Key Algorithm: rsaEncryption
                Public-Key: (2048 bit)
                Modulus:
                    00:9b:25:ab:62:4f:af:c2:96:a5:66:8f:59:b9:38:
                    d1:a3:06:69:e8:ad:e5:b0:d3:4b:8e:36:83:b9:a6:
                    9e:54:a9:72:4a:cb:ac:0c:e5:0c:23:60:a1:de:bf:
                    58:ab:ac:8d:83:60:d0:be:fb:31:e2:de:bb:05:c0:
                    e1:8c:ce:9a:06:56:0b:e8:df:72:82:1e:db:7b:b1:
                    9e:f0:18:78:89:44:87:e3:ec:0e:10:0d:ab:6d:16:
                    7f:62:3e:b2:ef:93:59:38:ca:81:95:05:92:46:db:
                    63:14:56:1b:99:5c:dc:01:95:69:16:28:2e:0e:b9:
                    0a:83:4b:80:cf:6c:85:97:a6:c2:ab:79:f9:77:73:
                    e3:09:84:e3:d7:55:3a:33:8c:b0:cb:4f:36:79:ce:
                    91:e4:fd:a4:55:4b:d4:14:7e:41:17:d8:6d:d0:38:
                    95:c8:5c:02:62:d8:df:b8:68:41:5b:10:c1:8e:c5:
                    02:1c:fd:b0:5a:ce:22:67:d7:31:e4:a4:23:4f:0f:
                    39:59:e7:78:83:01:ce:98:c6:2e:d4:fa:23:18:1e:
                    fd:95:7d:8e:95:3e:a3:42:5d:c6:a3:ff:f3:a3:e0:
                    17:f7:f1:57:55:c3:4a:f5:b6:58:d6:50:ae:40:b6:
                    34:12:99:f4:5f:79:ea:6c:b7:e9:5e:33:cc:f6:c9:
                    2a:5d
                Exponent: 65537 (0x10001)
        X509v3 extensions:
            Netscape Cert Type: 
                SSL Client
            X509v3 Subject Key Identifier: 
                40:D7:B2:1B:67:90:DF:5F:73:4B:9E:7B:50:62:68:FE:A6:58:D1:16
            X509v3 Authority Key Identifier: 
                keyid:A6:66:0E:59:0F:3C:5C:11:35:B2:B3:99:59:A9:D3:A6:B1:5E:95:D2
                DirName:/CN=BHOPALCA_CA/C=IN/O=CITRIX/OU=ANG/ST=KA/emailAddress=BHOPALCA_CA@BHOPALCA_mail.com
                serial:BE:89:55:F3:65:28:17:9A

            Authority Information Access: 
                OCSP - URI:http://172.17.20.1/responderpath

    Signature Algorithm: sha256WithRSAEncryption
         36:ef:f6:5c:6a:f8:e7:08:ea:8c:ff:4d:be:67:52:c8:1a:b2:
         81:18:a3:19:e3:49:5f:2e:82:45:04:9c:7d:9c:ee:84:40:77:
         2c:86:53:3c:78:7c:ca:cc:6a:03:ea:e6:7f:bb:77:d5:c0:a3:
         de:2f:a8:48:3e:f3:09:32:d6:a9:ec:18:44:60:62:1c:98:8a:
         dd:eb:12:71:66:7f:fe:11:5d:54:22:df:c3:bb:c1:3d:eb:8f:
         41:be:a2:60:5c:9f:10:43:19:86:28:40:81:2c:57:e2:ea:36:
         57:e3:2e:32:9c:46:86:8c:20:8a:cc:78:9b:6f:c2:04:ac:e0:
         2a:06:5f:ca:f5:74:3d:26:15:e6:f9:1d:83:25:00:b8:12:f7:
         45:33:14:9d:73:46:2e:c5:da:b0:f6:dc:3f:5b:76:ea:d3:59:
         2d:a3:91:62:7b:6e:50:ab:c8:8f:68:54:c3:7b:3e:7c:0c:52:
         fc:0c:9a:7f:6d:45:e6:05:1d:49:da:fb:cb:69:6c:57:42:ac:
         35:bb:39:cb:68:b5:e3:6a:cc:99:02:17:dc:ef:37:e5:dc:32:
         cd:53:39:d5:af:0b:db:0f:4c:a8:eb:89:53:ee:2d:32:d3:8f:
         81:a6:ac:db:f9:56:c1:7d:54:e1:ac:66:49:01:46:d8:2c:90:
         02:17:3d:e6
-----BEGIN CERTIFICATE-----
MIIEkDCCA3igAwIBAgIGCgsMDQ5vMA0GCSqGSIb3DQEBCwUAMH0xFDASBgNVBAMU
C0JIT1BBTENBX0NBMQswCQYDVQQGEwJJTjEPMA0GA1UEChMGQ0lUUklYMQwwCgYD
VQQLEwNBTkcxCzAJBgNVBAgTAktBMSwwKgYJKoZIhvcNAQkBFh1CSE9QQUxDQV9D
QUBCSE9QQUxDQV9tYWlsLmNvbTAeFw0xNzA4MjMxMDAxMThaFw0yNzA4MjExMDAx
MThaMGoxCzAJBgNVBAgTAktBMQswCQYDVQQGEwJJTjEYMBYGA1UEAxQPYmhvcGFs
XzhfY2xpZW50MSMwIQYJKoZIhvcNAQkBFhRiaG9wYWxfOEB0ZXN0X2NhLmNvbTEP
MA0GA1UEChMGQ0lUUklYMIIBIjANBgkqhkiG9w0BAQEFAAOCAQ8AMIIBCgKCAQEA
myWrYk+vwpalZo9ZuTjRowZp6K3lsNNLjjaDuaaeVKlySsusDOUMI2Ch3r9Yq6yN
g2DQvvsx4t67BcDhjM6aBlYL6N9ygh7be7Ge8Bh4iUSH4+wOEA2rbRZ/Yj6y75NZ
OMqBlQWSRttjFFYbmVzcAZVpFiguDrkKg0uAz2yFl6bCq3n5d3PjCYTj11U6M4yw
y082ec6R5P2kVUvUFH5BF9ht0DiVyFwCYtjfuGhBWxDBjsUCHP2wWs4iZ9cx5KQj
Tw85Wed4gwHOmMYu1PojGB79lX2OlT6jQl3Go//zo+AX9/FXVcNK9bZY1lCuQLY0
Epn0X3nqbLfpXjPM9skqXQIDAQABo4IBJzCCASMwEQYJYIZIAYb4QgEBBAQDAgeA
MB0GA1UdDgQWBBRA17IbZ5DfX3NLnntQYmj+pljRFjCBsAYDVR0jBIGoMIGlgBSm
Zg5ZDzxcETWys5lZqdOmsV6V0qGBgaR/MH0xFDASBgNVBAMUC0JIT1BBTENBX0NB
MQswCQYDVQQGEwJJTjEPMA0GA1UEChMGQ0lUUklYMQwwCgYDVQQLEwNBTkcxCzAJ
BgNVBAgTAktBMSwwKgYJKoZIhvcNAQkBFh1CSE9QQUxDQV9DQUBCSE9QQUxDQV9t
YWlsLmNvbYIJAL6JVfNlKBeaMDwGCCsGAQUFBwEBBDAwLjAsBggrBgEFBQcwAYYg
aHR0cDovLzE3Mi4xNy4yMC4xL3Jlc3BvbmRlcnBhdGgwDQYJKoZIhvcNAQELBQAD
ggEBADbv9lxq+OcI6oz/Tb5nUsgasoEYoxnjSV8ugkUEnH2c7oRAdyyGUzx4fMrM
agPq5n+7d9XAo94vqEg+8wky1qnsGERgYhyYit3rEnFmf/4RXVQi38O7wT3rj0G+
omBcnxBDGYYoQIEsV+LqNlfjLjKcRoaMIIrMeJtvwgSs4CoGX8r1dD0mFeb5HYMl
ALgS90UzFJ1zRi7F2rD23D9bdurTWS2jkWJ7blCryI9oVMN7PnwMUvwMmn9tReYF
HUna+8tpbFdCrDW7OctoteNqzJkCF9zvN+XcMs1TOdWvC9sPTKjriVPuLTLTj4Gm
rNv5VsF9VOGsZkkBRtgskAIXPeY=
-----END CERTIFICATE-----
