Certificate:
    Data:
        Version: 3 (0x2)
        Serial Number: 11042563100284 (0xa0b0c0d0e7c)
    Signature Algorithm: sha256WithRSAEncryption
        Issuer: CN=BHOPALCA_CA, C=IN, O=CITRIX, OU=ANG, ST=KA/emailAddress=BHOPALCA_CA@BHOPALCA_mail.com
        Validity
            Not Before: Aug 23 10:01:24 2017 GMT
            Not After : Aug 21 10:01:24 2027 GMT
        Subject: ST=KA, C=IN, CN=bhopal_21_client/emailAddress=bhopal_21@test_ca.com, O=CITRIX
        Subject Public Key Info:
            Public Key Algorithm: rsaEncryption
                Public-Key: (2048 bit)
                Modulus:
                    00:c7:ae:63:9a:fe:bd:20:a4:59:75:0b:8a:a2:da:
                    ba:21:fb:36:98:93:6a:4b:c2:4e:14:de:67:b4:91:
                    fb:dd:c7:07:d3:4f:f3:10:16:3e:09:07:d3:8e:54:
                    f1:79:7a:f6:7f:20:31:e5:07:54:a2:4e:f0:54:9b:
                    20:32:61:32:78:5d:bd:f5:1f:f8:9e:fe:8a:a6:23:
                    61:ce:5c:f3:f4:08:a2:90:79:77:2e:48:1b:6d:99:
                    86:0f:42:cc:41:88:01:10:29:0c:1f:43:c4:9b:0a:
                    5f:70:e2:47:84:89:a7:8c:b5:13:35:20:ed:ed:5c:
                    d4:93:ce:03:75:1c:41:ef:2c:a1:4b:1e:1f:c9:9d:
                    3f:76:cb:08:05:4d:a1:44:74:74:c8:c3:9c:a5:29:
                    48:01:d9:0b:84:fd:5a:d4:4a:e0:87:e9:40:f0:a1:
                    dc:43:29:45:1e:9c:08:2f:77:c8:22:2d:7f:40:a6:
                    22:bc:b5:14:7a:ea:99:b2:47:1e:5b:61:70:48:17:
                    f3:5d:eb:a3:39:4e:4b:58:4e:90:d8:b9:40:98:bd:
                    5b:7d:e3:bb:5d:4b:36:17:28:a0:a6:65:e2:53:7f:
                    a8:31:d6:07:48:65:9b:e7:23:f5:41:71:8a:8a:c1:
                    22:21:f8:fd:ed:a6:db:27:8a:46:4f:05:8c:57:43:
                    e9:61
                Exponent: 65537 (0x10001)
        X509v3 extensions:
            Netscape Cert Type: 
                SSL Client
            X509v3 Subject Key Identifier: 
                55:E8:02:0B:8B:AA:23:A2:F0:60:1F:59:CF:BF:D4:FC:BE:8A:58:CC
            X509v3 Authority Key Identifier: 
                keyid:A6:66:0E:59:0F:3C:5C:11:35:B2:B3:99:59:A9:D3:A6:B1:5E:95:D2
                DirName:/CN=BHOPALCA_CA/C=IN/O=CITRIX/OU=ANG/ST=KA/emailAddress=BHOPALCA_CA@BHOPALCA_mail.com
                serial:BE:89:55:F3:65:28:17:9A

            Authority Information Access: 
                OCSP - URI:http://172.17.20.1/responderpath

    Signature Algorithm: sha256WithRSAEncryption
         83:e1:92:2d:8a:46:73:c8:f9:83:1c:5d:81:41:04:50:a4:0c:
         46:3e:6e:73:35:bf:6b:b3:bf:31:18:c4:87:f2:fc:e0:4e:77:
         cd:e0:68:a4:e9:52:0f:00:70:ea:9d:c4:de:97:3f:b2:d4:0a:
         ac:56:b2:8a:6e:de:35:27:68:af:c2:38:a0:82:61:b9:0a:60:
         1c:a0:81:6a:3d:0c:66:b2:59:a1:6e:65:81:19:a8:90:c0:10:
         9b:64:02:68:4d:54:39:0c:94:9f:7f:29:7a:f3:1a:fa:d7:26:
         c5:d1:b4:13:b1:11:c8:ba:59:29:d8:fc:f9:7b:0f:78:78:f5:
         1c:cd:00:27:cf:63:25:8a:89:49:78:27:03:e9:ca:71:0b:1c:
         e5:53:3b:3c:bb:32:41:0d:8a:e8:3d:f3:09:47:31:3d:08:ce:
         2d:a6:9a:58:f8:d2:21:a9:47:75:b6:61:0f:03:8e:7f:85:b9:
         37:1b:6c:1b:02:13:57:e0:f1:ee:dd:b0:ca:82:c4:ec:f7:93:
         86:11:8c:eb:9a:9f:b4:90:0b:36:8e:d4:88:dd:54:b8:37:53:
         9e:eb:bc:f9:42:f1:50:cc:be:0a:42:95:17:83:fc:01:0c:1b:
         cf:da:68:3e:54:65:36:5f:fb:44:4d:9b:f8:29:10:31:06:38:
         ab:e2:7b:c1
-----BEGIN CERTIFICATE-----
MIIEkjCCA3qgAwIBAgIGCgsMDQ58MA0GCSqGSIb3DQEBCwUAMH0xFDASBgNVBAMU
C0JIT1BBTENBX0NBMQswCQYDVQQGEwJJTjEPMA0GA1UEChMGQ0lUUklYMQwwCgYD
VQQLEwNBTkcxCzAJBgNVBAgTAktBMSwwKgYJKoZIhvcNAQkBFh1CSE9QQUxDQV9D
QUBCSE9QQUxDQV9tYWlsLmNvbTAeFw0xNzA4MjMxMDAxMjRaFw0yNzA4MjExMDAx
MjRaMGwxCzAJBgNVBAgTAktBMQswCQYDVQQGEwJJTjEZMBcGA1UEAxQQYmhvcGFs
XzIxX2NsaWVudDEkMCIGCSqGSIb3DQEJARYVYmhvcGFsXzIxQHRlc3RfY2EuY29t
MQ8wDQYDVQQKEwZDSVRSSVgwggEiMA0GCSqGSIb3DQEBAQUAA4IBDwAwggEKAoIB
AQDHrmOa/r0gpFl1C4qi2roh+zaYk2pLwk4U3me0kfvdxwfTT/MQFj4JB9OOVPF5
evZ/IDHlB1SiTvBUmyAyYTJ4Xb31H/ie/oqmI2HOXPP0CKKQeXcuSBttmYYPQsxB
iAEQKQwfQ8SbCl9w4keEiaeMtRM1IO3tXNSTzgN1HEHvLKFLHh/JnT92ywgFTaFE
dHTIw5ylKUgB2QuE/VrUSuCH6UDwodxDKUUenAgvd8giLX9ApiK8tRR66pmyRx5b
YXBIF/Nd66M5TktYTpDYuUCYvVt947tdSzYXKKCmZeJTf6gx1gdIZZvnI/VBcYqK
wSIh+P3tptsnikZPBYxXQ+lhAgMBAAGjggEnMIIBIzARBglghkgBhvhCAQEEBAMC
B4AwHQYDVR0OBBYEFFXoAguLqiOi8GAfWc+/1Py+iljMMIGwBgNVHSMEgagwgaWA
FKZmDlkPPFwRNbKzmVmp06axXpXSoYGBpH8wfTEUMBIGA1UEAxQLQkhPUEFMQ0Ff
Q0ExCzAJBgNVBAYTAklOMQ8wDQYDVQQKEwZDSVRSSVgxDDAKBgNVBAsTA0FORzEL
MAkGA1UECBMCS0ExLDAqBgkqhkiG9w0BCQEWHUJIT1BBTENBX0NBQEJIT1BBTENB
X21haWwuY29tggkAvolV82UoF5owPAYIKwYBBQUHAQEEMDAuMCwGCCsGAQUFBzAB
hiBodHRwOi8vMTcyLjE3LjIwLjEvcmVzcG9uZGVycGF0aDANBgkqhkiG9w0BAQsF
AAOCAQEAg+GSLYpGc8j5gxxdgUEEUKQMRj5uczW/a7O/MRjEh/L84E53zeBopOlS
DwBw6p3E3pc/stQKrFayim7eNSdor8I4oIJhuQpgHKCBaj0MZrJZoW5lgRmokMAQ
m2QCaE1UOQyUn38pevMa+tcmxdG0E7ERyLpZKdj8+XsPeHj1HM0AJ89jJYqJSXgn
A+nKcQsc5VM7PLsyQQ2K6D3zCUcxPQjOLaaaWPjSIalHdbZhDwOOf4W5NxtsGwIT
V+Dx7t2wyoLE7PeThhGM65qftJALNo7UiN1UuDdTnuu8+ULxUMy+CkKVF4P8AQwb
z9poPlRlNl/7RE2b+CkQMQY4q+J7wQ==
-----END CERTIFICATE-----
