Certificate:
    Data:
        Version: 3 (0x2)
        Serial Number: 11042563100300 (0xa0b0c0d0e8c)
    Signature Algorithm: sha256WithRSAEncryption
        Issuer: CN=BHOPALCA_CA, C=IN, O=CITRIX, OU=ANG, ST=KA/emailAddress=BHOPALCA_CA@BHOPALCA_mail.com
        Validity
            Not Before: Aug 23 10:01:33 2017 GMT
            Not After : Aug 21 10:01:33 2027 GMT
        Subject: ST=KA, C=IN, CN=bhopal_37_client/emailAddress=bhopal_37@test_ca.com, O=CITRIX
        Subject Public Key Info:
            Public Key Algorithm: rsaEncryption
                Public-Key: (2048 bit)
                Modulus:
                    00:c8:4a:fa:e8:9e:32:48:a2:61:0e:16:33:a1:2d:
                    bf:07:e3:3c:47:5e:a2:33:2f:c8:fd:82:32:26:95:
                    5a:d5:8c:92:dd:8c:9e:e5:3d:41:22:e6:c2:52:77:
                    83:dc:d6:3c:64:1a:b2:88:bb:dd:c9:1b:a0:18:30:
                    7d:7e:0c:ff:a7:87:d4:49:61:d4:fc:90:40:b0:cc:
                    f2:eb:b4:ff:f1:e9:37:91:9e:0e:64:8d:36:8c:97:
                    fe:d0:9d:fb:ec:a7:4a:b6:4f:2e:ac:7d:01:f1:9e:
                    24:b3:65:db:2f:12:c1:2e:21:30:e1:09:03:90:49:
                    b5:bc:02:1c:53:b5:72:35:f4:27:ab:41:4c:f3:b3:
                    95:df:ab:4b:59:ef:b6:5c:0c:d4:eb:c3:16:ba:5d:
                    b4:4e:33:33:e3:5a:a6:f5:05:c8:3b:23:ef:89:c6:
                    db:1c:f3:64:21:e9:c8:2b:d0:1a:19:9e:c7:c4:f0:
                    cc:74:f9:8e:db:d1:59:47:08:48:d4:72:0b:65:70:
                    c9:94:e9:74:e9:d7:24:e5:9c:dd:25:fb:a0:89:a0:
                    4d:43:96:32:16:10:49:99:e8:a6:65:bd:28:f5:bb:
                    b2:d7:4a:7d:64:e2:7b:b7:52:de:0f:67:6b:de:e5:
                    c7:92:bc:16:14:47:c4:e7:d9:6f:6f:e4:75:94:4e:
                    36:b5
                Exponent: 65537 (0x10001)
        X509v3 extensions:
            Netscape Cert Type: 
                SSL Client
            X509v3 Subject Key Identifier: 
                67:BC:8A:3E:F0:F1:B8:CC:4A:3E:E5:28:B2:71:86:7E:D8:E6:F8:1F
            X509v3 Authority Key Identifier: 
                keyid:A6:66:0E:59:0F:3C:5C:11:35:B2:B3:99:59:A9:D3:A6:B1:5E:95:D2
                DirName:/CN=BHOPALCA_CA/C=IN/O=CITRIX/OU=ANG/ST=KA/emailAddress=BHOPALCA_CA@BHOPALCA_mail.com
                serial:BE:89:55:F3:65:28:17:9A

            Authority Information Access: 
                OCSP - URI:http://172.17.20.1/responderpath

    Signature Algorithm: sha256WithRSAEncryption
         41:df:a8:2b:94:b1:52:03:00:44:63:e4:c2:e7:6f:ad:ef:f8:
         3d:2b:df:23:83:15:bc:1f:4c:44:8c:d6:4f:f7:83:37:03:5d:
         06:94:31:2b:7e:40:0f:9b:4c:4f:62:69:4f:ee:33:1d:b7:e4:
         e2:5d:3d:e1:4c:a2:85:5f:9e:ed:60:6d:b1:a8:0e:8e:2a:35:
         61:dc:df:ad:18:90:3d:47:fd:9c:9b:7b:da:8e:2e:12:a0:6f:
         5e:0c:6d:6f:18:6b:fb:79:84:7a:86:87:8d:ac:44:56:93:d3:
         e2:09:35:80:ed:b0:d2:4c:c9:d9:b3:5d:79:c8:04:b7:da:d8:
         52:15:fb:6d:8b:03:65:2a:05:1e:2f:c1:59:14:46:02:d3:3c:
         ec:4b:f2:57:35:24:f1:de:f2:13:2b:1f:6a:5e:38:1c:43:71:
         da:d4:c2:5d:35:e9:a7:c4:ee:5c:75:cd:d9:6a:12:1a:c7:54:
         3d:ba:85:c1:1c:e8:49:6f:d7:7e:4e:1b:08:05:23:62:59:dc:
         bb:48:7d:5a:6c:c4:cd:0e:94:f5:5f:3f:44:34:1c:83:0e:2a:
         6f:c7:fe:37:55:aa:08:e1:16:17:6a:6e:2d:03:3e:35:14:72:
         0a:d2:8c:a3:b5:80:3c:7a:89:86:ae:5c:65:4a:a3:e6:1e:ad:
         13:75:09:83
-----BEGIN CERTIFICATE-----
MIIEkjCCA3qgAwIBAgIGCgsMDQ6MMA0GCSqGSIb3DQEBCwUAMH0xFDASBgNVBAMU
C0JIT1BBTENBX0NBMQswCQYDVQQGEwJJTjEPMA0GA1UEChMGQ0lUUklYMQwwCgYD
VQQLEwNBTkcxCzAJBgNVBAgTAktBMSwwKgYJKoZIhvcNAQkBFh1CSE9QQUxDQV9D
QUBCSE9QQUxDQV9tYWlsLmNvbTAeFw0xNzA4MjMxMDAxMzNaFw0yNzA4MjExMDAx
MzNaMGwxCzAJBgNVBAgTAktBMQswCQYDVQQGEwJJTjEZMBcGA1UEAxQQYmhvcGFs
XzM3X2NsaWVudDEkMCIGCSqGSIb3DQEJARYVYmhvcGFsXzM3QHRlc3RfY2EuY29t
MQ8wDQYDVQQKEwZDSVRSSVgwggEiMA0GCSqGSIb3DQEBAQUAA4IBDwAwggEKAoIB
AQDISvronjJIomEOFjOhLb8H4zxHXqIzL8j9gjImlVrVjJLdjJ7lPUEi5sJSd4Pc
1jxkGrKIu93JG6AYMH1+DP+nh9RJYdT8kECwzPLrtP/x6TeRng5kjTaMl/7Qnfvs
p0q2Ty6sfQHxniSzZdsvEsEuITDhCQOQSbW8AhxTtXI19CerQUzzs5Xfq0tZ77Zc
DNTrwxa6XbROMzPjWqb1Bcg7I++Jxtsc82Qh6cgr0BoZnsfE8Mx0+Y7b0VlHCEjU
cgtlcMmU6XTp1yTlnN0l+6CJoE1DljIWEEmZ6KZlvSj1u7LXSn1k4nu3Ut4PZ2ve
5ceSvBYUR8Tn2W9v5HWUTja1AgMBAAGjggEnMIIBIzARBglghkgBhvhCAQEEBAMC
B4AwHQYDVR0OBBYEFGe8ij7w8bjMSj7lKLJxhn7Y5vgfMIGwBgNVHSMEgagwgaWA
FKZmDlkPPFwRNbKzmVmp06axXpXSoYGBpH8wfTEUMBIGA1UEAxQLQkhPUEFMQ0Ff
Q0ExCzAJBgNVBAYTAklOMQ8wDQYDVQQKEwZDSVRSSVgxDDAKBgNVBAsTA0FORzEL
MAkGA1UECBMCS0ExLDAqBgkqhkiG9w0BCQEWHUJIT1BBTENBX0NBQEJIT1BBTENB
X21haWwuY29tggkAvolV82UoF5owPAYIKwYBBQUHAQEEMDAuMCwGCCsGAQUFBzAB
hiBodHRwOi8vMTcyLjE3LjIwLjEvcmVzcG9uZGVycGF0aDANBgkqhkiG9w0BAQsF
AAOCAQEAQd+oK5SxUgMARGPkwudvre/4PSvfI4MVvB9MRIzWT/eDNwNdBpQxK35A
D5tMT2JpT+4zHbfk4l094UyihV+e7WBtsagOjio1YdzfrRiQPUf9nJt72o4uEqBv
Xgxtbxhr+3mEeoaHjaxEVpPT4gk1gO2w0kzJ2bNdecgEt9rYUhX7bYsDZSoFHi/B
WRRGAtM87EvyVzUk8d7yEysfal44HENx2tTCXTXpp8TuXHXN2WoSGsdUPbqFwRzo
SW/Xfk4bCAUjYlncu0h9WmzEzQ6U9V8/RDQcgw4qb8f+N1WqCOEWF2puLQM+NRRy
CtKMo7WAPHqJhq5cZUqj5h6tE3UJgw==
-----END CERTIFICATE-----
