Certificate:
    Data:
        Version: 3 (0x2)
        Serial Number: 11042563100274 (0xa0b0c0d0e72)
    Signature Algorithm: sha256WithRSAEncryption
        Issuer: CN=BHOPALCA_CA, C=IN, O=CITRIX, OU=ANG, ST=KA/emailAddress=BHOPALCA_CA@BHOPALCA_mail.com
        Validity
            Not Before: Aug 23 10:01:20 2017 GMT
            Not After : Aug 21 10:01:20 2027 GMT
        Subject: ST=KA, C=IN, CN=bhopal_11_client/emailAddress=bhopal_11@test_ca.com, O=CITRIX
        Subject Public Key Info:
            Public Key Algorithm: rsaEncryption
                Public-Key: (2048 bit)
                Modulus:
                    00:c0:35:fa:bd:9f:e5:c7:bd:80:7c:be:b0:6f:3c:
                    5c:46:d7:cf:c1:22:de:67:ab:5e:5f:06:ac:51:11:
                    8a:5c:ee:60:99:69:22:e3:ab:69:0f:41:79:5f:85:
                    43:0d:c2:8f:fd:e2:52:1e:da:30:ef:84:de:64:d8:
                    eb:a7:4c:33:10:7f:7a:c8:c2:56:47:97:f0:c7:62:
                    30:ff:0c:84:8f:28:a9:ed:61:12:f7:f3:b5:c7:6e:
                    2b:e7:bf:d3:a1:09:20:9d:25:fc:58:53:c4:f7:e9:
                    0e:0f:52:cf:23:1c:02:a5:dc:bc:a4:a5:ae:d0:b0:
                    15:ec:b4:1d:83:9c:f6:fd:59:79:a4:6d:4c:5a:a1:
                    d9:e3:1e:5a:79:61:86:03:5d:ab:31:41:6c:3c:ef:
                    ba:3b:43:73:7a:a7:c4:e2:dc:38:ef:7e:da:56:15:
                    fb:0a:23:a9:af:7d:ec:5b:2d:17:d5:7c:19:9e:34:
                    01:d0:13:17:be:6a:c3:27:84:61:a5:93:cb:94:c9:
                    e0:e5:9b:cd:41:a7:af:6e:86:6a:dd:bd:8b:99:6b:
                    e1:60:fd:7c:2b:ad:2a:e0:61:b4:3a:15:d9:71:fa:
                    63:1a:7c:11:61:3f:05:c9:60:d5:b6:99:b5:d6:6e:
                    e4:be:74:b1:68:a4:bc:92:d1:46:81:c7:26:28:94:
                    89:53
                Exponent: 65537 (0x10001)
        X509v3 extensions:
            Netscape Cert Type: 
                SSL Client
            X509v3 Subject Key Identifier: 
                94:C9:70:DD:A6:B3:73:C6:6F:D3:D4:38:8B:93:A7:AF:47:38:EC:6E
            X509v3 Authority Key Identifier: 
                keyid:A6:66:0E:59:0F:3C:5C:11:35:B2:B3:99:59:A9:D3:A6:B1:5E:95:D2
                DirName:/CN=BHOPALCA_CA/C=IN/O=CITRIX/OU=ANG/ST=KA/emailAddress=BHOPALCA_CA@BHOPALCA_mail.com
                serial:BE:89:55:F3:65:28:17:9A

            Authority Information Access: 
                OCSP - URI:http://172.17.20.1/responderpath

    Signature Algorithm: sha256WithRSAEncryption
         02:3e:f1:5a:8f:2f:83:9e:69:cf:29:05:fd:42:21:4c:6f:67:
         cd:a3:9d:3b:25:12:ae:3f:37:82:d6:ae:dd:45:da:e8:fd:f1:
         04:61:17:f6:87:fe:93:e0:34:ee:70:7b:10:ea:54:a2:0b:c7:
         a9:4f:70:02:3c:32:af:41:04:e9:76:99:dc:9d:08:7c:bb:d4:
         fc:74:ac:9f:87:b3:a0:b5:9b:6d:de:26:6b:e2:7d:cc:a6:f7:
         8b:1d:ae:34:ea:48:8b:a5:6e:16:3e:b2:34:d7:d6:b7:36:f9:
         63:f4:b7:c5:bf:07:bf:6d:5d:5b:c7:b0:b7:59:3e:20:67:be:
         16:74:39:96:00:a3:17:b3:5c:02:d3:b2:f8:6d:b3:f7:1d:e9:
         e9:0d:5a:cf:66:f9:1c:0c:d9:2b:58:f5:eb:78:cc:aa:33:1b:
         27:38:05:5d:1b:e1:23:f7:9a:70:af:05:2c:66:94:34:7f:3e:
         a4:30:27:0d:11:d7:e3:2a:cb:ec:9f:9e:08:af:b5:a6:90:4b:
         1d:13:78:2b:49:97:af:df:cb:7d:26:95:85:71:21:12:7b:a2:
         62:9a:06:90:45:68:01:b3:67:64:f5:60:40:0f:50:2a:fa:bc:
         78:79:b4:0d:3d:8c:cd:bc:6c:67:f4:72:40:2d:83:f5:f4:6f:
         fa:ae:37:f9
-----BEGIN CERTIFICATE-----
MIIEkjCCA3qgAwIBAgIGCgsMDQ5yMA0GCSqGSIb3DQEBCwUAMH0xFDASBgNVBAMU
C0JIT1BBTENBX0NBMQswCQYDVQQGEwJJTjEPMA0GA1UEChMGQ0lUUklYMQwwCgYD
VQQLEwNBTkcxCzAJBgNVBAgTAktBMSwwKgYJKoZIhvcNAQkBFh1CSE9QQUxDQV9D
QUBCSE9QQUxDQV9tYWlsLmNvbTAeFw0xNzA4MjMxMDAxMjBaFw0yNzA4MjExMDAx
MjBaMGwxCzAJBgNVBAgTAktBMQswCQYDVQQGEwJJTjEZMBcGA1UEAxQQYmhvcGFs
XzExX2NsaWVudDEkMCIGCSqGSIb3DQEJARYVYmhvcGFsXzExQHRlc3RfY2EuY29t
MQ8wDQYDVQQKEwZDSVRSSVgwggEiMA0GCSqGSIb3DQEBAQUAA4IBDwAwggEKAoIB
AQDANfq9n+XHvYB8vrBvPFxG18/BIt5nq15fBqxREYpc7mCZaSLjq2kPQXlfhUMN
wo/94lIe2jDvhN5k2OunTDMQf3rIwlZHl/DHYjD/DISPKKntYRL387XHbivnv9Oh
CSCdJfxYU8T36Q4PUs8jHAKl3Lykpa7QsBXstB2DnPb9WXmkbUxaodnjHlp5YYYD
XasxQWw877o7Q3N6p8Ti3DjvftpWFfsKI6mvfexbLRfVfBmeNAHQExe+asMnhGGl
k8uUyeDlm81Bp69uhmrdvYuZa+Fg/XwrrSrgYbQ6Fdlx+mMafBFhPwXJYNW2mbXW
buS+dLFopLyS0UaBxyYolIlTAgMBAAGjggEnMIIBIzARBglghkgBhvhCAQEEBAMC
B4AwHQYDVR0OBBYEFJTJcN2ms3PGb9PUOIuTp69HOOxuMIGwBgNVHSMEgagwgaWA
FKZmDlkPPFwRNbKzmVmp06axXpXSoYGBpH8wfTEUMBIGA1UEAxQLQkhPUEFMQ0Ff
Q0ExCzAJBgNVBAYTAklOMQ8wDQYDVQQKEwZDSVRSSVgxDDAKBgNVBAsTA0FORzEL
MAkGA1UECBMCS0ExLDAqBgkqhkiG9w0BCQEWHUJIT1BBTENBX0NBQEJIT1BBTENB
X21haWwuY29tggkAvolV82UoF5owPAYIKwYBBQUHAQEEMDAuMCwGCCsGAQUFBzAB
hiBodHRwOi8vMTcyLjE3LjIwLjEvcmVzcG9uZGVycGF0aDANBgkqhkiG9w0BAQsF
AAOCAQEAAj7xWo8vg55pzykF/UIhTG9nzaOdOyUSrj83gtau3UXa6P3xBGEX9of+
k+A07nB7EOpUogvHqU9wAjwyr0EE6XaZ3J0IfLvU/HSsn4ezoLWbbd4ma+J9zKb3
ix2uNOpIi6VuFj6yNNfWtzb5Y/S3xb8Hv21dW8ewt1k+IGe+FnQ5lgCjF7NcAtOy
+G2z9x3p6Q1az2b5HAzZK1j163jMqjMbJzgFXRvhI/eacK8FLGaUNH8+pDAnDRHX
4yrL7J+eCK+1ppBLHRN4K0mXr9/LfSaVhXEhEnuiYpoGkEVoAbNnZPVgQA9QKvq8
eHm0DT2MzbxsZ/RyQC2D9fRv+q43+Q==
-----END CERTIFICATE-----
