Certificate:
    Data:
        Version: 3 (0x2)
        Serial Number: 11042563100295 (0xa0b0c0d0e87)
    Signature Algorithm: sha256WithRSAEncryption
        Issuer: CN=BHOPALCA_CA, C=IN, O=CITRIX, OU=ANG, ST=KA/emailAddress=BHOPALCA_CA@BHOPALCA_mail.com
        Validity
            Not Before: Aug 23 10:01:30 2017 GMT
            Not After : Aug 21 10:01:30 2027 GMT
        Subject: ST=KA, C=IN, CN=bhopal_32_client/emailAddress=bhopal_32@test_ca.com, O=CITRIX
        Subject Public Key Info:
            Public Key Algorithm: rsaEncryption
                Public-Key: (2048 bit)
                Modulus:
                    00:d1:00:ab:62:2f:ba:f1:9e:90:9e:9b:2e:6e:82:
                    19:83:e9:73:f4:07:c7:c2:35:2e:79:f9:34:03:fa:
                    08:83:b9:b4:a4:4a:f3:19:9d:15:2a:cf:e8:ab:f0:
                    dc:0a:e0:2e:fd:ba:23:ab:ea:2a:c5:4b:a5:00:ac:
                    87:b3:f4:ad:6c:6b:2b:8a:61:0e:c7:8e:8f:8c:54:
                    d1:b4:3a:42:ef:37:0e:bb:ac:ca:c0:bc:ca:3e:8b:
                    af:95:9d:ce:ce:12:4c:fc:75:78:e3:d3:0a:32:2f:
                    48:88:7c:13:2d:d4:a6:13:52:37:1d:b1:cc:49:c3:
                    bf:4b:d4:17:e0:41:b4:57:89:20:49:5f:6f:f9:55:
                    13:92:9f:a8:04:f7:0b:a0:bd:b8:98:f9:6e:b2:0b:
                    ef:23:1c:e2:9c:ac:72:df:1a:96:72:6a:7d:f4:9b:
                    b5:17:f9:85:a4:35:f2:83:e6:90:45:30:27:57:4c:
                    f0:8e:d1:dc:0c:01:d7:95:b5:ed:77:17:e2:bc:76:
                    ce:47:93:1f:91:69:18:c0:f7:5e:77:87:67:5e:a5:
                    1c:a2:73:c4:5f:47:45:b3:1e:5e:79:3a:ce:d2:cb:
                    72:2e:4c:83:3c:b6:2c:bf:53:4d:a7:45:49:63:cd:
                    e2:20:4f:90:54:02:2f:4a:8f:f1:c7:0c:31:ee:85:
                    a3:e7
                Exponent: 65537 (0x10001)
        X509v3 extensions:
            Netscape Cert Type: 
                SSL Client
            X509v3 Subject Key Identifier: 
                B9:EB:71:D4:5E:71:07:5B:6D:5C:2E:7A:11:26:8B:48:94:09:E1:18
            X509v3 Authority Key Identifier: 
                keyid:A6:66:0E:59:0F:3C:5C:11:35:B2:B3:99:59:A9:D3:A6:B1:5E:95:D2
                DirName:/CN=BHOPALCA_CA/C=IN/O=CITRIX/OU=ANG/ST=KA/emailAddress=BHOPALCA_CA@BHOPALCA_mail.com
                serial:BE:89:55:F3:65:28:17:9A

            Authority Information Access: 
                OCSP - URI:http://172.17.20.1/responderpath

    Signature Algorithm: sha256WithRSAEncryption
         82:48:f7:4a:26:d3:17:d6:71:c4:d1:88:3e:68:43:29:76:59:
         ba:57:a6:10:41:55:82:93:5d:e4:31:6e:ac:84:36:5f:f2:7b:
         1d:38:5c:87:65:53:c9:49:f4:37:59:aa:c8:70:9d:52:f9:04:
         12:1c:aa:81:1a:74:f0:27:2f:59:cb:cc:42:4a:aa:dd:48:2f:
         77:cf:c4:ea:81:f7:83:ad:d8:58:bb:ea:05:9e:f9:b4:f1:83:
         94:d8:4e:df:f0:a4:cb:da:e4:0c:67:6b:1e:f8:df:6f:33:a9:
         d5:c9:e7:9b:93:2f:c2:17:8e:ff:22:b5:7b:48:1f:be:3d:67:
         5c:76:a2:ca:47:46:36:5d:89:5d:9c:07:e1:e9:10:80:37:82:
         43:d8:c5:c6:03:da:3d:2a:e3:c6:12:e1:61:8b:f6:ed:1d:5a:
         61:d8:e3:af:a0:da:4a:f2:91:c7:08:9d:a4:ba:46:8d:94:bd:
         d6:85:8e:18:f2:90:15:50:e3:7f:cb:c2:d1:f6:82:33:5e:7a:
         48:d7:9f:6a:ed:fb:41:de:f4:69:66:99:92:9b:12:8a:8b:d5:
         76:97:1a:f2:68:4b:39:c7:df:21:ca:dd:01:3f:43:78:76:de:
         14:97:59:a0:35:14:a9:b0:cb:4f:bb:fd:10:e0:a9:c9:3a:34:
         f2:b8:25:2e
-----BEGIN CERTIFICATE-----
MIIEkjCCA3qgAwIBAgIGCgsMDQ6HMA0GCSqGSIb3DQEBCwUAMH0xFDASBgNVBAMU
C0JIT1BBTENBX0NBMQswCQYDVQQGEwJJTjEPMA0GA1UEChMGQ0lUUklYMQwwCgYD
VQQLEwNBTkcxCzAJBgNVBAgTAktBMSwwKgYJKoZIhvcNAQkBFh1CSE9QQUxDQV9D
QUBCSE9QQUxDQV9tYWlsLmNvbTAeFw0xNzA4MjMxMDAxMzBaFw0yNzA4MjExMDAx
MzBaMGwxCzAJBgNVBAgTAktBMQswCQYDVQQGEwJJTjEZMBcGA1UEAxQQYmhvcGFs
XzMyX2NsaWVudDEkMCIGCSqGSIb3DQEJARYVYmhvcGFsXzMyQHRlc3RfY2EuY29t
MQ8wDQYDVQQKEwZDSVRSSVgwggEiMA0GCSqGSIb3DQEBAQUAA4IBDwAwggEKAoIB
AQDRAKtiL7rxnpCemy5ughmD6XP0B8fCNS55+TQD+giDubSkSvMZnRUqz+ir8NwK
4C79uiOr6irFS6UArIez9K1sayuKYQ7Hjo+MVNG0OkLvNw67rMrAvMo+i6+Vnc7O
Ekz8dXjj0woyL0iIfBMt1KYTUjcdscxJw79L1BfgQbRXiSBJX2/5VROSn6gE9wug
vbiY+W6yC+8jHOKcrHLfGpZyan30m7UX+YWkNfKD5pBFMCdXTPCO0dwMAdeVte13
F+K8ds5Hkx+RaRjA9153h2depRyic8RfR0WzHl55Os7Sy3IuTIM8tiy/U02nRUlj
zeIgT5BUAi9Kj/HHDDHuhaPnAgMBAAGjggEnMIIBIzARBglghkgBhvhCAQEEBAMC
B4AwHQYDVR0OBBYEFLnrcdRecQdbbVwuehEmi0iUCeEYMIGwBgNVHSMEgagwgaWA
FKZmDlkPPFwRNbKzmVmp06axXpXSoYGBpH8wfTEUMBIGA1UEAxQLQkhPUEFMQ0Ff
Q0ExCzAJBgNVBAYTAklOMQ8wDQYDVQQKEwZDSVRSSVgxDDAKBgNVBAsTA0FORzEL
MAkGA1UECBMCS0ExLDAqBgkqhkiG9w0BCQEWHUJIT1BBTENBX0NBQEJIT1BBTENB
X21haWwuY29tggkAvolV82UoF5owPAYIKwYBBQUHAQEEMDAuMCwGCCsGAQUFBzAB
hiBodHRwOi8vMTcyLjE3LjIwLjEvcmVzcG9uZGVycGF0aDANBgkqhkiG9w0BAQsF
AAOCAQEAgkj3SibTF9ZxxNGIPmhDKXZZulemEEFVgpNd5DFurIQ2X/J7HThch2VT
yUn0N1mqyHCdUvkEEhyqgRp08CcvWcvMQkqq3Ugvd8/E6oH3g63YWLvqBZ75tPGD
lNhO3/Cky9rkDGdrHvjfbzOp1cnnm5MvwheO/yK1e0gfvj1nXHaiykdGNl2JXZwH
4ekQgDeCQ9jFxgPaPSrjxhLhYYv27R1aYdjjr6DaSvKRxwidpLpGjZS91oWOGPKQ
FVDjf8vC0faCM156SNefau37Qd70aWaZkpsSiovVdpca8mhLOcffIcrdAT9DeHbe
FJdZoDUUqbDLT7v9EOCpyTo08rglLg==
-----END CERTIFICATE-----
