Certificate:
    Data:
        Version: 3 (0x2)
        Serial Number: 11042563100293 (0xa0b0c0d0e85)
    Signature Algorithm: sha256WithRSAEncryption
        Issuer: CN=BHOPALCA_CA, C=IN, O=CITRIX, OU=ANG, ST=KA/emailAddress=BHOPALCA_CA@BHOPALCA_mail.com
        Validity
            Not Before: Aug 23 10:01:29 2017 GMT
            Not After : Aug 21 10:01:29 2027 GMT
        Subject: ST=KA, C=IN, CN=bhopal_30_client/emailAddress=bhopal_30@test_ca.com, O=CITRIX
        Subject Public Key Info:
            Public Key Algorithm: rsaEncryption
                Public-Key: (2048 bit)
                Modulus:
                    00:e4:bc:3e:81:79:b8:3f:90:05:c1:92:b0:2b:e2:
                    fb:3d:24:85:a2:15:40:57:12:d4:89:1c:49:35:a1:
                    7e:35:28:ac:ec:4b:cf:1a:c4:a6:fa:af:ef:4d:8d:
                    34:9c:6f:2f:6c:92:ae:a9:58:ce:cc:5e:52:fe:01:
                    04:0a:13:6a:81:de:33:e4:f6:2e:31:bb:ac:22:9f:
                    da:88:5e:d8:c7:eb:2c:ca:67:e4:b8:f7:4f:18:b9:
                    ea:ea:35:0c:4c:1b:0e:f1:3e:7c:3a:0e:b1:af:b6:
                    3d:2f:61:01:9a:4d:ad:dc:4c:e2:25:b0:88:80:32:
                    c3:9f:23:a3:4a:c2:7a:33:fa:cc:4e:ac:5e:1f:e2:
                    e2:eb:1d:85:e5:1a:01:47:e8:7e:ac:fd:d6:2e:33:
                    06:82:de:23:f7:85:36:42:c9:6d:9b:1d:8f:e9:41:
                    76:e6:1b:cd:15:57:27:76:69:c0:0d:a1:be:e7:d2:
                    23:13:5e:a2:49:7c:83:ab:c4:04:10:4e:d3:df:30:
                    52:a6:1f:23:04:db:6c:8c:9d:43:9a:29:16:a2:e1:
                    95:e9:6f:06:5c:cf:86:13:9d:1e:a1:8b:dd:e0:57:
                    da:21:86:f8:12:16:e0:5d:11:14:0f:bb:c0:55:dc:
                    27:c5:26:42:bd:42:e1:5b:16:e9:29:03:f8:c9:21:
                    fa:83
                Exponent: 65537 (0x10001)
        X509v3 extensions:
            Netscape Cert Type: 
                SSL Client
            X509v3 Subject Key Identifier: 
                26:97:86:67:DB:B8:75:CF:82:C1:08:0E:70:CD:D8:BA:FF:55:7A:91
            X509v3 Authority Key Identifier: 
                keyid:A6:66:0E:59:0F:3C:5C:11:35:B2:B3:99:59:A9:D3:A6:B1:5E:95:D2
                DirName:/CN=BHOPALCA_CA/C=IN/O=CITRIX/OU=ANG/ST=KA/emailAddress=BHOPALCA_CA@BHOPALCA_mail.com
                serial:BE:89:55:F3:65:28:17:9A

            Authority Information Access: 
                OCSP - URI:http://172.17.20.1/responderpath

    Signature Algorithm: sha256WithRSAEncryption
         21:e4:86:5a:6c:e6:aa:6c:9e:b5:15:67:24:d4:c9:2a:41:10:
         58:f9:ef:b2:df:c9:fc:5c:15:47:bf:c2:41:74:67:1b:7f:65:
         1c:88:f7:62:de:65:76:b6:2f:56:28:da:5f:0b:1b:1c:c8:26:
         f7:84:8c:ed:9b:a6:cf:e4:32:a3:6b:e8:79:46:10:3e:1b:37:
         83:d5:c2:66:14:7b:df:40:4c:4b:d4:08:e2:1e:50:61:bd:95:
         ec:14:de:b6:9e:5d:4f:76:71:80:c1:bc:02:62:ba:d3:41:66:
         fc:8a:28:25:d3:8c:1a:29:f9:ba:80:6a:fe:47:aa:b7:ca:d6:
         7e:d2:2c:6a:a9:ba:e0:74:06:19:bb:3c:c4:ba:91:19:d4:7b:
         83:33:a3:39:e4:0b:1b:a1:66:84:25:c5:b4:4f:9d:a0:a0:bc:
         13:78:97:e9:56:c2:a1:9f:d5:e7:8c:9d:58:5e:0f:23:b9:fd:
         45:96:c1:9d:50:8b:bd:b3:60:ad:70:5c:19:36:3d:99:61:86:
         e1:1b:29:5b:ea:51:8f:ef:3b:2f:73:71:27:e4:d6:60:a1:98:
         0f:74:7b:0a:ee:5f:3d:83:e2:9e:6e:68:75:86:98:10:28:cd:
         7c:e1:8a:ae:14:18:23:5a:c4:88:58:b4:9e:d4:ae:dc:d5:08:
         3f:93:68:45
-----BEGIN CERTIFICATE-----
MIIEkjCCA3qgAwIBAgIGCgsMDQ6FMA0GCSqGSIb3DQEBCwUAMH0xFDASBgNVBAMU
C0JIT1BBTENBX0NBMQswCQYDVQQGEwJJTjEPMA0GA1UEChMGQ0lUUklYMQwwCgYD
VQQLEwNBTkcxCzAJBgNVBAgTAktBMSwwKgYJKoZIhvcNAQkBFh1CSE9QQUxDQV9D
QUBCSE9QQUxDQV9tYWlsLmNvbTAeFw0xNzA4MjMxMDAxMjlaFw0yNzA4MjExMDAx
MjlaMGwxCzAJBgNVBAgTAktBMQswCQYDVQQGEwJJTjEZMBcGA1UEAxQQYmhvcGFs
XzMwX2NsaWVudDEkMCIGCSqGSIb3DQEJARYVYmhvcGFsXzMwQHRlc3RfY2EuY29t
MQ8wDQYDVQQKEwZDSVRSSVgwggEiMA0GCSqGSIb3DQEBAQUAA4IBDwAwggEKAoIB
AQDkvD6Bebg/kAXBkrAr4vs9JIWiFUBXEtSJHEk1oX41KKzsS88axKb6r+9NjTSc
by9skq6pWM7MXlL+AQQKE2qB3jPk9i4xu6win9qIXtjH6yzKZ+S4908YuerqNQxM
Gw7xPnw6DrGvtj0vYQGaTa3cTOIlsIiAMsOfI6NKwnoz+sxOrF4f4uLrHYXlGgFH
6H6s/dYuMwaC3iP3hTZCyW2bHY/pQXbmG80VVyd2acANob7n0iMTXqJJfIOrxAQQ
TtPfMFKmHyME22yMnUOaKRai4ZXpbwZcz4YTnR6hi93gV9ohhvgSFuBdERQPu8BV
3CfFJkK9QuFbFukpA/jJIfqDAgMBAAGjggEnMIIBIzARBglghkgBhvhCAQEEBAMC
B4AwHQYDVR0OBBYEFCaXhmfbuHXPgsEIDnDN2Lr/VXqRMIGwBgNVHSMEgagwgaWA
FKZmDlkPPFwRNbKzmVmp06axXpXSoYGBpH8wfTEUMBIGA1UEAxQLQkhPUEFMQ0Ff
Q0ExCzAJBgNVBAYTAklOMQ8wDQYDVQQKEwZDSVRSSVgxDDAKBgNVBAsTA0FORzEL
MAkGA1UECBMCS0ExLDAqBgkqhkiG9w0BCQEWHUJIT1BBTENBX0NBQEJIT1BBTENB
X21haWwuY29tggkAvolV82UoF5owPAYIKwYBBQUHAQEEMDAuMCwGCCsGAQUFBzAB
hiBodHRwOi8vMTcyLjE3LjIwLjEvcmVzcG9uZGVycGF0aDANBgkqhkiG9w0BAQsF
AAOCAQEAIeSGWmzmqmyetRVnJNTJKkEQWPnvst/J/FwVR7/CQXRnG39lHIj3Yt5l
drYvVijaXwsbHMgm94SM7Zumz+Qyo2voeUYQPhs3g9XCZhR730BMS9QI4h5QYb2V
7BTetp5dT3ZxgMG8AmK600Fm/IooJdOMGin5uoBq/keqt8rWftIsaqm64HQGGbs8
xLqRGdR7gzOjOeQLG6FmhCXFtE+doKC8E3iX6VbCoZ/V54ydWF4PI7n9RZbBnVCL
vbNgrXBcGTY9mWGG4RspW+pRj+87L3NxJ+TWYKGYD3R7Cu5fPYPinm5odYaYECjN
fOGKrhQYI1rEiFi0ntSu3NUIP5NoRQ==
-----END CERTIFICATE-----
