Certificate:
    Data:
        Version: 3 (0x2)
        Serial Number: 11042563100307 (0xa0b0c0d0e93)
    Signature Algorithm: sha256WithRSAEncryption
        Issuer: CN=BHOPALCA_CA, C=IN, O=CITRIX, OU=ANG, ST=KA/emailAddress=BHOPALCA_CA@BHOPALCA_mail.com
        Validity
            Not Before: Aug 23 10:01:37 2017 GMT
            Not After : Aug 21 10:01:37 2027 GMT
        Subject: ST=KA, C=IN, CN=bhopal_44_client/emailAddress=bhopal_44@test_ca.com, O=CITRIX
        Subject Public Key Info:
            Public Key Algorithm: rsaEncryption
                Public-Key: (2048 bit)
                Modulus:
                    00:a7:ee:72:f1:0e:6e:d6:19:aa:e6:34:d9:2b:dc:
                    7d:89:7f:51:b5:b7:4e:d0:e0:45:4c:45:91:75:8b:
                    8c:57:cc:14:a5:81:87:c8:83:62:15:3f:bf:c9:0a:
                    ef:f8:16:5e:ce:68:ab:f3:a6:bb:2a:06:a4:d8:34:
                    ab:a7:93:dd:22:ff:af:78:79:8f:e9:48:2a:f3:53:
                    6a:68:52:7d:52:e7:c3:22:c1:9f:b0:e4:d8:c2:9e:
                    43:af:48:e2:f8:e7:8a:6a:34:fa:b8:df:67:a5:f9:
                    21:90:73:51:97:ce:de:e7:7e:28:28:76:75:40:7f:
                    3b:dc:25:29:c3:da:36:d1:a6:12:9a:90:90:8b:0f:
                    86:22:bc:2b:2e:8a:bf:a2:19:f2:08:0c:d3:c8:5e:
                    46:f1:f5:d1:ff:77:7c:bc:ce:f4:19:d3:1a:fe:86:
                    51:4b:32:e0:29:e0:99:24:7a:58:bf:48:06:4a:12:
                    fe:02:50:57:6c:72:6d:58:9f:7e:40:c5:7a:69:28:
                    c3:90:8d:53:b7:d1:b4:34:bb:a0:cc:16:4c:f7:50:
                    2f:39:fc:8c:e5:93:fc:97:ad:de:45:78:55:be:2b:
                    76:af:89:80:8c:92:ca:76:e6:1c:1c:ef:6f:0c:ee:
                    9a:ff:32:8f:ec:c0:b8:c4:69:1a:ef:3d:ca:dc:24:
                    0c:25
                Exponent: 65537 (0x10001)
        X509v3 extensions:
            Netscape Cert Type: 
                SSL Client
            X509v3 Subject Key Identifier: 
                F6:1D:A5:20:22:A9:B4:27:A2:27:F7:23:90:31:DA:07:E3:1E:F9:D8
            X509v3 Authority Key Identifier: 
                keyid:A6:66:0E:59:0F:3C:5C:11:35:B2:B3:99:59:A9:D3:A6:B1:5E:95:D2
                DirName:/CN=BHOPALCA_CA/C=IN/O=CITRIX/OU=ANG/ST=KA/emailAddress=BHOPALCA_CA@BHOPALCA_mail.com
                serial:BE:89:55:F3:65:28:17:9A

            Authority Information Access: 
                OCSP - URI:http://172.17.20.1/responderpath

    Signature Algorithm: sha256WithRSAEncryption
         84:a1:78:09:34:9b:ae:11:dd:15:78:4c:41:95:5e:15:46:ca:
         08:0c:04:38:28:0d:d6:5d:31:ba:b5:b7:2e:80:9e:65:e5:1b:
         0b:70:8a:eb:2a:72:25:3a:97:7f:24:71:b0:4e:20:7d:20:5e:
         e5:79:af:a4:3d:60:e2:67:6f:22:5b:94:2c:99:56:21:44:c8:
         42:ce:47:25:fb:19:69:88:80:ab:2b:ef:0a:bd:7c:ac:b2:5b:
         45:6d:f0:d7:a1:be:8d:e7:c6:d9:93:2e:12:1f:af:a5:93:6e:
         6c:b9:aa:ab:48:97:7f:fa:95:2f:df:cd:09:65:10:8a:4d:53:
         f1:17:8d:71:09:8c:26:6b:17:ad:34:de:c8:88:f2:b2:de:d4:
         60:81:f6:7a:db:7a:91:bc:92:a8:ee:99:ae:81:d6:2f:5f:04:
         87:8a:4a:22:e7:46:3a:ce:ed:aa:51:77:db:20:3d:dd:7e:f0:
         f2:0c:79:0d:c8:75:89:25:29:19:a5:03:a0:7d:99:4c:e0:1e:
         59:3e:97:86:72:b0:f5:7a:4f:d8:6b:c7:9f:44:97:0c:1e:1d:
         95:72:98:24:06:b3:92:67:25:e3:df:ff:20:ac:9d:b1:08:df:
         05:76:cd:59:29:0a:55:d4:cb:7b:35:f5:8a:c3:b4:6d:08:48:
         31:6a:f4:e7
-----BEGIN CERTIFICATE-----
MIIEkjCCA3qgAwIBAgIGCgsMDQ6TMA0GCSqGSIb3DQEBCwUAMH0xFDASBgNVBAMU
C0JIT1BBTENBX0NBMQswCQYDVQQGEwJJTjEPMA0GA1UEChMGQ0lUUklYMQwwCgYD
VQQLEwNBTkcxCzAJBgNVBAgTAktBMSwwKgYJKoZIhvcNAQkBFh1CSE9QQUxDQV9D
QUBCSE9QQUxDQV9tYWlsLmNvbTAeFw0xNzA4MjMxMDAxMzdaFw0yNzA4MjExMDAx
MzdaMGwxCzAJBgNVBAgTAktBMQswCQYDVQQGEwJJTjEZMBcGA1UEAxQQYmhvcGFs
XzQ0X2NsaWVudDEkMCIGCSqGSIb3DQEJARYVYmhvcGFsXzQ0QHRlc3RfY2EuY29t
MQ8wDQYDVQQKEwZDSVRSSVgwggEiMA0GCSqGSIb3DQEBAQUAA4IBDwAwggEKAoIB
AQCn7nLxDm7WGarmNNkr3H2Jf1G1t07Q4EVMRZF1i4xXzBSlgYfIg2IVP7/JCu/4
Fl7OaKvzprsqBqTYNKunk90i/694eY/pSCrzU2poUn1S58MiwZ+w5NjCnkOvSOL4
54pqNPq432el+SGQc1GXzt7nfigodnVAfzvcJSnD2jbRphKakJCLD4YivCsuir+i
GfIIDNPIXkbx9dH/d3y8zvQZ0xr+hlFLMuAp4Jkkeli/SAZKEv4CUFdscm1Yn35A
xXppKMOQjVO30bQ0u6DMFkz3UC85/Izlk/yXrd5FeFW+K3aviYCMksp25hwc728M
7pr/Mo/swLjEaRrvPcrcJAwlAgMBAAGjggEnMIIBIzARBglghkgBhvhCAQEEBAMC
B4AwHQYDVR0OBBYEFPYdpSAiqbQnoif3I5Ax2gfjHvnYMIGwBgNVHSMEgagwgaWA
FKZmDlkPPFwRNbKzmVmp06axXpXSoYGBpH8wfTEUMBIGA1UEAxQLQkhPUEFMQ0Ff
Q0ExCzAJBgNVBAYTAklOMQ8wDQYDVQQKEwZDSVRSSVgxDDAKBgNVBAsTA0FORzEL
MAkGA1UECBMCS0ExLDAqBgkqhkiG9w0BCQEWHUJIT1BBTENBX0NBQEJIT1BBTENB
X21haWwuY29tggkAvolV82UoF5owPAYIKwYBBQUHAQEEMDAuMCwGCCsGAQUFBzAB
hiBodHRwOi8vMTcyLjE3LjIwLjEvcmVzcG9uZGVycGF0aDANBgkqhkiG9w0BAQsF
AAOCAQEAhKF4CTSbrhHdFXhMQZVeFUbKCAwEOCgN1l0xurW3LoCeZeUbC3CK6ypy
JTqXfyRxsE4gfSBe5XmvpD1g4mdvIluULJlWIUTIQs5HJfsZaYiAqyvvCr18rLJb
RW3w16G+jefG2ZMuEh+vpZNubLmqq0iXf/qVL9/NCWUQik1T8ReNcQmMJmsXrTTe
yIjyst7UYIH2ett6kbySqO6ZroHWL18Eh4pKIudGOs7tqlF32yA93X7w8gx5Dch1
iSUpGaUDoH2ZTOAeWT6XhnKw9XpP2GvHn0SXDB4dlXKYJAazkmcl49//IKydsQjf
BXbNWSkKVdTLezX1isO0bQhIMWr05w==
-----END CERTIFICATE-----
