Certificate:
    Data:
        Version: 3 (0x2)
        Serial Number: 11042563100290 (0xa0b0c0d0e82)
    Signature Algorithm: sha256WithRSAEncryption
        Issuer: CN=BHOPALCA_CA, C=IN, O=CITRIX, OU=ANG, ST=KA/emailAddress=BHOPALCA_CA@BHOPALCA_mail.com
        Validity
            Not Before: Aug 23 10:01:28 2017 GMT
            Not After : Aug 21 10:01:28 2027 GMT
        Subject: ST=KA, C=IN, CN=bhopal_27_client/emailAddress=bhopal_27@test_ca.com, O=CITRIX
        Subject Public Key Info:
            Public Key Algorithm: rsaEncryption
                Public-Key: (2048 bit)
                Modulus:
                    00:bd:84:4f:93:07:a4:78:92:08:0e:7f:37:f9:a3:
                    e3:f6:42:88:90:7a:94:5d:fb:96:bc:ff:8f:2d:80:
                    a8:39:f4:17:8d:cb:f9:22:41:6b:7b:37:8c:64:53:
                    f1:71:8b:2b:92:23:26:f9:3a:d7:e0:5e:68:43:ab:
                    a1:96:3f:0f:89:42:c8:e0:a0:4a:ff:aa:56:f4:6b:
                    bf:78:0d:14:4f:47:80:c4:b9:d0:44:9a:e4:30:6a:
                    ea:1b:18:c4:1a:bf:12:8c:7c:75:99:9d:6c:e0:91:
                    b9:75:5c:b6:b4:76:3a:32:fe:61:35:99:64:8a:67:
                    d4:1f:67:07:fe:4a:7a:30:68:3c:32:a0:f2:a7:37:
                    2a:17:d8:79:01:1c:5c:eb:c6:56:f5:3c:33:66:f0:
                    8d:a1:14:58:ec:f6:82:39:3f:54:c6:50:e8:e2:88:
                    bb:77:24:92:9e:ba:e6:41:a5:5d:35:45:98:21:bb:
                    c8:ff:12:e3:34:f2:3e:c9:20:65:5f:9b:d3:bf:35:
                    73:84:47:5d:39:f8:71:88:4d:23:9a:09:85:8e:18:
                    16:67:24:27:ae:91:e6:17:8c:2c:48:1c:a8:f3:a3:
                    50:36:72:ae:75:f5:54:30:6f:d9:a8:1a:49:94:b7:
                    11:71:c0:2d:3e:69:97:7c:dd:27:c1:be:3f:99:17:
                    6e:e7
                Exponent: 65537 (0x10001)
        X509v3 extensions:
            Netscape Cert Type: 
                SSL Client
            X509v3 Subject Key Identifier: 
                3A:EC:4B:A6:C1:53:9E:0C:78:61:ED:78:A9:E0:FC:94:A6:5F:87:2F
            X509v3 Authority Key Identifier: 
                keyid:A6:66:0E:59:0F:3C:5C:11:35:B2:B3:99:59:A9:D3:A6:B1:5E:95:D2
                DirName:/CN=BHOPALCA_CA/C=IN/O=CITRIX/OU=ANG/ST=KA/emailAddress=BHOPALCA_CA@BHOPALCA_mail.com
                serial:BE:89:55:F3:65:28:17:9A

            Authority Information Access: 
                OCSP - URI:http://172.17.20.1/responderpath

    Signature Algorithm: sha256WithRSAEncryption
         00:55:53:a1:8a:60:03:33:1e:b6:ef:dc:c5:54:02:7a:2a:05:
         8d:4d:ff:d7:c6:47:6c:c4:ec:d6:bf:ca:13:11:5f:4b:a1:b1:
         2a:32:3d:3f:32:e2:af:fd:73:bc:21:25:62:94:ad:cd:f7:eb:
         93:5b:71:28:60:25:20:f4:c0:7e:d4:61:78:a5:4e:58:f6:fc:
         d7:24:76:1b:5f:5f:bc:d1:62:d8:50:25:4b:a0:4f:7e:56:57:
         c2:25:d3:f1:0d:5d:26:a5:24:38:fb:62:50:5e:8c:20:4c:c3:
         2c:fb:6f:13:9d:ca:15:39:ab:a1:16:ef:29:77:7a:c9:62:39:
         59:0f:58:80:a1:cb:22:80:95:f3:16:17:a9:e9:c3:c7:f1:61:
         d5:f2:f9:60:d0:fb:aa:d6:03:8e:15:0c:2f:0b:02:85:a1:04:
         12:ce:22:db:f6:37:9f:02:5b:af:3f:e3:9d:46:f2:e4:fb:7e:
         2e:57:04:94:f9:59:75:23:2f:2f:09:16:cf:d4:62:2c:7a:28:
         29:64:de:02:da:df:66:4c:74:12:ce:5f:30:52:45:0c:29:f7:
         dd:77:00:d6:50:b6:17:ec:6c:76:55:92:eb:2a:52:7a:15:fc:
         c6:c2:0e:02:e1:47:c4:10:8d:0d:8d:03:97:09:2b:d7:3e:07:
         cb:5c:08:00
-----BEGIN CERTIFICATE-----
MIIEkjCCA3qgAwIBAgIGCgsMDQ6CMA0GCSqGSIb3DQEBCwUAMH0xFDASBgNVBAMU
C0JIT1BBTENBX0NBMQswCQYDVQQGEwJJTjEPMA0GA1UEChMGQ0lUUklYMQwwCgYD
VQQLEwNBTkcxCzAJBgNVBAgTAktBMSwwKgYJKoZIhvcNAQkBFh1CSE9QQUxDQV9D
QUBCSE9QQUxDQV9tYWlsLmNvbTAeFw0xNzA4MjMxMDAxMjhaFw0yNzA4MjExMDAx
MjhaMGwxCzAJBgNVBAgTAktBMQswCQYDVQQGEwJJTjEZMBcGA1UEAxQQYmhvcGFs
XzI3X2NsaWVudDEkMCIGCSqGSIb3DQEJARYVYmhvcGFsXzI3QHRlc3RfY2EuY29t
MQ8wDQYDVQQKEwZDSVRSSVgwggEiMA0GCSqGSIb3DQEBAQUAA4IBDwAwggEKAoIB
AQC9hE+TB6R4kggOfzf5o+P2QoiQepRd+5a8/48tgKg59BeNy/kiQWt7N4xkU/Fx
iyuSIyb5OtfgXmhDq6GWPw+JQsjgoEr/qlb0a794DRRPR4DEudBEmuQwauobGMQa
vxKMfHWZnWzgkbl1XLa0djoy/mE1mWSKZ9QfZwf+SnowaDwyoPKnNyoX2HkBHFzr
xlb1PDNm8I2hFFjs9oI5P1TGUOjiiLt3JJKeuuZBpV01RZghu8j/EuM08j7JIGVf
m9O/NXOER105+HGITSOaCYWOGBZnJCeukeYXjCxIHKjzo1A2cq519VQwb9moGkmU
txFxwC0+aZd83SfBvj+ZF27nAgMBAAGjggEnMIIBIzARBglghkgBhvhCAQEEBAMC
B4AwHQYDVR0OBBYEFDrsS6bBU54MeGHteKng/JSmX4cvMIGwBgNVHSMEgagwgaWA
FKZmDlkPPFwRNbKzmVmp06axXpXSoYGBpH8wfTEUMBIGA1UEAxQLQkhPUEFMQ0Ff
Q0ExCzAJBgNVBAYTAklOMQ8wDQYDVQQKEwZDSVRSSVgxDDAKBgNVBAsTA0FORzEL
MAkGA1UECBMCS0ExLDAqBgkqhkiG9w0BCQEWHUJIT1BBTENBX0NBQEJIT1BBTENB
X21haWwuY29tggkAvolV82UoF5owPAYIKwYBBQUHAQEEMDAuMCwGCCsGAQUFBzAB
hiBodHRwOi8vMTcyLjE3LjIwLjEvcmVzcG9uZGVycGF0aDANBgkqhkiG9w0BAQsF
AAOCAQEAAFVToYpgAzMetu/cxVQCeioFjU3/18ZHbMTs1r/KExFfS6GxKjI9PzLi
r/1zvCElYpStzffrk1txKGAlIPTAftRheKVOWPb81yR2G19fvNFi2FAlS6BPflZX
wiXT8Q1dJqUkOPtiUF6MIEzDLPtvE53KFTmroRbvKXd6yWI5WQ9YgKHLIoCV8xYX
qenDx/Fh1fL5YND7qtYDjhUMLwsChaEEEs4i2/Y3nwJbrz/jnUby5Pt+LlcElPlZ
dSMvLwkWz9RiLHooKWTeAtrfZkx0Es5fMFJFDCn33XcA1lC2F+xsdlWS6ypSehX8
xsIOAuFHxBCNDY0Dlwkr1z4Hy1wIAA==
-----END CERTIFICATE-----
