Certificate:
    Data:
        Version: 3 (0x2)
        Serial Number: 11042563100302 (0xa0b0c0d0e8e)
    Signature Algorithm: sha256WithRSAEncryption
        Issuer: CN=BHOPALCA_CA, C=IN, O=CITRIX, OU=ANG, ST=KA/emailAddress=BHOPALCA_CA@BHOPALCA_mail.com
        Validity
            Not Before: Aug 23 10:01:34 2017 GMT
            Not After : Aug 21 10:01:34 2027 GMT
        Subject: ST=KA, C=IN, CN=bhopal_39_client/emailAddress=bhopal_39@test_ca.com, O=CITRIX
        Subject Public Key Info:
            Public Key Algorithm: rsaEncryption
                Public-Key: (2048 bit)
                Modulus:
                    00:cb:ce:34:32:fa:17:18:e9:f9:cf:fe:a3:e7:90:
                    12:b0:37:0f:0e:5f:8c:c7:d8:2f:21:a1:f0:4a:d9:
                    07:58:a3:cf:e5:d6:71:f4:8d:ba:c4:7b:67:2e:77:
                    39:c4:50:40:04:c3:80:df:c7:d5:9c:ad:50:48:09:
                    51:11:bc:d8:bf:a8:39:71:e9:c4:f4:20:08:bd:70:
                    9a:78:1e:8d:6f:37:42:db:6e:18:f8:e9:a1:d9:79:
                    e8:bc:aa:02:3b:a4:dd:83:ea:1a:62:40:50:1a:03:
                    2f:aa:e3:35:44:f6:ca:21:23:7e:4a:fb:f9:f6:37:
                    d5:ce:77:42:fb:fd:82:3d:cb:c7:e9:85:88:75:08:
                    42:6c:82:13:5a:ab:83:ef:3b:51:51:d1:ff:84:9e:
                    89:53:3a:a8:b8:ce:a1:43:6b:42:35:11:f4:59:c9:
                    f4:34:e9:66:4d:22:16:e2:fc:0b:e7:cc:29:a0:46:
                    46:8e:21:1a:b0:7d:99:af:fd:90:ec:d2:06:dd:de:
                    94:b8:2b:3f:b0:62:24:7f:3e:51:1d:eb:15:d2:b8:
                    48:0f:af:e6:99:a9:63:bb:1f:a0:ff:23:42:57:56:
                    a8:f5:da:b9:74:cc:ed:97:c4:3b:a1:12:ea:2f:ba:
                    86:08:94:0f:74:6d:76:53:67:27:0b:b7:06:e5:a0:
                    d6:d7
                Exponent: 65537 (0x10001)
        X509v3 extensions:
            Netscape Cert Type: 
                SSL Client
            X509v3 Subject Key Identifier: 
                47:C3:2F:AB:73:FF:48:17:34:52:39:F5:A7:24:F8:A5:C4:36:2E:28
            X509v3 Authority Key Identifier: 
                keyid:A6:66:0E:59:0F:3C:5C:11:35:B2:B3:99:59:A9:D3:A6:B1:5E:95:D2
                DirName:/CN=BHOPALCA_CA/C=IN/O=CITRIX/OU=ANG/ST=KA/emailAddress=BHOPALCA_CA@BHOPALCA_mail.com
                serial:BE:89:55:F3:65:28:17:9A

            Authority Information Access: 
                OCSP - URI:http://172.17.20.1/responderpath

    Signature Algorithm: sha256WithRSAEncryption
         4a:f1:d1:aa:b6:c1:da:3a:f9:00:d6:e9:f3:fc:00:ff:be:4b:
         9a:78:49:a7:09:e1:a0:74:d5:d1:06:a2:86:27:0c:80:b6:1d:
         cd:a1:6f:dd:e2:93:27:58:d1:f0:b4:c3:20:5f:31:be:6e:d9:
         fd:5c:30:45:4c:0c:2c:35:0e:18:25:ef:38:6f:28:7b:47:81:
         dd:3a:ba:08:5b:28:ce:13:64:d6:d0:b5:9c:16:bf:5a:4d:82:
         ad:06:cb:ee:12:ba:31:24:5f:59:55:6b:77:21:6d:15:fe:5d:
         97:87:6a:18:4b:e5:02:ca:37:fe:2b:7e:b1:40:6e:90:07:fc:
         16:ff:99:1f:75:be:c2:4f:dc:ca:cb:61:c2:b3:a2:0f:c7:82:
         f9:40:90:20:cd:de:ea:e4:73:a0:86:2c:5b:f3:be:fd:c8:6e:
         4f:33:21:af:8a:65:5b:92:e4:56:86:8b:40:5d:b1:81:45:2d:
         e5:3c:d3:78:87:f6:12:61:83:c7:25:91:89:bb:e4:34:b1:17:
         73:18:aa:6a:ff:c3:80:46:b0:ca:35:48:93:03:21:ff:29:21:
         57:66:9e:78:c4:57:18:56:c8:74:e8:f0:32:88:4f:33:33:36:
         5d:05:9a:07:fb:1d:04:58:10:3e:b5:ec:6f:ef:75:3e:1a:d9:
         14:fe:bf:c2
-----BEGIN CERTIFICATE-----
MIIEkjCCA3qgAwIBAgIGCgsMDQ6OMA0GCSqGSIb3DQEBCwUAMH0xFDASBgNVBAMU
C0JIT1BBTENBX0NBMQswCQYDVQQGEwJJTjEPMA0GA1UEChMGQ0lUUklYMQwwCgYD
VQQLEwNBTkcxCzAJBgNVBAgTAktBMSwwKgYJKoZIhvcNAQkBFh1CSE9QQUxDQV9D
QUBCSE9QQUxDQV9tYWlsLmNvbTAeFw0xNzA4MjMxMDAxMzRaFw0yNzA4MjExMDAx
MzRaMGwxCzAJBgNVBAgTAktBMQswCQYDVQQGEwJJTjEZMBcGA1UEAxQQYmhvcGFs
XzM5X2NsaWVudDEkMCIGCSqGSIb3DQEJARYVYmhvcGFsXzM5QHRlc3RfY2EuY29t
MQ8wDQYDVQQKEwZDSVRSSVgwggEiMA0GCSqGSIb3DQEBAQUAA4IBDwAwggEKAoIB
AQDLzjQy+hcY6fnP/qPnkBKwNw8OX4zH2C8hofBK2QdYo8/l1nH0jbrEe2cudznE
UEAEw4Dfx9WcrVBICVERvNi/qDlx6cT0IAi9cJp4Ho1vN0Lbbhj46aHZeei8qgI7
pN2D6hpiQFAaAy+q4zVE9sohI35K+/n2N9XOd0L7/YI9y8fphYh1CEJsghNaq4Pv
O1FR0f+EnolTOqi4zqFDa0I1EfRZyfQ06WZNIhbi/AvnzCmgRkaOIRqwfZmv/ZDs
0gbd3pS4Kz+wYiR/PlEd6xXSuEgPr+aZqWO7H6D/I0JXVqj12rl0zO2XxDuhEuov
uoYIlA90bXZTZycLtwbloNbXAgMBAAGjggEnMIIBIzARBglghkgBhvhCAQEEBAMC
B4AwHQYDVR0OBBYEFEfDL6tz/0gXNFI59ack+KXENi4oMIGwBgNVHSMEgagwgaWA
FKZmDlkPPFwRNbKzmVmp06axXpXSoYGBpH8wfTEUMBIGA1UEAxQLQkhPUEFMQ0Ff
Q0ExCzAJBgNVBAYTAklOMQ8wDQYDVQQKEwZDSVRSSVgxDDAKBgNVBAsTA0FORzEL
MAkGA1UECBMCS0ExLDAqBgkqhkiG9w0BCQEWHUJIT1BBTENBX0NBQEJIT1BBTENB
X21haWwuY29tggkAvolV82UoF5owPAYIKwYBBQUHAQEEMDAuMCwGCCsGAQUFBzAB
hiBodHRwOi8vMTcyLjE3LjIwLjEvcmVzcG9uZGVycGF0aDANBgkqhkiG9w0BAQsF
AAOCAQEASvHRqrbB2jr5ANbp8/wA/75LmnhJpwnhoHTV0QaihicMgLYdzaFv3eKT
J1jR8LTDIF8xvm7Z/VwwRUwMLDUOGCXvOG8oe0eB3Tq6CFsozhNk1tC1nBa/Wk2C
rQbL7hK6MSRfWVVrdyFtFf5dl4dqGEvlAso3/it+sUBukAf8Fv+ZH3W+wk/cysth
wrOiD8eC+UCQIM3e6uRzoIYsW/O+/chuTzMhr4plW5LkVoaLQF2xgUUt5TzTeIf2
EmGDxyWRibvkNLEXcxiqav/DgEawyjVIkwMh/ykhV2aeeMRXGFbIdOjwMohPMzM2
XQWaB/sdBFgQPrXsb+91PhrZFP6/wg==
-----END CERTIFICATE-----
