Certificate:
    Data:
        Version: 3 (0x2)
        Serial Number: 11042563100275 (0xa0b0c0d0e73)
    Signature Algorithm: sha256WithRSAEncryption
        Issuer: CN=BHOPALCA_CA, C=IN, O=CITRIX, OU=ANG, ST=KA/emailAddress=BHOPALCA_CA@BHOPALCA_mail.com
        Validity
            Not Before: Aug 23 10:01:20 2017 GMT
            Not After : Aug 21 10:01:20 2027 GMT
        Subject: ST=KA, C=IN, CN=bhopal_12_client/emailAddress=bhopal_12@test_ca.com, O=CITRIX
        Subject Public Key Info:
            Public Key Algorithm: rsaEncryption
                Public-Key: (2048 bit)
                Modulus:
                    00:d8:9f:a1:03:9c:0a:0e:e3:7b:cf:a7:84:93:fd:
                    c9:d4:95:d5:98:23:c7:7e:3f:21:f2:a4:97:2e:59:
                    69:f3:78:f9:e8:e9:0d:78:ae:b0:c1:d3:77:54:47:
                    ef:f3:47:54:2e:62:8c:c8:ce:96:9e:1c:3d:37:59:
                    e1:25:70:52:b5:fd:8d:21:fa:65:9a:f9:79:01:e4:
                    60:ec:09:43:cf:ab:6c:8f:0b:27:62:b6:53:6c:8b:
                    6a:a1:c2:88:cd:b7:b3:43:69:fc:37:fc:1f:e8:2c:
                    24:38:67:ec:d2:9f:03:d3:b4:8e:a1:8f:b3:df:e2:
                    d9:e2:d0:2e:e7:6f:70:f2:64:25:98:38:6e:af:21:
                    51:ce:25:d0:0c:46:bc:7d:ee:f8:54:71:e2:be:79:
                    3d:1a:df:97:fc:ca:80:1a:d8:71:b4:bf:c2:ed:57:
                    3d:e6:6d:4f:ff:1c:16:f7:e2:38:e8:0a:72:7c:ba:
                    f3:14:94:02:82:05:cd:53:8b:cf:1e:75:c2:ce:9b:
                    97:23:75:70:2d:57:45:a3:74:9a:e6:5d:29:87:85:
                    1f:b3:a2:64:cc:10:ee:13:6c:ae:ff:b4:4e:7e:07:
                    26:b1:c0:d9:7c:b0:7a:fb:18:19:31:be:68:d3:f5:
                    03:58:5e:c3:35:97:a8:ca:1c:47:57:e8:80:31:05:
                    74:7d
                Exponent: 65537 (0x10001)
        X509v3 extensions:
            Netscape Cert Type: 
                SSL Client
            X509v3 Subject Key Identifier: 
                AE:DB:B0:25:2A:3D:3B:D3:0E:C7:0D:35:C4:75:3E:2E:2F:40:32:00
            X509v3 Authority Key Identifier: 
                keyid:A6:66:0E:59:0F:3C:5C:11:35:B2:B3:99:59:A9:D3:A6:B1:5E:95:D2
                DirName:/CN=BHOPALCA_CA/C=IN/O=CITRIX/OU=ANG/ST=KA/emailAddress=BHOPALCA_CA@BHOPALCA_mail.com
                serial:BE:89:55:F3:65:28:17:9A

            Authority Information Access: 
                OCSP - URI:http://172.17.20.1/responderpath

    Signature Algorithm: sha256WithRSAEncryption
         58:8c:ac:07:4e:ff:6a:e9:80:1b:40:5b:ef:8c:de:74:db:fd:
         7a:2e:2f:c3:7f:ba:21:c7:24:24:71:bd:bb:d6:98:45:be:9c:
         c3:84:92:74:86:0d:56:59:9a:2c:ce:0b:0f:3d:c2:dd:17:23:
         34:73:98:c5:30:25:c4:e6:bd:a4:e3:ad:8a:ea:58:03:e0:3b:
         9f:bc:d8:71:1d:40:6c:c9:8e:1f:a3:e1:40:e8:7c:ce:7c:b4:
         52:14:83:df:08:9f:46:21:3f:36:0a:bb:46:ba:90:34:1b:b9:
         e9:f2:34:4b:e3:26:0a:3a:ce:95:3a:d3:27:4e:c1:86:d8:d1:
         d1:e1:d2:89:cc:bf:36:07:ce:2c:e3:fc:bf:f9:ed:99:1f:24:
         2f:04:9b:3f:2d:50:32:8d:86:6c:bb:2b:11:43:46:27:b2:6d:
         09:8d:b2:f3:b3:4e:f0:9d:49:4a:04:95:19:06:2c:4f:81:ff:
         14:c9:d1:b6:14:c8:ba:06:a0:b6:f9:1a:df:91:4e:3a:7d:fb:
         97:34:ca:0b:2e:2c:5b:d0:f4:fe:e7:2a:d3:c3:e1:06:16:f4:
         df:04:32:3c:ef:03:b4:ed:d2:c8:d0:23:cb:5c:6e:b4:1f:ca:
         6f:e9:0a:55:c3:b2:f8:b4:b3:9d:95:2a:29:88:14:f1:72:05:
         b2:b3:2e:1f
-----BEGIN CERTIFICATE-----
MIIEkjCCA3qgAwIBAgIGCgsMDQ5zMA0GCSqGSIb3DQEBCwUAMH0xFDASBgNVBAMU
C0JIT1BBTENBX0NBMQswCQYDVQQGEwJJTjEPMA0GA1UEChMGQ0lUUklYMQwwCgYD
VQQLEwNBTkcxCzAJBgNVBAgTAktBMSwwKgYJKoZIhvcNAQkBFh1CSE9QQUxDQV9D
QUBCSE9QQUxDQV9tYWlsLmNvbTAeFw0xNzA4MjMxMDAxMjBaFw0yNzA4MjExMDAx
MjBaMGwxCzAJBgNVBAgTAktBMQswCQYDVQQGEwJJTjEZMBcGA1UEAxQQYmhvcGFs
XzEyX2NsaWVudDEkMCIGCSqGSIb3DQEJARYVYmhvcGFsXzEyQHRlc3RfY2EuY29t
MQ8wDQYDVQQKEwZDSVRSSVgwggEiMA0GCSqGSIb3DQEBAQUAA4IBDwAwggEKAoIB
AQDYn6EDnAoO43vPp4ST/cnUldWYI8d+PyHypJcuWWnzePno6Q14rrDB03dUR+/z
R1QuYozIzpaeHD03WeElcFK1/Y0h+mWa+XkB5GDsCUPPq2yPCyditlNsi2qhwojN
t7NDafw3/B/oLCQ4Z+zSnwPTtI6hj7Pf4tni0C7nb3DyZCWYOG6vIVHOJdAMRrx9
7vhUceK+eT0a35f8yoAa2HG0v8LtVz3mbU//HBb34jjoCnJ8uvMUlAKCBc1Ti88e
dcLOm5cjdXAtV0WjdJrmXSmHhR+zomTMEO4TbK7/tE5+ByaxwNl8sHr7GBkxvmjT
9QNYXsM1l6jKHEdX6IAxBXR9AgMBAAGjggEnMIIBIzARBglghkgBhvhCAQEEBAMC
B4AwHQYDVR0OBBYEFK7bsCUqPTvTDscNNcR1Pi4vQDIAMIGwBgNVHSMEgagwgaWA
FKZmDlkPPFwRNbKzmVmp06axXpXSoYGBpH8wfTEUMBIGA1UEAxQLQkhPUEFMQ0Ff
Q0ExCzAJBgNVBAYTAklOMQ8wDQYDVQQKEwZDSVRSSVgxDDAKBgNVBAsTA0FORzEL
MAkGA1UECBMCS0ExLDAqBgkqhkiG9w0BCQEWHUJIT1BBTENBX0NBQEJIT1BBTENB
X21haWwuY29tggkAvolV82UoF5owPAYIKwYBBQUHAQEEMDAuMCwGCCsGAQUFBzAB
hiBodHRwOi8vMTcyLjE3LjIwLjEvcmVzcG9uZGVycGF0aDANBgkqhkiG9w0BAQsF
AAOCAQEAWIysB07/aumAG0Bb74zedNv9ei4vw3+6IcckJHG9u9aYRb6cw4SSdIYN
VlmaLM4LDz3C3RcjNHOYxTAlxOa9pOOtiupYA+A7n7zYcR1AbMmOH6PhQOh8zny0
UhSD3wifRiE/Ngq7RrqQNBu56fI0S+MmCjrOlTrTJ07BhtjR0eHSicy/NgfOLOP8
v/ntmR8kLwSbPy1QMo2GbLsrEUNGJ7JtCY2y87NO8J1JSgSVGQYsT4H/FMnRthTI
ugagtvka35FOOn37lzTKCy4sW9D0/ucq08PhBhb03wQyPO8DtO3SyNAjy1xutB/K
b+kKVcOy+LSznZUqKYgU8XIFsrMuHw==
-----END CERTIFICATE-----
