Certificate:
    Data:
        Version: 3 (0x2)
        Serial Number: 11042563100311 (0xa0b0c0d0e97)
    Signature Algorithm: sha256WithRSAEncryption
        Issuer: CN=BHOPALCA_CA, C=IN, O=CITRIX, OU=ANG, ST=KA/emailAddress=BHOPALCA_CA@BHOPALCA_mail.com
        Validity
            Not Before: Aug 23 10:01:38 2017 GMT
            Not After : Aug 21 10:01:38 2027 GMT
        Subject: ST=KA, C=IN, CN=bhopal_48_client/emailAddress=bhopal_48@test_ca.com, O=CITRIX
        Subject Public Key Info:
            Public Key Algorithm: rsaEncryption
                Public-Key: (2048 bit)
                Modulus:
                    00:d0:b5:ae:64:ec:28:a2:94:24:27:f5:14:95:d8:
                    b1:f4:6b:b9:3b:41:88:38:a4:ae:db:e0:06:f0:45:
                    d4:f6:26:67:ee:93:bc:e0:63:35:5d:00:40:03:28:
                    16:28:4f:7a:1c:bb:dc:c1:d5:e1:90:41:c2:93:ee:
                    11:87:d9:3a:80:65:c6:2c:dd:02:7d:84:c4:ef:a7:
                    ea:96:5a:58:ef:7f:22:c0:51:bc:db:ff:63:1f:1c:
                    f1:09:42:28:8d:8d:2f:12:e3:0e:9f:df:52:32:b3:
                    82:eb:e4:2c:c6:9a:21:28:5e:fe:8b:86:66:71:5f:
                    0c:b9:a1:d0:26:e1:0a:cf:e7:8a:14:4c:58:73:95:
                    89:88:89:c5:9f:19:ea:f6:87:47:3e:ed:9b:03:e3:
                    f8:92:6d:a8:69:a8:e2:f2:56:69:da:86:3a:ac:0d:
                    63:f2:2f:5c:d4:cb:d8:5f:df:1d:08:b7:a8:10:b6:
                    82:17:3a:e0:d1:00:9e:73:e7:96:1d:43:78:b8:1e:
                    8f:2d:d9:7f:16:e7:9c:ff:32:e9:b8:1c:4d:8b:2e:
                    89:4e:2e:30:05:96:22:66:70:98:f4:ff:30:3a:33:
                    2d:49:ff:0f:3c:41:f4:b5:02:4e:cc:0b:cc:77:b3:
                    b4:ea:20:ce:2c:7c:06:61:82:cb:23:5b:2f:73:0b:
                    c5:95
                Exponent: 65537 (0x10001)
        X509v3 extensions:
            Netscape Cert Type: 
                SSL Client
            X509v3 Subject Key Identifier: 
                62:B1:1E:EE:9F:51:E1:90:3E:13:A9:61:E3:A5:F4:30:13:DD:AD:D2
            X509v3 Authority Key Identifier: 
                keyid:A6:66:0E:59:0F:3C:5C:11:35:B2:B3:99:59:A9:D3:A6:B1:5E:95:D2
                DirName:/CN=BHOPALCA_CA/C=IN/O=CITRIX/OU=ANG/ST=KA/emailAddress=BHOPALCA_CA@BHOPALCA_mail.com
                serial:BE:89:55:F3:65:28:17:9A

            Authority Information Access: 
                OCSP - URI:http://172.17.20.1/responderpath

    Signature Algorithm: sha256WithRSAEncryption
         44:b7:03:66:4f:af:2e:01:83:90:30:e7:c7:3b:0f:cc:ea:7d:
         cd:76:bd:f1:54:30:c6:ab:47:67:88:a7:a5:b6:2d:d6:d7:93:
         0f:64:d4:ff:93:f6:d3:45:42:86:01:a2:b4:16:58:6f:70:70:
         2e:4c:dc:2f:8e:c9:5a:fa:68:9a:ab:d4:26:a3:e0:34:5e:31:
         47:f4:d5:2a:3f:d6:3b:c4:6a:e2:99:ae:2f:2f:27:ce:07:bf:
         8e:70:e8:e8:61:34:69:e9:5a:0a:66:09:92:66:59:8b:27:be:
         e6:72:17:c0:86:7f:de:d4:f1:32:a9:16:d0:32:3a:47:a5:52:
         1b:06:4e:bf:5a:6a:31:aa:e7:bc:07:c9:c5:d8:b5:09:17:55:
         6e:0c:03:d3:ee:58:af:67:d8:0b:53:3b:00:74:f0:3a:08:8f:
         71:ec:ec:f5:8e:f0:c3:31:76:67:67:0c:63:26:a5:54:28:b0:
         e2:54:e7:ce:23:98:40:94:77:22:c2:f6:a4:8a:b6:43:42:53:
         ec:4d:be:32:ba:f0:11:f3:97:d7:46:1c:5f:b0:4e:0d:84:b7:
         90:d9:f1:69:6d:3a:4d:a9:7f:5a:d1:fc:42:0e:3f:80:96:d8:
         b6:d4:aa:d8:9f:a5:a1:bc:aa:a2:ee:8d:f4:58:b6:e2:26:a2:
         3c:40:07:00
-----BEGIN CERTIFICATE-----
MIIEkjCCA3qgAwIBAgIGCgsMDQ6XMA0GCSqGSIb3DQEBCwUAMH0xFDASBgNVBAMU
C0JIT1BBTENBX0NBMQswCQYDVQQGEwJJTjEPMA0GA1UEChMGQ0lUUklYMQwwCgYD
VQQLEwNBTkcxCzAJBgNVBAgTAktBMSwwKgYJKoZIhvcNAQkBFh1CSE9QQUxDQV9D
QUBCSE9QQUxDQV9tYWlsLmNvbTAeFw0xNzA4MjMxMDAxMzhaFw0yNzA4MjExMDAx
MzhaMGwxCzAJBgNVBAgTAktBMQswCQYDVQQGEwJJTjEZMBcGA1UEAxQQYmhvcGFs
XzQ4X2NsaWVudDEkMCIGCSqGSIb3DQEJARYVYmhvcGFsXzQ4QHRlc3RfY2EuY29t
MQ8wDQYDVQQKEwZDSVRSSVgwggEiMA0GCSqGSIb3DQEBAQUAA4IBDwAwggEKAoIB
AQDQta5k7CiilCQn9RSV2LH0a7k7QYg4pK7b4AbwRdT2Jmfuk7zgYzVdAEADKBYo
T3ocu9zB1eGQQcKT7hGH2TqAZcYs3QJ9hMTvp+qWWljvfyLAUbzb/2MfHPEJQiiN
jS8S4w6f31Iys4Lr5CzGmiEoXv6LhmZxXwy5odAm4QrP54oUTFhzlYmIicWfGer2
h0c+7ZsD4/iSbahpqOLyVmnahjqsDWPyL1zUy9hf3x0It6gQtoIXOuDRAJ5z55Yd
Q3i4Ho8t2X8W55z/Mum4HE2LLolOLjAFliJmcJj0/zA6My1J/w88QfS1Ak7MC8x3
s7TqIM4sfAZhgssjWy9zC8WVAgMBAAGjggEnMIIBIzARBglghkgBhvhCAQEEBAMC
B4AwHQYDVR0OBBYEFGKxHu6fUeGQPhOpYeOl9DAT3a3SMIGwBgNVHSMEgagwgaWA
FKZmDlkPPFwRNbKzmVmp06axXpXSoYGBpH8wfTEUMBIGA1UEAxQLQkhPUEFMQ0Ff
Q0ExCzAJBgNVBAYTAklOMQ8wDQYDVQQKEwZDSVRSSVgxDDAKBgNVBAsTA0FORzEL
MAkGA1UECBMCS0ExLDAqBgkqhkiG9w0BCQEWHUJIT1BBTENBX0NBQEJIT1BBTENB
X21haWwuY29tggkAvolV82UoF5owPAYIKwYBBQUHAQEEMDAuMCwGCCsGAQUFBzAB
hiBodHRwOi8vMTcyLjE3LjIwLjEvcmVzcG9uZGVycGF0aDANBgkqhkiG9w0BAQsF
AAOCAQEARLcDZk+vLgGDkDDnxzsPzOp9zXa98VQwxqtHZ4inpbYt1teTD2TU/5P2
00VChgGitBZYb3BwLkzcL47JWvpomqvUJqPgNF4xR/TVKj/WO8Rq4pmuLy8nzge/
jnDo6GE0aelaCmYJkmZZiye+5nIXwIZ/3tTxMqkW0DI6R6VSGwZOv1pqMarnvAfJ
xdi1CRdVbgwD0+5Yr2fYC1M7AHTwOgiPcezs9Y7wwzF2Z2cMYyalVCiw4lTnziOY
QJR3IsL2pIq2Q0JT7E2+MrrwEfOX10YcX7BODYS3kNnxaW06Tal/WtH8Qg4/gJbY
ttSq2J+lobyqou6N9Fi24iaiPEAHAA==
-----END CERTIFICATE-----
