Certificate:
    Data:
        Version: 3 (0x2)
        Serial Number: 11042563100299 (0xa0b0c0d0e8b)
    Signature Algorithm: sha256WithRSAEncryption
        Issuer: CN=BHOPALCA_CA, C=IN, O=CITRIX, OU=ANG, ST=KA/emailAddress=BHOPALCA_CA@BHOPALCA_mail.com
        Validity
            Not Before: Aug 23 10:01:33 2017 GMT
            Not After : Aug 21 10:01:33 2027 GMT
        Subject: ST=KA, C=IN, CN=bhopal_36_client/emailAddress=bhopal_36@test_ca.com, O=CITRIX
        Subject Public Key Info:
            Public Key Algorithm: rsaEncryption
                Public-Key: (2048 bit)
                Modulus:
                    00:d1:a5:e8:d8:ba:d1:f1:9f:78:57:98:cc:7a:23:
                    2a:c2:1a:d6:d8:49:83:e1:ee:6c:9f:09:31:1b:8a:
                    95:d6:cd:ec:75:86:7c:fc:a1:5b:c3:cb:71:0b:54:
                    78:b2:c0:02:7b:9f:5b:ef:cb:4f:0b:52:23:e2:91:
                    e9:e7:71:14:e5:b4:a1:9c:b1:6b:94:53:fd:a5:da:
                    a8:56:e3:1f:26:a0:ca:4e:ea:79:ad:e8:54:bc:6e:
                    76:e3:c2:70:e6:5b:ea:37:06:3a:ef:98:5c:51:30:
                    6f:0b:68:b0:ba:22:ec:b3:dc:19:62:35:19:14:e1:
                    43:66:fb:09:5f:3c:c6:f4:5a:25:50:1b:aa:db:b6:
                    a3:78:a7:4c:e2:47:61:24:12:99:2a:9b:03:a6:42:
                    69:a2:91:c6:dc:f8:e8:e8:88:60:74:d7:48:ec:3e:
                    2a:8a:6c:ed:cc:01:42:e5:03:b9:8f:17:2f:6a:af:
                    f1:3e:86:fc:fb:b0:90:46:07:0b:3d:46:bb:e0:0a:
                    ec:92:42:55:78:90:2b:33:04:af:cc:dc:40:14:a7:
                    f2:2a:bc:15:dd:2a:9c:e5:82:43:8a:c0:ba:2c:70:
                    58:b4:ee:0f:8d:01:04:ae:45:c9:1b:c4:f7:72:86:
                    9a:44:09:81:3a:0e:9c:ea:07:e1:a3:de:c8:a7:e1:
                    a2:01
                Exponent: 65537 (0x10001)
        X509v3 extensions:
            Netscape Cert Type: 
                SSL Client
            X509v3 Subject Key Identifier: 
                C9:EE:59:2E:E0:7D:08:9A:FB:4B:C7:7B:69:B5:C8:C8:3E:C8:51:DC
            X509v3 Authority Key Identifier: 
                keyid:A6:66:0E:59:0F:3C:5C:11:35:B2:B3:99:59:A9:D3:A6:B1:5E:95:D2
                DirName:/CN=BHOPALCA_CA/C=IN/O=CITRIX/OU=ANG/ST=KA/emailAddress=BHOPALCA_CA@BHOPALCA_mail.com
                serial:BE:89:55:F3:65:28:17:9A

            Authority Information Access: 
                OCSP - URI:http://172.17.20.1/responderpath

    Signature Algorithm: sha256WithRSAEncryption
         5e:cb:5c:b5:dd:0b:a8:d9:ee:b3:ea:b3:f4:70:16:f8:53:e4:
         69:61:92:14:d6:fd:04:fb:88:2c:64:da:b8:8a:d0:26:a0:22:
         50:c6:97:63:0c:57:77:ce:47:0d:69:5e:02:2e:ed:1a:55:4f:
         a4:be:68:ac:ae:3c:72:60:ba:18:69:02:b1:89:d5:56:1f:53:
         07:4e:7b:a0:7b:15:f5:9f:63:63:18:9a:55:8b:3a:f1:44:ec:
         63:61:89:be:60:fd:e2:a2:f8:b9:d0:80:5e:44:72:9f:fe:ef:
         49:22:2b:07:50:86:f7:72:87:0e:9f:d8:69:fa:61:15:f1:a7:
         3e:65:70:1f:65:37:27:db:c4:da:8f:af:b3:a3:ee:ad:b0:5d:
         14:29:28:82:e9:be:c0:d9:5e:56:bc:24:25:fc:0c:dd:4e:28:
         7c:82:e8:44:5e:f9:30:6b:63:c5:7f:ce:96:6d:24:60:11:12:
         e4:5b:34:a6:73:05:ce:f6:1c:60:26:e3:b1:fe:72:8e:51:08:
         17:82:0f:07:cf:7b:cd:83:8d:bf:4b:30:81:8a:1f:36:28:cc:
         35:76:95:89:2d:26:16:d7:2a:ea:32:12:a4:6f:4c:04:72:b7:
         c3:22:cf:78:bd:31:3b:e3:62:29:50:84:7a:f5:99:b4:b0:36:
         6b:e7:6c:bf
-----BEGIN CERTIFICATE-----
MIIEkjCCA3qgAwIBAgIGCgsMDQ6LMA0GCSqGSIb3DQEBCwUAMH0xFDASBgNVBAMU
C0JIT1BBTENBX0NBMQswCQYDVQQGEwJJTjEPMA0GA1UEChMGQ0lUUklYMQwwCgYD
VQQLEwNBTkcxCzAJBgNVBAgTAktBMSwwKgYJKoZIhvcNAQkBFh1CSE9QQUxDQV9D
QUBCSE9QQUxDQV9tYWlsLmNvbTAeFw0xNzA4MjMxMDAxMzNaFw0yNzA4MjExMDAx
MzNaMGwxCzAJBgNVBAgTAktBMQswCQYDVQQGEwJJTjEZMBcGA1UEAxQQYmhvcGFs
XzM2X2NsaWVudDEkMCIGCSqGSIb3DQEJARYVYmhvcGFsXzM2QHRlc3RfY2EuY29t
MQ8wDQYDVQQKEwZDSVRSSVgwggEiMA0GCSqGSIb3DQEBAQUAA4IBDwAwggEKAoIB
AQDRpejYutHxn3hXmMx6IyrCGtbYSYPh7myfCTEbipXWzex1hnz8oVvDy3ELVHiy
wAJ7n1vvy08LUiPikenncRTltKGcsWuUU/2l2qhW4x8moMpO6nmt6FS8bnbjwnDm
W+o3BjrvmFxRMG8LaLC6Iuyz3BliNRkU4UNm+wlfPMb0WiVQG6rbtqN4p0ziR2Ek
EpkqmwOmQmmikcbc+OjoiGB010jsPiqKbO3MAULlA7mPFy9qr/E+hvz7sJBGBws9
RrvgCuySQlV4kCszBK/M3EAUp/IqvBXdKpzlgkOKwLoscFi07g+NAQSuRckbxPdy
hppECYE6DpzqB+Gj3sin4aIBAgMBAAGjggEnMIIBIzARBglghkgBhvhCAQEEBAMC
B4AwHQYDVR0OBBYEFMnuWS7gfQia+0vHe2m1yMg+yFHcMIGwBgNVHSMEgagwgaWA
FKZmDlkPPFwRNbKzmVmp06axXpXSoYGBpH8wfTEUMBIGA1UEAxQLQkhPUEFMQ0Ff
Q0ExCzAJBgNVBAYTAklOMQ8wDQYDVQQKEwZDSVRSSVgxDDAKBgNVBAsTA0FORzEL
MAkGA1UECBMCS0ExLDAqBgkqhkiG9w0BCQEWHUJIT1BBTENBX0NBQEJIT1BBTENB
X21haWwuY29tggkAvolV82UoF5owPAYIKwYBBQUHAQEEMDAuMCwGCCsGAQUFBzAB
hiBodHRwOi8vMTcyLjE3LjIwLjEvcmVzcG9uZGVycGF0aDANBgkqhkiG9w0BAQsF
AAOCAQEAXstctd0LqNnus+qz9HAW+FPkaWGSFNb9BPuILGTauIrQJqAiUMaXYwxX
d85HDWleAi7tGlVPpL5orK48cmC6GGkCsYnVVh9TB057oHsV9Z9jYxiaVYs68UTs
Y2GJvmD94qL4udCAXkRyn/7vSSIrB1CG93KHDp/YafphFfGnPmVwH2U3J9vE2o+v
s6PurbBdFCkogum+wNleVrwkJfwM3U4ofILoRF75MGtjxX/Olm0kYBES5Fs0pnMF
zvYcYCbjsf5yjlEIF4IPB897zYONv0swgYofNijMNXaViS0mFtcq6jISpG9MBHK3
wyLPeL0xO+NiKVCEevWZtLA2a+dsvw==
-----END CERTIFICATE-----
