Certificate:
    Data:
        Version: 3 (0x2)
        Serial Number: 11042563100264 (0xa0b0c0d0e68)
    Signature Algorithm: sha256WithRSAEncryption
        Issuer: CN=BHOPALCA_CA, C=IN, O=CITRIX, OU=ANG, ST=KA/emailAddress=BHOPALCA_CA@BHOPALCA_mail.com
        Validity
            Not Before: Aug 23 10:01:13 2017 GMT
            Not After : Aug 21 10:01:13 2027 GMT
        Subject: ST=KA, C=IN, CN=bhopal_1_client/emailAddress=bhopal_1@test_ca.com, O=CITRIX
        Subject Public Key Info:
            Public Key Algorithm: rsaEncryption
                Public-Key: (2048 bit)
                Modulus:
                    00:b9:be:af:ee:fc:57:e6:48:0b:8d:09:15:58:64:
                    c8:e9:a6:27:95:6b:2a:c8:b1:1d:76:d4:87:49:83:
                    dc:3b:7a:cf:e3:81:88:b9:21:c8:6f:6e:f6:bc:0d:
                    0a:7f:c3:fd:50:4e:b1:31:02:f3:4f:6a:45:ab:01:
                    80:bb:97:45:6b:d9:cc:d1:be:42:b3:f9:a0:b5:18:
                    ad:27:fc:c4:f2:ca:6e:90:54:b9:a2:54:c1:5f:0a:
                    22:50:37:3d:18:28:1d:c1:72:91:5b:16:ed:0c:f0:
                    fb:16:ae:67:b7:9d:e7:d6:a5:03:7e:7a:f7:fc:6a:
                    4a:5f:a4:7b:1d:c6:46:a5:fc:0f:0e:c4:38:3d:21:
                    2d:38:3b:cc:fa:3a:e0:96:fd:a6:49:02:66:bb:b8:
                    ac:d9:75:97:b7:72:70:6b:fe:1a:bb:ec:78:fb:2d:
                    19:cf:f5:e2:f3:2b:ae:47:95:af:47:6f:82:8e:bb:
                    0b:b7:f8:39:b1:30:45:59:bb:a5:4f:d0:7c:e6:8d:
                    60:fa:28:10:0c:ac:e1:0c:f8:21:39:5b:82:59:07:
                    e4:22:17:b2:99:e6:32:31:cd:6f:49:1d:ef:e4:74:
                    60:b5:04:48:9d:7f:f5:fe:41:24:60:07:0f:61:5c:
                    2a:88:bb:a8:de:61:26:1d:a8:89:d2:35:56:eb:12:
                    a3:85
                Exponent: 65537 (0x10001)
        X509v3 extensions:
            Netscape Cert Type: 
                SSL Client
            X509v3 Subject Key Identifier: 
                E1:56:E5:B4:3C:7D:DF:EB:A0:82:31:0D:0D:C6:2F:8D:A8:F1:92:5B
            X509v3 Authority Key Identifier: 
                keyid:A6:66:0E:59:0F:3C:5C:11:35:B2:B3:99:59:A9:D3:A6:B1:5E:95:D2
                DirName:/CN=BHOPALCA_CA/C=IN/O=CITRIX/OU=ANG/ST=KA/emailAddress=BHOPALCA_CA@BHOPALCA_mail.com
                serial:BE:89:55:F3:65:28:17:9A

            Authority Information Access: 
                OCSP - URI:http://172.17.20.1/responderpath

    Signature Algorithm: sha256WithRSAEncryption
         2b:a8:33:31:e1:00:86:0a:c1:fa:f9:9b:a2:c7:99:1a:79:ef:
         5c:52:4b:4d:db:99:fe:a7:14:31:34:9a:ba:3a:a9:14:ab:6e:
         a2:77:c1:41:b6:65:c4:cb:59:6a:df:3d:ec:0b:dd:30:85:17:
         fb:c0:44:27:e9:bf:fc:02:3d:a7:6d:bb:a3:02:0d:b8:ad:8e:
         49:72:93:17:b2:f5:6c:ef:45:51:f3:71:8b:d7:db:11:10:2d:
         19:d3:2d:6b:ae:a5:c9:85:1a:99:5d:12:bf:e6:ec:9f:5a:f1:
         ac:b1:e8:bb:3b:da:76:3a:f3:8a:c1:6f:e2:3d:24:54:52:b5:
         fb:45:09:fa:46:6d:7d:0d:ed:fd:0a:a5:67:ce:25:49:f6:fb:
         55:aa:19:64:b0:f9:0d:1b:c5:b8:95:ca:fa:3f:e3:41:d3:be:
         40:b5:a3:39:de:57:a2:c9:9c:fc:a4:66:13:e5:aa:8e:bc:74:
         55:9e:bf:ac:11:b0:d6:6b:fa:4d:50:12:f1:b6:75:d9:bb:80:
         c9:43:aa:aa:96:a4:d0:eb:cf:20:e5:bc:8a:36:92:12:16:f3:
         be:16:c7:d8:58:6d:16:65:b2:da:f0:d8:a8:bc:bd:d5:26:00:
         6e:68:b9:7e:f0:d1:89:1d:0b:4f:9b:24:7f:2e:97:fe:58:a0:
         7b:ee:c2:39
-----BEGIN CERTIFICATE-----
MIIEkDCCA3igAwIBAgIGCgsMDQ5oMA0GCSqGSIb3DQEBCwUAMH0xFDASBgNVBAMU
C0JIT1BBTENBX0NBMQswCQYDVQQGEwJJTjEPMA0GA1UEChMGQ0lUUklYMQwwCgYD
VQQLEwNBTkcxCzAJBgNVBAgTAktBMSwwKgYJKoZIhvcNAQkBFh1CSE9QQUxDQV9D
QUBCSE9QQUxDQV9tYWlsLmNvbTAeFw0xNzA4MjMxMDAxMTNaFw0yNzA4MjExMDAx
MTNaMGoxCzAJBgNVBAgTAktBMQswCQYDVQQGEwJJTjEYMBYGA1UEAxQPYmhvcGFs
XzFfY2xpZW50MSMwIQYJKoZIhvcNAQkBFhRiaG9wYWxfMUB0ZXN0X2NhLmNvbTEP
MA0GA1UEChMGQ0lUUklYMIIBIjANBgkqhkiG9w0BAQEFAAOCAQ8AMIIBCgKCAQEA
ub6v7vxX5kgLjQkVWGTI6aYnlWsqyLEddtSHSYPcO3rP44GIuSHIb272vA0Kf8P9
UE6xMQLzT2pFqwGAu5dFa9nM0b5Cs/mgtRitJ/zE8spukFS5olTBXwoiUDc9GCgd
wXKRWxbtDPD7Fq5nt53n1qUDfnr3/GpKX6R7HcZGpfwPDsQ4PSEtODvM+jrglv2m
SQJmu7is2XWXt3Jwa/4au+x4+y0Zz/Xi8yuuR5WvR2+CjrsLt/g5sTBFWbulT9B8
5o1g+igQDKzhDPghOVuCWQfkIheymeYyMc1vSR3v5HRgtQRInX/1/kEkYAcPYVwq
iLuo3mEmHaiJ0jVW6xKjhQIDAQABo4IBJzCCASMwEQYJYIZIAYb4QgEBBAQDAgeA
MB0GA1UdDgQWBBThVuW0PH3f66CCMQ0Nxi+NqPGSWzCBsAYDVR0jBIGoMIGlgBSm
Zg5ZDzxcETWys5lZqdOmsV6V0qGBgaR/MH0xFDASBgNVBAMUC0JIT1BBTENBX0NB
MQswCQYDVQQGEwJJTjEPMA0GA1UEChMGQ0lUUklYMQwwCgYDVQQLEwNBTkcxCzAJ
BgNVBAgTAktBMSwwKgYJKoZIhvcNAQkBFh1CSE9QQUxDQV9DQUBCSE9QQUxDQV9t
YWlsLmNvbYIJAL6JVfNlKBeaMDwGCCsGAQUFBwEBBDAwLjAsBggrBgEFBQcwAYYg
aHR0cDovLzE3Mi4xNy4yMC4xL3Jlc3BvbmRlcnBhdGgwDQYJKoZIhvcNAQELBQAD
ggEBACuoMzHhAIYKwfr5m6LHmRp571xSS03bmf6nFDE0mro6qRSrbqJ3wUG2ZcTL
WWrfPewL3TCFF/vARCfpv/wCPadtu6MCDbitjklykxey9WzvRVHzcYvX2xEQLRnT
LWuupcmFGpldEr/m7J9a8ayx6Ls72nY684rBb+I9JFRStftFCfpGbX0N7f0KpWfO
JUn2+1WqGWSw+Q0bxbiVyvo/40HTvkC1ozneV6LJnPykZhPlqo68dFWev6wRsNZr
+k1QEvG2ddm7gMlDqqqWpNDrzyDlvIo2khIW874Wx9hYbRZlstrw2Ki8vdUmAG5o
uX7w0YkdC0+bJH8ul/5YoHvuwjk=
-----END CERTIFICATE-----
