Certificate:
    Data:
        Version: 3 (0x2)
        Serial Number: 11042563100270 (0xa0b0c0d0e6e)
    Signature Algorithm: sha256WithRSAEncryption
        Issuer: CN=BHOPALCA_CA, C=IN, O=CITRIX, OU=ANG, ST=KA/emailAddress=BHOPALCA_CA@BHOPALCA_mail.com
        Validity
            Not Before: Aug 23 10:01:17 2017 GMT
            Not After : Aug 21 10:01:17 2027 GMT
        Subject: ST=KA, C=IN, CN=bhopal_7_client/emailAddress=bhopal_7@test_ca.com, O=CITRIX
        Subject Public Key Info:
            Public Key Algorithm: rsaEncryption
                Public-Key: (2048 bit)
                Modulus:
                    00:ac:07:9e:2a:93:44:f4:ed:15:50:4c:50:87:06:
                    87:e6:a7:cc:41:6d:c6:93:4d:f1:f8:f9:34:42:0d:
                    ad:e5:54:63:f7:82:cf:9d:33:48:8b:f9:f0:f7:86:
                    99:5a:05:11:49:c7:aa:4e:97:b5:79:9b:e1:76:6a:
                    b1:68:40:d0:80:b9:ef:dc:9f:64:18:51:80:98:ea:
                    20:11:66:a4:02:d5:b1:2c:3b:d2:7c:85:b5:87:f6:
                    bf:f3:c0:7b:65:5d:d8:b3:a1:5c:a0:e1:6d:ca:93:
                    1d:74:0e:a8:ab:67:bc:6a:57:ed:38:d6:4f:9b:73:
                    55:01:c0:bd:e5:77:3c:e1:4d:9c:0a:91:2d:59:53:
                    fa:00:3b:ac:f1:45:79:d2:9e:e6:c0:75:96:ec:89:
                    56:5e:9c:60:fb:6c:aa:37:ca:2e:f5:e5:72:3a:b6:
                    31:73:d3:c7:61:14:dd:eb:74:e6:6b:7f:0c:ba:bc:
                    86:d3:27:e3:ab:3f:e1:6a:27:a7:94:10:2d:a5:5f:
                    ad:c7:e3:13:c3:81:91:0b:10:43:db:fc:cc:ed:7e:
                    0c:9e:e4:d3:66:55:e4:1a:04:5a:0a:6a:9e:e3:fa:
                    bc:9c:9e:3c:3c:4c:89:83:08:94:dc:d6:d6:ab:5f:
                    cc:f0:80:84:03:f1:81:f5:cb:29:c1:ef:ea:b1:68:
                    71:69
                Exponent: 65537 (0x10001)
        X509v3 extensions:
            Netscape Cert Type: 
                SSL Client
            X509v3 Subject Key Identifier: 
                83:C5:A2:9C:A0:BB:EB:78:EF:54:66:AC:17:7C:FD:B2:E2:5E:CF:B5
            X509v3 Authority Key Identifier: 
                keyid:A6:66:0E:59:0F:3C:5C:11:35:B2:B3:99:59:A9:D3:A6:B1:5E:95:D2
                DirName:/CN=BHOPALCA_CA/C=IN/O=CITRIX/OU=ANG/ST=KA/emailAddress=BHOPALCA_CA@BHOPALCA_mail.com
                serial:BE:89:55:F3:65:28:17:9A

            Authority Information Access: 
                OCSP - URI:http://172.17.20.1/responderpath

    Signature Algorithm: sha256WithRSAEncryption
         9d:2d:5e:fb:b7:79:93:a4:ba:20:c4:37:21:bc:25:5e:73:9a:
         eb:20:bd:c1:76:37:2e:50:47:c7:cd:6c:86:2d:2b:b8:ff:63:
         e5:33:2d:22:13:37:9c:c7:75:3f:40:e4:68:90:8d:2b:58:cc:
         9d:99:21:20:97:58:53:89:e7:9a:5b:be:71:e5:73:ee:bc:36:
         b0:74:49:10:82:96:7b:65:6c:45:ce:35:fb:c3:c8:17:a0:cd:
         63:06:89:23:08:f9:4e:42:d8:c3:2b:b4:2d:67:0d:e0:b6:67:
         ea:a5:12:8c:80:b8:61:28:03:1a:31:c5:c5:b1:55:1e:5f:3d:
         e2:ed:c0:00:c2:63:8a:4e:d0:f9:55:75:77:04:c9:73:7d:1a:
         1a:de:c7:cf:ed:6d:63:27:d4:12:07:c8:9d:a2:88:87:85:d3:
         18:b5:a5:23:33:07:bd:55:73:31:60:e8:ef:2f:71:e1:75:4a:
         82:a1:ee:dc:b5:35:19:07:4d:0a:7b:42:d7:12:4a:90:d7:71:
         cb:88:f0:55:da:cf:d9:be:bf:13:a0:e1:eb:ac:82:3e:73:50:
         c6:da:b2:10:25:3f:09:c3:9c:c9:69:22:a5:71:d3:bd:10:ac:
         41:ff:8a:c5:78:d0:bf:7a:9c:95:f2:30:89:93:75:80:c0:ef:
         a2:8b:43:a7
-----BEGIN CERTIFICATE-----
MIIEkDCCA3igAwIBAgIGCgsMDQ5uMA0GCSqGSIb3DQEBCwUAMH0xFDASBgNVBAMU
C0JIT1BBTENBX0NBMQswCQYDVQQGEwJJTjEPMA0GA1UEChMGQ0lUUklYMQwwCgYD
VQQLEwNBTkcxCzAJBgNVBAgTAktBMSwwKgYJKoZIhvcNAQkBFh1CSE9QQUxDQV9D
QUBCSE9QQUxDQV9tYWlsLmNvbTAeFw0xNzA4MjMxMDAxMTdaFw0yNzA4MjExMDAx
MTdaMGoxCzAJBgNVBAgTAktBMQswCQYDVQQGEwJJTjEYMBYGA1UEAxQPYmhvcGFs
XzdfY2xpZW50MSMwIQYJKoZIhvcNAQkBFhRiaG9wYWxfN0B0ZXN0X2NhLmNvbTEP
MA0GA1UEChMGQ0lUUklYMIIBIjANBgkqhkiG9w0BAQEFAAOCAQ8AMIIBCgKCAQEA
rAeeKpNE9O0VUExQhwaH5qfMQW3Gk03x+Pk0Qg2t5VRj94LPnTNIi/nw94aZWgUR
SceqTpe1eZvhdmqxaEDQgLnv3J9kGFGAmOogEWakAtWxLDvSfIW1h/a/88B7ZV3Y
s6FcoOFtypMddA6oq2e8alftONZPm3NVAcC95Xc84U2cCpEtWVP6ADus8UV50p7m
wHWW7IlWXpxg+2yqN8ou9eVyOrYxc9PHYRTd63Tma38MuryG0yfjqz/haienlBAt
pV+tx+MTw4GRCxBD2/zM7X4MnuTTZlXkGgRaCmqe4/q8nJ48PEyJgwiU3NbWq1/M
8ICEA/GB9cspwe/qsWhxaQIDAQABo4IBJzCCASMwEQYJYIZIAYb4QgEBBAQDAgeA
MB0GA1UdDgQWBBSDxaKcoLvreO9UZqwXfP2y4l7PtTCBsAYDVR0jBIGoMIGlgBSm
Zg5ZDzxcETWys5lZqdOmsV6V0qGBgaR/MH0xFDASBgNVBAMUC0JIT1BBTENBX0NB
MQswCQYDVQQGEwJJTjEPMA0GA1UEChMGQ0lUUklYMQwwCgYDVQQLEwNBTkcxCzAJ
BgNVBAgTAktBMSwwKgYJKoZIhvcNAQkBFh1CSE9QQUxDQV9DQUBCSE9QQUxDQV9t
YWlsLmNvbYIJAL6JVfNlKBeaMDwGCCsGAQUFBwEBBDAwLjAsBggrBgEFBQcwAYYg
aHR0cDovLzE3Mi4xNy4yMC4xL3Jlc3BvbmRlcnBhdGgwDQYJKoZIhvcNAQELBQAD
ggEBAJ0tXvu3eZOkuiDENyG8JV5zmusgvcF2Ny5QR8fNbIYtK7j/Y+UzLSITN5zH
dT9A5GiQjStYzJ2ZISCXWFOJ55pbvnHlc+68NrB0SRCClntlbEXONfvDyBegzWMG
iSMI+U5C2MMrtC1nDeC2Z+qlEoyAuGEoAxoxxcWxVR5fPeLtwADCY4pO0PlVdXcE
yXN9Ghrex8/tbWMn1BIHyJ2iiIeF0xi1pSMzB71VczFg6O8vceF1SoKh7ty1NRkH
TQp7QtcSSpDXccuI8FXaz9m+vxOg4eusgj5zUMbashAlPwnDnMlpIqVx070QrEH/
isV40L96nJXyMImTdYDA76KLQ6c=
-----END CERTIFICATE-----
