Certificate:
    Data:
        Version: 3 (0x2)
        Serial Number: 11042563100272 (0xa0b0c0d0e70)
    Signature Algorithm: sha256WithRSAEncryption
        Issuer: CN=BHOPALCA_CA, C=IN, O=CITRIX, OU=ANG, ST=KA/emailAddress=BHOPALCA_CA@BHOPALCA_mail.com
        Validity
            Not Before: Aug 23 10:01:19 2017 GMT
            Not After : Aug 21 10:01:19 2027 GMT
        Subject: ST=KA, C=IN, CN=bhopal_9_client/emailAddress=bhopal_9@test_ca.com, O=CITRIX
        Subject Public Key Info:
            Public Key Algorithm: rsaEncryption
                Public-Key: (2048 bit)
                Modulus:
                    00:f2:dd:0a:b5:ef:2f:b9:39:a2:6e:d3:06:34:6d:
                    71:1d:06:fd:26:36:3a:84:3d:06:7a:1b:b3:09:dd:
                    9f:96:26:9d:a5:d8:74:19:c5:90:78:72:37:e1:85:
                    0c:72:34:44:1e:92:64:b0:ee:3e:49:d1:93:18:9f:
                    f1:ec:6b:12:34:bd:b8:b0:c6:45:d1:ee:4c:02:74:
                    98:99:98:cf:6d:cd:1a:ea:0f:f0:99:57:bb:62:f1:
                    ca:0e:73:4b:33:b7:b2:07:6e:78:a6:62:67:9f:b6:
                    9c:96:24:7a:c2:8f:b3:e9:37:86:29:ea:0a:2d:17:
                    60:42:c7:c3:64:e1:55:21:31:28:65:83:03:fe:c0:
                    8e:ac:f1:83:46:3e:85:e3:b9:7b:5a:56:cc:e5:e3:
                    73:e4:22:fc:c1:51:68:6d:8b:c7:07:4f:bc:41:3f:
                    ce:36:c9:ed:89:67:75:f4:71:32:9a:c3:79:b4:b7:
                    85:99:05:5a:02:c2:7b:24:20:07:73:74:ff:bf:92:
                    96:f2:19:64:9d:6d:2f:e5:83:44:c7:ac:9f:28:95:
                    62:ed:7e:08:22:04:7b:5a:1f:c8:16:0b:38:5c:bd:
                    9e:fe:5a:88:1d:47:b6:ee:a7:68:31:20:98:32:59:
                    1e:37:2e:f9:99:96:e2:c9:26:eb:95:fe:f0:cc:ec:
                    2b:a9
                Exponent: 65537 (0x10001)
        X509v3 extensions:
            Netscape Cert Type: 
                SSL Client
            X509v3 Subject Key Identifier: 
                C7:C6:FC:06:72:A6:B0:2F:B4:70:E2:28:08:18:61:18:85:6F:53:D7
            X509v3 Authority Key Identifier: 
                keyid:A6:66:0E:59:0F:3C:5C:11:35:B2:B3:99:59:A9:D3:A6:B1:5E:95:D2
                DirName:/CN=BHOPALCA_CA/C=IN/O=CITRIX/OU=ANG/ST=KA/emailAddress=BHOPALCA_CA@BHOPALCA_mail.com
                serial:BE:89:55:F3:65:28:17:9A

            Authority Information Access: 
                OCSP - URI:http://172.17.20.1/responderpath

    Signature Algorithm: sha256WithRSAEncryption
         42:5c:d3:4a:18:6f:57:3f:05:22:83:06:ee:67:a6:1b:88:bf:
         7a:4c:d2:5a:44:a9:ce:63:29:b9:cc:cf:69:3d:7c:26:23:01:
         38:20:9a:d3:4f:64:12:40:79:88:9c:9d:b1:db:93:5a:9f:71:
         3a:74:0c:7b:fc:f4:21:78:85:9d:10:8e:8a:1d:e0:07:b9:f1:
         74:b5:47:7f:b5:8c:64:2b:ac:0a:3c:f3:41:43:07:37:4e:7b:
         21:14:5a:d3:02:ee:6e:91:9f:49:75:97:2a:97:53:32:65:0b:
         c2:fc:81:c6:6e:62:36:00:0c:f4:02:90:a7:cd:18:c1:7c:aa:
         76:62:d6:bd:64:2d:95:9f:bc:e8:19:44:07:85:72:93:4c:87:
         ad:03:99:07:95:da:4a:41:4e:ec:5c:ba:ab:5e:6e:5d:51:e0:
         fc:a0:b3:44:0b:ce:e1:12:83:70:e0:8e:3e:cf:ab:27:89:fa:
         be:12:0e:13:f7:24:bb:b7:66:24:3d:4e:7c:ba:8e:ab:3d:92:
         ed:4e:5b:f1:a7:b8:eb:ca:2c:9c:b6:a0:fb:60:61:c8:d7:5d:
         4f:73:32:57:f8:75:80:20:9a:74:07:e4:e9:f5:78:3f:16:07:
         fd:4c:70:90:44:96:34:8f:4f:7e:80:a6:05:6f:13:d8:49:15:
         3d:77:eb:8c
-----BEGIN CERTIFICATE-----
MIIEkDCCA3igAwIBAgIGCgsMDQ5wMA0GCSqGSIb3DQEBCwUAMH0xFDASBgNVBAMU
C0JIT1BBTENBX0NBMQswCQYDVQQGEwJJTjEPMA0GA1UEChMGQ0lUUklYMQwwCgYD
VQQLEwNBTkcxCzAJBgNVBAgTAktBMSwwKgYJKoZIhvcNAQkBFh1CSE9QQUxDQV9D
QUBCSE9QQUxDQV9tYWlsLmNvbTAeFw0xNzA4MjMxMDAxMTlaFw0yNzA4MjExMDAx
MTlaMGoxCzAJBgNVBAgTAktBMQswCQYDVQQGEwJJTjEYMBYGA1UEAxQPYmhvcGFs
XzlfY2xpZW50MSMwIQYJKoZIhvcNAQkBFhRiaG9wYWxfOUB0ZXN0X2NhLmNvbTEP
MA0GA1UEChMGQ0lUUklYMIIBIjANBgkqhkiG9w0BAQEFAAOCAQ8AMIIBCgKCAQEA
8t0Kte8vuTmibtMGNG1xHQb9JjY6hD0GehuzCd2fliadpdh0GcWQeHI34YUMcjRE
HpJksO4+SdGTGJ/x7GsSNL24sMZF0e5MAnSYmZjPbc0a6g/wmVe7YvHKDnNLM7ey
B254pmJnn7acliR6wo+z6TeGKeoKLRdgQsfDZOFVITEoZYMD/sCOrPGDRj6F47l7
WlbM5eNz5CL8wVFobYvHB0+8QT/ONsntiWd19HEymsN5tLeFmQVaAsJ7JCAHc3T/
v5KW8hlknW0v5YNEx6yfKJVi7X4IIgR7Wh/IFgs4XL2e/lqIHUe27qdoMSCYMlke
Ny75mZbiySbrlf7wzOwrqQIDAQABo4IBJzCCASMwEQYJYIZIAYb4QgEBBAQDAgeA
MB0GA1UdDgQWBBTHxvwGcqawL7Rw4igIGGEYhW9T1zCBsAYDVR0jBIGoMIGlgBSm
Zg5ZDzxcETWys5lZqdOmsV6V0qGBgaR/MH0xFDASBgNVBAMUC0JIT1BBTENBX0NB
MQswCQYDVQQGEwJJTjEPMA0GA1UEChMGQ0lUUklYMQwwCgYDVQQLEwNBTkcxCzAJ
BgNVBAgTAktBMSwwKgYJKoZIhvcNAQkBFh1CSE9QQUxDQV9DQUBCSE9QQUxDQV9t
YWlsLmNvbYIJAL6JVfNlKBeaMDwGCCsGAQUFBwEBBDAwLjAsBggrBgEFBQcwAYYg
aHR0cDovLzE3Mi4xNy4yMC4xL3Jlc3BvbmRlcnBhdGgwDQYJKoZIhvcNAQELBQAD
ggEBAEJc00oYb1c/BSKDBu5nphuIv3pM0lpEqc5jKbnMz2k9fCYjATggmtNPZBJA
eYicnbHbk1qfcTp0DHv89CF4hZ0Qjood4Ae58XS1R3+1jGQrrAo880FDBzdOeyEU
WtMC7m6Rn0l1lyqXUzJlC8L8gcZuYjYADPQCkKfNGMF8qnZi1r1kLZWfvOgZRAeF
cpNMh60DmQeV2kpBTuxcuqtebl1R4Pygs0QLzuESg3Dgjj7PqyeJ+r4SDhP3JLu3
ZiQ9Tny6jqs9ku1OW/GnuOvKLJy2oPtgYcjXXU9zMlf4dYAgmnQH5On1eD8WB/1M
cJBEljSPT36ApgVvE9hJFT1364w=
-----END CERTIFICATE-----
