Certificate:
    Data:
        Version: 3 (0x2)
        Serial Number: 11042563100277 (0xa0b0c0d0e75)
    Signature Algorithm: sha256WithRSAEncryption
        Issuer: CN=BHOPALCA_CA, C=IN, O=CITRIX, OU=ANG, ST=KA/emailAddress=BHOPALCA_CA@BHOPALCA_mail.com
        Validity
            Not Before: Aug 23 10:01:21 2017 GMT
            Not After : Aug 21 10:01:21 2027 GMT
        Subject: ST=KA, C=IN, CN=bhopal_14_client/emailAddress=bhopal_14@test_ca.com, O=CITRIX
        Subject Public Key Info:
            Public Key Algorithm: rsaEncryption
                Public-Key: (2048 bit)
                Modulus:
                    00:f0:6b:0a:61:83:5e:b9:40:ac:d2:33:b9:6c:b2:
                    f3:e3:3e:59:7b:62:08:fa:7d:cb:51:ab:e1:74:a2:
                    e7:fa:88:6f:ec:bd:92:e5:25:c7:51:57:7e:3c:6f:
                    6f:ab:46:c1:cb:75:5e:9b:70:5f:87:bd:64:b8:2c:
                    20:88:30:e0:9f:3f:1f:dd:18:31:e0:c3:f0:55:2c:
                    86:2c:d3:f1:7d:35:cb:25:f4:b2:35:46:6d:98:e7:
                    a3:4c:e0:50:b8:5c:45:3e:e2:6c:6b:63:09:a4:be:
                    4c:cb:d6:f4:17:95:98:e2:44:97:7e:83:ed:b0:4e:
                    d8:74:7b:67:6e:ec:49:42:40:13:67:fa:ea:32:a0:
                    da:ed:2a:62:c8:f6:b3:a7:c1:d6:8e:75:04:ba:99:
                    25:a6:08:08:99:05:23:42:6c:2f:d4:39:ad:c9:5f:
                    6a:6e:98:f8:e3:56:f3:61:f0:d4:5d:0f:70:a0:3d:
                    5b:60:af:9d:91:d3:66:2d:93:a7:af:1b:53:ce:b8:
                    2f:bd:e2:60:b8:a1:a2:34:62:b9:4b:b6:d2:b8:6c:
                    65:e0:9f:a5:5e:2a:66:f3:ad:e6:f1:e6:12:04:d7:
                    8d:cc:cd:99:56:cf:67:79:6c:45:7c:1b:ae:56:20:
                    39:0d:58:ce:2a:bb:e7:cf:6a:37:37:ea:24:6a:39:
                    bd:b7
                Exponent: 65537 (0x10001)
        X509v3 extensions:
            Netscape Cert Type: 
                SSL Client
            X509v3 Subject Key Identifier: 
                EC:F3:54:1D:3D:46:28:1C:58:85:CD:EE:FE:CB:3E:B3:2D:09:72:E4
            X509v3 Authority Key Identifier: 
                keyid:A6:66:0E:59:0F:3C:5C:11:35:B2:B3:99:59:A9:D3:A6:B1:5E:95:D2
                DirName:/CN=BHOPALCA_CA/C=IN/O=CITRIX/OU=ANG/ST=KA/emailAddress=BHOPALCA_CA@BHOPALCA_mail.com
                serial:BE:89:55:F3:65:28:17:9A

            Authority Information Access: 
                OCSP - URI:http://172.17.20.1/responderpath

    Signature Algorithm: sha256WithRSAEncryption
         3f:e4:15:a2:70:f3:6b:0c:71:bd:e5:62:9d:da:7c:05:59:5c:
         67:ae:0a:21:06:d5:38:8b:f1:0b:66:44:93:11:aa:f3:f0:e2:
         cf:ef:e9:55:a9:04:3e:43:2b:47:14:0a:a6:40:f3:5e:3a:6c:
         c5:96:92:8e:04:39:92:fc:98:fa:7d:e6:c9:21:61:7b:b4:63:
         b6:26:1b:9a:50:f5:43:a8:47:66:21:2f:a0:11:a7:c3:4c:6b:
         fc:df:36:3e:c5:c6:51:e4:a2:b3:79:79:75:e9:c6:9f:9e:f3:
         78:8e:ce:e5:51:e4:c0:de:72:8f:4e:a2:0d:fd:6f:e4:aa:60:
         4a:95:fd:c5:d4:0a:1a:fd:8f:fb:00:55:0f:c3:5b:4b:c2:75:
         4f:91:fd:07:f5:dc:17:99:14:17:c9:7e:bd:7e:da:20:b7:df:
         bc:fe:59:b5:0e:ca:7f:e9:fd:6d:5e:40:8f:4b:70:04:24:e9:
         88:79:21:c4:ae:1d:51:15:f4:c6:32:cd:a7:66:18:72:e4:a5:
         24:ee:a6:1f:8a:64:cc:f0:48:40:5e:f1:a6:21:e9:a1:f9:c0:
         58:94:5b:08:30:81:4d:26:20:82:e6:90:ef:2a:67:da:c1:b7:
         d2:8c:03:de:11:87:ee:ee:0c:91:17:5a:b2:a9:09:6d:b9:f1:
         53:7e:1c:1a
-----BEGIN CERTIFICATE-----
MIIEkjCCA3qgAwIBAgIGCgsMDQ51MA0GCSqGSIb3DQEBCwUAMH0xFDASBgNVBAMU
C0JIT1BBTENBX0NBMQswCQYDVQQGEwJJTjEPMA0GA1UEChMGQ0lUUklYMQwwCgYD
VQQLEwNBTkcxCzAJBgNVBAgTAktBMSwwKgYJKoZIhvcNAQkBFh1CSE9QQUxDQV9D
QUBCSE9QQUxDQV9tYWlsLmNvbTAeFw0xNzA4MjMxMDAxMjFaFw0yNzA4MjExMDAx
MjFaMGwxCzAJBgNVBAgTAktBMQswCQYDVQQGEwJJTjEZMBcGA1UEAxQQYmhvcGFs
XzE0X2NsaWVudDEkMCIGCSqGSIb3DQEJARYVYmhvcGFsXzE0QHRlc3RfY2EuY29t
MQ8wDQYDVQQKEwZDSVRSSVgwggEiMA0GCSqGSIb3DQEBAQUAA4IBDwAwggEKAoIB
AQDwawphg165QKzSM7lssvPjPll7Ygj6fctRq+F0ouf6iG/svZLlJcdRV348b2+r
RsHLdV6bcF+HvWS4LCCIMOCfPx/dGDHgw/BVLIYs0/F9Ncsl9LI1Rm2Y56NM4FC4
XEU+4mxrYwmkvkzL1vQXlZjiRJd+g+2wTth0e2du7ElCQBNn+uoyoNrtKmLI9rOn
wdaOdQS6mSWmCAiZBSNCbC/UOa3JX2pumPjjVvNh8NRdD3CgPVtgr52R02Ytk6ev
G1POuC+94mC4oaI0YrlLttK4bGXgn6VeKmbzrebx5hIE143MzZlWz2d5bEV8G65W
IDkNWM4qu+fPajc36iRqOb23AgMBAAGjggEnMIIBIzARBglghkgBhvhCAQEEBAMC
B4AwHQYDVR0OBBYEFOzzVB09RigcWIXN7v7LPrMtCXLkMIGwBgNVHSMEgagwgaWA
FKZmDlkPPFwRNbKzmVmp06axXpXSoYGBpH8wfTEUMBIGA1UEAxQLQkhPUEFMQ0Ff
Q0ExCzAJBgNVBAYTAklOMQ8wDQYDVQQKEwZDSVRSSVgxDDAKBgNVBAsTA0FORzEL
MAkGA1UECBMCS0ExLDAqBgkqhkiG9w0BCQEWHUJIT1BBTENBX0NBQEJIT1BBTENB
X21haWwuY29tggkAvolV82UoF5owPAYIKwYBBQUHAQEEMDAuMCwGCCsGAQUFBzAB
hiBodHRwOi8vMTcyLjE3LjIwLjEvcmVzcG9uZGVycGF0aDANBgkqhkiG9w0BAQsF
AAOCAQEAP+QVonDzawxxveVindp8BVlcZ64KIQbVOIvxC2ZEkxGq8/Diz+/pVakE
PkMrRxQKpkDzXjpsxZaSjgQ5kvyY+n3mySFhe7RjtiYbmlD1Q6hHZiEvoBGnw0xr
/N82PsXGUeSis3l5denGn57zeI7O5VHkwN5yj06iDf1v5KpgSpX9xdQKGv2P+wBV
D8NbS8J1T5H9B/XcF5kUF8l+vX7aILffvP5ZtQ7Kf+n9bV5Aj0twBCTpiHkhxK4d
URX0xjLNp2YYcuSlJO6mH4pkzPBIQF7xpiHpofnAWJRbCDCBTSYgguaQ7ypn2sG3
0owD3hGH7u4MkRdasqkJbbnxU34cGg==
-----END CERTIFICATE-----
