Certificate:
    Data:
        Version: 3 (0x2)
        Serial Number: 11042563100297 (0xa0b0c0d0e89)
    Signature Algorithm: sha256WithRSAEncryption
        Issuer: CN=BHOPALCA_CA, C=IN, O=CITRIX, OU=ANG, ST=KA/emailAddress=BHOPALCA_CA@BHOPALCA_mail.com
        Validity
            Not Before: Aug 23 10:01:31 2017 GMT
            Not After : Aug 21 10:01:31 2027 GMT
        Subject: ST=KA, C=IN, CN=bhopal_34_client/emailAddress=bhopal_34@test_ca.com, O=CITRIX
        Subject Public Key Info:
            Public Key Algorithm: rsaEncryption
                Public-Key: (2048 bit)
                Modulus:
                    00:a7:46:3f:c9:26:dd:c3:93:b4:27:71:fe:c3:75:
                    d2:ca:39:d0:1b:99:b8:36:80:0f:e5:40:8a:b3:03:
                    58:84:16:51:af:eb:dd:5e:31:72:14:f5:53:66:ae:
                    f3:ef:fb:a4:3a:f4:bf:4f:20:c8:dd:0d:cf:5e:b8:
                    8b:e4:de:0c:63:cf:5a:51:11:d1:11:64:db:9f:3e:
                    ff:8b:f5:c0:46:68:7d:81:c1:35:5c:69:31:1a:2a:
                    a1:23:f5:ad:2b:52:d4:11:82:de:8d:d0:0d:6d:3a:
                    ef:88:8c:a7:44:04:72:21:b4:83:a8:fc:78:cf:89:
                    bc:54:59:9f:4a:59:d8:58:27:a9:78:4f:4c:9f:6c:
                    5c:ba:89:e1:b4:95:c4:85:ab:71:e9:89:59:07:96:
                    79:1b:df:39:be:4b:64:b4:d3:1f:d0:45:d6:f5:b4:
                    6c:85:73:58:b8:c0:11:e6:52:fc:30:0c:27:28:d5:
                    0d:af:c7:18:09:f0:42:26:df:4a:1d:fe:04:dc:b7:
                    1f:93:4b:3c:83:c9:fb:7e:3b:1b:93:df:00:ff:0b:
                    16:a5:b3:b5:f2:49:96:99:9d:2d:a8:29:f4:e1:43:
                    d8:86:72:9e:62:11:64:da:cf:6b:53:b6:d4:ec:60:
                    db:92:4a:ee:11:ea:c0:30:77:e2:c9:87:5b:14:bf:
                    e7:13
                Exponent: 65537 (0x10001)
        X509v3 extensions:
            Netscape Cert Type: 
                SSL Client
            X509v3 Subject Key Identifier: 
                34:EF:01:B8:A5:17:75:42:68:69:A3:9E:C6:54:C3:D4:ED:38:C6:29
            X509v3 Authority Key Identifier: 
                keyid:A6:66:0E:59:0F:3C:5C:11:35:B2:B3:99:59:A9:D3:A6:B1:5E:95:D2
                DirName:/CN=BHOPALCA_CA/C=IN/O=CITRIX/OU=ANG/ST=KA/emailAddress=BHOPALCA_CA@BHOPALCA_mail.com
                serial:BE:89:55:F3:65:28:17:9A

            Authority Information Access: 
                OCSP - URI:http://172.17.20.1/responderpath

    Signature Algorithm: sha256WithRSAEncryption
         50:9d:76:20:1c:0a:b2:28:c5:05:80:9c:53:57:79:3e:a5:82:
         d6:2b:e1:c7:65:78:d7:90:90:a2:97:aa:0c:62:dd:f0:fe:a2:
         24:45:ef:6c:72:3c:87:0d:44:a9:ff:5e:ed:47:7f:c4:0a:49:
         d7:63:ef:c9:ef:ec:f6:bb:f8:ca:8d:d7:be:56:38:ea:5f:2c:
         68:f8:fa:b6:b3:a5:5a:5d:c2:cb:38:ff:91:22:2b:df:7e:bb:
         82:88:da:af:14:ef:1b:b3:c9:53:5d:f2:91:95:37:3c:ca:07:
         b6:43:ae:8d:d5:32:42:47:1e:1d:a5:a7:4b:b9:92:47:d8:b7:
         a2:2f:13:7a:2b:b0:d6:52:5b:30:ff:16:65:b6:d4:50:ec:0e:
         42:9b:27:0a:c1:aa:42:42:fe:03:3a:27:ca:9a:83:ea:7d:6b:
         cd:85:78:68:b4:bb:a7:83:cb:3b:85:51:9e:f3:98:d4:d3:4d:
         0b:b5:f9:b9:cf:96:6a:1f:1c:de:25:3c:d2:7b:fd:90:e1:95:
         2e:77:a1:6d:f8:26:d6:37:dd:eb:0d:05:58:b7:bd:23:3c:ea:
         79:1f:a4:40:08:b2:2f:2d:73:2f:84:3d:84:72:10:48:c8:72:
         0d:40:ab:4d:0f:9b:ea:89:5e:de:bb:76:7f:ef:11:10:82:9a:
         66:2e:cd:3f
-----BEGIN CERTIFICATE-----
MIIEkjCCA3qgAwIBAgIGCgsMDQ6JMA0GCSqGSIb3DQEBCwUAMH0xFDASBgNVBAMU
C0JIT1BBTENBX0NBMQswCQYDVQQGEwJJTjEPMA0GA1UEChMGQ0lUUklYMQwwCgYD
VQQLEwNBTkcxCzAJBgNVBAgTAktBMSwwKgYJKoZIhvcNAQkBFh1CSE9QQUxDQV9D
QUBCSE9QQUxDQV9tYWlsLmNvbTAeFw0xNzA4MjMxMDAxMzFaFw0yNzA4MjExMDAx
MzFaMGwxCzAJBgNVBAgTAktBMQswCQYDVQQGEwJJTjEZMBcGA1UEAxQQYmhvcGFs
XzM0X2NsaWVudDEkMCIGCSqGSIb3DQEJARYVYmhvcGFsXzM0QHRlc3RfY2EuY29t
MQ8wDQYDVQQKEwZDSVRSSVgwggEiMA0GCSqGSIb3DQEBAQUAA4IBDwAwggEKAoIB
AQCnRj/JJt3Dk7Qncf7DddLKOdAbmbg2gA/lQIqzA1iEFlGv691eMXIU9VNmrvPv
+6Q69L9PIMjdDc9euIvk3gxjz1pREdERZNufPv+L9cBGaH2BwTVcaTEaKqEj9a0r
UtQRgt6N0A1tOu+IjKdEBHIhtIOo/HjPibxUWZ9KWdhYJ6l4T0yfbFy6ieG0lcSF
q3HpiVkHlnkb3zm+S2S00x/QRdb1tGyFc1i4wBHmUvwwDCco1Q2vxxgJ8EIm30od
/gTctx+TSzyDyft+OxuT3wD/Cxals7XySZaZnS2oKfThQ9iGcp5iEWTaz2tTttTs
YNuSSu4R6sAwd+LJh1sUv+cTAgMBAAGjggEnMIIBIzARBglghkgBhvhCAQEEBAMC
B4AwHQYDVR0OBBYEFDTvAbilF3VCaGmjnsZUw9TtOMYpMIGwBgNVHSMEgagwgaWA
FKZmDlkPPFwRNbKzmVmp06axXpXSoYGBpH8wfTEUMBIGA1UEAxQLQkhPUEFMQ0Ff
Q0ExCzAJBgNVBAYTAklOMQ8wDQYDVQQKEwZDSVRSSVgxDDAKBgNVBAsTA0FORzEL
MAkGA1UECBMCS0ExLDAqBgkqhkiG9w0BCQEWHUJIT1BBTENBX0NBQEJIT1BBTENB
X21haWwuY29tggkAvolV82UoF5owPAYIKwYBBQUHAQEEMDAuMCwGCCsGAQUFBzAB
hiBodHRwOi8vMTcyLjE3LjIwLjEvcmVzcG9uZGVycGF0aDANBgkqhkiG9w0BAQsF
AAOCAQEAUJ12IBwKsijFBYCcU1d5PqWC1ivhx2V415CQopeqDGLd8P6iJEXvbHI8
hw1Eqf9e7Ud/xApJ12Pvye/s9rv4yo3XvlY46l8saPj6trOlWl3Cyzj/kSIr3367
gojarxTvG7PJU13ykZU3PMoHtkOujdUyQkceHaWnS7mSR9i3oi8Teiuw1lJbMP8W
ZbbUUOwOQpsnCsGqQkL+AzonypqD6n1rzYV4aLS7p4PLO4VRnvOY1NNNC7X5uc+W
ah8c3iU80nv9kOGVLnehbfgm1jfd6w0FWLe9IzzqeR+kQAiyLy1zL4Q9hHIQSMhy
DUCrTQ+b6ole3rt2f+8REIKaZi7NPw==
-----END CERTIFICATE-----
