Certificate:
    Data:
        Version: 3 (0x2)
        Serial Number: 11042563100253 (0xa0b0c0d0e5d)
    Signature Algorithm: sha256WithRSAEncryption
        Issuer: CN=CALCUTTACA_CA, C=IN, O=CITRIX, OU=ANG, ST=KA/emailAddress=CALCUTTACA_CA@CALCUTTACA_mail.com
        Validity
            Not Before: Aug 23 10:16:09 2017 GMT
            Not After : Aug 21 10:16:09 2027 GMT
        Subject: ST=KA, C=IN, CN=calcutta_39_client/emailAddress=calcutta_39@test_ca.com, O=CITRIX
        Subject Public Key Info:
            Public Key Algorithm: rsaEncryption
                Public-Key: (2048 bit)
                Modulus:
                    00:ba:0d:24:8e:e9:f2:7d:7e:57:f5:b8:10:81:b2:
                    ea:ec:32:1b:a1:e5:b9:98:ff:95:fd:0e:35:b7:c0:
                    27:b0:01:e2:49:da:66:84:af:ec:b5:24:5c:cf:70:
                    d2:f2:c9:c6:83:4e:c5:79:10:44:2e:bf:48:9b:ec:
                    32:55:39:ff:74:c4:66:52:b1:fd:3f:52:10:3f:22:
                    48:41:b0:b9:5f:92:16:46:24:3b:e1:37:db:70:c0:
                    82:5b:a1:2e:b8:48:b6:b4:09:48:8f:73:ff:a3:b9:
                    9c:f2:cb:28:ec:d0:35:76:eb:dd:3b:b8:c2:fa:c7:
                    2e:af:69:f5:21:7c:18:90:0e:fe:50:f5:ee:46:14:
                    43:72:3d:77:f6:6c:0b:d7:63:34:76:88:61:6e:55:
                    44:26:e5:15:07:3d:e4:4c:19:bc:f7:b3:11:a7:1f:
                    0d:0c:08:83:7b:25:54:2c:44:22:c6:ba:6b:d3:6c:
                    19:5e:95:e9:96:83:19:90:d4:12:7a:6e:ab:d6:f0:
                    21:e7:4b:ee:d0:a7:76:38:6d:39:61:98:d0:6b:d0:
                    be:89:b2:8a:1a:dc:c0:57:bc:2e:72:b9:78:fc:f2:
                    ad:d1:a0:d0:46:e6:7a:3c:be:5e:fd:4f:e0:59:48:
                    98:91:15:0b:34:5a:18:96:d9:d2:9c:0f:b0:05:54:
                    71:2f
                Exponent: 65537 (0x10001)
        X509v3 extensions:
            Netscape Cert Type: 
                SSL Client
            X509v3 Subject Key Identifier: 
                00:5C:C2:E0:4D:EE:F5:FD:6D:44:97:5C:E7:CB:AA:15:6C:20:51:D9
            X509v3 Authority Key Identifier: 
                keyid:37:2E:7B:27:46:4B:CF:47:10:AC:2B:2E:BA:D0:F3:66:75:EB:52:75
                DirName:/CN=CALCUTTACA_CA/C=IN/O=CITRIX/OU=ANG/ST=KA/emailAddress=CALCUTTACA_CA@CALCUTTACA_mail.com
                serial:A5:C6:47:0E:E6:06:37:18

            Authority Information Access: 
                OCSP - URI:http://172.18.20.1/responderpath

    Signature Algorithm: sha256WithRSAEncryption
         de:50:2d:28:11:e2:62:ac:50:35:71:45:cc:6f:9d:4e:a6:d7:
         af:32:2c:29:c1:99:9c:4f:5d:e2:be:c8:a4:96:a5:10:4e:3f:
         75:d4:c3:3d:85:c7:42:34:bb:fc:6c:1d:62:ec:63:d4:8e:0f:
         c8:fd:5f:10:1f:37:8b:10:7d:65:12:0f:aa:26:50:10:f7:bd:
         47:6f:45:b3:60:74:4a:d4:a8:98:02:18:4c:8c:b3:98:2b:07:
         32:50:03:9a:84:56:dd:e2:84:8f:d2:8f:e1:d8:ef:4e:7a:2a:
         55:a9:4d:98:ac:10:a0:23:8f:b5:0d:95:db:9e:4e:e4:68:46:
         6e:66:dc:69:df:50:ad:6e:69:1f:93:03:9d:1f:38:0b:9b:82:
         5f:f0:38:40:10:2f:88:5a:85:8d:ed:e7:dc:f7:c3:f1:0b:77:
         ec:c7:97:37:fc:8c:58:be:10:09:a2:98:6a:c1:af:94:86:10:
         0c:f1:b6:0d:b9:a0:d2:08:b5:a4:4d:92:11:07:e7:47:2e:56:
         41:63:e8:1a:fd:f0:b6:8e:86:9d:b3:ab:eb:5b:de:82:94:35:
         58:ff:32:ed:47:b9:4b:6b:1a:40:b2:be:0f:6e:83:6f:16:b5:
         93:cd:75:9f:97:e1:c2:92:32:b6:cc:51:08:7f:a5:b2:b2:5c:
         c7:b5:f4:ae
-----BEGIN CERTIFICATE-----
MIIEpTCCA42gAwIBAgIGCgsMDQ5dMA0GCSqGSIb3DQEBCwUAMIGDMRYwFAYDVQQD
FA1DQUxDVVRUQUNBX0NBMQswCQYDVQQGEwJJTjEPMA0GA1UEChMGQ0lUUklYMQww
CgYDVQQLEwNBTkcxCzAJBgNVBAgTAktBMTAwLgYJKoZIhvcNAQkBFiFDQUxDVVRU
QUNBX0NBQENBTENVVFRBQ0FfbWFpbC5jb20wHhcNMTcwODIzMTAxNjA5WhcNMjcw
ODIxMTAxNjA5WjBwMQswCQYDVQQIEwJLQTELMAkGA1UEBhMCSU4xGzAZBgNVBAMU
EmNhbGN1dHRhXzM5X2NsaWVudDEmMCQGCSqGSIb3DQEJARYXY2FsY3V0dGFfMzlA
dGVzdF9jYS5jb20xDzANBgNVBAoTBkNJVFJJWDCCASIwDQYJKoZIhvcNAQEBBQAD
ggEPADCCAQoCggEBALoNJI7p8n1+V/W4EIGy6uwyG6HluZj/lf0ONbfAJ7AB4kna
ZoSv7LUkXM9w0vLJxoNOxXkQRC6/SJvsMlU5/3TEZlKx/T9SED8iSEGwuV+SFkYk
O+E323DAgluhLrhItrQJSI9z/6O5nPLLKOzQNXbr3Tu4wvrHLq9p9SF8GJAO/lD1
7kYUQ3I9d/ZsC9djNHaIYW5VRCblFQc95EwZvPezEacfDQwIg3slVCxEIsa6a9Ns
GV6V6ZaDGZDUEnpuq9bwIedL7tCndjhtOWGY0GvQvomyihrcwFe8LnK5ePzyrdGg
0Ebmejy+Xv1P4FlImJEVCzRaGJbZ0pwPsAVUcS8CAwEAAaOCAS8wggErMBEGCWCG
SAGG+EIBAQQEAwIHgDAdBgNVHQ4EFgQUAFzC4E3u9f1tRJdc58uqFWwgUdkwgbgG
A1UdIwSBsDCBrYAUNy57J0ZLz0cQrCsuutDzZnXrUnWhgYmkgYYwgYMxFjAUBgNV
BAMUDUNBTENVVFRBQ0FfQ0ExCzAJBgNVBAYTAklOMQ8wDQYDVQQKEwZDSVRSSVgx
DDAKBgNVBAsTA0FORzELMAkGA1UECBMCS0ExMDAuBgkqhkiG9w0BCQEWIUNBTENV
VFRBQ0FfQ0FAQ0FMQ1VUVEFDQV9tYWlsLmNvbYIJAKXGRw7mBjcYMDwGCCsGAQUF
BwEBBDAwLjAsBggrBgEFBQcwAYYgaHR0cDovLzE3Mi4xOC4yMC4xL3Jlc3BvbmRl
cnBhdGgwDQYJKoZIhvcNAQELBQADggEBAN5QLSgR4mKsUDVxRcxvnU6m168yLCnB
mZxPXeK+yKSWpRBOP3XUwz2Fx0I0u/xsHWLsY9SOD8j9XxAfN4sQfWUSD6omUBD3
vUdvRbNgdErUqJgCGEyMs5grBzJQA5qEVt3ihI/Sj+HY7056KlWpTZisEKAjj7UN
ldueTuRoRm5m3GnfUK1uaR+TA50fOAubgl/wOEAQL4hahY3t59z3w/ELd+zHlzf8
jFi+EAmimGrBr5SGEAzxtg25oNIItaRNkhEH50cuVkFj6Br98LaOhp2zq+tb3oKU
NVj/Mu1HuUtrGkCyvg9ug28WtZPNdZ+X4cKSMrbMUQh/pbKyXMe19K4=
-----END CERTIFICATE-----
