Certificate:
    Data:
        Version: 3 (0x2)
        Serial Number: 11042563100238 (0xa0b0c0d0e4e)
    Signature Algorithm: sha256WithRSAEncryption
        Issuer: CN=CALCUTTACA_CA, C=IN, O=CITRIX, OU=ANG, ST=KA/emailAddress=CALCUTTACA_CA@CALCUTTACA_mail.com
        Validity
            Not Before: Aug 23 10:15:58 2017 GMT
            Not After : Aug 21 10:15:58 2027 GMT
        Subject: ST=KA, C=IN, CN=calcutta_24_client/emailAddress=calcutta_24@test_ca.com, O=CITRIX
        Subject Public Key Info:
            Public Key Algorithm: rsaEncryption
                Public-Key: (2048 bit)
                Modulus:
                    00:a0:b9:ff:a6:ff:c9:5d:b1:46:44:f9:2a:d7:03:
                    57:e9:7b:f7:33:f6:bb:db:9d:a9:98:1a:77:86:73:
                    44:12:3b:e3:2a:82:46:5b:6b:8f:2b:e5:ec:c6:d3:
                    52:19:23:a4:d0:c4:d6:b0:93:e5:cf:97:3c:d0:27:
                    9a:15:20:65:f8:01:cb:7b:5c:8b:25:0a:83:cd:08:
                    a1:4a:00:03:37:aa:38:68:94:f5:8c:a1:98:cf:79:
                    14:66:72:5f:ba:02:4d:61:5d:80:3a:69:60:2e:c6:
                    02:b7:33:90:33:61:bd:28:0c:56:3c:85:41:2c:c1:
                    96:c1:7b:e1:95:09:a0:37:ba:fd:ee:d8:db:0f:dd:
                    b6:71:de:78:a1:0f:f7:19:d0:a1:c4:9f:6d:70:ef:
                    94:6d:b2:31:19:5d:28:d4:04:f6:13:3c:c4:24:70:
                    fc:29:68:8b:d0:3c:67:d1:06:17:50:9f:92:3c:62:
                    f7:c6:6b:d4:b2:97:00:82:27:ac:06:46:e7:8a:d3:
                    d7:02:df:e1:d1:4a:e4:04:bb:ce:90:01:bc:33:7c:
                    c4:3b:a7:c9:53:02:7e:23:ed:fc:74:9e:f3:66:b7:
                    19:de:aa:3b:da:65:7e:94:fa:15:b6:2f:6b:2c:bb:
                    84:ec:9f:82:dd:6d:db:e4:f7:18:0e:5e:48:eb:75:
                    df:ef
                Exponent: 65537 (0x10001)
        X509v3 extensions:
            Netscape Cert Type: 
                SSL Client
            X509v3 Subject Key Identifier: 
                E5:7D:EE:FC:65:56:0A:29:01:46:05:15:2F:70:2F:23:E6:83:4E:93
            X509v3 Authority Key Identifier: 
                keyid:37:2E:7B:27:46:4B:CF:47:10:AC:2B:2E:BA:D0:F3:66:75:EB:52:75
                DirName:/CN=CALCUTTACA_CA/C=IN/O=CITRIX/OU=ANG/ST=KA/emailAddress=CALCUTTACA_CA@CALCUTTACA_mail.com
                serial:A5:C6:47:0E:E6:06:37:18

            Authority Information Access: 
                OCSP - URI:http://172.18.20.1/responderpath

    Signature Algorithm: sha256WithRSAEncryption
         5c:d8:28:23:e8:f0:0f:d8:48:da:1e:80:95:57:09:e8:af:d6:
         a2:fd:63:9f:06:f1:74:50:35:4e:af:28:f9:bc:92:b3:ae:55:
         32:83:66:c7:bc:d5:8b:d7:97:81:65:44:fb:05:e5:ee:91:6c:
         9c:ac:4d:a3:2c:6d:27:45:5b:3f:97:c4:f8:3d:8d:cf:83:85:
         a9:8e:d4:4f:4b:6f:02:fd:cf:5e:89:d1:7b:27:18:17:61:7d:
         22:53:12:31:6d:e1:50:ef:92:78:1d:b3:cb:e4:d2:7b:93:63:
         e9:ec:88:84:2f:09:3c:e5:82:d6:ab:fd:41:eb:71:38:55:e3:
         ef:4c:16:30:1e:72:2f:0b:bb:19:06:85:30:41:86:cc:30:60:
         d9:86:7b:9a:e5:a3:0a:f5:26:c4:7e:8b:97:8d:6d:74:1c:01:
         bd:ab:e4:f0:72:47:fc:9c:61:65:f2:84:76:d1:4a:9a:c7:a2:
         6c:23:29:83:50:85:15:23:f4:b5:98:84:81:13:c7:d5:0b:6e:
         a7:f4:d2:f6:62:02:ef:0a:ed:da:58:cd:31:5f:6a:1a:d8:46:
         2b:96:13:51:54:71:45:f5:15:22:16:56:b6:53:13:7e:b6:33:
         83:0d:a3:25:0b:47:60:cb:75:01:9e:81:a4:fb:c8:7c:3d:7c:
         06:94:48:f4
-----BEGIN CERTIFICATE-----
MIIEpTCCA42gAwIBAgIGCgsMDQ5OMA0GCSqGSIb3DQEBCwUAMIGDMRYwFAYDVQQD
FA1DQUxDVVRUQUNBX0NBMQswCQYDVQQGEwJJTjEPMA0GA1UEChMGQ0lUUklYMQww
CgYDVQQLEwNBTkcxCzAJBgNVBAgTAktBMTAwLgYJKoZIhvcNAQkBFiFDQUxDVVRU
QUNBX0NBQENBTENVVFRBQ0FfbWFpbC5jb20wHhcNMTcwODIzMTAxNTU4WhcNMjcw
ODIxMTAxNTU4WjBwMQswCQYDVQQIEwJLQTELMAkGA1UEBhMCSU4xGzAZBgNVBAMU
EmNhbGN1dHRhXzI0X2NsaWVudDEmMCQGCSqGSIb3DQEJARYXY2FsY3V0dGFfMjRA
dGVzdF9jYS5jb20xDzANBgNVBAoTBkNJVFJJWDCCASIwDQYJKoZIhvcNAQEBBQAD
ggEPADCCAQoCggEBAKC5/6b/yV2xRkT5KtcDV+l79zP2u9udqZgad4ZzRBI74yqC
Rltrjyvl7MbTUhkjpNDE1rCT5c+XPNAnmhUgZfgBy3tciyUKg80IoUoAAzeqOGiU
9YyhmM95FGZyX7oCTWFdgDppYC7GArczkDNhvSgMVjyFQSzBlsF74ZUJoDe6/e7Y
2w/dtnHeeKEP9xnQocSfbXDvlG2yMRldKNQE9hM8xCRw/Cloi9A8Z9EGF1Cfkjxi
98Zr1LKXAIInrAZG54rT1wLf4dFK5AS7zpABvDN8xDunyVMCfiPt/HSe82a3Gd6q
O9plfpT6FbYvayy7hOyfgt1t2+T3GA5eSOt13+8CAwEAAaOCAS8wggErMBEGCWCG
SAGG+EIBAQQEAwIHgDAdBgNVHQ4EFgQU5X3u/GVWCikBRgUVL3AvI+aDTpMwgbgG
A1UdIwSBsDCBrYAUNy57J0ZLz0cQrCsuutDzZnXrUnWhgYmkgYYwgYMxFjAUBgNV
BAMUDUNBTENVVFRBQ0FfQ0ExCzAJBgNVBAYTAklOMQ8wDQYDVQQKEwZDSVRSSVgx
DDAKBgNVBAsTA0FORzELMAkGA1UECBMCS0ExMDAuBgkqhkiG9w0BCQEWIUNBTENV
VFRBQ0FfQ0FAQ0FMQ1VUVEFDQV9tYWlsLmNvbYIJAKXGRw7mBjcYMDwGCCsGAQUF
BwEBBDAwLjAsBggrBgEFBQcwAYYgaHR0cDovLzE3Mi4xOC4yMC4xL3Jlc3BvbmRl
cnBhdGgwDQYJKoZIhvcNAQELBQADggEBAFzYKCPo8A/YSNoegJVXCeiv1qL9Y58G
8XRQNU6vKPm8krOuVTKDZse81YvXl4FlRPsF5e6RbJysTaMsbSdFWz+XxPg9jc+D
hamO1E9LbwL9z16J0XsnGBdhfSJTEjFt4VDvkngds8vk0nuTY+nsiIQvCTzlgtar
/UHrcThV4+9MFjAeci8LuxkGhTBBhswwYNmGe5rlowr1JsR+i5eNbXQcAb2r5PBy
R/ycYWXyhHbRSprHomwjKYNQhRUj9LWYhIETx9ULbqf00vZiAu8K7dpYzTFfahrY
RiuWE1FUcUX1FSIWVrZTE362M4MNoyULR2DLdQGegaT7yHw9fAaUSPQ=
-----END CERTIFICATE-----
