Certificate:
    Data:
        Version: 3 (0x2)
        Serial Number: 11042563100182 (0xa0b0c0d0e16)
    Signature Algorithm: sha256WithRSAEncryption
        Issuer: CN=CALCUTTACA_CA, C=IN, O=CITRIX, OU=ANG, ST=KA/emailAddress=CALCUTTACA_CA@CALCUTTACA_mail.com
        Validity
            Not Before: Jul  8 04:33:05 2016 GMT
            Not After : Jul  6 04:33:05 2026 GMT
        Subject: ST=KA, C=IN, CN=108_CALCUTTACA_server/emailAddress=108_CALCUTTACA@test_ca.com, O=CITRIX
        Subject Public Key Info:
            Public Key Algorithm: rsaEncryption
                Public-Key: (2048 bit)
                Modulus:
                    00:da:79:9e:84:d5:a1:e0:08:ef:3a:f1:7f:1f:20:
                    a7:7f:29:61:e2:84:87:f5:1d:d7:a6:5f:ae:5f:57:
                    52:20:a3:8f:a4:54:3f:b7:e9:65:6d:43:67:9b:da:
                    52:67:8d:d3:a1:83:ec:26:fb:d8:ab:05:7d:e1:a9:
                    6e:42:f6:f9:af:f6:93:bf:4a:73:7e:70:e9:ca:2a:
                    93:a7:3b:ae:8c:87:39:c0:0a:9d:72:eb:68:18:d2:
                    9c:bc:8a:eb:53:65:02:0c:c3:8b:fc:10:09:47:fd:
                    43:e8:0f:6f:aa:7c:b8:9e:56:e6:87:3a:7e:7c:bd:
                    9f:22:72:d7:cf:3c:79:31:3e:78:39:68:b7:46:04:
                    00:d8:a5:3f:5d:70:d4:a8:cb:be:d7:1a:7d:eb:76:
                    65:ba:f6:51:00:c9:eb:79:c4:bc:b1:0b:8a:21:38:
                    6b:28:dc:bb:96:0a:16:31:6b:61:94:66:8e:91:4f:
                    86:b9:73:73:c9:03:bf:e9:51:f5:5c:7a:17:15:0a:
                    c3:3b:23:6a:e1:8d:78:c6:5a:8c:1b:bf:0c:73:b8:
                    ec:a9:09:a8:26:6d:2c:5d:83:0e:4d:d9:00:b3:ad:
                    13:d5:07:64:06:b6:40:78:1e:60:7e:3d:29:1a:37:
                    e6:2e:ca:a8:84:19:4d:d4:f1:54:5d:94:76:26:31:
                    10:c3
                Exponent: 65537 (0x10001)
        X509v3 extensions:
            Netscape Cert Type: 
                SSL Server
            X509v3 Subject Key Identifier: 
                B8:9F:27:46:B8:00:B6:91:61:06:9E:C9:87:59:AE:35:71:30:3E:4D
            X509v3 Authority Key Identifier: 
                keyid:37:2E:7B:27:46:4B:CF:47:10:AC:2B:2E:BA:D0:F3:66:75:EB:52:75
                DirName:/CN=CALCUTTACA_CA/C=IN/O=CITRIX/OU=ANG/ST=KA/emailAddress=CALCUTTACA_CA@CALCUTTACA_mail.com
                serial:A5:C6:47:0E:E6:06:37:18

            Authority Information Access: 
                OCSP - URI:http://CALCUTTACA_one.ocsptest.com/responderpath

    Signature Algorithm: sha256WithRSAEncryption
         67:6b:49:2d:d6:18:54:e7:55:96:d0:18:98:7b:c8:79:78:5a:
         e2:d1:46:43:a9:0b:ab:28:b5:4b:da:aa:2b:3f:93:a3:a8:03:
         ac:43:8d:ff:ed:2d:2b:4c:c0:3b:d0:d5:cc:6b:a6:cb:1b:83:
         8e:cc:e4:46:1d:91:c4:8d:ef:48:b1:93:dd:ec:68:4d:f6:f9:
         6c:80:a5:7f:b0:f9:84:0e:45:36:28:32:82:18:99:30:82:c8:
         2a:0a:41:0d:27:2e:3e:ba:4a:22:65:d5:d8:62:2e:bf:21:11:
         84:70:be:c3:02:17:b2:c5:20:de:c9:dd:37:bf:8c:7f:5d:bb:
         52:e3:3c:3f:48:fc:92:73:37:cf:70:d2:f8:cd:b4:ef:9a:b3:
         ee:d2:1d:d8:ab:c3:4a:9d:3e:a9:15:48:30:8a:6c:09:40:9d:
         c4:97:0a:7c:65:67:f1:ec:a9:89:6d:95:8a:a2:e5:8f:8e:99:
         71:2e:74:e5:2a:b0:2e:ba:6e:a0:24:78:d1:58:1f:8b:8e:85:
         2e:91:0c:ca:3f:93:cf:93:f7:fc:f8:7b:7c:f7:aa:f7:fa:e6:
         f8:50:90:b6:fd:e6:37:2b:6e:75:b3:40:28:e1:4d:a5:22:4f:
         bb:27:9f:92:cd:bb:81:15:fe:66:e2:45:e1:7e:0e:60:43:69:
         40:37:58:e9
-----BEGIN CERTIFICATE-----
MIIEuzCCA6OgAwIBAgIGCgsMDQ4WMA0GCSqGSIb3DQEBCwUAMIGDMRYwFAYDVQQD
FA1DQUxDVVRUQUNBX0NBMQswCQYDVQQGEwJJTjEPMA0GA1UEChMGQ0lUUklYMQww
CgYDVQQLEwNBTkcxCzAJBgNVBAgTAktBMTAwLgYJKoZIhvcNAQkBFiFDQUxDVVRU
QUNBX0NBQENBTENVVFRBQ0FfbWFpbC5jb20wHhcNMTYwNzA4MDQzMzA1WhcNMjYw
NzA2MDQzMzA1WjB2MQswCQYDVQQIEwJLQTELMAkGA1UEBhMCSU4xHjAcBgNVBAMU
FTEwOF9DQUxDVVRUQUNBX3NlcnZlcjEpMCcGCSqGSIb3DQEJARYaMTA4X0NBTENV
VFRBQ0FAdGVzdF9jYS5jb20xDzANBgNVBAoTBkNJVFJJWDCCASIwDQYJKoZIhvcN
AQEBBQADggEPADCCAQoCggEBANp5noTVoeAI7zrxfx8gp38pYeKEh/Ud16Zfrl9X
UiCjj6RUP7fpZW1DZ5vaUmeN06GD7Cb72KsFfeGpbkL2+a/2k79Kc35w6coqk6c7
royHOcAKnXLraBjSnLyK61NlAgzDi/wQCUf9Q+gPb6p8uJ5W5oc6fny9nyJy1888
eTE+eDlot0YEANilP11w1KjLvtcafet2Zbr2UQDJ63nEvLELiiE4ayjcu5YKFjFr
YZRmjpFPhrlzc8kDv+lR9Vx6FxUKwzsjauGNeMZajBu/DHO47KkJqCZtLF2DDk3Z
ALOtE9UHZAa2QHgeYH49KRo35i7KqIQZTdTxVF2UdiYxEMMCAwEAAaOCAT8wggE7
MBEGCWCGSAGG+EIBAQQEAwIGQDAdBgNVHQ4EFgQUuJ8nRrgAtpFhBp7Jh1muNXEw
Pk0wgbgGA1UdIwSBsDCBrYAUNy57J0ZLz0cQrCsuutDzZnXrUnWhgYmkgYYwgYMx
FjAUBgNVBAMUDUNBTENVVFRBQ0FfQ0ExCzAJBgNVBAYTAklOMQ8wDQYDVQQKEwZD
SVRSSVgxDDAKBgNVBAsTA0FORzELMAkGA1UECBMCS0ExMDAuBgkqhkiG9w0BCQEW
IUNBTENVVFRBQ0FfQ0FAQ0FMQ1VUVEFDQV9tYWlsLmNvbYIJAKXGRw7mBjcYMEwG
CCsGAQUFBwEBBEAwPjA8BggrBgEFBQcwAYYwaHR0cDovL0NBTENVVFRBQ0Ffb25l
Lm9jc3B0ZXN0LmNvbS9yZXNwb25kZXJwYXRoMA0GCSqGSIb3DQEBCwUAA4IBAQBn
a0kt1hhU51WW0BiYe8h5eFri0UZDqQurKLVL2qorP5OjqAOsQ43/7S0rTMA70NXM
a6bLG4OOzORGHZHEje9IsZPd7GhN9vlsgKV/sPmEDkU2KDKCGJkwgsgqCkENJy4+
ukoiZdXYYi6/IRGEcL7DAheyxSDeyd03v4x/XbtS4zw/SPySczfPcNL4zbTvmrPu
0h3Yq8NKnT6pFUgwimwJQJ3Elwp8ZWfx7KmJbZWKouWPjplxLnTlKrAuum6gJHjR
WB+LjoUukQzKP5PPk/f8+Ht896r3+ub4UJC2/eY3K251s0Ao4U2lIk+7J5+SzbuB
Ff5m4kXhfg5gQ2lAN1jp
-----END CERTIFICATE-----
