Certificate:
    Data:
        Version: 3 (0x2)
        Serial Number: 11042563100176 (0xa0b0c0d0e10)
    Signature Algorithm: sha256WithRSAEncryption
        Issuer: CN=CALCUTTACA_CA, C=IN, O=CITRIX, OU=ANG, ST=KA/emailAddress=CALCUTTACA_CA@CALCUTTACA_mail.com
        Validity
            Not Before: Jul  8 04:33:03 2016 GMT
            Not After : Jul  6 04:33:03 2026 GMT
        Subject: ST=KA, C=IN, CN=102_CALCUTTACA_server/emailAddress=102_CALCUTTACA@test_ca.com, O=CITRIX
        Subject Public Key Info:
            Public Key Algorithm: rsaEncryption
                Public-Key: (2048 bit)
                Modulus:
                    00:b7:79:bd:2b:46:1d:2a:bb:c9:75:17:52:2a:ce:
                    52:bb:c0:b5:1f:5b:7d:57:4f:c7:af:75:c4:d2:df:
                    21:30:ec:a3:31:84:52:43:74:b7:c3:52:40:c1:88:
                    ef:d3:d6:fb:c2:e6:20:aa:17:62:bd:7f:82:8c:ba:
                    41:3d:38:b4:6e:59:2f:e8:9d:bc:2e:75:0d:74:c1:
                    86:8a:fa:92:61:8b:0d:8a:4a:2e:61:80:b7:34:a8:
                    df:44:d4:6a:6d:59:ff:d6:50:39:d1:2d:a3:02:f8:
                    f1:3b:be:b0:27:df:c9:4f:7a:50:73:9d:fa:53:fb:
                    9c:12:7c:32:40:48:8d:aa:6e:95:83:d3:58:97:01:
                    b1:d5:cb:66:25:75:47:d7:89:b4:69:32:e6:a6:1f:
                    86:17:8c:32:1a:9e:98:c6:83:a0:ee:79:6e:93:c1:
                    93:f7:f7:68:ab:96:36:65:ed:87:69:ae:3b:87:6a:
                    94:ee:28:a2:c3:9b:6e:c3:97:c2:d3:45:13:cd:19:
                    5d:bc:ce:a3:44:ba:97:b5:a0:41:76:3d:ea:11:63:
                    df:a0:e4:5a:1a:2a:52:99:b1:c7:19:19:99:1f:b0:
                    58:8c:89:f3:54:d9:64:f5:3c:24:6f:9f:86:1e:61:
                    65:cc:9a:c3:d8:69:ac:49:83:ea:76:6b:09:7c:6c:
                    a7:37
                Exponent: 65537 (0x10001)
        X509v3 extensions:
            Netscape Cert Type: 
                SSL Server
            X509v3 Subject Key Identifier: 
                3C:15:6C:0F:53:80:FD:35:BB:76:3B:03:E7:9D:09:C3:17:01:B4:27
            X509v3 Authority Key Identifier: 
                keyid:37:2E:7B:27:46:4B:CF:47:10:AC:2B:2E:BA:D0:F3:66:75:EB:52:75
                DirName:/CN=CALCUTTACA_CA/C=IN/O=CITRIX/OU=ANG/ST=KA/emailAddress=CALCUTTACA_CA@CALCUTTACA_mail.com
                serial:A5:C6:47:0E:E6:06:37:18

            Authority Information Access: 
                OCSP - URI:http://CALCUTTACA_one.ocsptest.com/responderpath

    Signature Algorithm: sha256WithRSAEncryption
         b3:c7:93:b5:81:19:78:e6:a8:ba:f6:3d:f7:0c:7f:c5:89:31:
         5a:f2:fe:f7:79:b9:93:d9:07:28:3f:99:84:b4:8b:5c:0e:ab:
         5a:9a:fc:9d:e1:fa:dc:e1:b1:00:4a:c2:72:6e:e8:92:e7:9e:
         8b:8c:ef:96:1c:b4:04:60:3a:54:f2:39:6c:89:e8:86:78:31:
         cf:f1:c6:b1:75:e9:a0:71:ca:a8:8f:1e:82:9a:d5:6e:33:ac:
         0a:6f:f2:08:1e:83:55:c5:c3:ec:84:26:38:24:3e:e4:ef:a2:
         65:1e:5f:98:31:cb:b1:63:ff:e1:d1:13:03:8e:a9:e9:a0:af:
         42:be:d8:29:c5:33:5f:9c:b2:35:d1:74:72:d7:1b:58:ff:58:
         8f:c9:c2:7b:82:46:e9:91:61:9a:b0:24:fa:1a:39:fd:26:a3:
         48:dc:bd:0b:24:10:89:2f:3a:d5:e4:c2:64:7f:88:0d:3e:5d:
         95:34:76:50:e0:88:8c:19:3c:04:df:e9:f3:09:0a:9a:39:69:
         fb:dc:b2:a5:56:48:c9:6b:0c:fb:1b:17:22:07:e7:e9:c5:8d:
         f8:2c:33:40:f8:28:6c:42:eb:cf:37:22:82:6c:a7:bc:3e:ee:
         71:9c:1d:33:ce:d8:95:75:69:fb:29:47:38:7e:cc:3f:e6:b9:
         8a:13:00:42
-----BEGIN CERTIFICATE-----
MIIEuzCCA6OgAwIBAgIGCgsMDQ4QMA0GCSqGSIb3DQEBCwUAMIGDMRYwFAYDVQQD
FA1DQUxDVVRUQUNBX0NBMQswCQYDVQQGEwJJTjEPMA0GA1UEChMGQ0lUUklYMQww
CgYDVQQLEwNBTkcxCzAJBgNVBAgTAktBMTAwLgYJKoZIhvcNAQkBFiFDQUxDVVRU
QUNBX0NBQENBTENVVFRBQ0FfbWFpbC5jb20wHhcNMTYwNzA4MDQzMzAzWhcNMjYw
NzA2MDQzMzAzWjB2MQswCQYDVQQIEwJLQTELMAkGA1UEBhMCSU4xHjAcBgNVBAMU
FTEwMl9DQUxDVVRUQUNBX3NlcnZlcjEpMCcGCSqGSIb3DQEJARYaMTAyX0NBTENV
VFRBQ0FAdGVzdF9jYS5jb20xDzANBgNVBAoTBkNJVFJJWDCCASIwDQYJKoZIhvcN
AQEBBQADggEPADCCAQoCggEBALd5vStGHSq7yXUXUirOUrvAtR9bfVdPx691xNLf
ITDsozGEUkN0t8NSQMGI79PW+8LmIKoXYr1/goy6QT04tG5ZL+idvC51DXTBhor6
kmGLDYpKLmGAtzSo30TUam1Z/9ZQOdEtowL48Tu+sCffyU96UHOd+lP7nBJ8MkBI
japulYPTWJcBsdXLZiV1R9eJtGky5qYfhheMMhqemMaDoO55bpPBk/f3aKuWNmXt
h2muO4dqlO4oosObbsOXwtNFE80ZXbzOo0S6l7WgQXY96hFj36DkWhoqUpmxxxkZ
mR+wWIyJ81TZZPU8JG+fhh5hZcyaw9hprEmD6nZrCXxspzcCAwEAAaOCAT8wggE7
MBEGCWCGSAGG+EIBAQQEAwIGQDAdBgNVHQ4EFgQUPBVsD1OA/TW7djsD550JwxcB
tCcwgbgGA1UdIwSBsDCBrYAUNy57J0ZLz0cQrCsuutDzZnXrUnWhgYmkgYYwgYMx
FjAUBgNVBAMUDUNBTENVVFRBQ0FfQ0ExCzAJBgNVBAYTAklOMQ8wDQYDVQQKEwZD
SVRSSVgxDDAKBgNVBAsTA0FORzELMAkGA1UECBMCS0ExMDAuBgkqhkiG9w0BCQEW
IUNBTENVVFRBQ0FfQ0FAQ0FMQ1VUVEFDQV9tYWlsLmNvbYIJAKXGRw7mBjcYMEwG
CCsGAQUFBwEBBEAwPjA8BggrBgEFBQcwAYYwaHR0cDovL0NBTENVVFRBQ0Ffb25l
Lm9jc3B0ZXN0LmNvbS9yZXNwb25kZXJwYXRoMA0GCSqGSIb3DQEBCwUAA4IBAQCz
x5O1gRl45qi69j33DH/FiTFa8v73ebmT2QcoP5mEtItcDqtamvyd4frc4bEASsJy
buiS556LjO+WHLQEYDpU8jlsieiGeDHP8caxdemgccqojx6CmtVuM6wKb/IIHoNV
xcPshCY4JD7k76JlHl+YMcuxY//h0RMDjqnpoK9CvtgpxTNfnLI10XRy1xtY/1iP
ycJ7gkbpkWGasCT6Gjn9JqNI3L0LJBCJLzrV5MJkf4gNPl2VNHZQ4IiMGTwE3+nz
CQqaOWn73LKlVkjJawz7GxciB+fpxY34LDNA+ChsQuvPNyKCbKe8Pu5xnB0zztiV
dWn7KUc4fsw/5rmKEwBC
-----END CERTIFICATE-----
