Certificate:
    Data:
        Version: 3 (0x2)
        Serial Number: 11042563100237 (0xa0b0c0d0e4d)
    Signature Algorithm: sha256WithRSAEncryption
        Issuer: CN=CALCUTTACA_CA, C=IN, O=CITRIX, OU=ANG, ST=KA/emailAddress=CALCUTTACA_CA@CALCUTTACA_mail.com
        Validity
            Not Before: Aug 23 10:15:57 2017 GMT
            Not After : Aug 21 10:15:57 2027 GMT
        Subject: ST=KA, C=IN, CN=calcutta_23_client/emailAddress=calcutta_23@test_ca.com, O=CITRIX
        Subject Public Key Info:
            Public Key Algorithm: rsaEncryption
                Public-Key: (2048 bit)
                Modulus:
                    00:a3:9b:31:7a:7b:33:61:ad:2d:d3:1f:27:19:1e:
                    33:67:f6:02:b6:15:de:bf:8f:c9:33:7e:7c:55:1b:
                    71:5d:f6:dc:15:f0:3e:0e:f8:56:40:84:8c:a5:1f:
                    d6:12:0f:d0:12:0c:c3:a0:c5:22:37:ef:f9:f9:12:
                    28:00:7c:4a:fe:b5:7b:ac:55:4c:09:ef:f7:d4:cd:
                    ab:e3:23:e4:1c:5b:00:c3:4f:f5:50:eb:38:36:40:
                    34:b7:27:15:38:24:8c:13:26:79:07:35:cb:d8:cb:
                    84:29:fb:fa:d1:37:d8:86:43:e2:15:c0:2f:45:e4:
                    33:bc:2d:7a:98:e9:d1:e8:7c:a0:79:78:e6:bd:70:
                    17:4f:61:2f:44:b9:45:da:1e:e8:ab:5b:29:aa:a3:
                    62:1c:84:d4:01:94:7b:8f:fc:11:c8:ae:b1:1f:55:
                    51:85:19:c8:d3:fc:6b:f9:5e:e3:2f:45:4e:b9:f6:
                    4b:fb:d8:6a:24:3c:14:b3:72:ab:70:6c:38:46:f9:
                    a6:ff:82:5d:22:89:a1:83:55:8d:ca:02:81:a9:ef:
                    dd:24:b3:e3:87:ae:3d:70:33:c3:07:8e:47:fb:c2:
                    99:59:6c:7e:f5:43:c3:f0:26:00:a2:29:87:fe:a7:
                    b0:67:37:96:50:77:b2:8a:f3:e9:85:09:b3:be:3f:
                    f1:11
                Exponent: 65537 (0x10001)
        X509v3 extensions:
            Netscape Cert Type: 
                SSL Client
            X509v3 Subject Key Identifier: 
                75:D5:D1:7F:2C:43:11:A9:84:A8:FD:16:A2:06:7E:60:44:FD:A2:01
            X509v3 Authority Key Identifier: 
                keyid:37:2E:7B:27:46:4B:CF:47:10:AC:2B:2E:BA:D0:F3:66:75:EB:52:75
                DirName:/CN=CALCUTTACA_CA/C=IN/O=CITRIX/OU=ANG/ST=KA/emailAddress=CALCUTTACA_CA@CALCUTTACA_mail.com
                serial:A5:C6:47:0E:E6:06:37:18

            Authority Information Access: 
                OCSP - URI:http://172.18.20.1/responderpath

    Signature Algorithm: sha256WithRSAEncryption
         be:2e:f1:a3:87:88:3f:d8:c5:ff:f6:7e:e4:78:24:dc:d7:99:
         9b:d4:3c:fc:32:b0:89:36:5c:09:ab:66:64:d4:3d:6c:ce:cd:
         74:b0:00:6b:7b:9f:49:da:a4:e9:23:b7:b4:39:19:41:01:db:
         ab:83:4a:e0:6c:bf:b9:e7:a3:a7:2a:21:17:01:c6:de:82:e6:
         e6:d8:ad:27:1a:ea:38:88:d1:2f:5a:b0:65:61:21:05:b7:35:
         95:e6:5d:51:ea:c0:eb:ec:47:6a:06:db:05:f6:51:ed:8b:3f:
         ca:07:96:81:1d:0a:22:5b:6e:a1:99:a9:b1:2a:1a:bb:99:d5:
         a2:bb:0d:8a:e0:d6:eb:ab:0b:54:9f:80:08:85:d7:14:99:3a:
         17:23:80:24:2d:31:8d:9c:9e:ea:93:37:6c:99:a2:5d:10:15:
         bb:04:0f:0b:d8:c8:02:0b:2b:44:ef:28:81:b3:0d:9f:e3:b2:
         e9:51:34:92:e3:b6:28:a4:b6:38:71:57:01:35:24:06:9b:c0:
         ad:01:2a:84:89:ba:32:39:97:5b:34:f0:4a:5b:9d:b3:e7:e7:
         9a:3d:68:23:f9:fd:65:53:f4:5b:a3:53:e7:56:93:ec:02:8d:
         0d:e2:8c:4d:c8:68:78:91:32:ee:9c:77:63:b6:57:b9:2e:0d:
         d6:e8:08:1a
-----BEGIN CERTIFICATE-----
MIIEpTCCA42gAwIBAgIGCgsMDQ5NMA0GCSqGSIb3DQEBCwUAMIGDMRYwFAYDVQQD
FA1DQUxDVVRUQUNBX0NBMQswCQYDVQQGEwJJTjEPMA0GA1UEChMGQ0lUUklYMQww
CgYDVQQLEwNBTkcxCzAJBgNVBAgTAktBMTAwLgYJKoZIhvcNAQkBFiFDQUxDVVRU
QUNBX0NBQENBTENVVFRBQ0FfbWFpbC5jb20wHhcNMTcwODIzMTAxNTU3WhcNMjcw
ODIxMTAxNTU3WjBwMQswCQYDVQQIEwJLQTELMAkGA1UEBhMCSU4xGzAZBgNVBAMU
EmNhbGN1dHRhXzIzX2NsaWVudDEmMCQGCSqGSIb3DQEJARYXY2FsY3V0dGFfMjNA
dGVzdF9jYS5jb20xDzANBgNVBAoTBkNJVFJJWDCCASIwDQYJKoZIhvcNAQEBBQAD
ggEPADCCAQoCggEBAKObMXp7M2GtLdMfJxkeM2f2ArYV3r+PyTN+fFUbcV323BXw
Pg74VkCEjKUf1hIP0BIMw6DFIjfv+fkSKAB8Sv61e6xVTAnv99TNq+Mj5BxbAMNP
9VDrODZANLcnFTgkjBMmeQc1y9jLhCn7+tE32IZD4hXAL0XkM7wtepjp0eh8oHl4
5r1wF09hL0S5Rdoe6KtbKaqjYhyE1AGUe4/8EciusR9VUYUZyNP8a/le4y9FTrn2
S/vYaiQ8FLNyq3BsOEb5pv+CXSKJoYNVjcoCganv3SSz44euPXAzwweOR/vCmVls
fvVDw/AmAKIph/6nsGc3llB3sorz6YUJs74/8RECAwEAAaOCAS8wggErMBEGCWCG
SAGG+EIBAQQEAwIHgDAdBgNVHQ4EFgQUddXRfyxDEamEqP0WogZ+YET9ogEwgbgG
A1UdIwSBsDCBrYAUNy57J0ZLz0cQrCsuutDzZnXrUnWhgYmkgYYwgYMxFjAUBgNV
BAMUDUNBTENVVFRBQ0FfQ0ExCzAJBgNVBAYTAklOMQ8wDQYDVQQKEwZDSVRSSVgx
DDAKBgNVBAsTA0FORzELMAkGA1UECBMCS0ExMDAuBgkqhkiG9w0BCQEWIUNBTENV
VFRBQ0FfQ0FAQ0FMQ1VUVEFDQV9tYWlsLmNvbYIJAKXGRw7mBjcYMDwGCCsGAQUF
BwEBBDAwLjAsBggrBgEFBQcwAYYgaHR0cDovLzE3Mi4xOC4yMC4xL3Jlc3BvbmRl
cnBhdGgwDQYJKoZIhvcNAQELBQADggEBAL4u8aOHiD/Yxf/2fuR4JNzXmZvUPPwy
sIk2XAmrZmTUPWzOzXSwAGt7n0napOkjt7Q5GUEB26uDSuBsv7nno6cqIRcBxt6C
5ubYrSca6jiI0S9asGVhIQW3NZXmXVHqwOvsR2oG2wX2Ue2LP8oHloEdCiJbbqGZ
qbEqGruZ1aK7DYrg1uurC1SfgAiF1xSZOhcjgCQtMY2cnuqTN2yZol0QFbsEDwvY
yAILK0TvKIGzDZ/jsulRNJLjtiiktjhxVwE1JAabwK0BKoSJujI5l1s08EpbnbPn
55o9aCP5/WVT9FujU+dWk+wCjQ3ijE3IaHiRMu6cd2O2V7kuDdboCBo=
-----END CERTIFICATE-----
