Certificate:
    Data:
        Version: 3 (0x2)
        Serial Number: 11042563100220 (0xa0b0c0d0e3c)
    Signature Algorithm: sha256WithRSAEncryption
        Issuer: CN=CALCUTTACA_CA, C=IN, O=CITRIX, OU=ANG, ST=KA/emailAddress=CALCUTTACA_CA@CALCUTTACA_mail.com
        Validity
            Not Before: Aug 23 10:15:48 2017 GMT
            Not After : Aug 21 10:15:48 2027 GMT
        Subject: ST=KA, C=IN, CN=calcutta_6_client/emailAddress=calcutta_6@test_ca.com, O=CITRIX
        Subject Public Key Info:
            Public Key Algorithm: rsaEncryption
                Public-Key: (2048 bit)
                Modulus:
                    00:e2:41:be:ac:68:de:ea:b1:e4:e9:a7:b5:d7:2b:
                    eb:85:a2:dd:41:cf:ba:88:99:50:93:2a:ac:58:c3:
                    74:6b:cb:3f:59:0f:76:94:28:8f:2c:3b:11:d0:c6:
                    62:3f:75:1e:0c:1f:70:6d:24:28:16:71:c6:f6:9d:
                    d5:74:1a:4b:51:cb:20:97:81:1d:40:01:b0:b6:aa:
                    f2:05:b9:5a:52:7a:1c:64:79:1d:28:b9:10:fa:e9:
                    87:a2:31:bc:1b:bb:62:38:5e:de:7a:1d:5b:02:ee:
                    5f:42:f4:9c:0f:c8:53:5e:7e:54:c7:c1:d3:f2:4f:
                    6f:f7:de:df:84:b6:0e:45:f9:5d:f3:9a:30:3c:3c:
                    3d:97:2f:64:bc:34:82:a8:47:1d:4e:61:45:06:0d:
                    cb:b1:80:80:87:40:ca:32:2b:6a:8c:f6:b0:41:17:
                    0b:71:0b:f0:6c:1c:d1:97:52:cb:f9:35:98:b6:75:
                    5a:45:1a:94:8a:6e:19:fd:ec:fe:6d:35:06:5b:c5:
                    41:ea:db:5c:bb:07:4c:8a:82:f9:0a:c7:b1:58:a2:
                    7a:cc:4d:87:84:0e:2b:bc:2f:6d:ac:7a:b3:e2:7a:
                    71:c5:91:83:ff:c9:f4:fb:d9:a5:8c:f3:79:1c:cf:
                    d8:aa:5f:f5:f2:a8:d2:ea:e6:a8:2a:a6:54:39:9c:
                    8e:cb
                Exponent: 65537 (0x10001)
        X509v3 extensions:
            Netscape Cert Type: 
                SSL Client
            X509v3 Subject Key Identifier: 
                33:CB:35:CD:E9:9D:AB:59:B5:D2:1D:CD:65:B8:3B:C8:EF:05:CD:81
            X509v3 Authority Key Identifier: 
                keyid:37:2E:7B:27:46:4B:CF:47:10:AC:2B:2E:BA:D0:F3:66:75:EB:52:75
                DirName:/CN=CALCUTTACA_CA/C=IN/O=CITRIX/OU=ANG/ST=KA/emailAddress=CALCUTTACA_CA@CALCUTTACA_mail.com
                serial:A5:C6:47:0E:E6:06:37:18

            Authority Information Access: 
                OCSP - URI:http://172.18.20.1/responderpath

    Signature Algorithm: sha256WithRSAEncryption
         5e:51:9e:81:ba:35:60:02:5c:66:ad:73:44:00:b3:61:40:d5:
         ec:26:f6:41:0a:a1:06:ee:d1:9c:95:bf:c6:c2:e3:ff:b8:b8:
         c7:08:83:3b:ec:45:b5:b9:0b:de:82:d5:84:f1:64:11:e8:10:
         7c:10:1d:b8:83:ec:cc:61:ab:db:9c:b6:87:ad:17:16:ba:bf:
         52:2e:18:54:a0:41:7a:45:f7:dc:14:99:23:22:b4:e2:db:57:
         3b:10:78:00:42:eb:58:30:b1:85:52:9a:9d:8f:3f:e9:64:14:
         28:0d:47:5f:88:ce:66:89:d4:7a:9b:0a:34:f1:02:00:4b:6d:
         02:12:09:82:d1:60:66:7f:d7:85:17:ca:c5:26:6b:74:4b:8c:
         90:8e:87:40:1f:ea:7e:b0:e9:bd:43:7a:96:13:58:cd:be:66:
         67:85:b4:11:89:b6:e5:6b:9e:47:35:24:94:eb:7a:52:23:c6:
         84:9d:15:0a:07:58:4a:c2:13:99:70:76:07:09:bd:f1:13:ea:
         f6:22:53:60:a0:94:28:1b:e7:ad:6a:03:9a:70:b3:c6:a9:3d:
         f6:74:bb:32:84:ce:16:e9:58:5c:0d:d2:c5:36:00:d7:86:c1:
         13:e8:24:6c:92:56:29:82:5e:b1:d3:be:c4:bc:39:22:72:12:
         96:1e:3a:a7
-----BEGIN CERTIFICATE-----
MIIEozCCA4ugAwIBAgIGCgsMDQ48MA0GCSqGSIb3DQEBCwUAMIGDMRYwFAYDVQQD
FA1DQUxDVVRUQUNBX0NBMQswCQYDVQQGEwJJTjEPMA0GA1UEChMGQ0lUUklYMQww
CgYDVQQLEwNBTkcxCzAJBgNVBAgTAktBMTAwLgYJKoZIhvcNAQkBFiFDQUxDVVRU
QUNBX0NBQENBTENVVFRBQ0FfbWFpbC5jb20wHhcNMTcwODIzMTAxNTQ4WhcNMjcw
ODIxMTAxNTQ4WjBuMQswCQYDVQQIEwJLQTELMAkGA1UEBhMCSU4xGjAYBgNVBAMU
EWNhbGN1dHRhXzZfY2xpZW50MSUwIwYJKoZIhvcNAQkBFhZjYWxjdXR0YV82QHRl
c3RfY2EuY29tMQ8wDQYDVQQKEwZDSVRSSVgwggEiMA0GCSqGSIb3DQEBAQUAA4IB
DwAwggEKAoIBAQDiQb6saN7qseTpp7XXK+uFot1Bz7qImVCTKqxYw3Rryz9ZD3aU
KI8sOxHQxmI/dR4MH3BtJCgWccb2ndV0GktRyyCXgR1AAbC2qvIFuVpSehxkeR0o
uRD66YeiMbwbu2I4Xt56HVsC7l9C9JwPyFNeflTHwdPyT2/33t+Etg5F+V3zmjA8
PD2XL2S8NIKoRx1OYUUGDcuxgICHQMoyK2qM9rBBFwtxC/BsHNGXUsv5NZi2dVpF
GpSKbhn97P5tNQZbxUHq21y7B0yKgvkKx7FYonrMTYeEDiu8L22serPienHFkYP/
yfT72aWM83kcz9iqX/XyqNLq5qgqplQ5nI7LAgMBAAGjggEvMIIBKzARBglghkgB
hvhCAQEEBAMCB4AwHQYDVR0OBBYEFDPLNc3pnatZtdIdzWW4O8jvBc2BMIG4BgNV
HSMEgbAwga2AFDcueydGS89HEKwrLrrQ82Z161J1oYGJpIGGMIGDMRYwFAYDVQQD
FA1DQUxDVVRUQUNBX0NBMQswCQYDVQQGEwJJTjEPMA0GA1UEChMGQ0lUUklYMQww
CgYDVQQLEwNBTkcxCzAJBgNVBAgTAktBMTAwLgYJKoZIhvcNAQkBFiFDQUxDVVRU
QUNBX0NBQENBTENVVFRBQ0FfbWFpbC5jb22CCQClxkcO5gY3GDA8BggrBgEFBQcB
AQQwMC4wLAYIKwYBBQUHMAGGIGh0dHA6Ly8xNzIuMTguMjAuMS9yZXNwb25kZXJw
YXRoMA0GCSqGSIb3DQEBCwUAA4IBAQBeUZ6BujVgAlxmrXNEALNhQNXsJvZBCqEG
7tGclb/GwuP/uLjHCIM77EW1uQvegtWE8WQR6BB8EB24g+zMYavbnLaHrRcWur9S
LhhUoEF6RffcFJkjIrTi21c7EHgAQutYMLGFUpqdjz/pZBQoDUdfiM5midR6mwo0
8QIAS20CEgmC0WBmf9eFF8rFJmt0S4yQjodAH+p+sOm9Q3qWE1jNvmZnhbQRibbl
a55HNSSU63pSI8aEnRUKB1hKwhOZcHYHCb3xE+r2IlNgoJQoG+etagOacLPGqT32
dLsyhM4W6VhcDdLFNgDXhsET6CRsklYpgl6x077EvDkichKWHjqn
-----END CERTIFICATE-----
