Certificate:
    Data:
        Version: 3 (0x2)
        Serial Number: 11042563100207 (0xa0b0c0d0e2f)
    Signature Algorithm: sha256WithRSAEncryption
        Issuer: CN=CALCUTTACA_CA, C=IN, O=CITRIX, OU=ANG, ST=KA/emailAddress=CALCUTTACA_CA@CALCUTTACA_mail.com
        Validity
            Not Before: Jul  8 04:33:12 2016 GMT
            Not After : Jul  6 04:33:12 2026 GMT
        Subject: ST=KA, C=IN, CN=133_CALCUTTACA_server/emailAddress=133_CALCUTTACA@test_ca.com, O=CITRIX
        Subject Public Key Info:
            Public Key Algorithm: rsaEncryption
                Public-Key: (2048 bit)
                Modulus:
                    00:bc:51:8c:41:a7:c6:0b:3c:8a:07:89:67:b2:27:
                    6b:57:fa:0f:ff:70:23:47:ec:d1:b6:e9:e8:e0:d2:
                    d6:0c:81:5b:29:6f:94:19:eb:a6:81:ce:93:25:8c:
                    7a:13:89:6b:0f:c6:69:db:fe:ab:a9:cf:25:a6:28:
                    72:ff:83:49:3d:da:ce:b8:5b:1d:b2:05:f2:02:dd:
                    6e:48:da:74:00:44:1b:3c:d3:8a:73:30:bf:e7:fa:
                    16:82:88:b3:c3:37:ed:a3:b6:85:6d:92:14:48:30:
                    72:99:b9:63:ac:f6:2f:98:dc:be:7b:db:49:f7:db:
                    02:9a:2e:79:f5:b8:40:64:3a:cf:9b:36:4d:10:9d:
                    fd:a9:c9:b1:38:45:4a:44:35:62:a4:97:88:5b:87:
                    33:72:94:a5:b3:98:13:ba:37:4d:ee:91:10:ac:0d:
                    21:b7:e7:74:50:80:24:2a:a9:1e:8b:37:33:d5:f7:
                    43:84:16:78:b5:70:37:a1:b6:f2:f9:df:0c:ac:cc:
                    30:fa:ba:fc:09:b2:31:77:0a:8e:f0:69:e6:9b:d7:
                    ab:ab:9d:96:e9:de:e0:42:ad:43:ac:c6:65:cd:5f:
                    07:ae:da:51:47:70:fa:7d:3f:38:dc:e5:9a:0c:0b:
                    21:b0:6b:0b:61:7c:39:7e:1b:7f:cf:1a:3d:f4:d8:
                    43:b3
                Exponent: 65537 (0x10001)
        X509v3 extensions:
            Netscape Cert Type: 
                SSL Server
            X509v3 Subject Key Identifier: 
                57:DC:98:A5:C4:AE:30:79:E0:FF:26:63:46:0F:25:49:7F:6B:61:4B
            X509v3 Authority Key Identifier: 
                keyid:37:2E:7B:27:46:4B:CF:47:10:AC:2B:2E:BA:D0:F3:66:75:EB:52:75
                DirName:/CN=CALCUTTACA_CA/C=IN/O=CITRIX/OU=ANG/ST=KA/emailAddress=CALCUTTACA_CA@CALCUTTACA_mail.com
                serial:A5:C6:47:0E:E6:06:37:18

            Authority Information Access: 
                OCSP - URI:http://172.18.20.1/responderpath

    Signature Algorithm: sha256WithRSAEncryption
         37:f7:4f:33:8e:c7:38:02:9a:90:d0:0c:0a:59:e1:56:96:c4:
         d4:b0:93:94:0b:ce:d7:8e:4c:1d:e7:ad:c4:48:f6:76:fd:94:
         9b:82:92:48:a1:5a:16:bd:eb:8a:e3:10:8b:7f:7e:6a:68:11:
         cf:3d:08:12:f3:07:58:74:ac:4d:fd:85:9c:b5:fc:01:eb:a4:
         56:41:11:ed:29:7a:5f:9b:ce:1e:b5:1e:e4:af:79:cd:b6:9b:
         9f:fb:21:8f:21:7a:dd:38:a6:bf:6a:27:07:8f:5c:8d:ab:ac:
         3f:36:f3:dd:f0:22:1f:f2:e8:4f:72:7f:2c:b8:aa:0e:be:b8:
         c8:9b:33:e8:52:43:a7:e9:12:87:c5:44:28:70:11:82:a6:19:
         fb:6a:28:6d:53:41:6c:2d:a7:45:42:4d:ef:ea:a9:ae:41:43:
         e5:2f:fc:0b:b5:f9:b9:e0:d5:b3:dd:a7:17:12:18:a3:f5:97:
         26:a1:3b:5b:7c:2e:3e:5c:25:4d:76:e1:d1:ec:64:d7:05:67:
         c5:f7:16:75:7b:b9:de:3c:88:c3:cb:27:dd:7b:c9:7f:76:c3:
         f1:36:d8:5d:b5:25:56:85:f9:84:56:5c:b4:4b:56:46:53:61:
         f0:e2:51:7e:8d:ac:9c:27:51:81:77:23:74:02:6f:9f:3b:30:
         2c:a9:68:89
-----BEGIN CERTIFICATE-----
MIIEqzCCA5OgAwIBAgIGCgsMDQ4vMA0GCSqGSIb3DQEBCwUAMIGDMRYwFAYDVQQD
FA1DQUxDVVRUQUNBX0NBMQswCQYDVQQGEwJJTjEPMA0GA1UEChMGQ0lUUklYMQww
CgYDVQQLEwNBTkcxCzAJBgNVBAgTAktBMTAwLgYJKoZIhvcNAQkBFiFDQUxDVVRU
QUNBX0NBQENBTENVVFRBQ0FfbWFpbC5jb20wHhcNMTYwNzA4MDQzMzEyWhcNMjYw
NzA2MDQzMzEyWjB2MQswCQYDVQQIEwJLQTELMAkGA1UEBhMCSU4xHjAcBgNVBAMU
FTEzM19DQUxDVVRUQUNBX3NlcnZlcjEpMCcGCSqGSIb3DQEJARYaMTMzX0NBTENV
VFRBQ0FAdGVzdF9jYS5jb20xDzANBgNVBAoTBkNJVFJJWDCCASIwDQYJKoZIhvcN
AQEBBQADggEPADCCAQoCggEBALxRjEGnxgs8igeJZ7Ina1f6D/9wI0fs0bbp6ODS
1gyBWylvlBnrpoHOkyWMehOJaw/Gadv+q6nPJaYocv+DST3azrhbHbIF8gLdbkja
dABEGzzTinMwv+f6FoKIs8M37aO2hW2SFEgwcpm5Y6z2L5jcvnvbSffbApouefW4
QGQ6z5s2TRCd/anJsThFSkQ1YqSXiFuHM3KUpbOYE7o3Te6REKwNIbfndFCAJCqp
Hos3M9X3Q4QWeLVwN6G28vnfDKzMMPq6/AmyMXcKjvBp5pvXq6udlune4EKtQ6zG
Zc1fB67aUUdw+n0/ONzlmgwLIbBrC2F8OX4bf88aPfTYQ7MCAwEAAaOCAS8wggEr
MBEGCWCGSAGG+EIBAQQEAwIGQDAdBgNVHQ4EFgQUV9yYpcSuMHng/yZjRg8lSX9r
YUswgbgGA1UdIwSBsDCBrYAUNy57J0ZLz0cQrCsuutDzZnXrUnWhgYmkgYYwgYMx
FjAUBgNVBAMUDUNBTENVVFRBQ0FfQ0ExCzAJBgNVBAYTAklOMQ8wDQYDVQQKEwZD
SVRSSVgxDDAKBgNVBAsTA0FORzELMAkGA1UECBMCS0ExMDAuBgkqhkiG9w0BCQEW
IUNBTENVVFRBQ0FfQ0FAQ0FMQ1VUVEFDQV9tYWlsLmNvbYIJAKXGRw7mBjcYMDwG
CCsGAQUFBwEBBDAwLjAsBggrBgEFBQcwAYYgaHR0cDovLzE3Mi4xOC4yMC4xL3Jl
c3BvbmRlcnBhdGgwDQYJKoZIhvcNAQELBQADggEBADf3TzOOxzgCmpDQDApZ4VaW
xNSwk5QLzteOTB3nrcRI9nb9lJuCkkihWha964rjEIt/fmpoEc89CBLzB1h0rE39
hZy1/AHrpFZBEe0pel+bzh61HuSvec22m5/7IY8het04pr9qJwePXI2rrD82893w
Ih/y6E9yfyy4qg6+uMibM+hSQ6fpEofFRChwEYKmGftqKG1TQWwtp0VCTe/qqa5B
Q+Uv/Au1+bng1bPdpxcSGKP1lyahO1t8Lj5cJU124dHsZNcFZ8X3FnV7ud48iMPL
J917yX92w/E22F21JVaF+YRWXLRLVkZTYfDiUX6NrJwnUYF3I3QCb587MCypaIk=
-----END CERTIFICATE-----
