Certificate:
    Data:
        Version: 3 (0x2)
        Serial Number: 11042563100217 (0xa0b0c0d0e39)
    Signature Algorithm: sha256WithRSAEncryption
        Issuer: CN=CALCUTTACA_CA, C=IN, O=CITRIX, OU=ANG, ST=KA/emailAddress=CALCUTTACA_CA@CALCUTTACA_mail.com
        Validity
            Not Before: Aug 23 10:15:46 2017 GMT
            Not After : Aug 21 10:15:46 2027 GMT
        Subject: ST=KA, C=IN, CN=calcutta_3_client/emailAddress=calcutta_3@test_ca.com, O=CITRIX
        Subject Public Key Info:
            Public Key Algorithm: rsaEncryption
                Public-Key: (2048 bit)
                Modulus:
                    00:ae:cf:78:19:de:49:95:3c:68:69:ae:a3:be:81:
                    2a:15:5a:69:09:62:e2:ad:67:f6:2d:60:16:cd:49:
                    80:8c:ec:9c:3a:3a:58:86:54:e6:10:40:84:93:b4:
                    4f:28:df:b7:cc:f4:d2:32:49:a0:25:a3:20:c2:a2:
                    33:a4:34:7a:6f:98:c3:cc:37:36:5e:3c:b4:1c:38:
                    8b:a7:17:0c:0e:70:8b:32:5a:2a:a7:41:2d:63:f1:
                    f6:e9:10:46:7f:e4:86:2a:a0:ad:bc:f1:37:26:ae:
                    5d:f1:d3:0d:f5:61:83:bf:37:93:1d:eb:29:08:1d:
                    cf:d0:36:10:72:91:6b:ae:6f:12:50:67:5e:1b:20:
                    f2:65:0c:e9:37:de:11:c9:0d:39:51:47:a2:16:6f:
                    d0:b3:92:af:0f:1c:87:35:cd:e4:82:ce:19:c7:b5:
                    b8:7d:0e:a9:24:c6:4a:fa:c3:40:a5:1e:50:67:6b:
                    5f:c4:34:a3:e2:20:a0:6a:2d:9d:f2:ef:c8:4e:52:
                    2e:e1:1f:e9:73:96:ee:16:fe:fd:2f:c7:f7:88:83:
                    cc:56:01:14:1f:86:d6:e1:16:57:f8:9e:d6:8e:06:
                    25:95:9b:09:44:69:33:bb:95:7b:6d:4d:85:5f:1b:
                    02:33:59:88:26:e5:0f:74:37:cb:9a:8c:3d:c4:07:
                    73:d3
                Exponent: 65537 (0x10001)
        X509v3 extensions:
            Netscape Cert Type: 
                SSL Client
            X509v3 Subject Key Identifier: 
                4E:98:98:44:FA:A3:75:5B:16:2D:B9:B6:4D:34:FE:06:1D:68:EC:0F
            X509v3 Authority Key Identifier: 
                keyid:37:2E:7B:27:46:4B:CF:47:10:AC:2B:2E:BA:D0:F3:66:75:EB:52:75
                DirName:/CN=CALCUTTACA_CA/C=IN/O=CITRIX/OU=ANG/ST=KA/emailAddress=CALCUTTACA_CA@CALCUTTACA_mail.com
                serial:A5:C6:47:0E:E6:06:37:18

            Authority Information Access: 
                OCSP - URI:http://172.18.20.1/responderpath

    Signature Algorithm: sha256WithRSAEncryption
         88:38:21:3c:bf:54:6e:a9:73:13:25:bb:b8:7a:36:11:4b:b4:
         16:c7:14:31:ff:58:23:96:69:54:91:7d:ca:a0:e8:b6:e2:95:
         aa:83:66:ed:34:82:2e:53:c6:bb:9e:0f:0c:a6:76:cd:d0:3e:
         19:27:ba:e6:e4:d0:cd:ab:83:ce:02:30:3c:9c:00:27:df:34:
         4e:08:96:84:d7:26:4f:73:6a:9b:a7:94:08:19:09:92:18:e7:
         86:0d:0a:e7:fd:bb:0a:45:e5:36:70:d5:e0:b0:6b:e2:18:ac:
         f6:d0:cf:1f:8c:94:c0:d2:52:e3:5f:fa:87:9c:22:31:e2:76:
         93:4c:e2:da:4b:86:4a:29:83:90:03:0a:50:e0:38:7c:95:97:
         d9:3d:77:2e:f6:1a:14:ee:18:a3:6e:f2:4d:b4:8b:fc:08:4a:
         1d:5b:6a:ca:27:3c:2e:35:83:07:7e:e2:a4:35:51:de:f3:13:
         fd:2f:75:3b:25:5c:3f:85:2b:ab:51:1a:dc:b0:6a:4d:b3:5c:
         19:b0:32:a6:a9:98:bc:23:01:ee:fe:83:e1:72:9e:91:81:7f:
         a6:66:98:b0:ab:04:be:b4:5b:b8:6b:38:99:ee:9b:be:ec:c0:
         15:61:c2:66:51:c4:d9:bc:a6:ea:e0:b3:7f:b4:67:e0:2c:87:
         b4:a2:0e:9b
-----BEGIN CERTIFICATE-----
MIIEozCCA4ugAwIBAgIGCgsMDQ45MA0GCSqGSIb3DQEBCwUAMIGDMRYwFAYDVQQD
FA1DQUxDVVRUQUNBX0NBMQswCQYDVQQGEwJJTjEPMA0GA1UEChMGQ0lUUklYMQww
CgYDVQQLEwNBTkcxCzAJBgNVBAgTAktBMTAwLgYJKoZIhvcNAQkBFiFDQUxDVVRU
QUNBX0NBQENBTENVVFRBQ0FfbWFpbC5jb20wHhcNMTcwODIzMTAxNTQ2WhcNMjcw
ODIxMTAxNTQ2WjBuMQswCQYDVQQIEwJLQTELMAkGA1UEBhMCSU4xGjAYBgNVBAMU
EWNhbGN1dHRhXzNfY2xpZW50MSUwIwYJKoZIhvcNAQkBFhZjYWxjdXR0YV8zQHRl
c3RfY2EuY29tMQ8wDQYDVQQKEwZDSVRSSVgwggEiMA0GCSqGSIb3DQEBAQUAA4IB
DwAwggEKAoIBAQCuz3gZ3kmVPGhprqO+gSoVWmkJYuKtZ/YtYBbNSYCM7Jw6OliG
VOYQQISTtE8o37fM9NIySaAloyDCojOkNHpvmMPMNzZePLQcOIunFwwOcIsyWiqn
QS1j8fbpEEZ/5IYqoK288Tcmrl3x0w31YYO/N5Md6ykIHc/QNhBykWuubxJQZ14b
IPJlDOk33hHJDTlRR6IWb9Czkq8PHIc1zeSCzhnHtbh9Dqkkxkr6w0ClHlBna1/E
NKPiIKBqLZ3y78hOUi7hH+lzlu4W/v0vx/eIg8xWARQfhtbhFlf4ntaOBiWVmwlE
aTO7lXttTYVfGwIzWYgm5Q90N8uajD3EB3PTAgMBAAGjggEvMIIBKzARBglghkgB
hvhCAQEEBAMCB4AwHQYDVR0OBBYEFE6YmET6o3VbFi25tk00/gYdaOwPMIG4BgNV
HSMEgbAwga2AFDcueydGS89HEKwrLrrQ82Z161J1oYGJpIGGMIGDMRYwFAYDVQQD
FA1DQUxDVVRUQUNBX0NBMQswCQYDVQQGEwJJTjEPMA0GA1UEChMGQ0lUUklYMQww
CgYDVQQLEwNBTkcxCzAJBgNVBAgTAktBMTAwLgYJKoZIhvcNAQkBFiFDQUxDVVRU
QUNBX0NBQENBTENVVFRBQ0FfbWFpbC5jb22CCQClxkcO5gY3GDA8BggrBgEFBQcB
AQQwMC4wLAYIKwYBBQUHMAGGIGh0dHA6Ly8xNzIuMTguMjAuMS9yZXNwb25kZXJw
YXRoMA0GCSqGSIb3DQEBCwUAA4IBAQCIOCE8v1RuqXMTJbu4ejYRS7QWxxQx/1gj
lmlUkX3KoOi24pWqg2btNIIuU8a7ng8MpnbN0D4ZJ7rm5NDNq4POAjA8nAAn3zRO
CJaE1yZPc2qbp5QIGQmSGOeGDQrn/bsKReU2cNXgsGviGKz20M8fjJTA0lLjX/qH
nCIx4naTTOLaS4ZKKYOQAwpQ4Dh8lZfZPXcu9hoU7hijbvJNtIv8CEodW2rKJzwu
NYMHfuKkNVHe8xP9L3U7JVw/hSurURrcsGpNs1wZsDKmqZi8IwHu/oPhcp6RgX+m
ZpiwqwS+tFu4aziZ7pu+7MAVYcJmUcTZvKbq4LN/tGfgLIe0og6b
-----END CERTIFICATE-----
