Certificate:
    Data:
        Version: 3 (0x2)
        Serial Number: 11042563100257 (0xa0b0c0d0e61)
    Signature Algorithm: sha256WithRSAEncryption
        Issuer: CN=CALCUTTACA_CA, C=IN, O=CITRIX, OU=ANG, ST=KA/emailAddress=CALCUTTACA_CA@CALCUTTACA_mail.com
        Validity
            Not Before: Aug 23 10:16:11 2017 GMT
            Not After : Aug 21 10:16:11 2027 GMT
        Subject: ST=KA, C=IN, CN=calcutta_43_client/emailAddress=calcutta_43@test_ca.com, O=CITRIX
        Subject Public Key Info:
            Public Key Algorithm: rsaEncryption
                Public-Key: (2048 bit)
                Modulus:
                    00:a3:ec:8a:53:0b:72:f1:41:20:05:d6:22:1b:1c:
                    6a:42:62:6f:c3:52:af:26:fa:93:7f:66:21:fc:73:
                    f8:a4:c4:c4:4d:6e:fa:3f:22:14:e7:6a:e4:5b:46:
                    78:d3:b1:21:4e:68:3e:45:ee:17:e6:98:61:69:b4:
                    6f:00:ee:0a:e5:ff:c5:54:be:55:8c:25:f7:29:f1:
                    86:37:7f:1c:fa:11:a3:a7:18:43:3f:ca:dd:c5:48:
                    49:a2:59:2b:db:17:40:37:2e:3a:88:03:24:7c:61:
                    2b:aa:66:90:a8:ec:1e:45:90:0b:25:c6:a9:12:c0:
                    5e:7d:42:d2:86:b6:f8:4d:52:45:ac:52:b9:84:c6:
                    ad:bf:3f:70:0a:3c:6d:17:cc:91:01:97:67:0d:02:
                    1a:ce:be:f3:03:29:47:43:4b:45:be:8e:e1:9b:86:
                    dd:37:23:fa:c8:eb:d6:b5:c9:b5:76:1f:cb:74:25:
                    84:88:1b:09:4c:0e:57:d5:a8:cc:84:38:98:aa:68:
                    5b:91:62:38:70:2b:80:3c:b3:5b:47:1d:4b:17:b8:
                    34:2c:08:c8:33:80:39:d7:bf:e5:3f:d7:5f:64:5b:
                    17:78:ea:34:ed:3a:76:3a:2b:89:a5:87:22:85:6a:
                    2a:fd:d9:d8:f9:d9:a1:22:d2:be:c9:f0:6a:02:ea:
                    bf:7b
                Exponent: 65537 (0x10001)
        X509v3 extensions:
            Netscape Cert Type: 
                SSL Client
            X509v3 Subject Key Identifier: 
                9C:07:99:C5:65:85:64:D2:36:D6:A3:BF:DC:38:39:34:BC:78:0E:9C
            X509v3 Authority Key Identifier: 
                keyid:37:2E:7B:27:46:4B:CF:47:10:AC:2B:2E:BA:D0:F3:66:75:EB:52:75
                DirName:/CN=CALCUTTACA_CA/C=IN/O=CITRIX/OU=ANG/ST=KA/emailAddress=CALCUTTACA_CA@CALCUTTACA_mail.com
                serial:A5:C6:47:0E:E6:06:37:18

            Authority Information Access: 
                OCSP - URI:http://172.18.20.1/responderpath

    Signature Algorithm: sha256WithRSAEncryption
         bd:97:c4:77:88:39:09:5f:db:52:74:e1:35:14:47:4d:02:cc:
         e1:83:e3:a1:9e:2a:8f:29:f9:25:ca:8e:d7:f1:00:8f:b4:b6:
         d2:62:3a:41:12:74:4d:dd:b9:98:4c:41:35:4a:59:f4:87:00:
         15:66:5e:92:0d:ec:75:7e:c2:4e:4e:1a:49:17:2e:0f:7e:09:
         23:fe:7e:9e:06:98:0f:16:5f:8b:30:96:0a:c1:19:cd:45:3d:
         ea:48:2b:f1:8d:f8:8d:a0:5b:b1:2b:79:b2:42:2b:da:3a:51:
         b9:19:ff:f5:ce:cb:96:02:03:c2:e6:6e:54:64:53:6c:06:3f:
         de:f6:9c:c1:54:92:e2:0b:b6:99:ab:4a:a3:2f:07:ab:58:a2:
         68:34:de:89:5e:6b:09:cf:c6:54:06:07:4a:4f:16:ef:34:2a:
         03:99:1e:db:6a:c8:64:10:09:df:3e:8e:ee:2e:cd:ec:1b:ce:
         fd:98:60:78:d4:0c:38:52:90:a2:4e:b3:94:4f:86:b6:b8:c1:
         ca:ef:c1:2a:f0:0b:40:3b:6e:37:30:27:03:37:46:d3:96:7d:
         0d:07:67:80:5c:0b:bc:d3:41:1c:53:20:3e:07:cf:d1:69:6a:
         b8:1f:1d:e2:ec:fe:0d:e7:e9:63:d8:ba:c5:25:e0:3a:69:3a:
         8a:ac:ca:f8
-----BEGIN CERTIFICATE-----
MIIEpTCCA42gAwIBAgIGCgsMDQ5hMA0GCSqGSIb3DQEBCwUAMIGDMRYwFAYDVQQD
FA1DQUxDVVRUQUNBX0NBMQswCQYDVQQGEwJJTjEPMA0GA1UEChMGQ0lUUklYMQww
CgYDVQQLEwNBTkcxCzAJBgNVBAgTAktBMTAwLgYJKoZIhvcNAQkBFiFDQUxDVVRU
QUNBX0NBQENBTENVVFRBQ0FfbWFpbC5jb20wHhcNMTcwODIzMTAxNjExWhcNMjcw
ODIxMTAxNjExWjBwMQswCQYDVQQIEwJLQTELMAkGA1UEBhMCSU4xGzAZBgNVBAMU
EmNhbGN1dHRhXzQzX2NsaWVudDEmMCQGCSqGSIb3DQEJARYXY2FsY3V0dGFfNDNA
dGVzdF9jYS5jb20xDzANBgNVBAoTBkNJVFJJWDCCASIwDQYJKoZIhvcNAQEBBQAD
ggEPADCCAQoCggEBAKPsilMLcvFBIAXWIhscakJib8NSryb6k39mIfxz+KTExE1u
+j8iFOdq5FtGeNOxIU5oPkXuF+aYYWm0bwDuCuX/xVS+VYwl9ynxhjd/HPoRo6cY
Qz/K3cVISaJZK9sXQDcuOogDJHxhK6pmkKjsHkWQCyXGqRLAXn1C0oa2+E1SRaxS
uYTGrb8/cAo8bRfMkQGXZw0CGs6+8wMpR0NLRb6O4ZuG3Tcj+sjr1rXJtXYfy3Ql
hIgbCUwOV9WozIQ4mKpoW5FiOHArgDyzW0cdSxe4NCwIyDOAOde/5T/XX2RbF3jq
NO06djoriaWHIoVqKv3Z2PnZoSLSvsnwagLqv3sCAwEAAaOCAS8wggErMBEGCWCG
SAGG+EIBAQQEAwIHgDAdBgNVHQ4EFgQUnAeZxWWFZNI21qO/3Dg5NLx4DpwwgbgG
A1UdIwSBsDCBrYAUNy57J0ZLz0cQrCsuutDzZnXrUnWhgYmkgYYwgYMxFjAUBgNV
BAMUDUNBTENVVFRBQ0FfQ0ExCzAJBgNVBAYTAklOMQ8wDQYDVQQKEwZDSVRSSVgx
DDAKBgNVBAsTA0FORzELMAkGA1UECBMCS0ExMDAuBgkqhkiG9w0BCQEWIUNBTENV
VFRBQ0FfQ0FAQ0FMQ1VUVEFDQV9tYWlsLmNvbYIJAKXGRw7mBjcYMDwGCCsGAQUF
BwEBBDAwLjAsBggrBgEFBQcwAYYgaHR0cDovLzE3Mi4xOC4yMC4xL3Jlc3BvbmRl
cnBhdGgwDQYJKoZIhvcNAQELBQADggEBAL2XxHeIOQlf21J04TUUR00CzOGD46Ge
Ko8p+SXKjtfxAI+0ttJiOkESdE3duZhMQTVKWfSHABVmXpIN7HV+wk5OGkkXLg9+
CSP+fp4GmA8WX4swlgrBGc1FPepIK/GN+I2gW7ErebJCK9o6UbkZ//XOy5YCA8Lm
blRkU2wGP972nMFUkuILtpmrSqMvB6tYomg03oleawnPxlQGB0pPFu80KgOZHttq
yGQQCd8+ju4uzewbzv2YYHjUDDhSkKJOs5RPhra4wcrvwSrwC0A7bjcwJwM3RtOW
fQ0HZ4BcC7zTQRxTID4Hz9FpargfHeLs/g3n6WPYusUl4DppOoqsyvg=
-----END CERTIFICATE-----
