Certificate:
    Data:
        Version: 3 (0x2)
        Serial Number: 11042563100252 (0xa0b0c0d0e5c)
    Signature Algorithm: sha256WithRSAEncryption
        Issuer: CN=CALCUTTACA_CA, C=IN, O=CITRIX, OU=ANG, ST=KA/emailAddress=CALCUTTACA_CA@CALCUTTACA_mail.com
        Validity
            Not Before: Aug 23 10:16:09 2017 GMT
            Not After : Aug 21 10:16:09 2027 GMT
        Subject: ST=KA, C=IN, CN=calcutta_38_client/emailAddress=calcutta_38@test_ca.com, O=CITRIX
        Subject Public Key Info:
            Public Key Algorithm: rsaEncryption
                Public-Key: (2048 bit)
                Modulus:
                    00:cc:b7:de:0a:bd:3f:2c:5a:f9:05:3b:78:17:c0:
                    6c:e7:42:d7:b4:42:52:c5:66:38:f8:7e:f0:44:27:
                    ad:52:ac:fa:3a:e3:9b:4f:6e:b9:72:dd:c2:61:f7:
                    90:cf:50:9b:da:6d:b8:2c:30:5f:0c:a3:e4:aa:fd:
                    cd:41:73:76:41:78:2b:c8:72:3f:01:db:e1:32:c9:
                    8f:b7:57:7f:7a:8f:c1:fa:f1:be:76:af:4b:23:7f:
                    47:b3:ae:ad:97:6b:1b:2a:f1:9a:15:fb:c6:3e:87:
                    d1:63:77:aa:81:83:41:a2:80:b7:a8:19:6b:e9:5e:
                    f4:9f:40:67:f3:5a:41:20:0f:0e:9a:bb:3d:e6:d3:
                    bf:3e:a4:7f:12:30:74:cc:87:02:a0:4e:1b:5e:2b:
                    d6:67:11:b4:43:2c:6d:fd:63:0a:00:e9:ae:a4:74:
                    51:32:82:83:bc:52:26:b1:26:1b:b1:47:1f:a5:8e:
                    50:3a:a5:ff:94:69:93:14:24:89:4d:7f:a7:7a:43:
                    07:c5:2a:3c:59:cb:8e:6b:5f:5a:1d:c5:1f:b2:38:
                    5d:f2:85:c8:b4:3c:47:b8:f6:9f:61:77:60:5e:f8:
                    d1:f9:f4:18:83:76:35:b1:21:9c:3a:b8:73:03:ea:
                    3e:a4:96:3c:40:12:45:d4:36:7b:7a:d9:53:4b:c0:
                    3b:97
                Exponent: 65537 (0x10001)
        X509v3 extensions:
            Netscape Cert Type: 
                SSL Client
            X509v3 Subject Key Identifier: 
                25:04:2D:6C:37:3D:07:64:A9:0C:AE:E5:F5:E5:FD:AE:E9:9C:32:F7
            X509v3 Authority Key Identifier: 
                keyid:37:2E:7B:27:46:4B:CF:47:10:AC:2B:2E:BA:D0:F3:66:75:EB:52:75
                DirName:/CN=CALCUTTACA_CA/C=IN/O=CITRIX/OU=ANG/ST=KA/emailAddress=CALCUTTACA_CA@CALCUTTACA_mail.com
                serial:A5:C6:47:0E:E6:06:37:18

            Authority Information Access: 
                OCSP - URI:http://172.18.20.1/responderpath

    Signature Algorithm: sha256WithRSAEncryption
         ad:04:36:c9:0f:c6:77:ca:7b:7f:fc:8e:71:95:6e:92:5b:39:
         a1:98:04:6c:81:bd:b7:dc:03:ce:87:9c:58:4a:d5:cb:4f:4e:
         99:4e:85:fa:63:a5:77:c9:58:53:e8:f3:60:26:12:ce:1d:f8:
         d5:25:aa:e0:b0:31:9c:74:e8:03:d9:55:51:53:aa:75:a2:6a:
         71:2b:89:d4:75:5c:6e:b3:f5:e6:7f:b5:61:0c:0d:21:11:46:
         f6:3e:a9:b9:cb:b4:58:01:3d:7a:ce:4c:c8:25:12:b2:ff:eb:
         4d:83:8c:9d:8f:2e:f7:9c:12:08:c9:36:70:68:b8:3f:e7:68:
         a4:51:80:71:44:a1:fb:1e:1e:78:ea:99:cc:89:fc:af:a8:84:
         d0:4d:72:ea:66:6f:cb:4f:4d:51:85:a6:e0:3c:da:6f:0e:09:
         a8:f4:85:ab:6a:19:99:4f:64:ea:97:b6:59:3c:74:be:fb:60:
         b7:c1:c7:b5:45:84:e1:69:ab:29:da:95:1b:4a:d3:a9:e6:ea:
         1f:10:b0:ef:4d:d8:bc:5a:7c:0f:8a:11:5e:71:fb:21:9a:c3:
         5f:70:5a:10:7d:c1:db:c4:fe:88:a1:cb:63:e0:8d:43:bd:7c:
         29:74:a7:bb:2c:f1:6d:30:b6:75:8a:20:7e:14:d9:8d:a4:90:
         63:f1:4f:41
-----BEGIN CERTIFICATE-----
MIIEpTCCA42gAwIBAgIGCgsMDQ5cMA0GCSqGSIb3DQEBCwUAMIGDMRYwFAYDVQQD
FA1DQUxDVVRUQUNBX0NBMQswCQYDVQQGEwJJTjEPMA0GA1UEChMGQ0lUUklYMQww
CgYDVQQLEwNBTkcxCzAJBgNVBAgTAktBMTAwLgYJKoZIhvcNAQkBFiFDQUxDVVRU
QUNBX0NBQENBTENVVFRBQ0FfbWFpbC5jb20wHhcNMTcwODIzMTAxNjA5WhcNMjcw
ODIxMTAxNjA5WjBwMQswCQYDVQQIEwJLQTELMAkGA1UEBhMCSU4xGzAZBgNVBAMU
EmNhbGN1dHRhXzM4X2NsaWVudDEmMCQGCSqGSIb3DQEJARYXY2FsY3V0dGFfMzhA
dGVzdF9jYS5jb20xDzANBgNVBAoTBkNJVFJJWDCCASIwDQYJKoZIhvcNAQEBBQAD
ggEPADCCAQoCggEBAMy33gq9Pyxa+QU7eBfAbOdC17RCUsVmOPh+8EQnrVKs+jrj
m09uuXLdwmH3kM9Qm9ptuCwwXwyj5Kr9zUFzdkF4K8hyPwHb4TLJj7dXf3qPwfrx
vnavSyN/R7OurZdrGyrxmhX7xj6H0WN3qoGDQaKAt6gZa+le9J9AZ/NaQSAPDpq7
PebTvz6kfxIwdMyHAqBOG14r1mcRtEMsbf1jCgDprqR0UTKCg7xSJrEmG7FHH6WO
UDql/5RpkxQkiU1/p3pDB8UqPFnLjmtfWh3FH7I4XfKFyLQ8R7j2n2F3YF740fn0
GIN2NbEhnDq4cwPqPqSWPEASRdQ2e3rZU0vAO5cCAwEAAaOCAS8wggErMBEGCWCG
SAGG+EIBAQQEAwIHgDAdBgNVHQ4EFgQUJQQtbDc9B2SpDK7l9eX9rumcMvcwgbgG
A1UdIwSBsDCBrYAUNy57J0ZLz0cQrCsuutDzZnXrUnWhgYmkgYYwgYMxFjAUBgNV
BAMUDUNBTENVVFRBQ0FfQ0ExCzAJBgNVBAYTAklOMQ8wDQYDVQQKEwZDSVRSSVgx
DDAKBgNVBAsTA0FORzELMAkGA1UECBMCS0ExMDAuBgkqhkiG9w0BCQEWIUNBTENV
VFRBQ0FfQ0FAQ0FMQ1VUVEFDQV9tYWlsLmNvbYIJAKXGRw7mBjcYMDwGCCsGAQUF
BwEBBDAwLjAsBggrBgEFBQcwAYYgaHR0cDovLzE3Mi4xOC4yMC4xL3Jlc3BvbmRl
cnBhdGgwDQYJKoZIhvcNAQELBQADggEBAK0ENskPxnfKe3/8jnGVbpJbOaGYBGyB
vbfcA86HnFhK1ctPTplOhfpjpXfJWFPo82AmEs4d+NUlquCwMZx06APZVVFTqnWi
anEridR1XG6z9eZ/tWEMDSERRvY+qbnLtFgBPXrOTMglErL/602DjJ2PLvecEgjJ
NnBouD/naKRRgHFEofseHnjqmcyJ/K+ohNBNcupmb8tPTVGFpuA82m8OCaj0hatq
GZlPZOqXtlk8dL77YLfBx7VFhOFpqynalRtK06nm6h8QsO9N2LxafA+KEV5x+yGa
w19wWhB9wdvE/oihy2PgjUO9fCl0p7ss8W0wtnWKIH4U2Y2kkGPxT0E=
-----END CERTIFICATE-----
