Certificate:
    Data:
        Version: 3 (0x2)
        Serial Number: 11042563100259 (0xa0b0c0d0e63)
    Signature Algorithm: sha256WithRSAEncryption
        Issuer: CN=CALCUTTACA_CA, C=IN, O=CITRIX, OU=ANG, ST=KA/emailAddress=CALCUTTACA_CA@CALCUTTACA_mail.com
        Validity
            Not Before: Aug 23 10:16:13 2017 GMT
            Not After : Aug 21 10:16:13 2027 GMT
        Subject: ST=KA, C=IN, CN=calcutta_45_client/emailAddress=calcutta_45@test_ca.com, O=CITRIX
        Subject Public Key Info:
            Public Key Algorithm: rsaEncryption
                Public-Key: (2048 bit)
                Modulus:
                    00:bf:06:fb:e5:8f:5b:50:f0:f7:ce:29:d6:80:b9:
                    b8:73:75:dd:b2:6b:20:90:8c:90:c9:66:d8:ae:f9:
                    90:3b:a1:2e:42:41:7d:08:f9:d1:11:b1:73:93:de:
                    d7:c3:a8:d9:b8:3a:c5:97:d5:dd:b5:5a:16:06:3c:
                    72:19:46:ea:97:af:f3:fb:4c:7b:89:c8:84:bb:f4:
                    24:8f:20:24:ce:88:ab:b4:a2:6b:13:7d:0b:8f:e2:
                    a1:29:b4:e2:b2:99:d7:f0:9d:6a:2a:36:26:f4:b8:
                    22:85:f7:75:84:43:88:f7:56:bc:56:ac:29:58:b9:
                    3d:0e:82:d3:dc:fb:8a:05:e3:0b:72:2f:36:f2:a6:
                    27:39:e3:6c:18:b1:f1:85:81:28:ed:97:a3:1a:9f:
                    68:d4:b5:94:2b:0c:2a:ff:5f:21:e4:88:81:19:3b:
                    af:60:0b:c0:36:60:1f:62:2f:1e:12:57:f8:62:6c:
                    5a:64:2c:31:79:e4:50:93:a7:a3:38:1f:0f:dc:55:
                    44:e6:54:01:03:01:a1:3d:01:35:bb:46:67:f9:cf:
                    99:aa:5f:65:64:31:13:2a:9f:7a:d2:00:61:54:4a:
                    00:ca:8f:f0:ec:50:46:cf:3d:77:27:7e:a0:21:6c:
                    fc:01:02:ff:55:41:5e:c7:96:db:b8:52:6d:94:e5:
                    b1:31
                Exponent: 65537 (0x10001)
        X509v3 extensions:
            Netscape Cert Type: 
                SSL Client
            X509v3 Subject Key Identifier: 
                56:4E:B2:AB:BD:49:9C:BC:DC:8F:87:61:88:4D:10:8D:E0:5A:02:57
            X509v3 Authority Key Identifier: 
                keyid:37:2E:7B:27:46:4B:CF:47:10:AC:2B:2E:BA:D0:F3:66:75:EB:52:75
                DirName:/CN=CALCUTTACA_CA/C=IN/O=CITRIX/OU=ANG/ST=KA/emailAddress=CALCUTTACA_CA@CALCUTTACA_mail.com
                serial:A5:C6:47:0E:E6:06:37:18

            Authority Information Access: 
                OCSP - URI:http://172.18.20.1/responderpath

    Signature Algorithm: sha256WithRSAEncryption
         72:5d:18:e8:9f:40:c1:7f:6f:2e:03:a6:c6:00:bd:36:75:1c:
         4e:15:6a:34:c7:c4:e5:56:7f:ba:0b:08:ae:47:45:78:44:77:
         1f:0f:5b:38:5e:31:bb:68:e4:bb:75:37:fe:63:b3:2e:6e:13:
         62:83:7e:5f:32:44:4f:9b:09:ad:45:70:bb:95:d9:37:a9:dc:
         32:67:42:2c:6e:08:ac:2e:de:5f:2f:39:d7:7b:a5:89:85:75:
         43:27:03:ee:2b:d3:f8:cb:fe:ba:04:5b:23:ba:6d:64:0f:45:
         6f:15:7e:f6:e8:02:5e:d2:3b:a4:5c:4f:4d:57:59:da:16:7f:
         e5:fb:56:a0:fa:86:9e:9c:b2:6f:97:25:05:04:4e:73:69:98:
         22:b8:80:9f:2c:0f:4c:34:dd:c7:0d:e3:29:10:07:02:a9:a4:
         75:21:79:17:ae:5f:92:53:36:4b:2a:5d:5e:23:d0:b5:68:d8:
         55:d7:59:ec:8a:0a:6d:dd:16:73:71:8b:59:13:82:fc:c6:74:
         1e:1d:23:9b:af:23:eb:c1:56:36:50:9a:df:20:28:b7:0f:28:
         4a:c9:e7:fc:26:19:52:76:b5:23:bb:0a:aa:a1:2f:b9:b7:fa:
         95:58:3f:dc:08:61:94:35:32:ac:c0:03:07:c9:6e:f7:9b:89:
         61:72:e0:46
-----BEGIN CERTIFICATE-----
MIIEpTCCA42gAwIBAgIGCgsMDQ5jMA0GCSqGSIb3DQEBCwUAMIGDMRYwFAYDVQQD
FA1DQUxDVVRUQUNBX0NBMQswCQYDVQQGEwJJTjEPMA0GA1UEChMGQ0lUUklYMQww
CgYDVQQLEwNBTkcxCzAJBgNVBAgTAktBMTAwLgYJKoZIhvcNAQkBFiFDQUxDVVRU
QUNBX0NBQENBTENVVFRBQ0FfbWFpbC5jb20wHhcNMTcwODIzMTAxNjEzWhcNMjcw
ODIxMTAxNjEzWjBwMQswCQYDVQQIEwJLQTELMAkGA1UEBhMCSU4xGzAZBgNVBAMU
EmNhbGN1dHRhXzQ1X2NsaWVudDEmMCQGCSqGSIb3DQEJARYXY2FsY3V0dGFfNDVA
dGVzdF9jYS5jb20xDzANBgNVBAoTBkNJVFJJWDCCASIwDQYJKoZIhvcNAQEBBQAD
ggEPADCCAQoCggEBAL8G++WPW1Dw984p1oC5uHN13bJrIJCMkMlm2K75kDuhLkJB
fQj50RGxc5Pe18Oo2bg6xZfV3bVaFgY8chlG6pev8/tMe4nIhLv0JI8gJM6Iq7Si
axN9C4/ioSm04rKZ1/Cdaio2JvS4IoX3dYRDiPdWvFasKVi5PQ6C09z7igXjC3Iv
NvKmJznjbBix8YWBKO2XoxqfaNS1lCsMKv9fIeSIgRk7r2ALwDZgH2IvHhJX+GJs
WmQsMXnkUJOnozgfD9xVROZUAQMBoT0BNbtGZ/nPmapfZWQxEyqfetIAYVRKAMqP
8OxQRs89dyd+oCFs/AEC/1VBXseW27hSbZTlsTECAwEAAaOCAS8wggErMBEGCWCG
SAGG+EIBAQQEAwIHgDAdBgNVHQ4EFgQUVk6yq71JnLzcj4dhiE0QjeBaAlcwgbgG
A1UdIwSBsDCBrYAUNy57J0ZLz0cQrCsuutDzZnXrUnWhgYmkgYYwgYMxFjAUBgNV
BAMUDUNBTENVVFRBQ0FfQ0ExCzAJBgNVBAYTAklOMQ8wDQYDVQQKEwZDSVRSSVgx
DDAKBgNVBAsTA0FORzELMAkGA1UECBMCS0ExMDAuBgkqhkiG9w0BCQEWIUNBTENV
VFRBQ0FfQ0FAQ0FMQ1VUVEFDQV9tYWlsLmNvbYIJAKXGRw7mBjcYMDwGCCsGAQUF
BwEBBDAwLjAsBggrBgEFBQcwAYYgaHR0cDovLzE3Mi4xOC4yMC4xL3Jlc3BvbmRl
cnBhdGgwDQYJKoZIhvcNAQELBQADggEBAHJdGOifQMF/by4DpsYAvTZ1HE4VajTH
xOVWf7oLCK5HRXhEdx8PWzheMbto5Lt1N/5jsy5uE2KDfl8yRE+bCa1FcLuV2Tep
3DJnQixuCKwu3l8vOdd7pYmFdUMnA+4r0/jL/roEWyO6bWQPRW8VfvboAl7SO6Rc
T01XWdoWf+X7VqD6hp6csm+XJQUETnNpmCK4gJ8sD0w03ccN4ykQBwKppHUheReu
X5JTNksqXV4j0LVo2FXXWeyKCm3dFnNxi1kTgvzGdB4dI5uvI+vBVjZQmt8gKLcP
KErJ5/wmGVJ2tSO7CqqhL7m3+pVYP9wIYZQ1MqzAAwfJbvebiWFy4EY=
-----END CERTIFICATE-----
