Certificate:
    Data:
        Version: 3 (0x2)
        Serial Number: 11042563100221 (0xa0b0c0d0e3d)
    Signature Algorithm: sha256WithRSAEncryption
        Issuer: CN=CALCUTTACA_CA, C=IN, O=CITRIX, OU=ANG, ST=KA/emailAddress=CALCUTTACA_CA@CALCUTTACA_mail.com
        Validity
            Not Before: Aug 23 10:15:49 2017 GMT
            Not After : Aug 21 10:15:49 2027 GMT
        Subject: ST=KA, C=IN, CN=calcutta_7_client/emailAddress=calcutta_7@test_ca.com, O=CITRIX
        Subject Public Key Info:
            Public Key Algorithm: rsaEncryption
                Public-Key: (2048 bit)
                Modulus:
                    00:eb:a5:57:00:b1:73:a4:22:02:a7:51:02:41:0a:
                    13:c6:e0:19:34:21:2f:7b:b3:7a:da:38:15:d4:b9:
                    66:9f:c5:8e:05:a3:b5:e8:4f:b3:43:df:46:b2:6a:
                    54:27:dd:87:f1:3f:3e:85:a1:f2:30:19:a0:df:d1:
                    35:b5:17:b2:8b:5e:b0:9e:ee:49:4f:ab:06:c8:75:
                    4d:54:e9:a1:33:77:e1:37:97:1e:17:73:6e:ec:59:
                    d9:d7:af:24:2e:09:e8:30:1c:f1:cf:ae:02:94:67:
                    2d:3e:75:ad:a9:30:b7:d2:ed:d0:c9:de:dd:7a:16:
                    a8:d6:03:d1:78:72:0c:f6:ab:98:bc:6a:3e:c0:39:
                    2f:7a:b2:36:00:08:d7:82:6c:1b:0b:f2:04:ec:38:
                    90:5d:53:77:75:ff:8b:57:35:ef:7e:8d:ab:a5:a0:
                    c3:cb:90:63:e0:ec:2f:38:42:86:76:ac:1e:09:2d:
                    3f:1c:8f:c3:79:7e:c7:ac:57:4a:e2:23:83:ea:b4:
                    e1:c3:7e:ce:09:c8:77:a2:01:3a:a4:97:4f:78:f6:
                    ad:d0:d0:db:99:a7:34:2f:0d:18:fe:ed:98:e3:6d:
                    fe:52:29:54:b4:35:3b:a0:57:49:54:a9:5e:7c:8d:
                    4e:69:8b:40:50:1b:59:06:30:ca:fc:8a:3a:13:a4:
                    f7:ff
                Exponent: 65537 (0x10001)
        X509v3 extensions:
            Netscape Cert Type: 
                SSL Client
            X509v3 Subject Key Identifier: 
                BC:F2:72:D0:6A:4C:A8:34:2E:DD:5F:FF:CD:E5:57:29:29:B1:FE:6A
            X509v3 Authority Key Identifier: 
                keyid:37:2E:7B:27:46:4B:CF:47:10:AC:2B:2E:BA:D0:F3:66:75:EB:52:75
                DirName:/CN=CALCUTTACA_CA/C=IN/O=CITRIX/OU=ANG/ST=KA/emailAddress=CALCUTTACA_CA@CALCUTTACA_mail.com
                serial:A5:C6:47:0E:E6:06:37:18

            Authority Information Access: 
                OCSP - URI:http://172.18.20.1/responderpath

    Signature Algorithm: sha256WithRSAEncryption
         42:8d:a7:a0:8a:df:2f:93:af:19:92:be:55:7b:ab:4f:ff:d7:
         e0:77:91:43:67:3a:ab:31:e0:ce:02:1d:b0:07:30:f1:37:39:
         f0:69:1f:94:15:09:da:8d:cb:81:0f:9f:99:de:43:62:37:e3:
         76:e3:7b:06:cf:06:26:cf:6d:fc:d7:04:c2:12:5f:d1:a4:f1:
         3e:50:b2:bf:72:4f:ba:8a:44:fd:fd:88:dc:6b:0a:a7:28:12:
         00:c2:19:48:f5:f6:a6:d5:b4:a2:89:ad:cf:be:a4:82:25:b3:
         2e:23:8f:62:97:4a:30:8a:1b:61:1d:b0:c8:ce:14:78:4f:8a:
         79:18:64:2f:30:c2:bc:c1:97:f3:21:f6:d7:80:3c:ef:55:e2:
         2b:8f:01:a0:da:96:10:98:d5:ce:cd:76:c2:82:76:e8:2c:45:
         c4:d5:73:c6:df:7f:ab:1a:c4:7d:a9:21:81:67:9f:07:9f:31:
         c3:4e:8a:f8:0e:eb:c6:99:a2:c5:e6:0a:82:47:0a:2e:87:51:
         36:f3:fa:fc:e9:08:8c:cd:17:88:6b:c0:30:4b:30:d7:56:98:
         01:dd:8a:cd:b2:d3:fb:91:fa:fa:20:89:76:13:8a:e4:f1:16:
         e6:e2:8d:94:bd:ff:94:fe:97:99:b7:52:30:f3:ad:68:a5:a6:
         76:42:9d:b0
-----BEGIN CERTIFICATE-----
MIIEozCCA4ugAwIBAgIGCgsMDQ49MA0GCSqGSIb3DQEBCwUAMIGDMRYwFAYDVQQD
FA1DQUxDVVRUQUNBX0NBMQswCQYDVQQGEwJJTjEPMA0GA1UEChMGQ0lUUklYMQww
CgYDVQQLEwNBTkcxCzAJBgNVBAgTAktBMTAwLgYJKoZIhvcNAQkBFiFDQUxDVVRU
QUNBX0NBQENBTENVVFRBQ0FfbWFpbC5jb20wHhcNMTcwODIzMTAxNTQ5WhcNMjcw
ODIxMTAxNTQ5WjBuMQswCQYDVQQIEwJLQTELMAkGA1UEBhMCSU4xGjAYBgNVBAMU
EWNhbGN1dHRhXzdfY2xpZW50MSUwIwYJKoZIhvcNAQkBFhZjYWxjdXR0YV83QHRl
c3RfY2EuY29tMQ8wDQYDVQQKEwZDSVRSSVgwggEiMA0GCSqGSIb3DQEBAQUAA4IB
DwAwggEKAoIBAQDrpVcAsXOkIgKnUQJBChPG4Bk0IS97s3raOBXUuWafxY4Fo7Xo
T7ND30ayalQn3YfxPz6FofIwGaDf0TW1F7KLXrCe7klPqwbIdU1U6aEzd+E3lx4X
c27sWdnXryQuCegwHPHPrgKUZy0+da2pMLfS7dDJ3t16FqjWA9F4cgz2q5i8aj7A
OS96sjYACNeCbBsL8gTsOJBdU3d1/4tXNe9+jauloMPLkGPg7C84QoZ2rB4JLT8c
j8N5fsesV0riI4PqtOHDfs4JyHeiATqkl0949q3Q0NuZpzQvDRj+7Zjjbf5SKVS0
NTugV0lUqV58jU5pi0BQG1kGMMr8ijoTpPf/AgMBAAGjggEvMIIBKzARBglghkgB
hvhCAQEEBAMCB4AwHQYDVR0OBBYEFLzyctBqTKg0Lt1f/83lVykpsf5qMIG4BgNV
HSMEgbAwga2AFDcueydGS89HEKwrLrrQ82Z161J1oYGJpIGGMIGDMRYwFAYDVQQD
FA1DQUxDVVRUQUNBX0NBMQswCQYDVQQGEwJJTjEPMA0GA1UEChMGQ0lUUklYMQww
CgYDVQQLEwNBTkcxCzAJBgNVBAgTAktBMTAwLgYJKoZIhvcNAQkBFiFDQUxDVVRU
QUNBX0NBQENBTENVVFRBQ0FfbWFpbC5jb22CCQClxkcO5gY3GDA8BggrBgEFBQcB
AQQwMC4wLAYIKwYBBQUHMAGGIGh0dHA6Ly8xNzIuMTguMjAuMS9yZXNwb25kZXJw
YXRoMA0GCSqGSIb3DQEBCwUAA4IBAQBCjaegit8vk68Zkr5Ve6tP/9fgd5FDZzqr
MeDOAh2wBzDxNznwaR+UFQnajcuBD5+Z3kNiN+N243sGzwYmz2381wTCEl/RpPE+
ULK/ck+6ikT9/YjcawqnKBIAwhlI9fam1bSiia3PvqSCJbMuI49il0owihthHbDI
zhR4T4p5GGQvMMK8wZfzIfbXgDzvVeIrjwGg2pYQmNXOzXbCgnboLEXE1XPG33+r
GsR9qSGBZ58HnzHDTor4DuvGmaLF5gqCRwouh1E28/r86QiMzReIa8AwSzDXVpgB
3YrNstP7kfr6IIl2E4rk8Rbm4o2Uvf+U/peZt1Iw861opaZ2Qp2w
-----END CERTIFICATE-----
