Certificate:
    Data:
        Version: 3 (0x2)
        Serial Number: 11042563100224 (0xa0b0c0d0e40)
    Signature Algorithm: sha256WithRSAEncryption
        Issuer: CN=CALCUTTACA_CA, C=IN, O=CITRIX, OU=ANG, ST=KA/emailAddress=CALCUTTACA_CA@CALCUTTACA_mail.com
        Validity
            Not Before: Aug 23 10:15:50 2017 GMT
            Not After : Aug 21 10:15:50 2027 GMT
        Subject: ST=KA, C=IN, CN=calcutta_10_client/emailAddress=calcutta_10@test_ca.com, O=CITRIX
        Subject Public Key Info:
            Public Key Algorithm: rsaEncryption
                Public-Key: (2048 bit)
                Modulus:
                    00:c5:0a:83:0e:67:0c:8e:a5:dc:01:05:51:77:1e:
                    a4:eb:00:a1:0d:3c:0b:06:ce:eb:8d:37:fe:a3:9c:
                    8e:29:a2:2c:17:87:42:79:17:0c:3e:6f:02:3a:2d:
                    00:5a:75:76:9a:02:2a:f1:d8:2e:7d:05:7c:bd:54:
                    a5:3f:8c:4b:d1:f6:a6:2c:cc:5a:4c:15:b4:4b:46:
                    2b:b6:4c:ea:bf:5b:32:e4:b7:3e:ba:91:3a:15:52:
                    20:fe:ba:2d:04:1b:75:33:ab:a4:67:09:0f:64:c9:
                    34:ec:c5:b9:b6:8e:3d:70:79:3f:60:b1:34:90:91:
                    c6:d9:0a:49:d5:df:9c:bd:a6:07:84:8e:ab:7b:4f:
                    12:c3:23:8e:df:b4:0c:e8:f5:79:8c:8b:49:4e:b7:
                    e4:2e:0a:a5:ba:e8:66:10:a7:42:ce:16:72:29:57:
                    e5:4c:0b:af:61:6a:72:d5:55:cb:31:a5:6e:25:ef:
                    fc:60:56:55:47:cc:67:9d:95:da:18:60:a8:17:b9:
                    b4:86:df:a6:08:d7:be:3f:d6:64:43:e2:dc:97:c9:
                    f7:39:0f:ec:24:5c:4c:1b:4c:81:2d:24:ef:aa:18:
                    5c:25:f7:f5:f7:73:de:17:92:3f:69:50:fd:f6:3f:
                    b0:0c:ff:69:91:ca:af:1b:10:dc:9a:5b:d8:53:55:
                    d9:07
                Exponent: 65537 (0x10001)
        X509v3 extensions:
            Netscape Cert Type: 
                SSL Client
            X509v3 Subject Key Identifier: 
                32:E7:20:A5:59:80:13:1F:3B:BD:D5:81:4B:90:1E:71:52:7E:A6:B5
            X509v3 Authority Key Identifier: 
                keyid:37:2E:7B:27:46:4B:CF:47:10:AC:2B:2E:BA:D0:F3:66:75:EB:52:75
                DirName:/CN=CALCUTTACA_CA/C=IN/O=CITRIX/OU=ANG/ST=KA/emailAddress=CALCUTTACA_CA@CALCUTTACA_mail.com
                serial:A5:C6:47:0E:E6:06:37:18

            Authority Information Access: 
                OCSP - URI:http://172.18.20.1/responderpath

    Signature Algorithm: sha256WithRSAEncryption
         24:8f:08:d2:8c:bf:ef:ca:bf:4c:6c:9f:ce:83:44:f0:1d:9a:
         c0:99:09:1f:3c:41:d2:68:a8:29:f5:3e:64:2c:c1:54:e4:27:
         be:14:8d:7a:b5:6e:e0:14:74:f4:a1:d7:24:53:40:a1:c5:95:
         4b:a5:1a:00:5f:91:11:e5:29:1f:d4:ea:dd:55:e7:14:52:71:
         84:2f:96:2c:e7:06:36:75:40:f4:3a:97:9b:1e:43:a5:80:76:
         c6:4f:a9:a3:aa:cb:2a:3d:a3:25:25:39:0d:14:e5:ce:b9:77:
         2f:b8:12:d7:58:5a:87:71:f7:6e:3d:56:02:47:4a:d3:bb:47:
         fa:b7:79:1b:14:4e:fa:cb:83:62:67:cd:8f:e6:ef:1a:aa:d4:
         d0:aa:43:e8:94:ce:46:fb:d7:38:62:72:c5:bf:54:65:c1:6d:
         82:41:41:7e:7a:89:dc:4e:6d:3a:0a:86:3a:ac:dc:c7:44:36:
         2c:87:80:78:80:15:b4:f6:a5:d5:3a:7f:cc:4c:a4:2a:cd:5c:
         32:5d:36:98:f2:67:39:66:a4:9e:e7:41:aa:f9:48:02:21:e8:
         a6:39:6d:14:4d:61:f7:25:bf:33:40:5b:a8:15:86:41:62:d1:
         bb:7f:13:d0:5e:83:71:85:56:ba:3b:ec:3b:b7:00:a9:b3:65:
         3d:3e:ae:14
-----BEGIN CERTIFICATE-----
MIIEpTCCA42gAwIBAgIGCgsMDQ5AMA0GCSqGSIb3DQEBCwUAMIGDMRYwFAYDVQQD
FA1DQUxDVVRUQUNBX0NBMQswCQYDVQQGEwJJTjEPMA0GA1UEChMGQ0lUUklYMQww
CgYDVQQLEwNBTkcxCzAJBgNVBAgTAktBMTAwLgYJKoZIhvcNAQkBFiFDQUxDVVRU
QUNBX0NBQENBTENVVFRBQ0FfbWFpbC5jb20wHhcNMTcwODIzMTAxNTUwWhcNMjcw
ODIxMTAxNTUwWjBwMQswCQYDVQQIEwJLQTELMAkGA1UEBhMCSU4xGzAZBgNVBAMU
EmNhbGN1dHRhXzEwX2NsaWVudDEmMCQGCSqGSIb3DQEJARYXY2FsY3V0dGFfMTBA
dGVzdF9jYS5jb20xDzANBgNVBAoTBkNJVFJJWDCCASIwDQYJKoZIhvcNAQEBBQAD
ggEPADCCAQoCggEBAMUKgw5nDI6l3AEFUXcepOsAoQ08CwbO6403/qOcjimiLBeH
QnkXDD5vAjotAFp1dpoCKvHYLn0FfL1UpT+MS9H2pizMWkwVtEtGK7ZM6r9bMuS3
PrqROhVSIP66LQQbdTOrpGcJD2TJNOzFubaOPXB5P2CxNJCRxtkKSdXfnL2mB4SO
q3tPEsMjjt+0DOj1eYyLSU635C4KpbroZhCnQs4WcilX5UwLr2FqctVVyzGlbiXv
/GBWVUfMZ52V2hhgqBe5tIbfpgjXvj/WZEPi3JfJ9zkP7CRcTBtMgS0k76oYXCX3
9fdz3heSP2lQ/fY/sAz/aZHKrxsQ3Jpb2FNV2QcCAwEAAaOCAS8wggErMBEGCWCG
SAGG+EIBAQQEAwIHgDAdBgNVHQ4EFgQUMucgpVmAEx87vdWBS5AecVJ+prUwgbgG
A1UdIwSBsDCBrYAUNy57J0ZLz0cQrCsuutDzZnXrUnWhgYmkgYYwgYMxFjAUBgNV
BAMUDUNBTENVVFRBQ0FfQ0ExCzAJBgNVBAYTAklOMQ8wDQYDVQQKEwZDSVRSSVgx
DDAKBgNVBAsTA0FORzELMAkGA1UECBMCS0ExMDAuBgkqhkiG9w0BCQEWIUNBTENV
VFRBQ0FfQ0FAQ0FMQ1VUVEFDQV9tYWlsLmNvbYIJAKXGRw7mBjcYMDwGCCsGAQUF
BwEBBDAwLjAsBggrBgEFBQcwAYYgaHR0cDovLzE3Mi4xOC4yMC4xL3Jlc3BvbmRl
cnBhdGgwDQYJKoZIhvcNAQELBQADggEBACSPCNKMv+/Kv0xsn86DRPAdmsCZCR88
QdJoqCn1PmQswVTkJ74UjXq1buAUdPSh1yRTQKHFlUulGgBfkRHlKR/U6t1V5xRS
cYQvliznBjZ1QPQ6l5seQ6WAdsZPqaOqyyo9oyUlOQ0U5c65dy+4EtdYWodx9249
VgJHStO7R/q3eRsUTvrLg2JnzY/m7xqq1NCqQ+iUzkb71zhicsW/VGXBbYJBQX56
idxObToKhjqs3MdENiyHgHiAFbT2pdU6f8xMpCrNXDJdNpjyZzlmpJ7nQar5SAIh
6KY5bRRNYfclvzNAW6gVhkFi0bt/E9Beg3GFVro77Du3AKmzZT0+rhQ=
-----END CERTIFICATE-----
