Certificate:
    Data:
        Version: 3 (0x2)
        Serial Number: 11042563100258 (0xa0b0c0d0e62)
    Signature Algorithm: sha256WithRSAEncryption
        Issuer: CN=CALCUTTACA_CA, C=IN, O=CITRIX, OU=ANG, ST=KA/emailAddress=CALCUTTACA_CA@CALCUTTACA_mail.com
        Validity
            Not Before: Aug 23 10:16:12 2017 GMT
            Not After : Aug 21 10:16:12 2027 GMT
        Subject: ST=KA, C=IN, CN=calcutta_44_client/emailAddress=calcutta_44@test_ca.com, O=CITRIX
        Subject Public Key Info:
            Public Key Algorithm: rsaEncryption
                Public-Key: (2048 bit)
                Modulus:
                    00:b3:2b:bc:df:bf:4e:70:bb:c4:e0:8a:47:cb:37:
                    90:3a:8e:9b:11:34:dd:cc:90:bf:59:f1:56:9c:5b:
                    13:b2:5f:c0:6a:48:46:c8:e7:bc:80:2d:0d:33:73:
                    9a:5c:a5:ad:fa:05:82:ca:d6:f2:b3:ad:92:89:03:
                    cb:8f:ed:64:dd:50:bc:2c:5d:3c:63:83:14:ff:ff:
                    35:27:22:07:71:1e:ba:28:5a:b3:c8:eb:d6:1b:5c:
                    67:0f:a2:92:f9:98:ff:0c:45:1b:3d:ad:0c:11:ac:
                    0d:5f:7e:e2:37:6a:1a:ae:e4:09:5f:6a:27:83:db:
                    a8:19:18:1d:2e:60:2b:e6:66:c5:91:ef:b9:95:81:
                    25:3d:7f:4c:b7:29:45:f6:cf:67:5c:1a:5b:61:a0:
                    51:0c:16:23:ba:21:e7:7a:1c:64:c7:0f:2c:b1:23:
                    68:11:f8:c7:7a:35:3c:93:12:36:04:8d:fa:07:b3:
                    48:17:d0:df:40:03:24:59:6d:b2:1d:88:44:db:fd:
                    ce:9c:17:02:25:6a:16:76:bf:57:92:b4:55:ce:28:
                    1c:d1:40:94:f8:f4:73:b6:23:23:02:e3:bf:8c:54:
                    7c:ed:1f:0e:0e:99:ce:c3:3d:c5:0a:a6:0d:ea:05:
                    eb:15:84:4f:a3:36:02:96:32:e8:38:13:68:cb:1d:
                    e2:ff
                Exponent: 65537 (0x10001)
        X509v3 extensions:
            Netscape Cert Type: 
                SSL Client
            X509v3 Subject Key Identifier: 
                80:33:EE:E2:37:79:BA:21:C9:61:10:9E:29:83:32:B0:C0:25:5E:37
            X509v3 Authority Key Identifier: 
                keyid:37:2E:7B:27:46:4B:CF:47:10:AC:2B:2E:BA:D0:F3:66:75:EB:52:75
                DirName:/CN=CALCUTTACA_CA/C=IN/O=CITRIX/OU=ANG/ST=KA/emailAddress=CALCUTTACA_CA@CALCUTTACA_mail.com
                serial:A5:C6:47:0E:E6:06:37:18

            Authority Information Access: 
                OCSP - URI:http://172.18.20.1/responderpath

    Signature Algorithm: sha256WithRSAEncryption
         27:48:a7:0f:f5:15:d9:e5:8e:bd:fe:76:ff:74:41:33:a1:a0:
         29:b3:b5:38:61:e4:5a:bc:14:bc:f4:86:94:72:5b:d7:dc:b9:
         20:f5:11:03:80:57:9d:56:cf:a3:28:05:30:81:ee:07:9a:45:
         f1:f0:9d:cc:67:2f:ea:79:80:ed:a9:2e:3d:69:67:f1:60:c6:
         04:93:27:2b:36:dd:02:e8:2f:86:2b:ba:39:f9:94:85:30:94:
         9d:7a:4e:16:f1:fe:be:7a:56:c0:6a:f8:de:a6:f3:e8:94:86:
         72:8c:57:83:a0:cf:d2:bc:7e:d6:c8:2a:e9:c1:39:22:75:46:
         29:3c:c4:08:3f:92:88:d6:2a:11:bb:0b:f5:95:d2:ed:79:f5:
         a1:7d:f2:f4:0e:82:55:86:aa:0e:81:51:3f:47:61:b1:97:b2:
         39:aa:4d:60:d0:f3:eb:a9:04:87:b9:6d:4e:b8:26:0e:43:af:
         de:d4:22:c1:1e:4d:9d:73:bd:92:ce:d7:95:18:1e:36:40:2a:
         96:99:1b:a4:10:8a:c2:e6:09:79:a8:b2:5c:ac:28:b3:7e:c0:
         f8:ad:c5:0a:de:dc:4d:e7:99:ac:57:f4:d5:d7:de:c7:fb:47:
         ef:be:52:0f:f2:ad:2b:23:8b:ad:8d:57:97:44:0a:ab:d7:db:
         d2:be:ae:2d
-----BEGIN CERTIFICATE-----
MIIEpTCCA42gAwIBAgIGCgsMDQ5iMA0GCSqGSIb3DQEBCwUAMIGDMRYwFAYDVQQD
FA1DQUxDVVRUQUNBX0NBMQswCQYDVQQGEwJJTjEPMA0GA1UEChMGQ0lUUklYMQww
CgYDVQQLEwNBTkcxCzAJBgNVBAgTAktBMTAwLgYJKoZIhvcNAQkBFiFDQUxDVVRU
QUNBX0NBQENBTENVVFRBQ0FfbWFpbC5jb20wHhcNMTcwODIzMTAxNjEyWhcNMjcw
ODIxMTAxNjEyWjBwMQswCQYDVQQIEwJLQTELMAkGA1UEBhMCSU4xGzAZBgNVBAMU
EmNhbGN1dHRhXzQ0X2NsaWVudDEmMCQGCSqGSIb3DQEJARYXY2FsY3V0dGFfNDRA
dGVzdF9jYS5jb20xDzANBgNVBAoTBkNJVFJJWDCCASIwDQYJKoZIhvcNAQEBBQAD
ggEPADCCAQoCggEBALMrvN+/TnC7xOCKR8s3kDqOmxE03cyQv1nxVpxbE7JfwGpI
RsjnvIAtDTNzmlylrfoFgsrW8rOtkokDy4/tZN1QvCxdPGODFP//NSciB3Eeuiha
s8jr1htcZw+ikvmY/wxFGz2tDBGsDV9+4jdqGq7kCV9qJ4PbqBkYHS5gK+ZmxZHv
uZWBJT1/TLcpRfbPZ1waW2GgUQwWI7oh53ocZMcPLLEjaBH4x3o1PJMSNgSN+gez
SBfQ30ADJFltsh2IRNv9zpwXAiVqFna/V5K0Vc4oHNFAlPj0c7YjIwLjv4xUfO0f
Dg6ZzsM9xQqmDeoF6xWET6M2ApYy6DgTaMsd4v8CAwEAAaOCAS8wggErMBEGCWCG
SAGG+EIBAQQEAwIHgDAdBgNVHQ4EFgQUgDPu4jd5uiHJYRCeKYMysMAlXjcwgbgG
A1UdIwSBsDCBrYAUNy57J0ZLz0cQrCsuutDzZnXrUnWhgYmkgYYwgYMxFjAUBgNV
BAMUDUNBTENVVFRBQ0FfQ0ExCzAJBgNVBAYTAklOMQ8wDQYDVQQKEwZDSVRSSVgx
DDAKBgNVBAsTA0FORzELMAkGA1UECBMCS0ExMDAuBgkqhkiG9w0BCQEWIUNBTENV
VFRBQ0FfQ0FAQ0FMQ1VUVEFDQV9tYWlsLmNvbYIJAKXGRw7mBjcYMDwGCCsGAQUF
BwEBBDAwLjAsBggrBgEFBQcwAYYgaHR0cDovLzE3Mi4xOC4yMC4xL3Jlc3BvbmRl
cnBhdGgwDQYJKoZIhvcNAQELBQADggEBACdIpw/1Fdnljr3+dv90QTOhoCmztThh
5Fq8FLz0hpRyW9fcuSD1EQOAV51Wz6MoBTCB7geaRfHwncxnL+p5gO2pLj1pZ/Fg
xgSTJys23QLoL4Yrujn5lIUwlJ16Thbx/r56VsBq+N6m8+iUhnKMV4Ogz9K8ftbI
KunBOSJ1Rik8xAg/kojWKhG7C/WV0u159aF98vQOglWGqg6BUT9HYbGXsjmqTWDQ
8+upBIe5bU64Jg5Dr97UIsEeTZ1zvZLO15UYHjZAKpaZG6QQisLmCXmoslysKLN+
wPitxQre3E3nmaxX9NXX3sf7R+++Ug/yrSsji62NV5dECqvX29K+ri0=
-----END CERTIFICATE-----
