Certificate:
    Data:
        Version: 3 (0x2)
        Serial Number: 11042563100260 (0xa0b0c0d0e64)
    Signature Algorithm: sha256WithRSAEncryption
        Issuer: CN=CALCUTTACA_CA, C=IN, O=CITRIX, OU=ANG, ST=KA/emailAddress=CALCUTTACA_CA@CALCUTTACA_mail.com
        Validity
            Not Before: Aug 23 10:16:13 2017 GMT
            Not After : Aug 21 10:16:13 2027 GMT
        Subject: ST=KA, C=IN, CN=calcutta_46_client/emailAddress=calcutta_46@test_ca.com, O=CITRIX
        Subject Public Key Info:
            Public Key Algorithm: rsaEncryption
                Public-Key: (2048 bit)
                Modulus:
                    00:cc:0f:6c:64:21:0a:ac:03:e1:ba:ca:32:a8:4f:
                    96:ff:c0:00:98:91:7f:f2:b8:f9:e1:db:95:1f:45:
                    1a:01:d3:98:a9:ed:e3:b9:65:a4:73:c6:3a:d3:cf:
                    36:02:c7:b6:fc:07:71:17:8b:51:0f:9a:52:c1:52:
                    43:b2:e8:c1:81:f4:a6:f2:65:08:da:3a:39:67:75:
                    05:26:4e:01:85:46:d0:c6:2b:2c:b3:6e:1e:83:97:
                    de:3e:f5:c8:e7:1c:6c:11:57:46:ed:7c:34:54:38:
                    3c:a4:42:80:e2:c0:b3:ba:dd:52:33:d9:81:84:c6:
                    b0:73:c2:39:35:ab:7d:a0:c2:9b:fe:9a:1d:90:a8:
                    fa:8b:b1:8e:a7:68:ac:51:50:8d:1d:bf:a9:a8:d7:
                    eb:38:92:a3:f8:a6:42:0a:6a:d8:3b:92:e2:5f:c5:
                    cf:2e:0d:1b:78:cc:1d:a8:5f:33:61:dc:83:15:fa:
                    93:be:7c:9a:8d:32:57:92:50:19:52:eb:31:ef:c1:
                    08:57:bb:7b:78:bb:c9:5f:b4:07:94:d3:40:6f:ab:
                    4f:22:fd:cf:1f:8b:7a:98:ed:61:44:78:fa:d3:16:
                    ed:a0:33:00:2a:c1:5d:71:64:e9:48:1b:e4:45:db:
                    71:e6:02:4d:45:26:f3:21:c3:8b:8e:85:ae:bc:30:
                    89:15
                Exponent: 65537 (0x10001)
        X509v3 extensions:
            Netscape Cert Type: 
                SSL Client
            X509v3 Subject Key Identifier: 
                AA:40:FC:C4:E5:47:FF:F1:B3:25:17:7C:BA:31:AB:75:F3:F1:4E:43
            X509v3 Authority Key Identifier: 
                keyid:37:2E:7B:27:46:4B:CF:47:10:AC:2B:2E:BA:D0:F3:66:75:EB:52:75
                DirName:/CN=CALCUTTACA_CA/C=IN/O=CITRIX/OU=ANG/ST=KA/emailAddress=CALCUTTACA_CA@CALCUTTACA_mail.com
                serial:A5:C6:47:0E:E6:06:37:18

            Authority Information Access: 
                OCSP - URI:http://172.18.20.1/responderpath

    Signature Algorithm: sha256WithRSAEncryption
         64:37:b0:2b:92:98:7b:0a:5e:09:56:54:3e:98:73:e9:e7:43:
         ef:f3:f8:dd:b7:64:26:4d:a3:c7:6b:6a:ca:dc:b2:4f:95:4e:
         fb:3b:fd:f6:7e:66:f6:62:8c:1c:d5:3b:3c:93:ce:78:6a:79:
         5d:7a:e8:0d:b4:6a:63:30:d4:51:e6:f6:02:23:dd:23:8d:a8:
         72:71:9e:15:8b:16:d8:7e:a6:f8:3c:c4:4a:9b:98:cb:f3:c3:
         21:60:e3:4f:39:7e:ec:ff:54:10:e1:1f:88:10:44:23:32:31:
         f6:ae:2e:7f:1e:a9:9e:21:ff:86:72:15:1a:4b:22:84:78:d3:
         3b:38:c7:2e:53:1f:68:7f:9b:ed:9f:b2:f9:46:62:60:80:81:
         3b:4e:fa:6e:e4:3d:10:ef:65:ee:f2:74:52:10:26:40:09:02:
         62:50:a9:b9:bf:99:f0:ec:56:3b:63:fd:98:b6:b2:ec:b1:0a:
         bb:01:f7:bb:0a:1c:21:cd:e4:47:b9:5e:72:f2:8c:73:be:b1:
         65:54:eb:44:c7:a8:74:cb:ac:9c:ba:f8:67:fd:cf:40:c3:f7:
         76:61:bb:2d:99:d9:84:35:fd:ff:a7:cc:f7:c6:21:42:49:af:
         52:db:97:bd:c5:d2:f8:bc:a1:fa:61:d6:17:b3:33:cd:a9:40:
         81:95:c7:37
-----BEGIN CERTIFICATE-----
MIIEpTCCA42gAwIBAgIGCgsMDQ5kMA0GCSqGSIb3DQEBCwUAMIGDMRYwFAYDVQQD
FA1DQUxDVVRUQUNBX0NBMQswCQYDVQQGEwJJTjEPMA0GA1UEChMGQ0lUUklYMQww
CgYDVQQLEwNBTkcxCzAJBgNVBAgTAktBMTAwLgYJKoZIhvcNAQkBFiFDQUxDVVRU
QUNBX0NBQENBTENVVFRBQ0FfbWFpbC5jb20wHhcNMTcwODIzMTAxNjEzWhcNMjcw
ODIxMTAxNjEzWjBwMQswCQYDVQQIEwJLQTELMAkGA1UEBhMCSU4xGzAZBgNVBAMU
EmNhbGN1dHRhXzQ2X2NsaWVudDEmMCQGCSqGSIb3DQEJARYXY2FsY3V0dGFfNDZA
dGVzdF9jYS5jb20xDzANBgNVBAoTBkNJVFJJWDCCASIwDQYJKoZIhvcNAQEBBQAD
ggEPADCCAQoCggEBAMwPbGQhCqwD4brKMqhPlv/AAJiRf/K4+eHblR9FGgHTmKnt
47llpHPGOtPPNgLHtvwHcReLUQ+aUsFSQ7LowYH0pvJlCNo6OWd1BSZOAYVG0MYr
LLNuHoOX3j71yOccbBFXRu18NFQ4PKRCgOLAs7rdUjPZgYTGsHPCOTWrfaDCm/6a
HZCo+ouxjqdorFFQjR2/qajX6ziSo/imQgpq2DuS4l/Fzy4NG3jMHahfM2HcgxX6
k758mo0yV5JQGVLrMe/BCFe7e3i7yV+0B5TTQG+rTyL9zx+LepjtYUR4+tMW7aAz
ACrBXXFk6Ugb5EXbceYCTUUm8yHDi46FrrwwiRUCAwEAAaOCAS8wggErMBEGCWCG
SAGG+EIBAQQEAwIHgDAdBgNVHQ4EFgQUqkD8xOVH//GzJRd8ujGrdfPxTkMwgbgG
A1UdIwSBsDCBrYAUNy57J0ZLz0cQrCsuutDzZnXrUnWhgYmkgYYwgYMxFjAUBgNV
BAMUDUNBTENVVFRBQ0FfQ0ExCzAJBgNVBAYTAklOMQ8wDQYDVQQKEwZDSVRSSVgx
DDAKBgNVBAsTA0FORzELMAkGA1UECBMCS0ExMDAuBgkqhkiG9w0BCQEWIUNBTENV
VFRBQ0FfQ0FAQ0FMQ1VUVEFDQV9tYWlsLmNvbYIJAKXGRw7mBjcYMDwGCCsGAQUF
BwEBBDAwLjAsBggrBgEFBQcwAYYgaHR0cDovLzE3Mi4xOC4yMC4xL3Jlc3BvbmRl
cnBhdGgwDQYJKoZIhvcNAQELBQADggEBAGQ3sCuSmHsKXglWVD6Yc+nnQ+/z+N23
ZCZNo8drasrcsk+VTvs7/fZ+ZvZijBzVOzyTznhqeV166A20amMw1FHm9gIj3SON
qHJxnhWLFth+pvg8xEqbmMvzwyFg4085fuz/VBDhH4gQRCMyMfauLn8eqZ4h/4Zy
FRpLIoR40zs4xy5TH2h/m+2fsvlGYmCAgTtO+m7kPRDvZe7ydFIQJkAJAmJQqbm/
mfDsVjtj/Zi2suyxCrsB97sKHCHN5Ee5XnLyjHO+sWVU60THqHTLrJy6+Gf9z0DD
93Zhuy2Z2YQ1/f+nzPfGIUJJr1Lbl73F0vi8ofph1hezM82pQIGVxzc=
-----END CERTIFICATE-----
