Certificate:
    Data:
        Version: 3 (0x2)
        Serial Number: 11042563100199 (0xa0b0c0d0e27)
    Signature Algorithm: sha256WithRSAEncryption
        Issuer: CN=CALCUTTACA_CA, C=IN, O=CITRIX, OU=ANG, ST=KA/emailAddress=CALCUTTACA_CA@CALCUTTACA_mail.com
        Validity
            Not Before: Jul  8 04:33:09 2016 GMT
            Not After : Jul  6 04:33:09 2026 GMT
        Subject: ST=KA, C=IN, CN=125_CALCUTTACA_server/emailAddress=125_CALCUTTACA@test_ca.com, O=CITRIX
        Subject Public Key Info:
            Public Key Algorithm: rsaEncryption
                Public-Key: (2048 bit)
                Modulus:
                    00:bc:bb:30:ac:f4:24:4f:19:62:e3:5d:fd:b6:76:
                    6b:b4:fc:8a:d7:11:43:2b:aa:48:d1:22:f6:75:ae:
                    30:c2:48:33:39:cc:34:93:76:02:00:84:12:09:14:
                    f3:7d:06:53:40:1f:de:10:cc:59:f0:e0:25:63:62:
                    53:0b:c8:b4:c6:a2:e8:26:3b:62:e5:9f:3d:c8:3f:
                    7c:40:10:95:7f:12:7a:20:98:98:55:3d:49:1d:98:
                    cd:b6:a9:55:79:9e:a3:b7:b8:d2:73:4e:07:e5:3b:
                    eb:83:02:06:4d:51:7c:e8:d8:59:96:18:1b:b8:52:
                    ff:ed:7b:9d:51:f3:7c:22:8a:bb:da:d6:c7:5b:88:
                    7e:93:97:98:e7:f3:dd:c9:0d:8a:63:68:e2:44:42:
                    06:ce:06:db:ee:c2:5e:2c:42:66:b3:2c:4d:fb:88:
                    e6:04:20:d5:c2:04:92:cb:ce:a2:ef:fe:27:bc:c6:
                    73:43:24:27:6d:ee:95:71:bf:4e:82:48:01:09:ba:
                    67:45:a1:4a:86:60:c9:59:6b:20:10:93:a6:7c:85:
                    1d:fb:55:e7:ad:1d:6b:b6:19:64:0c:7f:f7:ce:09:
                    6f:dd:3b:0c:2f:65:a7:31:4b:0c:80:1e:eb:af:b2:
                    91:db:ee:7a:eb:90:4f:7d:6c:79:78:08:1e:a6:d2:
                    7e:81
                Exponent: 65537 (0x10001)
        X509v3 extensions:
            Netscape Cert Type: 
                SSL Server
            X509v3 Subject Key Identifier: 
                63:BD:28:1F:67:DA:48:6A:88:5B:33:0D:60:9F:62:B5:5F:7E:FF:4A
            X509v3 Authority Key Identifier: 
                keyid:37:2E:7B:27:46:4B:CF:47:10:AC:2B:2E:BA:D0:F3:66:75:EB:52:75
                DirName:/CN=CALCUTTACA_CA/C=IN/O=CITRIX/OU=ANG/ST=KA/emailAddress=CALCUTTACA_CA@CALCUTTACA_mail.com
                serial:A5:C6:47:0E:E6:06:37:18

            Authority Information Access: 
                OCSP - URI:http://172.18.10.1/responderpath

    Signature Algorithm: sha256WithRSAEncryption
         03:00:70:f0:c3:ca:a2:91:6f:0d:c3:1f:5a:82:bf:88:25:79:
         dd:84:d7:7b:ce:47:d3:e8:83:29:80:ac:83:93:8f:42:f0:93:
         2a:ae:bd:00:fe:2b:4c:cc:98:12:bc:41:a8:b7:39:07:4d:c7:
         c5:eb:52:4e:3d:fd:f5:16:bc:5f:7d:4a:4b:64:2d:e9:39:cf:
         1d:10:b2:c7:1d:f7:1e:19:ce:9d:99:9e:af:d8:2a:c3:96:9c:
         6a:c3:e1:cb:10:0f:d2:e2:96:3e:b4:6f:a2:69:ef:8d:c6:22:
         41:fd:79:4a:c4:40:00:7f:3a:bf:4a:03:84:a6:45:94:18:34:
         08:11:d5:cf:3e:b5:d9:c9:79:83:a8:00:0d:5d:bd:f2:39:79:
         fd:d4:14:11:1c:3f:51:df:55:72:ab:2e:cb:09:cc:3e:aa:41:
         92:fc:35:f6:81:ea:0d:ac:cc:80:40:9c:8f:67:ca:6f:22:20:
         20:db:49:5d:bd:4d:50:b4:ab:a3:69:c1:1b:45:31:fd:ac:ad:
         e2:be:dc:1b:03:de:06:ea:61:b8:7c:9a:6f:1a:a2:49:34:b6:
         25:f3:de:bd:fc:66:0d:e8:2a:f0:c7:ed:14:6f:c2:ae:7d:2b:
         ce:cc:ec:36:2f:7b:bb:b5:a5:a1:61:ab:84:91:76:5c:cb:b3:
         c6:f6:65:aa
-----BEGIN CERTIFICATE-----
MIIEqzCCA5OgAwIBAgIGCgsMDQ4nMA0GCSqGSIb3DQEBCwUAMIGDMRYwFAYDVQQD
FA1DQUxDVVRUQUNBX0NBMQswCQYDVQQGEwJJTjEPMA0GA1UEChMGQ0lUUklYMQww
CgYDVQQLEwNBTkcxCzAJBgNVBAgTAktBMTAwLgYJKoZIhvcNAQkBFiFDQUxDVVRU
QUNBX0NBQENBTENVVFRBQ0FfbWFpbC5jb20wHhcNMTYwNzA4MDQzMzA5WhcNMjYw
NzA2MDQzMzA5WjB2MQswCQYDVQQIEwJLQTELMAkGA1UEBhMCSU4xHjAcBgNVBAMU
FTEyNV9DQUxDVVRUQUNBX3NlcnZlcjEpMCcGCSqGSIb3DQEJARYaMTI1X0NBTENV
VFRBQ0FAdGVzdF9jYS5jb20xDzANBgNVBAoTBkNJVFJJWDCCASIwDQYJKoZIhvcN
AQEBBQADggEPADCCAQoCggEBALy7MKz0JE8ZYuNd/bZ2a7T8itcRQyuqSNEi9nWu
MMJIMznMNJN2AgCEEgkU830GU0Af3hDMWfDgJWNiUwvItMai6CY7YuWfPcg/fEAQ
lX8SeiCYmFU9SR2YzbapVXmeo7e40nNOB+U764MCBk1RfOjYWZYYG7hS/+17nVHz
fCKKu9rWx1uIfpOXmOfz3ckNimNo4kRCBs4G2+7CXixCZrMsTfuI5gQg1cIEksvO
ou/+J7zGc0MkJ23ulXG/ToJIAQm6Z0WhSoZgyVlrIBCTpnyFHftV560da7YZZAx/
984Jb907DC9lpzFLDIAe66+ykdvueuuQT31seXgIHqbSfoECAwEAAaOCAS8wggEr
MBEGCWCGSAGG+EIBAQQEAwIGQDAdBgNVHQ4EFgQUY70oH2faSGqIWzMNYJ9itV9+
/0owgbgGA1UdIwSBsDCBrYAUNy57J0ZLz0cQrCsuutDzZnXrUnWhgYmkgYYwgYMx
FjAUBgNVBAMUDUNBTENVVFRBQ0FfQ0ExCzAJBgNVBAYTAklOMQ8wDQYDVQQKEwZD
SVRSSVgxDDAKBgNVBAsTA0FORzELMAkGA1UECBMCS0ExMDAuBgkqhkiG9w0BCQEW
IUNBTENVVFRBQ0FfQ0FAQ0FMQ1VUVEFDQV9tYWlsLmNvbYIJAKXGRw7mBjcYMDwG
CCsGAQUFBwEBBDAwLjAsBggrBgEFBQcwAYYgaHR0cDovLzE3Mi4xOC4xMC4xL3Jl
c3BvbmRlcnBhdGgwDQYJKoZIhvcNAQELBQADggEBAAMAcPDDyqKRbw3DH1qCv4gl
ed2E13vOR9PogymArIOTj0LwkyquvQD+K0zMmBK8Qai3OQdNx8XrUk49/fUWvF99
SktkLek5zx0Qsscd9x4Zzp2Znq/YKsOWnGrD4csQD9Lilj60b6Jp743GIkH9eUrE
QAB/Or9KA4SmRZQYNAgR1c8+tdnJeYOoAA1dvfI5ef3UFBEcP1HfVXKrLssJzD6q
QZL8NfaB6g2szIBAnI9nym8iICDbSV29TVC0q6NpwRtFMf2sreK+3BsD3gbqYbh8
mm8aokk0tiXz3r38Zg3oKvDH7RRvwq59K87M7DYve7u1paFhq4SRdlzLs8b2Zao=
-----END CERTIFICATE-----
