Certificate:
    Data:
        Version: 3 (0x2)
        Serial Number: 11042563100216 (0xa0b0c0d0e38)
    Signature Algorithm: sha256WithRSAEncryption
        Issuer: CN=CALCUTTACA_CA, C=IN, O=CITRIX, OU=ANG, ST=KA/emailAddress=CALCUTTACA_CA@CALCUTTACA_mail.com
        Validity
            Not Before: Aug 23 10:15:45 2017 GMT
            Not After : Aug 21 10:15:45 2027 GMT
        Subject: ST=KA, C=IN, CN=calcutta_2_client/emailAddress=calcutta_2@test_ca.com, O=CITRIX
        Subject Public Key Info:
            Public Key Algorithm: rsaEncryption
                Public-Key: (2048 bit)
                Modulus:
                    00:e2:ef:52:73:df:35:e3:d5:7e:22:03:8e:1f:cc:
                    66:cc:b0:ad:f7:2b:13:b2:85:f5:c6:20:1f:ea:95:
                    30:a2:62:b5:4a:b2:2e:a1:d4:b8:6c:4b:72:a7:03:
                    25:bc:c4:92:e5:72:62:b5:ca:69:0f:df:5d:54:a7:
                    d2:96:8d:fb:31:56:6c:7c:c2:a8:e9:e7:45:48:38:
                    c2:f1:f0:79:31:22:3e:4d:d3:a7:af:14:1a:90:7b:
                    7b:0c:82:d5:02:9a:9b:10:c4:6d:93:a5:2f:1f:54:
                    a3:ac:96:4f:ce:64:46:fd:c3:bf:9f:fd:1e:8b:42:
                    d4:05:ab:f7:51:63:01:b8:95:b5:37:03:b4:74:1e:
                    fa:4d:d0:77:4b:03:04:5f:4b:df:2c:f6:7d:70:66:
                    d6:a0:4c:e0:33:67:c3:bc:b6:a4:ef:0b:c2:a5:ae:
                    d7:7a:84:e6:26:38:32:27:cc:9e:07:16:f7:48:15:
                    11:1e:98:23:bb:3a:1a:be:61:fb:12:2f:1d:3c:14:
                    47:57:75:e5:fd:e5:4f:92:bc:19:6e:64:39:61:8f:
                    80:fc:4d:4a:e4:31:59:75:24:4f:78:b9:4c:8a:b0:
                    a6:e8:c3:bf:8a:06:b2:ce:47:92:4d:e9:ca:b4:50:
                    a3:25:06:da:ed:5d:a9:a2:de:d3:71:ef:1d:59:b0:
                    87:95
                Exponent: 65537 (0x10001)
        X509v3 extensions:
            Netscape Cert Type: 
                SSL Client
            X509v3 Subject Key Identifier: 
                AF:1E:0C:23:9C:3A:C0:E8:50:3E:AB:58:86:84:53:B0:5F:39:28:07
            X509v3 Authority Key Identifier: 
                keyid:37:2E:7B:27:46:4B:CF:47:10:AC:2B:2E:BA:D0:F3:66:75:EB:52:75
                DirName:/CN=CALCUTTACA_CA/C=IN/O=CITRIX/OU=ANG/ST=KA/emailAddress=CALCUTTACA_CA@CALCUTTACA_mail.com
                serial:A5:C6:47:0E:E6:06:37:18

            Authority Information Access: 
                OCSP - URI:http://172.18.20.1/responderpath

    Signature Algorithm: sha256WithRSAEncryption
         ad:92:ee:b8:41:ca:d5:c2:26:f7:98:6b:88:39:b3:5f:2e:79:
         0c:7f:c1:a8:b0:8c:da:51:8c:59:eb:f0:f5:78:8e:74:75:7a:
         cf:bb:0d:ad:ae:d1:57:e8:df:79:1f:90:f1:57:6c:f7:4e:38:
         a8:f9:ab:3b:4b:9e:b0:d5:c7:ed:ae:e1:5b:ef:c9:74:85:da:
         0c:62:92:fe:7a:6c:c0:59:2d:d7:b0:f3:f1:8b:37:d2:9c:e8:
         fd:cb:9d:03:a4:f7:f8:1f:eb:22:1e:b0:5e:a3:2d:bc:b7:0e:
         5f:27:0c:2d:f1:b0:3e:42:f1:2b:c8:05:ef:c9:18:ca:69:c7:
         65:bb:4a:9c:c4:2e:47:ba:9a:af:4d:5e:bc:1b:52:cd:c5:a9:
         10:03:e0:16:a7:8b:96:2b:04:b2:73:3e:50:62:be:47:2c:c5:
         8c:0a:29:b9:8b:4a:5c:ff:3c:39:d4:39:21:08:11:c4:fd:e7:
         e5:cc:d3:af:3f:f0:6c:18:90:ce:11:7b:97:e9:53:d5:6f:1a:
         0e:ca:b4:09:18:19:0b:41:75:8b:4d:1b:65:42:d5:3e:68:de:
         46:17:bb:d4:8b:4e:a9:26:45:75:52:9a:f5:f7:7e:9d:9c:6f:
         98:27:85:f8:b7:91:3c:4b:87:26:9c:09:57:bd:49:2a:2f:42:
         04:f4:da:73
-----BEGIN CERTIFICATE-----
MIIEozCCA4ugAwIBAgIGCgsMDQ44MA0GCSqGSIb3DQEBCwUAMIGDMRYwFAYDVQQD
FA1DQUxDVVRUQUNBX0NBMQswCQYDVQQGEwJJTjEPMA0GA1UEChMGQ0lUUklYMQww
CgYDVQQLEwNBTkcxCzAJBgNVBAgTAktBMTAwLgYJKoZIhvcNAQkBFiFDQUxDVVRU
QUNBX0NBQENBTENVVFRBQ0FfbWFpbC5jb20wHhcNMTcwODIzMTAxNTQ1WhcNMjcw
ODIxMTAxNTQ1WjBuMQswCQYDVQQIEwJLQTELMAkGA1UEBhMCSU4xGjAYBgNVBAMU
EWNhbGN1dHRhXzJfY2xpZW50MSUwIwYJKoZIhvcNAQkBFhZjYWxjdXR0YV8yQHRl
c3RfY2EuY29tMQ8wDQYDVQQKEwZDSVRSSVgwggEiMA0GCSqGSIb3DQEBAQUAA4IB
DwAwggEKAoIBAQDi71Jz3zXj1X4iA44fzGbMsK33KxOyhfXGIB/qlTCiYrVKsi6h
1LhsS3KnAyW8xJLlcmK1ymkP311Up9KWjfsxVmx8wqjp50VIOMLx8HkxIj5N06ev
FBqQe3sMgtUCmpsQxG2TpS8fVKOslk/OZEb9w7+f/R6LQtQFq/dRYwG4lbU3A7R0
HvpN0HdLAwRfS98s9n1wZtagTOAzZ8O8tqTvC8Klrtd6hOYmODInzJ4HFvdIFREe
mCO7Ohq+YfsSLx08FEdXdeX95U+SvBluZDlhj4D8TUrkMVl1JE94uUyKsKbow7+K
BrLOR5JN6cq0UKMlBtrtXami3tNx7x1ZsIeVAgMBAAGjggEvMIIBKzARBglghkgB
hvhCAQEEBAMCB4AwHQYDVR0OBBYEFK8eDCOcOsDoUD6rWIaEU7BfOSgHMIG4BgNV
HSMEgbAwga2AFDcueydGS89HEKwrLrrQ82Z161J1oYGJpIGGMIGDMRYwFAYDVQQD
FA1DQUxDVVRUQUNBX0NBMQswCQYDVQQGEwJJTjEPMA0GA1UEChMGQ0lUUklYMQww
CgYDVQQLEwNBTkcxCzAJBgNVBAgTAktBMTAwLgYJKoZIhvcNAQkBFiFDQUxDVVRU
QUNBX0NBQENBTENVVFRBQ0FfbWFpbC5jb22CCQClxkcO5gY3GDA8BggrBgEFBQcB
AQQwMC4wLAYIKwYBBQUHMAGGIGh0dHA6Ly8xNzIuMTguMjAuMS9yZXNwb25kZXJw
YXRoMA0GCSqGSIb3DQEBCwUAA4IBAQCtku64QcrVwib3mGuIObNfLnkMf8GosIza
UYxZ6/D1eI50dXrPuw2trtFX6N95H5DxV2z3Tjio+as7S56w1cftruFb78l0hdoM
YpL+emzAWS3XsPPxizfSnOj9y50DpPf4H+siHrBeoy28tw5fJwwt8bA+QvEryAXv
yRjKacdlu0qcxC5HupqvTV68G1LNxakQA+AWp4uWKwSycz5QYr5HLMWMCim5i0pc
/zw51DkhCBHE/eflzNOvP/BsGJDOEXuX6VPVbxoOyrQJGBkLQXWLTRtlQtU+aN5G
F7vUi06pJkV1Upr1936dnG+YJ4X4t5E8S4cmnAlXvUkqL0IE9Npz
-----END CERTIFICATE-----
