Certificate:
    Data:
        Version: 3 (0x2)
        Serial Number: 11042563100190 (0xa0b0c0d0e1e)
    Signature Algorithm: sha256WithRSAEncryption
        Issuer: CN=CALCUTTACA_CA, C=IN, O=CITRIX, OU=ANG, ST=KA/emailAddress=CALCUTTACA_CA@CALCUTTACA_mail.com
        Validity
            Not Before: Jul  8 04:33:07 2016 GMT
            Not After : Jul  6 04:33:07 2026 GMT
        Subject: ST=KA, C=IN, CN=116_CALCUTTACA_server/emailAddress=116_CALCUTTACA@test_ca.com, O=CITRIX
        Subject Public Key Info:
            Public Key Algorithm: rsaEncryption
                Public-Key: (2048 bit)
                Modulus:
                    00:b4:86:3b:70:c0:19:5a:59:c1:10:2a:f1:d9:0d:
                    46:d9:50:1e:bd:17:f7:79:c3:78:12:48:ff:aa:bf:
                    e1:85:9b:a7:62:d5:5b:d9:dd:7b:32:c4:db:1b:2c:
                    05:6d:c9:ed:96:a9:85:18:3c:45:9e:11:d1:df:e8:
                    ad:8b:6e:72:1c:8f:cf:1d:69:37:00:d8:42:63:b9:
                    3f:47:61:e3:c1:24:10:8c:81:b8:47:54:2a:2f:ae:
                    38:a3:9c:43:56:05:98:a7:31:a0:68:d5:6b:70:2d:
                    11:c1:05:d8:1f:f4:d9:2b:45:e0:b9:ff:3b:d1:37:
                    6a:ff:f6:bf:bf:28:ee:fb:2d:18:ae:57:cb:3c:7a:
                    b6:a0:08:fd:14:17:c3:50:8a:08:3e:de:24:2d:e8:
                    5d:a4:cf:67:3a:dc:32:df:0b:fd:8f:9e:05:27:46:
                    1f:f6:d3:2e:af:99:95:27:d6:30:92:a4:81:1a:4e:
                    fa:ce:c4:94:f6:f4:78:67:f3:76:09:34:27:04:43:
                    e0:c7:f4:28:dd:6d:62:76:7a:57:98:78:31:41:51:
                    88:ef:81:eb:43:eb:f3:3a:b4:dd:f9:b6:a1:a6:62:
                    8f:da:b8:bb:fd:6d:62:85:bf:b3:99:33:20:a5:7c:
                    04:7e:56:0d:d3:d8:83:bf:34:9d:a7:17:56:c3:30:
                    06:45
                Exponent: 65537 (0x10001)
        X509v3 extensions:
            Netscape Cert Type: 
                SSL Server
            X509v3 Subject Key Identifier: 
                31:22:AB:64:54:E8:69:91:16:2D:91:5E:5C:1D:CB:5B:34:7B:36:69
            X509v3 Authority Key Identifier: 
                keyid:37:2E:7B:27:46:4B:CF:47:10:AC:2B:2E:BA:D0:F3:66:75:EB:52:75
                DirName:/CN=CALCUTTACA_CA/C=IN/O=CITRIX/OU=ANG/ST=KA/emailAddress=CALCUTTACA_CA@CALCUTTACA_mail.com
                serial:A5:C6:47:0E:E6:06:37:18

            Authority Information Access: 
                OCSP - URI:http://CALCUTTACA_two.ocsptest.com/responderpath

    Signature Algorithm: sha256WithRSAEncryption
         17:ba:bb:75:da:60:3b:9d:f0:c0:17:95:50:f0:92:05:2b:69:
         fc:d4:2a:83:24:64:fc:10:23:6a:8e:75:c3:81:77:51:a6:5d:
         a7:19:c9:53:ac:e7:89:fc:50:6b:2b:99:34:ca:43:5f:31:40:
         61:01:f7:81:04:3c:72:d1:f4:cb:c2:57:94:cb:19:b4:27:b4:
         c2:63:41:f1:e5:ff:df:28:a6:ed:15:cb:ad:e4:e8:ce:c1:31:
         89:cb:21:2f:e0:35:0a:3d:80:f9:5d:93:33:f6:12:d9:92:b5:
         14:0b:f1:87:9f:b5:be:0a:0a:ca:e3:cc:e5:61:a9:30:ce:56:
         f7:f2:2d:0e:7b:b3:88:54:cd:63:bb:6b:45:b0:51:9e:1c:76:
         99:92:f7:b2:a3:16:e0:4f:fe:50:5b:ed:94:df:03:21:55:06:
         e0:5f:0e:70:46:92:4c:b4:f9:75:97:96:90:cc:48:ed:8c:a9:
         12:ef:4d:b5:e3:1a:1d:3c:f1:61:ed:94:fa:6e:4e:fd:9c:81:
         ff:ec:fc:0e:7f:69:3e:69:35:d2:8d:ca:0e:f5:0a:8a:96:c5:
         17:bf:e4:c3:38:ec:06:ed:fd:88:e1:18:62:c8:27:29:f0:46:
         b5:43:e7:a9:07:4f:4d:67:60:2f:b9:23:a2:ac:7f:fb:db:52:
         11:48:57:39
-----BEGIN CERTIFICATE-----
MIIEuzCCA6OgAwIBAgIGCgsMDQ4eMA0GCSqGSIb3DQEBCwUAMIGDMRYwFAYDVQQD
FA1DQUxDVVRUQUNBX0NBMQswCQYDVQQGEwJJTjEPMA0GA1UEChMGQ0lUUklYMQww
CgYDVQQLEwNBTkcxCzAJBgNVBAgTAktBMTAwLgYJKoZIhvcNAQkBFiFDQUxDVVRU
QUNBX0NBQENBTENVVFRBQ0FfbWFpbC5jb20wHhcNMTYwNzA4MDQzMzA3WhcNMjYw
NzA2MDQzMzA3WjB2MQswCQYDVQQIEwJLQTELMAkGA1UEBhMCSU4xHjAcBgNVBAMU
FTExNl9DQUxDVVRUQUNBX3NlcnZlcjEpMCcGCSqGSIb3DQEJARYaMTE2X0NBTENV
VFRBQ0FAdGVzdF9jYS5jb20xDzANBgNVBAoTBkNJVFJJWDCCASIwDQYJKoZIhvcN
AQEBBQADggEPADCCAQoCggEBALSGO3DAGVpZwRAq8dkNRtlQHr0X93nDeBJI/6q/
4YWbp2LVW9ndezLE2xssBW3J7ZaphRg8RZ4R0d/orYtuchyPzx1pNwDYQmO5P0dh
48EkEIyBuEdUKi+uOKOcQ1YFmKcxoGjVa3AtEcEF2B/02StF4Ln/O9E3av/2v78o
7vstGK5Xyzx6tqAI/RQXw1CKCD7eJC3oXaTPZzrcMt8L/Y+eBSdGH/bTLq+ZlSfW
MJKkgRpO+s7ElPb0eGfzdgk0JwRD4Mf0KN1tYnZ6V5h4MUFRiO+B60Pr8zq03fm2
oaZij9q4u/1tYoW/s5kzIKV8BH5WDdPYg780nacXVsMwBkUCAwEAAaOCAT8wggE7
MBEGCWCGSAGG+EIBAQQEAwIGQDAdBgNVHQ4EFgQUMSKrZFToaZEWLZFeXB3LWzR7
NmkwgbgGA1UdIwSBsDCBrYAUNy57J0ZLz0cQrCsuutDzZnXrUnWhgYmkgYYwgYMx
FjAUBgNVBAMUDUNBTENVVFRBQ0FfQ0ExCzAJBgNVBAYTAklOMQ8wDQYDVQQKEwZD
SVRSSVgxDDAKBgNVBAsTA0FORzELMAkGA1UECBMCS0ExMDAuBgkqhkiG9w0BCQEW
IUNBTENVVFRBQ0FfQ0FAQ0FMQ1VUVEFDQV9tYWlsLmNvbYIJAKXGRw7mBjcYMEwG
CCsGAQUFBwEBBEAwPjA8BggrBgEFBQcwAYYwaHR0cDovL0NBTENVVFRBQ0FfdHdv
Lm9jc3B0ZXN0LmNvbS9yZXNwb25kZXJwYXRoMA0GCSqGSIb3DQEBCwUAA4IBAQAX
urt12mA7nfDAF5VQ8JIFK2n81CqDJGT8ECNqjnXDgXdRpl2nGclTrOeJ/FBrK5k0
ykNfMUBhAfeBBDxy0fTLwleUyxm0J7TCY0Hx5f/fKKbtFcut5OjOwTGJyyEv4DUK
PYD5XZMz9hLZkrUUC/GHn7W+CgrK48zlYakwzlb38i0Oe7OIVM1ju2tFsFGeHHaZ
kveyoxbgT/5QW+2U3wMhVQbgXw5wRpJMtPl1l5aQzEjtjKkS70214xodPPFh7ZT6
bk79nIH/7PwOf2k+aTXSjcoO9QqKlsUXv+TDOOwG7f2I4RhiyCcp8Ea1Q+epB09N
Z2AvuSOirH/721IRSFc5
-----END CERTIFICATE-----
