Certificate:
    Data:
        Version: 3 (0x2)
        Serial Number: 11042563100228 (0xa0b0c0d0e44)
    Signature Algorithm: sha256WithRSAEncryption
        Issuer: CN=CALCUTTACA_CA, C=IN, O=CITRIX, OU=ANG, ST=KA/emailAddress=CALCUTTACA_CA@CALCUTTACA_mail.com
        Validity
            Not Before: Aug 23 10:15:52 2017 GMT
            Not After : Aug 21 10:15:52 2027 GMT
        Subject: ST=KA, C=IN, CN=calcutta_14_client/emailAddress=calcutta_14@test_ca.com, O=CITRIX
        Subject Public Key Info:
            Public Key Algorithm: rsaEncryption
                Public-Key: (2048 bit)
                Modulus:
                    00:cc:48:68:40:98:38:0d:8a:e1:a9:c8:00:31:11:
                    dd:b5:a6:00:3e:c9:c1:b7:bd:6a:08:81:d2:63:79:
                    75:9b:c0:91:95:c8:f8:97:4d:45:62:c9:05:ab:4b:
                    52:2a:01:ef:ca:f2:cf:29:17:44:06:67:ed:3d:c8:
                    7c:d1:9f:90:85:9f:27:01:bf:ca:39:4b:39:81:4b:
                    5b:67:cc:e3:a0:1c:7c:e1:69:9d:05:76:3f:40:a9:
                    9b:7d:99:a2:46:c7:4f:ab:06:10:86:aa:43:8a:4d:
                    4b:50:2e:0d:55:22:a2:ff:1f:21:d9:af:5e:2d:13:
                    1b:5b:e0:d3:86:16:ac:55:a5:24:74:f0:d9:a5:0f:
                    d8:13:53:5c:ba:c1:56:ed:e1:a5:de:d7:0b:9c:6d:
                    76:ab:b3:f0:c5:df:eb:ae:84:6c:e0:f4:06:6b:d9:
                    9b:71:59:7b:75:4c:00:91:67:38:c9:53:a2:50:e9:
                    40:0b:4a:18:0c:fe:94:27:1e:ac:19:7a:40:fa:93:
                    a9:7c:91:a9:a2:78:8d:60:be:4a:c9:8e:c9:b4:19:
                    fb:8f:3e:52:15:cf:32:0b:bb:f5:21:ac:31:95:c7:
                    31:58:66:aa:16:a7:98:4b:65:54:c2:21:9b:88:f6:
                    21:47:b9:88:f7:05:4f:07:4c:29:46:b1:68:b9:da:
                    f2:af
                Exponent: 65537 (0x10001)
        X509v3 extensions:
            Netscape Cert Type: 
                SSL Client
            X509v3 Subject Key Identifier: 
                46:8A:75:5B:3E:9E:6C:42:CF:57:1C:DD:D2:50:6C:91:86:4D:21:A1
            X509v3 Authority Key Identifier: 
                keyid:37:2E:7B:27:46:4B:CF:47:10:AC:2B:2E:BA:D0:F3:66:75:EB:52:75
                DirName:/CN=CALCUTTACA_CA/C=IN/O=CITRIX/OU=ANG/ST=KA/emailAddress=CALCUTTACA_CA@CALCUTTACA_mail.com
                serial:A5:C6:47:0E:E6:06:37:18

            Authority Information Access: 
                OCSP - URI:http://172.18.20.1/responderpath

    Signature Algorithm: sha256WithRSAEncryption
         a5:45:cd:5a:75:98:09:2c:dd:07:5d:fd:37:19:27:69:12:3c:
         79:5d:9d:27:45:33:28:0a:c3:89:84:d5:f2:dc:32:92:88:b5:
         ce:09:12:70:9a:89:33:b9:94:c8:cb:1c:9b:3f:15:5c:61:4a:
         44:e6:f4:1d:d7:dd:f8:c3:0d:5c:5e:59:52:53:6b:a1:44:11:
         8e:a6:61:13:22:a2:1c:6e:d3:7b:ba:3e:54:06:93:2d:fc:51:
         8c:44:e9:66:ca:69:6c:fc:f4:43:b1:01:c3:3a:b3:5f:09:85:
         2f:06:80:6c:37:bc:1c:32:5d:e9:b0:a5:c8:4f:83:a3:1d:86:
         8e:5b:81:3c:ca:3f:8e:07:6b:00:e2:a6:45:30:cf:f9:81:9b:
         61:84:ba:c5:a7:10:9e:a8:ca:5e:36:2a:12:2f:9a:8d:df:37:
         59:40:ca:34:79:ff:e2:20:7d:8d:2d:bb:b6:a9:2c:20:5a:1d:
         a7:93:d2:b9:a0:53:6a:14:f5:cb:08:2f:80:c7:35:ae:6c:96:
         d8:40:86:b5:75:28:09:af:23:a2:62:2d:6e:69:90:78:82:d0:
         fa:ff:53:c2:a9:6f:3b:af:49:6b:be:b3:dc:3a:f2:83:80:e9:
         87:da:32:e7:ed:82:3c:21:d3:6a:34:ba:70:b8:6c:fe:de:9b:
         25:87:a8:fa
-----BEGIN CERTIFICATE-----
MIIEpTCCA42gAwIBAgIGCgsMDQ5EMA0GCSqGSIb3DQEBCwUAMIGDMRYwFAYDVQQD
FA1DQUxDVVRUQUNBX0NBMQswCQYDVQQGEwJJTjEPMA0GA1UEChMGQ0lUUklYMQww
CgYDVQQLEwNBTkcxCzAJBgNVBAgTAktBMTAwLgYJKoZIhvcNAQkBFiFDQUxDVVRU
QUNBX0NBQENBTENVVFRBQ0FfbWFpbC5jb20wHhcNMTcwODIzMTAxNTUyWhcNMjcw
ODIxMTAxNTUyWjBwMQswCQYDVQQIEwJLQTELMAkGA1UEBhMCSU4xGzAZBgNVBAMU
EmNhbGN1dHRhXzE0X2NsaWVudDEmMCQGCSqGSIb3DQEJARYXY2FsY3V0dGFfMTRA
dGVzdF9jYS5jb20xDzANBgNVBAoTBkNJVFJJWDCCASIwDQYJKoZIhvcNAQEBBQAD
ggEPADCCAQoCggEBAMxIaECYOA2K4anIADER3bWmAD7Jwbe9agiB0mN5dZvAkZXI
+JdNRWLJBatLUioB78ryzykXRAZn7T3IfNGfkIWfJwG/yjlLOYFLW2fM46AcfOFp
nQV2P0Cpm32ZokbHT6sGEIaqQ4pNS1AuDVUiov8fIdmvXi0TG1vg04YWrFWlJHTw
2aUP2BNTXLrBVu3hpd7XC5xtdquz8MXf666EbOD0BmvZm3FZe3VMAJFnOMlTolDp
QAtKGAz+lCcerBl6QPqTqXyRqaJ4jWC+SsmOybQZ+48+UhXPMgu79SGsMZXHMVhm
qhanmEtlVMIhm4j2IUe5iPcFTwdMKUaxaLna8q8CAwEAAaOCAS8wggErMBEGCWCG
SAGG+EIBAQQEAwIHgDAdBgNVHQ4EFgQURop1Wz6ebELPVxzd0lBskYZNIaEwgbgG
A1UdIwSBsDCBrYAUNy57J0ZLz0cQrCsuutDzZnXrUnWhgYmkgYYwgYMxFjAUBgNV
BAMUDUNBTENVVFRBQ0FfQ0ExCzAJBgNVBAYTAklOMQ8wDQYDVQQKEwZDSVRSSVgx
DDAKBgNVBAsTA0FORzELMAkGA1UECBMCS0ExMDAuBgkqhkiG9w0BCQEWIUNBTENV
VFRBQ0FfQ0FAQ0FMQ1VUVEFDQV9tYWlsLmNvbYIJAKXGRw7mBjcYMDwGCCsGAQUF
BwEBBDAwLjAsBggrBgEFBQcwAYYgaHR0cDovLzE3Mi4xOC4yMC4xL3Jlc3BvbmRl
cnBhdGgwDQYJKoZIhvcNAQELBQADggEBAKVFzVp1mAks3Qdd/TcZJ2kSPHldnSdF
MygKw4mE1fLcMpKItc4JEnCaiTO5lMjLHJs/FVxhSkTm9B3X3fjDDVxeWVJTa6FE
EY6mYRMiohxu03u6PlQGky38UYxE6WbKaWz89EOxAcM6s18JhS8GgGw3vBwyXemw
pchPg6Mdho5bgTzKP44HawDipkUwz/mBm2GEusWnEJ6oyl42KhIvmo3fN1lAyjR5
/+IgfY0tu7apLCBaHaeT0rmgU2oU9csIL4DHNa5slthAhrV1KAmvI6JiLW5pkHiC
0Pr/U8KpbzuvSWu+s9w68oOA6YfaMuftgjwh02o0unC4bP7emyWHqPo=
-----END CERTIFICATE-----
