Certificate:
    Data:
        Version: 3 (0x2)
        Serial Number: 11042563100183 (0xa0b0c0d0e17)
    Signature Algorithm: sha256WithRSAEncryption
        Issuer: CN=CALCUTTACA_CA, C=IN, O=CITRIX, OU=ANG, ST=KA/emailAddress=CALCUTTACA_CA@CALCUTTACA_mail.com
        Validity
            Not Before: Jul  8 04:33:05 2016 GMT
            Not After : Jul  6 04:33:05 2026 GMT
        Subject: ST=KA, C=IN, CN=109_CALCUTTACA_server/emailAddress=109_CALCUTTACA@test_ca.com, O=CITRIX
        Subject Public Key Info:
            Public Key Algorithm: rsaEncryption
                Public-Key: (2048 bit)
                Modulus:
                    00:bb:0b:97:07:f5:82:0d:75:8e:49:1c:7c:77:a9:
                    fc:c5:3d:54:cf:7a:d0:d6:b4:0c:55:b2:13:00:65:
                    2e:ce:cf:24:e6:92:34:ac:5d:cd:e2:f2:48:17:6f:
                    ac:ca:04:7e:97:9a:86:32:6f:96:be:d6:46:18:f7:
                    43:62:ad:0d:1a:b6:55:f5:57:c0:56:d6:95:51:d6:
                    28:ea:43:e8:1d:05:c7:4f:45:ed:40:9e:fd:81:33:
                    af:53:73:1f:d2:71:9e:06:0f:2d:75:1f:67:b7:6c:
                    f3:91:90:33:e3:5f:95:b8:33:4b:50:fd:91:fb:eb:
                    4f:40:1c:96:b3:58:80:24:43:17:c7:d6:85:02:d3:
                    37:3c:a5:b3:3f:94:4c:3f:45:5b:34:b3:52:3c:f6:
                    0e:9e:62:89:b0:28:99:2a:20:a2:6a:c0:1c:0f:4c:
                    54:fc:1a:17:ec:4d:bb:5d:97:79:af:10:39:68:42:
                    78:f6:0a:a8:2a:43:35:82:91:92:ff:bb:ba:16:40:
                    43:3c:16:ff:0d:e7:c0:9e:b5:bf:05:51:6d:77:11:
                    e8:c4:f3:44:30:aa:d7:6c:76:30:01:f9:66:41:91:
                    64:25:75:b0:e0:2d:6d:a4:fd:e7:cc:d4:48:06:f1:
                    69:0b:4b:1b:65:fc:7a:d3:44:a2:f2:d5:ff:e3:65:
                    15:d7
                Exponent: 65537 (0x10001)
        X509v3 extensions:
            Netscape Cert Type: 
                SSL Server
            X509v3 Subject Key Identifier: 
                48:9D:B2:F6:25:16:F9:D1:3E:F8:ED:9A:94:59:C4:16:67:9F:D4:C8
            X509v3 Authority Key Identifier: 
                keyid:37:2E:7B:27:46:4B:CF:47:10:AC:2B:2E:BA:D0:F3:66:75:EB:52:75
                DirName:/CN=CALCUTTACA_CA/C=IN/O=CITRIX/OU=ANG/ST=KA/emailAddress=CALCUTTACA_CA@CALCUTTACA_mail.com
                serial:A5:C6:47:0E:E6:06:37:18

            Authority Information Access: 
                OCSP - URI:http://CALCUTTACA_one.ocsptest.com/responderpath

    Signature Algorithm: sha256WithRSAEncryption
         66:b1:3d:7c:c0:a7:6f:a8:a6:50:d7:a5:14:61:d3:7e:ea:b4:
         a0:0d:fa:eb:e8:ec:f3:a7:d9:ab:a4:5a:c4:3e:f3:0e:15:69:
         42:36:35:05:07:20:f4:ab:ab:ca:9d:85:0b:45:8f:81:ca:ae:
         79:81:d8:79:2d:43:0b:51:bf:10:ef:19:02:b6:5c:f0:18:55:
         98:7e:95:c2:66:f7:26:f1:07:d8:b0:a2:ff:b2:b7:b7:fd:88:
         9a:7f:c8:9b:56:20:ba:ef:bf:f7:bd:e5:39:76:a6:6c:0e:8e:
         61:aa:72:37:35:e1:0d:af:e9:19:13:8a:9f:7b:3b:b3:bc:6c:
         6d:c0:8e:ea:2d:5c:58:ce:55:df:81:b8:43:5b:9f:a7:c7:e2:
         46:4d:59:08:06:51:05:96:12:00:10:fe:9e:d9:80:9d:e5:91:
         67:7f:e4:fa:1e:13:33:54:cb:20:20:55:2d:d4:56:18:89:b9:
         ad:b9:65:82:19:2b:8a:15:a2:35:01:20:fc:d4:7b:ce:f0:10:
         65:04:92:49:c4:86:15:d2:32:68:18:dc:a4:fd:67:6d:5c:47:
         40:b8:f6:92:6a:0f:9c:72:f4:58:0d:7e:43:f0:0e:b9:3a:59:
         3e:fc:1c:86:c1:aa:22:76:32:8e:71:e0:75:f8:4d:26:78:b4:
         0c:67:08:76
-----BEGIN CERTIFICATE-----
MIIEuzCCA6OgAwIBAgIGCgsMDQ4XMA0GCSqGSIb3DQEBCwUAMIGDMRYwFAYDVQQD
FA1DQUxDVVRUQUNBX0NBMQswCQYDVQQGEwJJTjEPMA0GA1UEChMGQ0lUUklYMQww
CgYDVQQLEwNBTkcxCzAJBgNVBAgTAktBMTAwLgYJKoZIhvcNAQkBFiFDQUxDVVRU
QUNBX0NBQENBTENVVFRBQ0FfbWFpbC5jb20wHhcNMTYwNzA4MDQzMzA1WhcNMjYw
NzA2MDQzMzA1WjB2MQswCQYDVQQIEwJLQTELMAkGA1UEBhMCSU4xHjAcBgNVBAMU
FTEwOV9DQUxDVVRUQUNBX3NlcnZlcjEpMCcGCSqGSIb3DQEJARYaMTA5X0NBTENV
VFRBQ0FAdGVzdF9jYS5jb20xDzANBgNVBAoTBkNJVFJJWDCCASIwDQYJKoZIhvcN
AQEBBQADggEPADCCAQoCggEBALsLlwf1gg11jkkcfHep/MU9VM960Na0DFWyEwBl
Ls7PJOaSNKxdzeLySBdvrMoEfpeahjJvlr7WRhj3Q2KtDRq2VfVXwFbWlVHWKOpD
6B0Fx09F7UCe/YEzr1NzH9JxngYPLXUfZ7ds85GQM+NflbgzS1D9kfvrT0AclrNY
gCRDF8fWhQLTNzylsz+UTD9FWzSzUjz2Dp5iibAomSogomrAHA9MVPwaF+xNu12X
ea8QOWhCePYKqCpDNYKRkv+7uhZAQzwW/w3nwJ61vwVRbXcR6MTzRDCq12x2MAH5
ZkGRZCV1sOAtbaT958zUSAbxaQtLG2X8etNEovLV/+NlFdcCAwEAAaOCAT8wggE7
MBEGCWCGSAGG+EIBAQQEAwIGQDAdBgNVHQ4EFgQUSJ2y9iUW+dE++O2alFnEFmef
1MgwgbgGA1UdIwSBsDCBrYAUNy57J0ZLz0cQrCsuutDzZnXrUnWhgYmkgYYwgYMx
FjAUBgNVBAMUDUNBTENVVFRBQ0FfQ0ExCzAJBgNVBAYTAklOMQ8wDQYDVQQKEwZD
SVRSSVgxDDAKBgNVBAsTA0FORzELMAkGA1UECBMCS0ExMDAuBgkqhkiG9w0BCQEW
IUNBTENVVFRBQ0FfQ0FAQ0FMQ1VUVEFDQV9tYWlsLmNvbYIJAKXGRw7mBjcYMEwG
CCsGAQUFBwEBBEAwPjA8BggrBgEFBQcwAYYwaHR0cDovL0NBTENVVFRBQ0Ffb25l
Lm9jc3B0ZXN0LmNvbS9yZXNwb25kZXJwYXRoMA0GCSqGSIb3DQEBCwUAA4IBAQBm
sT18wKdvqKZQ16UUYdN+6rSgDfrr6Ozzp9mrpFrEPvMOFWlCNjUFByD0q6vKnYUL
RY+Byq55gdh5LUMLUb8Q7xkCtlzwGFWYfpXCZvcm8QfYsKL/sre3/Yiaf8ibViC6
77/3veU5dqZsDo5hqnI3NeENr+kZE4qfezuzvGxtwI7qLVxYzlXfgbhDW5+nx+JG
TVkIBlEFlhIAEP6e2YCd5ZFnf+T6HhMzVMsgIFUt1FYYibmtuWWCGSuKFaI1ASD8
1HvO8BBlBJJJxIYV0jJoGNyk/WdtXEdAuPaSag+ccvRYDX5D8A65Olk+/ByGwaoi
djKOceB1+E0meLQMZwh2
-----END CERTIFICATE-----
