Certificate:
    Data:
        Version: 3 (0x2)
        Serial Number: 11042563100192 (0xa0b0c0d0e20)
    Signature Algorithm: sha256WithRSAEncryption
        Issuer: CN=CALCUTTACA_CA, C=IN, O=CITRIX, OU=ANG, ST=KA/emailAddress=CALCUTTACA_CA@CALCUTTACA_mail.com
        Validity
            Not Before: Jul  8 04:33:07 2016 GMT
            Not After : Jul  6 04:33:07 2026 GMT
        Subject: ST=KA, C=IN, CN=118_CALCUTTACA_server/emailAddress=118_CALCUTTACA@test_ca.com, O=CITRIX
        Subject Public Key Info:
            Public Key Algorithm: rsaEncryption
                Public-Key: (2048 bit)
                Modulus:
                    00:c0:36:1d:f5:7d:0b:41:46:07:9c:4d:50:4f:6c:
                    8d:e8:1d:db:5e:ff:15:c6:f3:6b:aa:16:5c:ba:4a:
                    f9:33:97:66:65:16:86:bb:9f:5c:ca:cd:8d:5a:fb:
                    65:89:3c:93:1c:be:85:18:e7:71:76:3f:ed:22:69:
                    a5:14:52:de:bd:c7:13:f1:a9:70:9f:e2:62:b8:87:
                    ab:91:8c:d7:dd:e5:91:95:c7:7c:ef:d8:6d:5a:d5:
                    6a:c2:df:2c:75:62:47:11:63:7c:8e:e2:9c:9d:ed:
                    15:2b:98:6a:43:46:86:01:b1:b7:e0:71:ac:84:f9:
                    f6:b8:c7:89:cc:6b:95:73:2b:0f:14:91:58:13:a7:
                    0a:dd:bf:c2:76:da:c0:70:45:0b:c7:e3:13:48:fc:
                    3f:f3:0e:25:af:ba:16:3e:35:d9:36:87:b0:23:d4:
                    6d:c6:43:e6:a0:87:83:36:11:92:04:7d:7d:c2:55:
                    ad:a7:39:78:0a:79:4a:6a:a0:75:6c:a5:f5:95:db:
                    95:dc:be:a6:4f:83:63:06:e1:73:6b:94:80:78:6d:
                    15:a7:59:1c:b5:7a:8b:2d:fc:17:26:b7:87:c6:ba:
                    f0:87:f1:47:d1:2d:ff:74:c2:f3:38:80:34:fe:e1:
                    93:17:ac:a3:3c:bc:66:c2:3b:ef:b7:55:bb:1c:d2:
                    2c:bd
                Exponent: 65537 (0x10001)
        X509v3 extensions:
            Netscape Cert Type: 
                SSL Server
            X509v3 Subject Key Identifier: 
                A4:BD:18:B1:63:3D:8F:E3:FF:2A:23:99:00:41:14:0F:76:F8:29:6E
            X509v3 Authority Key Identifier: 
                keyid:37:2E:7B:27:46:4B:CF:47:10:AC:2B:2E:BA:D0:F3:66:75:EB:52:75
                DirName:/CN=CALCUTTACA_CA/C=IN/O=CITRIX/OU=ANG/ST=KA/emailAddress=CALCUTTACA_CA@CALCUTTACA_mail.com
                serial:A5:C6:47:0E:E6:06:37:18

            Authority Information Access: 
                OCSP - URI:http://CALCUTTACA_two.ocsptest.com/responderpath

    Signature Algorithm: sha256WithRSAEncryption
         83:6f:ff:ec:f9:87:4c:ee:c6:c0:ef:27:30:c9:19:be:d2:69:
         57:5d:95:29:13:12:db:c1:58:9a:9f:20:b3:d5:b4:96:01:d8:
         27:47:0f:8d:85:4a:39:5c:71:7f:34:2a:0d:7e:06:a2:4d:8f:
         f5:99:f9:1c:68:3f:1c:0c:28:14:0b:a9:52:46:89:3a:83:a8:
         d5:02:34:ca:83:dc:c9:65:c0:a5:aa:ef:f8:bc:7b:82:cf:d1:
         ba:1b:f9:60:d4:c6:b7:f1:c8:c0:92:1b:d4:13:b4:60:84:b7:
         0d:01:2e:f4:15:a5:86:3e:74:28:c3:b5:54:04:0d:3d:1d:65:
         1c:81:eb:85:66:92:f3:4f:97:2a:a3:c4:46:5f:50:1e:3d:44:
         dc:76:d8:34:97:35:c3:d1:f0:fa:d2:8a:b3:03:94:e5:7f:35:
         a9:6d:44:93:d0:43:1c:c6:73:0d:5c:d2:f1:98:41:23:24:a1:
         36:25:13:65:23:09:01:88:6d:cb:d9:a8:e8:3d:4d:fd:49:88:
         22:c7:31:91:08:d6:a0:05:57:34:7b:f3:66:7c:4c:d8:77:1e:
         8b:67:1f:f0:ac:08:2d:bf:b9:86:a3:15:c3:a4:3b:d3:f3:6c:
         15:d9:09:82:93:7a:ad:a4:c1:15:d3:a6:88:b2:6f:4f:8b:52:
         72:94:a3:c1
-----BEGIN CERTIFICATE-----
MIIEuzCCA6OgAwIBAgIGCgsMDQ4gMA0GCSqGSIb3DQEBCwUAMIGDMRYwFAYDVQQD
FA1DQUxDVVRUQUNBX0NBMQswCQYDVQQGEwJJTjEPMA0GA1UEChMGQ0lUUklYMQww
CgYDVQQLEwNBTkcxCzAJBgNVBAgTAktBMTAwLgYJKoZIhvcNAQkBFiFDQUxDVVRU
QUNBX0NBQENBTENVVFRBQ0FfbWFpbC5jb20wHhcNMTYwNzA4MDQzMzA3WhcNMjYw
NzA2MDQzMzA3WjB2MQswCQYDVQQIEwJLQTELMAkGA1UEBhMCSU4xHjAcBgNVBAMU
FTExOF9DQUxDVVRUQUNBX3NlcnZlcjEpMCcGCSqGSIb3DQEJARYaMTE4X0NBTENV
VFRBQ0FAdGVzdF9jYS5jb20xDzANBgNVBAoTBkNJVFJJWDCCASIwDQYJKoZIhvcN
AQEBBQADggEPADCCAQoCggEBAMA2HfV9C0FGB5xNUE9sjegd217/Fcbza6oWXLpK
+TOXZmUWhrufXMrNjVr7ZYk8kxy+hRjncXY/7SJppRRS3r3HE/GpcJ/iYriHq5GM
193lkZXHfO/YbVrVasLfLHViRxFjfI7inJ3tFSuYakNGhgGxt+BxrIT59rjHicxr
lXMrDxSRWBOnCt2/wnbawHBFC8fjE0j8P/MOJa+6Fj412TaHsCPUbcZD5qCHgzYR
kgR9fcJVrac5eAp5SmqgdWyl9ZXbldy+pk+DYwbhc2uUgHhtFadZHLV6iy38Fya3
h8a68IfxR9Et/3TC8ziANP7hkxesozy8ZsI777dVuxzSLL0CAwEAAaOCAT8wggE7
MBEGCWCGSAGG+EIBAQQEAwIGQDAdBgNVHQ4EFgQUpL0YsWM9j+P/KiOZAEEUD3b4
KW4wgbgGA1UdIwSBsDCBrYAUNy57J0ZLz0cQrCsuutDzZnXrUnWhgYmkgYYwgYMx
FjAUBgNVBAMUDUNBTENVVFRBQ0FfQ0ExCzAJBgNVBAYTAklOMQ8wDQYDVQQKEwZD
SVRSSVgxDDAKBgNVBAsTA0FORzELMAkGA1UECBMCS0ExMDAuBgkqhkiG9w0BCQEW
IUNBTENVVFRBQ0FfQ0FAQ0FMQ1VUVEFDQV9tYWlsLmNvbYIJAKXGRw7mBjcYMEwG
CCsGAQUFBwEBBEAwPjA8BggrBgEFBQcwAYYwaHR0cDovL0NBTENVVFRBQ0FfdHdv
Lm9jc3B0ZXN0LmNvbS9yZXNwb25kZXJwYXRoMA0GCSqGSIb3DQEBCwUAA4IBAQCD
b//s+YdM7sbA7ycwyRm+0mlXXZUpExLbwVianyCz1bSWAdgnRw+NhUo5XHF/NCoN
fgaiTY/1mfkcaD8cDCgUC6lSRok6g6jVAjTKg9zJZcClqu/4vHuCz9G6G/lg1Ma3
8cjAkhvUE7RghLcNAS70FaWGPnQow7VUBA09HWUcgeuFZpLzT5cqo8RGX1AePUTc
dtg0lzXD0fD60oqzA5TlfzWpbUST0EMcxnMNXNLxmEEjJKE2JRNlIwkBiG3L2ajo
PU39SYgixzGRCNagBVc0e/NmfEzYdx6LZx/wrAgtv7mGoxXDpDvT82wV2QmCk3qt
pMEV06aIsm9Pi1JylKPB
-----END CERTIFICATE-----
