Certificate:
    Data:
        Version: 3 (0x2)
        Serial Number: 11042563100248 (0xa0b0c0d0e58)
    Signature Algorithm: sha256WithRSAEncryption
        Issuer: CN=CALCUTTACA_CA, C=IN, O=CITRIX, OU=ANG, ST=KA/emailAddress=CALCUTTACA_CA@CALCUTTACA_mail.com
        Validity
            Not Before: Aug 23 10:16:05 2017 GMT
            Not After : Aug 21 10:16:05 2027 GMT
        Subject: ST=KA, C=IN, CN=calcutta_34_client/emailAddress=calcutta_34@test_ca.com, O=CITRIX
        Subject Public Key Info:
            Public Key Algorithm: rsaEncryption
                Public-Key: (2048 bit)
                Modulus:
                    00:f7:c6:a0:b0:c8:27:a1:ad:02:84:b8:f9:5a:e0:
                    78:77:c1:e4:15:b4:2e:46:e6:1d:b4:bd:92:9f:57:
                    c2:5c:f1:ff:78:92:c5:01:26:39:59:c3:4a:32:82:
                    65:9d:36:45:11:5e:74:3b:21:bf:05:77:d1:81:d2:
                    0a:29:21:20:a7:fb:c8:25:ca:ad:6c:99:9f:8c:08:
                    27:2a:a1:e9:1c:c4:bb:54:0d:37:6d:3d:8e:e3:3c:
                    8f:16:07:52:a6:66:fa:4f:07:59:dc:d3:98:a0:8b:
                    3e:e2:2d:42:ef:3e:cd:cb:67:b9:53:58:8b:ee:c2:
                    de:4c:f4:a9:24:be:fc:80:45:b5:62:4f:e7:e0:74:
                    8b:4c:a5:d2:09:39:6c:6e:1b:cc:24:0b:3e:e3:20:
                    e8:ae:7a:02:a7:26:a5:de:ce:59:63:eb:50:06:37:
                    cf:41:9e:b4:7e:17:a5:49:82:cb:99:75:77:10:70:
                    95:c7:df:1d:90:d1:40:86:dd:6a:cb:7e:02:77:45:
                    42:a3:fc:cc:90:7b:8d:ae:50:0b:7f:3e:ed:5a:da:
                    56:d6:dc:f1:41:da:fb:14:ad:2c:39:d8:eb:dd:c6:
                    dd:be:34:b4:0f:8c:d2:22:3e:00:d5:99:14:e7:a2:
                    76:b6:3c:fb:b3:c7:34:b7:14:f7:12:e7:85:0f:3b:
                    32:bd
                Exponent: 65537 (0x10001)
        X509v3 extensions:
            Netscape Cert Type: 
                SSL Client
            X509v3 Subject Key Identifier: 
                8C:18:5A:04:8C:8C:3A:09:C6:60:65:0C:DD:DE:F0:3F:F9:81:AB:66
            X509v3 Authority Key Identifier: 
                keyid:37:2E:7B:27:46:4B:CF:47:10:AC:2B:2E:BA:D0:F3:66:75:EB:52:75
                DirName:/CN=CALCUTTACA_CA/C=IN/O=CITRIX/OU=ANG/ST=KA/emailAddress=CALCUTTACA_CA@CALCUTTACA_mail.com
                serial:A5:C6:47:0E:E6:06:37:18

            Authority Information Access: 
                OCSP - URI:http://172.18.20.1/responderpath

    Signature Algorithm: sha256WithRSAEncryption
         c5:9e:cc:15:4b:d9:9d:eb:24:8f:53:f2:ba:16:e0:a1:88:95:
         78:0a:63:ec:bc:39:d0:82:40:6f:66:84:00:d4:80:5c:c2:22:
         b4:29:0d:f4:1b:cc:a3:f0:57:de:e7:e9:d6:e6:c8:92:00:aa:
         f8:51:49:fd:19:f0:32:7e:48:06:2c:7c:93:71:ea:25:93:56:
         8a:ac:42:ac:40:e9:1b:36:a2:25:c1:30:c0:c1:7f:ef:a6:49:
         d8:5c:aa:43:b6:1a:fa:f8:00:11:05:f4:78:38:73:a9:08:f1:
         ea:05:aa:46:70:b9:94:d1:4c:e8:4e:0b:98:02:4a:6a:d0:af:
         cd:75:9f:07:58:58:7e:31:99:42:33:0b:60:d7:5b:ab:54:e7:
         b6:72:bb:b1:96:dd:aa:d0:b9:09:f6:b3:0f:d1:7c:88:75:98:
         13:53:03:d0:c9:a6:aa:7f:5f:93:dd:40:4d:61:d5:3a:40:af:
         8f:3c:f0:c0:e5:43:df:2b:e8:9e:3e:4e:df:62:80:fb:37:8f:
         42:b7:72:db:31:2a:f6:98:e2:c4:9e:5b:4a:3b:15:72:5b:10:
         3f:9d:07:2a:71:4c:db:e3:b2:28:34:ee:b5:f7:6f:f0:2f:40:
         96:d3:8c:00:0f:0e:66:bb:42:e1:4e:41:23:20:28:b7:fd:f6:
         a3:96:c5:83
-----BEGIN CERTIFICATE-----
MIIEpTCCA42gAwIBAgIGCgsMDQ5YMA0GCSqGSIb3DQEBCwUAMIGDMRYwFAYDVQQD
FA1DQUxDVVRUQUNBX0NBMQswCQYDVQQGEwJJTjEPMA0GA1UEChMGQ0lUUklYMQww
CgYDVQQLEwNBTkcxCzAJBgNVBAgTAktBMTAwLgYJKoZIhvcNAQkBFiFDQUxDVVRU
QUNBX0NBQENBTENVVFRBQ0FfbWFpbC5jb20wHhcNMTcwODIzMTAxNjA1WhcNMjcw
ODIxMTAxNjA1WjBwMQswCQYDVQQIEwJLQTELMAkGA1UEBhMCSU4xGzAZBgNVBAMU
EmNhbGN1dHRhXzM0X2NsaWVudDEmMCQGCSqGSIb3DQEJARYXY2FsY3V0dGFfMzRA
dGVzdF9jYS5jb20xDzANBgNVBAoTBkNJVFJJWDCCASIwDQYJKoZIhvcNAQEBBQAD
ggEPADCCAQoCggEBAPfGoLDIJ6GtAoS4+VrgeHfB5BW0LkbmHbS9kp9Xwlzx/3iS
xQEmOVnDSjKCZZ02RRFedDshvwV30YHSCikhIKf7yCXKrWyZn4wIJyqh6RzEu1QN
N209juM8jxYHUqZm+k8HWdzTmKCLPuItQu8+zctnuVNYi+7C3kz0qSS+/IBFtWJP
5+B0i0yl0gk5bG4bzCQLPuMg6K56Aqcmpd7OWWPrUAY3z0GetH4XpUmCy5l1dxBw
lcffHZDRQIbdast+AndFQqP8zJB7ja5QC38+7VraVtbc8UHa+xStLDnY693G3b40
tA+M0iI+ANWZFOeidrY8+7PHNLcU9xLnhQ87Mr0CAwEAAaOCAS8wggErMBEGCWCG
SAGG+EIBAQQEAwIHgDAdBgNVHQ4EFgQUjBhaBIyMOgnGYGUM3d7wP/mBq2YwgbgG
A1UdIwSBsDCBrYAUNy57J0ZLz0cQrCsuutDzZnXrUnWhgYmkgYYwgYMxFjAUBgNV
BAMUDUNBTENVVFRBQ0FfQ0ExCzAJBgNVBAYTAklOMQ8wDQYDVQQKEwZDSVRSSVgx
DDAKBgNVBAsTA0FORzELMAkGA1UECBMCS0ExMDAuBgkqhkiG9w0BCQEWIUNBTENV
VFRBQ0FfQ0FAQ0FMQ1VUVEFDQV9tYWlsLmNvbYIJAKXGRw7mBjcYMDwGCCsGAQUF
BwEBBDAwLjAsBggrBgEFBQcwAYYgaHR0cDovLzE3Mi4xOC4yMC4xL3Jlc3BvbmRl
cnBhdGgwDQYJKoZIhvcNAQELBQADggEBAMWezBVL2Z3rJI9T8roW4KGIlXgKY+y8
OdCCQG9mhADUgFzCIrQpDfQbzKPwV97n6dbmyJIAqvhRSf0Z8DJ+SAYsfJNx6iWT
VoqsQqxA6Rs2oiXBMMDBf++mSdhcqkO2Gvr4ABEF9Hg4c6kI8eoFqkZwuZTRTOhO
C5gCSmrQr811nwdYWH4xmUIzC2DXW6tU57Zyu7GW3arQuQn2sw/RfIh1mBNTA9DJ
pqp/X5PdQE1h1TpAr4888MDlQ98r6J4+Tt9igPs3j0K3ctsxKvaY4sSeW0o7FXJb
ED+dBypxTNvjsig07rX3b/AvQJbTjAAPDma7QuFOQSMgKLf99qOWxYM=
-----END CERTIFICATE-----
