Certificate:
    Data:
        Version: 3 (0x2)
        Serial Number: 11042563100243 (0xa0b0c0d0e53)
    Signature Algorithm: sha256WithRSAEncryption
        Issuer: CN=CALCUTTACA_CA, C=IN, O=CITRIX, OU=ANG, ST=KA/emailAddress=CALCUTTACA_CA@CALCUTTACA_mail.com
        Validity
            Not Before: Aug 23 10:16:01 2017 GMT
            Not After : Aug 21 10:16:01 2027 GMT
        Subject: ST=KA, C=IN, CN=calcutta_29_client/emailAddress=calcutta_29@test_ca.com, O=CITRIX
        Subject Public Key Info:
            Public Key Algorithm: rsaEncryption
                Public-Key: (2048 bit)
                Modulus:
                    00:97:45:1e:a8:fa:d0:83:79:97:2f:52:37:80:07:
                    77:f6:d0:65:96:ab:69:50:7d:5a:58:5b:12:de:31:
                    0d:86:c1:a0:39:49:4f:11:32:7b:99:79:1f:86:74:
                    ad:94:4e:f8:2d:c4:b5:6d:db:f9:2a:cf:42:0b:00:
                    64:92:31:6d:ba:bb:84:bc:d3:d7:a3:4e:0a:c6:cb:
                    0f:94:5b:c6:74:d8:ab:91:b7:5d:ad:0d:8e:9c:f9:
                    6e:94:3d:04:20:0c:0b:cb:55:9b:8a:18:8e:38:7b:
                    81:25:71:1a:42:cb:96:1c:17:da:7a:7e:5c:3f:65:
                    bb:d9:14:30:ff:8c:fe:8b:cf:c3:58:2c:6a:b2:3b:
                    db:ce:cd:0b:8f:4c:53:47:d7:44:20:42:c6:66:54:
                    7d:14:e4:45:d0:8e:00:32:1d:44:a4:51:a8:f0:66:
                    58:e1:26:11:c3:55:30:b8:2a:42:37:50:a4:63:76:
                    bc:e8:67:cb:02:da:6e:6a:32:18:dc:08:0e:31:fe:
                    2c:da:10:c8:6d:58:04:b4:9e:70:a3:4b:5e:73:10:
                    60:e2:f5:c7:91:84:9c:8c:7b:cd:cb:53:af:f6:1c:
                    72:85:c3:5b:8f:86:37:1e:5a:b6:a3:6b:2a:f0:ba:
                    74:eb:bf:4b:ec:de:9f:bc:5e:fd:34:56:c4:b6:63:
                    db:e1
                Exponent: 65537 (0x10001)
        X509v3 extensions:
            Netscape Cert Type: 
                SSL Client
            X509v3 Subject Key Identifier: 
                9E:2A:9E:87:14:CC:D2:B3:8E:76:B4:95:A7:76:87:C8:E4:58:74:A8
            X509v3 Authority Key Identifier: 
                keyid:37:2E:7B:27:46:4B:CF:47:10:AC:2B:2E:BA:D0:F3:66:75:EB:52:75
                DirName:/CN=CALCUTTACA_CA/C=IN/O=CITRIX/OU=ANG/ST=KA/emailAddress=CALCUTTACA_CA@CALCUTTACA_mail.com
                serial:A5:C6:47:0E:E6:06:37:18

            Authority Information Access: 
                OCSP - URI:http://172.18.20.1/responderpath

    Signature Algorithm: sha256WithRSAEncryption
         4e:15:b6:df:15:4d:c9:4e:40:ad:ac:0e:2f:3a:bf:a8:a3:9b:
         13:ae:1c:c5:45:b5:27:62:1f:97:bb:7f:14:f6:c9:48:77:2d:
         d9:73:45:a4:e9:fd:cb:8a:d1:04:78:0d:b2:c4:66:02:8a:3f:
         7b:7c:e8:00:3e:5b:96:d0:ac:10:fb:d5:72:9c:38:2f:c1:c9:
         f1:1a:77:ec:3b:05:1c:a6:7a:51:90:0a:0f:02:99:e9:7f:59:
         93:80:86:6c:d3:72:2a:3f:42:93:f9:8f:45:26:c4:66:a5:b6:
         66:ca:87:71:85:c7:b6:4f:ec:60:2c:56:2a:3e:38:96:0e:1c:
         52:78:81:98:ca:81:11:44:f9:dc:32:a1:75:56:60:b1:a5:77:
         4d:e9:b1:4d:84:67:72:43:02:0a:0b:79:dd:79:ae:e4:05:96:
         ee:60:5b:90:f5:6f:d3:fc:6d:b4:28:38:f5:82:d7:8c:97:e9:
         d3:46:15:e1:b4:48:ec:b5:5d:ad:eb:d8:68:bc:d6:fa:1f:1d:
         d4:1b:b1:58:96:d3:8f:fc:b7:df:47:31:e4:4f:5f:dd:55:53:
         8f:fb:f6:6d:35:6b:28:fb:f2:0f:09:e0:97:1b:0a:7d:51:56:
         5f:30:01:91:92:90:e5:0e:49:e6:e1:26:bd:f8:18:31:6d:ba:
         b9:e6:0f:ca
-----BEGIN CERTIFICATE-----
MIIEpTCCA42gAwIBAgIGCgsMDQ5TMA0GCSqGSIb3DQEBCwUAMIGDMRYwFAYDVQQD
FA1DQUxDVVRUQUNBX0NBMQswCQYDVQQGEwJJTjEPMA0GA1UEChMGQ0lUUklYMQww
CgYDVQQLEwNBTkcxCzAJBgNVBAgTAktBMTAwLgYJKoZIhvcNAQkBFiFDQUxDVVRU
QUNBX0NBQENBTENVVFRBQ0FfbWFpbC5jb20wHhcNMTcwODIzMTAxNjAxWhcNMjcw
ODIxMTAxNjAxWjBwMQswCQYDVQQIEwJLQTELMAkGA1UEBhMCSU4xGzAZBgNVBAMU
EmNhbGN1dHRhXzI5X2NsaWVudDEmMCQGCSqGSIb3DQEJARYXY2FsY3V0dGFfMjlA
dGVzdF9jYS5jb20xDzANBgNVBAoTBkNJVFJJWDCCASIwDQYJKoZIhvcNAQEBBQAD
ggEPADCCAQoCggEBAJdFHqj60IN5ly9SN4AHd/bQZZaraVB9WlhbEt4xDYbBoDlJ
TxEye5l5H4Z0rZRO+C3EtW3b+SrPQgsAZJIxbbq7hLzT16NOCsbLD5RbxnTYq5G3
Xa0Njpz5bpQ9BCAMC8tVm4oYjjh7gSVxGkLLlhwX2np+XD9lu9kUMP+M/ovPw1gs
arI7287NC49MU0fXRCBCxmZUfRTkRdCOADIdRKRRqPBmWOEmEcNVMLgqQjdQpGN2
vOhnywLabmoyGNwIDjH+LNoQyG1YBLSecKNLXnMQYOL1x5GEnIx7zctTr/YccoXD
W4+GNx5atqNrKvC6dOu/S+zen7xe/TRWxLZj2+ECAwEAAaOCAS8wggErMBEGCWCG
SAGG+EIBAQQEAwIHgDAdBgNVHQ4EFgQUniqehxTM0rOOdrSVp3aHyORYdKgwgbgG
A1UdIwSBsDCBrYAUNy57J0ZLz0cQrCsuutDzZnXrUnWhgYmkgYYwgYMxFjAUBgNV
BAMUDUNBTENVVFRBQ0FfQ0ExCzAJBgNVBAYTAklOMQ8wDQYDVQQKEwZDSVRSSVgx
DDAKBgNVBAsTA0FORzELMAkGA1UECBMCS0ExMDAuBgkqhkiG9w0BCQEWIUNBTENV
VFRBQ0FfQ0FAQ0FMQ1VUVEFDQV9tYWlsLmNvbYIJAKXGRw7mBjcYMDwGCCsGAQUF
BwEBBDAwLjAsBggrBgEFBQcwAYYgaHR0cDovLzE3Mi4xOC4yMC4xL3Jlc3BvbmRl
cnBhdGgwDQYJKoZIhvcNAQELBQADggEBAE4Vtt8VTclOQK2sDi86v6ijmxOuHMVF
tSdiH5e7fxT2yUh3LdlzRaTp/cuK0QR4DbLEZgKKP3t86AA+W5bQrBD71XKcOC/B
yfEad+w7BRymelGQCg8Cmel/WZOAhmzTcio/QpP5j0UmxGaltmbKh3GFx7ZP7GAs
Vio+OJYOHFJ4gZjKgRFE+dwyoXVWYLGld03psU2EZ3JDAgoLed15ruQFlu5gW5D1
b9P8bbQoOPWC14yX6dNGFeG0SOy1Xa3r2Gi81vofHdQbsViW04/8t99HMeRPX91V
U4/79m01ayj78g8J4JcbCn1RVl8wAZGSkOUOSebhJr34GDFturnmD8o=
-----END CERTIFICATE-----
