Certificate:
    Data:
        Version: 3 (0x2)
        Serial Number: 11042563100223 (0xa0b0c0d0e3f)
    Signature Algorithm: sha256WithRSAEncryption
        Issuer: CN=CALCUTTACA_CA, C=IN, O=CITRIX, OU=ANG, ST=KA/emailAddress=CALCUTTACA_CA@CALCUTTACA_mail.com
        Validity
            Not Before: Aug 23 10:15:50 2017 GMT
            Not After : Aug 21 10:15:50 2027 GMT
        Subject: ST=KA, C=IN, CN=calcutta_9_client/emailAddress=calcutta_9@test_ca.com, O=CITRIX
        Subject Public Key Info:
            Public Key Algorithm: rsaEncryption
                Public-Key: (2048 bit)
                Modulus:
                    00:c0:1a:9b:76:69:f7:dc:75:62:79:90:ac:eb:0c:
                    7c:4c:b9:b4:c4:71:b4:55:41:37:9f:47:52:50:90:
                    69:3c:70:52:ab:0c:ed:b9:44:79:0d:fa:0e:4b:53:
                    15:85:76:1f:d1:3b:0b:01:b9:92:8b:a9:da:31:17:
                    e0:c4:c8:49:81:8a:a7:1b:9d:6b:4a:03:99:61:3a:
                    96:3d:d0:19:fe:60:35:74:06:dc:d8:8f:39:77:b1:
                    5b:9f:3a:0b:f3:5c:dd:05:e5:24:ba:e1:e4:a8:6f:
                    59:7a:af:80:f0:ed:cc:53:32:7f:91:a5:d0:1e:c9:
                    9b:2b:62:03:17:7e:44:4b:6d:10:da:b8:d7:a6:81:
                    3d:6a:91:24:a2:90:e5:6b:2f:85:ec:39:48:a4:f6:
                    dd:8f:c4:e4:d8:53:8c:aa:cc:a8:77:29:b9:a7:cc:
                    45:b7:c2:83:6f:51:2c:59:6f:ed:77:81:ad:46:81:
                    d8:ec:86:64:a4:1b:27:0d:45:b6:81:48:bb:cd:cd:
                    87:70:09:7b:8c:90:68:7a:32:2b:bf:e4:46:49:70:
                    c0:65:19:14:bc:88:c1:7f:1f:01:a2:47:71:c3:4d:
                    db:3c:5f:10:46:7f:da:63:fb:7a:17:68:a2:95:f5:
                    1f:6f:3f:1b:b7:bc:d1:a9:2f:3b:bb:82:aa:81:9b:
                    90:5d
                Exponent: 65537 (0x10001)
        X509v3 extensions:
            Netscape Cert Type: 
                SSL Client
            X509v3 Subject Key Identifier: 
                24:A1:41:60:79:28:5D:BB:28:3C:AB:93:53:FC:F3:44:E1:B3:C7:D6
            X509v3 Authority Key Identifier: 
                keyid:37:2E:7B:27:46:4B:CF:47:10:AC:2B:2E:BA:D0:F3:66:75:EB:52:75
                DirName:/CN=CALCUTTACA_CA/C=IN/O=CITRIX/OU=ANG/ST=KA/emailAddress=CALCUTTACA_CA@CALCUTTACA_mail.com
                serial:A5:C6:47:0E:E6:06:37:18

            Authority Information Access: 
                OCSP - URI:http://172.18.20.1/responderpath

    Signature Algorithm: sha256WithRSAEncryption
         9a:45:cd:96:0d:9d:30:9a:51:72:d5:6f:71:bf:c6:ff:a4:69:
         16:42:b7:e2:81:d2:e4:71:85:26:29:a8:8b:6c:21:62:e1:6d:
         66:e3:47:7a:a0:97:8e:a2:3f:2a:91:d9:63:89:de:1b:ee:17:
         10:e2:60:b7:95:44:a4:46:38:a7:2a:97:5d:e5:11:73:6d:60:
         cb:94:51:5b:c7:37:45:2c:22:bb:4f:63:c1:ab:1d:15:1b:b5:
         c4:d2:0a:1a:b8:c3:e4:78:88:64:73:9a:5c:3c:bf:dd:44:44:
         ec:9e:34:cf:35:54:7a:37:08:fe:81:a7:69:4e:5b:00:df:06:
         5b:49:3f:4d:81:1b:f8:a5:bb:7f:10:e5:e2:18:0d:dc:2c:44:
         90:01:c5:c6:18:9f:3a:7d:45:36:d4:a4:76:7c:d4:6d:0e:8d:
         b5:81:c3:16:dc:6b:80:3d:09:7a:bd:be:31:c5:2b:30:9c:cd:
         4e:cc:c8:11:06:24:b9:85:3b:76:4e:4b:86:dd:2f:14:e7:5a:
         78:12:30:3d:36:10:e5:88:3e:30:cb:36:a4:fd:bb:c6:a0:de:
         62:3e:7d:79:60:95:ef:fc:61:e3:47:09:0f:65:36:7f:f9:97:
         de:93:70:9c:b6:d0:83:ca:5c:5c:5f:0d:b4:04:06:a9:96:5e:
         75:26:4e:1a
-----BEGIN CERTIFICATE-----
MIIEozCCA4ugAwIBAgIGCgsMDQ4/MA0GCSqGSIb3DQEBCwUAMIGDMRYwFAYDVQQD
FA1DQUxDVVRUQUNBX0NBMQswCQYDVQQGEwJJTjEPMA0GA1UEChMGQ0lUUklYMQww
CgYDVQQLEwNBTkcxCzAJBgNVBAgTAktBMTAwLgYJKoZIhvcNAQkBFiFDQUxDVVRU
QUNBX0NBQENBTENVVFRBQ0FfbWFpbC5jb20wHhcNMTcwODIzMTAxNTUwWhcNMjcw
ODIxMTAxNTUwWjBuMQswCQYDVQQIEwJLQTELMAkGA1UEBhMCSU4xGjAYBgNVBAMU
EWNhbGN1dHRhXzlfY2xpZW50MSUwIwYJKoZIhvcNAQkBFhZjYWxjdXR0YV85QHRl
c3RfY2EuY29tMQ8wDQYDVQQKEwZDSVRSSVgwggEiMA0GCSqGSIb3DQEBAQUAA4IB
DwAwggEKAoIBAQDAGpt2affcdWJ5kKzrDHxMubTEcbRVQTefR1JQkGk8cFKrDO25
RHkN+g5LUxWFdh/ROwsBuZKLqdoxF+DEyEmBiqcbnWtKA5lhOpY90Bn+YDV0BtzY
jzl3sVufOgvzXN0F5SS64eSob1l6r4Dw7cxTMn+RpdAeyZsrYgMXfkRLbRDauNem
gT1qkSSikOVrL4XsOUik9t2PxOTYU4yqzKh3KbmnzEW3woNvUSxZb+13ga1Ggdjs
hmSkGycNRbaBSLvNzYdwCXuMkGh6Miu/5EZJcMBlGRS8iMF/HwGiR3HDTds8XxBG
f9pj+3oXaKKV9R9vPxu3vNGpLzu7gqqBm5BdAgMBAAGjggEvMIIBKzARBglghkgB
hvhCAQEEBAMCB4AwHQYDVR0OBBYEFCShQWB5KF27KDyrk1P880Ths8fWMIG4BgNV
HSMEgbAwga2AFDcueydGS89HEKwrLrrQ82Z161J1oYGJpIGGMIGDMRYwFAYDVQQD
FA1DQUxDVVRUQUNBX0NBMQswCQYDVQQGEwJJTjEPMA0GA1UEChMGQ0lUUklYMQww
CgYDVQQLEwNBTkcxCzAJBgNVBAgTAktBMTAwLgYJKoZIhvcNAQkBFiFDQUxDVVRU
QUNBX0NBQENBTENVVFRBQ0FfbWFpbC5jb22CCQClxkcO5gY3GDA8BggrBgEFBQcB
AQQwMC4wLAYIKwYBBQUHMAGGIGh0dHA6Ly8xNzIuMTguMjAuMS9yZXNwb25kZXJw
YXRoMA0GCSqGSIb3DQEBCwUAA4IBAQCaRc2WDZ0wmlFy1W9xv8b/pGkWQrfigdLk
cYUmKaiLbCFi4W1m40d6oJeOoj8qkdljid4b7hcQ4mC3lUSkRjinKpdd5RFzbWDL
lFFbxzdFLCK7T2PBqx0VG7XE0goauMPkeIhkc5pcPL/dRETsnjTPNVR6Nwj+gadp
TlsA3wZbST9NgRv4pbt/EOXiGA3cLESQAcXGGJ86fUU21KR2fNRtDo21gcMW3GuA
PQl6vb4xxSswnM1OzMgRBiS5hTt2TkuG3S8U51p4EjA9NhDliD4wyzak/bvGoN5i
Pn15YJXv/GHjRwkPZTZ/+Zfek3CcttCDylxcXw20BAapll51Jk4a
-----END CERTIFICATE-----
