Certificate:
    Data:
        Version: 3 (0x2)
        Serial Number: 11042563100246 (0xa0b0c0d0e56)
    Signature Algorithm: sha256WithRSAEncryption
        Issuer: CN=CALCUTTACA_CA, C=IN, O=CITRIX, OU=ANG, ST=KA/emailAddress=CALCUTTACA_CA@CALCUTTACA_mail.com
        Validity
            Not Before: Aug 23 10:16:03 2017 GMT
            Not After : Aug 21 10:16:03 2027 GMT
        Subject: ST=KA, C=IN, CN=calcutta_32_client/emailAddress=calcutta_32@test_ca.com, O=CITRIX
        Subject Public Key Info:
            Public Key Algorithm: rsaEncryption
                Public-Key: (2048 bit)
                Modulus:
                    00:c4:fa:1b:53:b4:82:7e:a2:ab:7b:98:9f:b0:a2:
                    06:3e:27:7c:e4:c9:4c:a9:92:ef:9d:2a:1d:d2:0b:
                    83:8b:dc:ed:cf:df:86:df:00:3d:35:1b:17:e2:a1:
                    69:1a:29:fe:0c:0d:e4:e1:55:de:17:df:49:44:0e:
                    72:23:5b:4e:2f:50:c4:63:b3:c3:69:d5:ef:1d:45:
                    fe:9d:a4:76:55:5e:9d:50:e7:66:a0:9c:13:92:bc:
                    94:5f:16:96:0c:10:98:5b:ee:fb:cd:b5:81:3a:e7:
                    18:55:6d:63:ab:16:cc:6e:d7:34:0e:b9:e0:14:56:
                    8b:c0:9c:b9:bc:b4:f1:d4:29:1e:37:d9:7e:9a:00:
                    ca:02:4a:01:6c:c9:e8:9a:45:40:04:6f:ea:86:5f:
                    88:2c:eb:8d:13:9a:76:fd:d8:50:66:92:2f:86:96:
                    64:df:6e:ac:e0:42:47:2f:1f:06:6b:ca:ae:a8:ef:
                    ac:12:02:8f:08:f0:0a:fa:5e:8f:13:2f:09:18:65:
                    5e:38:7c:8b:6f:4d:09:15:9e:26:f9:4d:e7:d1:8d:
                    38:89:fd:94:e4:c9:8e:5d:8c:b2:d2:af:4e:f3:7f:
                    64:4a:16:b7:c6:48:8c:d2:f3:49:53:71:cc:97:d1:
                    3f:db:f6:3e:81:2d:9f:14:a1:45:12:a1:fa:65:9a:
                    98:5d
                Exponent: 65537 (0x10001)
        X509v3 extensions:
            Netscape Cert Type: 
                SSL Client
            X509v3 Subject Key Identifier: 
                A5:C5:8D:F6:27:47:6E:F8:EC:D7:C5:46:D1:B9:F1:E9:B1:C5:62:D6
            X509v3 Authority Key Identifier: 
                keyid:37:2E:7B:27:46:4B:CF:47:10:AC:2B:2E:BA:D0:F3:66:75:EB:52:75
                DirName:/CN=CALCUTTACA_CA/C=IN/O=CITRIX/OU=ANG/ST=KA/emailAddress=CALCUTTACA_CA@CALCUTTACA_mail.com
                serial:A5:C6:47:0E:E6:06:37:18

            Authority Information Access: 
                OCSP - URI:http://172.18.20.1/responderpath

    Signature Algorithm: sha256WithRSAEncryption
         8c:30:fb:15:2e:d9:c1:6c:4e:39:2e:1d:4e:1a:61:ac:20:92:
         9d:eb:22:81:e2:c5:48:ee:e7:d8:d1:c8:a7:39:3b:58:4d:e1:
         d4:67:2f:72:e5:e0:42:79:73:5a:9e:2c:f4:8a:dc:7a:bd:dd:
         68:d8:7d:fa:8e:f7:28:fb:6e:7d:11:ee:b5:0a:7f:08:f0:f4:
         d0:8b:d2:48:69:8d:23:e8:c3:10:6e:91:07:30:1a:0e:4f:cf:
         d1:9f:14:6c:9d:39:3a:96:b6:84:e6:85:94:d1:20:7a:ac:de:
         71:2f:db:34:55:5b:63:df:8b:ac:28:7c:15:d1:5c:b3:b5:ec:
         60:35:c6:86:f2:91:4f:14:00:01:9a:9f:b2:82:e8:19:27:28:
         9e:f3:d3:fc:89:08:65:94:60:a6:e6:26:cc:bd:30:43:db:df:
         43:76:2e:35:3f:85:e0:da:f1:51:f9:c6:90:35:d2:5c:75:7c:
         8d:a5:87:92:e4:5e:a3:6a:6b:4f:3d:f3:99:6f:0d:70:d8:ec:
         71:d7:c1:34:54:d5:83:40:85:c5:bd:1a:d9:44:27:c1:82:99:
         7f:92:34:d9:98:e0:76:d2:53:97:f7:86:49:99:63:e5:b5:da:
         5d:12:fc:d6:a2:74:29:10:4c:51:a0:fd:d3:3c:33:41:3c:f7:
         53:68:56:01
-----BEGIN CERTIFICATE-----
MIIEpTCCA42gAwIBAgIGCgsMDQ5WMA0GCSqGSIb3DQEBCwUAMIGDMRYwFAYDVQQD
FA1DQUxDVVRUQUNBX0NBMQswCQYDVQQGEwJJTjEPMA0GA1UEChMGQ0lUUklYMQww
CgYDVQQLEwNBTkcxCzAJBgNVBAgTAktBMTAwLgYJKoZIhvcNAQkBFiFDQUxDVVRU
QUNBX0NBQENBTENVVFRBQ0FfbWFpbC5jb20wHhcNMTcwODIzMTAxNjAzWhcNMjcw
ODIxMTAxNjAzWjBwMQswCQYDVQQIEwJLQTELMAkGA1UEBhMCSU4xGzAZBgNVBAMU
EmNhbGN1dHRhXzMyX2NsaWVudDEmMCQGCSqGSIb3DQEJARYXY2FsY3V0dGFfMzJA
dGVzdF9jYS5jb20xDzANBgNVBAoTBkNJVFJJWDCCASIwDQYJKoZIhvcNAQEBBQAD
ggEPADCCAQoCggEBAMT6G1O0gn6iq3uYn7CiBj4nfOTJTKmS750qHdILg4vc7c/f
ht8APTUbF+KhaRop/gwN5OFV3hffSUQOciNbTi9QxGOzw2nV7x1F/p2kdlVenVDn
ZqCcE5K8lF8WlgwQmFvu+821gTrnGFVtY6sWzG7XNA654BRWi8Ccuby08dQpHjfZ
fpoAygJKAWzJ6JpFQARv6oZfiCzrjROadv3YUGaSL4aWZN9urOBCRy8fBmvKrqjv
rBICjwjwCvpejxMvCRhlXjh8i29NCRWeJvlN59GNOIn9lOTJjl2MstKvTvN/ZEoW
t8ZIjNLzSVNxzJfRP9v2PoEtnxShRRKh+mWamF0CAwEAAaOCAS8wggErMBEGCWCG
SAGG+EIBAQQEAwIHgDAdBgNVHQ4EFgQUpcWN9idHbvjs18VG0bnx6bHFYtYwgbgG
A1UdIwSBsDCBrYAUNy57J0ZLz0cQrCsuutDzZnXrUnWhgYmkgYYwgYMxFjAUBgNV
BAMUDUNBTENVVFRBQ0FfQ0ExCzAJBgNVBAYTAklOMQ8wDQYDVQQKEwZDSVRSSVgx
DDAKBgNVBAsTA0FORzELMAkGA1UECBMCS0ExMDAuBgkqhkiG9w0BCQEWIUNBTENV
VFRBQ0FfQ0FAQ0FMQ1VUVEFDQV9tYWlsLmNvbYIJAKXGRw7mBjcYMDwGCCsGAQUF
BwEBBDAwLjAsBggrBgEFBQcwAYYgaHR0cDovLzE3Mi4xOC4yMC4xL3Jlc3BvbmRl
cnBhdGgwDQYJKoZIhvcNAQELBQADggEBAIww+xUu2cFsTjkuHU4aYawgkp3rIoHi
xUju59jRyKc5O1hN4dRnL3Ll4EJ5c1qeLPSK3Hq93WjYffqO9yj7bn0R7rUKfwjw
9NCL0khpjSPowxBukQcwGg5Pz9GfFGydOTqWtoTmhZTRIHqs3nEv2zRVW2Pfi6wo
fBXRXLO17GA1xobykU8UAAGan7KC6BknKJ7z0/yJCGWUYKbmJsy9MEPb30N2LjU/
heDa8VH5xpA10lx1fI2lh5LkXqNqa08985lvDXDY7HHXwTRU1YNAhcW9GtlEJ8GC
mX+SNNmY4HbSU5f3hkmZY+W12l0S/NaidCkQTFGg/dM8M0E891NoVgE=
-----END CERTIFICATE-----
