Certificate:
    Data:
        Version: 3 (0x2)
        Serial Number: 11042563100239 (0xa0b0c0d0e4f)
    Signature Algorithm: sha256WithRSAEncryption
        Issuer: CN=CALCUTTACA_CA, C=IN, O=CITRIX, OU=ANG, ST=KA/emailAddress=CALCUTTACA_CA@CALCUTTACA_mail.com
        Validity
            Not Before: Aug 23 10:15:59 2017 GMT
            Not After : Aug 21 10:15:59 2027 GMT
        Subject: ST=KA, C=IN, CN=calcutta_25_client/emailAddress=calcutta_25@test_ca.com, O=CITRIX
        Subject Public Key Info:
            Public Key Algorithm: rsaEncryption
                Public-Key: (2048 bit)
                Modulus:
                    00:9e:c3:2a:f7:ee:49:59:b7:af:a9:a7:55:54:6e:
                    4f:51:d7:b0:6e:f5:d3:18:66:53:18:11:8a:ef:10:
                    80:d3:19:12:82:c7:ac:90:da:c4:bf:69:35:a7:ff:
                    ac:5e:6b:8c:7e:1d:71:78:50:79:bc:3f:78:28:0f:
                    f0:f2:56:33:d4:85:7b:cc:3a:f6:6d:dd:b7:a1:28:
                    27:8e:cd:08:6e:3e:a6:c7:4f:90:34:e7:57:e9:40:
                    3a:cf:39:22:6e:27:ac:bc:b2:6c:e5:d9:fa:af:4e:
                    72:35:01:ea:28:cd:aa:62:c6:e3:3f:13:59:15:d4:
                    69:37:42:bd:52:8c:c8:0f:47:63:7a:1c:59:50:2e:
                    08:25:3d:ff:e5:f3:56:db:97:e2:bc:c3:d6:2f:7d:
                    e0:66:4e:18:f3:25:26:53:29:4c:b0:0b:93:20:6a:
                    33:a7:30:05:12:81:35:23:1d:77:7d:a2:5d:12:97:
                    c3:ab:6a:41:e1:b5:ef:a6:3b:dd:37:32:72:51:c4:
                    56:20:2a:8d:45:22:9a:46:b1:2e:9f:43:02:3e:2d:
                    22:85:29:78:cf:01:12:03:56:3a:8a:01:7b:b5:72:
                    ef:07:86:7d:aa:a9:08:92:2e:2c:4e:27:47:82:18:
                    90:f8:36:c1:37:ad:f9:3e:2a:f5:ac:31:a2:8d:e6:
                    6d:41
                Exponent: 65537 (0x10001)
        X509v3 extensions:
            Netscape Cert Type: 
                SSL Client
            X509v3 Subject Key Identifier: 
                1E:D9:78:DA:5D:24:D2:78:19:8B:34:A1:33:23:DB:FB:E5:4A:89:4F
            X509v3 Authority Key Identifier: 
                keyid:37:2E:7B:27:46:4B:CF:47:10:AC:2B:2E:BA:D0:F3:66:75:EB:52:75
                DirName:/CN=CALCUTTACA_CA/C=IN/O=CITRIX/OU=ANG/ST=KA/emailAddress=CALCUTTACA_CA@CALCUTTACA_mail.com
                serial:A5:C6:47:0E:E6:06:37:18

            Authority Information Access: 
                OCSP - URI:http://172.18.20.1/responderpath

    Signature Algorithm: sha256WithRSAEncryption
         4e:c9:eb:28:0e:29:db:16:55:05:62:87:52:e7:47:13:5b:61:
         32:0c:53:01:04:de:0a:b1:6c:31:15:10:53:90:9d:01:fb:ec:
         ab:94:5b:57:c3:33:09:2e:a8:63:18:8a:9c:46:87:26:fb:26:
         69:0e:fd:6c:01:47:20:16:f0:1a:39:fb:b3:80:b1:d4:63:e1:
         af:3e:0c:e4:ad:6b:92:64:45:54:2b:60:c0:56:6c:1e:4f:12:
         bc:53:73:fb:9f:7f:d5:58:9a:a4:74:b4:db:d2:73:83:05:95:
         dc:82:dd:ee:56:16:76:45:8d:83:41:44:9a:ba:40:51:ae:11:
         f8:fb:d6:7e:28:c8:38:a1:ed:43:8d:2d:36:c3:7f:d7:8f:29:
         62:3b:9c:85:c0:68:9e:23:94:79:4d:8f:19:ce:c4:f1:a9:2e:
         1f:84:1a:99:9f:67:5d:fd:56:44:4a:8a:fd:d4:f6:3a:c4:5f:
         e8:9b:66:ec:c7:77:71:5f:6c:a0:93:62:b5:e0:d5:8e:2d:1f:
         ad:9e:60:38:a7:59:d9:57:9a:ea:79:f5:f5:17:dc:80:5c:87:
         73:e7:4d:37:16:28:b7:36:e3:93:ef:a2:70:78:03:31:82:0e:
         04:0d:2a:09:4e:3d:d7:34:73:18:80:85:dd:67:2c:c4:47:89:
         9d:5d:b8:ee
-----BEGIN CERTIFICATE-----
MIIEpTCCA42gAwIBAgIGCgsMDQ5PMA0GCSqGSIb3DQEBCwUAMIGDMRYwFAYDVQQD
FA1DQUxDVVRUQUNBX0NBMQswCQYDVQQGEwJJTjEPMA0GA1UEChMGQ0lUUklYMQww
CgYDVQQLEwNBTkcxCzAJBgNVBAgTAktBMTAwLgYJKoZIhvcNAQkBFiFDQUxDVVRU
QUNBX0NBQENBTENVVFRBQ0FfbWFpbC5jb20wHhcNMTcwODIzMTAxNTU5WhcNMjcw
ODIxMTAxNTU5WjBwMQswCQYDVQQIEwJLQTELMAkGA1UEBhMCSU4xGzAZBgNVBAMU
EmNhbGN1dHRhXzI1X2NsaWVudDEmMCQGCSqGSIb3DQEJARYXY2FsY3V0dGFfMjVA
dGVzdF9jYS5jb20xDzANBgNVBAoTBkNJVFJJWDCCASIwDQYJKoZIhvcNAQEBBQAD
ggEPADCCAQoCggEBAJ7DKvfuSVm3r6mnVVRuT1HXsG710xhmUxgRiu8QgNMZEoLH
rJDaxL9pNaf/rF5rjH4dcXhQebw/eCgP8PJWM9SFe8w69m3dt6EoJ47NCG4+psdP
kDTnV+lAOs85Im4nrLyybOXZ+q9OcjUB6ijNqmLG4z8TWRXUaTdCvVKMyA9HY3oc
WVAuCCU9/+XzVtuX4rzD1i994GZOGPMlJlMpTLALkyBqM6cwBRKBNSMdd32iXRKX
w6tqQeG176Y73TcyclHEViAqjUUimkaxLp9DAj4tIoUpeM8BEgNWOooBe7Vy7weG
faqpCJIuLE4nR4IYkPg2wTet+T4q9awxoo3mbUECAwEAAaOCAS8wggErMBEGCWCG
SAGG+EIBAQQEAwIHgDAdBgNVHQ4EFgQUHtl42l0k0ngZizShMyPb++VKiU8wgbgG
A1UdIwSBsDCBrYAUNy57J0ZLz0cQrCsuutDzZnXrUnWhgYmkgYYwgYMxFjAUBgNV
BAMUDUNBTENVVFRBQ0FfQ0ExCzAJBgNVBAYTAklOMQ8wDQYDVQQKEwZDSVRSSVgx
DDAKBgNVBAsTA0FORzELMAkGA1UECBMCS0ExMDAuBgkqhkiG9w0BCQEWIUNBTENV
VFRBQ0FfQ0FAQ0FMQ1VUVEFDQV9tYWlsLmNvbYIJAKXGRw7mBjcYMDwGCCsGAQUF
BwEBBDAwLjAsBggrBgEFBQcwAYYgaHR0cDovLzE3Mi4xOC4yMC4xL3Jlc3BvbmRl
cnBhdGgwDQYJKoZIhvcNAQELBQADggEBAE7J6ygOKdsWVQVih1LnRxNbYTIMUwEE
3gqxbDEVEFOQnQH77KuUW1fDMwkuqGMYipxGhyb7JmkO/WwBRyAW8Bo5+7OAsdRj
4a8+DOSta5JkRVQrYMBWbB5PErxTc/uff9VYmqR0tNvSc4MFldyC3e5WFnZFjYNB
RJq6QFGuEfj71n4oyDih7UONLTbDf9ePKWI7nIXAaJ4jlHlNjxnOxPGpLh+EGpmf
Z139VkRKiv3U9jrEX+ibZuzHd3FfbKCTYrXg1Y4tH62eYDinWdlXmup59fUX3IBc
h3PnTTcWKLc245PvonB4AzGCDgQNKglOPdc0cxiAhd1nLMRHiZ1duO4=
-----END CERTIFICATE-----
