Certificate:
    Data:
        Version: 3 (0x2)
        Serial Number: 11042563100236 (0xa0b0c0d0e4c)
    Signature Algorithm: sha256WithRSAEncryption
        Issuer: CN=CALCUTTACA_CA, C=IN, O=CITRIX, OU=ANG, ST=KA/emailAddress=CALCUTTACA_CA@CALCUTTACA_mail.com
        Validity
            Not Before: Aug 23 10:15:56 2017 GMT
            Not After : Aug 21 10:15:56 2027 GMT
        Subject: ST=KA, C=IN, CN=calcutta_22_client/emailAddress=calcutta_22@test_ca.com, O=CITRIX
        Subject Public Key Info:
            Public Key Algorithm: rsaEncryption
                Public-Key: (2048 bit)
                Modulus:
                    00:c5:45:e2:e1:92:f5:05:02:1d:6a:3d:c9:5f:98:
                    83:ea:dd:77:e2:59:b3:23:97:f6:c9:9e:fb:07:49:
                    99:f6:5e:c8:2c:39:05:b0:2e:64:e7:b4:5d:ad:d3:
                    1b:56:32:2e:1e:13:fd:6b:ad:54:15:52:81:13:10:
                    8f:40:c9:f3:8c:bd:d5:39:47:7b:d4:88:27:19:b0:
                    25:f8:91:13:18:66:d9:5a:40:7a:54:7d:d3:b9:7f:
                    f3:7f:91:60:21:75:66:5a:c3:97:8a:ee:52:2e:45:
                    38:a4:c1:25:57:93:3f:66:79:e8:13:bf:5c:c8:f4:
                    61:77:9e:a8:1a:c3:8a:07:52:a8:5e:5a:43:4e:03:
                    db:4e:51:b6:1f:d6:dd:58:f8:c1:b4:a5:11:1f:22:
                    b8:0b:8e:eb:fc:b9:0b:76:bf:2a:6f:05:38:ab:f9:
                    55:3e:ea:02:69:5c:94:cc:58:bb:9e:77:64:0e:43:
                    3c:93:d3:b6:36:a8:86:50:55:47:a4:ad:51:0d:a0:
                    c5:d7:81:37:76:e7:1f:89:f5:17:16:48:55:ba:15:
                    e8:4f:47:c3:01:aa:c4:14:f1:36:8a:f2:54:85:48:
                    37:b9:ab:9c:09:6a:fd:18:2f:d3:82:63:51:1a:ce:
                    1f:2c:97:56:6b:d8:95:98:d7:00:b0:81:0a:24:43:
                    03:79
                Exponent: 65537 (0x10001)
        X509v3 extensions:
            Netscape Cert Type: 
                SSL Client
            X509v3 Subject Key Identifier: 
                21:87:D4:70:68:10:2F:6D:94:C0:5E:10:1C:94:D0:63:5B:C7:B6:68
            X509v3 Authority Key Identifier: 
                keyid:37:2E:7B:27:46:4B:CF:47:10:AC:2B:2E:BA:D0:F3:66:75:EB:52:75
                DirName:/CN=CALCUTTACA_CA/C=IN/O=CITRIX/OU=ANG/ST=KA/emailAddress=CALCUTTACA_CA@CALCUTTACA_mail.com
                serial:A5:C6:47:0E:E6:06:37:18

            Authority Information Access: 
                OCSP - URI:http://172.18.20.1/responderpath

    Signature Algorithm: sha256WithRSAEncryption
         8f:96:d0:2f:8b:69:b4:b8:c2:a5:e5:88:a4:35:d4:4f:8a:b2:
         3a:fd:29:6c:9f:6f:8d:77:7b:29:f7:d9:0e:50:a8:8d:34:5f:
         4c:86:22:13:fe:cb:ce:18:a4:96:dc:0b:f2:16:0b:7d:af:68:
         69:0d:6c:d6:29:59:09:65:42:95:2d:6e:b2:1a:8a:89:81:2a:
         55:1d:a4:43:8f:b6:61:38:86:c1:d1:e2:0f:c3:3f:38:32:67:
         da:b2:77:3b:df:2c:ea:33:2c:73:4e:99:0c:2c:34:e8:06:c0:
         b7:10:d3:dc:71:4a:ec:bb:b6:ea:51:a3:96:7e:cc:13:a8:1b:
         63:f6:ec:c8:0d:25:a6:78:0d:03:22:c0:50:e5:55:93:f3:b0:
         69:5e:3d:01:c5:a2:13:86:c7:59:3b:61:b1:d0:f4:35:88:e2:
         38:05:a6:f0:20:46:d9:5d:2d:9b:63:b8:4f:79:e0:7b:95:62:
         80:c5:1f:4b:2b:f6:b1:1c:83:30:ce:0f:2c:ee:3b:49:0a:8c:
         d4:0b:93:97:42:9e:42:c1:69:00:4b:ab:06:59:53:d7:26:58:
         36:6f:35:80:90:8d:9c:a4:76:cc:ac:c1:1b:a3:35:b1:cf:42:
         3d:c5:fd:89:8e:52:59:4c:eb:9f:35:aa:99:ca:ec:95:5b:61:
         6d:6b:fa:9c
-----BEGIN CERTIFICATE-----
MIIEpTCCA42gAwIBAgIGCgsMDQ5MMA0GCSqGSIb3DQEBCwUAMIGDMRYwFAYDVQQD
FA1DQUxDVVRUQUNBX0NBMQswCQYDVQQGEwJJTjEPMA0GA1UEChMGQ0lUUklYMQww
CgYDVQQLEwNBTkcxCzAJBgNVBAgTAktBMTAwLgYJKoZIhvcNAQkBFiFDQUxDVVRU
QUNBX0NBQENBTENVVFRBQ0FfbWFpbC5jb20wHhcNMTcwODIzMTAxNTU2WhcNMjcw
ODIxMTAxNTU2WjBwMQswCQYDVQQIEwJLQTELMAkGA1UEBhMCSU4xGzAZBgNVBAMU
EmNhbGN1dHRhXzIyX2NsaWVudDEmMCQGCSqGSIb3DQEJARYXY2FsY3V0dGFfMjJA
dGVzdF9jYS5jb20xDzANBgNVBAoTBkNJVFJJWDCCASIwDQYJKoZIhvcNAQEBBQAD
ggEPADCCAQoCggEBAMVF4uGS9QUCHWo9yV+Yg+rdd+JZsyOX9sme+wdJmfZeyCw5
BbAuZOe0Xa3TG1YyLh4T/WutVBVSgRMQj0DJ84y91TlHe9SIJxmwJfiRExhm2VpA
elR907l/83+RYCF1ZlrDl4ruUi5FOKTBJVeTP2Z56BO/XMj0YXeeqBrDigdSqF5a
Q04D205Rth/W3Vj4wbSlER8iuAuO6/y5C3a/Km8FOKv5VT7qAmlclMxYu553ZA5D
PJPTtjaohlBVR6StUQ2gxdeBN3bnH4n1FxZIVboV6E9HwwGqxBTxNoryVIVIN7mr
nAlq/Rgv04JjURrOHyyXVmvYlZjXALCBCiRDA3kCAwEAAaOCAS8wggErMBEGCWCG
SAGG+EIBAQQEAwIHgDAdBgNVHQ4EFgQUIYfUcGgQL22UwF4QHJTQY1vHtmgwgbgG
A1UdIwSBsDCBrYAUNy57J0ZLz0cQrCsuutDzZnXrUnWhgYmkgYYwgYMxFjAUBgNV
BAMUDUNBTENVVFRBQ0FfQ0ExCzAJBgNVBAYTAklOMQ8wDQYDVQQKEwZDSVRSSVgx
DDAKBgNVBAsTA0FORzELMAkGA1UECBMCS0ExMDAuBgkqhkiG9w0BCQEWIUNBTENV
VFRBQ0FfQ0FAQ0FMQ1VUVEFDQV9tYWlsLmNvbYIJAKXGRw7mBjcYMDwGCCsGAQUF
BwEBBDAwLjAsBggrBgEFBQcwAYYgaHR0cDovLzE3Mi4xOC4yMC4xL3Jlc3BvbmRl
cnBhdGgwDQYJKoZIhvcNAQELBQADggEBAI+W0C+LabS4wqXliKQ11E+Ksjr9KWyf
b413eyn32Q5QqI00X0yGIhP+y84YpJbcC/IWC32vaGkNbNYpWQllQpUtbrIaiomB
KlUdpEOPtmE4hsHR4g/DPzgyZ9qydzvfLOozLHNOmQwsNOgGwLcQ09xxSuy7tupR
o5Z+zBOoG2P27MgNJaZ4DQMiwFDlVZPzsGlePQHFohOGx1k7YbHQ9DWI4jgFpvAg
RtldLZtjuE954HuVYoDFH0sr9rEcgzDODyzuO0kKjNQLk5dCnkLBaQBLqwZZU9cm
WDZvNYCQjZykdsyswRujNbHPQj3F/YmOUllM6581qpnK7JVbYW1r+pw=
-----END CERTIFICATE-----
