Certificate:
    Data:
        Version: 3 (0x2)
        Serial Number: 11042563100225 (0xa0b0c0d0e41)
    Signature Algorithm: sha256WithRSAEncryption
        Issuer: CN=CALCUTTACA_CA, C=IN, O=CITRIX, OU=ANG, ST=KA/emailAddress=CALCUTTACA_CA@CALCUTTACA_mail.com
        Validity
            Not Before: Aug 23 10:15:51 2017 GMT
            Not After : Aug 21 10:15:51 2027 GMT
        Subject: ST=KA, C=IN, CN=calcutta_11_client/emailAddress=calcutta_11@test_ca.com, O=CITRIX
        Subject Public Key Info:
            Public Key Algorithm: rsaEncryption
                Public-Key: (2048 bit)
                Modulus:
                    00:c3:48:f4:de:8f:10:12:c9:9d:c7:37:7e:c3:24:
                    90:f7:a7:c2:1a:8e:eb:6e:a9:62:40:d1:63:b4:b9:
                    74:c4:8d:07:bf:43:02:72:1e:94:f7:ea:46:70:63:
                    84:cb:9e:d4:17:e0:30:cc:78:6c:14:21:80:f4:04:
                    13:55:6f:1d:42:a4:16:51:27:08:25:60:15:25:6b:
                    a4:8e:c2:da:27:1f:57:f2:06:15:bb:dc:50:83:06:
                    a7:d3:14:b5:0e:ea:bd:6c:e0:5c:87:34:50:3e:02:
                    08:cd:ce:a9:86:bb:fa:d3:bf:52:a0:42:68:d0:d9:
                    5d:e0:cc:0a:ed:60:0e:4e:5d:ae:81:2b:b7:36:2b:
                    00:62:37:91:1b:80:10:15:8b:f3:1e:d6:b3:ed:ba:
                    97:07:4b:de:ac:b5:f1:33:2e:ee:11:ce:2f:9e:72:
                    ab:3d:38:d0:e1:39:09:99:43:3f:f1:61:f3:b7:05:
                    09:45:65:3b:13:87:55:a5:69:e1:71:e5:bf:d2:13:
                    06:a8:34:ce:ff:f8:9a:e5:5b:39:df:19:be:11:9a:
                    f4:d0:19:c0:a3:44:20:3b:1e:71:00:cb:27:51:6f:
                    bf:02:53:4f:0b:f0:f4:6a:dd:c1:7d:30:88:e6:ca:
                    de:1f:61:4d:ca:1e:40:47:0f:1f:99:24:e0:87:e2:
                    a5:d1
                Exponent: 65537 (0x10001)
        X509v3 extensions:
            Netscape Cert Type: 
                SSL Client
            X509v3 Subject Key Identifier: 
                6E:CA:CC:07:8B:31:A9:12:7C:CC:DB:70:70:EF:75:FB:99:6D:29:7F
            X509v3 Authority Key Identifier: 
                keyid:37:2E:7B:27:46:4B:CF:47:10:AC:2B:2E:BA:D0:F3:66:75:EB:52:75
                DirName:/CN=CALCUTTACA_CA/C=IN/O=CITRIX/OU=ANG/ST=KA/emailAddress=CALCUTTACA_CA@CALCUTTACA_mail.com
                serial:A5:C6:47:0E:E6:06:37:18

            Authority Information Access: 
                OCSP - URI:http://172.18.20.1/responderpath

    Signature Algorithm: sha256WithRSAEncryption
         c7:7c:54:e8:80:5d:b8:68:62:ee:02:51:c0:54:e1:5d:d4:b6:
         a2:61:94:79:a8:62:5f:a7:b8:39:ff:e9:69:4f:08:4b:08:f8:
         5b:2a:4d:6e:89:d6:3a:56:e7:dc:e3:5b:5d:bc:38:f9:43:3e:
         83:4a:38:34:f4:19:ab:12:58:2a:da:c9:14:4d:63:41:cb:5c:
         d0:54:2d:09:64:9b:e9:8b:50:99:0e:bf:12:c6:4e:99:12:43:
         5f:53:ac:21:5b:58:bf:6c:bf:73:00:78:3d:ea:79:cf:2b:f1:
         ed:bd:a6:93:ca:fb:07:18:3e:fd:1d:9a:d3:3e:25:84:28:69:
         97:4f:43:f3:cc:cc:93:50:f7:10:99:48:f0:37:a5:b4:c5:e9:
         64:1b:ab:3d:c3:9a:3f:b3:be:23:64:5a:bf:b8:4d:cf:fe:1c:
         4f:ee:dd:50:a3:18:66:23:84:e9:cb:d4:ba:34:14:e0:c0:cd:
         d0:92:82:e5:4e:48:6f:32:af:b7:79:46:04:51:92:aa:91:de:
         a0:b6:17:97:88:56:a4:f0:f5:79:07:2e:8c:7f:d1:35:6d:32:
         bb:7e:8f:4a:19:d4:5f:e7:c2:5b:8e:25:3e:e6:81:d7:2d:ab:
         31:5f:d9:1b:5e:66:0c:97:8f:2c:7b:eb:0b:0c:46:b1:f9:dc:
         d5:f8:b4:f4
-----BEGIN CERTIFICATE-----
MIIEpTCCA42gAwIBAgIGCgsMDQ5BMA0GCSqGSIb3DQEBCwUAMIGDMRYwFAYDVQQD
FA1DQUxDVVRUQUNBX0NBMQswCQYDVQQGEwJJTjEPMA0GA1UEChMGQ0lUUklYMQww
CgYDVQQLEwNBTkcxCzAJBgNVBAgTAktBMTAwLgYJKoZIhvcNAQkBFiFDQUxDVVRU
QUNBX0NBQENBTENVVFRBQ0FfbWFpbC5jb20wHhcNMTcwODIzMTAxNTUxWhcNMjcw
ODIxMTAxNTUxWjBwMQswCQYDVQQIEwJLQTELMAkGA1UEBhMCSU4xGzAZBgNVBAMU
EmNhbGN1dHRhXzExX2NsaWVudDEmMCQGCSqGSIb3DQEJARYXY2FsY3V0dGFfMTFA
dGVzdF9jYS5jb20xDzANBgNVBAoTBkNJVFJJWDCCASIwDQYJKoZIhvcNAQEBBQAD
ggEPADCCAQoCggEBAMNI9N6PEBLJncc3fsMkkPenwhqO626pYkDRY7S5dMSNB79D
AnIelPfqRnBjhMue1BfgMMx4bBQhgPQEE1VvHUKkFlEnCCVgFSVrpI7C2icfV/IG
FbvcUIMGp9MUtQ7qvWzgXIc0UD4CCM3OqYa7+tO/UqBCaNDZXeDMCu1gDk5droEr
tzYrAGI3kRuAEBWL8x7Ws+26lwdL3qy18TMu7hHOL55yqz040OE5CZlDP/Fh87cF
CUVlOxOHVaVp4XHlv9ITBqg0zv/4muVbOd8ZvhGa9NAZwKNEIDsecQDLJ1FvvwJT
Twvw9GrdwX0wiObK3h9hTcoeQEcPH5kk4IfipdECAwEAAaOCAS8wggErMBEGCWCG
SAGG+EIBAQQEAwIHgDAdBgNVHQ4EFgQUbsrMB4sxqRJ8zNtwcO91+5ltKX8wgbgG
A1UdIwSBsDCBrYAUNy57J0ZLz0cQrCsuutDzZnXrUnWhgYmkgYYwgYMxFjAUBgNV
BAMUDUNBTENVVFRBQ0FfQ0ExCzAJBgNVBAYTAklOMQ8wDQYDVQQKEwZDSVRSSVgx
DDAKBgNVBAsTA0FORzELMAkGA1UECBMCS0ExMDAuBgkqhkiG9w0BCQEWIUNBTENV
VFRBQ0FfQ0FAQ0FMQ1VUVEFDQV9tYWlsLmNvbYIJAKXGRw7mBjcYMDwGCCsGAQUF
BwEBBDAwLjAsBggrBgEFBQcwAYYgaHR0cDovLzE3Mi4xOC4yMC4xL3Jlc3BvbmRl
cnBhdGgwDQYJKoZIhvcNAQELBQADggEBAMd8VOiAXbhoYu4CUcBU4V3UtqJhlHmo
Yl+nuDn/6WlPCEsI+FsqTW6J1jpW59zjW128OPlDPoNKODT0GasSWCrayRRNY0HL
XNBULQlkm+mLUJkOvxLGTpkSQ19TrCFbWL9sv3MAeD3qec8r8e29ppPK+wcYPv0d
mtM+JYQoaZdPQ/PMzJNQ9xCZSPA3pbTF6WQbqz3Dmj+zviNkWr+4Tc/+HE/u3VCj
GGYjhOnL1Lo0FODAzdCSguVOSG8yr7d5RgRRkqqR3qC2F5eIVqTw9XkHLox/0TVt
Mrt+j0oZ1F/nwluOJT7mgdctqzFf2RteZgyXjyx76wsMRrH53NX4tPQ=
-----END CERTIFICATE-----
