Certificate:
    Data:
        Version: 3 (0x2)
        Serial Number: 11042563100250 (0xa0b0c0d0e5a)
    Signature Algorithm: sha256WithRSAEncryption
        Issuer: CN=CALCUTTACA_CA, C=IN, O=CITRIX, OU=ANG, ST=KA/emailAddress=CALCUTTACA_CA@CALCUTTACA_mail.com
        Validity
            Not Before: Aug 23 10:16:07 2017 GMT
            Not After : Aug 21 10:16:07 2027 GMT
        Subject: ST=KA, C=IN, CN=calcutta_36_client/emailAddress=calcutta_36@test_ca.com, O=CITRIX
        Subject Public Key Info:
            Public Key Algorithm: rsaEncryption
                Public-Key: (2048 bit)
                Modulus:
                    00:de:4b:82:ac:05:f4:ed:84:63:4f:a1:d6:8c:e0:
                    e5:32:28:7a:d8:e6:32:4a:ee:50:a4:5b:5d:7f:87:
                    d2:ad:4a:ad:7d:1f:ab:85:9c:4c:e0:66:85:2a:7e:
                    ed:76:ac:94:7b:34:68:e7:7d:c7:92:ec:59:87:0d:
                    a0:17:f2:02:e4:e2:36:9e:1a:76:0d:d4:89:74:8c:
                    5f:36:f9:da:55:50:34:3c:f7:d4:ab:58:98:f2:23:
                    bc:75:31:f2:15:d4:1e:8a:6e:7c:b1:62:1c:5b:a4:
                    27:93:d1:94:10:b6:0d:e8:b2:03:62:d1:92:2a:ae:
                    5b:18:88:b4:00:9e:18:fd:84:a9:9d:ce:d0:42:ef:
                    4d:f0:c7:52:14:c6:ec:38:28:6a:19:0f:9f:e3:cf:
                    a4:51:06:ed:cc:9f:31:29:2a:f1:19:3f:85:3e:e6:
                    9c:f0:6f:e0:7c:e6:f0:1e:84:d2:3b:aa:c2:a9:8f:
                    31:f5:e3:86:4b:51:6f:0f:a6:56:5d:40:c1:4b:d1:
                    28:8f:84:3e:65:c0:ff:11:eb:ac:0f:6b:cc:83:f2:
                    b4:b6:27:39:fe:3a:90:09:fb:35:4f:cd:2b:d8:cb:
                    67:d2:04:7b:6b:7e:ef:1f:0a:c1:72:20:5b:0e:af:
                    76:80:5e:a2:63:df:3f:86:a4:06:97:a7:29:1b:6e:
                    71:13
                Exponent: 65537 (0x10001)
        X509v3 extensions:
            Netscape Cert Type: 
                SSL Client
            X509v3 Subject Key Identifier: 
                63:90:F3:73:CF:C2:66:59:36:66:29:E9:97:72:BF:A5:D8:08:7B:10
            X509v3 Authority Key Identifier: 
                keyid:37:2E:7B:27:46:4B:CF:47:10:AC:2B:2E:BA:D0:F3:66:75:EB:52:75
                DirName:/CN=CALCUTTACA_CA/C=IN/O=CITRIX/OU=ANG/ST=KA/emailAddress=CALCUTTACA_CA@CALCUTTACA_mail.com
                serial:A5:C6:47:0E:E6:06:37:18

            Authority Information Access: 
                OCSP - URI:http://172.18.20.1/responderpath

    Signature Algorithm: sha256WithRSAEncryption
         cb:4e:dc:00:62:f0:4a:24:39:32:77:fb:4f:40:4d:c8:05:04:
         50:fe:82:cf:96:e3:4f:96:43:1c:1f:ab:74:a4:08:a8:03:a2:
         52:34:8d:5c:0e:6f:fa:49:67:25:d8:ad:16:02:5a:1a:e9:0b:
         71:3c:a5:20:cd:37:34:6a:8c:9b:9e:6f:b5:c5:2f:15:08:59:
         08:42:c4:d9:f9:b9:e3:be:71:3f:7e:0c:60:78:6a:bd:2f:b7:
         90:3a:b2:f1:e9:e7:bd:4e:f3:66:d2:e8:bb:56:e2:63:b6:a3:
         1a:58:5e:50:01:11:24:f5:1b:8f:31:41:6e:38:9a:f4:e8:89:
         f2:a6:22:95:34:8c:65:12:ef:5b:78:10:fc:ca:3f:3c:73:8d:
         2d:ce:6a:3c:40:32:b9:3a:90:dd:60:c5:97:a2:b8:f7:70:b2:
         2a:27:89:89:4f:b4:7d:9c:78:eb:3a:d3:86:8b:ce:22:ef:68:
         28:0d:14:05:9d:b1:32:e3:ef:e0:a4:40:ba:e5:1d:88:bd:32:
         0f:d0:c3:2c:56:b1:ee:0c:cb:6b:65:f4:01:30:19:30:79:16:
         80:82:5e:1f:23:b5:05:84:c4:97:e8:ff:37:74:5c:9b:21:7f:
         7e:78:ae:33:9a:61:a1:46:e0:8a:2e:4a:ec:48:b2:bd:5d:a1:
         40:d7:52:b1
-----BEGIN CERTIFICATE-----
MIIEpTCCA42gAwIBAgIGCgsMDQ5aMA0GCSqGSIb3DQEBCwUAMIGDMRYwFAYDVQQD
FA1DQUxDVVRUQUNBX0NBMQswCQYDVQQGEwJJTjEPMA0GA1UEChMGQ0lUUklYMQww
CgYDVQQLEwNBTkcxCzAJBgNVBAgTAktBMTAwLgYJKoZIhvcNAQkBFiFDQUxDVVRU
QUNBX0NBQENBTENVVFRBQ0FfbWFpbC5jb20wHhcNMTcwODIzMTAxNjA3WhcNMjcw
ODIxMTAxNjA3WjBwMQswCQYDVQQIEwJLQTELMAkGA1UEBhMCSU4xGzAZBgNVBAMU
EmNhbGN1dHRhXzM2X2NsaWVudDEmMCQGCSqGSIb3DQEJARYXY2FsY3V0dGFfMzZA
dGVzdF9jYS5jb20xDzANBgNVBAoTBkNJVFJJWDCCASIwDQYJKoZIhvcNAQEBBQAD
ggEPADCCAQoCggEBAN5LgqwF9O2EY0+h1ozg5TIoetjmMkruUKRbXX+H0q1KrX0f
q4WcTOBmhSp+7XaslHs0aOd9x5LsWYcNoBfyAuTiNp4adg3UiXSMXzb52lVQNDz3
1KtYmPIjvHUx8hXUHopufLFiHFukJ5PRlBC2DeiyA2LRkiquWxiItACeGP2EqZ3O
0ELvTfDHUhTG7DgoahkPn+PPpFEG7cyfMSkq8Rk/hT7mnPBv4Hzm8B6E0juqwqmP
MfXjhktRbw+mVl1AwUvRKI+EPmXA/xHrrA9rzIPytLYnOf46kAn7NU/NK9jLZ9IE
e2t+7x8KwXIgWw6vdoBeomPfP4akBpenKRtucRMCAwEAAaOCAS8wggErMBEGCWCG
SAGG+EIBAQQEAwIHgDAdBgNVHQ4EFgQUY5Dzc8/CZlk2Zinpl3K/pdgIexAwgbgG
A1UdIwSBsDCBrYAUNy57J0ZLz0cQrCsuutDzZnXrUnWhgYmkgYYwgYMxFjAUBgNV
BAMUDUNBTENVVFRBQ0FfQ0ExCzAJBgNVBAYTAklOMQ8wDQYDVQQKEwZDSVRSSVgx
DDAKBgNVBAsTA0FORzELMAkGA1UECBMCS0ExMDAuBgkqhkiG9w0BCQEWIUNBTENV
VFRBQ0FfQ0FAQ0FMQ1VUVEFDQV9tYWlsLmNvbYIJAKXGRw7mBjcYMDwGCCsGAQUF
BwEBBDAwLjAsBggrBgEFBQcwAYYgaHR0cDovLzE3Mi4xOC4yMC4xL3Jlc3BvbmRl
cnBhdGgwDQYJKoZIhvcNAQELBQADggEBAMtO3ABi8EokOTJ3+09ATcgFBFD+gs+W
40+WQxwfq3SkCKgDolI0jVwOb/pJZyXYrRYCWhrpC3E8pSDNNzRqjJueb7XFLxUI
WQhCxNn5ueO+cT9+DGB4ar0vt5A6svHp571O82bS6LtW4mO2oxpYXlABEST1G48x
QW44mvToifKmIpU0jGUS71t4EPzKPzxzjS3OajxAMrk6kN1gxZeiuPdwsioniYlP
tH2ceOs604aLziLvaCgNFAWdsTLj7+CkQLrlHYi9Mg/QwyxWse4My2tl9AEwGTB5
FoCCXh8jtQWExJfo/zd0XJshf354rjOaYaFG4IouSuxIsr1doUDXUrE=
-----END CERTIFICATE-----
