Certificate:
    Data:
        Version: 3 (0x2)
        Serial Number: 11042563100222 (0xa0b0c0d0e3e)
    Signature Algorithm: sha256WithRSAEncryption
        Issuer: CN=CALCUTTACA_CA, C=IN, O=CITRIX, OU=ANG, ST=KA/emailAddress=CALCUTTACA_CA@CALCUTTACA_mail.com
        Validity
            Not Before: Aug 23 10:15:49 2017 GMT
            Not After : Aug 21 10:15:49 2027 GMT
        Subject: ST=KA, C=IN, CN=calcutta_8_client/emailAddress=calcutta_8@test_ca.com, O=CITRIX
        Subject Public Key Info:
            Public Key Algorithm: rsaEncryption
                Public-Key: (2048 bit)
                Modulus:
                    00:df:8a:11:f7:da:df:04:61:28:9a:b4:67:c8:73:
                    e0:95:3e:38:1a:de:45:58:a3:26:53:4b:12:a9:35:
                    f4:ba:91:07:e3:ae:e2:f5:5a:df:c3:97:0f:7d:bd:
                    32:84:e3:e0:84:22:f8:95:44:9b:6e:2f:1d:d2:12:
                    50:dc:c7:23:e5:d5:85:5a:a4:63:1c:6b:40:da:a8:
                    50:6f:e8:ba:b1:26:e0:fe:fa:3b:29:3d:ae:fb:25:
                    98:56:29:09:47:0e:5f:32:c3:d6:de:45:7e:bd:ac:
                    50:68:fd:f1:b0:17:bb:85:e6:6f:ee:c6:17:cb:43:
                    f4:72:68:43:6f:ac:aa:9f:18:e7:29:e8:c4:e1:a8:
                    c9:38:db:1a:69:c1:b2:d8:15:ec:3f:12:4d:0a:20:
                    53:0e:01:21:ce:ea:5d:76:96:69:32:81:7d:3f:34:
                    22:40:89:64:32:47:6c:cd:12:a1:e8:df:14:c6:19:
                    04:46:d2:86:af:db:e0:4b:05:94:12:88:12:3d:02:
                    dc:65:98:b6:73:8e:10:67:bb:ef:8c:65:9d:dd:2e:
                    02:47:4b:cb:5d:b4:51:c9:7c:4a:22:f2:92:a9:51:
                    67:5b:da:5d:d0:59:5d:27:e5:44:46:16:de:63:3f:
                    e4:40:a6:d9:7d:27:32:34:fd:dd:ea:dc:be:cf:a8:
                    20:41
                Exponent: 65537 (0x10001)
        X509v3 extensions:
            Netscape Cert Type: 
                SSL Client
            X509v3 Subject Key Identifier: 
                87:C2:D9:A3:40:32:27:93:8F:A9:58:CA:49:EA:F3:9D:CB:6D:5F:CE
            X509v3 Authority Key Identifier: 
                keyid:37:2E:7B:27:46:4B:CF:47:10:AC:2B:2E:BA:D0:F3:66:75:EB:52:75
                DirName:/CN=CALCUTTACA_CA/C=IN/O=CITRIX/OU=ANG/ST=KA/emailAddress=CALCUTTACA_CA@CALCUTTACA_mail.com
                serial:A5:C6:47:0E:E6:06:37:18

            Authority Information Access: 
                OCSP - URI:http://172.18.20.1/responderpath

    Signature Algorithm: sha256WithRSAEncryption
         b7:d2:2a:0b:04:3b:0f:f2:9a:76:f6:62:17:e9:53:ff:6d:b7:
         14:e3:24:3f:13:53:5a:c4:c3:8f:09:fc:a3:d6:9b:9c:c9:d8:
         f9:56:84:a1:34:7b:a7:57:4d:45:ca:e6:3a:d8:ba:31:11:e4:
         99:75:72:43:84:60:02:e2:65:c8:d0:d6:70:a0:17:78:76:74:
         6b:85:68:aa:d3:2b:ce:bb:7e:92:34:67:9d:b7:e6:05:54:b2:
         bf:a7:07:ae:ba:3d:4f:69:c5:cb:74:d2:0d:74:de:d8:a3:10:
         5a:e6:ee:02:28:85:90:50:69:c8:36:8e:81:a9:4f:a8:ab:b4:
         60:ec:ab:cf:26:0f:6c:8a:5e:65:2d:d2:33:69:17:8a:4c:e6:
         aa:03:cf:2d:d7:ee:d9:89:97:32:6b:7e:c5:05:ea:0c:a7:1f:
         6f:62:d1:10:dd:dd:b5:9f:ad:ec:bf:59:bc:7f:09:f5:ff:04:
         6b:6c:6a:c6:1a:8b:4c:e2:37:c6:e4:0a:ef:cc:b0:78:c3:c7:
         5a:40:02:a4:bc:09:10:5a:f7:42:5e:9c:7a:64:83:3c:67:df:
         a5:d5:b7:a7:c6:1b:40:08:61:85:af:65:6f:48:33:b5:49:7b:
         db:ec:cd:30:d9:24:25:e5:95:e1:be:4c:8c:76:fd:14:fd:de:
         4e:b8:84:bb
-----BEGIN CERTIFICATE-----
MIIEozCCA4ugAwIBAgIGCgsMDQ4+MA0GCSqGSIb3DQEBCwUAMIGDMRYwFAYDVQQD
FA1DQUxDVVRUQUNBX0NBMQswCQYDVQQGEwJJTjEPMA0GA1UEChMGQ0lUUklYMQww
CgYDVQQLEwNBTkcxCzAJBgNVBAgTAktBMTAwLgYJKoZIhvcNAQkBFiFDQUxDVVRU
QUNBX0NBQENBTENVVFRBQ0FfbWFpbC5jb20wHhcNMTcwODIzMTAxNTQ5WhcNMjcw
ODIxMTAxNTQ5WjBuMQswCQYDVQQIEwJLQTELMAkGA1UEBhMCSU4xGjAYBgNVBAMU
EWNhbGN1dHRhXzhfY2xpZW50MSUwIwYJKoZIhvcNAQkBFhZjYWxjdXR0YV84QHRl
c3RfY2EuY29tMQ8wDQYDVQQKEwZDSVRSSVgwggEiMA0GCSqGSIb3DQEBAQUAA4IB
DwAwggEKAoIBAQDfihH32t8EYSiatGfIc+CVPjga3kVYoyZTSxKpNfS6kQfjruL1
Wt/Dlw99vTKE4+CEIviVRJtuLx3SElDcxyPl1YVapGMca0DaqFBv6LqxJuD++jsp
Pa77JZhWKQlHDl8yw9beRX69rFBo/fGwF7uF5m/uxhfLQ/RyaENvrKqfGOcp6MTh
qMk42xppwbLYFew/Ek0KIFMOASHO6l12lmkygX0/NCJAiWQyR2zNEqHo3xTGGQRG
0oav2+BLBZQSiBI9AtxlmLZzjhBnu++MZZ3dLgJHS8tdtFHJfEoi8pKpUWdb2l3Q
WV0n5URGFt5jP+RAptl9JzI0/d3q3L7PqCBBAgMBAAGjggEvMIIBKzARBglghkgB
hvhCAQEEBAMCB4AwHQYDVR0OBBYEFIfC2aNAMieTj6lYyknq853LbV/OMIG4BgNV
HSMEgbAwga2AFDcueydGS89HEKwrLrrQ82Z161J1oYGJpIGGMIGDMRYwFAYDVQQD
FA1DQUxDVVRUQUNBX0NBMQswCQYDVQQGEwJJTjEPMA0GA1UEChMGQ0lUUklYMQww
CgYDVQQLEwNBTkcxCzAJBgNVBAgTAktBMTAwLgYJKoZIhvcNAQkBFiFDQUxDVVRU
QUNBX0NBQENBTENVVFRBQ0FfbWFpbC5jb22CCQClxkcO5gY3GDA8BggrBgEFBQcB
AQQwMC4wLAYIKwYBBQUHMAGGIGh0dHA6Ly8xNzIuMTguMjAuMS9yZXNwb25kZXJw
YXRoMA0GCSqGSIb3DQEBCwUAA4IBAQC30ioLBDsP8pp29mIX6VP/bbcU4yQ/E1Na
xMOPCfyj1pucydj5VoShNHunV01FyuY62LoxEeSZdXJDhGAC4mXI0NZwoBd4dnRr
hWiq0yvOu36SNGedt+YFVLK/pweuuj1PacXLdNINdN7YoxBa5u4CKIWQUGnINo6B
qU+oq7Rg7KvPJg9sil5lLdIzaReKTOaqA88t1+7ZiZcya37FBeoMpx9vYtEQ3d21
n63sv1m8fwn1/wRrbGrGGotM4jfG5ArvzLB4w8daQAKkvAkQWvdCXpx6ZIM8Z9+l
1benxhtACGGFr2VvSDO1SXvb7M0w2SQl5ZXhvkyMdv0U/d5OuIS7
-----END CERTIFICATE-----
