Certificate:
    Data:
        Version: 3 (0x2)
        Serial Number: 11042563100263 (0xa0b0c0d0e67)
    Signature Algorithm: sha256WithRSAEncryption
        Issuer: CN=CALCUTTACA_CA, C=IN, O=CITRIX, OU=ANG, ST=KA/emailAddress=CALCUTTACA_CA@CALCUTTACA_mail.com
        Validity
            Not Before: Aug 23 10:16:14 2017 GMT
            Not After : Aug 21 10:16:14 2027 GMT
        Subject: ST=KA, C=IN, CN=calcutta_49_client/emailAddress=calcutta_49@test_ca.com, O=CITRIX
        Subject Public Key Info:
            Public Key Algorithm: rsaEncryption
                Public-Key: (2048 bit)
                Modulus:
                    00:e0:9d:cb:b8:09:98:cf:bf:1c:e0:52:bb:d4:0b:
                    b7:fd:4c:60:30:d6:06:86:a1:c6:12:bc:26:32:59:
                    38:73:ad:5e:7c:ae:60:b6:7c:97:a1:ad:64:96:bd:
                    d5:6a:bb:27:95:f3:f8:4b:21:c7:5f:32:03:57:6b:
                    de:d6:c6:cc:ff:9e:13:61:fa:d6:66:50:b4:ea:89:
                    5e:f1:8f:63:36:c1:82:92:cf:3d:df:ad:5b:2e:08:
                    1e:e6:37:70:d9:a2:60:a7:9a:f9:7d:8b:8f:83:4d:
                    33:a2:7f:c1:14:9b:1a:93:46:02:38:f4:62:e0:f3:
                    d6:e2:97:6b:b7:eb:60:f4:96:50:ce:4f:ef:77:ea:
                    ed:c2:45:b8:e1:b5:3b:d0:c5:e1:03:f9:fb:0d:48:
                    3a:32:52:a4:1a:1a:e1:58:0e:36:37:ee:26:b5:72:
                    b7:52:8c:46:97:21:97:fb:ba:06:1d:89:08:3d:98:
                    49:c0:b7:30:bb:68:43:59:b2:8e:d5:45:c8:b4:1b:
                    25:4c:4e:ba:ee:f1:68:1c:1b:e6:c7:1d:1e:f4:bd:
                    e6:d4:2a:1d:e9:e2:5f:a1:c0:dd:a4:86:fd:dc:87:
                    cc:e3:f7:d2:36:c6:2e:aa:dd:d6:b9:fe:fc:1f:60:
                    97:be:53:0c:45:e1:31:f3:77:b5:f7:7b:43:80:c4:
                    35:63
                Exponent: 65537 (0x10001)
        X509v3 extensions:
            Netscape Cert Type: 
                SSL Client
            X509v3 Subject Key Identifier: 
                99:49:CF:57:A8:D5:16:74:A9:AC:4F:69:A4:CE:4E:77:49:83:54:8D
            X509v3 Authority Key Identifier: 
                keyid:37:2E:7B:27:46:4B:CF:47:10:AC:2B:2E:BA:D0:F3:66:75:EB:52:75
                DirName:/CN=CALCUTTACA_CA/C=IN/O=CITRIX/OU=ANG/ST=KA/emailAddress=CALCUTTACA_CA@CALCUTTACA_mail.com
                serial:A5:C6:47:0E:E6:06:37:18

            Authority Information Access: 
                OCSP - URI:http://172.18.20.1/responderpath

    Signature Algorithm: sha256WithRSAEncryption
         8c:8c:36:12:33:5c:08:66:c9:31:2f:60:e2:ed:17:f7:19:91:
         cf:8d:d3:17:72:a5:81:94:da:63:01:84:f9:b4:34:97:f1:82:
         53:41:d5:ac:ba:e5:2c:f1:dc:fe:c4:5b:35:ba:dd:b8:e6:89:
         22:28:6b:80:06:54:e5:73:aa:bc:a5:c6:ce:df:10:1c:c7:e5:
         6c:63:36:fd:b9:40:00:bd:88:19:5e:b4:03:c5:64:a2:2f:62:
         1d:63:29:ba:65:b7:c7:5e:d9:c5:65:06:00:78:9a:b6:56:a5:
         fd:44:d4:4f:b2:c3:43:83:78:27:cc:f0:a5:1a:55:e5:b7:10:
         53:ba:3a:9b:a5:e9:9b:cf:76:8f:b9:e9:ca:ce:cb:e8:76:b9:
         b6:d3:1a:76:e2:a5:b1:45:4d:a5:c4:dd:e2:c6:0a:40:1f:69:
         07:cf:68:df:5b:e8:4a:1e:48:11:4e:bb:f8:f0:5f:bc:08:e8:
         10:e8:fb:95:35:87:d0:67:7a:69:99:0b:62:ab:31:08:ee:86:
         3c:88:de:d4:18:89:03:0e:a7:9e:49:9d:68:d7:b7:77:b8:31:
         c0:13:28:09:23:54:a7:61:0e:dd:08:fe:b8:53:e2:2e:4e:71:
         f5:8b:13:8e:ec:09:fc:23:57:08:d0:d1:28:1a:e5:dc:d8:92:
         1e:a6:13:df
-----BEGIN CERTIFICATE-----
MIIEpTCCA42gAwIBAgIGCgsMDQ5nMA0GCSqGSIb3DQEBCwUAMIGDMRYwFAYDVQQD
FA1DQUxDVVRUQUNBX0NBMQswCQYDVQQGEwJJTjEPMA0GA1UEChMGQ0lUUklYMQww
CgYDVQQLEwNBTkcxCzAJBgNVBAgTAktBMTAwLgYJKoZIhvcNAQkBFiFDQUxDVVRU
QUNBX0NBQENBTENVVFRBQ0FfbWFpbC5jb20wHhcNMTcwODIzMTAxNjE0WhcNMjcw
ODIxMTAxNjE0WjBwMQswCQYDVQQIEwJLQTELMAkGA1UEBhMCSU4xGzAZBgNVBAMU
EmNhbGN1dHRhXzQ5X2NsaWVudDEmMCQGCSqGSIb3DQEJARYXY2FsY3V0dGFfNDlA
dGVzdF9jYS5jb20xDzANBgNVBAoTBkNJVFJJWDCCASIwDQYJKoZIhvcNAQEBBQAD
ggEPADCCAQoCggEBAOCdy7gJmM+/HOBSu9QLt/1MYDDWBoahxhK8JjJZOHOtXnyu
YLZ8l6GtZJa91Wq7J5Xz+Eshx18yA1dr3tbGzP+eE2H61mZQtOqJXvGPYzbBgpLP
Pd+tWy4IHuY3cNmiYKea+X2Lj4NNM6J/wRSbGpNGAjj0YuDz1uKXa7frYPSWUM5P
73fq7cJFuOG1O9DF4QP5+w1IOjJSpBoa4VgONjfuJrVyt1KMRpchl/u6Bh2JCD2Y
ScC3MLtoQ1myjtVFyLQbJUxOuu7xaBwb5scdHvS95tQqHeniX6HA3aSG/dyHzOP3
0jbGLqrd1rn+/B9gl75TDEXhMfN3tfd7Q4DENWMCAwEAAaOCAS8wggErMBEGCWCG
SAGG+EIBAQQEAwIHgDAdBgNVHQ4EFgQUmUnPV6jVFnSprE9ppM5Od0mDVI0wgbgG
A1UdIwSBsDCBrYAUNy57J0ZLz0cQrCsuutDzZnXrUnWhgYmkgYYwgYMxFjAUBgNV
BAMUDUNBTENVVFRBQ0FfQ0ExCzAJBgNVBAYTAklOMQ8wDQYDVQQKEwZDSVRSSVgx
DDAKBgNVBAsTA0FORzELMAkGA1UECBMCS0ExMDAuBgkqhkiG9w0BCQEWIUNBTENV
VFRBQ0FfQ0FAQ0FMQ1VUVEFDQV9tYWlsLmNvbYIJAKXGRw7mBjcYMDwGCCsGAQUF
BwEBBDAwLjAsBggrBgEFBQcwAYYgaHR0cDovLzE3Mi4xOC4yMC4xL3Jlc3BvbmRl
cnBhdGgwDQYJKoZIhvcNAQELBQADggEBAIyMNhIzXAhmyTEvYOLtF/cZkc+N0xdy
pYGU2mMBhPm0NJfxglNB1ay65Szx3P7EWzW63bjmiSIoa4AGVOVzqrylxs7fEBzH
5WxjNv25QAC9iBletAPFZKIvYh1jKbplt8de2cVlBgB4mrZWpf1E1E+yw0ODeCfM
8KUaVeW3EFO6Opul6ZvPdo+56crOy+h2ubbTGnbipbFFTaXE3eLGCkAfaQfPaN9b
6EoeSBFOu/jwX7wI6BDo+5U1h9BnemmZC2KrMQjuhjyI3tQYiQMOp55JnWjXt3e4
McATKAkjVKdhDt0I/rhT4i5OcfWLE47sCfwjVwjQ0Sga5dzYkh6mE98=
-----END CERTIFICATE-----
