Certificate:
    Data:
        Version: 3 (0x2)
        Serial Number: 11042563100180 (0xa0b0c0d0e14)
    Signature Algorithm: sha256WithRSAEncryption
        Issuer: CN=CALCUTTACA_CA, C=IN, O=CITRIX, OU=ANG, ST=KA/emailAddress=CALCUTTACA_CA@CALCUTTACA_mail.com
        Validity
            Not Before: Jul  8 04:33:04 2016 GMT
            Not After : Jul  6 04:33:04 2026 GMT
        Subject: ST=KA, C=IN, CN=106_CALCUTTACA_server/emailAddress=106_CALCUTTACA@test_ca.com, O=CITRIX
        Subject Public Key Info:
            Public Key Algorithm: rsaEncryption
                Public-Key: (2048 bit)
                Modulus:
                    00:be:f8:e3:3c:a2:07:40:81:11:bd:29:d6:87:45:
                    b3:5b:0a:2d:48:c2:ba:5c:0b:05:d2:7d:12:d9:9e:
                    81:70:a9:b7:c0:4e:80:82:39:f5:16:90:6a:ff:69:
                    ba:12:2c:49:51:e7:24:9e:68:df:f1:5b:03:44:2e:
                    b0:31:94:f9:f5:d0:72:32:90:bd:16:7d:a1:2c:e8:
                    49:1a:a4:f1:80:8f:44:5f:7e:ff:c0:2b:7d:fa:36:
                    9e:51:7b:8f:8b:cb:be:60:b1:85:09:ef:3d:42:6a:
                    15:fc:3c:7f:f5:40:be:2b:53:6b:86:64:df:4e:9b:
                    cc:ea:42:fa:19:bb:cf:4d:13:7b:39:c1:af:cc:e7:
                    ec:33:75:27:64:fb:45:4d:b2:3e:97:50:6d:44:6e:
                    53:35:b4:da:3f:23:4d:9d:52:cd:58:bf:05:82:92:
                    2a:be:c6:32:35:91:51:f1:d8:cd:f7:b4:7e:c3:b3:
                    f7:d4:88:57:f3:02:2b:34:1e:d1:14:ed:1e:b4:4f:
                    84:86:67:87:9f:3a:47:49:db:1a:58:e1:69:e3:10:
                    51:ec:ba:17:f0:cc:41:8e:6b:3c:23:46:c5:47:fc:
                    d5:a3:ed:fd:7b:71:82:3b:e0:09:da:60:4c:f9:89:
                    54:ee:45:ab:dc:0d:10:de:45:38:a9:f5:8b:ee:a3:
                    fd:d7
                Exponent: 65537 (0x10001)
        X509v3 extensions:
            Netscape Cert Type: 
                SSL Server
            X509v3 Subject Key Identifier: 
                1D:D9:8F:6E:DF:75:CE:6D:A1:B0:41:E7:E9:81:CA:39:DA:12:72:9A
            X509v3 Authority Key Identifier: 
                keyid:37:2E:7B:27:46:4B:CF:47:10:AC:2B:2E:BA:D0:F3:66:75:EB:52:75
                DirName:/CN=CALCUTTACA_CA/C=IN/O=CITRIX/OU=ANG/ST=KA/emailAddress=CALCUTTACA_CA@CALCUTTACA_mail.com
                serial:A5:C6:47:0E:E6:06:37:18

            Authority Information Access: 
                OCSP - URI:http://CALCUTTACA_one.ocsptest.com/responderpath

    Signature Algorithm: sha256WithRSAEncryption
         03:07:96:1c:b5:0c:3c:40:d9:c2:70:ac:dc:11:10:7a:2c:57:
         ab:f6:24:c3:24:72:a4:cc:59:3a:36:20:b3:f1:71:7a:c9:a2:
         88:f6:95:a1:64:c6:25:72:f6:80:68:a0:e5:25:a0:6c:73:63:
         e1:64:8e:62:26:1b:e8:e0:4f:3f:e0:96:07:04:8e:9b:75:8e:
         df:86:1e:de:b9:6d:8f:97:06:c2:f3:a5:90:97:8b:f5:4f:ba:
         d3:f7:4c:38:59:7c:90:f1:c1:4c:df:e9:d8:79:fd:8f:10:13:
         a8:65:54:98:76:10:ee:1e:79:7d:b5:2e:d6:6f:12:5c:bd:19:
         cf:f9:95:b4:62:aa:43:36:13:d9:39:99:f4:fd:c9:8c:91:84:
         02:dc:68:d0:e5:8c:90:96:12:4e:12:a8:79:06:2b:be:c7:23:
         f8:83:2b:70:c2:ad:90:d6:cf:f8:d7:25:a6:02:6f:d3:45:80:
         47:37:6c:89:19:c2:68:bd:e0:e8:6e:0f:31:a8:e8:85:4d:0f:
         ad:cd:14:3b:38:bd:9e:2d:18:35:94:88:59:0b:53:91:92:1e:
         ea:f3:f0:d3:e3:2d:9c:d0:00:ef:24:0d:3f:6b:26:46:88:ad:
         63:eb:81:fe:17:96:11:24:72:1b:27:c3:4e:38:60:fb:a2:05:
         58:a7:a5:b6
-----BEGIN CERTIFICATE-----
MIIEuzCCA6OgAwIBAgIGCgsMDQ4UMA0GCSqGSIb3DQEBCwUAMIGDMRYwFAYDVQQD
FA1DQUxDVVRUQUNBX0NBMQswCQYDVQQGEwJJTjEPMA0GA1UEChMGQ0lUUklYMQww
CgYDVQQLEwNBTkcxCzAJBgNVBAgTAktBMTAwLgYJKoZIhvcNAQkBFiFDQUxDVVRU
QUNBX0NBQENBTENVVFRBQ0FfbWFpbC5jb20wHhcNMTYwNzA4MDQzMzA0WhcNMjYw
NzA2MDQzMzA0WjB2MQswCQYDVQQIEwJLQTELMAkGA1UEBhMCSU4xHjAcBgNVBAMU
FTEwNl9DQUxDVVRUQUNBX3NlcnZlcjEpMCcGCSqGSIb3DQEJARYaMTA2X0NBTENV
VFRBQ0FAdGVzdF9jYS5jb20xDzANBgNVBAoTBkNJVFJJWDCCASIwDQYJKoZIhvcN
AQEBBQADggEPADCCAQoCggEBAL744zyiB0CBEb0p1odFs1sKLUjCulwLBdJ9Etme
gXCpt8BOgII59RaQav9puhIsSVHnJJ5o3/FbA0QusDGU+fXQcjKQvRZ9oSzoSRqk
8YCPRF9+/8Arffo2nlF7j4vLvmCxhQnvPUJqFfw8f/VAvitTa4Zk306bzOpC+hm7
z00TeznBr8zn7DN1J2T7RU2yPpdQbURuUzW02j8jTZ1SzVi/BYKSKr7GMjWRUfHY
zfe0fsOz99SIV/MCKzQe0RTtHrRPhIZnh586R0nbGljhaeMQUey6F/DMQY5rPCNG
xUf81aPt/XtxgjvgCdpgTPmJVO5Fq9wNEN5FOKn1i+6j/dcCAwEAAaOCAT8wggE7
MBEGCWCGSAGG+EIBAQQEAwIGQDAdBgNVHQ4EFgQUHdmPbt91zm2hsEHn6YHKOdoS
cpowgbgGA1UdIwSBsDCBrYAUNy57J0ZLz0cQrCsuutDzZnXrUnWhgYmkgYYwgYMx
FjAUBgNVBAMUDUNBTENVVFRBQ0FfQ0ExCzAJBgNVBAYTAklOMQ8wDQYDVQQKEwZD
SVRSSVgxDDAKBgNVBAsTA0FORzELMAkGA1UECBMCS0ExMDAuBgkqhkiG9w0BCQEW
IUNBTENVVFRBQ0FfQ0FAQ0FMQ1VUVEFDQV9tYWlsLmNvbYIJAKXGRw7mBjcYMEwG
CCsGAQUFBwEBBEAwPjA8BggrBgEFBQcwAYYwaHR0cDovL0NBTENVVFRBQ0Ffb25l
Lm9jc3B0ZXN0LmNvbS9yZXNwb25kZXJwYXRoMA0GCSqGSIb3DQEBCwUAA4IBAQAD
B5YctQw8QNnCcKzcERB6LFer9iTDJHKkzFk6NiCz8XF6yaKI9pWhZMYlcvaAaKDl
JaBsc2PhZI5iJhvo4E8/4JYHBI6bdY7fhh7euW2PlwbC86WQl4v1T7rT90w4WXyQ
8cFM3+nYef2PEBOoZVSYdhDuHnl9tS7WbxJcvRnP+ZW0YqpDNhPZOZn0/cmMkYQC
3GjQ5YyQlhJOEqh5Biu+xyP4gytwwq2Q1s/41yWmAm/TRYBHN2yJGcJoveDobg8x
qOiFTQ+tzRQ7OL2eLRg1lIhZC1ORkh7q8/DT4y2c0ADvJA0/ayZGiK1j64H+F5YR
JHIbJ8NOOGD7ogVYp6W2
-----END CERTIFICATE-----
