Certificate:
    Data:
        Version: 3 (0x2)
        Serial Number: 11042563100203 (0xa0b0c0d0e2b)
    Signature Algorithm: sha256WithRSAEncryption
        Issuer: CN=CALCUTTACA_CA, C=IN, O=CITRIX, OU=ANG, ST=KA/emailAddress=CALCUTTACA_CA@CALCUTTACA_mail.com
        Validity
            Not Before: Jul  8 04:33:10 2016 GMT
            Not After : Jul  6 04:33:10 2026 GMT
        Subject: ST=KA, C=IN, CN=129_CALCUTTACA_server/emailAddress=129_CALCUTTACA@test_ca.com, O=CITRIX
        Subject Public Key Info:
            Public Key Algorithm: rsaEncryption
                Public-Key: (2048 bit)
                Modulus:
                    00:c1:23:d7:e0:aa:07:21:fe:c4:56:34:40:cc:bd:
                    56:9a:98:15:e6:6d:f1:be:c4:3b:01:51:45:b8:93:
                    41:aa:62:21:3e:0e:15:07:b5:f2:e1:81:20:2d:fa:
                    5a:c8:ae:b3:15:cc:6b:a0:e3:6b:c1:14:7b:b1:59:
                    09:df:16:bf:ce:d3:25:31:1e:7e:74:2e:b7:09:8f:
                    59:56:a8:41:8e:10:fd:76:e2:e9:f8:9d:0e:cc:cb:
                    2f:9f:ed:32:32:02:ea:8e:3d:ff:80:b6:bf:a1:45:
                    bc:fe:62:43:03:32:1b:53:85:5e:5e:d8:dd:38:93:
                    08:62:e6:ea:88:8c:48:67:12:a2:8b:4c:74:2f:3a:
                    d8:db:f0:6d:cd:72:27:c0:76:bb:15:18:21:64:70:
                    d7:20:39:e1:d8:c2:cb:f5:c1:b5:23:c1:8b:b8:f4:
                    69:22:43:66:f8:89:84:b0:c6:65:3a:53:1d:0c:7f:
                    59:98:b1:9f:ed:01:c9:04:11:f0:0e:8e:05:2a:3f:
                    a5:b5:a0:92:33:fd:4a:c9:5d:5f:cc:16:0f:e1:52:
                    95:c6:61:f8:73:86:7d:30:09:66:af:8d:c8:14:e0:
                    da:17:c1:f6:20:66:44:63:e5:3a:a8:0a:88:5b:22:
                    0c:3d:5e:c0:b6:d8:8b:25:d7:b0:31:9c:07:ed:ed:
                    59:4b
                Exponent: 65537 (0x10001)
        X509v3 extensions:
            Netscape Cert Type: 
                SSL Server
            X509v3 Subject Key Identifier: 
                D5:14:15:24:40:89:AD:6C:6C:50:E1:94:19:7D:50:C2:BF:DE:E0:5B
            X509v3 Authority Key Identifier: 
                keyid:37:2E:7B:27:46:4B:CF:47:10:AC:2B:2E:BA:D0:F3:66:75:EB:52:75
                DirName:/CN=CALCUTTACA_CA/C=IN/O=CITRIX/OU=ANG/ST=KA/emailAddress=CALCUTTACA_CA@CALCUTTACA_mail.com
                serial:A5:C6:47:0E:E6:06:37:18

            Authority Information Access: 
                OCSP - URI:http://172.18.10.1/responderpath

    Signature Algorithm: sha256WithRSAEncryption
         61:1d:85:a9:03:b9:86:b8:fe:45:7f:56:e6:00:67:9b:5c:60:
         6d:7d:4a:97:39:f9:ba:78:85:11:a4:c3:05:7e:23:8c:6f:4e:
         d0:49:fb:30:43:92:3e:82:0f:31:f1:ba:18:cb:fb:bc:bb:b5:
         1f:42:64:59:b3:a7:29:03:1b:13:a4:f1:ef:b4:e2:37:07:bf:
         45:ab:e6:b9:bd:16:7b:32:b5:a4:b0:47:78:59:6e:05:70:76:
         9b:49:55:e9:f9:a8:89:83:66:eb:d2:87:88:88:7c:76:bb:c3:
         7e:96:f6:69:40:ac:2b:9e:93:16:bf:83:da:a3:31:dc:34:d6:
         1b:d1:7c:96:0f:45:d4:5d:d8:33:6a:bd:af:ff:a1:9f:ab:e0:
         47:ae:12:de:3d:e7:f3:ef:b0:99:f0:60:f3:7f:46:43:54:96:
         3f:f5:ec:05:7c:9f:d6:19:c9:d0:10:83:42:2d:1f:c9:3d:10:
         2e:a6:70:0a:20:5f:f2:32:f5:d6:8a:f7:4a:cd:44:e3:2f:5e:
         b8:94:a7:c6:f6:13:72:d4:8e:46:4b:7d:51:c4:59:8b:f7:81:
         00:c3:88:75:c8:81:dc:99:d5:a7:fc:43:4a:18:c8:4c:1b:47:
         46:f7:1c:64:c5:b8:f6:c7:a7:22:73:b7:e1:60:8a:e3:e6:0a:
         28:b4:42:d3
-----BEGIN CERTIFICATE-----
MIIEqzCCA5OgAwIBAgIGCgsMDQ4rMA0GCSqGSIb3DQEBCwUAMIGDMRYwFAYDVQQD
FA1DQUxDVVRUQUNBX0NBMQswCQYDVQQGEwJJTjEPMA0GA1UEChMGQ0lUUklYMQww
CgYDVQQLEwNBTkcxCzAJBgNVBAgTAktBMTAwLgYJKoZIhvcNAQkBFiFDQUxDVVRU
QUNBX0NBQENBTENVVFRBQ0FfbWFpbC5jb20wHhcNMTYwNzA4MDQzMzEwWhcNMjYw
NzA2MDQzMzEwWjB2MQswCQYDVQQIEwJLQTELMAkGA1UEBhMCSU4xHjAcBgNVBAMU
FTEyOV9DQUxDVVRUQUNBX3NlcnZlcjEpMCcGCSqGSIb3DQEJARYaMTI5X0NBTENV
VFRBQ0FAdGVzdF9jYS5jb20xDzANBgNVBAoTBkNJVFJJWDCCASIwDQYJKoZIhvcN
AQEBBQADggEPADCCAQoCggEBAMEj1+CqByH+xFY0QMy9VpqYFeZt8b7EOwFRRbiT
QapiIT4OFQe18uGBIC36WsiusxXMa6Dja8EUe7FZCd8Wv87TJTEefnQutwmPWVao
QY4Q/Xbi6fidDszLL5/tMjIC6o49/4C2v6FFvP5iQwMyG1OFXl7Y3TiTCGLm6oiM
SGcSootMdC862Nvwbc1yJ8B2uxUYIWRw1yA54djCy/XBtSPBi7j0aSJDZviJhLDG
ZTpTHQx/WZixn+0ByQQR8A6OBSo/pbWgkjP9SsldX8wWD+FSlcZh+HOGfTAJZq+N
yBTg2hfB9iBmRGPlOqgKiFsiDD1ewLbYiyXXsDGcB+3tWUsCAwEAAaOCAS8wggEr
MBEGCWCGSAGG+EIBAQQEAwIGQDAdBgNVHQ4EFgQU1RQVJECJrWxsUOGUGX1Qwr/e
4FswgbgGA1UdIwSBsDCBrYAUNy57J0ZLz0cQrCsuutDzZnXrUnWhgYmkgYYwgYMx
FjAUBgNVBAMUDUNBTENVVFRBQ0FfQ0ExCzAJBgNVBAYTAklOMQ8wDQYDVQQKEwZD
SVRSSVgxDDAKBgNVBAsTA0FORzELMAkGA1UECBMCS0ExMDAuBgkqhkiG9w0BCQEW
IUNBTENVVFRBQ0FfQ0FAQ0FMQ1VUVEFDQV9tYWlsLmNvbYIJAKXGRw7mBjcYMDwG
CCsGAQUFBwEBBDAwLjAsBggrBgEFBQcwAYYgaHR0cDovLzE3Mi4xOC4xMC4xL3Jl
c3BvbmRlcnBhdGgwDQYJKoZIhvcNAQELBQADggEBAGEdhakDuYa4/kV/VuYAZ5tc
YG19Spc5+bp4hRGkwwV+I4xvTtBJ+zBDkj6CDzHxuhjL+7y7tR9CZFmzpykDGxOk
8e+04jcHv0Wr5rm9FnsytaSwR3hZbgVwdptJVen5qImDZuvSh4iIfHa7w36W9mlA
rCuekxa/g9qjMdw01hvRfJYPRdRd2DNqva//oZ+r4EeuEt495/PvsJnwYPN/RkNU
lj/17AV8n9YZydAQg0ItH8k9EC6mcAogX/Iy9daK90rNROMvXriUp8b2E3LUjkZL
fVHEWYv3gQDDiHXIgdyZ1af8Q0oYyEwbR0b3HGTFuPbHpyJzt+FgiuPmCii0QtM=
-----END CERTIFICATE-----
