Certificate:
    Data:
        Version: 3 (0x2)
        Serial Number: 11042563100218 (0xa0b0c0d0e3a)
    Signature Algorithm: sha256WithRSAEncryption
        Issuer: CN=CALCUTTACA_CA, C=IN, O=CITRIX, OU=ANG, ST=KA/emailAddress=CALCUTTACA_CA@CALCUTTACA_mail.com
        Validity
            Not Before: Aug 23 10:15:46 2017 GMT
            Not After : Aug 21 10:15:46 2027 GMT
        Subject: ST=KA, C=IN, CN=calcutta_4_client/emailAddress=calcutta_4@test_ca.com, O=CITRIX
        Subject Public Key Info:
            Public Key Algorithm: rsaEncryption
                Public-Key: (2048 bit)
                Modulus:
                    00:d6:75:cb:25:e5:2c:d0:ad:04:58:08:1b:fb:76:
                    74:76:9f:54:32:df:f0:8a:f1:22:a4:76:45:07:00:
                    63:0f:04:61:e6:bc:53:c6:27:40:96:7d:94:67:bb:
                    96:6d:21:0a:bf:11:cf:fc:7e:00:26:5b:83:0d:f0:
                    f9:20:7b:06:a1:1d:74:8c:41:b3:a4:24:01:bb:b4:
                    3b:eb:f9:86:b7:ac:ec:b0:d3:73:94:6e:36:38:70:
                    ab:40:80:5b:7d:76:b5:60:47:1b:e8:7f:b0:97:cf:
                    c1:5a:fd:5f:00:93:f0:bb:78:62:7f:57:c5:7f:18:
                    3a:14:d7:b1:b5:0a:82:e7:8d:af:1b:17:3c:81:cd:
                    28:de:8e:29:4c:6d:01:3d:6b:ac:d5:db:de:1f:0c:
                    21:a0:90:fd:9c:ee:4a:17:99:ec:2e:5a:30:22:3c:
                    ee:d3:af:4a:c1:6f:fe:37:6f:7a:53:e0:26:5e:c7:
                    85:bb:2e:65:5b:cf:7a:c4:07:ba:bd:b2:57:9a:04:
                    d9:11:bb:0d:cb:fa:9f:34:7d:bd:4e:bc:ca:4e:ab:
                    e3:36:63:9f:3a:c7:a1:2d:e0:ba:35:8d:23:8d:cd:
                    49:8b:b8:2e:5c:67:4a:25:c7:84:cf:e6:90:1b:e9:
                    c0:34:16:8d:62:3d:37:97:b2:73:cc:5d:56:16:56:
                    81:73
                Exponent: 65537 (0x10001)
        X509v3 extensions:
            Netscape Cert Type: 
                SSL Client
            X509v3 Subject Key Identifier: 
                AA:78:7E:37:E0:14:92:F4:7E:4B:4F:5A:D3:6C:61:40:B7:4B:AA:E7
            X509v3 Authority Key Identifier: 
                keyid:37:2E:7B:27:46:4B:CF:47:10:AC:2B:2E:BA:D0:F3:66:75:EB:52:75
                DirName:/CN=CALCUTTACA_CA/C=IN/O=CITRIX/OU=ANG/ST=KA/emailAddress=CALCUTTACA_CA@CALCUTTACA_mail.com
                serial:A5:C6:47:0E:E6:06:37:18

            Authority Information Access: 
                OCSP - URI:http://172.18.20.1/responderpath

    Signature Algorithm: sha256WithRSAEncryption
         ac:48:87:39:47:df:1e:75:2f:4d:c0:c1:e6:9e:c4:c1:c0:ee:
         87:82:c5:93:ab:e7:87:72:42:5a:db:cb:f8:fb:6b:14:50:b0:
         a0:e4:d4:f2:cf:91:d3:4f:1f:b3:8e:de:ef:fa:06:1e:18:c7:
         34:f4:6d:56:d4:a5:1c:e2:47:6b:4f:75:46:02:db:f5:d5:7b:
         5e:83:bb:df:e1:a6:e4:8b:3b:33:32:30:9f:63:c0:9c:44:ee:
         8f:c2:0e:ad:b7:b4:50:04:00:44:da:e5:a8:dc:02:1e:53:c0:
         4c:d3:c7:c2:fa:e5:0b:bf:16:eb:97:c5:cd:25:98:44:e8:29:
         ff:ea:48:e7:86:dd:6f:2e:ae:1f:56:0a:76:7b:17:6a:5e:09:
         37:d1:65:af:65:f8:8f:e7:6d:d1:72:e5:ce:a4:b3:cc:1d:5a:
         50:53:c7:c1:d8:9d:9e:73:84:39:b0:f1:38:a9:b1:c3:ad:92:
         42:f9:2f:5b:97:09:c4:bb:86:17:41:33:de:4c:87:e2:79:d0:
         fa:6a:d8:fe:70:bb:64:5b:c2:f1:02:d9:bb:88:46:cb:f7:00:
         18:39:16:92:77:f9:11:1a:c4:6e:51:ca:93:68:84:a8:17:8e:
         af:84:c5:1f:eb:06:72:62:3a:ec:1b:65:c3:02:50:ff:d0:f1:
         27:38:98:00
-----BEGIN CERTIFICATE-----
MIIEozCCA4ugAwIBAgIGCgsMDQ46MA0GCSqGSIb3DQEBCwUAMIGDMRYwFAYDVQQD
FA1DQUxDVVRUQUNBX0NBMQswCQYDVQQGEwJJTjEPMA0GA1UEChMGQ0lUUklYMQww
CgYDVQQLEwNBTkcxCzAJBgNVBAgTAktBMTAwLgYJKoZIhvcNAQkBFiFDQUxDVVRU
QUNBX0NBQENBTENVVFRBQ0FfbWFpbC5jb20wHhcNMTcwODIzMTAxNTQ2WhcNMjcw
ODIxMTAxNTQ2WjBuMQswCQYDVQQIEwJLQTELMAkGA1UEBhMCSU4xGjAYBgNVBAMU
EWNhbGN1dHRhXzRfY2xpZW50MSUwIwYJKoZIhvcNAQkBFhZjYWxjdXR0YV80QHRl
c3RfY2EuY29tMQ8wDQYDVQQKEwZDSVRSSVgwggEiMA0GCSqGSIb3DQEBAQUAA4IB
DwAwggEKAoIBAQDWdcsl5SzQrQRYCBv7dnR2n1Qy3/CK8SKkdkUHAGMPBGHmvFPG
J0CWfZRnu5ZtIQq/Ec/8fgAmW4MN8PkgewahHXSMQbOkJAG7tDvr+Ya3rOyw03OU
bjY4cKtAgFt9drVgRxvof7CXz8Fa/V8Ak/C7eGJ/V8V/GDoU17G1CoLnja8bFzyB
zSjejilMbQE9a6zV294fDCGgkP2c7koXmewuWjAiPO7Tr0rBb/43b3pT4CZex4W7
LmVbz3rEB7q9sleaBNkRuw3L+p80fb1OvMpOq+M2Y586x6Et4Lo1jSONzUmLuC5c
Z0olx4TP5pAb6cA0Fo1iPTeXsnPMXVYWVoFzAgMBAAGjggEvMIIBKzARBglghkgB
hvhCAQEEBAMCB4AwHQYDVR0OBBYEFKp4fjfgFJL0fktPWtNsYUC3S6rnMIG4BgNV
HSMEgbAwga2AFDcueydGS89HEKwrLrrQ82Z161J1oYGJpIGGMIGDMRYwFAYDVQQD
FA1DQUxDVVRUQUNBX0NBMQswCQYDVQQGEwJJTjEPMA0GA1UEChMGQ0lUUklYMQww
CgYDVQQLEwNBTkcxCzAJBgNVBAgTAktBMTAwLgYJKoZIhvcNAQkBFiFDQUxDVVRU
QUNBX0NBQENBTENVVFRBQ0FfbWFpbC5jb22CCQClxkcO5gY3GDA8BggrBgEFBQcB
AQQwMC4wLAYIKwYBBQUHMAGGIGh0dHA6Ly8xNzIuMTguMjAuMS9yZXNwb25kZXJw
YXRoMA0GCSqGSIb3DQEBCwUAA4IBAQCsSIc5R98edS9NwMHmnsTBwO6HgsWTq+eH
ckJa28v4+2sUULCg5NTyz5HTTx+zjt7v+gYeGMc09G1W1KUc4kdrT3VGAtv11Xte
g7vf4abkizszMjCfY8CcRO6Pwg6tt7RQBABE2uWo3AIeU8BM08fC+uULvxbrl8XN
JZhE6Cn/6kjnht1vLq4fVgp2exdqXgk30WWvZfiP523RcuXOpLPMHVpQU8fB2J2e
c4Q5sPE4qbHDrZJC+S9blwnEu4YXQTPeTIfiedD6atj+cLtkW8LxAtm7iEbL9wAY
ORaSd/kRGsRuUcqTaISoF46vhMUf6wZyYjrsG2XDAlD/0PEnOJgA
-----END CERTIFICATE-----
