Certificate:
    Data:
        Version: 3 (0x2)
        Serial Number: 11042563100181 (0xa0b0c0d0e15)
    Signature Algorithm: sha256WithRSAEncryption
        Issuer: CN=CALCUTTACA_CA, C=IN, O=CITRIX, OU=ANG, ST=KA/emailAddress=CALCUTTACA_CA@CALCUTTACA_mail.com
        Validity
            Not Before: Jul  8 04:33:05 2016 GMT
            Not After : Jul  6 04:33:05 2026 GMT
        Subject: ST=KA, C=IN, CN=107_CALCUTTACA_server/emailAddress=107_CALCUTTACA@test_ca.com, O=CITRIX
        Subject Public Key Info:
            Public Key Algorithm: rsaEncryption
                Public-Key: (2048 bit)
                Modulus:
                    00:c5:95:fd:e8:35:2f:78:cc:1f:88:18:97:33:8a:
                    f9:76:1e:94:27:8e:81:68:7d:c6:8f:c2:fe:07:fe:
                    7f:2d:4f:08:90:cd:11:cb:97:c4:b4:e1:e1:51:35:
                    f6:73:bb:64:03:11:f8:9d:62:34:ec:e1:2e:93:04:
                    b8:f1:d6:e6:e0:63:cc:f4:f5:ff:68:bb:3c:81:cb:
                    f5:8e:8d:7f:2a:c4:e4:ce:57:23:d6:c4:50:10:05:
                    0c:8e:f1:e3:1e:99:6c:98:02:3d:4f:11:4e:c3:50:
                    4e:9c:a1:0a:07:13:e4:33:7e:7f:0c:30:0d:b0:b8:
                    42:a8:5e:05:79:39:b9:7a:ba:42:bb:99:34:18:0c:
                    b0:2f:91:48:c1:30:d7:0e:c6:22:67:ee:b6:dd:b9:
                    e3:f4:46:9f:19:31:d8:7c:d8:34:93:c0:0d:82:7e:
                    a2:48:4b:50:11:47:3e:f5:ce:9a:ab:16:4f:7d:9e:
                    e8:b6:65:27:e5:a3:91:35:10:21:ef:ea:38:35:00:
                    02:fa:2f:44:19:1e:81:9b:2e:45:61:c7:1a:35:45:
                    12:9a:f9:d3:a6:9c:8e:5f:ba:7b:df:cb:26:c1:44:
                    34:c6:49:9f:61:64:48:3b:79:87:5c:6e:f3:d9:db:
                    e5:aa:54:50:3a:f4:0c:35:61:08:01:4b:e3:f1:70:
                    63:7b
                Exponent: 65537 (0x10001)
        X509v3 extensions:
            Netscape Cert Type: 
                SSL Server
            X509v3 Subject Key Identifier: 
                5E:F1:D2:57:F2:3D:28:F0:95:AF:98:FF:8A:EC:CA:5E:65:06:1C:EF
            X509v3 Authority Key Identifier: 
                keyid:37:2E:7B:27:46:4B:CF:47:10:AC:2B:2E:BA:D0:F3:66:75:EB:52:75
                DirName:/CN=CALCUTTACA_CA/C=IN/O=CITRIX/OU=ANG/ST=KA/emailAddress=CALCUTTACA_CA@CALCUTTACA_mail.com
                serial:A5:C6:47:0E:E6:06:37:18

            Authority Information Access: 
                OCSP - URI:http://CALCUTTACA_one.ocsptest.com/responderpath

    Signature Algorithm: sha256WithRSAEncryption
         89:28:65:2a:cc:e2:6d:1a:b5:70:e2:47:62:f1:92:71:ce:a4:
         f9:84:24:e0:da:9c:04:06:28:06:cb:09:0e:fe:c4:d9:81:cf:
         4e:28:04:84:6e:78:3f:5c:f0:ba:4b:4b:66:44:f9:de:2e:c0:
         be:dc:e2:56:08:fc:85:55:b9:6b:1c:21:b3:3d:45:30:7a:00:
         c1:8f:75:5c:13:78:2c:7e:bc:a3:11:41:c8:bc:10:fb:64:bb:
         8d:e8:15:3c:4c:6f:dd:db:92:c8:a8:37:f3:eb:e5:0d:ed:20:
         75:c1:c5:c2:69:09:2e:fc:7b:ab:91:b2:55:76:e7:cd:aa:a0:
         0e:09:7d:8a:53:6a:3f:03:eb:b8:aa:e9:c0:a2:53:92:23:fa:
         5c:00:f7:4a:30:1d:9b:a2:25:e3:9f:9a:ff:08:8f:ab:26:3c:
         78:62:3c:2c:71:61:c4:75:a5:a5:09:20:fa:68:7f:2b:93:7e:
         b1:ea:41:2d:9e:e6:95:57:4e:97:16:54:de:71:52:05:e7:87:
         23:36:88:e2:d9:40:6f:9a:73:e4:3f:d4:9a:91:d2:6f:0a:79:
         8a:44:62:f4:21:ca:ad:21:e5:a9:46:81:8a:b7:de:c7:a4:cd:
         5c:e3:6e:2b:b5:19:d0:52:a7:92:1f:fa:e3:4b:0b:55:66:3c:
         c2:8e:75:4f
-----BEGIN CERTIFICATE-----
MIIEuzCCA6OgAwIBAgIGCgsMDQ4VMA0GCSqGSIb3DQEBCwUAMIGDMRYwFAYDVQQD
FA1DQUxDVVRUQUNBX0NBMQswCQYDVQQGEwJJTjEPMA0GA1UEChMGQ0lUUklYMQww
CgYDVQQLEwNBTkcxCzAJBgNVBAgTAktBMTAwLgYJKoZIhvcNAQkBFiFDQUxDVVRU
QUNBX0NBQENBTENVVFRBQ0FfbWFpbC5jb20wHhcNMTYwNzA4MDQzMzA1WhcNMjYw
NzA2MDQzMzA1WjB2MQswCQYDVQQIEwJLQTELMAkGA1UEBhMCSU4xHjAcBgNVBAMU
FTEwN19DQUxDVVRUQUNBX3NlcnZlcjEpMCcGCSqGSIb3DQEJARYaMTA3X0NBTENV
VFRBQ0FAdGVzdF9jYS5jb20xDzANBgNVBAoTBkNJVFJJWDCCASIwDQYJKoZIhvcN
AQEBBQADggEPADCCAQoCggEBAMWV/eg1L3jMH4gYlzOK+XYelCeOgWh9xo/C/gf+
fy1PCJDNEcuXxLTh4VE19nO7ZAMR+J1iNOzhLpMEuPHW5uBjzPT1/2i7PIHL9Y6N
fyrE5M5XI9bEUBAFDI7x4x6ZbJgCPU8RTsNQTpyhCgcT5DN+fwwwDbC4QqheBXk5
uXq6QruZNBgMsC+RSMEw1w7GImfutt254/RGnxkx2HzYNJPADYJ+okhLUBFHPvXO
mqsWT32e6LZlJ+WjkTUQIe/qODUAAvovRBkegZsuRWHHGjVFEpr506acjl+6e9/L
JsFENMZJn2FkSDt5h1xu89nb5apUUDr0DDVhCAFL4/FwY3sCAwEAAaOCAT8wggE7
MBEGCWCGSAGG+EIBAQQEAwIGQDAdBgNVHQ4EFgQUXvHSV/I9KPCVr5j/iuzKXmUG
HO8wgbgGA1UdIwSBsDCBrYAUNy57J0ZLz0cQrCsuutDzZnXrUnWhgYmkgYYwgYMx
FjAUBgNVBAMUDUNBTENVVFRBQ0FfQ0ExCzAJBgNVBAYTAklOMQ8wDQYDVQQKEwZD
SVRSSVgxDDAKBgNVBAsTA0FORzELMAkGA1UECBMCS0ExMDAuBgkqhkiG9w0BCQEW
IUNBTENVVFRBQ0FfQ0FAQ0FMQ1VUVEFDQV9tYWlsLmNvbYIJAKXGRw7mBjcYMEwG
CCsGAQUFBwEBBEAwPjA8BggrBgEFBQcwAYYwaHR0cDovL0NBTENVVFRBQ0Ffb25l
Lm9jc3B0ZXN0LmNvbS9yZXNwb25kZXJwYXRoMA0GCSqGSIb3DQEBCwUAA4IBAQCJ
KGUqzOJtGrVw4kdi8ZJxzqT5hCTg2pwEBigGywkO/sTZgc9OKASEbng/XPC6S0tm
RPneLsC+3OJWCPyFVblrHCGzPUUwegDBj3VcE3gsfryjEUHIvBD7ZLuN6BU8TG/d
25LIqDfz6+UN7SB1wcXCaQku/HurkbJVdufNqqAOCX2KU2o/A+u4qunAolOSI/pc
APdKMB2boiXjn5r/CI+rJjx4YjwscWHEdaWlCSD6aH8rk36x6kEtnuaVV06XFlTe
cVIF54cjNoji2UBvmnPkP9SakdJvCnmKRGL0IcqtIeWpRoGKt97HpM1c424rtRnQ
UqeSH/rjSwtVZjzCjnVP
-----END CERTIFICATE-----
