Certificate:
    Data:
        Version: 3 (0x2)
        Serial Number: 11042563100185 (0xa0b0c0d0e19)
    Signature Algorithm: sha256WithRSAEncryption
        Issuer: CN=CALCUTTACA_CA, C=IN, O=CITRIX, OU=ANG, ST=KA/emailAddress=CALCUTTACA_CA@CALCUTTACA_mail.com
        Validity
            Not Before: Jul  8 04:33:06 2016 GMT
            Not After : Jul  6 04:33:06 2026 GMT
        Subject: ST=KA, C=IN, CN=111_CALCUTTACA_server/emailAddress=111_CALCUTTACA@test_ca.com, O=CITRIX
        Subject Public Key Info:
            Public Key Algorithm: rsaEncryption
                Public-Key: (2048 bit)
                Modulus:
                    00:c0:24:68:f7:2b:79:84:49:60:31:4b:ca:62:8c:
                    c5:8e:bf:d2:8b:7d:93:04:ba:59:b9:f4:cc:27:55:
                    09:1b:5e:58:f3:1f:97:c6:a0:d6:82:03:3c:85:e9:
                    ab:4c:df:bc:6f:b3:34:41:14:e1:a7:48:ff:f5:0f:
                    91:01:99:92:c0:d3:1c:53:db:57:05:7e:57:93:b9:
                    13:68:7e:4f:98:12:9b:f6:93:c4:2a:9c:f5:da:b0:
                    b1:c2:b9:69:a9:b0:8c:61:a4:ad:2e:76:cf:15:8c:
                    2d:c9:92:0b:0d:d5:0e:2d:d1:58:0c:5b:17:76:9b:
                    15:5d:41:82:0a:4d:f7:6a:38:bd:83:e9:ac:be:f8:
                    39:32:24:81:18:7f:6a:14:59:46:95:22:7b:87:d4:
                    36:ac:48:17:0d:f0:36:c9:72:81:a2:1a:7c:b7:39:
                    bf:f7:c7:d4:66:7a:84:0f:01:66:d9:48:b8:35:c2:
                    95:a4:d9:1b:64:71:38:ef:48:b5:a7:23:e4:c9:02:
                    d8:99:ed:9c:02:44:b8:52:a7:ff:ae:8b:05:b7:30:
                    29:d6:b8:98:aa:3e:5c:1d:5a:dc:c6:e6:77:18:95:
                    85:1b:41:ff:dc:09:a9:97:25:18:63:60:b7:f0:64:
                    ac:a7:c6:ac:68:4c:db:5d:2c:69:b1:75:0f:62:9c:
                    a6:f3
                Exponent: 65537 (0x10001)
        X509v3 extensions:
            Netscape Cert Type: 
                SSL Server
            X509v3 Subject Key Identifier: 
                80:55:FC:4F:3D:07:90:E3:AC:14:FB:DF:8E:4B:98:2E:7F:36:30:51
            X509v3 Authority Key Identifier: 
                keyid:37:2E:7B:27:46:4B:CF:47:10:AC:2B:2E:BA:D0:F3:66:75:EB:52:75
                DirName:/CN=CALCUTTACA_CA/C=IN/O=CITRIX/OU=ANG/ST=KA/emailAddress=CALCUTTACA_CA@CALCUTTACA_mail.com
                serial:A5:C6:47:0E:E6:06:37:18

            Authority Information Access: 
                OCSP - URI:http://CALCUTTACA_two.ocsptest.com/responderpath

    Signature Algorithm: sha256WithRSAEncryption
         87:2d:13:93:f2:87:a9:19:b8:80:8b:2f:88:95:6f:ef:e1:11:
         98:4e:69:7f:64:48:76:76:1b:c1:27:cd:97:10:2d:ee:4e:93:
         ff:6b:87:d1:8e:ec:51:e3:06:e0:79:85:8e:97:eb:69:3c:ae:
         98:db:2d:62:f4:a3:d8:e8:ff:5d:60:b0:39:f0:a2:92:05:d0:
         d7:62:5e:02:fa:4b:e0:fa:3f:c0:72:5c:9d:e9:98:11:cf:48:
         0e:7d:e2:e1:91:c7:85:77:db:6f:08:59:50:51:67:24:19:fa:
         7a:8a:cf:c2:3b:d9:7a:96:32:c0:54:1b:c7:a4:d4:e1:56:32:
         12:9a:87:b3:55:b8:ec:d8:9d:ef:bf:84:ba:0f:d6:a5:dd:f5:
         3d:e9:60:75:02:9a:08:69:e0:d0:7f:e8:22:28:ee:66:5d:26:
         6d:6c:97:e5:95:67:83:fd:aa:f8:cb:7d:bf:30:1e:42:80:a7:
         10:0e:62:fe:0d:84:6f:4e:42:a6:78:d8:b7:48:c2:76:ba:b9:
         e4:c3:91:12:46:6e:f4:e3:8b:9f:ea:bf:ea:11:7f:d7:d8:00:
         3f:2a:12:d5:78:64:d7:31:8a:16:3a:11:17:03:db:35:36:93:
         5d:92:12:26:75:03:77:d7:08:a0:77:1f:1a:2e:05:ac:cc:78:
         65:d4:30:7a
-----BEGIN CERTIFICATE-----
MIIEuzCCA6OgAwIBAgIGCgsMDQ4ZMA0GCSqGSIb3DQEBCwUAMIGDMRYwFAYDVQQD
FA1DQUxDVVRUQUNBX0NBMQswCQYDVQQGEwJJTjEPMA0GA1UEChMGQ0lUUklYMQww
CgYDVQQLEwNBTkcxCzAJBgNVBAgTAktBMTAwLgYJKoZIhvcNAQkBFiFDQUxDVVRU
QUNBX0NBQENBTENVVFRBQ0FfbWFpbC5jb20wHhcNMTYwNzA4MDQzMzA2WhcNMjYw
NzA2MDQzMzA2WjB2MQswCQYDVQQIEwJLQTELMAkGA1UEBhMCSU4xHjAcBgNVBAMU
FTExMV9DQUxDVVRUQUNBX3NlcnZlcjEpMCcGCSqGSIb3DQEJARYaMTExX0NBTENV
VFRBQ0FAdGVzdF9jYS5jb20xDzANBgNVBAoTBkNJVFJJWDCCASIwDQYJKoZIhvcN
AQEBBQADggEPADCCAQoCggEBAMAkaPcreYRJYDFLymKMxY6/0ot9kwS6Wbn0zCdV
CRteWPMfl8ag1oIDPIXpq0zfvG+zNEEU4adI//UPkQGZksDTHFPbVwV+V5O5E2h+
T5gSm/aTxCqc9dqwscK5aamwjGGkrS52zxWMLcmSCw3VDi3RWAxbF3abFV1BggpN
92o4vYPprL74OTIkgRh/ahRZRpUie4fUNqxIFw3wNslygaIafLc5v/fH1GZ6hA8B
ZtlIuDXClaTZG2RxOO9Itacj5MkC2JntnAJEuFKn/66LBbcwKda4mKo+XB1a3Mbm
dxiVhRtB/9wJqZclGGNgt/BkrKfGrGhM210sabF1D2KcpvMCAwEAAaOCAT8wggE7
MBEGCWCGSAGG+EIBAQQEAwIGQDAdBgNVHQ4EFgQUgFX8Tz0HkOOsFPvfjkuYLn82
MFEwgbgGA1UdIwSBsDCBrYAUNy57J0ZLz0cQrCsuutDzZnXrUnWhgYmkgYYwgYMx
FjAUBgNVBAMUDUNBTENVVFRBQ0FfQ0ExCzAJBgNVBAYTAklOMQ8wDQYDVQQKEwZD
SVRSSVgxDDAKBgNVBAsTA0FORzELMAkGA1UECBMCS0ExMDAuBgkqhkiG9w0BCQEW
IUNBTENVVFRBQ0FfQ0FAQ0FMQ1VUVEFDQV9tYWlsLmNvbYIJAKXGRw7mBjcYMEwG
CCsGAQUFBwEBBEAwPjA8BggrBgEFBQcwAYYwaHR0cDovL0NBTENVVFRBQ0FfdHdv
Lm9jc3B0ZXN0LmNvbS9yZXNwb25kZXJwYXRoMA0GCSqGSIb3DQEBCwUAA4IBAQCH
LROT8oepGbiAiy+IlW/v4RGYTml/ZEh2dhvBJ82XEC3uTpP/a4fRjuxR4wbgeYWO
l+tpPK6Y2y1i9KPY6P9dYLA58KKSBdDXYl4C+kvg+j/Aclyd6ZgRz0gOfeLhkceF
d9tvCFlQUWckGfp6is/CO9l6ljLAVBvHpNThVjISmoezVbjs2J3vv4S6D9al3fU9
6WB1ApoIaeDQf+giKO5mXSZtbJfllWeD/ar4y32/MB5CgKcQDmL+DYRvTkKmeNi3
SMJ2urnkw5ESRm7044uf6r/qEX/X2AA/KhLVeGTXMYoWOhEXA9s1NpNdkhImdQN3
1wigdx8aLgWszHhl1DB6
-----END CERTIFICATE-----
