Certificate:
    Data:
        Version: 3 (0x2)
        Serial Number: 11042563100191 (0xa0b0c0d0e1f)
    Signature Algorithm: sha256WithRSAEncryption
        Issuer: CN=CALCUTTACA_CA, C=IN, O=CITRIX, OU=ANG, ST=KA/emailAddress=CALCUTTACA_CA@CALCUTTACA_mail.com
        Validity
            Not Before: Jul  8 04:33:07 2016 GMT
            Not After : Jul  6 04:33:07 2026 GMT
        Subject: ST=KA, C=IN, CN=117_CALCUTTACA_server/emailAddress=117_CALCUTTACA@test_ca.com, O=CITRIX
        Subject Public Key Info:
            Public Key Algorithm: rsaEncryption
                Public-Key: (2048 bit)
                Modulus:
                    00:ef:ea:2a:4d:59:3e:dc:b3:99:01:47:2f:53:ad:
                    fa:c6:9a:d9:bd:bb:dc:68:24:d6:89:51:3f:6f:be:
                    ff:13:47:ed:ba:f1:a0:de:c7:ba:df:2a:c3:a8:15:
                    63:fe:71:d2:68:5b:b4:c3:eb:06:23:e7:4e:0d:51:
                    7a:2d:c4:2b:93:2b:30:18:9b:3a:c8:81:3c:b1:a0:
                    ea:29:3d:2e:df:6c:cb:09:cc:09:18:40:51:93:cc:
                    b5:51:12:48:12:f8:a2:1e:eb:ff:7f:46:23:b2:d2:
                    fc:7e:71:2d:41:58:de:fa:cd:05:73:84:a2:f7:cc:
                    54:7e:95:06:8a:12:31:6d:54:e8:39:d0:b1:f5:45:
                    1b:61:23:f2:92:05:84:18:40:dc:c5:0b:26:2e:12:
                    0b:df:2d:66:35:d0:bb:28:be:cc:c9:32:f1:fb:33:
                    b5:75:ac:50:5c:b0:9a:f9:25:ad:c3:8a:74:a0:d5:
                    49:2b:36:09:c5:f2:41:bf:6c:d2:25:19:3c:7f:04:
                    f1:81:aa:f8:eb:df:f5:e9:22:7b:25:99:01:60:38:
                    59:98:75:f4:47:97:38:58:61:6f:dc:72:de:74:46:
                    db:b6:75:d6:7b:64:35:ab:a7:c5:09:b5:46:3e:64:
                    04:c5:eb:e8:49:f1:2a:3d:bf:58:77:1b:6a:c8:31:
                    cf:d7
                Exponent: 65537 (0x10001)
        X509v3 extensions:
            Netscape Cert Type: 
                SSL Server
            X509v3 Subject Key Identifier: 
                92:1A:6D:21:4D:30:49:4F:81:AA:77:5B:B9:48:F5:AA:40:FA:BB:A3
            X509v3 Authority Key Identifier: 
                keyid:37:2E:7B:27:46:4B:CF:47:10:AC:2B:2E:BA:D0:F3:66:75:EB:52:75
                DirName:/CN=CALCUTTACA_CA/C=IN/O=CITRIX/OU=ANG/ST=KA/emailAddress=CALCUTTACA_CA@CALCUTTACA_mail.com
                serial:A5:C6:47:0E:E6:06:37:18

            Authority Information Access: 
                OCSP - URI:http://CALCUTTACA_two.ocsptest.com/responderpath

    Signature Algorithm: sha256WithRSAEncryption
         5d:d3:0d:ad:a3:bd:39:ed:cc:dd:8b:3d:d3:4a:48:29:b2:64:
         19:4f:6e:33:ef:94:ec:d0:40:ef:a0:96:2d:b4:14:28:69:d3:
         cc:43:99:41:23:bb:64:d5:06:82:34:13:73:b0:7a:db:13:f8:
         ab:f2:9c:22:6d:ba:2e:a9:ae:6d:a5:58:e9:b6:5b:99:0f:ca:
         0a:90:e2:65:62:b2:da:8b:96:2a:c2:f8:46:86:e5:ea:42:36:
         e3:32:31:73:68:72:1a:96:52:9c:66:17:b5:73:d0:a5:42:ae:
         83:87:c1:43:0f:d6:f8:41:08:c5:ee:72:51:ef:ee:79:10:e6:
         95:59:72:33:58:e9:80:64:22:cf:43:e1:c8:08:ab:02:c8:32:
         b6:85:71:da:1b:bb:97:87:66:d3:38:83:60:86:1e:05:eb:77:
         99:64:21:b9:7b:74:4d:9b:8f:23:af:16:e7:1b:dd:58:e4:cd:
         07:fd:35:10:3c:72:cb:a8:93:88:3b:b6:e9:ba:d6:ac:e5:4c:
         3f:a5:3c:3e:f9:c7:90:60:66:72:73:60:5d:99:67:ea:48:06:
         90:3b:6a:ae:a7:4a:ac:ea:5e:11:60:37:77:58:90:c9:41:5e:
         37:9c:85:23:95:bb:63:fd:69:03:37:87:bf:ad:70:06:02:0c:
         ba:80:c5:8e
-----BEGIN CERTIFICATE-----
MIIEuzCCA6OgAwIBAgIGCgsMDQ4fMA0GCSqGSIb3DQEBCwUAMIGDMRYwFAYDVQQD
FA1DQUxDVVRUQUNBX0NBMQswCQYDVQQGEwJJTjEPMA0GA1UEChMGQ0lUUklYMQww
CgYDVQQLEwNBTkcxCzAJBgNVBAgTAktBMTAwLgYJKoZIhvcNAQkBFiFDQUxDVVRU
QUNBX0NBQENBTENVVFRBQ0FfbWFpbC5jb20wHhcNMTYwNzA4MDQzMzA3WhcNMjYw
NzA2MDQzMzA3WjB2MQswCQYDVQQIEwJLQTELMAkGA1UEBhMCSU4xHjAcBgNVBAMU
FTExN19DQUxDVVRUQUNBX3NlcnZlcjEpMCcGCSqGSIb3DQEJARYaMTE3X0NBTENV
VFRBQ0FAdGVzdF9jYS5jb20xDzANBgNVBAoTBkNJVFJJWDCCASIwDQYJKoZIhvcN
AQEBBQADggEPADCCAQoCggEBAO/qKk1ZPtyzmQFHL1Ot+saa2b273Ggk1olRP2++
/xNH7brxoN7Hut8qw6gVY/5x0mhbtMPrBiPnTg1Rei3EK5MrMBibOsiBPLGg6ik9
Lt9sywnMCRhAUZPMtVESSBL4oh7r/39GI7LS/H5xLUFY3vrNBXOEovfMVH6VBooS
MW1U6DnQsfVFG2Ej8pIFhBhA3MULJi4SC98tZjXQuyi+zMky8fsztXWsUFywmvkl
rcOKdKDVSSs2CcXyQb9s0iUZPH8E8YGq+Ovf9ekieyWZAWA4WZh19EeXOFhhb9xy
3nRG27Z11ntkNaunxQm1Rj5kBMXr6EnxKj2/WHcbasgxz9cCAwEAAaOCAT8wggE7
MBEGCWCGSAGG+EIBAQQEAwIGQDAdBgNVHQ4EFgQUkhptIU0wSU+BqndbuUj1qkD6
u6MwgbgGA1UdIwSBsDCBrYAUNy57J0ZLz0cQrCsuutDzZnXrUnWhgYmkgYYwgYMx
FjAUBgNVBAMUDUNBTENVVFRBQ0FfQ0ExCzAJBgNVBAYTAklOMQ8wDQYDVQQKEwZD
SVRSSVgxDDAKBgNVBAsTA0FORzELMAkGA1UECBMCS0ExMDAuBgkqhkiG9w0BCQEW
IUNBTENVVFRBQ0FfQ0FAQ0FMQ1VUVEFDQV9tYWlsLmNvbYIJAKXGRw7mBjcYMEwG
CCsGAQUFBwEBBEAwPjA8BggrBgEFBQcwAYYwaHR0cDovL0NBTENVVFRBQ0FfdHdv
Lm9jc3B0ZXN0LmNvbS9yZXNwb25kZXJwYXRoMA0GCSqGSIb3DQEBCwUAA4IBAQBd
0w2to7057czdiz3TSkgpsmQZT24z75Ts0EDvoJYttBQoadPMQ5lBI7tk1QaCNBNz
sHrbE/ir8pwibbouqa5tpVjptluZD8oKkOJlYrLai5YqwvhGhuXqQjbjMjFzaHIa
llKcZhe1c9ClQq6Dh8FDD9b4QQjF7nJR7+55EOaVWXIzWOmAZCLPQ+HICKsCyDK2
hXHaG7uXh2bTOINghh4F63eZZCG5e3RNm48jrxbnG91Y5M0H/TUQPHLLqJOIO7bp
utas5Uw/pTw++ceQYGZyc2BdmWfqSAaQO2qup0qs6l4RYDd3WJDJQV43nIUjlbtj
/WkDN4e/rXAGAgy6gMWO
-----END CERTIFICATE-----
