Certificate:
    Data:
        Version: 3 (0x2)
        Serial Number: 11042563100195 (0xa0b0c0d0e23)
    Signature Algorithm: sha256WithRSAEncryption
        Issuer: CN=CALCUTTACA_CA, C=IN, O=CITRIX, OU=ANG, ST=KA/emailAddress=CALCUTTACA_CA@CALCUTTACA_mail.com
        Validity
            Not Before: Jul  8 04:33:09 2016 GMT
            Not After : Jul  6 04:33:09 2026 GMT
        Subject: ST=KA, C=IN, CN=121_CALCUTTACA_server/emailAddress=121_CALCUTTACA@test_ca.com, O=CITRIX
        Subject Public Key Info:
            Public Key Algorithm: rsaEncryption
                Public-Key: (2048 bit)
                Modulus:
                    00:b6:bc:5b:00:3a:c7:37:e7:f1:0f:a7:54:8d:d9:
                    72:45:ba:9f:7f:da:78:01:84:87:f8:e0:ff:75:9e:
                    e2:6d:41:dd:73:01:27:63:61:e7:dd:ba:db:20:b8:
                    d3:7d:4c:e2:d5:65:db:8c:9d:4e:76:5f:ca:06:71:
                    c3:5e:c2:4e:64:6f:41:a2:e0:cb:0a:b7:f6:c6:0a:
                    7a:ee:f5:f0:64:d5:cd:08:e1:c3:02:7f:7a:d1:db:
                    e9:a3:05:5d:c8:04:26:05:73:62:09:c3:fe:3b:ef:
                    76:1c:f9:0d:de:80:6a:64:5e:62:7c:c0:d4:3d:61:
                    e2:d8:28:df:27:06:32:a2:52:b8:9a:7e:94:88:a8:
                    74:7b:31:78:da:04:4e:0a:66:ec:d9:20:97:35:77:
                    ca:a8:ee:e4:86:5b:8f:b2:09:ec:8d:c4:3f:e5:62:
                    4e:14:25:c9:c6:d1:e5:c9:dd:c0:35:e6:81:6e:1e:
                    b4:e4:37:c7:43:3c:5e:1b:24:4c:7e:59:df:c6:fe:
                    18:2d:78:a9:b6:6f:a6:fb:86:76:65:bf:7a:ee:e1:
                    5c:ae:ed:a8:08:53:d6:96:72:fc:8d:9d:20:ff:93:
                    42:8f:0d:1f:73:3b:55:10:99:57:47:66:95:c8:ef:
                    39:1c:57:6d:bf:cb:60:b8:f0:ce:54:5a:df:f4:bc:
                    70:b1
                Exponent: 65537 (0x10001)
        X509v3 extensions:
            Netscape Cert Type: 
                SSL Server
            X509v3 Subject Key Identifier: 
                2F:E6:40:C4:52:23:9C:0A:C0:5D:41:A8:45:43:25:C1:79:51:C3:83
            X509v3 Authority Key Identifier: 
                keyid:37:2E:7B:27:46:4B:CF:47:10:AC:2B:2E:BA:D0:F3:66:75:EB:52:75
                DirName:/CN=CALCUTTACA_CA/C=IN/O=CITRIX/OU=ANG/ST=KA/emailAddress=CALCUTTACA_CA@CALCUTTACA_mail.com
                serial:A5:C6:47:0E:E6:06:37:18

            Authority Information Access: 
                OCSP - URI:http://172.18.10.1/responderpath

    Signature Algorithm: sha256WithRSAEncryption
         3c:25:68:8d:82:cf:cd:e7:c9:55:b2:74:67:8a:6a:3a:83:9f:
         7f:f9:90:6c:10:39:fe:96:86:36:2b:83:5f:8e:b5:4c:44:18:
         e4:87:71:52:b8:a6:88:e1:12:6f:70:5c:e4:90:eb:5d:bb:ef:
         c6:41:d7:67:71:9f:48:e3:d4:a2:0b:f7:7c:07:39:bd:92:3b:
         cf:1c:43:df:23:fc:4d:d8:53:34:94:79:26:07:24:88:b8:4c:
         4a:a9:6e:40:44:ce:f3:1e:a8:2e:fa:59:5b:ad:9c:e8:a6:b9:
         1f:50:b0:b7:95:26:74:3b:19:59:97:2e:97:af:94:37:92:c2:
         3b:cf:02:c7:0b:6d:91:d5:31:ea:4b:c1:19:3e:41:f3:15:8f:
         8a:31:a1:92:a8:76:22:df:1c:09:22:8d:a4:a6:87:67:27:29:
         fb:83:55:01:d1:1a:21:83:d6:be:8c:e9:36:bd:8d:a1:bb:fa:
         6f:e2:10:43:5e:35:c0:46:7b:5c:ca:4d:eb:08:17:2a:83:67:
         a5:3e:97:16:73:65:2c:bb:c8:8b:34:9e:6b:2d:8c:3a:f5:d0:
         05:5e:6a:33:c3:b6:8f:6f:49:da:2a:3c:eb:1f:74:f3:2b:6f:
         fe:21:9e:1c:80:5e:20:30:34:a1:2f:81:dc:fe:6a:e2:fc:b2:
         dc:60:23:eb
-----BEGIN CERTIFICATE-----
MIIEqzCCA5OgAwIBAgIGCgsMDQ4jMA0GCSqGSIb3DQEBCwUAMIGDMRYwFAYDVQQD
FA1DQUxDVVRUQUNBX0NBMQswCQYDVQQGEwJJTjEPMA0GA1UEChMGQ0lUUklYMQww
CgYDVQQLEwNBTkcxCzAJBgNVBAgTAktBMTAwLgYJKoZIhvcNAQkBFiFDQUxDVVRU
QUNBX0NBQENBTENVVFRBQ0FfbWFpbC5jb20wHhcNMTYwNzA4MDQzMzA5WhcNMjYw
NzA2MDQzMzA5WjB2MQswCQYDVQQIEwJLQTELMAkGA1UEBhMCSU4xHjAcBgNVBAMU
FTEyMV9DQUxDVVRUQUNBX3NlcnZlcjEpMCcGCSqGSIb3DQEJARYaMTIxX0NBTENV
VFRBQ0FAdGVzdF9jYS5jb20xDzANBgNVBAoTBkNJVFJJWDCCASIwDQYJKoZIhvcN
AQEBBQADggEPADCCAQoCggEBALa8WwA6xzfn8Q+nVI3ZckW6n3/aeAGEh/jg/3We
4m1B3XMBJ2Nh59262yC4031M4tVl24ydTnZfygZxw17CTmRvQaLgywq39sYKeu71
8GTVzQjhwwJ/etHb6aMFXcgEJgVzYgnD/jvvdhz5Dd6AamReYnzA1D1h4tgo3ycG
MqJSuJp+lIiodHsxeNoETgpm7NkglzV3yqju5IZbj7IJ7I3EP+ViThQlycbR5cnd
wDXmgW4etOQ3x0M8XhskTH5Z38b+GC14qbZvpvuGdmW/eu7hXK7tqAhT1pZy/I2d
IP+TQo8NH3M7VRCZV0dmlcjvORxXbb/LYLjwzlRa3/S8cLECAwEAAaOCAS8wggEr
MBEGCWCGSAGG+EIBAQQEAwIGQDAdBgNVHQ4EFgQUL+ZAxFIjnArAXUGoRUMlwXlR
w4MwgbgGA1UdIwSBsDCBrYAUNy57J0ZLz0cQrCsuutDzZnXrUnWhgYmkgYYwgYMx
FjAUBgNVBAMUDUNBTENVVFRBQ0FfQ0ExCzAJBgNVBAYTAklOMQ8wDQYDVQQKEwZD
SVRSSVgxDDAKBgNVBAsTA0FORzELMAkGA1UECBMCS0ExMDAuBgkqhkiG9w0BCQEW
IUNBTENVVFRBQ0FfQ0FAQ0FMQ1VUVEFDQV9tYWlsLmNvbYIJAKXGRw7mBjcYMDwG
CCsGAQUFBwEBBDAwLjAsBggrBgEFBQcwAYYgaHR0cDovLzE3Mi4xOC4xMC4xL3Jl
c3BvbmRlcnBhdGgwDQYJKoZIhvcNAQELBQADggEBADwlaI2Cz83nyVWydGeKajqD
n3/5kGwQOf6WhjYrg1+OtUxEGOSHcVK4pojhEm9wXOSQ612778ZB12dxn0jj1KIL
93wHOb2SO88cQ98j/E3YUzSUeSYHJIi4TEqpbkBEzvMeqC76WVutnOimuR9QsLeV
JnQ7GVmXLpevlDeSwjvPAscLbZHVMepLwRk+QfMVj4oxoZKodiLfHAkijaSmh2cn
KfuDVQHRGiGD1r6M6Ta9jaG7+m/iEENeNcBGe1zKTesIFyqDZ6U+lxZzZSy7yIs0
nmstjDr10AVeajPDto9vSdoqPOsfdPMrb/4hnhyAXiAwNKEvgdz+auL8stxgI+s=
-----END CERTIFICATE-----
