Certificate:
    Data:
        Version: 3 (0x2)
        Serial Number: 11042563100200 (0xa0b0c0d0e28)
    Signature Algorithm: sha256WithRSAEncryption
        Issuer: CN=CALCUTTACA_CA, C=IN, O=CITRIX, OU=ANG, ST=KA/emailAddress=CALCUTTACA_CA@CALCUTTACA_mail.com
        Validity
            Not Before: Jul  8 04:33:10 2016 GMT
            Not After : Jul  6 04:33:10 2026 GMT
        Subject: ST=KA, C=IN, CN=126_CALCUTTACA_server/emailAddress=126_CALCUTTACA@test_ca.com, O=CITRIX
        Subject Public Key Info:
            Public Key Algorithm: rsaEncryption
                Public-Key: (2048 bit)
                Modulus:
                    00:b9:35:5f:50:38:54:5c:bb:7a:db:d0:1d:40:d5:
                    41:3c:b5:c8:5c:ab:ab:cb:2e:df:fa:a9:49:83:16:
                    c3:bd:56:b4:d8:69:df:48:75:59:0a:c3:c3:c3:5a:
                    86:1c:71:58:fc:c5:a0:3b:bc:98:94:74:75:fa:f7:
                    ae:53:1c:20:e6:f6:4d:ac:f5:ec:c5:64:6c:17:79:
                    45:72:4b:66:87:19:ec:55:2e:ba:7c:ae:ad:ee:d2:
                    ee:b2:8d:7d:91:38:22:14:0c:e8:46:7e:36:70:b0:
                    23:fb:86:0f:2b:ec:01:8d:2f:d3:e6:09:f8:d4:8b:
                    b3:33:ab:a4:b7:d6:1f:b7:9c:49:4e:d9:a1:1b:48:
                    1c:15:b8:81:f6:9f:c5:69:fa:3f:81:7a:56:73:fe:
                    55:9c:12:2b:bb:2e:e6:d7:df:86:56:95:f4:97:1b:
                    11:52:f5:6f:40:43:be:92:fa:a8:53:f1:26:76:60:
                    d0:66:ce:ec:00:24:e2:ff:c6:9f:ca:e5:b5:27:66:
                    19:ea:11:59:85:b5:c2:c4:ba:5c:a9:ae:c5:a1:cf:
                    36:11:98:3d:37:1d:66:f2:d6:08:d4:15:96:e0:a1:
                    2b:7b:9f:b0:a8:56:14:07:8d:e3:1a:7a:cc:0e:52:
                    ed:41:9a:c3:75:a5:62:be:36:aa:79:94:67:62:8e:
                    02:23
                Exponent: 65537 (0x10001)
        X509v3 extensions:
            Netscape Cert Type: 
                SSL Server
            X509v3 Subject Key Identifier: 
                53:7E:B4:33:CD:F8:28:2C:A9:02:2F:BB:95:D5:4D:35:55:F4:9F:40
            X509v3 Authority Key Identifier: 
                keyid:37:2E:7B:27:46:4B:CF:47:10:AC:2B:2E:BA:D0:F3:66:75:EB:52:75
                DirName:/CN=CALCUTTACA_CA/C=IN/O=CITRIX/OU=ANG/ST=KA/emailAddress=CALCUTTACA_CA@CALCUTTACA_mail.com
                serial:A5:C6:47:0E:E6:06:37:18

            Authority Information Access: 
                OCSP - URI:http://172.18.10.1/responderpath

    Signature Algorithm: sha256WithRSAEncryption
         05:ef:bb:63:e6:e7:58:ee:9e:aa:10:2d:7d:b5:ec:7c:7b:e9:
         16:5d:c8:39:c2:28:88:4f:4f:66:71:fe:9b:72:13:95:02:6b:
         6e:66:9a:fe:7a:cf:29:2c:5d:81:11:e5:3d:99:00:2b:da:f1:
         05:04:9c:fb:9a:09:51:af:5e:db:06:22:0c:8a:26:84:87:fe:
         c4:67:a2:9b:ee:57:a4:ee:cd:02:97:0f:a0:63:4d:49:62:21:
         45:97:e6:62:c1:e6:a9:7b:d1:8c:02:b4:d7:cf:ab:0c:66:18:
         23:13:3f:8f:94:05:da:b1:a0:30:e1:ee:02:3e:7c:a2:42:60:
         a9:93:42:d7:46:fb:ad:c4:59:ed:31:b5:a8:9a:cd:e7:19:4a:
         a0:75:65:54:d8:65:a4:3c:bf:54:fe:c0:85:e0:4c:dc:c4:70:
         e4:f6:6b:41:48:e3:35:85:6e:17:0e:ef:f0:a5:8c:4f:e1:e6:
         33:e8:29:5d:92:59:2b:89:6b:33:09:1b:1d:0a:0b:22:3b:80:
         5a:db:75:12:74:bd:1b:b0:bd:72:ef:4f:90:b4:15:b1:03:90:
         0b:c7:4b:e5:1c:1a:9c:59:00:4e:7d:fb:bc:8d:9c:0e:98:e6:
         db:39:ac:3d:38:1d:e3:53:5d:63:6e:19:29:8e:f0:fc:81:38:
         0a:52:46:d9
-----BEGIN CERTIFICATE-----
MIIEqzCCA5OgAwIBAgIGCgsMDQ4oMA0GCSqGSIb3DQEBCwUAMIGDMRYwFAYDVQQD
FA1DQUxDVVRUQUNBX0NBMQswCQYDVQQGEwJJTjEPMA0GA1UEChMGQ0lUUklYMQww
CgYDVQQLEwNBTkcxCzAJBgNVBAgTAktBMTAwLgYJKoZIhvcNAQkBFiFDQUxDVVRU
QUNBX0NBQENBTENVVFRBQ0FfbWFpbC5jb20wHhcNMTYwNzA4MDQzMzEwWhcNMjYw
NzA2MDQzMzEwWjB2MQswCQYDVQQIEwJLQTELMAkGA1UEBhMCSU4xHjAcBgNVBAMU
FTEyNl9DQUxDVVRUQUNBX3NlcnZlcjEpMCcGCSqGSIb3DQEJARYaMTI2X0NBTENV
VFRBQ0FAdGVzdF9jYS5jb20xDzANBgNVBAoTBkNJVFJJWDCCASIwDQYJKoZIhvcN
AQEBBQADggEPADCCAQoCggEBALk1X1A4VFy7etvQHUDVQTy1yFyrq8su3/qpSYMW
w71WtNhp30h1WQrDw8NahhxxWPzFoDu8mJR0dfr3rlMcIOb2Taz17MVkbBd5RXJL
ZocZ7FUuunyure7S7rKNfZE4IhQM6EZ+NnCwI/uGDyvsAY0v0+YJ+NSLszOrpLfW
H7ecSU7ZoRtIHBW4gfafxWn6P4F6VnP+VZwSK7su5tffhlaV9JcbEVL1b0BDvpL6
qFPxJnZg0GbO7AAk4v/Gn8rltSdmGeoRWYW1wsS6XKmuxaHPNhGYPTcdZvLWCNQV
luChK3ufsKhWFAeN4xp6zA5S7UGaw3WlYr42qnmUZ2KOAiMCAwEAAaOCAS8wggEr
MBEGCWCGSAGG+EIBAQQEAwIGQDAdBgNVHQ4EFgQUU360M834KCypAi+7ldVNNVX0
n0AwgbgGA1UdIwSBsDCBrYAUNy57J0ZLz0cQrCsuutDzZnXrUnWhgYmkgYYwgYMx
FjAUBgNVBAMUDUNBTENVVFRBQ0FfQ0ExCzAJBgNVBAYTAklOMQ8wDQYDVQQKEwZD
SVRSSVgxDDAKBgNVBAsTA0FORzELMAkGA1UECBMCS0ExMDAuBgkqhkiG9w0BCQEW
IUNBTENVVFRBQ0FfQ0FAQ0FMQ1VUVEFDQV9tYWlsLmNvbYIJAKXGRw7mBjcYMDwG
CCsGAQUFBwEBBDAwLjAsBggrBgEFBQcwAYYgaHR0cDovLzE3Mi4xOC4xMC4xL3Jl
c3BvbmRlcnBhdGgwDQYJKoZIhvcNAQELBQADggEBAAXvu2Pm51junqoQLX217Hx7
6RZdyDnCKIhPT2Zx/ptyE5UCa25mmv56zyksXYER5T2ZACva8QUEnPuaCVGvXtsG
IgyKJoSH/sRnopvuV6TuzQKXD6BjTUliIUWX5mLB5ql70YwCtNfPqwxmGCMTP4+U
BdqxoDDh7gI+fKJCYKmTQtdG+63EWe0xtaiazecZSqB1ZVTYZaQ8v1T+wIXgTNzE
cOT2a0FI4zWFbhcO7/CljE/h5jPoKV2SWSuJazMJGx0KCyI7gFrbdRJ0vRuwvXLv
T5C0FbEDkAvHS+UcGpxZAE59+7yNnA6Y5ts5rD04HeNTXWNuGSmO8PyBOApSRtk=
-----END CERTIFICATE-----
