Certificate:
    Data:
        Version: 3 (0x2)
        Serial Number: 11042563100208 (0xa0b0c0d0e30)
    Signature Algorithm: sha256WithRSAEncryption
        Issuer: CN=CALCUTTACA_CA, C=IN, O=CITRIX, OU=ANG, ST=KA/emailAddress=CALCUTTACA_CA@CALCUTTACA_mail.com
        Validity
            Not Before: Jul  8 04:33:13 2016 GMT
            Not After : Jul  6 04:33:13 2026 GMT
        Subject: ST=KA, C=IN, CN=134_CALCUTTACA_server/emailAddress=134_CALCUTTACA@test_ca.com, O=CITRIX
        Subject Public Key Info:
            Public Key Algorithm: rsaEncryption
                Public-Key: (2048 bit)
                Modulus:
                    00:a4:ce:48:6e:ba:be:0b:86:84:07:28:30:fb:a4:
                    eb:5f:eb:28:b1:95:55:3f:67:3f:73:33:50:c1:38:
                    48:17:5e:36:0d:cf:fc:ba:69:85:3d:2c:52:21:e8:
                    6f:68:17:9d:26:d0:4a:7c:42:9e:79:78:60:2d:cd:
                    ef:31:81:85:08:e4:00:e6:ee:b8:71:9e:b2:72:f7:
                    30:35:6f:e6:eb:20:97:7c:26:5d:3a:93:72:5e:0b:
                    ed:0f:de:d3:d8:fa:62:1e:90:ab:b7:b3:37:aa:58:
                    54:61:87:30:a2:bd:de:65:4b:58:c5:a1:cf:a0:d4:
                    8d:ae:9b:f7:31:45:b5:f9:e5:21:84:7a:d4:20:b2:
                    39:e3:5c:c7:25:9e:db:d7:ef:02:68:33:ee:fa:57:
                    b1:c1:5b:87:cc:56:ed:6c:76:88:90:6c:27:fd:0b:
                    44:eb:a9:d9:04:05:ac:48:0a:b9:d0:67:e9:66:a6:
                    6a:da:eb:ee:70:f4:b6:2a:95:38:32:27:46:27:bf:
                    0e:b7:87:59:fd:a0:23:bd:5a:91:44:e8:36:c6:65:
                    c8:e7:f4:2e:45:73:fa:df:65:a8:65:ac:68:69:8e:
                    fc:a7:63:9d:a3:92:97:3b:a1:cf:21:f7:e2:40:97:
                    7b:2b:bf:b9:86:df:30:63:a3:85:e5:cb:d3:2c:38:
                    c7:bd
                Exponent: 65537 (0x10001)
        X509v3 extensions:
            Netscape Cert Type: 
                SSL Server
            X509v3 Subject Key Identifier: 
                21:05:63:D7:BD:73:AF:4E:3D:BB:66:51:F7:2F:38:CC:8E:3D:70:AB
            X509v3 Authority Key Identifier: 
                keyid:37:2E:7B:27:46:4B:CF:47:10:AC:2B:2E:BA:D0:F3:66:75:EB:52:75
                DirName:/CN=CALCUTTACA_CA/C=IN/O=CITRIX/OU=ANG/ST=KA/emailAddress=CALCUTTACA_CA@CALCUTTACA_mail.com
                serial:A5:C6:47:0E:E6:06:37:18

            Authority Information Access: 
                OCSP - URI:http://172.18.20.1/responderpath

    Signature Algorithm: sha256WithRSAEncryption
         17:8e:77:52:05:49:34:78:14:c5:64:32:65:02:91:8f:d8:d1:
         5e:69:6d:6c:40:b6:53:94:1d:ad:6a:2c:f9:ff:e1:8c:0d:1a:
         bc:20:14:52:e3:97:6a:cc:1b:5b:97:6a:3b:25:12:2e:75:1e:
         d8:1f:9e:8f:3c:75:32:58:a0:5a:6e:7c:79:74:fd:1f:ba:8e:
         15:6b:52:74:7d:62:20:0f:cf:de:e7:d5:58:f0:51:04:04:76:
         8a:0a:0f:b3:82:58:62:10:1d:53:a8:b1:3d:d5:3c:67:3e:b1:
         88:53:2c:09:04:d7:ea:9b:11:46:a0:dd:e0:8a:18:8d:8f:85:
         d3:02:11:f8:25:45:16:01:9f:4a:7b:cb:f7:ca:e9:da:c3:a4:
         e7:f2:3a:b3:6e:5f:61:87:33:00:85:f1:45:20:6f:25:12:fd:
         b8:52:d7:0d:f6:f6:bb:8c:f7:54:b7:4b:f6:f7:d6:1f:53:9e:
         8e:40:31:8b:c9:bf:be:56:93:28:3c:a9:91:6c:b8:00:78:19:
         ee:59:ff:2c:e5:86:2c:06:e2:48:df:74:3b:f2:f0:af:4f:36:
         4d:01:0b:7b:97:bd:33:19:37:46:aa:da:b8:93:95:c7:a7:7f:
         80:08:b5:41:31:59:2d:55:f7:14:92:e5:e2:2a:e3:cc:db:6e:
         d8:e6:f6:35
-----BEGIN CERTIFICATE-----
MIIEqzCCA5OgAwIBAgIGCgsMDQ4wMA0GCSqGSIb3DQEBCwUAMIGDMRYwFAYDVQQD
FA1DQUxDVVRUQUNBX0NBMQswCQYDVQQGEwJJTjEPMA0GA1UEChMGQ0lUUklYMQww
CgYDVQQLEwNBTkcxCzAJBgNVBAgTAktBMTAwLgYJKoZIhvcNAQkBFiFDQUxDVVRU
QUNBX0NBQENBTENVVFRBQ0FfbWFpbC5jb20wHhcNMTYwNzA4MDQzMzEzWhcNMjYw
NzA2MDQzMzEzWjB2MQswCQYDVQQIEwJLQTELMAkGA1UEBhMCSU4xHjAcBgNVBAMU
FTEzNF9DQUxDVVRUQUNBX3NlcnZlcjEpMCcGCSqGSIb3DQEJARYaMTM0X0NBTENV
VFRBQ0FAdGVzdF9jYS5jb20xDzANBgNVBAoTBkNJVFJJWDCCASIwDQYJKoZIhvcN
AQEBBQADggEPADCCAQoCggEBAKTOSG66vguGhAcoMPuk61/rKLGVVT9nP3MzUME4
SBdeNg3P/LpphT0sUiHob2gXnSbQSnxCnnl4YC3N7zGBhQjkAObuuHGesnL3MDVv
5usgl3wmXTqTcl4L7Q/e09j6Yh6Qq7ezN6pYVGGHMKK93mVLWMWhz6DUja6b9zFF
tfnlIYR61CCyOeNcxyWe29fvAmgz7vpXscFbh8xW7Wx2iJBsJ/0LROup2QQFrEgK
udBn6Wamatrr7nD0tiqVODInRie/DreHWf2gI71akUToNsZlyOf0LkVz+t9lqGWs
aGmO/KdjnaOSlzuhzyH34kCXeyu/uYbfMGOjheXL0yw4x70CAwEAAaOCAS8wggEr
MBEGCWCGSAGG+EIBAQQEAwIGQDAdBgNVHQ4EFgQUIQVj171zr049u2ZR9y84zI49
cKswgbgGA1UdIwSBsDCBrYAUNy57J0ZLz0cQrCsuutDzZnXrUnWhgYmkgYYwgYMx
FjAUBgNVBAMUDUNBTENVVFRBQ0FfQ0ExCzAJBgNVBAYTAklOMQ8wDQYDVQQKEwZD
SVRSSVgxDDAKBgNVBAsTA0FORzELMAkGA1UECBMCS0ExMDAuBgkqhkiG9w0BCQEW
IUNBTENVVFRBQ0FfQ0FAQ0FMQ1VUVEFDQV9tYWlsLmNvbYIJAKXGRw7mBjcYMDwG
CCsGAQUFBwEBBDAwLjAsBggrBgEFBQcwAYYgaHR0cDovLzE3Mi4xOC4yMC4xL3Jl
c3BvbmRlcnBhdGgwDQYJKoZIhvcNAQELBQADggEBABeOd1IFSTR4FMVkMmUCkY/Y
0V5pbWxAtlOUHa1qLPn/4YwNGrwgFFLjl2rMG1uXajslEi51Htgfno88dTJYoFpu
fHl0/R+6jhVrUnR9YiAPz97n1VjwUQQEdooKD7OCWGIQHVOosT3VPGc+sYhTLAkE
1+qbEUag3eCKGI2PhdMCEfglRRYBn0p7y/fK6drDpOfyOrNuX2GHMwCF8UUgbyUS
/bhS1w329ruM91S3S/b31h9Tno5AMYvJv75Wkyg8qZFsuAB4Ge5Z/yzlhiwG4kjf
dDvy8K9PNk0BC3uXvTMZN0aq2riTlcenf4AItUExWS1V9xSS5eIq48zbbtjm9jU=
-----END CERTIFICATE-----
