Certificate:
    Data:
        Version: 3 (0x2)
        Serial Number: 11042563100209 (0xa0b0c0d0e31)
    Signature Algorithm: sha256WithRSAEncryption
        Issuer: CN=CALCUTTACA_CA, C=IN, O=CITRIX, OU=ANG, ST=KA/emailAddress=CALCUTTACA_CA@CALCUTTACA_mail.com
        Validity
            Not Before: Jul  8 04:33:13 2016 GMT
            Not After : Jul  6 04:33:13 2026 GMT
        Subject: ST=KA, C=IN, CN=135_CALCUTTACA_server/emailAddress=135_CALCUTTACA@test_ca.com, O=CITRIX
        Subject Public Key Info:
            Public Key Algorithm: rsaEncryption
                Public-Key: (2048 bit)
                Modulus:
                    00:c1:84:be:72:f9:26:7f:a2:2b:1e:cf:09:08:26:
                    14:6a:00:f2:ea:a2:13:6d:ec:f4:0c:57:a1:d1:d5:
                    8c:1b:14:0e:fd:20:33:eb:58:52:dc:48:ee:5f:53:
                    8f:f8:7e:c2:f4:1f:33:70:42:98:b8:d8:15:03:4a:
                    88:76:45:37:2f:6f:83:0c:a5:a7:19:fd:14:ba:f6:
                    82:29:c8:56:4c:3f:b4:0f:f8:0b:b5:5c:48:1d:52:
                    3e:92:fa:c2:e6:48:44:6a:39:2d:ad:a4:ae:f2:04:
                    68:c2:e8:22:d2:26:5b:a6:43:d5:6e:25:1b:2f:a6:
                    48:75:9a:7e:34:72:4b:14:c2:d2:9f:50:6f:6f:cc:
                    0e:91:f7:0c:02:6e:fe:d6:a8:58:2d:98:5a:d0:03:
                    1e:ef:e5:6c:70:39:84:ed:d3:2c:2e:b8:12:e1:e6:
                    ca:1a:a6:e4:a4:aa:0a:54:1d:37:d3:72:7c:0e:c6:
                    b4:f8:d6:9e:bc:9c:8f:86:57:44:f2:c7:07:1c:d6:
                    b1:ed:57:11:ab:fa:a4:49:04:09:3f:a4:dc:1e:a6:
                    14:77:69:40:53:32:4b:e9:64:31:88:92:2d:c3:33:
                    a0:b4:6e:d1:99:dc:11:60:e0:bc:74:14:0c:ba:aa:
                    31:ef:47:eb:5a:77:80:c9:f7:2a:ed:fe:cd:93:ea:
                    03:77
                Exponent: 65537 (0x10001)
        X509v3 extensions:
            Netscape Cert Type: 
                SSL Server
            X509v3 Subject Key Identifier: 
                B7:32:98:AD:ED:EB:86:2F:9D:2D:08:E5:1B:55:89:88:9E:2A:6A:A6
            X509v3 Authority Key Identifier: 
                keyid:37:2E:7B:27:46:4B:CF:47:10:AC:2B:2E:BA:D0:F3:66:75:EB:52:75
                DirName:/CN=CALCUTTACA_CA/C=IN/O=CITRIX/OU=ANG/ST=KA/emailAddress=CALCUTTACA_CA@CALCUTTACA_mail.com
                serial:A5:C6:47:0E:E6:06:37:18

            Authority Information Access: 
                OCSP - URI:http://172.18.20.1/responderpath

    Signature Algorithm: sha256WithRSAEncryption
         a8:49:92:8b:bd:c2:c0:7e:56:2f:6e:41:53:d1:79:5a:0b:49:
         b6:a5:fd:82:73:a2:75:6d:96:39:40:b7:c6:e9:99:88:e4:3f:
         59:71:a3:cf:02:42:e0:9b:62:35:01:2d:df:46:53:73:48:35:
         6b:64:5e:b5:78:5a:79:91:2b:eb:4d:ba:39:af:7b:a4:a3:22:
         06:ac:a4:3e:45:92:d2:4c:49:cf:3d:0c:d9:e9:53:d1:d0:a9:
         75:f7:f8:bf:83:4a:11:3c:8f:12:63:b2:b6:4a:94:e6:28:dd:
         53:08:f9:77:f9:05:44:2b:67:f5:ab:33:16:b5:55:5a:4d:4f:
         95:15:35:c5:b0:a1:d5:8b:ec:28:01:46:83:ab:b9:6c:99:35:
         59:46:b0:6d:02:16:5f:be:60:f0:27:c0:78:60:81:ac:0a:a4:
         33:00:81:42:37:be:d6:30:0a:31:8b:29:ef:8d:ff:5f:85:fe:
         8d:4b:52:e9:80:d5:52:4d:a0:49:fe:20:ab:19:f9:5d:1e:ce:
         07:1d:e0:b2:7d:03:85:c9:6a:d8:2e:04:fb:f9:b9:ba:62:67:
         74:da:f2:01:36:74:bf:81:af:f7:7a:5f:03:6d:7d:cb:ff:95:
         95:22:e1:a0:4b:4d:09:1e:2b:25:21:50:0b:01:a8:1f:26:83:
         97:2b:07:8a
-----BEGIN CERTIFICATE-----
MIIEqzCCA5OgAwIBAgIGCgsMDQ4xMA0GCSqGSIb3DQEBCwUAMIGDMRYwFAYDVQQD
FA1DQUxDVVRUQUNBX0NBMQswCQYDVQQGEwJJTjEPMA0GA1UEChMGQ0lUUklYMQww
CgYDVQQLEwNBTkcxCzAJBgNVBAgTAktBMTAwLgYJKoZIhvcNAQkBFiFDQUxDVVRU
QUNBX0NBQENBTENVVFRBQ0FfbWFpbC5jb20wHhcNMTYwNzA4MDQzMzEzWhcNMjYw
NzA2MDQzMzEzWjB2MQswCQYDVQQIEwJLQTELMAkGA1UEBhMCSU4xHjAcBgNVBAMU
FTEzNV9DQUxDVVRUQUNBX3NlcnZlcjEpMCcGCSqGSIb3DQEJARYaMTM1X0NBTENV
VFRBQ0FAdGVzdF9jYS5jb20xDzANBgNVBAoTBkNJVFJJWDCCASIwDQYJKoZIhvcN
AQEBBQADggEPADCCAQoCggEBAMGEvnL5Jn+iKx7PCQgmFGoA8uqiE23s9AxXodHV
jBsUDv0gM+tYUtxI7l9Tj/h+wvQfM3BCmLjYFQNKiHZFNy9vgwylpxn9FLr2ginI
Vkw/tA/4C7VcSB1SPpL6wuZIRGo5La2krvIEaMLoItImW6ZD1W4lGy+mSHWafjRy
SxTC0p9Qb2/MDpH3DAJu/taoWC2YWtADHu/lbHA5hO3TLC64EuHmyhqm5KSqClQd
N9NyfA7GtPjWnrycj4ZXRPLHBxzWse1XEav6pEkECT+k3B6mFHdpQFMyS+lkMYiS
LcMzoLRu0ZncEWDgvHQUDLqqMe9H61p3gMn3Ku3+zZPqA3cCAwEAAaOCAS8wggEr
MBEGCWCGSAGG+EIBAQQEAwIGQDAdBgNVHQ4EFgQUtzKYre3rhi+dLQjlG1WJiJ4q
aqYwgbgGA1UdIwSBsDCBrYAUNy57J0ZLz0cQrCsuutDzZnXrUnWhgYmkgYYwgYMx
FjAUBgNVBAMUDUNBTENVVFRBQ0FfQ0ExCzAJBgNVBAYTAklOMQ8wDQYDVQQKEwZD
SVRSSVgxDDAKBgNVBAsTA0FORzELMAkGA1UECBMCS0ExMDAuBgkqhkiG9w0BCQEW
IUNBTENVVFRBQ0FfQ0FAQ0FMQ1VUVEFDQV9tYWlsLmNvbYIJAKXGRw7mBjcYMDwG
CCsGAQUFBwEBBDAwLjAsBggrBgEFBQcwAYYgaHR0cDovLzE3Mi4xOC4yMC4xL3Jl
c3BvbmRlcnBhdGgwDQYJKoZIhvcNAQELBQADggEBAKhJkou9wsB+Vi9uQVPReVoL
Sbal/YJzonVtljlAt8bpmYjkP1lxo88CQuCbYjUBLd9GU3NINWtkXrV4WnmRK+tN
ujmve6SjIgaspD5FktJMSc89DNnpU9HQqXX3+L+DShE8jxJjsrZKlOYo3VMI+Xf5
BUQrZ/WrMxa1VVpNT5UVNcWwodWL7CgBRoOruWyZNVlGsG0CFl++YPAnwHhggawK
pDMAgUI3vtYwCjGLKe+N/1+F/o1LUumA1VJNoEn+IKsZ+V0ezgcd4LJ9A4XJatgu
BPv5ubpiZ3Ta8gE2dL+Br/d6XwNtfcv/lZUi4aBLTQkeKyUhUAsBqB8mg5crB4o=
-----END CERTIFICATE-----
