Certificate:
    Data:
        Version: 3 (0x2)
        Serial Number: 11042563100212 (0xa0b0c0d0e34)
    Signature Algorithm: sha256WithRSAEncryption
        Issuer: CN=CALCUTTACA_CA, C=IN, O=CITRIX, OU=ANG, ST=KA/emailAddress=CALCUTTACA_CA@CALCUTTACA_mail.com
        Validity
            Not Before: Jul  8 04:33:14 2016 GMT
            Not After : Jul  6 04:33:14 2026 GMT
        Subject: ST=KA, C=IN, CN=138_CALCUTTACA_server/emailAddress=138_CALCUTTACA@test_ca.com, O=CITRIX
        Subject Public Key Info:
            Public Key Algorithm: rsaEncryption
                Public-Key: (2048 bit)
                Modulus:
                    00:f2:c0:4f:79:12:60:0b:8c:8c:8d:c9:ad:55:1f:
                    47:a3:37:89:2b:02:b4:6f:c6:b6:09:fd:c1:1a:d9:
                    b3:0c:f0:62:6d:1b:41:90:07:06:9b:a5:92:41:05:
                    13:dd:11:f6:8d:87:e3:ca:4a:c5:79:95:97:b0:63:
                    12:f3:f4:1a:dc:63:4c:16:b0:cf:bb:20:d0:e9:fa:
                    98:5c:88:db:77:7e:2a:ad:bf:8c:f1:07:1f:cc:bf:
                    c1:85:a8:c9:60:64:74:06:66:dc:3a:76:ac:f2:44:
                    7f:dd:fe:b0:8e:67:f4:b3:11:25:e1:fd:86:7b:9f:
                    69:0b:1f:b1:b0:06:f9:eb:41:44:eb:65:51:05:27:
                    ea:6d:0c:aa:1c:25:83:68:48:03:e1:bc:83:a9:0c:
                    fc:4e:60:6a:8e:7b:0c:df:a8:47:bc:ce:a8:33:4b:
                    26:f9:f6:0f:dc:c9:a8:bf:5d:12:1d:d0:32:4a:db:
                    8d:b3:fe:0d:d6:87:5c:ce:23:96:4a:a2:4c:fd:95:
                    07:91:0c:45:98:e3:7f:8b:09:5d:88:3e:be:50:f4:
                    49:7e:2c:be:e1:5b:3f:02:82:54:06:88:a8:6a:a2:
                    66:94:5e:b3:63:6a:c6:21:30:4f:34:22:f6:b8:b1:
                    e8:a6:54:85:ff:e6:59:cc:29:61:f9:1a:fe:de:0d:
                    47:e1
                Exponent: 65537 (0x10001)
        X509v3 extensions:
            Netscape Cert Type: 
                SSL Server
            X509v3 Subject Key Identifier: 
                E7:28:79:14:5F:C6:C0:2B:E8:27:D9:02:C4:5C:CF:61:96:5B:DE:9C
            X509v3 Authority Key Identifier: 
                keyid:37:2E:7B:27:46:4B:CF:47:10:AC:2B:2E:BA:D0:F3:66:75:EB:52:75
                DirName:/CN=CALCUTTACA_CA/C=IN/O=CITRIX/OU=ANG/ST=KA/emailAddress=CALCUTTACA_CA@CALCUTTACA_mail.com
                serial:A5:C6:47:0E:E6:06:37:18

            Authority Information Access: 
                OCSP - URI:http://172.18.20.1/responderpath

    Signature Algorithm: sha256WithRSAEncryption
         4f:61:d0:4c:e1:26:31:2d:6d:36:cf:1a:ce:f4:8a:44:e0:9b:
         d2:a4:15:c8:25:4e:98:1b:8d:90:63:64:9a:a2:fa:18:9d:dc:
         f9:bd:af:13:c3:e7:1e:87:f1:83:f6:06:cd:e4:e7:04:33:b0:
         70:36:16:4f:7d:41:20:aa:0c:26:9d:e3:08:1b:1e:74:97:c5:
         d8:e7:f0:cc:fb:53:ec:26:b3:cf:3a:bd:e7:66:6a:37:c8:c2:
         b7:58:41:41:db:8f:4d:7b:ff:15:43:8e:de:61:44:83:b6:df:
         f4:23:52:f4:d8:d0:83:7c:b5:b6:2d:25:0d:b9:d0:fd:43:f9:
         f9:1b:8f:75:89:32:69:18:f7:05:81:3d:71:29:2d:50:a2:4b:
         90:1c:e2:23:1e:c8:f6:19:1b:a6:7c:cf:32:28:3c:64:1b:78:
         4c:83:d6:22:1b:61:85:88:b0:f7:60:18:e8:cb:f1:ae:cf:d1:
         b0:c9:50:70:32:9a:de:7e:23:a8:3d:47:0c:75:77:36:63:5d:
         8e:3f:c2:5c:0f:b7:2e:87:ad:45:20:26:22:ff:25:90:70:2b:
         4b:b2:3c:9a:96:fb:72:83:42:55:e2:c5:18:b7:29:a0:d6:aa:
         1f:7d:aa:b5:6a:01:11:12:be:81:2b:10:70:4e:10:f4:28:6b:
         f0:4c:92:71
-----BEGIN CERTIFICATE-----
MIIEqzCCA5OgAwIBAgIGCgsMDQ40MA0GCSqGSIb3DQEBCwUAMIGDMRYwFAYDVQQD
FA1DQUxDVVRUQUNBX0NBMQswCQYDVQQGEwJJTjEPMA0GA1UEChMGQ0lUUklYMQww
CgYDVQQLEwNBTkcxCzAJBgNVBAgTAktBMTAwLgYJKoZIhvcNAQkBFiFDQUxDVVRU
QUNBX0NBQENBTENVVFRBQ0FfbWFpbC5jb20wHhcNMTYwNzA4MDQzMzE0WhcNMjYw
NzA2MDQzMzE0WjB2MQswCQYDVQQIEwJLQTELMAkGA1UEBhMCSU4xHjAcBgNVBAMU
FTEzOF9DQUxDVVRUQUNBX3NlcnZlcjEpMCcGCSqGSIb3DQEJARYaMTM4X0NBTENV
VFRBQ0FAdGVzdF9jYS5jb20xDzANBgNVBAoTBkNJVFJJWDCCASIwDQYJKoZIhvcN
AQEBBQADggEPADCCAQoCggEBAPLAT3kSYAuMjI3JrVUfR6M3iSsCtG/Gtgn9wRrZ
swzwYm0bQZAHBpulkkEFE90R9o2H48pKxXmVl7BjEvP0GtxjTBawz7sg0On6mFyI
23d+Kq2/jPEHH8y/wYWoyWBkdAZm3Dp2rPJEf93+sI5n9LMRJeH9hnufaQsfsbAG
+etBROtlUQUn6m0Mqhwlg2hIA+G8g6kM/E5gao57DN+oR7zOqDNLJvn2D9zJqL9d
Eh3QMkrbjbP+DdaHXM4jlkqiTP2VB5EMRZjjf4sJXYg+vlD0SX4svuFbPwKCVAaI
qGqiZpRes2NqxiEwTzQi9rix6KZUhf/mWcwpYfka/t4NR+ECAwEAAaOCAS8wggEr
MBEGCWCGSAGG+EIBAQQEAwIGQDAdBgNVHQ4EFgQU5yh5FF/GwCvoJ9kCxFzPYZZb
3pwwgbgGA1UdIwSBsDCBrYAUNy57J0ZLz0cQrCsuutDzZnXrUnWhgYmkgYYwgYMx
FjAUBgNVBAMUDUNBTENVVFRBQ0FfQ0ExCzAJBgNVBAYTAklOMQ8wDQYDVQQKEwZD
SVRSSVgxDDAKBgNVBAsTA0FORzELMAkGA1UECBMCS0ExMDAuBgkqhkiG9w0BCQEW
IUNBTENVVFRBQ0FfQ0FAQ0FMQ1VUVEFDQV9tYWlsLmNvbYIJAKXGRw7mBjcYMDwG
CCsGAQUFBwEBBDAwLjAsBggrBgEFBQcwAYYgaHR0cDovLzE3Mi4xOC4yMC4xL3Jl
c3BvbmRlcnBhdGgwDQYJKoZIhvcNAQELBQADggEBAE9h0EzhJjEtbTbPGs70ikTg
m9KkFcglTpgbjZBjZJqi+hid3Pm9rxPD5x6H8YP2Bs3k5wQzsHA2Fk99QSCqDCad
4wgbHnSXxdjn8Mz7U+wms886vedmajfIwrdYQUHbj017/xVDjt5hRIO23/QjUvTY
0IN8tbYtJQ250P1D+fkbj3WJMmkY9wWBPXEpLVCiS5Ac4iMeyPYZG6Z8zzIoPGQb
eEyD1iIbYYWIsPdgGOjL8a7P0bDJUHAymt5+I6g9Rwx1dzZjXY4/wlwPty6HrUUg
JiL/JZBwK0uyPJqW+3KDQlXixRi3KaDWqh99qrVqARESvoErEHBOEPQoa/BMknE=
-----END CERTIFICATE-----
