Certificate:
    Data:
        Version: 3 (0x2)
        Serial Number: 11042563100213 (0xa0b0c0d0e35)
    Signature Algorithm: sha256WithRSAEncryption
        Issuer: CN=CALCUTTACA_CA, C=IN, O=CITRIX, OU=ANG, ST=KA/emailAddress=CALCUTTACA_CA@CALCUTTACA_mail.com
        Validity
            Not Before: Jul  8 04:33:14 2016 GMT
            Not After : Jul  6 04:33:14 2026 GMT
        Subject: ST=KA, C=IN, CN=139_CALCUTTACA_server/emailAddress=139_CALCUTTACA@test_ca.com, O=CITRIX
        Subject Public Key Info:
            Public Key Algorithm: rsaEncryption
                Public-Key: (2048 bit)
                Modulus:
                    00:b7:4c:5f:8c:28:e0:5a:a4:5b:82:96:73:40:81:
                    22:ca:08:c1:39:a3:d0:e8:fd:a9:22:48:c8:a8:e9:
                    63:81:0c:58:4e:f7:c7:25:07:59:a7:c9:dd:c7:3f:
                    47:28:49:0d:36:67:d2:53:a0:f3:65:cb:64:c0:12:
                    85:8c:5c:a3:aa:89:d2:71:ac:ea:b5:01:46:ad:05:
                    cd:26:87:a9:47:a4:64:3f:5b:63:a6:9c:6a:91:6a:
                    7f:7f:b1:fd:0c:b6:51:b2:7b:ad:62:78:55:da:0a:
                    79:98:9a:5f:db:ae:63:bf:d8:ff:bb:bd:94:e1:28:
                    56:75:18:a0:75:f9:a3:f2:6f:6f:54:7a:91:74:a9:
                    f8:6e:1c:6d:b0:cb:9f:fc:80:4a:ec:cb:f6:81:4d:
                    da:72:69:8d:67:f8:a0:eb:03:16:b3:6a:04:37:07:
                    54:2a:77:af:4e:71:ee:57:c2:70:19:1b:22:95:43:
                    fd:41:91:0c:a5:cd:3e:13:fd:c3:0e:39:35:81:67:
                    d9:94:7b:62:62:32:f4:c4:ae:7c:3c:30:a9:13:b3:
                    91:4d:ad:b1:87:90:39:42:de:c9:87:16:5a:03:89:
                    c7:1d:9f:c3:34:1e:4a:76:f4:57:56:c7:ca:3f:4c:
                    ce:cf:e5:00:59:56:fc:31:a0:79:a9:7f:bb:e7:ff:
                    ae:b5
                Exponent: 65537 (0x10001)
        X509v3 extensions:
            Netscape Cert Type: 
                SSL Server
            X509v3 Subject Key Identifier: 
                8A:34:33:43:22:24:1B:FA:FD:C3:65:53:DC:82:01:56:20:39:15:1D
            X509v3 Authority Key Identifier: 
                keyid:37:2E:7B:27:46:4B:CF:47:10:AC:2B:2E:BA:D0:F3:66:75:EB:52:75
                DirName:/CN=CALCUTTACA_CA/C=IN/O=CITRIX/OU=ANG/ST=KA/emailAddress=CALCUTTACA_CA@CALCUTTACA_mail.com
                serial:A5:C6:47:0E:E6:06:37:18

            Authority Information Access: 
                OCSP - URI:http://172.18.20.1/responderpath

    Signature Algorithm: sha256WithRSAEncryption
         39:cb:25:98:54:c8:e9:0a:bc:8f:4d:f5:11:d2:f2:7f:4a:6f:
         21:44:62:f2:86:f8:2a:be:01:5e:47:25:a1:52:c9:fd:d1:ac:
         3a:ec:e5:1c:a1:13:c9:c3:a8:77:58:8b:0c:76:da:41:94:d1:
         ec:c1:82:39:b9:d5:52:aa:28:54:35:5a:b2:74:c2:3a:cc:9d:
         3b:85:63:c1:a1:7d:d8:8f:39:2d:fd:a5:2c:10:a7:0d:ac:da:
         ea:21:c6:6d:48:17:d7:15:b8:a8:c3:65:d6:68:6a:69:2d:77:
         71:e9:cd:00:ae:5d:c2:e8:4d:3c:6a:36:19:19:dc:c2:0f:21:
         92:9b:39:ed:b4:27:bd:39:08:09:85:a8:56:47:e7:87:00:5a:
         67:86:a3:cd:2d:e9:7f:d4:d9:1f:b5:ae:5a:bc:1b:ad:01:84:
         5a:7f:49:6e:3e:4d:d3:4c:83:29:42:40:a0:a7:39:8a:82:7a:
         cf:f0:a0:f9:1b:7c:ea:32:d3:85:5f:58:b2:08:cd:63:c3:e1:
         fb:18:85:0b:14:c6:a4:5b:3f:7e:ac:bc:0d:5c:dc:3c:79:97:
         19:75:28:06:6f:3d:28:85:2a:f2:0a:ca:46:b3:ab:35:e9:00:
         a9:f8:27:0e:89:99:fc:2b:3d:8e:36:69:ea:5f:c7:64:d9:4d:
         d1:b6:45:4d
-----BEGIN CERTIFICATE-----
MIIEqzCCA5OgAwIBAgIGCgsMDQ41MA0GCSqGSIb3DQEBCwUAMIGDMRYwFAYDVQQD
FA1DQUxDVVRUQUNBX0NBMQswCQYDVQQGEwJJTjEPMA0GA1UEChMGQ0lUUklYMQww
CgYDVQQLEwNBTkcxCzAJBgNVBAgTAktBMTAwLgYJKoZIhvcNAQkBFiFDQUxDVVRU
QUNBX0NBQENBTENVVFRBQ0FfbWFpbC5jb20wHhcNMTYwNzA4MDQzMzE0WhcNMjYw
NzA2MDQzMzE0WjB2MQswCQYDVQQIEwJLQTELMAkGA1UEBhMCSU4xHjAcBgNVBAMU
FTEzOV9DQUxDVVRUQUNBX3NlcnZlcjEpMCcGCSqGSIb3DQEJARYaMTM5X0NBTENV
VFRBQ0FAdGVzdF9jYS5jb20xDzANBgNVBAoTBkNJVFJJWDCCASIwDQYJKoZIhvcN
AQEBBQADggEPADCCAQoCggEBALdMX4wo4FqkW4KWc0CBIsoIwTmj0Oj9qSJIyKjp
Y4EMWE73xyUHWafJ3cc/RyhJDTZn0lOg82XLZMAShYxco6qJ0nGs6rUBRq0FzSaH
qUekZD9bY6acapFqf3+x/Qy2UbJ7rWJ4VdoKeZiaX9uuY7/Y/7u9lOEoVnUYoHX5
o/Jvb1R6kXSp+G4cbbDLn/yASuzL9oFN2nJpjWf4oOsDFrNqBDcHVCp3r05x7lfC
cBkbIpVD/UGRDKXNPhP9ww45NYFn2ZR7YmIy9MSufDwwqROzkU2tsYeQOULeyYcW
WgOJxx2fwzQeSnb0V1bHyj9Mzs/lAFlW/DGgeal/u+f/rrUCAwEAAaOCAS8wggEr
MBEGCWCGSAGG+EIBAQQEAwIGQDAdBgNVHQ4EFgQUijQzQyIkG/r9w2VT3IIBViA5
FR0wgbgGA1UdIwSBsDCBrYAUNy57J0ZLz0cQrCsuutDzZnXrUnWhgYmkgYYwgYMx
FjAUBgNVBAMUDUNBTENVVFRBQ0FfQ0ExCzAJBgNVBAYTAklOMQ8wDQYDVQQKEwZD
SVRSSVgxDDAKBgNVBAsTA0FORzELMAkGA1UECBMCS0ExMDAuBgkqhkiG9w0BCQEW
IUNBTENVVFRBQ0FfQ0FAQ0FMQ1VUVEFDQV9tYWlsLmNvbYIJAKXGRw7mBjcYMDwG
CCsGAQUFBwEBBDAwLjAsBggrBgEFBQcwAYYgaHR0cDovLzE3Mi4xOC4yMC4xL3Jl
c3BvbmRlcnBhdGgwDQYJKoZIhvcNAQELBQADggEBADnLJZhUyOkKvI9N9RHS8n9K
byFEYvKG+Cq+AV5HJaFSyf3RrDrs5RyhE8nDqHdYiwx22kGU0ezBgjm51VKqKFQ1
WrJ0wjrMnTuFY8GhfdiPOS39pSwQpw2s2uohxm1IF9cVuKjDZdZoamktd3HpzQCu
XcLoTTxqNhkZ3MIPIZKbOe20J705CAmFqFZH54cAWmeGo80t6X/U2R+1rlq8G60B
hFp/SW4+TdNMgylCQKCnOYqCes/woPkbfOoy04VfWLIIzWPD4fsYhQsUxqRbP36s
vA1c3Dx5lxl1KAZvPSiFKvIKykazqzXpAKn4Jw6JmfwrPY42aepfx2TZTdG2RU0=
-----END CERTIFICATE-----
