Certificate:
    Data:
        Version: 3 (0x2)
        Serial Number: 11042563100214 (0xa0b0c0d0e36)
    Signature Algorithm: sha256WithRSAEncryption
        Issuer: CN=CALCUTTACA_CA, C=IN, O=CITRIX, OU=ANG, ST=KA/emailAddress=CALCUTTACA_CA@CALCUTTACA_mail.com
        Validity
            Not Before: Jul  8 04:33:14 2016 GMT
            Not After : Jul  6 04:33:14 2026 GMT
        Subject: ST=KA, C=IN, CN=140_CALCUTTACA_server/emailAddress=140_CALCUTTACA@test_ca.com, O=CITRIX
        Subject Public Key Info:
            Public Key Algorithm: rsaEncryption
                Public-Key: (2048 bit)
                Modulus:
                    00:e3:89:62:65:8b:30:07:62:8c:56:e6:37:ef:4f:
                    58:12:1c:01:ea:19:dd:b8:0f:ce:8b:e7:37:d7:46:
                    40:b5:e1:a8:73:b1:65:b2:97:fa:a1:0f:06:85:1d:
                    fa:33:04:b5:63:4d:44:58:e2:c8:bd:6f:d5:59:12:
                    95:91:f7:57:7c:3e:2a:23:9c:31:85:eb:0f:bb:13:
                    22:06:47:57:a6:e9:4f:9b:b1:15:9f:cf:2b:c4:9d:
                    af:34:d6:7a:14:fd:07:5e:b8:88:4c:28:a7:b0:ac:
                    a9:37:65:ce:25:48:c8:d6:af:24:98:a9:a4:cd:14:
                    62:51:eb:93:3d:34:1b:51:0c:97:a9:30:a7:dd:f5:
                    40:f6:70:c5:ff:95:22:21:b4:44:2f:c4:69:3e:31:
                    59:7f:b5:4b:9c:3f:6c:ca:55:e2:b4:5c:3e:3b:47:
                    17:8a:65:d9:87:45:92:48:6a:29:d6:08:05:54:c7:
                    32:db:37:25:a2:f2:7a:5f:38:b5:70:fc:d5:98:a0:
                    ab:98:85:57:2e:d3:b6:a1:1c:75:8e:a6:9f:78:ba:
                    f6:b3:df:43:5b:2e:25:00:8d:d1:51:9c:5d:3f:5c:
                    35:3f:e6:b7:e9:65:75:37:6d:b9:40:f7:3d:08:4a:
                    41:14:18:97:72:a1:cd:d3:ff:48:2e:90:5a:71:6c:
                    58:8f
                Exponent: 65537 (0x10001)
        X509v3 extensions:
            Netscape Cert Type: 
                SSL Server
            X509v3 Subject Key Identifier: 
                32:8C:EC:96:FC:59:64:02:9A:81:28:CA:15:A4:CC:80:BB:38:55:F4
            X509v3 Authority Key Identifier: 
                keyid:37:2E:7B:27:46:4B:CF:47:10:AC:2B:2E:BA:D0:F3:66:75:EB:52:75
                DirName:/CN=CALCUTTACA_CA/C=IN/O=CITRIX/OU=ANG/ST=KA/emailAddress=CALCUTTACA_CA@CALCUTTACA_mail.com
                serial:A5:C6:47:0E:E6:06:37:18

            Authority Information Access: 
                OCSP - URI:http://172.18.20.1/responderpath

    Signature Algorithm: sha256WithRSAEncryption
         24:38:ed:53:50:df:17:25:15:d6:c2:13:49:d0:17:b9:d6:9e:
         d2:7c:aa:7f:9f:66:32:a7:cf:29:8b:bf:1f:9e:2c:9f:7c:dd:
         45:8a:35:f0:52:a8:85:41:c6:3f:f9:ff:ce:3c:44:f9:61:61:
         bc:7e:f9:de:db:d6:f0:b6:6c:70:c4:2e:e1:77:37:95:44:b9:
         ef:d4:8c:27:8a:bb:b3:ba:68:07:37:34:da:a0:4d:d9:ef:39:
         4a:35:ae:0a:c1:e3:44:95:ed:51:b8:fa:5b:67:ff:34:41:9a:
         38:20:f8:83:15:50:9b:26:d3:37:c9:37:c2:f9:43:ef:92:6b:
         cc:fb:f1:29:34:31:37:5a:51:2d:ef:85:a2:e1:75:a6:6b:04:
         85:84:bb:4f:b6:1c:95:88:71:e6:a8:a9:1e:f7:8a:08:a4:e4:
         1a:69:05:12:97:58:a8:90:bd:c2:02:17:6a:ed:e7:e9:96:3c:
         2e:ce:ce:ef:d1:b9:28:97:f0:98:71:c6:e7:e4:56:81:42:06:
         76:bc:71:7c:74:18:6f:5a:df:85:34:9c:50:81:75:f5:81:24:
         e2:f7:93:2f:ec:a3:36:f4:cb:a8:99:fc:61:af:61:2f:e2:5e:
         9f:ae:40:37:7b:40:5c:3f:71:e8:a5:7a:7a:d1:ba:43:06:02:
         32:7c:a7:f6
-----BEGIN CERTIFICATE-----
MIIEqzCCA5OgAwIBAgIGCgsMDQ42MA0GCSqGSIb3DQEBCwUAMIGDMRYwFAYDVQQD
FA1DQUxDVVRUQUNBX0NBMQswCQYDVQQGEwJJTjEPMA0GA1UEChMGQ0lUUklYMQww
CgYDVQQLEwNBTkcxCzAJBgNVBAgTAktBMTAwLgYJKoZIhvcNAQkBFiFDQUxDVVRU
QUNBX0NBQENBTENVVFRBQ0FfbWFpbC5jb20wHhcNMTYwNzA4MDQzMzE0WhcNMjYw
NzA2MDQzMzE0WjB2MQswCQYDVQQIEwJLQTELMAkGA1UEBhMCSU4xHjAcBgNVBAMU
FTE0MF9DQUxDVVRUQUNBX3NlcnZlcjEpMCcGCSqGSIb3DQEJARYaMTQwX0NBTENV
VFRBQ0FAdGVzdF9jYS5jb20xDzANBgNVBAoTBkNJVFJJWDCCASIwDQYJKoZIhvcN
AQEBBQADggEPADCCAQoCggEBAOOJYmWLMAdijFbmN+9PWBIcAeoZ3bgPzovnN9dG
QLXhqHOxZbKX+qEPBoUd+jMEtWNNRFjiyL1v1VkSlZH3V3w+KiOcMYXrD7sTIgZH
V6bpT5uxFZ/PK8SdrzTWehT9B164iEwop7CsqTdlziVIyNavJJippM0UYlHrkz00
G1EMl6kwp931QPZwxf+VIiG0RC/EaT4xWX+1S5w/bMpV4rRcPjtHF4pl2YdFkkhq
KdYIBVTHMts3JaLyel84tXD81Zigq5iFVy7TtqEcdY6mn3i69rPfQ1suJQCN0VGc
XT9cNT/mt+lldTdtuUD3PQhKQRQYl3KhzdP/SC6QWnFsWI8CAwEAAaOCAS8wggEr
MBEGCWCGSAGG+EIBAQQEAwIGQDAdBgNVHQ4EFgQUMozslvxZZAKagSjKFaTMgLs4
VfQwgbgGA1UdIwSBsDCBrYAUNy57J0ZLz0cQrCsuutDzZnXrUnWhgYmkgYYwgYMx
FjAUBgNVBAMUDUNBTENVVFRBQ0FfQ0ExCzAJBgNVBAYTAklOMQ8wDQYDVQQKEwZD
SVRSSVgxDDAKBgNVBAsTA0FORzELMAkGA1UECBMCS0ExMDAuBgkqhkiG9w0BCQEW
IUNBTENVVFRBQ0FfQ0FAQ0FMQ1VUVEFDQV9tYWlsLmNvbYIJAKXGRw7mBjcYMDwG
CCsGAQUFBwEBBDAwLjAsBggrBgEFBQcwAYYgaHR0cDovLzE3Mi4xOC4yMC4xL3Jl
c3BvbmRlcnBhdGgwDQYJKoZIhvcNAQELBQADggEBACQ47VNQ3xclFdbCE0nQF7nW
ntJ8qn+fZjKnzymLvx+eLJ983UWKNfBSqIVBxj/5/848RPlhYbx++d7b1vC2bHDE
LuF3N5VEue/UjCeKu7O6aAc3NNqgTdnvOUo1rgrB40SV7VG4+ltn/zRBmjgg+IMV
UJsm0zfJN8L5Q++Sa8z78Sk0MTdaUS3vhaLhdaZrBIWEu0+2HJWIceaoqR73igik
5BppBRKXWKiQvcICF2rt5+mWPC7Ozu/RuSiX8JhxxufkVoFCBna8cXx0GG9a34U0
nFCBdfWBJOL3ky/sozb0y6iZ/GGvYS/iXp+uQDd7QFw/ceilenrRukMGAjJ8p/Y=
-----END CERTIFICATE-----
