Certificate:
    Data:
        Version: 3 (0x2)
        Serial Number: 11042563100227 (0xa0b0c0d0e43)
    Signature Algorithm: sha256WithRSAEncryption
        Issuer: CN=CALCUTTACA_CA, C=IN, O=CITRIX, OU=ANG, ST=KA/emailAddress=CALCUTTACA_CA@CALCUTTACA_mail.com
        Validity
            Not Before: Aug 23 10:15:51 2017 GMT
            Not After : Aug 21 10:15:51 2027 GMT
        Subject: ST=KA, C=IN, CN=calcutta_13_client/emailAddress=calcutta_13@test_ca.com, O=CITRIX
        Subject Public Key Info:
            Public Key Algorithm: rsaEncryption
                Public-Key: (2048 bit)
                Modulus:
                    00:c8:c9:78:7e:d9:65:20:a4:d5:e6:97:c9:74:9b:
                    52:cd:db:49:0c:69:3b:ca:54:42:9f:43:36:a9:7d:
                    c5:d8:64:c4:d8:01:48:d3:7c:d3:4b:7f:f0:73:d3:
                    9b:89:6a:14:c8:ce:a8:b0:2f:a7:78:32:21:c4:4d:
                    6e:61:d9:fc:77:23:79:a6:09:32:38:42:c1:c1:d0:
                    5d:ce:e1:04:b7:63:59:07:8b:0e:95:ad:a9:ea:1a:
                    01:a2:16:a7:23:3e:57:51:e1:44:29:81:dc:b0:17:
                    94:96:17:51:8c:9c:ae:76:89:59:98:a0:7b:f1:ff:
                    cc:ab:29:85:56:95:dd:50:ba:4e:60:30:9d:e0:e7:
                    14:72:1d:1e:df:31:90:eb:af:56:97:ba:2c:af:84:
                    b1:ab:b1:04:68:f1:98:c9:07:15:36:01:00:d9:71:
                    df:de:83:c5:83:c1:8b:d5:76:aa:0f:1b:72:50:09:
                    1f:21:5e:8b:7d:a9:d5:21:5f:57:fa:b3:a0:22:5c:
                    0d:16:3d:13:5f:11:0e:11:92:3e:1a:e1:6e:b9:2a:
                    38:cd:bd:82:cc:6c:be:5c:70:c4:21:f9:da:fc:53:
                    e1:7d:18:da:71:26:00:eb:4c:f7:8f:b6:3b:77:59:
                    61:cd:87:6f:c3:dd:d3:1c:28:94:38:d7:6d:e3:50:
                    07:93
                Exponent: 65537 (0x10001)
        X509v3 extensions:
            Netscape Cert Type: 
                SSL Client
            X509v3 Subject Key Identifier: 
                12:0D:75:F9:7E:12:22:E0:5F:C1:B8:6D:25:07:C5:9C:88:F5:07:FA
            X509v3 Authority Key Identifier: 
                keyid:37:2E:7B:27:46:4B:CF:47:10:AC:2B:2E:BA:D0:F3:66:75:EB:52:75
                DirName:/CN=CALCUTTACA_CA/C=IN/O=CITRIX/OU=ANG/ST=KA/emailAddress=CALCUTTACA_CA@CALCUTTACA_mail.com
                serial:A5:C6:47:0E:E6:06:37:18

            Authority Information Access: 
                OCSP - URI:http://172.18.20.1/responderpath

    Signature Algorithm: sha256WithRSAEncryption
         66:26:30:3d:45:27:46:42:6a:d9:6d:b0:e7:d3:d5:2d:db:ee:
         07:6e:41:03:a6:45:f1:f1:26:25:23:12:d0:71:73:73:ec:f1:
         10:0b:d3:85:09:41:7f:6e:08:67:05:00:fb:8d:a9:cf:64:80:
         74:dd:4c:b7:26:b3:9a:af:ac:0d:c3:ba:6e:da:59:dd:5b:9e:
         10:2a:58:e9:73:fd:d9:82:a0:b8:3c:8c:f7:db:1d:de:65:c6:
         8b:1f:21:5d:57:2e:80:fe:ea:71:10:05:ef:f7:03:65:f0:30:
         20:f4:30:ff:3f:a2:b8:3e:be:ca:69:2f:9b:41:a2:05:b1:be:
         c6:66:f8:7a:ee:20:6c:10:cb:e8:48:f0:a3:37:a5:b5:ee:56:
         dd:22:6e:23:72:f9:76:7c:1c:c6:ae:13:b5:5c:4b:4c:95:d4:
         d4:97:43:58:5c:1c:d2:23:a6:dc:ff:50:18:ec:bd:2a:a2:da:
         f7:39:88:21:28:a7:6a:c9:92:2c:78:62:14:4b:9c:90:c2:5e:
         8a:63:0f:23:f6:ff:98:57:a4:7a:46:b0:ed:82:6b:73:a8:15:
         e3:dc:21:db:08:26:73:a6:eb:95:6b:eb:ab:af:e0:76:00:df:
         7f:c5:31:f5:7b:05:10:ff:6d:6a:65:ca:ea:da:a0:67:59:38:
         25:2c:c8:22
-----BEGIN CERTIFICATE-----
MIIEpTCCA42gAwIBAgIGCgsMDQ5DMA0GCSqGSIb3DQEBCwUAMIGDMRYwFAYDVQQD
FA1DQUxDVVRUQUNBX0NBMQswCQYDVQQGEwJJTjEPMA0GA1UEChMGQ0lUUklYMQww
CgYDVQQLEwNBTkcxCzAJBgNVBAgTAktBMTAwLgYJKoZIhvcNAQkBFiFDQUxDVVRU
QUNBX0NBQENBTENVVFRBQ0FfbWFpbC5jb20wHhcNMTcwODIzMTAxNTUxWhcNMjcw
ODIxMTAxNTUxWjBwMQswCQYDVQQIEwJLQTELMAkGA1UEBhMCSU4xGzAZBgNVBAMU
EmNhbGN1dHRhXzEzX2NsaWVudDEmMCQGCSqGSIb3DQEJARYXY2FsY3V0dGFfMTNA
dGVzdF9jYS5jb20xDzANBgNVBAoTBkNJVFJJWDCCASIwDQYJKoZIhvcNAQEBBQAD
ggEPADCCAQoCggEBAMjJeH7ZZSCk1eaXyXSbUs3bSQxpO8pUQp9DNql9xdhkxNgB
SNN800t/8HPTm4lqFMjOqLAvp3gyIcRNbmHZ/HcjeaYJMjhCwcHQXc7hBLdjWQeL
DpWtqeoaAaIWpyM+V1HhRCmB3LAXlJYXUYycrnaJWZige/H/zKsphVaV3VC6TmAw
neDnFHIdHt8xkOuvVpe6LK+EsauxBGjxmMkHFTYBANlx396DxYPBi9V2qg8bclAJ
HyFei32p1SFfV/qzoCJcDRY9E18RDhGSPhrhbrkqOM29gsxsvlxwxCH52vxT4X0Y
2nEmAOtM94+2O3dZYc2Hb8Pd0xwolDjXbeNQB5MCAwEAAaOCAS8wggErMBEGCWCG
SAGG+EIBAQQEAwIHgDAdBgNVHQ4EFgQUEg11+X4SIuBfwbhtJQfFnIj1B/owgbgG
A1UdIwSBsDCBrYAUNy57J0ZLz0cQrCsuutDzZnXrUnWhgYmkgYYwgYMxFjAUBgNV
BAMUDUNBTENVVFRBQ0FfQ0ExCzAJBgNVBAYTAklOMQ8wDQYDVQQKEwZDSVRSSVgx
DDAKBgNVBAsTA0FORzELMAkGA1UECBMCS0ExMDAuBgkqhkiG9w0BCQEWIUNBTENV
VFRBQ0FfQ0FAQ0FMQ1VUVEFDQV9tYWlsLmNvbYIJAKXGRw7mBjcYMDwGCCsGAQUF
BwEBBDAwLjAsBggrBgEFBQcwAYYgaHR0cDovLzE3Mi4xOC4yMC4xL3Jlc3BvbmRl
cnBhdGgwDQYJKoZIhvcNAQELBQADggEBAGYmMD1FJ0ZCatltsOfT1S3b7gduQQOm
RfHxJiUjEtBxc3Ps8RAL04UJQX9uCGcFAPuNqc9kgHTdTLcms5qvrA3Dum7aWd1b
nhAqWOlz/dmCoLg8jPfbHd5lxosfIV1XLoD+6nEQBe/3A2XwMCD0MP8/org+vspp
L5tBogWxvsZm+HruIGwQy+hI8KM3pbXuVt0ibiNy+XZ8HMauE7VcS0yV1NSXQ1hc
HNIjptz/UBjsvSqi2vc5iCEop2rJkix4YhRLnJDCXopjDyP2/5hXpHpGsO2Ca3Oo
FePcIdsIJnOm65Vr66uv4HYA33/FMfV7BRD/bWplyuraoGdZOCUsyCI=
-----END CERTIFICATE-----
