Certificate:
    Data:
        Version: 3 (0x2)
        Serial Number: 11042563100241 (0xa0b0c0d0e51)
    Signature Algorithm: sha256WithRSAEncryption
        Issuer: CN=CALCUTTACA_CA, C=IN, O=CITRIX, OU=ANG, ST=KA/emailAddress=CALCUTTACA_CA@CALCUTTACA_mail.com
        Validity
            Not Before: Aug 23 10:16:00 2017 GMT
            Not After : Aug 21 10:16:00 2027 GMT
        Subject: ST=KA, C=IN, CN=calcutta_27_client/emailAddress=calcutta_27@test_ca.com, O=CITRIX
        Subject Public Key Info:
            Public Key Algorithm: rsaEncryption
                Public-Key: (2048 bit)
                Modulus:
                    00:c0:0e:6b:7c:bb:ad:cd:29:e9:5e:9e:20:f1:ee:
                    7e:53:a4:71:7d:48:b5:a5:af:8c:a1:39:ed:b8:df:
                    58:b1:4a:ab:16:b7:1b:e4:8f:14:c5:f1:66:23:d6:
                    a0:5e:7e:ee:dd:f9:0e:2e:cc:8c:a9:10:be:f5:d5:
                    4d:02:d1:ab:33:c0:64:68:f9:ab:a1:9c:31:66:29:
                    0a:b8:da:05:2a:97:5f:db:d4:51:84:18:9c:93:ff:
                    25:61:70:d4:f1:49:b8:fe:dc:33:5b:cd:ed:5f:b6:
                    5e:5a:f9:4c:99:c5:c3:7a:e8:8d:f7:28:cc:c6:b1:
                    9f:3f:fb:f0:0f:f9:ab:38:64:9a:27:51:5c:e4:cf:
                    54:df:c8:6f:d0:23:7b:ad:c5:84:10:d5:e9:b4:29:
                    66:8a:85:c6:ce:6f:f5:a2:e7:c6:b0:85:8e:3b:c0:
                    df:32:2b:01:d9:46:7d:82:8c:02:cd:35:56:9e:fa:
                    33:43:15:79:ba:84:6c:4d:86:15:17:4b:73:8c:88:
                    d3:f4:93:c0:4f:38:f2:cc:e9:e2:e3:1e:89:95:e0:
                    68:dc:f1:09:39:cd:09:a4:37:d8:4a:18:b7:84:c0:
                    ec:a8:7f:c8:b0:2c:b7:33:51:1a:40:c0:f1:86:9a:
                    06:f3:fa:f3:48:7c:ee:84:cb:3b:14:a3:c0:d0:41:
                    d8:2d
                Exponent: 65537 (0x10001)
        X509v3 extensions:
            Netscape Cert Type: 
                SSL Client
            X509v3 Subject Key Identifier: 
                13:2C:8A:A0:C7:F6:00:DD:14:D5:92:B8:0D:B3:E5:A8:EC:BC:A1:E9
            X509v3 Authority Key Identifier: 
                keyid:37:2E:7B:27:46:4B:CF:47:10:AC:2B:2E:BA:D0:F3:66:75:EB:52:75
                DirName:/CN=CALCUTTACA_CA/C=IN/O=CITRIX/OU=ANG/ST=KA/emailAddress=CALCUTTACA_CA@CALCUTTACA_mail.com
                serial:A5:C6:47:0E:E6:06:37:18

            Authority Information Access: 
                OCSP - URI:http://172.18.20.1/responderpath

    Signature Algorithm: sha256WithRSAEncryption
         e2:cb:21:b7:f1:61:c2:ce:0f:5b:9c:37:ed:93:5c:25:b4:dd:
         67:f0:b8:75:0b:c0:af:eb:3e:c1:65:12:bb:21:60:fd:7c:2e:
         c6:c9:ec:da:fb:37:db:99:de:cb:f3:7c:a7:b6:58:ac:ea:a1:
         99:91:6f:9f:a2:fa:46:c6:9a:64:1f:e2:b5:06:c1:34:08:da:
         24:8b:e0:00:6c:e9:36:2c:b5:bd:dc:c3:48:dc:9b:f1:e7:b8:
         ed:e3:50:7d:15:22:8d:6e:e7:18:75:3f:1a:d6:8d:66:55:e1:
         e9:51:a7:4d:19:03:82:a6:50:1e:92:f4:0d:f0:7f:1c:ad:d3:
         bb:6f:0d:ef:42:17:6f:a0:60:e1:ee:b6:8d:d0:63:3c:22:1a:
         c4:61:2d:7a:bb:03:97:27:92:ec:79:16:c4:8c:f1:4e:2b:c3:
         9f:ae:54:4d:ea:3f:1b:d5:34:d7:d8:fd:4b:d4:46:bb:b2:13:
         93:b1:d7:7e:6f:ed:85:17:f5:70:dd:65:72:c5:21:62:76:88:
         ac:f6:8d:42:ef:54:17:e8:c0:2b:87:4c:6b:b1:fa:bd:b5:4e:
         3e:c8:36:47:94:0b:a0:7f:c6:c5:b4:4f:eb:30:64:b0:ca:b2:
         62:09:0d:a9:2a:33:ec:98:60:d3:e5:0a:42:75:ba:a9:a8:f4:
         b8:fa:7c:df
-----BEGIN CERTIFICATE-----
MIIEpTCCA42gAwIBAgIGCgsMDQ5RMA0GCSqGSIb3DQEBCwUAMIGDMRYwFAYDVQQD
FA1DQUxDVVRUQUNBX0NBMQswCQYDVQQGEwJJTjEPMA0GA1UEChMGQ0lUUklYMQww
CgYDVQQLEwNBTkcxCzAJBgNVBAgTAktBMTAwLgYJKoZIhvcNAQkBFiFDQUxDVVRU
QUNBX0NBQENBTENVVFRBQ0FfbWFpbC5jb20wHhcNMTcwODIzMTAxNjAwWhcNMjcw
ODIxMTAxNjAwWjBwMQswCQYDVQQIEwJLQTELMAkGA1UEBhMCSU4xGzAZBgNVBAMU
EmNhbGN1dHRhXzI3X2NsaWVudDEmMCQGCSqGSIb3DQEJARYXY2FsY3V0dGFfMjdA
dGVzdF9jYS5jb20xDzANBgNVBAoTBkNJVFJJWDCCASIwDQYJKoZIhvcNAQEBBQAD
ggEPADCCAQoCggEBAMAOa3y7rc0p6V6eIPHuflOkcX1ItaWvjKE57bjfWLFKqxa3
G+SPFMXxZiPWoF5+7t35Di7MjKkQvvXVTQLRqzPAZGj5q6GcMWYpCrjaBSqXX9vU
UYQYnJP/JWFw1PFJuP7cM1vN7V+2Xlr5TJnFw3rojfcozMaxnz/78A/5qzhkmidR
XOTPVN/Ib9Aje63FhBDV6bQpZoqFxs5v9aLnxrCFjjvA3zIrAdlGfYKMAs01Vp76
M0MVebqEbE2GFRdLc4yI0/STwE848szp4uMeiZXgaNzxCTnNCaQ32EoYt4TA7Kh/
yLAstzNRGkDA8YaaBvP680h87oTLOxSjwNBB2C0CAwEAAaOCAS8wggErMBEGCWCG
SAGG+EIBAQQEAwIHgDAdBgNVHQ4EFgQUEyyKoMf2AN0U1ZK4DbPlqOy8oekwgbgG
A1UdIwSBsDCBrYAUNy57J0ZLz0cQrCsuutDzZnXrUnWhgYmkgYYwgYMxFjAUBgNV
BAMUDUNBTENVVFRBQ0FfQ0ExCzAJBgNVBAYTAklOMQ8wDQYDVQQKEwZDSVRSSVgx
DDAKBgNVBAsTA0FORzELMAkGA1UECBMCS0ExMDAuBgkqhkiG9w0BCQEWIUNBTENV
VFRBQ0FfQ0FAQ0FMQ1VUVEFDQV9tYWlsLmNvbYIJAKXGRw7mBjcYMDwGCCsGAQUF
BwEBBDAwLjAsBggrBgEFBQcwAYYgaHR0cDovLzE3Mi4xOC4yMC4xL3Jlc3BvbmRl
cnBhdGgwDQYJKoZIhvcNAQELBQADggEBAOLLIbfxYcLOD1ucN+2TXCW03WfwuHUL
wK/rPsFlErshYP18LsbJ7Nr7N9uZ3svzfKe2WKzqoZmRb5+i+kbGmmQf4rUGwTQI
2iSL4ABs6TYstb3cw0jcm/HnuO3jUH0VIo1u5xh1PxrWjWZV4elRp00ZA4KmUB6S
9A3wfxyt07tvDe9CF2+gYOHuto3QYzwiGsRhLXq7A5cnkux5FsSM8U4rw5+uVE3q
PxvVNNfY/UvURruyE5Ox135v7YUX9XDdZXLFIWJ2iKz2jULvVBfowCuHTGux+r21
Tj7INkeUC6B/xsW0T+swZLDKsmIJDakqM+yYYNPlCkJ1uqmo9Lj6fN8=
-----END CERTIFICATE-----
