Certificate:
    Data:
        Version: 3 (0x2)
        Serial Number: 11042563100245 (0xa0b0c0d0e55)
    Signature Algorithm: sha256WithRSAEncryption
        Issuer: CN=CALCUTTACA_CA, C=IN, O=CITRIX, OU=ANG, ST=KA/emailAddress=CALCUTTACA_CA@CALCUTTACA_mail.com
        Validity
            Not Before: Aug 23 10:16:02 2017 GMT
            Not After : Aug 21 10:16:02 2027 GMT
        Subject: ST=KA, C=IN, CN=calcutta_31_client/emailAddress=calcutta_31@test_ca.com, O=CITRIX
        Subject Public Key Info:
            Public Key Algorithm: rsaEncryption
                Public-Key: (2048 bit)
                Modulus:
                    00:c0:53:2d:2c:97:f8:21:88:aa:47:d1:cb:f3:8c:
                    97:72:c7:81:1d:dc:05:56:3b:76:7c:bd:cf:b8:50:
                    9f:8d:e5:46:e2:4a:7d:dc:76:1a:fc:01:ca:05:2b:
                    25:51:a0:3c:cd:8f:61:1d:51:de:62:4d:44:c9:4c:
                    ec:58:b9:06:14:9b:14:17:c6:03:e8:6d:66:9c:b3:
                    af:c1:d2:d7:a0:a3:af:17:1e:a3:a9:ae:aa:fe:50:
                    77:d6:17:e3:ee:d0:f2:14:ed:b2:8a:18:82:d2:73:
                    74:83:08:d7:88:83:a1:f0:e2:36:d8:a2:4a:eb:c7:
                    ac:97:8b:e7:d8:a8:cc:c7:cd:c2:af:00:ea:44:52:
                    9e:a7:d7:c2:3a:87:4b:30:a2:73:49:5b:30:60:18:
                    ac:31:df:9d:3b:ae:26:e0:93:8f:45:72:3c:3d:bd:
                    be:e8:1c:6e:c6:87:92:30:d1:2d:db:c1:36:b3:71:
                    57:cf:7a:8f:cc:d1:44:bf:ed:3f:a9:d6:17:d4:a0:
                    4d:26:42:10:ae:1b:a5:af:f1:ba:82:04:8f:c0:89:
                    9e:6a:a6:53:ed:c9:f7:73:a7:1c:fc:f9:68:7f:1c:
                    b6:06:56:27:4a:1c:70:3a:23:0c:3d:b5:1c:f4:d5:
                    41:0f:79:4c:c8:e5:a1:df:b4:81:82:30:fe:d5:eb:
                    f6:65
                Exponent: 65537 (0x10001)
        X509v3 extensions:
            Netscape Cert Type: 
                SSL Client
            X509v3 Subject Key Identifier: 
                4D:96:AA:BA:05:E2:52:8C:31:15:E0:0B:C0:21:E8:DB:FA:82:C9:7F
            X509v3 Authority Key Identifier: 
                keyid:37:2E:7B:27:46:4B:CF:47:10:AC:2B:2E:BA:D0:F3:66:75:EB:52:75
                DirName:/CN=CALCUTTACA_CA/C=IN/O=CITRIX/OU=ANG/ST=KA/emailAddress=CALCUTTACA_CA@CALCUTTACA_mail.com
                serial:A5:C6:47:0E:E6:06:37:18

            Authority Information Access: 
                OCSP - URI:http://172.18.20.1/responderpath

    Signature Algorithm: sha256WithRSAEncryption
         85:df:95:38:69:b2:a4:de:6c:5d:d5:b1:1f:f8:06:4d:24:d8:
         08:d6:9a:dd:4e:63:bf:ad:6c:e1:8b:ce:f2:fc:98:16:97:21:
         cb:21:4b:77:81:95:b7:d3:31:31:61:62:78:1f:71:f5:78:ac:
         d2:3f:a8:0d:f7:e4:c2:2c:3f:91:fa:fd:5d:2b:0a:7a:83:16:
         d0:c7:9f:e0:f1:26:f8:2b:fc:e5:21:75:53:62:fd:82:f7:dc:
         87:c0:1f:fe:da:66:4a:5f:aa:e5:ef:05:d4:a5:c3:91:4d:56:
         36:ac:d2:b3:c4:18:00:fc:c4:b5:92:d7:47:e2:c2:de:72:dc:
         7c:d3:33:bc:b7:10:54:85:8c:6f:b2:a2:d6:34:2e:8a:db:2a:
         61:98:0c:56:4d:e4:0a:63:62:6e:81:a4:0e:79:74:68:06:df:
         cc:a8:6b:b2:3c:39:a2:f7:83:65:4f:0f:7b:98:75:5d:6e:b7:
         89:e5:a7:22:a7:2b:3e:c6:e4:a7:43:a2:67:82:16:7c:a8:ad:
         15:e3:96:31:b2:9a:e3:b6:0f:a8:55:6b:47:c8:c5:cc:47:bd:
         1d:2f:96:e9:9f:ce:86:90:7f:ad:3c:17:b5:84:82:6a:ee:08:
         96:f1:54:ee:43:6f:05:4d:f1:a3:8f:46:a0:f1:f1:53:e0:ff:
         b3:5f:58:40
-----BEGIN CERTIFICATE-----
MIIEpTCCA42gAwIBAgIGCgsMDQ5VMA0GCSqGSIb3DQEBCwUAMIGDMRYwFAYDVQQD
FA1DQUxDVVRUQUNBX0NBMQswCQYDVQQGEwJJTjEPMA0GA1UEChMGQ0lUUklYMQww
CgYDVQQLEwNBTkcxCzAJBgNVBAgTAktBMTAwLgYJKoZIhvcNAQkBFiFDQUxDVVRU
QUNBX0NBQENBTENVVFRBQ0FfbWFpbC5jb20wHhcNMTcwODIzMTAxNjAyWhcNMjcw
ODIxMTAxNjAyWjBwMQswCQYDVQQIEwJLQTELMAkGA1UEBhMCSU4xGzAZBgNVBAMU
EmNhbGN1dHRhXzMxX2NsaWVudDEmMCQGCSqGSIb3DQEJARYXY2FsY3V0dGFfMzFA
dGVzdF9jYS5jb20xDzANBgNVBAoTBkNJVFJJWDCCASIwDQYJKoZIhvcNAQEBBQAD
ggEPADCCAQoCggEBAMBTLSyX+CGIqkfRy/OMl3LHgR3cBVY7dny9z7hQn43lRuJK
fdx2GvwBygUrJVGgPM2PYR1R3mJNRMlM7Fi5BhSbFBfGA+htZpyzr8HS16Cjrxce
o6muqv5Qd9YX4+7Q8hTtsooYgtJzdIMI14iDofDiNtiiSuvHrJeL59iozMfNwq8A
6kRSnqfXwjqHSzCic0lbMGAYrDHfnTuuJuCTj0VyPD29vugcbsaHkjDRLdvBNrNx
V896j8zRRL/tP6nWF9SgTSZCEK4bpa/xuoIEj8CJnmqmU+3J93OnHPz5aH8ctgZW
J0occDojDD21HPTVQQ95TMjlod+0gYIw/tXr9mUCAwEAAaOCAS8wggErMBEGCWCG
SAGG+EIBAQQEAwIHgDAdBgNVHQ4EFgQUTZaqugXiUowxFeALwCHo2/qCyX8wgbgG
A1UdIwSBsDCBrYAUNy57J0ZLz0cQrCsuutDzZnXrUnWhgYmkgYYwgYMxFjAUBgNV
BAMUDUNBTENVVFRBQ0FfQ0ExCzAJBgNVBAYTAklOMQ8wDQYDVQQKEwZDSVRSSVgx
DDAKBgNVBAsTA0FORzELMAkGA1UECBMCS0ExMDAuBgkqhkiG9w0BCQEWIUNBTENV
VFRBQ0FfQ0FAQ0FMQ1VUVEFDQV9tYWlsLmNvbYIJAKXGRw7mBjcYMDwGCCsGAQUF
BwEBBDAwLjAsBggrBgEFBQcwAYYgaHR0cDovLzE3Mi4xOC4yMC4xL3Jlc3BvbmRl
cnBhdGgwDQYJKoZIhvcNAQELBQADggEBAIXflThpsqTebF3VsR/4Bk0k2AjWmt1O
Y7+tbOGLzvL8mBaXIcshS3eBlbfTMTFhYngfcfV4rNI/qA335MIsP5H6/V0rCnqD
FtDHn+DxJvgr/OUhdVNi/YL33IfAH/7aZkpfquXvBdSlw5FNVjas0rPEGAD8xLWS
10fiwt5y3HzTM7y3EFSFjG+yotY0LorbKmGYDFZN5ApjYm6BpA55dGgG38yoa7I8
OaL3g2VPD3uYdV1ut4nlpyKnKz7G5KdDomeCFnyorRXjljGymuO2D6hVa0fIxcxH
vR0vlumfzoaQf608F7WEgmruCJbxVO5DbwVN8aOPRqDx8VPg/7NfWEA=
-----END CERTIFICATE-----
