Certificate:
    Data:
        Version: 3 (0x2)
        Serial Number: 11042563100233 (0xa0b0c0d0e49)
    Signature Algorithm: sha256WithRSAEncryption
        Issuer: CN=CALCUTTACA_CA, C=IN, O=CITRIX, OU=ANG, ST=KA/emailAddress=CALCUTTACA_CA@CALCUTTACA_mail.com
        Validity
            Not Before: Aug 23 10:15:54 2017 GMT
            Not After : Aug 21 10:15:54 2027 GMT
        Subject: ST=KA, C=IN, CN=calcutta_19_client/emailAddress=calcutta_19@test_ca.com, O=CITRIX
        Subject Public Key Info:
            Public Key Algorithm: rsaEncryption
                Public-Key: (2048 bit)
                Modulus:
                    00:d2:bc:66:48:99:57:7b:ab:8d:87:97:7c:01:d1:
                    15:45:ec:2a:b5:28:da:18:7e:78:5b:30:b3:39:81:
                    fc:ff:13:8f:c5:b7:92:42:30:e4:cd:66:99:97:8c:
                    4a:6e:48:04:4e:b5:4a:e2:e0:c6:da:e1:7c:a6:ff:
                    a1:5a:1b:60:5a:1f:30:1a:7d:17:17:8f:3f:57:cb:
                    af:51:2e:f5:4e:10:16:41:ca:bc:0f:6c:95:39:56:
                    0c:1f:f2:b9:8f:1f:c9:fe:08:52:08:01:e2:7e:2d:
                    c8:46:fd:68:ca:6c:39:33:a0:8b:9c:ce:b1:13:2f:
                    f2:36:49:00:06:28:35:e9:cd:7f:78:f8:62:a4:55:
                    9d:c0:b3:06:cf:55:fc:d1:04:a7:1a:cf:2b:4a:e0:
                    66:6f:b7:0a:4f:7b:36:fd:fb:4c:f0:35:ee:65:ef:
                    03:c4:dd:61:5c:9c:7c:e7:38:f9:13:5a:0b:db:6f:
                    c0:3a:e8:d9:d8:1a:96:89:d6:9a:b2:ec:26:7f:6b:
                    82:5c:27:cf:b3:cb:bc:34:a6:8a:55:4b:c5:63:87:
                    8d:25:a9:bc:3a:64:1c:ca:8b:b7:52:b4:f5:d6:24:
                    d4:66:23:8c:ee:00:3f:72:45:53:36:7e:d4:bd:1f:
                    a8:7c:88:c8:56:ba:c1:b2:36:af:c2:e6:37:30:e8:
                    30:27
                Exponent: 65537 (0x10001)
        X509v3 extensions:
            Netscape Cert Type: 
                SSL Client
            X509v3 Subject Key Identifier: 
                2B:98:AB:03:6F:6A:74:E8:43:59:9C:CB:78:C6:D8:62:D8:1E:EC:9C
            X509v3 Authority Key Identifier: 
                keyid:37:2E:7B:27:46:4B:CF:47:10:AC:2B:2E:BA:D0:F3:66:75:EB:52:75
                DirName:/CN=CALCUTTACA_CA/C=IN/O=CITRIX/OU=ANG/ST=KA/emailAddress=CALCUTTACA_CA@CALCUTTACA_mail.com
                serial:A5:C6:47:0E:E6:06:37:18

            Authority Information Access: 
                OCSP - URI:http://172.18.20.1/responderpath

    Signature Algorithm: sha256WithRSAEncryption
         e1:e7:97:98:91:8e:a8:f3:e1:4c:50:5f:72:f0:6c:8b:eb:45:
         82:a6:1e:46:3c:30:84:e4:95:07:96:53:52:f2:4d:5c:34:97:
         64:72:89:6d:36:a8:c3:b3:bb:61:20:02:b5:f1:0a:e2:cb:ae:
         7c:ad:ed:dc:b4:f0:3b:e4:b9:3a:03:a8:fa:d8:bc:82:c2:37:
         8c:70:f2:28:50:65:e1:90:46:a3:e5:7c:67:2e:88:43:87:24:
         98:37:c5:38:30:43:67:67:31:ae:91:50:65:c0:12:78:0c:8f:
         cd:b2:ae:70:42:8b:75:33:7b:9c:bc:a5:28:14:7e:25:56:cf:
         20:73:bc:4d:24:6b:a2:7b:c4:e2:aa:cf:71:b5:5e:5e:20:73:
         76:d7:d0:e1:ed:3a:da:f7:98:c4:7a:bf:69:1f:66:c3:ab:62:
         17:6f:87:10:a7:32:b7:45:36:f3:e1:6c:ec:d4:e4:3c:fe:55:
         1e:42:0a:c8:f5:13:9d:04:d3:7d:b7:29:d7:6d:14:88:53:e2:
         d0:9f:a9:d6:2d:d2:8d:bb:53:d4:a5:44:54:ed:ea:e1:ac:4b:
         8d:75:da:6f:d6:06:6f:2a:69:9f:ff:82:e8:a3:c7:88:8c:f1:
         50:84:42:bf:85:89:01:0b:5a:eb:08:21:b7:f1:ad:e6:74:ab:
         30:11:28:bd
-----BEGIN CERTIFICATE-----
MIIEpTCCA42gAwIBAgIGCgsMDQ5JMA0GCSqGSIb3DQEBCwUAMIGDMRYwFAYDVQQD
FA1DQUxDVVRUQUNBX0NBMQswCQYDVQQGEwJJTjEPMA0GA1UEChMGQ0lUUklYMQww
CgYDVQQLEwNBTkcxCzAJBgNVBAgTAktBMTAwLgYJKoZIhvcNAQkBFiFDQUxDVVRU
QUNBX0NBQENBTENVVFRBQ0FfbWFpbC5jb20wHhcNMTcwODIzMTAxNTU0WhcNMjcw
ODIxMTAxNTU0WjBwMQswCQYDVQQIEwJLQTELMAkGA1UEBhMCSU4xGzAZBgNVBAMU
EmNhbGN1dHRhXzE5X2NsaWVudDEmMCQGCSqGSIb3DQEJARYXY2FsY3V0dGFfMTlA
dGVzdF9jYS5jb20xDzANBgNVBAoTBkNJVFJJWDCCASIwDQYJKoZIhvcNAQEBBQAD
ggEPADCCAQoCggEBANK8ZkiZV3urjYeXfAHRFUXsKrUo2hh+eFswszmB/P8Tj8W3
kkIw5M1mmZeMSm5IBE61SuLgxtrhfKb/oVobYFofMBp9FxePP1fLr1Eu9U4QFkHK
vA9slTlWDB/yuY8fyf4IUggB4n4tyEb9aMpsOTOgi5zOsRMv8jZJAAYoNenNf3j4
YqRVncCzBs9V/NEEpxrPK0rgZm+3Ck97Nv37TPA17mXvA8TdYVycfOc4+RNaC9tv
wDro2dgalonWmrLsJn9rglwnz7PLvDSmilVLxWOHjSWpvDpkHMqLt1K09dYk1GYj
jO4AP3JFUzZ+1L0fqHyIyFa6wbI2r8LmNzDoMCcCAwEAAaOCAS8wggErMBEGCWCG
SAGG+EIBAQQEAwIHgDAdBgNVHQ4EFgQUK5irA29qdOhDWZzLeMbYYtge7JwwgbgG
A1UdIwSBsDCBrYAUNy57J0ZLz0cQrCsuutDzZnXrUnWhgYmkgYYwgYMxFjAUBgNV
BAMUDUNBTENVVFRBQ0FfQ0ExCzAJBgNVBAYTAklOMQ8wDQYDVQQKEwZDSVRSSVgx
DDAKBgNVBAsTA0FORzELMAkGA1UECBMCS0ExMDAuBgkqhkiG9w0BCQEWIUNBTENV
VFRBQ0FfQ0FAQ0FMQ1VUVEFDQV9tYWlsLmNvbYIJAKXGRw7mBjcYMDwGCCsGAQUF
BwEBBDAwLjAsBggrBgEFBQcwAYYgaHR0cDovLzE3Mi4xOC4yMC4xL3Jlc3BvbmRl
cnBhdGgwDQYJKoZIhvcNAQELBQADggEBAOHnl5iRjqjz4UxQX3LwbIvrRYKmHkY8
MITklQeWU1LyTVw0l2RyiW02qMOzu2EgArXxCuLLrnyt7dy08DvkuToDqPrYvILC
N4xw8ihQZeGQRqPlfGcuiEOHJJg3xTgwQ2dnMa6RUGXAEngMj82yrnBCi3Uze5y8
pSgUfiVWzyBzvE0ka6J7xOKqz3G1Xl4gc3bX0OHtOtr3mMR6v2kfZsOrYhdvhxCn
MrdFNvPhbOzU5Dz+VR5CCsj1E50E0323KddtFIhT4tCfqdYt0o27U9SlRFTt6uGs
S4112m/WBm8qaZ//guijx4iM8VCEQr+FiQELWusIIbfxreZ0qzARKL0=
-----END CERTIFICATE-----
