Certificate:
    Data:
        Version: 3 (0x2)
        Serial Number: 11042563100242 (0xa0b0c0d0e52)
    Signature Algorithm: sha256WithRSAEncryption
        Issuer: CN=CALCUTTACA_CA, C=IN, O=CITRIX, OU=ANG, ST=KA/emailAddress=CALCUTTACA_CA@CALCUTTACA_mail.com
        Validity
            Not Before: Aug 23 10:16:00 2017 GMT
            Not After : Aug 21 10:16:00 2027 GMT
        Subject: ST=KA, C=IN, CN=calcutta_28_client/emailAddress=calcutta_28@test_ca.com, O=CITRIX
        Subject Public Key Info:
            Public Key Algorithm: rsaEncryption
                Public-Key: (2048 bit)
                Modulus:
                    00:c3:9d:b5:f5:5a:d5:19:02:17:2f:20:ad:06:48:
                    34:13:fa:40:bd:43:41:a4:b2:43:f5:1f:40:35:03:
                    2a:b9:47:63:74:b7:1f:16:ec:ba:6b:b3:38:1f:3e:
                    16:6a:f7:00:83:e0:01:ff:8b:d7:bc:37:25:88:49:
                    e6:7f:53:c7:68:14:9a:a4:ec:66:59:02:76:85:eb:
                    2e:09:bb:fa:8b:f6:ce:e4:05:1a:a3:8f:7f:45:72:
                    05:ea:5b:69:05:64:14:d9:e0:06:8d:24:fc:73:08:
                    63:92:f1:01:2f:f3:e2:22:79:b6:b2:de:e0:30:83:
                    fe:50:b4:8f:11:2e:52:f1:6f:81:b5:16:a5:da:d4:
                    65:ad:1e:d4:12:e6:4b:6e:51:7f:c9:1a:9e:53:f3:
                    8b:fa:09:8a:b5:6e:0d:f4:61:4f:ce:07:67:a3:5a:
                    1f:f8:3e:00:39:52:f3:6c:31:40:47:07:4a:b8:90:
                    fc:b0:1b:dc:bb:93:95:eb:c2:8d:1b:c7:69:d9:90:
                    72:f1:2c:c2:5f:47:7a:04:00:da:8d:b8:75:33:4b:
                    9f:7e:e2:96:62:22:9f:b5:6d:17:06:55:dd:d2:16:
                    e3:7b:86:93:dc:e8:58:46:09:32:25:6d:a1:a8:e8:
                    21:4c:e4:b2:12:30:78:63:e9:0f:10:da:9d:b5:73:
                    c8:37
                Exponent: 65537 (0x10001)
        X509v3 extensions:
            Netscape Cert Type: 
                SSL Client
            X509v3 Subject Key Identifier: 
                A4:EE:C6:FA:F4:BE:25:B8:27:36:CC:0C:1E:55:47:AF:C3:D6:01:C6
            X509v3 Authority Key Identifier: 
                keyid:37:2E:7B:27:46:4B:CF:47:10:AC:2B:2E:BA:D0:F3:66:75:EB:52:75
                DirName:/CN=CALCUTTACA_CA/C=IN/O=CITRIX/OU=ANG/ST=KA/emailAddress=CALCUTTACA_CA@CALCUTTACA_mail.com
                serial:A5:C6:47:0E:E6:06:37:18

            Authority Information Access: 
                OCSP - URI:http://172.18.20.1/responderpath

    Signature Algorithm: sha256WithRSAEncryption
         a0:97:3c:64:92:1f:54:dc:b5:43:92:63:c8:bd:89:74:e8:67:
         fe:1b:c7:50:79:1a:81:4a:3c:97:1f:35:00:d7:5b:e9:4c:da:
         7c:16:3c:b0:6e:c0:45:1b:a5:40:ef:ac:08:c0:5c:ae:13:39:
         0a:ae:eb:e9:26:f9:97:7c:7b:92:1e:0c:0c:59:9a:60:8a:3d:
         46:0d:4a:9e:8f:c3:ac:83:d8:c7:61:e6:71:d7:5d:f5:ac:86:
         49:9b:6b:7a:12:44:e5:e9:f9:c1:98:28:5b:a0:24:ca:51:cc:
         c3:ac:c8:b7:62:68:8b:42:9f:c3:d0:16:1d:20:a6:f6:1f:09:
         0b:82:32:2c:ea:23:77:75:3e:7a:ab:05:81:fb:00:48:2e:ff:
         e9:f2:ad:60:bd:5e:74:7d:49:af:e2:72:e0:33:cf:67:88:ee:
         24:ae:ff:8f:e7:79:aa:ec:d9:75:bf:d4:95:7d:e3:92:04:e2:
         31:5f:79:60:61:bc:bc:9b:e2:a6:8c:af:0c:43:e8:4f:5b:f1:
         65:56:6a:10:20:32:85:ce:96:ad:e0:af:1c:16:c1:bc:af:bd:
         30:36:a0:5d:54:61:a5:09:88:25:b8:48:18:0e:af:75:39:6d:
         c8:9a:d2:05:af:29:67:be:a5:5e:9d:54:99:7a:93:bb:d6:80:
         79:93:bc:56
-----BEGIN CERTIFICATE-----
MIIEpTCCA42gAwIBAgIGCgsMDQ5SMA0GCSqGSIb3DQEBCwUAMIGDMRYwFAYDVQQD
FA1DQUxDVVRUQUNBX0NBMQswCQYDVQQGEwJJTjEPMA0GA1UEChMGQ0lUUklYMQww
CgYDVQQLEwNBTkcxCzAJBgNVBAgTAktBMTAwLgYJKoZIhvcNAQkBFiFDQUxDVVRU
QUNBX0NBQENBTENVVFRBQ0FfbWFpbC5jb20wHhcNMTcwODIzMTAxNjAwWhcNMjcw
ODIxMTAxNjAwWjBwMQswCQYDVQQIEwJLQTELMAkGA1UEBhMCSU4xGzAZBgNVBAMU
EmNhbGN1dHRhXzI4X2NsaWVudDEmMCQGCSqGSIb3DQEJARYXY2FsY3V0dGFfMjhA
dGVzdF9jYS5jb20xDzANBgNVBAoTBkNJVFJJWDCCASIwDQYJKoZIhvcNAQEBBQAD
ggEPADCCAQoCggEBAMOdtfVa1RkCFy8grQZINBP6QL1DQaSyQ/UfQDUDKrlHY3S3
HxbsumuzOB8+Fmr3AIPgAf+L17w3JYhJ5n9Tx2gUmqTsZlkCdoXrLgm7+ov2zuQF
GqOPf0VyBepbaQVkFNngBo0k/HMIY5LxAS/z4iJ5trLe4DCD/lC0jxEuUvFvgbUW
pdrUZa0e1BLmS25Rf8kanlPzi/oJirVuDfRhT84HZ6NaH/g+ADlS82wxQEcHSriQ
/LAb3LuTlevCjRvHadmQcvEswl9HegQA2o24dTNLn37ilmIin7VtFwZV3dIW43uG
k9zoWEYJMiVtoajoIUzkshIweGPpDxDanbVzyDcCAwEAAaOCAS8wggErMBEGCWCG
SAGG+EIBAQQEAwIHgDAdBgNVHQ4EFgQUpO7G+vS+JbgnNswMHlVHr8PWAcYwgbgG
A1UdIwSBsDCBrYAUNy57J0ZLz0cQrCsuutDzZnXrUnWhgYmkgYYwgYMxFjAUBgNV
BAMUDUNBTENVVFRBQ0FfQ0ExCzAJBgNVBAYTAklOMQ8wDQYDVQQKEwZDSVRSSVgx
DDAKBgNVBAsTA0FORzELMAkGA1UECBMCS0ExMDAuBgkqhkiG9w0BCQEWIUNBTENV
VFRBQ0FfQ0FAQ0FMQ1VUVEFDQV9tYWlsLmNvbYIJAKXGRw7mBjcYMDwGCCsGAQUF
BwEBBDAwLjAsBggrBgEFBQcwAYYgaHR0cDovLzE3Mi4xOC4yMC4xL3Jlc3BvbmRl
cnBhdGgwDQYJKoZIhvcNAQELBQADggEBAKCXPGSSH1TctUOSY8i9iXToZ/4bx1B5
GoFKPJcfNQDXW+lM2nwWPLBuwEUbpUDvrAjAXK4TOQqu6+km+Zd8e5IeDAxZmmCK
PUYNSp6Pw6yD2Mdh5nHXXfWshkmba3oSROXp+cGYKFugJMpRzMOsyLdiaItCn8PQ
Fh0gpvYfCQuCMizqI3d1PnqrBYH7AEgu/+nyrWC9XnR9Sa/icuAzz2eI7iSu/4/n
ears2XW/1JV945IE4jFfeWBhvLyb4qaMrwxD6E9b8WVWahAgMoXOlq3grxwWwbyv
vTA2oF1UYaUJiCW4SBgOr3U5bcia0gWvKWe+pV6dVJl6k7vWgHmTvFY=
-----END CERTIFICATE-----
