Certificate:
    Data:
        Version: 3 (0x2)
        Serial Number: 11042563100255 (0xa0b0c0d0e5f)
    Signature Algorithm: sha256WithRSAEncryption
        Issuer: CN=CALCUTTACA_CA, C=IN, O=CITRIX, OU=ANG, ST=KA/emailAddress=CALCUTTACA_CA@CALCUTTACA_mail.com
        Validity
            Not Before: Aug 23 10:16:10 2017 GMT
            Not After : Aug 21 10:16:10 2027 GMT
        Subject: ST=KA, C=IN, CN=calcutta_41_client/emailAddress=calcutta_41@test_ca.com, O=CITRIX
        Subject Public Key Info:
            Public Key Algorithm: rsaEncryption
                Public-Key: (2048 bit)
                Modulus:
                    00:d3:e8:fd:db:fa:ad:9c:69:dd:2c:47:79:f0:0a:
                    de:bb:99:a5:10:36:e8:37:bf:79:7c:44:34:e9:e6:
                    18:1f:ea:4e:c7:c7:01:18:c7:2f:1a:37:e9:af:b0:
                    0e:1f:15:de:45:a8:91:50:ee:22:2f:6a:11:65:7a:
                    80:65:d5:4b:85:b2:37:19:98:31:64:6f:67:7e:ce:
                    6f:7f:09:1b:2e:1e:c4:de:8f:66:0c:ed:cd:0f:b4:
                    cd:04:30:b1:4f:b8:f9:e7:bf:8b:bd:47:56:94:a8:
                    80:50:05:a7:05:ab:f2:82:25:dc:75:c7:39:92:87:
                    d1:38:f9:9e:8f:f3:11:44:7b:08:57:db:de:67:a4:
                    f0:6c:0e:34:c7:44:75:6f:c4:fb:30:1d:2e:7f:70:
                    9f:df:0f:42:79:1e:83:dd:8a:b9:85:03:dc:5b:5b:
                    72:d5:88:cf:50:d9:32:0b:13:d4:b9:16:5c:f6:2c:
                    c5:74:25:7d:81:11:77:85:2d:16:25:87:18:0e:75:
                    55:8d:4b:a1:12:7d:35:71:9c:7a:48:2f:19:7f:ee:
                    0e:6a:44:b6:87:1a:86:81:f9:1e:28:f3:22:18:4a:
                    14:33:d9:64:d8:65:de:c0:0d:5c:5d:13:aa:1d:b8:
                    73:7c:46:16:7d:36:31:0b:8e:28:04:df:cb:71:c6:
                    8d:c1
                Exponent: 65537 (0x10001)
        X509v3 extensions:
            Netscape Cert Type: 
                SSL Client
            X509v3 Subject Key Identifier: 
                80:B5:A3:7B:6A:E7:30:EC:6E:35:03:49:68:FE:EE:70:4F:BB:83:DC
            X509v3 Authority Key Identifier: 
                keyid:37:2E:7B:27:46:4B:CF:47:10:AC:2B:2E:BA:D0:F3:66:75:EB:52:75
                DirName:/CN=CALCUTTACA_CA/C=IN/O=CITRIX/OU=ANG/ST=KA/emailAddress=CALCUTTACA_CA@CALCUTTACA_mail.com
                serial:A5:C6:47:0E:E6:06:37:18

            Authority Information Access: 
                OCSP - URI:http://172.18.20.1/responderpath

    Signature Algorithm: sha256WithRSAEncryption
         4c:da:3c:c4:51:8c:36:15:59:c3:c4:28:68:c9:1a:38:3e:e0:
         89:7c:f4:13:75:c7:9c:e9:26:6f:c1:dd:99:b3:68:6c:00:fc:
         66:25:15:50:a7:91:64:a4:1f:4d:49:1e:b2:c4:2c:6c:5b:18:
         5b:dc:c0:02:de:9e:43:80:01:a7:8a:69:f2:98:e1:b3:10:02:
         8e:23:4c:c2:a7:94:07:17:c1:c0:33:c8:0e:ba:c9:60:23:56:
         0d:46:aa:ef:90:52:f8:75:c8:a5:f6:a2:93:c4:40:c9:ac:f1:
         13:9b:14:c2:67:f5:c1:88:5b:fe:69:ae:34:83:ec:59:a4:22:
         6c:a3:d3:be:5a:5e:f3:11:c0:13:52:12:3b:1d:82:ff:2e:3a:
         8b:45:ba:ad:15:99:a2:f2:24:d0:63:ff:42:e0:e1:66:56:2d:
         b3:67:63:b2:f0:4a:79:87:de:70:e6:b1:15:9a:04:9c:60:03:
         b0:53:41:9b:d8:08:cf:7f:28:63:8e:31:12:14:3d:c5:4b:61:
         5b:a1:42:ac:b3:da:58:d8:21:8e:08:51:b8:3b:0f:d2:c0:50:
         b4:b1:6a:1d:32:bc:00:bf:33:7a:6d:fd:c1:e5:83:22:15:14:
         1b:df:46:05:fa:7b:6f:37:31:fc:34:42:4a:83:d0:7f:22:e5:
         70:04:f9:78
-----BEGIN CERTIFICATE-----
MIIEpTCCA42gAwIBAgIGCgsMDQ5fMA0GCSqGSIb3DQEBCwUAMIGDMRYwFAYDVQQD
FA1DQUxDVVRUQUNBX0NBMQswCQYDVQQGEwJJTjEPMA0GA1UEChMGQ0lUUklYMQww
CgYDVQQLEwNBTkcxCzAJBgNVBAgTAktBMTAwLgYJKoZIhvcNAQkBFiFDQUxDVVRU
QUNBX0NBQENBTENVVFRBQ0FfbWFpbC5jb20wHhcNMTcwODIzMTAxNjEwWhcNMjcw
ODIxMTAxNjEwWjBwMQswCQYDVQQIEwJLQTELMAkGA1UEBhMCSU4xGzAZBgNVBAMU
EmNhbGN1dHRhXzQxX2NsaWVudDEmMCQGCSqGSIb3DQEJARYXY2FsY3V0dGFfNDFA
dGVzdF9jYS5jb20xDzANBgNVBAoTBkNJVFJJWDCCASIwDQYJKoZIhvcNAQEBBQAD
ggEPADCCAQoCggEBANPo/dv6rZxp3SxHefAK3ruZpRA26De/eXxENOnmGB/qTsfH
ARjHLxo36a+wDh8V3kWokVDuIi9qEWV6gGXVS4WyNxmYMWRvZ37Ob38JGy4exN6P
ZgztzQ+0zQQwsU+4+ee/i71HVpSogFAFpwWr8oIl3HXHOZKH0Tj5no/zEUR7CFfb
3mek8GwONMdEdW/E+zAdLn9wn98PQnkeg92KuYUD3FtbctWIz1DZMgsT1LkWXPYs
xXQlfYERd4UtFiWHGA51VY1LoRJ9NXGcekgvGX/uDmpEtocahoH5HijzIhhKFDPZ
ZNhl3sANXF0Tqh24c3xGFn02MQuOKATfy3HGjcECAwEAAaOCAS8wggErMBEGCWCG
SAGG+EIBAQQEAwIHgDAdBgNVHQ4EFgQUgLWje2rnMOxuNQNJaP7ucE+7g9wwgbgG
A1UdIwSBsDCBrYAUNy57J0ZLz0cQrCsuutDzZnXrUnWhgYmkgYYwgYMxFjAUBgNV
BAMUDUNBTENVVFRBQ0FfQ0ExCzAJBgNVBAYTAklOMQ8wDQYDVQQKEwZDSVRSSVgx
DDAKBgNVBAsTA0FORzELMAkGA1UECBMCS0ExMDAuBgkqhkiG9w0BCQEWIUNBTENV
VFRBQ0FfQ0FAQ0FMQ1VUVEFDQV9tYWlsLmNvbYIJAKXGRw7mBjcYMDwGCCsGAQUF
BwEBBDAwLjAsBggrBgEFBQcwAYYgaHR0cDovLzE3Mi4xOC4yMC4xL3Jlc3BvbmRl
cnBhdGgwDQYJKoZIhvcNAQELBQADggEBAEzaPMRRjDYVWcPEKGjJGjg+4Il89BN1
x5zpJm/B3ZmzaGwA/GYlFVCnkWSkH01JHrLELGxbGFvcwALenkOAAaeKafKY4bMQ
Ao4jTMKnlAcXwcAzyA66yWAjVg1Gqu+QUvh1yKX2opPEQMms8RObFMJn9cGIW/5p
rjSD7FmkImyj075aXvMRwBNSEjsdgv8uOotFuq0VmaLyJNBj/0Lg4WZWLbNnY7Lw
SnmH3nDmsRWaBJxgA7BTQZvYCM9/KGOOMRIUPcVLYVuhQqyz2ljYIY4IUbg7D9LA
ULSxah0yvAC/M3pt/cHlgyIVFBvfRgX6e283Mfw0QkqD0H8i5XAE+Xg=
-----END CERTIFICATE-----
