Certificate:
    Data:
        Version: 3 (0x2)
        Serial Number: 11042563100226 (0xa0b0c0d0e42)
    Signature Algorithm: sha256WithRSAEncryption
        Issuer: CN=CALCUTTACA_CA, C=IN, O=CITRIX, OU=ANG, ST=KA/emailAddress=CALCUTTACA_CA@CALCUTTACA_mail.com
        Validity
            Not Before: Aug 23 10:15:51 2017 GMT
            Not After : Aug 21 10:15:51 2027 GMT
        Subject: ST=KA, C=IN, CN=calcutta_12_client/emailAddress=calcutta_12@test_ca.com, O=CITRIX
        Subject Public Key Info:
            Public Key Algorithm: rsaEncryption
                Public-Key: (2048 bit)
                Modulus:
                    00:94:8a:ce:1c:df:b5:ce:2b:b7:82:3e:c8:11:0c:
                    5e:60:f1:b8:ca:c5:c1:41:c2:f9:67:12:e9:30:06:
                    16:f1:fe:74:b4:f9:6f:e7:75:74:d2:2f:32:f2:d4:
                    8c:12:94:50:65:b5:87:46:e6:29:15:26:a5:11:98:
                    e4:29:35:19:86:61:6b:1a:90:7a:74:99:4f:52:87:
                    cd:ba:df:6d:2e:7f:90:a3:fe:d6:af:bd:7d:35:d4:
                    d4:a1:95:b9:07:dc:f3:5c:5f:9c:24:27:57:44:50:
                    8b:12:ef:e8:ea:4a:fe:b9:b4:a0:7f:5e:95:7a:2a:
                    90:59:c1:9e:85:b4:75:5e:53:45:6a:40:f9:e4:23:
                    1d:23:a8:37:6a:5d:35:05:af:38:f1:b1:08:ac:b4:
                    bd:22:bf:c3:4e:d3:72:14:a2:a1:21:65:2f:ca:85:
                    4f:2a:c2:f9:57:43:54:e4:bd:78:4a:2e:be:c3:ac:
                    76:4f:99:af:cd:61:fd:d2:ae:85:9d:2d:c4:da:29:
                    f8:9b:9f:f1:82:fa:34:8f:28:8f:7b:45:6c:87:e3:
                    56:e6:3a:7f:ac:af:55:77:22:82:a2:4d:68:0d:5d:
                    29:37:35:46:cc:75:f4:d6:18:cb:b2:5e:c7:24:13:
                    1e:4d:4d:01:44:35:77:28:5a:ae:4b:03:35:be:b3:
                    dc:39
                Exponent: 65537 (0x10001)
        X509v3 extensions:
            Netscape Cert Type: 
                SSL Client
            X509v3 Subject Key Identifier: 
                09:53:58:91:4D:F4:8B:16:8C:0E:42:18:C3:56:D7:65:01:99:1F:D5
            X509v3 Authority Key Identifier: 
                keyid:37:2E:7B:27:46:4B:CF:47:10:AC:2B:2E:BA:D0:F3:66:75:EB:52:75
                DirName:/CN=CALCUTTACA_CA/C=IN/O=CITRIX/OU=ANG/ST=KA/emailAddress=CALCUTTACA_CA@CALCUTTACA_mail.com
                serial:A5:C6:47:0E:E6:06:37:18

            Authority Information Access: 
                OCSP - URI:http://172.18.20.1/responderpath

    Signature Algorithm: sha256WithRSAEncryption
         9d:00:0b:a8:96:a5:57:7e:eb:40:a5:e0:b8:7b:b9:d1:ca:39:
         9c:5c:e7:4c:31:6a:cc:df:cd:ba:1c:03:00:e9:b8:21:89:36:
         40:39:28:13:ef:58:0a:3a:57:15:b4:2f:38:e1:8d:66:d4:8a:
         a0:49:07:ad:ef:c8:80:5b:18:33:ac:48:a4:21:33:63:d9:48:
         72:86:bd:41:6f:37:09:48:b1:fd:1d:a9:73:40:08:55:2a:eb:
         3d:7d:bb:87:7e:82:0e:76:5f:af:06:34:17:81:9e:67:5f:f3:
         34:ab:b1:1a:24:90:57:a5:20:3e:d8:13:24:1a:d0:32:18:7d:
         b6:ab:16:74:2f:d2:c4:e1:30:16:a0:5c:2d:98:49:6b:69:c9:
         2e:3e:6e:a5:a4:68:32:b3:b5:54:01:00:f9:d7:4e:ac:56:04:
         5c:46:b0:c5:8b:af:40:b7:e1:e0:3c:40:bd:86:e8:73:5f:8b:
         ba:8e:69:66:45:e8:dc:66:0d:b5:57:43:29:c9:6a:87:d1:bc:
         09:2f:c8:db:b9:e0:3f:38:45:eb:18:f9:8b:14:05:95:c0:7c:
         48:01:89:48:55:e3:25:5d:e2:b0:f9:93:56:89:a6:f1:fe:ec:
         5e:6d:5e:df:f7:2c:53:c0:42:86:ff:c9:ae:89:d3:c6:1a:f7:
         45:f2:08:54
-----BEGIN CERTIFICATE-----
MIIEpTCCA42gAwIBAgIGCgsMDQ5CMA0GCSqGSIb3DQEBCwUAMIGDMRYwFAYDVQQD
FA1DQUxDVVRUQUNBX0NBMQswCQYDVQQGEwJJTjEPMA0GA1UEChMGQ0lUUklYMQww
CgYDVQQLEwNBTkcxCzAJBgNVBAgTAktBMTAwLgYJKoZIhvcNAQkBFiFDQUxDVVRU
QUNBX0NBQENBTENVVFRBQ0FfbWFpbC5jb20wHhcNMTcwODIzMTAxNTUxWhcNMjcw
ODIxMTAxNTUxWjBwMQswCQYDVQQIEwJLQTELMAkGA1UEBhMCSU4xGzAZBgNVBAMU
EmNhbGN1dHRhXzEyX2NsaWVudDEmMCQGCSqGSIb3DQEJARYXY2FsY3V0dGFfMTJA
dGVzdF9jYS5jb20xDzANBgNVBAoTBkNJVFJJWDCCASIwDQYJKoZIhvcNAQEBBQAD
ggEPADCCAQoCggEBAJSKzhzftc4rt4I+yBEMXmDxuMrFwUHC+WcS6TAGFvH+dLT5
b+d1dNIvMvLUjBKUUGW1h0bmKRUmpRGY5Ck1GYZhaxqQenSZT1KHzbrfbS5/kKP+
1q+9fTXU1KGVuQfc81xfnCQnV0RQixLv6OpK/rm0oH9elXoqkFnBnoW0dV5TRWpA
+eQjHSOoN2pdNQWvOPGxCKy0vSK/w07TchSioSFlL8qFTyrC+VdDVOS9eEouvsOs
dk+Zr81h/dKuhZ0txNop+Juf8YL6NI8oj3tFbIfjVuY6f6yvVXcigqJNaA1dKTc1
Rsx19NYYy7JexyQTHk1NAUQ1dyharksDNb6z3DkCAwEAAaOCAS8wggErMBEGCWCG
SAGG+EIBAQQEAwIHgDAdBgNVHQ4EFgQUCVNYkU30ixaMDkIYw1bXZQGZH9UwgbgG
A1UdIwSBsDCBrYAUNy57J0ZLz0cQrCsuutDzZnXrUnWhgYmkgYYwgYMxFjAUBgNV
BAMUDUNBTENVVFRBQ0FfQ0ExCzAJBgNVBAYTAklOMQ8wDQYDVQQKEwZDSVRSSVgx
DDAKBgNVBAsTA0FORzELMAkGA1UECBMCS0ExMDAuBgkqhkiG9w0BCQEWIUNBTENV
VFRBQ0FfQ0FAQ0FMQ1VUVEFDQV9tYWlsLmNvbYIJAKXGRw7mBjcYMDwGCCsGAQUF
BwEBBDAwLjAsBggrBgEFBQcwAYYgaHR0cDovLzE3Mi4xOC4yMC4xL3Jlc3BvbmRl
cnBhdGgwDQYJKoZIhvcNAQELBQADggEBAJ0AC6iWpVd+60Cl4Lh7udHKOZxc50wx
aszfzbocAwDpuCGJNkA5KBPvWAo6VxW0LzjhjWbUiqBJB63vyIBbGDOsSKQhM2PZ
SHKGvUFvNwlIsf0dqXNACFUq6z19u4d+gg52X68GNBeBnmdf8zSrsRokkFelID7Y
EyQa0DIYfbarFnQv0sThMBagXC2YSWtpyS4+bqWkaDKztVQBAPnXTqxWBFxGsMWL
r0C34eA8QL2G6HNfi7qOaWZF6NxmDbVXQynJaofRvAkvyNu54D84ResY+YsUBZXA
fEgBiUhV4yVd4rD5k1aJpvH+7F5tXt/3LFPAQob/ya6J08Ya90XyCFQ=
-----END CERTIFICATE-----
