Certificate:
    Data:
        Version: 3 (0x2)
        Serial Number: 11042563100234 (0xa0b0c0d0e4a)
    Signature Algorithm: sha256WithRSAEncryption
        Issuer: CN=CALCUTTACA_CA, C=IN, O=CITRIX, OU=ANG, ST=KA/emailAddress=CALCUTTACA_CA@CALCUTTACA_mail.com
        Validity
            Not Before: Aug 23 10:15:54 2017 GMT
            Not After : Aug 21 10:15:54 2027 GMT
        Subject: ST=KA, C=IN, CN=calcutta_20_client/emailAddress=calcutta_20@test_ca.com, O=CITRIX
        Subject Public Key Info:
            Public Key Algorithm: rsaEncryption
                Public-Key: (2048 bit)
                Modulus:
                    00:9d:5a:c2:b7:e1:ef:66:ee:dc:4c:f7:99:7a:c8:
                    c6:00:b1:fb:49:9e:10:6f:23:18:96:9c:7c:20:30:
                    49:7c:f0:88:e7:31:70:0a:e8:70:b9:d1:6c:fe:9e:
                    13:f8:6f:cc:54:d1:71:38:b7:15:db:a4:e0:17:8a:
                    e3:b2:25:f0:52:58:8b:48:5e:c3:c1:a9:39:00:96:
                    3b:44:a0:ec:14:03:5e:97:a6:93:50:12:5b:6a:ac:
                    5b:41:7a:70:94:ee:0e:c1:e9:67:7e:ed:85:2c:2a:
                    99:0a:a5:c8:13:7e:b7:fe:0c:53:d6:9b:81:eb:d5:
                    72:3a:6c:df:cb:1a:4c:70:03:f3:24:47:3e:4f:4b:
                    2b:7b:a9:09:28:b7:28:f8:53:78:c7:2a:89:36:1b:
                    3f:b8:7f:9f:1c:8d:80:cb:ff:cf:18:4d:59:16:25:
                    b6:9c:2e:2b:1c:47:a1:30:9a:c4:49:1d:32:74:19:
                    92:e0:05:95:51:ca:c7:db:a2:f5:a0:d5:55:3d:c2:
                    f3:67:5a:4a:3e:d3:a5:56:0b:90:73:48:b5:f6:46:
                    70:b2:11:af:43:e2:ef:40:bf:dc:cb:90:29:10:37:
                    0a:a5:b6:30:08:b8:37:ba:17:c4:cc:21:a6:49:12:
                    ef:67:54:82:9b:52:a6:23:ff:4c:1b:52:5d:58:d5:
                    63:c3
                Exponent: 65537 (0x10001)
        X509v3 extensions:
            Netscape Cert Type: 
                SSL Client
            X509v3 Subject Key Identifier: 
                25:07:CD:E8:C9:11:DD:97:E3:12:F5:EE:9D:8D:D9:F5:2C:C8:11:0B
            X509v3 Authority Key Identifier: 
                keyid:37:2E:7B:27:46:4B:CF:47:10:AC:2B:2E:BA:D0:F3:66:75:EB:52:75
                DirName:/CN=CALCUTTACA_CA/C=IN/O=CITRIX/OU=ANG/ST=KA/emailAddress=CALCUTTACA_CA@CALCUTTACA_mail.com
                serial:A5:C6:47:0E:E6:06:37:18

            Authority Information Access: 
                OCSP - URI:http://172.18.20.1/responderpath

    Signature Algorithm: sha256WithRSAEncryption
         c4:a7:91:3a:01:a1:57:a5:6c:d2:4b:89:c4:ea:24:50:1c:26:
         0c:ab:39:bb:08:9e:d2:15:63:4c:01:19:ae:b5:a1:9f:95:46:
         93:35:82:3c:1a:23:9b:a8:cc:af:15:e2:75:2f:71:2d:ee:ce:
         d8:d6:10:5a:b1:af:a1:aa:d3:12:75:47:25:13:db:c2:b7:a8:
         be:04:90:ce:d5:2e:fd:18:4d:15:dc:cb:df:a5:15:6f:d9:9c:
         01:21:46:c0:be:39:cb:78:63:26:a4:7e:cd:79:97:63:39:b3:
         01:72:10:32:48:9c:fa:86:1c:b8:f0:be:ff:7d:e5:14:57:7e:
         ea:a2:62:de:f6:9c:c0:3a:4a:72:cc:c1:35:ab:21:17:d7:e2:
         17:65:1c:ae:96:5e:2a:ef:bc:23:bf:31:db:0b:2c:ee:f2:b3:
         7c:32:e9:1c:3e:a2:e4:4b:75:05:15:76:c0:8e:5a:83:8e:b0:
         97:e0:eb:a6:02:f4:a6:78:41:cc:ac:98:90:5a:88:87:21:b8:
         9e:73:3b:67:29:fd:c6:85:fb:cd:1e:85:bc:e7:e8:3a:11:f2:
         1d:25:9e:0d:53:62:08:e3:74:f1:4d:df:de:ba:e8:ee:70:a3:
         d6:7c:1b:52:84:d8:f8:60:07:3e:60:22:fd:88:cc:93:e5:e4:
         1f:0d:40:2e
-----BEGIN CERTIFICATE-----
MIIEpTCCA42gAwIBAgIGCgsMDQ5KMA0GCSqGSIb3DQEBCwUAMIGDMRYwFAYDVQQD
FA1DQUxDVVRUQUNBX0NBMQswCQYDVQQGEwJJTjEPMA0GA1UEChMGQ0lUUklYMQww
CgYDVQQLEwNBTkcxCzAJBgNVBAgTAktBMTAwLgYJKoZIhvcNAQkBFiFDQUxDVVRU
QUNBX0NBQENBTENVVFRBQ0FfbWFpbC5jb20wHhcNMTcwODIzMTAxNTU0WhcNMjcw
ODIxMTAxNTU0WjBwMQswCQYDVQQIEwJLQTELMAkGA1UEBhMCSU4xGzAZBgNVBAMU
EmNhbGN1dHRhXzIwX2NsaWVudDEmMCQGCSqGSIb3DQEJARYXY2FsY3V0dGFfMjBA
dGVzdF9jYS5jb20xDzANBgNVBAoTBkNJVFJJWDCCASIwDQYJKoZIhvcNAQEBBQAD
ggEPADCCAQoCggEBAJ1awrfh72bu3Ez3mXrIxgCx+0meEG8jGJacfCAwSXzwiOcx
cArocLnRbP6eE/hvzFTRcTi3Fduk4BeK47Il8FJYi0hew8GpOQCWO0Sg7BQDXpem
k1ASW2qsW0F6cJTuDsHpZ37thSwqmQqlyBN+t/4MU9abgevVcjps38saTHAD8yRH
Pk9LK3upCSi3KPhTeMcqiTYbP7h/nxyNgMv/zxhNWRYltpwuKxxHoTCaxEkdMnQZ
kuAFlVHKx9ui9aDVVT3C82daSj7TpVYLkHNItfZGcLIRr0Pi70C/3MuQKRA3CqW2
MAi4N7oXxMwhpkkS72dUgptSpiP/TBtSXVjVY8MCAwEAAaOCAS8wggErMBEGCWCG
SAGG+EIBAQQEAwIHgDAdBgNVHQ4EFgQUJQfN6MkR3ZfjEvXunY3Z9SzIEQswgbgG
A1UdIwSBsDCBrYAUNy57J0ZLz0cQrCsuutDzZnXrUnWhgYmkgYYwgYMxFjAUBgNV
BAMUDUNBTENVVFRBQ0FfQ0ExCzAJBgNVBAYTAklOMQ8wDQYDVQQKEwZDSVRSSVgx
DDAKBgNVBAsTA0FORzELMAkGA1UECBMCS0ExMDAuBgkqhkiG9w0BCQEWIUNBTENV
VFRBQ0FfQ0FAQ0FMQ1VUVEFDQV9tYWlsLmNvbYIJAKXGRw7mBjcYMDwGCCsGAQUF
BwEBBDAwLjAsBggrBgEFBQcwAYYgaHR0cDovLzE3Mi4xOC4yMC4xL3Jlc3BvbmRl
cnBhdGgwDQYJKoZIhvcNAQELBQADggEBAMSnkToBoVelbNJLicTqJFAcJgyrObsI
ntIVY0wBGa61oZ+VRpM1gjwaI5uozK8V4nUvcS3uztjWEFqxr6Gq0xJ1RyUT28K3
qL4EkM7VLv0YTRXcy9+lFW/ZnAEhRsC+Oct4Yyakfs15l2M5swFyEDJInPqGHLjw
vv995RRXfuqiYt72nMA6SnLMwTWrIRfX4hdlHK6WXirvvCO/MdsLLO7ys3wy6Rw+
ouRLdQUVdsCOWoOOsJfg66YC9KZ4QcysmJBaiIchuJ5zO2cp/caF+80ehbzn6DoR
8h0lng1TYgjjdPFN39666O5wo9Z8G1KE2PhgBz5gIv2IzJPl5B8NQC4=
-----END CERTIFICATE-----
