Certificate:
    Data:
        Version: 3 (0x2)
        Serial Number: 11042563100229 (0xa0b0c0d0e45)
    Signature Algorithm: sha256WithRSAEncryption
        Issuer: CN=CALCUTTACA_CA, C=IN, O=CITRIX, OU=ANG, ST=KA/emailAddress=CALCUTTACA_CA@CALCUTTACA_mail.com
        Validity
            Not Before: Aug 23 10:15:52 2017 GMT
            Not After : Aug 21 10:15:52 2027 GMT
        Subject: ST=KA, C=IN, CN=calcutta_15_client/emailAddress=calcutta_15@test_ca.com, O=CITRIX
        Subject Public Key Info:
            Public Key Algorithm: rsaEncryption
                Public-Key: (2048 bit)
                Modulus:
                    00:b1:92:5b:0d:b7:52:8e:ae:21:5b:9a:b5:f2:43:
                    a4:0e:ef:33:f9:6a:17:20:71:57:54:33:81:d6:8c:
                    a8:34:b0:a1:bc:9b:9c:84:e4:76:75:33:c1:df:b6:
                    0b:f4:63:7c:95:93:fd:b7:7d:69:6c:2b:4c:3d:61:
                    83:cd:da:fc:d0:59:65:be:cb:a2:37:49:3f:de:33:
                    9f:30:2d:d4:10:ac:0f:99:1f:48:e3:9c:11:9e:93:
                    08:2e:c1:73:70:27:1e:a4:ff:a5:64:54:52:f2:91:
                    7c:de:ea:de:2b:c3:52:9c:db:f8:87:62:3a:85:4d:
                    59:5b:cf:6c:eb:d4:e9:fa:8f:0a:5b:ee:39:3a:6a:
                    da:f9:26:76:25:af:ab:1a:2a:f1:8f:9d:68:68:7f:
                    9c:1d:ab:7d:da:c1:c7:d2:61:15:ff:2c:8d:1b:3e:
                    9f:b3:c5:25:d1:3b:3c:e1:c4:e8:f3:9e:62:f7:c6:
                    6c:fd:04:76:fe:df:96:bf:84:fb:79:22:5b:34:64:
                    de:8a:3f:7c:dc:54:1b:55:56:0d:0a:e7:f9:5f:4f:
                    bb:0a:45:51:33:f7:cc:67:51:8b:d8:d2:a7:c9:d1:
                    35:88:ab:f1:48:47:d4:bb:d6:9b:58:8e:41:66:19:
                    b2:e1:e4:26:93:ff:30:a8:2a:a8:18:ac:50:05:e8:
                    73:b7
                Exponent: 65537 (0x10001)
        X509v3 extensions:
            Netscape Cert Type: 
                SSL Client
            X509v3 Subject Key Identifier: 
                F3:8C:A9:7F:2B:CD:50:A8:F1:D2:BE:CF:7D:F1:DC:A3:74:64:75:70
            X509v3 Authority Key Identifier: 
                keyid:37:2E:7B:27:46:4B:CF:47:10:AC:2B:2E:BA:D0:F3:66:75:EB:52:75
                DirName:/CN=CALCUTTACA_CA/C=IN/O=CITRIX/OU=ANG/ST=KA/emailAddress=CALCUTTACA_CA@CALCUTTACA_mail.com
                serial:A5:C6:47:0E:E6:06:37:18

            Authority Information Access: 
                OCSP - URI:http://172.18.20.1/responderpath

    Signature Algorithm: sha256WithRSAEncryption
         35:05:4b:09:fc:e4:f6:9b:1e:43:63:63:a5:ce:58:e8:6b:98:
         7b:ba:d4:e1:cd:bf:81:61:10:c8:ec:00:72:ab:33:9b:cd:6c:
         dc:c5:3f:a6:0f:95:95:2f:9a:35:44:b2:37:0c:56:a6:1f:23:
         05:4c:03:0b:49:49:98:4e:be:f5:57:88:3a:9d:f1:0d:a6:9c:
         f8:8f:f5:96:62:a0:16:6e:64:0c:f4:2a:f4:c1:50:57:0e:c0:
         4a:8e:8a:dd:61:e1:8a:2d:a1:78:4b:4a:42:87:50:de:29:cf:
         01:e4:73:d7:c2:a1:d4:57:bc:4a:2c:21:4a:85:f3:7f:04:98:
         00:57:e7:21:b6:c0:a9:7a:85:bc:f9:13:cc:8a:28:24:56:cc:
         48:fd:a6:a5:81:7b:a6:f9:2e:50:24:26:cf:f9:d2:72:1d:0a:
         ee:37:8f:16:79:35:b3:4f:82:e7:e2:9c:a9:7c:83:7b:c8:07:
         51:25:88:f0:fd:21:a1:95:dd:14:b6:d2:ef:d9:11:aa:09:83:
         66:48:bc:f3:55:40:90:ab:92:9f:0c:0d:27:af:f8:d8:2f:6a:
         10:97:11:c4:b2:e4:6e:6f:fa:90:d4:02:a8:b2:ca:34:5c:a5:
         c1:21:15:94:fc:89:9f:db:02:e3:9e:61:62:41:23:9b:3b:9b:
         9b:4c:17:43
-----BEGIN CERTIFICATE-----
MIIEpTCCA42gAwIBAgIGCgsMDQ5FMA0GCSqGSIb3DQEBCwUAMIGDMRYwFAYDVQQD
FA1DQUxDVVRUQUNBX0NBMQswCQYDVQQGEwJJTjEPMA0GA1UEChMGQ0lUUklYMQww
CgYDVQQLEwNBTkcxCzAJBgNVBAgTAktBMTAwLgYJKoZIhvcNAQkBFiFDQUxDVVRU
QUNBX0NBQENBTENVVFRBQ0FfbWFpbC5jb20wHhcNMTcwODIzMTAxNTUyWhcNMjcw
ODIxMTAxNTUyWjBwMQswCQYDVQQIEwJLQTELMAkGA1UEBhMCSU4xGzAZBgNVBAMU
EmNhbGN1dHRhXzE1X2NsaWVudDEmMCQGCSqGSIb3DQEJARYXY2FsY3V0dGFfMTVA
dGVzdF9jYS5jb20xDzANBgNVBAoTBkNJVFJJWDCCASIwDQYJKoZIhvcNAQEBBQAD
ggEPADCCAQoCggEBALGSWw23Uo6uIVuatfJDpA7vM/lqFyBxV1QzgdaMqDSwobyb
nITkdnUzwd+2C/RjfJWT/bd9aWwrTD1hg83a/NBZZb7LojdJP94znzAt1BCsD5kf
SOOcEZ6TCC7Bc3AnHqT/pWRUUvKRfN7q3ivDUpzb+IdiOoVNWVvPbOvU6fqPClvu
OTpq2vkmdiWvqxoq8Y+daGh/nB2rfdrBx9JhFf8sjRs+n7PFJdE7POHE6POeYvfG
bP0Edv7flr+E+3kiWzRk3oo/fNxUG1VWDQrn+V9PuwpFUTP3zGdRi9jSp8nRNYir
8UhH1LvWm1iOQWYZsuHkJpP/MKgqqBisUAXoc7cCAwEAAaOCAS8wggErMBEGCWCG
SAGG+EIBAQQEAwIHgDAdBgNVHQ4EFgQU84ypfyvNUKjx0r7PffHco3RkdXAwgbgG
A1UdIwSBsDCBrYAUNy57J0ZLz0cQrCsuutDzZnXrUnWhgYmkgYYwgYMxFjAUBgNV
BAMUDUNBTENVVFRBQ0FfQ0ExCzAJBgNVBAYTAklOMQ8wDQYDVQQKEwZDSVRSSVgx
DDAKBgNVBAsTA0FORzELMAkGA1UECBMCS0ExMDAuBgkqhkiG9w0BCQEWIUNBTENV
VFRBQ0FfQ0FAQ0FMQ1VUVEFDQV9tYWlsLmNvbYIJAKXGRw7mBjcYMDwGCCsGAQUF
BwEBBDAwLjAsBggrBgEFBQcwAYYgaHR0cDovLzE3Mi4xOC4yMC4xL3Jlc3BvbmRl
cnBhdGgwDQYJKoZIhvcNAQELBQADggEBADUFSwn85PabHkNjY6XOWOhrmHu61OHN
v4FhEMjsAHKrM5vNbNzFP6YPlZUvmjVEsjcMVqYfIwVMAwtJSZhOvvVXiDqd8Q2m
nPiP9ZZioBZuZAz0KvTBUFcOwEqOit1h4YotoXhLSkKHUN4pzwHkc9fCodRXvEos
IUqF838EmABX5yG2wKl6hbz5E8yKKCRWzEj9pqWBe6b5LlAkJs/50nIdCu43jxZ5
NbNPgufinKl8g3vIB1EliPD9IaGV3RS20u/ZEaoJg2ZIvPNVQJCrkp8MDSev+Ngv
ahCXEcSy5G5v+pDUAqiyyjRcpcEhFZT8iZ/bAuOeYWJBI5s7m5tMF0M=
-----END CERTIFICATE-----
