Certificate:
    Data:
        Version: 3 (0x2)
        Serial Number: 11042563100247 (0xa0b0c0d0e57)
    Signature Algorithm: sha256WithRSAEncryption
        Issuer: CN=CALCUTTACA_CA, C=IN, O=CITRIX, OU=ANG, ST=KA/emailAddress=CALCUTTACA_CA@CALCUTTACA_mail.com
        Validity
            Not Before: Aug 23 10:16:04 2017 GMT
            Not After : Aug 21 10:16:04 2027 GMT
        Subject: ST=KA, C=IN, CN=calcutta_33_client/emailAddress=calcutta_33@test_ca.com, O=CITRIX
        Subject Public Key Info:
            Public Key Algorithm: rsaEncryption
                Public-Key: (2048 bit)
                Modulus:
                    00:b4:42:16:b8:ab:9f:61:eb:a2:0f:91:a3:13:3f:
                    7a:3a:60:a8:a8:3c:bc:30:97:72:b1:00:17:79:4d:
                    64:92:0d:4b:9c:ca:e8:d2:34:5a:5d:ec:3d:0e:51:
                    44:e4:c1:1b:53:4c:c2:47:99:6e:37:62:ee:f8:26:
                    1d:53:2a:a4:f3:05:6b:fd:32:8a:3d:40:47:a9:00:
                    4f:fd:33:3f:0d:61:ff:b1:f0:f1:3b:ed:5a:f5:6a:
                    bf:bf:bf:aa:01:f8:ea:57:e9:4d:39:af:a4:3d:96:
                    ad:74:5f:61:62:47:a3:3c:22:df:6b:35:21:1d:c6:
                    a4:ca:49:45:fc:c5:dd:ca:f1:ea:74:70:da:aa:fc:
                    38:c7:dd:3c:ac:31:55:6e:f3:e6:2c:66:9e:d2:03:
                    5d:7a:40:e1:61:87:2d:28:0e:51:35:f7:48:f1:4b:
                    13:bb:93:69:d2:7e:bd:bf:de:91:bb:9d:57:7e:c4:
                    85:ab:80:66:4b:0d:92:cd:7d:cf:13:3b:d3:c9:1d:
                    aa:0a:a8:19:1b:27:4a:9b:97:9c:4d:8f:29:38:69:
                    07:49:e4:ba:f0:cf:55:da:a0:6a:94:62:4e:4b:9f:
                    93:4f:3c:e5:b6:84:32:05:49:8b:ea:44:63:af:93:
                    29:1b:7d:8b:1d:43:6e:5d:94:06:e2:3b:41:e5:98:
                    3e:a1
                Exponent: 65537 (0x10001)
        X509v3 extensions:
            Netscape Cert Type: 
                SSL Client
            X509v3 Subject Key Identifier: 
                E5:9D:55:F1:8F:7E:E1:EF:85:F2:50:67:50:07:EE:43:B1:DC:50:FB
            X509v3 Authority Key Identifier: 
                keyid:37:2E:7B:27:46:4B:CF:47:10:AC:2B:2E:BA:D0:F3:66:75:EB:52:75
                DirName:/CN=CALCUTTACA_CA/C=IN/O=CITRIX/OU=ANG/ST=KA/emailAddress=CALCUTTACA_CA@CALCUTTACA_mail.com
                serial:A5:C6:47:0E:E6:06:37:18

            Authority Information Access: 
                OCSP - URI:http://172.18.20.1/responderpath

    Signature Algorithm: sha256WithRSAEncryption
         55:7d:4a:5b:73:b7:5b:89:d8:59:7a:00:d7:cc:63:bc:03:4a:
         4e:43:f7:0b:a3:91:89:42:61:0e:d5:e7:1c:a3:e3:d3:68:79:
         80:ab:4f:90:b8:24:bc:8f:21:88:ae:b7:74:d3:e6:09:67:30:
         84:d0:84:e7:45:09:0a:8d:2a:29:16:06:02:46:19:2c:b3:6c:
         28:52:48:ed:79:b6:29:7b:ec:a6:ae:a9:5c:68:f2:55:a6:9c:
         a1:8a:c9:55:42:58:ee:1b:0c:2d:dc:f6:8a:1a:67:2d:3c:69:
         5b:0f:57:08:32:dc:9b:03:56:f3:35:74:cc:c2:c1:cf:18:93:
         96:80:53:11:bc:24:3d:cd:be:0a:6e:5e:6a:1d:d2:1e:0f:09:
         e9:30:50:5b:b2:a3:32:c0:d0:e9:6a:4f:0c:7a:58:6f:40:4c:
         7e:0a:aa:a3:1c:e3:c0:f7:c2:02:bc:73:9b:8d:e1:b0:d7:71:
         0b:49:fe:b0:fb:2d:03:32:1c:3f:79:25:44:b1:a3:df:a2:81:
         1f:c6:77:6c:e5:45:65:42:4a:68:87:af:8b:5a:9e:3e:61:05:
         8d:b2:91:b9:f0:3b:b3:21:6c:64:90:19:4e:2f:f9:e9:ff:b3:
         04:77:b7:bd:c6:ff:82:58:11:20:87:09:72:be:f5:7a:7d:37:
         d7:e2:7c:ae
-----BEGIN CERTIFICATE-----
MIIEpTCCA42gAwIBAgIGCgsMDQ5XMA0GCSqGSIb3DQEBCwUAMIGDMRYwFAYDVQQD
FA1DQUxDVVRUQUNBX0NBMQswCQYDVQQGEwJJTjEPMA0GA1UEChMGQ0lUUklYMQww
CgYDVQQLEwNBTkcxCzAJBgNVBAgTAktBMTAwLgYJKoZIhvcNAQkBFiFDQUxDVVRU
QUNBX0NBQENBTENVVFRBQ0FfbWFpbC5jb20wHhcNMTcwODIzMTAxNjA0WhcNMjcw
ODIxMTAxNjA0WjBwMQswCQYDVQQIEwJLQTELMAkGA1UEBhMCSU4xGzAZBgNVBAMU
EmNhbGN1dHRhXzMzX2NsaWVudDEmMCQGCSqGSIb3DQEJARYXY2FsY3V0dGFfMzNA
dGVzdF9jYS5jb20xDzANBgNVBAoTBkNJVFJJWDCCASIwDQYJKoZIhvcNAQEBBQAD
ggEPADCCAQoCggEBALRCFrirn2Hrog+RoxM/ejpgqKg8vDCXcrEAF3lNZJINS5zK
6NI0Wl3sPQ5RROTBG1NMwkeZbjdi7vgmHVMqpPMFa/0yij1AR6kAT/0zPw1h/7Hw
8TvtWvVqv7+/qgH46lfpTTmvpD2WrXRfYWJHozwi32s1IR3GpMpJRfzF3crx6nRw
2qr8OMfdPKwxVW7z5ixmntIDXXpA4WGHLSgOUTX3SPFLE7uTadJ+vb/ekbudV37E
hauAZksNks19zxM708kdqgqoGRsnSpuXnE2PKThpB0nkuvDPVdqgapRiTkufk088
5baEMgVJi+pEY6+TKRt9ix1Dbl2UBuI7QeWYPqECAwEAAaOCAS8wggErMBEGCWCG
SAGG+EIBAQQEAwIHgDAdBgNVHQ4EFgQU5Z1V8Y9+4e+F8lBnUAfuQ7HcUPswgbgG
A1UdIwSBsDCBrYAUNy57J0ZLz0cQrCsuutDzZnXrUnWhgYmkgYYwgYMxFjAUBgNV
BAMUDUNBTENVVFRBQ0FfQ0ExCzAJBgNVBAYTAklOMQ8wDQYDVQQKEwZDSVRSSVgx
DDAKBgNVBAsTA0FORzELMAkGA1UECBMCS0ExMDAuBgkqhkiG9w0BCQEWIUNBTENV
VFRBQ0FfQ0FAQ0FMQ1VUVEFDQV9tYWlsLmNvbYIJAKXGRw7mBjcYMDwGCCsGAQUF
BwEBBDAwLjAsBggrBgEFBQcwAYYgaHR0cDovLzE3Mi4xOC4yMC4xL3Jlc3BvbmRl
cnBhdGgwDQYJKoZIhvcNAQELBQADggEBAFV9Sltzt1uJ2Fl6ANfMY7wDSk5D9wuj
kYlCYQ7V5xyj49NoeYCrT5C4JLyPIYiut3TT5glnMITQhOdFCQqNKikWBgJGGSyz
bChSSO15til77KauqVxo8lWmnKGKyVVCWO4bDC3c9ooaZy08aVsPVwgy3JsDVvM1
dMzCwc8Yk5aAUxG8JD3NvgpuXmod0h4PCekwUFuyozLA0OlqTwx6WG9ATH4KqqMc
48D3wgK8c5uN4bDXcQtJ/rD7LQMyHD95JUSxo9+igR/Gd2zlRWVCSmiHr4tanj5h
BY2ykbnwO7MhbGSQGU4v+en/swR3t73G/4JYESCHCXK+9Xp9N9fifK4=
-----END CERTIFICATE-----
