Certificate:
    Data:
        Version: 3 (0x2)
        Serial Number: 11042563100251 (0xa0b0c0d0e5b)
    Signature Algorithm: sha256WithRSAEncryption
        Issuer: CN=CALCUTTACA_CA, C=IN, O=CITRIX, OU=ANG, ST=KA/emailAddress=CALCUTTACA_CA@CALCUTTACA_mail.com
        Validity
            Not Before: Aug 23 10:16:09 2017 GMT
            Not After : Aug 21 10:16:09 2027 GMT
        Subject: ST=KA, C=IN, CN=calcutta_37_client/emailAddress=calcutta_37@test_ca.com, O=CITRIX
        Subject Public Key Info:
            Public Key Algorithm: rsaEncryption
                Public-Key: (2048 bit)
                Modulus:
                    00:cd:0a:36:0f:b2:87:6e:03:fa:7b:93:9c:3d:d4:
                    49:45:e6:6c:a1:a9:82:87:d8:3c:33:cf:cc:e4:cf:
                    5f:5c:de:31:21:61:ef:37:29:b2:92:aa:31:74:84:
                    d0:23:27:22:36:99:74:0d:3b:88:11:3a:72:e4:51:
                    cc:dc:4d:d5:25:d3:83:c2:b6:ec:9f:9a:50:a0:4b:
                    ce:86:40:59:f3:c5:f5:f0:7e:01:95:fa:2e:c7:c6:
                    79:d7:11:aa:ba:80:1f:67:cd:6e:8b:d8:ab:74:24:
                    e1:ec:63:7f:e0:a0:65:bb:a7:38:43:66:21:bc:0b:
                    51:78:8d:49:a1:ae:56:b8:84:52:ac:6c:5e:5a:5c:
                    6f:76:61:29:ff:9e:b4:06:13:fc:2b:14:9b:be:9c:
                    9b:0e:d6:ec:1b:b6:30:db:2c:d9:f9:13:48:84:71:
                    39:ee:4a:38:a2:ee:cd:62:f8:da:c0:0b:86:39:13:
                    1c:27:56:57:37:07:4d:5f:23:34:96:ec:5a:c6:7a:
                    80:c9:bb:25:8d:e7:09:da:cb:a5:ca:43:49:19:6b:
                    e8:37:e2:f2:50:ef:88:06:52:8b:ef:15:f5:b1:28:
                    23:a5:8d:02:7b:54:e6:3b:7a:d7:c3:74:1a:67:38:
                    df:33:35:56:0b:99:ac:d2:29:df:21:8d:3a:07:c8:
                    94:39
                Exponent: 65537 (0x10001)
        X509v3 extensions:
            Netscape Cert Type: 
                SSL Client
            X509v3 Subject Key Identifier: 
                8E:2B:A7:76:14:92:66:C8:9A:9F:B5:C9:84:19:E6:D1:51:F9:B8:A6
            X509v3 Authority Key Identifier: 
                keyid:37:2E:7B:27:46:4B:CF:47:10:AC:2B:2E:BA:D0:F3:66:75:EB:52:75
                DirName:/CN=CALCUTTACA_CA/C=IN/O=CITRIX/OU=ANG/ST=KA/emailAddress=CALCUTTACA_CA@CALCUTTACA_mail.com
                serial:A5:C6:47:0E:E6:06:37:18

            Authority Information Access: 
                OCSP - URI:http://172.18.20.1/responderpath

    Signature Algorithm: sha256WithRSAEncryption
         a2:42:71:26:f6:f5:fd:07:40:3e:b6:b9:dc:f1:b3:6b:ce:82:
         7f:37:62:e7:21:c9:d7:44:51:ba:66:09:4c:17:94:dc:90:4d:
         c7:fc:a4:91:f9:49:36:ce:dc:42:56:67:2e:e9:12:65:ce:2d:
         60:30:34:b8:1b:23:b8:e7:c9:fa:e0:09:18:de:3a:55:41:d0:
         1d:25:8c:8b:2e:c3:69:bb:0f:5d:1c:50:28:4b:75:89:ca:c6:
         69:8d:83:97:81:45:80:a8:c9:1c:71:f9:81:a8:2a:06:62:01:
         88:2c:db:d4:1d:34:b5:1e:45:15:9e:2c:cd:aa:00:b8:05:b9:
         7b:b2:b1:1c:91:f2:86:82:95:2d:b6:3c:8d:24:ee:b8:9b:39:
         45:e7:08:b2:8d:99:96:56:2b:6d:c4:d2:34:3d:43:20:ab:19:
         c6:ea:03:f3:c0:50:f2:04:e7:48:29:8f:2b:2d:7d:99:fa:9e:
         3c:68:2b:4d:8a:76:1d:01:99:a1:8b:b4:95:f2:e4:ad:09:4b:
         1b:32:46:c5:b8:c5:e1:9e:85:55:36:62:e5:3d:70:cd:61:18:
         b7:a8:74:55:a1:68:a7:fe:ea:8e:40:b5:07:3d:99:60:60:93:
         83:ac:98:35:87:e9:0d:be:ec:d5:38:cd:88:00:69:de:41:c5:
         12:b3:81:76
-----BEGIN CERTIFICATE-----
MIIEpTCCA42gAwIBAgIGCgsMDQ5bMA0GCSqGSIb3DQEBCwUAMIGDMRYwFAYDVQQD
FA1DQUxDVVRUQUNBX0NBMQswCQYDVQQGEwJJTjEPMA0GA1UEChMGQ0lUUklYMQww
CgYDVQQLEwNBTkcxCzAJBgNVBAgTAktBMTAwLgYJKoZIhvcNAQkBFiFDQUxDVVRU
QUNBX0NBQENBTENVVFRBQ0FfbWFpbC5jb20wHhcNMTcwODIzMTAxNjA5WhcNMjcw
ODIxMTAxNjA5WjBwMQswCQYDVQQIEwJLQTELMAkGA1UEBhMCSU4xGzAZBgNVBAMU
EmNhbGN1dHRhXzM3X2NsaWVudDEmMCQGCSqGSIb3DQEJARYXY2FsY3V0dGFfMzdA
dGVzdF9jYS5jb20xDzANBgNVBAoTBkNJVFJJWDCCASIwDQYJKoZIhvcNAQEBBQAD
ggEPADCCAQoCggEBAM0KNg+yh24D+nuTnD3USUXmbKGpgofYPDPPzOTPX1zeMSFh
7zcpspKqMXSE0CMnIjaZdA07iBE6cuRRzNxN1SXTg8K27J+aUKBLzoZAWfPF9fB+
AZX6LsfGedcRqrqAH2fNbovYq3Qk4exjf+CgZbunOENmIbwLUXiNSaGuVriEUqxs
Xlpcb3ZhKf+etAYT/CsUm76cmw7W7Bu2MNss2fkTSIRxOe5KOKLuzWL42sALhjkT
HCdWVzcHTV8jNJbsWsZ6gMm7JY3nCdrLpcpDSRlr6Dfi8lDviAZSi+8V9bEoI6WN
AntU5jt618N0Gmc43zM1VguZrNIp3yGNOgfIlDkCAwEAAaOCAS8wggErMBEGCWCG
SAGG+EIBAQQEAwIHgDAdBgNVHQ4EFgQUjiundhSSZsian7XJhBnm0VH5uKYwgbgG
A1UdIwSBsDCBrYAUNy57J0ZLz0cQrCsuutDzZnXrUnWhgYmkgYYwgYMxFjAUBgNV
BAMUDUNBTENVVFRBQ0FfQ0ExCzAJBgNVBAYTAklOMQ8wDQYDVQQKEwZDSVRSSVgx
DDAKBgNVBAsTA0FORzELMAkGA1UECBMCS0ExMDAuBgkqhkiG9w0BCQEWIUNBTENV
VFRBQ0FfQ0FAQ0FMQ1VUVEFDQV9tYWlsLmNvbYIJAKXGRw7mBjcYMDwGCCsGAQUF
BwEBBDAwLjAsBggrBgEFBQcwAYYgaHR0cDovLzE3Mi4xOC4yMC4xL3Jlc3BvbmRl
cnBhdGgwDQYJKoZIhvcNAQELBQADggEBAKJCcSb29f0HQD62udzxs2vOgn83Yuch
yddEUbpmCUwXlNyQTcf8pJH5STbO3EJWZy7pEmXOLWAwNLgbI7jnyfrgCRjeOlVB
0B0ljIsuw2m7D10cUChLdYnKxmmNg5eBRYCoyRxx+YGoKgZiAYgs29QdNLUeRRWe
LM2qALgFuXuysRyR8oaClS22PI0k7ribOUXnCLKNmZZWK23E0jQ9QyCrGcbqA/PA
UPIE50gpjystfZn6njxoK02Kdh0BmaGLtJXy5K0JSxsyRsW4xeGehVU2YuU9cM1h
GLeodFWhaKf+6o5AtQc9mWBgk4OsmDWH6Q2+7NU4zYgAad5BxRKzgXY=
-----END CERTIFICATE-----
