Certificate:
    Data:
        Version: 3 (0x2)
        Serial Number: 11042563100261 (0xa0b0c0d0e65)
    Signature Algorithm: sha256WithRSAEncryption
        Issuer: CN=CALCUTTACA_CA, C=IN, O=CITRIX, OU=ANG, ST=KA/emailAddress=CALCUTTACA_CA@CALCUTTACA_mail.com
        Validity
            Not Before: Aug 23 10:16:13 2017 GMT
            Not After : Aug 21 10:16:13 2027 GMT
        Subject: ST=KA, C=IN, CN=calcutta_47_client/emailAddress=calcutta_47@test_ca.com, O=CITRIX
        Subject Public Key Info:
            Public Key Algorithm: rsaEncryption
                Public-Key: (2048 bit)
                Modulus:
                    00:bc:9f:d2:8d:bc:a6:fd:63:45:02:9a:3f:13:6c:
                    92:9e:86:f6:89:ce:71:e5:02:aa:5d:8e:d4:5e:e7:
                    5f:4c:d6:10:0b:c7:58:9c:10:86:af:61:e0:73:f4:
                    e7:86:65:b9:bc:45:44:12:25:16:ab:ab:c3:f5:40:
                    ec:2e:c6:f6:6f:46:d5:aa:39:6e:92:58:96:fc:84:
                    b4:22:77:f9:3a:7b:ca:25:67:6d:81:09:20:ab:8f:
                    56:70:51:9f:4e:f8:7b:4b:e7:63:70:32:64:ed:11:
                    63:d0:fb:eb:e9:2f:55:6f:bb:b4:f7:33:71:ac:38:
                    cf:9d:2f:7c:8b:31:51:0a:99:79:2a:f2:5a:c3:08:
                    01:e5:58:64:6a:b0:5e:f8:e2:26:25:46:f5:fa:9c:
                    0b:01:a1:50:98:07:0c:88:7d:e1:71:81:20:d3:ab:
                    1e:a5:92:f1:4e:a0:7e:e3:a8:76:fe:52:cd:40:d8:
                    4c:b7:e4:0a:ea:02:db:ca:2e:31:a3:71:9b:10:e9:
                    f5:9f:4f:2f:91:60:5c:02:71:ff:cc:05:e5:98:f3:
                    d1:03:3b:71:95:ac:8f:02:e5:06:ef:ad:ca:2e:8c:
                    49:6c:32:80:c2:e1:de:46:3c:85:b7:ec:ae:6d:7e:
                    bf:1c:dd:c6:b6:c0:b5:ce:ad:bc:00:8a:c8:f7:0b:
                    bb:9b
                Exponent: 65537 (0x10001)
        X509v3 extensions:
            Netscape Cert Type: 
                SSL Client
            X509v3 Subject Key Identifier: 
                92:DF:52:D7:8D:84:6D:1C:51:8F:B2:B4:A1:C2:EC:D0:C5:12:5E:A3
            X509v3 Authority Key Identifier: 
                keyid:37:2E:7B:27:46:4B:CF:47:10:AC:2B:2E:BA:D0:F3:66:75:EB:52:75
                DirName:/CN=CALCUTTACA_CA/C=IN/O=CITRIX/OU=ANG/ST=KA/emailAddress=CALCUTTACA_CA@CALCUTTACA_mail.com
                serial:A5:C6:47:0E:E6:06:37:18

            Authority Information Access: 
                OCSP - URI:http://172.18.20.1/responderpath

    Signature Algorithm: sha256WithRSAEncryption
         dd:88:09:34:cb:2f:bf:12:be:a4:73:1f:b5:d4:4e:5d:91:8b:
         70:ea:88:de:a7:b2:53:b9:91:18:24:e8:99:ab:cb:49:7c:11:
         e2:9d:cf:76:09:2a:3b:19:12:ef:53:c9:57:7a:ad:1e:68:70:
         9d:f1:76:eb:20:4f:a8:5e:5f:27:e4:3c:68:44:6f:9f:b5:ce:
         50:67:9b:a0:71:33:4c:60:97:d3:ac:de:2f:2b:bf:41:88:77:
         e2:a0:dd:3f:dd:f7:8d:2e:6c:21:0a:9e:c0:fe:6c:b3:7e:11:
         91:78:a4:50:2f:da:da:ad:f1:e4:eb:4e:85:a8:6a:33:30:9a:
         6e:32:18:32:53:1b:50:a8:d7:2e:c6:53:90:92:91:ba:a3:f7:
         a4:80:ae:f4:ea:df:aa:d3:66:f1:41:33:33:6d:b7:90:91:0d:
         11:50:bd:e1:cd:7d:42:72:4c:ae:3e:6f:32:ad:58:2b:e8:c1:
         d6:0e:b3:d7:bc:6e:ab:7f:2b:e3:35:6d:da:1f:b9:c6:28:3b:
         24:54:02:3c:3e:fb:cf:f2:35:09:c8:ab:61:83:18:cd:1a:ce:
         5b:0b:7a:1a:d6:7d:cf:b8:98:ee:ad:17:f4:c9:d7:b1:a1:18:
         e3:de:e3:46:3f:57:2d:6b:6d:49:74:00:b7:c3:4f:a8:00:7a:
         b4:7d:34:a6
-----BEGIN CERTIFICATE-----
MIIEpTCCA42gAwIBAgIGCgsMDQ5lMA0GCSqGSIb3DQEBCwUAMIGDMRYwFAYDVQQD
FA1DQUxDVVRUQUNBX0NBMQswCQYDVQQGEwJJTjEPMA0GA1UEChMGQ0lUUklYMQww
CgYDVQQLEwNBTkcxCzAJBgNVBAgTAktBMTAwLgYJKoZIhvcNAQkBFiFDQUxDVVRU
QUNBX0NBQENBTENVVFRBQ0FfbWFpbC5jb20wHhcNMTcwODIzMTAxNjEzWhcNMjcw
ODIxMTAxNjEzWjBwMQswCQYDVQQIEwJLQTELMAkGA1UEBhMCSU4xGzAZBgNVBAMU
EmNhbGN1dHRhXzQ3X2NsaWVudDEmMCQGCSqGSIb3DQEJARYXY2FsY3V0dGFfNDdA
dGVzdF9jYS5jb20xDzANBgNVBAoTBkNJVFJJWDCCASIwDQYJKoZIhvcNAQEBBQAD
ggEPADCCAQoCggEBALyf0o28pv1jRQKaPxNskp6G9onOceUCql2O1F7nX0zWEAvH
WJwQhq9h4HP054ZlubxFRBIlFqurw/VA7C7G9m9G1ao5bpJYlvyEtCJ3+Tp7yiVn
bYEJIKuPVnBRn074e0vnY3AyZO0RY9D76+kvVW+7tPczcaw4z50vfIsxUQqZeSry
WsMIAeVYZGqwXvjiJiVG9fqcCwGhUJgHDIh94XGBINOrHqWS8U6gfuOodv5SzUDY
TLfkCuoC28ouMaNxmxDp9Z9PL5FgXAJx/8wF5Zjz0QM7cZWsjwLlBu+tyi6MSWwy
gMLh3kY8hbfsrm1+vxzdxrbAtc6tvACKyPcLu5sCAwEAAaOCAS8wggErMBEGCWCG
SAGG+EIBAQQEAwIHgDAdBgNVHQ4EFgQUkt9S142EbRxRj7K0ocLs0MUSXqMwgbgG
A1UdIwSBsDCBrYAUNy57J0ZLz0cQrCsuutDzZnXrUnWhgYmkgYYwgYMxFjAUBgNV
BAMUDUNBTENVVFRBQ0FfQ0ExCzAJBgNVBAYTAklOMQ8wDQYDVQQKEwZDSVRSSVgx
DDAKBgNVBAsTA0FORzELMAkGA1UECBMCS0ExMDAuBgkqhkiG9w0BCQEWIUNBTENV
VFRBQ0FfQ0FAQ0FMQ1VUVEFDQV9tYWlsLmNvbYIJAKXGRw7mBjcYMDwGCCsGAQUF
BwEBBDAwLjAsBggrBgEFBQcwAYYgaHR0cDovLzE3Mi4xOC4yMC4xL3Jlc3BvbmRl
cnBhdGgwDQYJKoZIhvcNAQELBQADggEBAN2ICTTLL78SvqRzH7XUTl2Ri3DqiN6n
slO5kRgk6Jmry0l8EeKdz3YJKjsZEu9TyVd6rR5ocJ3xdusgT6heXyfkPGhEb5+1
zlBnm6BxM0xgl9Os3i8rv0GId+Kg3T/d940ubCEKnsD+bLN+EZF4pFAv2tqt8eTr
ToWoajMwmm4yGDJTG1Co1y7GU5CSkbqj96SArvTq36rTZvFBMzNtt5CRDRFQveHN
fUJyTK4+bzKtWCvowdYOs9e8bqt/K+M1bdofucYoOyRUAjw++8/yNQnIq2GDGM0a
zlsLehrWfc+4mO6tF/TJ17GhGOPe40Y/Vy1rbUl0ALfDT6gAerR9NKY=
-----END CERTIFICATE-----
