Certificate:
    Data:
        Version: 3 (0x2)
        Serial Number: 11042563100219 (0xa0b0c0d0e3b)
    Signature Algorithm: sha256WithRSAEncryption
        Issuer: CN=CALCUTTACA_CA, C=IN, O=CITRIX, OU=ANG, ST=KA/emailAddress=CALCUTTACA_CA@CALCUTTACA_mail.com
        Validity
            Not Before: Aug 23 10:15:47 2017 GMT
            Not After : Aug 21 10:15:47 2027 GMT
        Subject: ST=KA, C=IN, CN=calcutta_5_client/emailAddress=calcutta_5@test_ca.com, O=CITRIX
        Subject Public Key Info:
            Public Key Algorithm: rsaEncryption
                Public-Key: (2048 bit)
                Modulus:
                    00:ca:20:1a:ce:ff:35:3f:2e:a4:7a:91:fa:35:e2:
                    42:70:90:33:eb:02:2b:b3:60:67:20:56:31:57:93:
                    d2:79:c5:fc:4e:95:f3:25:65:34:7a:2e:52:a8:d9:
                    00:7f:ef:ba:82:68:43:24:d0:1b:49:92:9e:ea:3c:
                    4b:b4:cb:39:06:1e:0f:da:d5:cc:8c:7f:49:dd:b7:
                    ce:c4:dc:d7:a9:a6:c0:a3:ed:c3:15:96:17:7a:f8:
                    79:ea:30:24:90:b8:3a:02:d4:8d:f2:75:6b:50:c2:
                    19:fe:42:68:88:d1:3c:01:0b:6f:c6:8b:35:77:86:
                    cd:f8:f2:4a:67:97:3a:47:c9:10:e4:a4:b0:21:dc:
                    2a:fa:92:a1:eb:7c:ab:04:c9:ee:f4:83:37:a1:c3:
                    2d:6d:ad:c2:41:b3:2c:15:7d:61:98:be:41:a7:d2:
                    94:99:bc:60:16:84:a0:ef:00:d3:ed:70:e5:e1:a4:
                    36:1a:9a:9e:58:b7:0b:fe:72:47:02:8d:5c:02:c7:
                    2b:0c:cd:f2:6d:7a:ee:3f:48:11:41:88:81:53:11:
                    be:4e:6a:8e:75:9f:e0:70:05:96:62:af:db:a3:d3:
                    05:82:98:6d:fd:62:5e:1e:4a:f6:21:28:06:0e:fc:
                    c8:42:d4:e2:9a:df:8c:be:84:1b:e9:6a:14:27:95:
                    27:7f
                Exponent: 65537 (0x10001)
        X509v3 extensions:
            Netscape Cert Type: 
                SSL Client
            X509v3 Subject Key Identifier: 
                29:B8:45:63:8C:64:42:C7:84:23:B2:08:02:69:4A:06:73:FC:A6:E2
            X509v3 Authority Key Identifier: 
                keyid:37:2E:7B:27:46:4B:CF:47:10:AC:2B:2E:BA:D0:F3:66:75:EB:52:75
                DirName:/CN=CALCUTTACA_CA/C=IN/O=CITRIX/OU=ANG/ST=KA/emailAddress=CALCUTTACA_CA@CALCUTTACA_mail.com
                serial:A5:C6:47:0E:E6:06:37:18

            Authority Information Access: 
                OCSP - URI:http://172.18.20.1/responderpath

    Signature Algorithm: sha256WithRSAEncryption
         01:f6:69:b1:63:94:5a:0a:54:64:9f:4f:ab:37:f5:a9:96:55:
         01:df:17:65:ee:ed:2f:72:02:2a:07:f1:9d:ef:b0:c3:d5:b7:
         15:84:57:d0:9d:bb:73:b0:12:64:71:de:b7:6a:8c:93:d0:2e:
         f3:a9:e4:f4:6a:cb:98:68:d8:dc:c2:b1:d8:3b:75:13:4c:6c:
         62:4c:f1:36:b1:06:fe:bc:79:c4:a8:b5:ad:e2:46:e1:14:63:
         dc:52:e9:19:06:83:82:2d:04:fc:72:fe:43:aa:15:67:9a:9f:
         2f:4f:3a:e7:bd:c3:fc:97:20:85:70:c7:5c:d5:41:b4:f5:f2:
         74:a8:36:f7:fe:d3:ed:3f:e2:a9:0c:c1:60:be:b7:53:1b:e5:
         31:81:5f:64:c7:19:8b:d3:cc:51:f8:54:5e:66:e3:33:05:3d:
         2d:29:f5:15:de:2f:f5:73:ed:3f:a3:54:56:68:7f:4e:79:0a:
         d5:9b:c0:8d:43:d1:98:a7:03:a2:9b:82:52:d4:0a:14:42:e2:
         e1:00:f2:2a:ce:a4:02:cf:38:0b:7a:1b:ca:96:e1:48:c9:79:
         d8:78:44:28:a8:d3:e2:44:9b:22:f9:ba:03:19:a8:a1:7e:dd:
         64:a3:59:76:40:25:cf:32:f5:2d:dd:23:22:ea:80:d0:58:f8:
         19:cb:33:68
-----BEGIN CERTIFICATE-----
MIIEozCCA4ugAwIBAgIGCgsMDQ47MA0GCSqGSIb3DQEBCwUAMIGDMRYwFAYDVQQD
FA1DQUxDVVRUQUNBX0NBMQswCQYDVQQGEwJJTjEPMA0GA1UEChMGQ0lUUklYMQww
CgYDVQQLEwNBTkcxCzAJBgNVBAgTAktBMTAwLgYJKoZIhvcNAQkBFiFDQUxDVVRU
QUNBX0NBQENBTENVVFRBQ0FfbWFpbC5jb20wHhcNMTcwODIzMTAxNTQ3WhcNMjcw
ODIxMTAxNTQ3WjBuMQswCQYDVQQIEwJLQTELMAkGA1UEBhMCSU4xGjAYBgNVBAMU
EWNhbGN1dHRhXzVfY2xpZW50MSUwIwYJKoZIhvcNAQkBFhZjYWxjdXR0YV81QHRl
c3RfY2EuY29tMQ8wDQYDVQQKEwZDSVRSSVgwggEiMA0GCSqGSIb3DQEBAQUAA4IB
DwAwggEKAoIBAQDKIBrO/zU/LqR6kfo14kJwkDPrAiuzYGcgVjFXk9J5xfxOlfMl
ZTR6LlKo2QB/77qCaEMk0BtJkp7qPEu0yzkGHg/a1cyMf0ndt87E3NeppsCj7cMV
lhd6+HnqMCSQuDoC1I3ydWtQwhn+QmiI0TwBC2/GizV3hs348kpnlzpHyRDkpLAh
3Cr6kqHrfKsEye70gzehwy1trcJBsywVfWGYvkGn0pSZvGAWhKDvANPtcOXhpDYa
mp5Ytwv+ckcCjVwCxysMzfJteu4/SBFBiIFTEb5Oao51n+BwBZZir9uj0wWCmG39
Yl4eSvYhKAYO/MhC1OKa34y+hBvpahQnlSd/AgMBAAGjggEvMIIBKzARBglghkgB
hvhCAQEEBAMCB4AwHQYDVR0OBBYEFCm4RWOMZELHhCOyCAJpSgZz/KbiMIG4BgNV
HSMEgbAwga2AFDcueydGS89HEKwrLrrQ82Z161J1oYGJpIGGMIGDMRYwFAYDVQQD
FA1DQUxDVVRUQUNBX0NBMQswCQYDVQQGEwJJTjEPMA0GA1UEChMGQ0lUUklYMQww
CgYDVQQLEwNBTkcxCzAJBgNVBAgTAktBMTAwLgYJKoZIhvcNAQkBFiFDQUxDVVRU
QUNBX0NBQENBTENVVFRBQ0FfbWFpbC5jb22CCQClxkcO5gY3GDA8BggrBgEFBQcB
AQQwMC4wLAYIKwYBBQUHMAGGIGh0dHA6Ly8xNzIuMTguMjAuMS9yZXNwb25kZXJw
YXRoMA0GCSqGSIb3DQEBCwUAA4IBAQAB9mmxY5RaClRkn0+rN/WpllUB3xdl7u0v
cgIqB/Gd77DD1bcVhFfQnbtzsBJkcd63aoyT0C7zqeT0asuYaNjcwrHYO3UTTGxi
TPE2sQb+vHnEqLWt4kbhFGPcUukZBoOCLQT8cv5DqhVnmp8vTzrnvcP8lyCFcMdc
1UG09fJ0qDb3/tPtP+KpDMFgvrdTG+UxgV9kxxmL08xR+FReZuMzBT0tKfUV3i/1
c+0/o1RWaH9OeQrVm8CNQ9GYpwOim4JS1AoUQuLhAPIqzqQCzzgLehvKluFIyXnY
eEQoqNPiRJsi+boDGaihft1ko1l2QCXPMvUt3SMi6oDQWPgZyzNo
-----END CERTIFICATE-----
