Certificate:
    Data:
        Version: 3 (0x2)
        Serial Number: 11042563100231 (0xa0b0c0d0e47)
    Signature Algorithm: sha256WithRSAEncryption
        Issuer: CN=CALCUTTACA_CA, C=IN, O=CITRIX, OU=ANG, ST=KA/emailAddress=CALCUTTACA_CA@CALCUTTACA_mail.com
        Validity
            Not Before: Aug 23 10:15:53 2017 GMT
            Not After : Aug 21 10:15:53 2027 GMT
        Subject: ST=KA, C=IN, CN=calcutta_17_client/emailAddress=calcutta_17@test_ca.com, O=CITRIX
        Subject Public Key Info:
            Public Key Algorithm: rsaEncryption
                Public-Key: (2048 bit)
                Modulus:
                    00:b5:4b:7a:fc:fc:cd:25:0c:fd:64:01:c7:33:26:
                    7c:d2:3d:00:82:00:21:0c:22:0c:3f:7a:cc:f1:75:
                    65:8d:03:6e:33:ed:49:d9:e6:9c:c2:f6:8d:fa:78:
                    e3:02:53:f2:bd:30:9e:b8:98:a2:7f:89:92:44:32:
                    47:72:04:4b:0c:38:93:d3:20:bd:d1:16:76:b2:8e:
                    cd:fb:77:eb:96:ee:64:3b:8b:46:89:e7:50:33:8e:
                    41:e1:7a:56:9e:09:44:d6:c5:85:71:74:4d:f9:bb:
                    70:bb:e2:e7:d9:4e:77:29:31:b4:4f:09:97:70:29:
                    99:08:5f:c9:07:38:e4:92:73:af:2a:fc:8f:27:17:
                    70:25:3a:d1:10:fe:a9:19:16:11:13:40:1b:40:8c:
                    6c:a0:8a:b3:c9:7b:03:79:fb:dd:64:09:d6:1e:d5:
                    82:10:cb:a5:db:a1:ac:63:f3:e3:c9:5d:7d:1d:cd:
                    6d:1b:35:01:32:59:ce:62:de:66:a2:c7:41:25:9f:
                    80:33:0f:d3:2b:f5:af:51:bc:aa:b7:49:d3:9c:e2:
                    47:ed:80:0c:56:93:33:2c:76:0f:9f:00:21:25:a2:
                    15:24:c0:c3:6b:12:9a:ff:14:64:5c:5b:aa:2d:3f:
                    08:ba:1a:32:eb:09:09:fd:27:7f:71:2f:7f:b0:e4:
                    91:8f
                Exponent: 65537 (0x10001)
        X509v3 extensions:
            Netscape Cert Type: 
                SSL Client
            X509v3 Subject Key Identifier: 
                CF:9D:46:FC:54:B6:D5:1A:CD:5C:ED:18:74:B5:FF:B1:12:16:EC:F3
            X509v3 Authority Key Identifier: 
                keyid:37:2E:7B:27:46:4B:CF:47:10:AC:2B:2E:BA:D0:F3:66:75:EB:52:75
                DirName:/CN=CALCUTTACA_CA/C=IN/O=CITRIX/OU=ANG/ST=KA/emailAddress=CALCUTTACA_CA@CALCUTTACA_mail.com
                serial:A5:C6:47:0E:E6:06:37:18

            Authority Information Access: 
                OCSP - URI:http://172.18.20.1/responderpath

    Signature Algorithm: sha256WithRSAEncryption
         4d:e0:b2:b8:3a:6f:1f:64:c8:55:a6:7d:d9:e7:0e:9a:32:a5:
         c3:ea:7d:85:4e:de:55:49:fe:84:ba:9c:63:57:1a:6f:f4:d8:
         3e:12:b5:01:cd:db:91:3e:8b:0f:f3:a1:6e:71:e3:ab:0d:b4:
         b1:55:1c:99:97:3d:12:f4:91:93:25:98:8a:1a:cf:f4:e1:d2:
         08:ac:d4:64:ce:45:2e:23:6f:d7:48:9b:b4:19:18:8b:fa:ba:
         7e:aa:92:31:ea:a2:16:f3:16:0e:0f:12:28:4d:39:76:c9:47:
         c7:58:54:6f:23:19:b1:02:91:be:94:73:c3:39:f9:c8:5f:63:
         6b:4d:59:76:23:91:34:a6:62:45:1f:7a:7c:a3:af:6f:32:57:
         0e:48:a1:2e:48:e0:3d:c5:7b:27:60:55:04:c7:d5:ff:e5:94:
         29:cb:da:7d:dc:4b:39:1f:a2:26:39:a2:90:eb:18:e2:50:bf:
         a4:8a:15:c7:a8:d3:c8:7e:b7:f7:34:22:44:b6:df:5a:a3:63:
         de:59:f7:b4:13:93:4b:36:97:8a:bc:51:32:f8:f7:e7:23:93:
         a8:ff:46:ee:a3:95:a8:cb:4a:51:b4:33:aa:91:7f:c3:65:5b:
         3e:f5:ae:af:e7:cd:47:32:a7:86:74:1c:ff:f5:36:81:27:06:
         97:58:8d:90
-----BEGIN CERTIFICATE-----
MIIEpTCCA42gAwIBAgIGCgsMDQ5HMA0GCSqGSIb3DQEBCwUAMIGDMRYwFAYDVQQD
FA1DQUxDVVRUQUNBX0NBMQswCQYDVQQGEwJJTjEPMA0GA1UEChMGQ0lUUklYMQww
CgYDVQQLEwNBTkcxCzAJBgNVBAgTAktBMTAwLgYJKoZIhvcNAQkBFiFDQUxDVVRU
QUNBX0NBQENBTENVVFRBQ0FfbWFpbC5jb20wHhcNMTcwODIzMTAxNTUzWhcNMjcw
ODIxMTAxNTUzWjBwMQswCQYDVQQIEwJLQTELMAkGA1UEBhMCSU4xGzAZBgNVBAMU
EmNhbGN1dHRhXzE3X2NsaWVudDEmMCQGCSqGSIb3DQEJARYXY2FsY3V0dGFfMTdA
dGVzdF9jYS5jb20xDzANBgNVBAoTBkNJVFJJWDCCASIwDQYJKoZIhvcNAQEBBQAD
ggEPADCCAQoCggEBALVLevz8zSUM/WQBxzMmfNI9AIIAIQwiDD96zPF1ZY0DbjPt
SdnmnML2jfp44wJT8r0wnriYon+JkkQyR3IESww4k9MgvdEWdrKOzft365buZDuL
RonnUDOOQeF6Vp4JRNbFhXF0Tfm7cLvi59lOdykxtE8Jl3ApmQhfyQc45JJzryr8
jycXcCU60RD+qRkWERNAG0CMbKCKs8l7A3n73WQJ1h7VghDLpduhrGPz48ldfR3N
bRs1ATJZzmLeZqLHQSWfgDMP0yv1r1G8qrdJ05ziR+2ADFaTMyx2D58AISWiFSTA
w2sSmv8UZFxbqi0/CLoaMusJCf0nf3Evf7DkkY8CAwEAAaOCAS8wggErMBEGCWCG
SAGG+EIBAQQEAwIHgDAdBgNVHQ4EFgQUz51G/FS21RrNXO0YdLX/sRIW7PMwgbgG
A1UdIwSBsDCBrYAUNy57J0ZLz0cQrCsuutDzZnXrUnWhgYmkgYYwgYMxFjAUBgNV
BAMUDUNBTENVVFRBQ0FfQ0ExCzAJBgNVBAYTAklOMQ8wDQYDVQQKEwZDSVRSSVgx
DDAKBgNVBAsTA0FORzELMAkGA1UECBMCS0ExMDAuBgkqhkiG9w0BCQEWIUNBTENV
VFRBQ0FfQ0FAQ0FMQ1VUVEFDQV9tYWlsLmNvbYIJAKXGRw7mBjcYMDwGCCsGAQUF
BwEBBDAwLjAsBggrBgEFBQcwAYYgaHR0cDovLzE3Mi4xOC4yMC4xL3Jlc3BvbmRl
cnBhdGgwDQYJKoZIhvcNAQELBQADggEBAE3gsrg6bx9kyFWmfdnnDpoypcPqfYVO
3lVJ/oS6nGNXGm/02D4StQHN25E+iw/zoW5x46sNtLFVHJmXPRL0kZMlmIoaz/Th
0gis1GTORS4jb9dIm7QZGIv6un6qkjHqohbzFg4PEihNOXbJR8dYVG8jGbECkb6U
c8M5+chfY2tNWXYjkTSmYkUfenyjr28yVw5IoS5I4D3FeydgVQTH1f/llCnL2n3c
SzkfoiY5opDrGOJQv6SKFceo08h+t/c0IkS231qjY95Z97QTk0s2l4q8UTL49+cj
k6j/Ru6jlajLSlG0M6qRf8NlWz71rq/nzUcyp4Z0HP/1NoEnBpdYjZA=
-----END CERTIFICATE-----
