Certificate:
    Data:
        Version: 3 (0x2)
        Serial Number: 11042563100249 (0xa0b0c0d0e59)
    Signature Algorithm: sha256WithRSAEncryption
        Issuer: CN=CALCUTTACA_CA, C=IN, O=CITRIX, OU=ANG, ST=KA/emailAddress=CALCUTTACA_CA@CALCUTTACA_mail.com
        Validity
            Not Before: Aug 23 10:16:05 2017 GMT
            Not After : Aug 21 10:16:05 2027 GMT
        Subject: ST=KA, C=IN, CN=calcutta_35_client/emailAddress=calcutta_35@test_ca.com, O=CITRIX
        Subject Public Key Info:
            Public Key Algorithm: rsaEncryption
                Public-Key: (2048 bit)
                Modulus:
                    00:d3:79:9d:23:7c:2b:eb:68:11:1d:f0:6e:cc:4a:
                    37:12:17:bd:f4:7b:6c:d6:44:af:59:d2:d8:b6:f2:
                    ab:b6:47:e8:25:6b:94:e2:06:56:12:75:de:23:2c:
                    d9:79:3f:11:78:fc:2b:ac:7a:58:c9:7a:e1:dc:40:
                    43:d7:55:55:84:f7:c3:7a:61:10:04:92:c7:38:ed:
                    c9:31:81:41:a9:4e:38:05:b1:29:ef:57:12:59:c3:
                    4b:35:70:43:02:88:88:1d:4d:7e:fd:b5:6c:fc:60:
                    3b:b6:f2:a0:3c:ea:86:a6:be:44:d3:b8:c5:cc:3f:
                    a0:0c:da:76:e2:3d:c4:c0:09:44:f6:c2:a4:f2:57:
                    fc:00:92:af:15:76:a3:06:6f:55:fd:41:10:57:df:
                    6e:04:53:9f:97:97:04:d5:d1:37:30:80:71:9f:c6:
                    de:4b:1b:2a:9f:5e:14:ca:81:20:6e:8d:f8:45:d1:
                    2f:11:eb:84:be:f4:b2:73:d6:ea:00:6f:e7:66:83:
                    07:01:64:35:39:d3:b1:ae:6a:7d:94:8e:8a:ea:5c:
                    8a:a9:bd:cd:3c:2a:05:bf:8d:29:98:c6:b3:ba:87:
                    fe:18:79:78:d9:e2:e8:0a:36:9a:41:c3:85:02:45:
                    c8:9c:9a:ac:3f:54:a4:de:4b:f0:ef:60:df:9e:1d:
                    19:d1
                Exponent: 65537 (0x10001)
        X509v3 extensions:
            Netscape Cert Type: 
                SSL Client
            X509v3 Subject Key Identifier: 
                38:C0:36:C5:E8:A6:BC:9A:E0:C0:FE:F6:3C:25:66:0F:B0:F6:45:B6
            X509v3 Authority Key Identifier: 
                keyid:37:2E:7B:27:46:4B:CF:47:10:AC:2B:2E:BA:D0:F3:66:75:EB:52:75
                DirName:/CN=CALCUTTACA_CA/C=IN/O=CITRIX/OU=ANG/ST=KA/emailAddress=CALCUTTACA_CA@CALCUTTACA_mail.com
                serial:A5:C6:47:0E:E6:06:37:18

            Authority Information Access: 
                OCSP - URI:http://172.18.20.1/responderpath

    Signature Algorithm: sha256WithRSAEncryption
         9d:6a:d9:cc:79:87:23:cd:9f:58:d8:08:ac:89:bc:5f:53:ed:
         91:3c:63:89:b0:5a:0a:ed:d4:66:46:bd:5d:41:88:05:3b:f4:
         a6:26:21:36:48:56:ac:36:76:04:38:74:75:67:d0:1d:73:c8:
         11:c5:80:a3:03:74:63:2e:e6:7d:0f:1e:a7:8a:00:23:66:ed:
         bf:d8:87:dd:bd:62:53:9a:10:24:d9:25:62:a3:17:a3:2a:32:
         a7:e2:6b:4c:44:93:1d:b6:82:c8:19:d6:a5:5d:5c:2c:13:b9:
         92:4e:a6:8a:65:b6:d3:4b:97:d3:5c:ef:f6:7a:96:ea:e9:b2:
         c5:c5:9d:61:8d:3d:d8:09:f1:be:2d:3c:3e:2c:cc:1f:e1:0b:
         23:c0:e1:a1:fe:e0:19:31:3f:77:14:48:42:d5:33:f8:38:ad:
         02:63:7d:61:fb:88:73:6b:2a:37:54:ab:b1:42:13:87:7d:9c:
         61:1f:d5:cb:8d:6f:8f:b3:b0:29:2b:bd:c3:6b:9b:b7:db:30:
         0c:ea:ff:f5:0f:8a:bf:f2:ce:83:45:ea:93:bd:cf:c3:40:bd:
         fc:9d:1f:05:3b:cc:9f:e2:99:7c:03:f9:74:7a:bb:db:76:dd:
         c4:0d:02:4d:e8:0c:e6:3f:0c:17:35:46:52:59:ac:6d:bd:23:
         6b:cc:73:be
-----BEGIN CERTIFICATE-----
MIIEpTCCA42gAwIBAgIGCgsMDQ5ZMA0GCSqGSIb3DQEBCwUAMIGDMRYwFAYDVQQD
FA1DQUxDVVRUQUNBX0NBMQswCQYDVQQGEwJJTjEPMA0GA1UEChMGQ0lUUklYMQww
CgYDVQQLEwNBTkcxCzAJBgNVBAgTAktBMTAwLgYJKoZIhvcNAQkBFiFDQUxDVVRU
QUNBX0NBQENBTENVVFRBQ0FfbWFpbC5jb20wHhcNMTcwODIzMTAxNjA1WhcNMjcw
ODIxMTAxNjA1WjBwMQswCQYDVQQIEwJLQTELMAkGA1UEBhMCSU4xGzAZBgNVBAMU
EmNhbGN1dHRhXzM1X2NsaWVudDEmMCQGCSqGSIb3DQEJARYXY2FsY3V0dGFfMzVA
dGVzdF9jYS5jb20xDzANBgNVBAoTBkNJVFJJWDCCASIwDQYJKoZIhvcNAQEBBQAD
ggEPADCCAQoCggEBANN5nSN8K+toER3wbsxKNxIXvfR7bNZEr1nS2Lbyq7ZH6CVr
lOIGVhJ13iMs2Xk/EXj8K6x6WMl64dxAQ9dVVYT3w3phEASSxzjtyTGBQalOOAWx
Ke9XElnDSzVwQwKIiB1Nfv21bPxgO7byoDzqhqa+RNO4xcw/oAzaduI9xMAJRPbC
pPJX/ACSrxV2owZvVf1BEFffbgRTn5eXBNXRNzCAcZ/G3ksbKp9eFMqBIG6N+EXR
LxHrhL70snPW6gBv52aDBwFkNTnTsa5qfZSOiupciqm9zTwqBb+NKZjGs7qH/hh5
eNni6Ao2mkHDhQJFyJyarD9UpN5L8O9g354dGdECAwEAAaOCAS8wggErMBEGCWCG
SAGG+EIBAQQEAwIHgDAdBgNVHQ4EFgQUOMA2xeimvJrgwP72PCVmD7D2RbYwgbgG
A1UdIwSBsDCBrYAUNy57J0ZLz0cQrCsuutDzZnXrUnWhgYmkgYYwgYMxFjAUBgNV
BAMUDUNBTENVVFRBQ0FfQ0ExCzAJBgNVBAYTAklOMQ8wDQYDVQQKEwZDSVRSSVgx
DDAKBgNVBAsTA0FORzELMAkGA1UECBMCS0ExMDAuBgkqhkiG9w0BCQEWIUNBTENV
VFRBQ0FfQ0FAQ0FMQ1VUVEFDQV9tYWlsLmNvbYIJAKXGRw7mBjcYMDwGCCsGAQUF
BwEBBDAwLjAsBggrBgEFBQcwAYYgaHR0cDovLzE3Mi4xOC4yMC4xL3Jlc3BvbmRl
cnBhdGgwDQYJKoZIhvcNAQELBQADggEBAJ1q2cx5hyPNn1jYCKyJvF9T7ZE8Y4mw
Wgrt1GZGvV1BiAU79KYmITZIVqw2dgQ4dHVn0B1zyBHFgKMDdGMu5n0PHqeKACNm
7b/Yh929YlOaECTZJWKjF6MqMqfia0xEkx22gsgZ1qVdXCwTuZJOpoplttNLl9Nc
7/Z6lurpssXFnWGNPdgJ8b4tPD4szB/hCyPA4aH+4BkxP3cUSELVM/g4rQJjfWH7
iHNrKjdUq7FCE4d9nGEf1cuNb4+zsCkrvcNrm7fbMAzq//UPir/yzoNF6pO9z8NA
vfydHwU7zJ/imXwD+XR6u9t23cQNAk3oDOY/DBc1RlJZrG29I2vMc74=
-----END CERTIFICATE-----
