Certificate:
    Data:
        Version: 3 (0x2)
        Serial Number: 11042563100235 (0xa0b0c0d0e4b)
    Signature Algorithm: sha256WithRSAEncryption
        Issuer: CN=CALCUTTACA_CA, C=IN, O=CITRIX, OU=ANG, ST=KA/emailAddress=CALCUTTACA_CA@CALCUTTACA_mail.com
        Validity
            Not Before: Aug 23 10:15:55 2017 GMT
            Not After : Aug 21 10:15:55 2027 GMT
        Subject: ST=KA, C=IN, CN=calcutta_21_client/emailAddress=calcutta_21@test_ca.com, O=CITRIX
        Subject Public Key Info:
            Public Key Algorithm: rsaEncryption
                Public-Key: (2048 bit)
                Modulus:
                    00:ce:b7:7a:0e:88:b2:99:eb:cf:32:6b:1a:ef:99:
                    c8:69:b9:ac:8a:a7:c1:19:d9:35:35:56:f3:8d:62:
                    60:9c:70:9e:51:67:6c:37:1e:c9:0a:d4:66:bf:57:
                    50:5b:23:de:e1:bc:54:2a:b9:0f:30:a7:3f:ad:b1:
                    f0:9a:60:68:08:f3:d8:35:6d:ed:f0:0e:59:10:9a:
                    ce:54:2d:70:26:0c:d9:c0:42:ba:17:a1:76:4c:0a:
                    f9:1d:8f:6f:2b:07:5f:00:a1:d6:8b:72:e0:7b:66:
                    65:5f:98:ba:29:30:30:ea:85:04:ef:c6:63:9a:f7:
                    f2:1b:02:03:2d:4f:54:11:1f:37:a8:72:f0:61:63:
                    3e:cb:7a:16:ef:a4:17:c1:db:f1:54:29:1b:cc:e0:
                    5d:1b:e5:f2:fc:08:aa:59:5f:55:dc:d0:d2:2b:67:
                    ca:4c:b2:50:01:4e:68:65:30:d3:4a:1c:d7:2d:90:
                    5c:f6:63:bf:d9:8f:ab:3f:c9:0b:80:b9:9c:2b:dd:
                    97:8e:68:7a:84:a3:59:99:15:08:03:f0:d9:a8:10:
                    e5:aa:ff:58:86:a3:73:f2:26:7e:dd:a8:5b:1a:9e:
                    18:33:31:a5:28:d7:82:1c:c8:88:07:b6:70:de:ff:
                    d2:a6:e2:fd:93:14:bd:d3:35:9e:43:a2:e0:68:1c:
                    94:eb
                Exponent: 65537 (0x10001)
        X509v3 extensions:
            Netscape Cert Type: 
                SSL Client
            X509v3 Subject Key Identifier: 
                3E:B5:67:E9:63:B1:DC:67:16:50:C8:2A:0C:DA:41:A7:AF:03:A8:7D
            X509v3 Authority Key Identifier: 
                keyid:37:2E:7B:27:46:4B:CF:47:10:AC:2B:2E:BA:D0:F3:66:75:EB:52:75
                DirName:/CN=CALCUTTACA_CA/C=IN/O=CITRIX/OU=ANG/ST=KA/emailAddress=CALCUTTACA_CA@CALCUTTACA_mail.com
                serial:A5:C6:47:0E:E6:06:37:18

            Authority Information Access: 
                OCSP - URI:http://172.18.20.1/responderpath

    Signature Algorithm: sha256WithRSAEncryption
         08:04:79:97:53:5f:41:34:d1:02:18:e2:d2:cc:86:fd:3a:b7:
         e4:6c:81:b4:dd:24:da:69:52:1b:64:c2:8b:59:28:2b:54:17:
         f6:c8:bd:4b:2d:35:2f:37:a3:7f:8f:2e:56:ad:13:c1:fb:41:
         b5:1d:98:68:ff:73:b9:7d:37:b2:8e:5d:5d:fa:2a:87:de:41:
         9f:0c:6f:75:1a:32:60:e6:f5:e0:d1:ad:d4:97:13:bc:6a:58:
         da:ac:b3:f8:f4:26:96:ea:e3:92:7a:8f:e3:3e:fe:74:b0:dd:
         ff:6f:f8:33:1c:ae:10:76:93:be:5f:1c:a4:a9:03:6a:1d:92:
         00:6b:c4:a0:db:45:ab:a4:1e:87:22:b1:a0:bd:8c:b3:01:55:
         03:fc:b4:dd:a3:2a:f5:f8:aa:14:16:fa:1f:b8:68:06:9e:b5:
         6c:ce:e8:4e:05:d8:ad:90:ef:c1:9f:47:c6:5c:34:95:fc:7e:
         5c:19:db:65:20:4c:c5:39:52:b1:70:30:75:ac:15:27:de:14:
         8d:d8:71:34:09:93:a7:d7:37:dc:9b:07:ea:0f:a7:a0:59:20:
         32:9f:74:04:77:97:27:95:0d:f8:58:f9:cc:ec:de:7f:b5:c5:
         aa:85:3d:60:a1:05:98:40:84:23:6a:2c:08:c7:2a:dd:0d:84:
         8b:5e:52:09
-----BEGIN CERTIFICATE-----
MIIEpTCCA42gAwIBAgIGCgsMDQ5LMA0GCSqGSIb3DQEBCwUAMIGDMRYwFAYDVQQD
FA1DQUxDVVRUQUNBX0NBMQswCQYDVQQGEwJJTjEPMA0GA1UEChMGQ0lUUklYMQww
CgYDVQQLEwNBTkcxCzAJBgNVBAgTAktBMTAwLgYJKoZIhvcNAQkBFiFDQUxDVVRU
QUNBX0NBQENBTENVVFRBQ0FfbWFpbC5jb20wHhcNMTcwODIzMTAxNTU1WhcNMjcw
ODIxMTAxNTU1WjBwMQswCQYDVQQIEwJLQTELMAkGA1UEBhMCSU4xGzAZBgNVBAMU
EmNhbGN1dHRhXzIxX2NsaWVudDEmMCQGCSqGSIb3DQEJARYXY2FsY3V0dGFfMjFA
dGVzdF9jYS5jb20xDzANBgNVBAoTBkNJVFJJWDCCASIwDQYJKoZIhvcNAQEBBQAD
ggEPADCCAQoCggEBAM63eg6IspnrzzJrGu+ZyGm5rIqnwRnZNTVW841iYJxwnlFn
bDceyQrUZr9XUFsj3uG8VCq5DzCnP62x8JpgaAjz2DVt7fAOWRCazlQtcCYM2cBC
uhehdkwK+R2PbysHXwCh1oty4HtmZV+YuikwMOqFBO/GY5r38hsCAy1PVBEfN6hy
8GFjPst6Fu+kF8Hb8VQpG8zgXRvl8vwIqllfVdzQ0itnykyyUAFOaGUw00oc1y2Q
XPZjv9mPqz/JC4C5nCvdl45oeoSjWZkVCAPw2agQ5ar/WIajc/Imft2oWxqeGDMx
pSjXghzIiAe2cN7/0qbi/ZMUvdM1nkOi4GgclOsCAwEAAaOCAS8wggErMBEGCWCG
SAGG+EIBAQQEAwIHgDAdBgNVHQ4EFgQUPrVn6WOx3GcWUMgqDNpBp68DqH0wgbgG
A1UdIwSBsDCBrYAUNy57J0ZLz0cQrCsuutDzZnXrUnWhgYmkgYYwgYMxFjAUBgNV
BAMUDUNBTENVVFRBQ0FfQ0ExCzAJBgNVBAYTAklOMQ8wDQYDVQQKEwZDSVRSSVgx
DDAKBgNVBAsTA0FORzELMAkGA1UECBMCS0ExMDAuBgkqhkiG9w0BCQEWIUNBTENV
VFRBQ0FfQ0FAQ0FMQ1VUVEFDQV9tYWlsLmNvbYIJAKXGRw7mBjcYMDwGCCsGAQUF
BwEBBDAwLjAsBggrBgEFBQcwAYYgaHR0cDovLzE3Mi4xOC4yMC4xL3Jlc3BvbmRl
cnBhdGgwDQYJKoZIhvcNAQELBQADggEBAAgEeZdTX0E00QIY4tLMhv06t+RsgbTd
JNppUhtkwotZKCtUF/bIvUstNS83o3+PLlatE8H7QbUdmGj/c7l9N7KOXV36Kofe
QZ8Mb3UaMmDm9eDRrdSXE7xqWNqss/j0Jpbq45J6j+M+/nSw3f9v+DMcrhB2k75f
HKSpA2odkgBrxKDbRaukHocisaC9jLMBVQP8tN2jKvX4qhQW+h+4aAaetWzO6E4F
2K2Q78GfR8ZcNJX8flwZ22UgTMU5UrFwMHWsFSfeFI3YcTQJk6fXN9ybB+oPp6BZ
IDKfdAR3lyeVDfhY+czs3n+1xaqFPWChBZhAhCNqLAjHKt0NhIteUgk=
-----END CERTIFICATE-----
