Certificate:
    Data:
        Version: 3 (0x2)
        Serial Number: 11042563100215 (0xa0b0c0d0e37)
    Signature Algorithm: sha256WithRSAEncryption
        Issuer: CN=CALCUTTACA_CA, C=IN, O=CITRIX, OU=ANG, ST=KA/emailAddress=CALCUTTACA_CA@CALCUTTACA_mail.com
        Validity
            Not Before: Aug 23 10:15:45 2017 GMT
            Not After : Aug 21 10:15:45 2027 GMT
        Subject: ST=KA, C=IN, CN=calcutta_1_client/emailAddress=calcutta_1@test_ca.com, O=CITRIX
        Subject Public Key Info:
            Public Key Algorithm: rsaEncryption
                Public-Key: (2048 bit)
                Modulus:
                    00:c3:df:d9:b4:b0:39:e0:5c:76:63:a0:3d:a1:de:
                    35:40:51:fd:42:37:9e:b4:24:85:51:6f:52:f1:76:
                    98:2b:cd:e3:97:2d:59:29:e6:f4:3d:5b:00:b9:96:
                    6e:7d:af:dd:24:ce:d9:6c:4a:bc:1c:54:f2:c4:4c:
                    df:44:55:b2:c7:05:fe:88:9b:0b:31:a3:1a:bf:2a:
                    9b:9e:bb:31:c7:7b:f1:be:7c:b2:fe:db:33:38:bf:
                    78:e8:84:54:f1:95:41:77:d2:3a:65:76:03:b8:5f:
                    c6:ee:aa:57:64:8f:71:11:a7:36:2a:1f:b0:30:af:
                    9f:32:54:36:12:ef:69:21:30:52:93:ed:a0:ff:68:
                    a8:13:0e:a3:eb:a1:a2:7d:4f:fa:8b:f6:61:b7:09:
                    12:7a:6a:d9:7a:14:5d:79:09:72:2e:98:5d:b1:a9:
                    9f:28:b0:dd:73:52:e8:bb:0f:9d:15:73:b7:16:9f:
                    a8:19:70:dc:0d:ea:f2:a6:4f:9a:a3:2b:dd:e4:07:
                    d4:fb:bc:c0:21:18:05:eb:a0:f9:be:62:8d:d2:11:
                    4d:a4:33:fe:89:93:38:d3:47:e3:85:2f:0a:e1:8d:
                    30:8d:f5:a0:ed:05:32:19:e3:d0:ae:f8:49:fb:d3:
                    43:a2:75:c3:ab:ea:b5:0c:0f:1f:8c:43:f4:db:28:
                    9b:95
                Exponent: 65537 (0x10001)
        X509v3 extensions:
            Netscape Cert Type: 
                SSL Client
            X509v3 Subject Key Identifier: 
                7E:7A:2F:12:59:5D:0C:F8:93:93:C0:BB:C0:6B:F4:48:3C:7E:FB:78
            X509v3 Authority Key Identifier: 
                keyid:37:2E:7B:27:46:4B:CF:47:10:AC:2B:2E:BA:D0:F3:66:75:EB:52:75
                DirName:/CN=CALCUTTACA_CA/C=IN/O=CITRIX/OU=ANG/ST=KA/emailAddress=CALCUTTACA_CA@CALCUTTACA_mail.com
                serial:A5:C6:47:0E:E6:06:37:18

            Authority Information Access: 
                OCSP - URI:http://172.18.20.1/responderpath

    Signature Algorithm: sha256WithRSAEncryption
         96:41:f7:5b:a1:dc:47:ba:12:65:76:3b:0f:f2:46:0a:8d:69:
         ff:19:48:e8:f1:83:6d:2f:d5:a2:0b:89:46:c3:41:b7:e9:50:
         4d:2d:a2:8c:1f:5f:2f:c2:7d:3c:71:18:aa:df:7f:a9:20:41:
         aa:c5:df:6f:0c:1b:14:48:29:fa:8b:eb:59:d9:24:89:83:d4:
         96:fb:aa:40:77:f8:46:d9:60:cf:10:a5:b1:cd:d0:57:fe:c7:
         74:c2:6c:6e:84:f5:ef:05:1e:68:a2:d0:94:c1:2f:d9:26:b5:
         82:24:a3:7c:75:f9:6a:46:38:0d:91:9c:f9:62:f3:ed:67:c0:
         e7:1b:e3:dc:c0:8f:27:95:1b:14:9c:7b:81:c1:b8:d2:9d:bb:
         b0:54:36:e7:b3:35:4f:4e:78:27:52:04:2f:05:3d:08:d3:e2:
         b6:07:de:07:b7:39:74:49:7f:39:0b:d7:6e:a8:f6:c8:fb:a0:
         18:f6:25:19:0b:c7:78:51:1c:b3:33:b7:e8:51:df:2b:1e:5f:
         ed:7e:e6:96:5a:ae:4f:12:47:60:86:de:4d:89:d0:1e:55:13:
         f3:41:ef:6c:7e:60:56:91:1a:9e:cf:e1:5c:e6:48:a7:8d:7e:
         3c:6c:c3:e4:35:bd:0a:39:7e:8d:e7:c3:0f:9a:18:0a:4e:57:
         31:67:e6:71
-----BEGIN CERTIFICATE-----
MIIEozCCA4ugAwIBAgIGCgsMDQ43MA0GCSqGSIb3DQEBCwUAMIGDMRYwFAYDVQQD
FA1DQUxDVVRUQUNBX0NBMQswCQYDVQQGEwJJTjEPMA0GA1UEChMGQ0lUUklYMQww
CgYDVQQLEwNBTkcxCzAJBgNVBAgTAktBMTAwLgYJKoZIhvcNAQkBFiFDQUxDVVRU
QUNBX0NBQENBTENVVFRBQ0FfbWFpbC5jb20wHhcNMTcwODIzMTAxNTQ1WhcNMjcw
ODIxMTAxNTQ1WjBuMQswCQYDVQQIEwJLQTELMAkGA1UEBhMCSU4xGjAYBgNVBAMU
EWNhbGN1dHRhXzFfY2xpZW50MSUwIwYJKoZIhvcNAQkBFhZjYWxjdXR0YV8xQHRl
c3RfY2EuY29tMQ8wDQYDVQQKEwZDSVRSSVgwggEiMA0GCSqGSIb3DQEBAQUAA4IB
DwAwggEKAoIBAQDD39m0sDngXHZjoD2h3jVAUf1CN560JIVRb1LxdpgrzeOXLVkp
5vQ9WwC5lm59r90kztlsSrwcVPLETN9EVbLHBf6Imwsxoxq/KpueuzHHe/G+fLL+
2zM4v3johFTxlUF30jpldgO4X8buqldkj3ERpzYqH7Awr58yVDYS72khMFKT7aD/
aKgTDqProaJ9T/qL9mG3CRJ6atl6FF15CXIumF2xqZ8osN1zUui7D50Vc7cWn6gZ
cNwN6vKmT5qjK93kB9T7vMAhGAXroPm+Yo3SEU2kM/6JkzjTR+OFLwrhjTCN9aDt
BTIZ49Cu+En700OidcOr6rUMDx+MQ/TbKJuVAgMBAAGjggEvMIIBKzARBglghkgB
hvhCAQEEBAMCB4AwHQYDVR0OBBYEFH56LxJZXQz4k5PAu8Br9Eg8fvt4MIG4BgNV
HSMEgbAwga2AFDcueydGS89HEKwrLrrQ82Z161J1oYGJpIGGMIGDMRYwFAYDVQQD
FA1DQUxDVVRUQUNBX0NBMQswCQYDVQQGEwJJTjEPMA0GA1UEChMGQ0lUUklYMQww
CgYDVQQLEwNBTkcxCzAJBgNVBAgTAktBMTAwLgYJKoZIhvcNAQkBFiFDQUxDVVRU
QUNBX0NBQENBTENVVFRBQ0FfbWFpbC5jb22CCQClxkcO5gY3GDA8BggrBgEFBQcB
AQQwMC4wLAYIKwYBBQUHMAGGIGh0dHA6Ly8xNzIuMTguMjAuMS9yZXNwb25kZXJw
YXRoMA0GCSqGSIb3DQEBCwUAA4IBAQCWQfdbodxHuhJldjsP8kYKjWn/GUjo8YNt
L9WiC4lGw0G36VBNLaKMH18vwn08cRiq33+pIEGqxd9vDBsUSCn6i+tZ2SSJg9SW
+6pAd/hG2WDPEKWxzdBX/sd0wmxuhPXvBR5ootCUwS/ZJrWCJKN8dflqRjgNkZz5
YvPtZ8DnG+PcwI8nlRsUnHuBwbjSnbuwVDbnszVPTngnUgQvBT0I0+K2B94Htzl0
SX85C9duqPbI+6AY9iUZC8d4URyzM7foUd8rHl/tfuaWWq5PEkdght5NidAeVRPz
Qe9sfmBWkRqez+Fc5kinjX48bMPkNb0KOX6N58MPmhgKTlcxZ+Zx
-----END CERTIFICATE-----
