Certificate:
    Data:
        Version: 3 (0x2)
        Serial Number: 11042563100256 (0xa0b0c0d0e60)
    Signature Algorithm: sha256WithRSAEncryption
        Issuer: CN=CALCUTTACA_CA, C=IN, O=CITRIX, OU=ANG, ST=KA/emailAddress=CALCUTTACA_CA@CALCUTTACA_mail.com
        Validity
            Not Before: Aug 23 10:16:11 2017 GMT
            Not After : Aug 21 10:16:11 2027 GMT
        Subject: ST=KA, C=IN, CN=calcutta_42_client/emailAddress=calcutta_42@test_ca.com, O=CITRIX
        Subject Public Key Info:
            Public Key Algorithm: rsaEncryption
                Public-Key: (2048 bit)
                Modulus:
                    00:e6:ad:b0:5e:2f:7a:1e:65:20:4d:0d:ee:eb:d3:
                    5f:8f:d9:fa:a9:5b:89:0b:d2:dd:fe:b6:a4:69:36:
                    8e:55:3a:56:dd:1d:a0:06:04:ab:04:bc:46:1d:d9:
                    94:f2:87:90:0a:95:4d:05:f4:0c:1c:95:cb:a8:80:
                    d7:ae:82:d6:0a:07:0d:d7:40:e3:74:01:67:65:08:
                    27:01:b7:c4:b8:64:b6:95:43:23:ce:05:1d:78:0f:
                    76:5b:e1:d5:5c:0f:2e:82:c7:60:e9:a1:d3:0e:49:
                    b9:ac:fb:a4:1e:c8:2b:5e:92:87:7b:7a:5f:8b:b4:
                    e0:11:f4:d6:8e:ad:9f:49:12:7e:09:31:9e:81:83:
                    3a:ba:5c:29:8c:ae:63:ad:c3:3c:0e:57:5c:cf:71:
                    9b:65:04:dc:f0:8d:dd:0a:27:c3:cf:68:0c:8e:6f:
                    8e:30:f7:f3:41:b7:1f:6f:81:4c:de:7e:0b:ba:dd:
                    9c:40:97:02:c8:9a:20:67:13:ce:cb:fb:33:2e:91:
                    e5:77:4a:68:dd:f7:44:f8:91:48:76:ac:f0:95:4c:
                    6b:98:dd:45:c8:58:42:7a:37:a1:42:21:61:f9:fa:
                    83:4e:ee:f1:27:e4:d9:f4:77:a9:d3:dd:96:e6:42:
                    44:72:47:83:ab:13:40:b1:64:43:02:35:bf:f3:d7:
                    f8:73
                Exponent: 65537 (0x10001)
        X509v3 extensions:
            Netscape Cert Type: 
                SSL Client
            X509v3 Subject Key Identifier: 
                60:03:A6:27:37:38:BE:3A:89:ED:65:6A:BE:B3:6B:1B:13:71:91:93
            X509v3 Authority Key Identifier: 
                keyid:37:2E:7B:27:46:4B:CF:47:10:AC:2B:2E:BA:D0:F3:66:75:EB:52:75
                DirName:/CN=CALCUTTACA_CA/C=IN/O=CITRIX/OU=ANG/ST=KA/emailAddress=CALCUTTACA_CA@CALCUTTACA_mail.com
                serial:A5:C6:47:0E:E6:06:37:18

            Authority Information Access: 
                OCSP - URI:http://172.18.20.1/responderpath

    Signature Algorithm: sha256WithRSAEncryption
         27:f1:30:0b:fe:45:83:41:8c:25:db:8e:c1:13:c4:b6:c9:ad:
         91:2a:1f:6f:f4:e4:be:47:c6:30:17:0a:72:06:c7:a9:03:e9:
         cc:04:93:ea:4f:dd:88:56:93:fe:02:c5:fb:83:dc:bc:e9:6d:
         47:b0:04:e5:44:bb:04:c1:de:a0:bc:70:ee:98:6d:83:9c:e7:
         a0:77:12:3a:4a:a7:b8:83:6b:75:ca:ec:98:65:dc:3a:b2:45:
         df:48:95:45:50:fd:cc:15:9c:27:19:a6:09:d1:d1:e9:83:48:
         52:cb:1b:c3:81:c4:2a:1b:3e:5a:f6:b5:41:d6:1c:d3:18:95:
         31:3e:c3:19:40:c7:70:a7:44:b8:35:34:5f:07:cd:5f:c8:b0:
         a4:7f:46:3a:0e:45:00:93:8f:81:74:5b:27:6f:6e:20:ad:6e:
         32:1d:c9:f6:c1:85:25:0b:d2:9b:fb:ac:29:7b:0c:65:8e:f2:
         dd:e1:16:50:0b:f1:0e:25:10:98:83:d0:5a:62:77:fd:30:4c:
         67:13:43:03:b7:6e:40:61:09:e6:71:bb:5e:c5:09:c9:c6:7f:
         9c:2e:60:69:72:47:f7:de:84:f1:6d:13:26:a9:09:8c:6f:9b:
         3a:c2:c8:96:a3:1b:b2:d1:f0:54:91:79:d2:ed:21:3d:da:02:
         f3:a6:f6:33
-----BEGIN CERTIFICATE-----
MIIEpTCCA42gAwIBAgIGCgsMDQ5gMA0GCSqGSIb3DQEBCwUAMIGDMRYwFAYDVQQD
FA1DQUxDVVRUQUNBX0NBMQswCQYDVQQGEwJJTjEPMA0GA1UEChMGQ0lUUklYMQww
CgYDVQQLEwNBTkcxCzAJBgNVBAgTAktBMTAwLgYJKoZIhvcNAQkBFiFDQUxDVVRU
QUNBX0NBQENBTENVVFRBQ0FfbWFpbC5jb20wHhcNMTcwODIzMTAxNjExWhcNMjcw
ODIxMTAxNjExWjBwMQswCQYDVQQIEwJLQTELMAkGA1UEBhMCSU4xGzAZBgNVBAMU
EmNhbGN1dHRhXzQyX2NsaWVudDEmMCQGCSqGSIb3DQEJARYXY2FsY3V0dGFfNDJA
dGVzdF9jYS5jb20xDzANBgNVBAoTBkNJVFJJWDCCASIwDQYJKoZIhvcNAQEBBQAD
ggEPADCCAQoCggEBAOatsF4veh5lIE0N7uvTX4/Z+qlbiQvS3f62pGk2jlU6Vt0d
oAYEqwS8Rh3ZlPKHkAqVTQX0DByVy6iA166C1goHDddA43QBZ2UIJwG3xLhktpVD
I84FHXgPdlvh1VwPLoLHYOmh0w5Juaz7pB7IK16Sh3t6X4u04BH01o6tn0kSfgkx
noGDOrpcKYyuY63DPA5XXM9xm2UE3PCN3Qonw89oDI5vjjD380G3H2+BTN5+C7rd
nECXAsiaIGcTzsv7My6R5XdKaN33RPiRSHas8JVMa5jdRchYQno3oUIhYfn6g07u
8Sfk2fR3qdPdluZCRHJHg6sTQLFkQwI1v/PX+HMCAwEAAaOCAS8wggErMBEGCWCG
SAGG+EIBAQQEAwIHgDAdBgNVHQ4EFgQUYAOmJzc4vjqJ7WVqvrNrGxNxkZMwgbgG
A1UdIwSBsDCBrYAUNy57J0ZLz0cQrCsuutDzZnXrUnWhgYmkgYYwgYMxFjAUBgNV
BAMUDUNBTENVVFRBQ0FfQ0ExCzAJBgNVBAYTAklOMQ8wDQYDVQQKEwZDSVRSSVgx
DDAKBgNVBAsTA0FORzELMAkGA1UECBMCS0ExMDAuBgkqhkiG9w0BCQEWIUNBTENV
VFRBQ0FfQ0FAQ0FMQ1VUVEFDQV9tYWlsLmNvbYIJAKXGRw7mBjcYMDwGCCsGAQUF
BwEBBDAwLjAsBggrBgEFBQcwAYYgaHR0cDovLzE3Mi4xOC4yMC4xL3Jlc3BvbmRl
cnBhdGgwDQYJKoZIhvcNAQELBQADggEBACfxMAv+RYNBjCXbjsETxLbJrZEqH2/0
5L5HxjAXCnIGx6kD6cwEk+pP3YhWk/4CxfuD3LzpbUewBOVEuwTB3qC8cO6YbYOc
56B3EjpKp7iDa3XK7Jhl3DqyRd9IlUVQ/cwVnCcZpgnR0emDSFLLG8OBxCobPlr2
tUHWHNMYlTE+wxlAx3CnRLg1NF8HzV/IsKR/RjoORQCTj4F0WydvbiCtbjIdyfbB
hSUL0pv7rCl7DGWO8t3hFlAL8Q4lEJiD0Fpid/0wTGcTQwO3bkBhCeZxu17FCcnG
f5wuYGlyR/fehPFtEyapCYxvmzrCyJajG7LR8FSRedLtIT3aAvOm9jM=
-----END CERTIFICATE-----
