Certificate:
    Data:
        Version: 3 (0x2)
        Serial Number: 11042563100230 (0xa0b0c0d0e46)
    Signature Algorithm: sha256WithRSAEncryption
        Issuer: CN=CALCUTTACA_CA, C=IN, O=CITRIX, OU=ANG, ST=KA/emailAddress=CALCUTTACA_CA@CALCUTTACA_mail.com
        Validity
            Not Before: Aug 23 10:15:52 2017 GMT
            Not After : Aug 21 10:15:52 2027 GMT
        Subject: ST=KA, C=IN, CN=calcutta_16_client/emailAddress=calcutta_16@test_ca.com, O=CITRIX
        Subject Public Key Info:
            Public Key Algorithm: rsaEncryption
                Public-Key: (2048 bit)
                Modulus:
                    00:d0:89:a1:9f:39:72:a3:29:db:5e:67:d0:75:66:
                    d3:e6:67:29:ed:ea:04:4b:ad:82:43:57:b1:39:22:
                    a5:9f:5f:5d:32:77:d3:94:fd:05:47:cb:0a:3d:90:
                    17:11:34:34:b1:78:ae:7b:ff:f2:9a:61:15:bd:b5:
                    65:89:bf:53:30:14:d8:20:6c:30:31:20:ce:87:c7:
                    91:5e:a8:0b:59:11:27:64:c4:f9:29:08:b2:17:0e:
                    9c:fc:b4:f3:5f:b9:51:d4:ae:bd:60:5a:5a:96:7d:
                    2f:65:dc:7b:ae:80:a3:19:cf:83:ec:3d:bd:ba:ac:
                    ad:31:35:9f:e9:45:28:b5:02:1d:10:63:8b:37:13:
                    98:e4:1d:83:49:47:2e:0a:ee:6c:87:29:62:06:e3:
                    3b:b9:fd:c1:a1:ab:21:ac:67:1d:74:f1:eb:04:d0:
                    59:18:00:20:f1:4f:17:37:83:28:0b:eb:bc:ce:36:
                    10:7d:af:17:93:51:f2:2e:49:52:bd:37:74:a6:f5:
                    99:e2:63:3f:51:13:86:6b:39:a2:ea:70:b1:7a:8d:
                    64:b3:1e:32:8a:4a:f6:ef:5c:c2:67:eb:94:5c:f3:
                    fd:3a:89:08:fb:10:94:12:1d:28:7d:dc:2b:a7:5c:
                    20:20:71:2b:d8:8b:0a:62:33:7a:51:ad:3a:5a:a2:
                    08:9b
                Exponent: 65537 (0x10001)
        X509v3 extensions:
            Netscape Cert Type: 
                SSL Client
            X509v3 Subject Key Identifier: 
                00:CF:5B:15:60:B2:F3:CA:30:EC:22:21:8B:D6:76:57:DC:25:93:A8
            X509v3 Authority Key Identifier: 
                keyid:37:2E:7B:27:46:4B:CF:47:10:AC:2B:2E:BA:D0:F3:66:75:EB:52:75
                DirName:/CN=CALCUTTACA_CA/C=IN/O=CITRIX/OU=ANG/ST=KA/emailAddress=CALCUTTACA_CA@CALCUTTACA_mail.com
                serial:A5:C6:47:0E:E6:06:37:18

            Authority Information Access: 
                OCSP - URI:http://172.18.20.1/responderpath

    Signature Algorithm: sha256WithRSAEncryption
         b5:de:f4:55:25:e8:66:ee:e5:6f:6a:4c:d8:86:60:0e:06:3d:
         12:56:04:59:d4:5f:fb:5d:ea:07:77:60:fc:5b:e5:f9:50:d4:
         1a:dc:a0:da:c3:e6:91:eb:c6:ac:6a:e5:ae:fa:3f:a8:2e:18:
         b9:3b:36:b3:c1:e7:41:11:ea:20:37:38:6e:c0:a6:50:7f:6d:
         fe:32:9c:d6:30:ec:aa:ff:d4:ef:d1:c4:b2:87:24:b8:1c:8f:
         6d:de:7c:ff:f9:8a:63:b7:0b:a7:e7:e6:e5:87:dd:72:44:e9:
         52:4a:88:c8:6f:8f:ef:01:7e:6a:97:17:c2:32:2d:df:1f:39:
         d7:ca:54:b6:84:07:29:3d:94:cf:cd:03:75:7e:25:b6:c8:2f:
         00:91:03:29:32:5f:8a:06:0b:01:68:31:54:3d:2c:a4:e8:4c:
         32:c4:39:8b:4c:28:64:99:30:f7:20:f6:83:77:10:dd:e5:9a:
         10:51:e9:db:f6:23:c8:4e:a9:c7:5d:71:78:7f:1a:b2:47:cd:
         fc:4f:fc:d3:64:07:11:3b:f7:66:26:ce:73:a1:7e:39:80:77:
         04:dc:93:f1:0b:4a:9a:d0:f8:3a:72:05:92:a5:96:ea:93:5d:
         c8:2b:07:74:52:3b:b6:64:dd:97:02:01:1a:e8:a7:d8:72:47:
         b7:b7:a6:06
-----BEGIN CERTIFICATE-----
MIIEpTCCA42gAwIBAgIGCgsMDQ5GMA0GCSqGSIb3DQEBCwUAMIGDMRYwFAYDVQQD
FA1DQUxDVVRUQUNBX0NBMQswCQYDVQQGEwJJTjEPMA0GA1UEChMGQ0lUUklYMQww
CgYDVQQLEwNBTkcxCzAJBgNVBAgTAktBMTAwLgYJKoZIhvcNAQkBFiFDQUxDVVRU
QUNBX0NBQENBTENVVFRBQ0FfbWFpbC5jb20wHhcNMTcwODIzMTAxNTUyWhcNMjcw
ODIxMTAxNTUyWjBwMQswCQYDVQQIEwJLQTELMAkGA1UEBhMCSU4xGzAZBgNVBAMU
EmNhbGN1dHRhXzE2X2NsaWVudDEmMCQGCSqGSIb3DQEJARYXY2FsY3V0dGFfMTZA
dGVzdF9jYS5jb20xDzANBgNVBAoTBkNJVFJJWDCCASIwDQYJKoZIhvcNAQEBBQAD
ggEPADCCAQoCggEBANCJoZ85cqMp215n0HVm0+ZnKe3qBEutgkNXsTkipZ9fXTJ3
05T9BUfLCj2QFxE0NLF4rnv/8pphFb21ZYm/UzAU2CBsMDEgzofHkV6oC1kRJ2TE
+SkIshcOnPy081+5UdSuvWBaWpZ9L2Xce66AoxnPg+w9vbqsrTE1n+lFKLUCHRBj
izcTmOQdg0lHLgrubIcpYgbjO7n9waGrIaxnHXTx6wTQWRgAIPFPFzeDKAvrvM42
EH2vF5NR8i5JUr03dKb1meJjP1EThms5oupwsXqNZLMeMopK9u9cwmfrlFzz/TqJ
CPsQlBIdKH3cK6dcICBxK9iLCmIzelGtOlqiCJsCAwEAAaOCAS8wggErMBEGCWCG
SAGG+EIBAQQEAwIHgDAdBgNVHQ4EFgQUAM9bFWCy88ow7CIhi9Z2V9wlk6gwgbgG
A1UdIwSBsDCBrYAUNy57J0ZLz0cQrCsuutDzZnXrUnWhgYmkgYYwgYMxFjAUBgNV
BAMUDUNBTENVVFRBQ0FfQ0ExCzAJBgNVBAYTAklOMQ8wDQYDVQQKEwZDSVRSSVgx
DDAKBgNVBAsTA0FORzELMAkGA1UECBMCS0ExMDAuBgkqhkiG9w0BCQEWIUNBTENV
VFRBQ0FfQ0FAQ0FMQ1VUVEFDQV9tYWlsLmNvbYIJAKXGRw7mBjcYMDwGCCsGAQUF
BwEBBDAwLjAsBggrBgEFBQcwAYYgaHR0cDovLzE3Mi4xOC4yMC4xL3Jlc3BvbmRl
cnBhdGgwDQYJKoZIhvcNAQELBQADggEBALXe9FUl6Gbu5W9qTNiGYA4GPRJWBFnU
X/td6gd3YPxb5flQ1BrcoNrD5pHrxqxq5a76P6guGLk7NrPB50ER6iA3OG7AplB/
bf4ynNYw7Kr/1O/RxLKHJLgcj23efP/5imO3C6fn5uWH3XJE6VJKiMhvj+8BfmqX
F8IyLd8fOdfKVLaEByk9lM/NA3V+JbbILwCRAykyX4oGCwFoMVQ9LKToTDLEOYtM
KGSZMPcg9oN3EN3lmhBR6dv2I8hOqcddcXh/GrJHzfxP/NNkBxE792YmznOhfjmA
dwTck/ELSprQ+DpyBZKlluqTXcgrB3RSO7Zk3ZcCARrop9hyR7e3pgY=
-----END CERTIFICATE-----
