Certificate:
    Data:
        Version: 3 (0x2)
        Serial Number: 11042563100240 (0xa0b0c0d0e50)
    Signature Algorithm: sha256WithRSAEncryption
        Issuer: CN=CALCUTTACA_CA, C=IN, O=CITRIX, OU=ANG, ST=KA/emailAddress=CALCUTTACA_CA@CALCUTTACA_mail.com
        Validity
            Not Before: Aug 23 10:15:59 2017 GMT
            Not After : Aug 21 10:15:59 2027 GMT
        Subject: ST=KA, C=IN, CN=calcutta_26_client/emailAddress=calcutta_26@test_ca.com, O=CITRIX
        Subject Public Key Info:
            Public Key Algorithm: rsaEncryption
                Public-Key: (2048 bit)
                Modulus:
                    00:9e:bf:68:2e:0a:2d:7e:10:ee:0e:3c:c8:25:a6:
                    fc:e3:01:3f:7a:2b:91:b0:00:5c:0f:5f:23:fc:3c:
                    6e:10:51:4b:0e:f2:3a:81:94:b9:db:0f:3c:06:5e:
                    5a:df:7f:84:fc:20:33:53:b1:00:e9:50:a2:0f:e1:
                    fc:1a:8e:c6:d5:27:97:c1:65:8c:8c:ea:51:2b:7f:
                    e3:3a:05:93:44:47:dc:b6:57:75:3c:70:dd:4a:05:
                    8b:92:cc:2d:ea:c6:65:7d:2e:ea:da:93:71:42:5f:
                    ea:67:b4:b1:f8:da:a7:b3:e5:f7:7b:10:52:7a:f9:
                    b5:4c:96:7f:1e:16:63:05:8c:02:27:2c:74:a5:41:
                    ce:78:f6:ea:9b:25:62:7a:ea:26:5b:96:9f:fb:7d:
                    bf:7a:e9:d8:4c:1c:da:9b:37:ee:13:0a:af:72:c1:
                    07:c1:43:12:85:93:3b:5c:da:20:f9:c7:bc:e3:6e:
                    c6:38:a5:68:c7:e0:04:a2:55:53:6f:90:f0:79:37:
                    5a:5c:c8:0a:53:e7:7d:ee:7b:cc:a8:a9:d3:7d:1f:
                    4c:13:c6:39:bf:4f:52:ba:3a:34:be:ec:51:2f:e9:
                    78:d8:b9:a8:fe:56:56:85:30:88:c5:26:04:e2:f9:
                    4b:d4:11:cc:23:ab:b5:f2:83:e8:14:d0:61:8a:87:
                    0c:2b
                Exponent: 65537 (0x10001)
        X509v3 extensions:
            Netscape Cert Type: 
                SSL Client
            X509v3 Subject Key Identifier: 
                42:29:BC:0A:04:CB:5C:E0:C6:CC:77:E0:40:AF:57:DE:B3:44:43:B9
            X509v3 Authority Key Identifier: 
                keyid:37:2E:7B:27:46:4B:CF:47:10:AC:2B:2E:BA:D0:F3:66:75:EB:52:75
                DirName:/CN=CALCUTTACA_CA/C=IN/O=CITRIX/OU=ANG/ST=KA/emailAddress=CALCUTTACA_CA@CALCUTTACA_mail.com
                serial:A5:C6:47:0E:E6:06:37:18

            Authority Information Access: 
                OCSP - URI:http://172.18.20.1/responderpath

    Signature Algorithm: sha256WithRSAEncryption
         60:21:f6:29:59:1e:c3:fc:b6:f4:4c:43:10:ba:79:ca:85:73:
         1f:0e:bb:5b:8f:19:d2:59:89:25:21:04:f3:9b:b6:2a:eb:13:
         e4:65:fc:f0:66:2d:27:e8:86:66:ce:77:51:ac:75:dd:42:a6:
         20:ba:34:0a:2a:76:fd:df:67:f4:ac:7f:54:4e:64:2d:26:ca:
         f6:ca:bf:2d:f4:c1:d1:e6:e1:f3:aa:60:a3:a5:95:ee:d8:6f:
         e8:9c:25:8e:c8:74:68:48:be:7d:3a:a0:0c:9c:37:d3:3d:03:
         39:c0:a0:9d:92:a6:42:99:63:50:62:48:ca:15:03:fa:13:1c:
         4f:2e:89:43:32:8c:c6:c5:d2:00:7e:3a:e1:0f:f5:fa:2e:78:
         9e:65:8b:a0:0a:57:aa:2f:8f:bb:6f:3a:7b:e7:2b:61:59:a3:
         01:e8:8c:f9:5f:e1:12:a0:e3:0d:35:81:6a:dc:1b:ed:4e:90:
         24:7a:d2:04:e7:7d:1d:bc:da:78:a0:b6:79:6e:93:39:46:f9:
         b9:b5:29:46:67:92:21:f1:6c:52:cb:c8:43:f0:60:4e:ce:18:
         ec:ec:09:cb:c2:bd:16:16:5c:04:87:19:8d:19:77:f0:3f:68:
         60:fa:9e:c7:6d:91:43:08:99:6b:6c:3e:e1:f3:4a:3f:a1:fc:
         d1:b5:ee:e0
-----BEGIN CERTIFICATE-----
MIIEpTCCA42gAwIBAgIGCgsMDQ5QMA0GCSqGSIb3DQEBCwUAMIGDMRYwFAYDVQQD
FA1DQUxDVVRUQUNBX0NBMQswCQYDVQQGEwJJTjEPMA0GA1UEChMGQ0lUUklYMQww
CgYDVQQLEwNBTkcxCzAJBgNVBAgTAktBMTAwLgYJKoZIhvcNAQkBFiFDQUxDVVRU
QUNBX0NBQENBTENVVFRBQ0FfbWFpbC5jb20wHhcNMTcwODIzMTAxNTU5WhcNMjcw
ODIxMTAxNTU5WjBwMQswCQYDVQQIEwJLQTELMAkGA1UEBhMCSU4xGzAZBgNVBAMU
EmNhbGN1dHRhXzI2X2NsaWVudDEmMCQGCSqGSIb3DQEJARYXY2FsY3V0dGFfMjZA
dGVzdF9jYS5jb20xDzANBgNVBAoTBkNJVFJJWDCCASIwDQYJKoZIhvcNAQEBBQAD
ggEPADCCAQoCggEBAJ6/aC4KLX4Q7g48yCWm/OMBP3orkbAAXA9fI/w8bhBRSw7y
OoGUudsPPAZeWt9/hPwgM1OxAOlQog/h/BqOxtUnl8FljIzqUSt/4zoFk0RH3LZX
dTxw3UoFi5LMLerGZX0u6tqTcUJf6me0sfjap7Pl93sQUnr5tUyWfx4WYwWMAics
dKVBznj26pslYnrqJluWn/t9v3rp2Ewc2ps37hMKr3LBB8FDEoWTO1zaIPnHvONu
xjilaMfgBKJVU2+Q8Hk3WlzIClPnfe57zKip030fTBPGOb9PUro6NL7sUS/peNi5
qP5WVoUwiMUmBOL5S9QRzCOrtfKD6BTQYYqHDCsCAwEAAaOCAS8wggErMBEGCWCG
SAGG+EIBAQQEAwIHgDAdBgNVHQ4EFgQUQim8CgTLXODGzHfgQK9X3rNEQ7kwgbgG
A1UdIwSBsDCBrYAUNy57J0ZLz0cQrCsuutDzZnXrUnWhgYmkgYYwgYMxFjAUBgNV
BAMUDUNBTENVVFRBQ0FfQ0ExCzAJBgNVBAYTAklOMQ8wDQYDVQQKEwZDSVRSSVgx
DDAKBgNVBAsTA0FORzELMAkGA1UECBMCS0ExMDAuBgkqhkiG9w0BCQEWIUNBTENV
VFRBQ0FfQ0FAQ0FMQ1VUVEFDQV9tYWlsLmNvbYIJAKXGRw7mBjcYMDwGCCsGAQUF
BwEBBDAwLjAsBggrBgEFBQcwAYYgaHR0cDovLzE3Mi4xOC4yMC4xL3Jlc3BvbmRl
cnBhdGgwDQYJKoZIhvcNAQELBQADggEBAGAh9ilZHsP8tvRMQxC6ecqFcx8Ou1uP
GdJZiSUhBPObtirrE+Rl/PBmLSfohmbOd1Gsdd1CpiC6NAoqdv3fZ/Ssf1ROZC0m
yvbKvy30wdHm4fOqYKOlle7Yb+icJY7IdGhIvn06oAycN9M9AznAoJ2SpkKZY1Bi
SMoVA/oTHE8uiUMyjMbF0gB+OuEP9foueJ5li6AKV6ovj7tvOnvnK2FZowHojPlf
4RKg4w01gWrcG+1OkCR60gTnfR282nigtnlukzlG+bm1KUZnkiHxbFLLyEPwYE7O
GOzsCcvCvRYWXASHGY0Zd/A/aGD6nsdtkUMImWtsPuHzSj+h/NG17uA=
-----END CERTIFICATE-----
