Certificate:
    Data:
        Version: 3 (0x2)
        Serial Number: 11042563100244 (0xa0b0c0d0e54)
    Signature Algorithm: sha256WithRSAEncryption
        Issuer: CN=CALCUTTACA_CA, C=IN, O=CITRIX, OU=ANG, ST=KA/emailAddress=CALCUTTACA_CA@CALCUTTACA_mail.com
        Validity
            Not Before: Aug 23 10:16:01 2017 GMT
            Not After : Aug 21 10:16:01 2027 GMT
        Subject: ST=KA, C=IN, CN=calcutta_30_client/emailAddress=calcutta_30@test_ca.com, O=CITRIX
        Subject Public Key Info:
            Public Key Algorithm: rsaEncryption
                Public-Key: (2048 bit)
                Modulus:
                    00:b1:04:d7:5a:23:5b:f6:27:e1:d9:52:9f:eb:d9:
                    81:54:3b:23:9d:f9:81:46:48:76:8f:c6:2a:70:e5:
                    c0:98:d9:4e:46:13:ec:0f:41:19:0e:28:d9:da:a0:
                    33:c8:b2:e9:9b:1a:19:b5:b3:dd:77:18:c8:bd:75:
                    d6:3b:5c:94:7a:53:7f:b3:c0:d8:3c:be:27:8e:a2:
                    e9:dd:a2:37:5d:bb:e0:62:db:92:17:00:ac:73:7c:
                    c1:5a:9f:2b:4e:12:5a:e5:5a:dd:d9:8a:df:9b:e8:
                    dc:7c:5e:94:37:ad:64:10:6d:79:97:a1:38:31:5f:
                    a5:77:e3:9c:90:26:73:c1:0a:98:d0:5c:f3:69:05:
                    e5:2f:01:d0:df:f1:f7:32:a2:0c:85:4e:aa:d6:2a:
                    a6:3f:7a:86:63:47:9d:ce:9a:6e:17:2a:ed:2b:5c:
                    23:0d:41:1d:8f:77:11:59:86:3f:47:31:5e:05:f6:
                    1c:8a:80:e0:7f:3f:6a:07:2e:36:e5:76:2a:e4:d8:
                    60:f3:69:90:64:47:fd:6b:53:1f:c8:ac:71:ae:0f:
                    6b:43:03:5c:68:9b:0f:17:2b:ae:46:f3:7f:53:5f:
                    ee:84:68:60:89:7d:84:f2:36:7a:c0:9c:df:21:09:
                    a1:11:75:88:95:58:4b:4e:0e:67:98:29:47:d0:e1:
                    d8:45
                Exponent: 65537 (0x10001)
        X509v3 extensions:
            Netscape Cert Type: 
                SSL Client
            X509v3 Subject Key Identifier: 
                E3:46:BD:CB:43:90:BA:6A:D8:C6:51:93:2A:70:03:E2:06:63:D1:89
            X509v3 Authority Key Identifier: 
                keyid:37:2E:7B:27:46:4B:CF:47:10:AC:2B:2E:BA:D0:F3:66:75:EB:52:75
                DirName:/CN=CALCUTTACA_CA/C=IN/O=CITRIX/OU=ANG/ST=KA/emailAddress=CALCUTTACA_CA@CALCUTTACA_mail.com
                serial:A5:C6:47:0E:E6:06:37:18

            Authority Information Access: 
                OCSP - URI:http://172.18.20.1/responderpath

    Signature Algorithm: sha256WithRSAEncryption
         28:6e:6d:a5:ab:e7:3d:65:5e:97:70:23:b7:06:1f:11:3b:cb:
         e1:fb:1e:d9:a9:2f:be:f0:d8:f5:34:49:2d:1c:36:e4:52:57:
         ef:ff:73:5b:20:87:0a:08:61:58:cb:07:fa:ed:8a:29:3e:d6:
         aa:cf:79:14:0c:05:94:e6:d6:48:0d:b7:8d:a7:0a:f3:79:c5:
         44:f7:0e:5e:e7:50:a6:d2:ff:1b:b6:cf:e5:29:13:49:bf:d6:
         d9:86:c5:51:3a:d1:9c:d0:f3:53:ef:81:50:16:d5:56:93:87:
         b3:4f:9a:87:f8:75:f2:2a:09:5d:b6:72:86:d9:d2:fa:4a:b3:
         b7:eb:78:42:54:f8:73:7c:2b:00:7c:de:48:db:00:85:97:be:
         85:44:24:45:b1:61:ce:88:e8:87:d2:ae:44:fb:7f:35:34:ec:
         51:74:c6:49:42:61:75:ef:98:9c:cc:fc:c7:55:53:70:e4:b7:
         b2:e8:86:86:15:bb:76:f4:86:85:75:79:dd:bf:1c:ec:2f:21:
         29:08:3d:4a:8a:07:43:9a:28:d7:b7:a3:62:a1:f0:f0:fa:33:
         41:87:bb:bd:76:a5:4b:94:be:28:b1:51:27:93:83:f8:9e:24:
         78:4d:57:e3:8d:c1:71:9f:00:5d:71:49:fc:82:4a:99:4e:ab:
         e9:28:4c:6a
-----BEGIN CERTIFICATE-----
MIIEpTCCA42gAwIBAgIGCgsMDQ5UMA0GCSqGSIb3DQEBCwUAMIGDMRYwFAYDVQQD
FA1DQUxDVVRUQUNBX0NBMQswCQYDVQQGEwJJTjEPMA0GA1UEChMGQ0lUUklYMQww
CgYDVQQLEwNBTkcxCzAJBgNVBAgTAktBMTAwLgYJKoZIhvcNAQkBFiFDQUxDVVRU
QUNBX0NBQENBTENVVFRBQ0FfbWFpbC5jb20wHhcNMTcwODIzMTAxNjAxWhcNMjcw
ODIxMTAxNjAxWjBwMQswCQYDVQQIEwJLQTELMAkGA1UEBhMCSU4xGzAZBgNVBAMU
EmNhbGN1dHRhXzMwX2NsaWVudDEmMCQGCSqGSIb3DQEJARYXY2FsY3V0dGFfMzBA
dGVzdF9jYS5jb20xDzANBgNVBAoTBkNJVFJJWDCCASIwDQYJKoZIhvcNAQEBBQAD
ggEPADCCAQoCggEBALEE11ojW/Yn4dlSn+vZgVQ7I535gUZIdo/GKnDlwJjZTkYT
7A9BGQ4o2dqgM8iy6ZsaGbWz3XcYyL111jtclHpTf7PA2Dy+J46i6d2iN1274GLb
khcArHN8wVqfK04SWuVa3dmK35vo3HxelDetZBBteZehODFfpXfjnJAmc8EKmNBc
82kF5S8B0N/x9zKiDIVOqtYqpj96hmNHnc6abhcq7StcIw1BHY93EVmGP0cxXgX2
HIqA4H8/agcuNuV2KuTYYPNpkGRH/WtTH8isca4Pa0MDXGibDxcrrkbzf1Nf7oRo
YIl9hPI2esCc3yEJoRF1iJVYS04OZ5gpR9Dh2EUCAwEAAaOCAS8wggErMBEGCWCG
SAGG+EIBAQQEAwIHgDAdBgNVHQ4EFgQU40a9y0OQumrYxlGTKnAD4gZj0YkwgbgG
A1UdIwSBsDCBrYAUNy57J0ZLz0cQrCsuutDzZnXrUnWhgYmkgYYwgYMxFjAUBgNV
BAMUDUNBTENVVFRBQ0FfQ0ExCzAJBgNVBAYTAklOMQ8wDQYDVQQKEwZDSVRSSVgx
DDAKBgNVBAsTA0FORzELMAkGA1UECBMCS0ExMDAuBgkqhkiG9w0BCQEWIUNBTENV
VFRBQ0FfQ0FAQ0FMQ1VUVEFDQV9tYWlsLmNvbYIJAKXGRw7mBjcYMDwGCCsGAQUF
BwEBBDAwLjAsBggrBgEFBQcwAYYgaHR0cDovLzE3Mi4xOC4yMC4xL3Jlc3BvbmRl
cnBhdGgwDQYJKoZIhvcNAQELBQADggEBAChubaWr5z1lXpdwI7cGHxE7y+H7Htmp
L77w2PU0SS0cNuRSV+//c1sghwoIYVjLB/rtiik+1qrPeRQMBZTm1kgNt42nCvN5
xUT3Dl7nUKbS/xu2z+UpE0m/1tmGxVE60ZzQ81PvgVAW1VaTh7NPmof4dfIqCV22
cobZ0vpKs7freEJU+HN8KwB83kjbAIWXvoVEJEWxYc6I6IfSrkT7fzU07FF0xklC
YXXvmJzM/MdVU3Dkt7LohoYVu3b0hoV1ed2/HOwvISkIPUqKB0OaKNe3o2Kh8PD6
M0GHu712pUuUviixUSeTg/ieJHhNV+ONwXGfAF1xSfyCSplOq+koTGo=
-----END CERTIFICATE-----
