Certificate:
    Data:
        Version: 3 (0x2)
        Serial Number: 11042563100262 (0xa0b0c0d0e66)
    Signature Algorithm: sha256WithRSAEncryption
        Issuer: CN=CALCUTTACA_CA, C=IN, O=CITRIX, OU=ANG, ST=KA/emailAddress=CALCUTTACA_CA@CALCUTTACA_mail.com
        Validity
            Not Before: Aug 23 10:16:14 2017 GMT
            Not After : Aug 21 10:16:14 2027 GMT
        Subject: ST=KA, C=IN, CN=calcutta_48_client/emailAddress=calcutta_48@test_ca.com, O=CITRIX
        Subject Public Key Info:
            Public Key Algorithm: rsaEncryption
                Public-Key: (2048 bit)
                Modulus:
                    00:c3:83:ea:90:c4:e7:96:8b:46:49:97:87:09:50:
                    ef:bc:05:4d:9d:09:9c:14:7c:ee:f1:36:d7:69:3c:
                    e8:9d:ef:9a:55:1d:6c:b2:40:8d:60:38:f9:6e:8a:
                    76:e3:83:57:9d:e5:97:73:fe:4f:f1:11:f2:2b:45:
                    db:e7:1e:e4:c3:37:d6:e9:6e:e7:b3:1b:8f:81:4f:
                    a9:d8:d4:23:68:36:2a:80:b5:d9:c7:2e:50:ca:d3:
                    21:72:6e:ae:fa:89:cc:97:66:38:e5:9d:28:02:c4:
                    e4:a6:33:40:6e:92:ce:76:ab:65:32:80:de:96:37:
                    80:37:45:18:86:c2:6d:a7:81:d1:02:50:7c:26:69:
                    39:1a:3c:86:bd:a2:b1:76:93:3f:65:46:5a:63:4c:
                    6f:d5:e0:54:9d:a9:83:fa:fa:9f:7a:18:99:96:93:
                    aa:30:33:17:a5:d9:e5:10:c1:e5:d9:0a:8b:30:6c:
                    ee:bb:cd:a7:32:2d:f0:ae:3c:75:22:77:79:df:7d:
                    de:ca:e6:01:7c:9f:9a:9f:ef:a7:2e:21:37:44:e6:
                    5c:c0:5f:67:5d:ac:37:ca:94:ef:80:a4:c7:69:02:
                    e5:7c:39:c6:7d:fa:39:a4:93:c7:c4:8a:76:69:03:
                    ca:75:87:14:2c:6c:2e:94:cd:cb:b7:5a:92:25:2d:
                    da:09
                Exponent: 65537 (0x10001)
        X509v3 extensions:
            Netscape Cert Type: 
                SSL Client
            X509v3 Subject Key Identifier: 
                1F:37:AD:F3:56:8D:5A:80:C3:1A:BB:C2:67:14:F9:6E:B2:3F:EA:BA
            X509v3 Authority Key Identifier: 
                keyid:37:2E:7B:27:46:4B:CF:47:10:AC:2B:2E:BA:D0:F3:66:75:EB:52:75
                DirName:/CN=CALCUTTACA_CA/C=IN/O=CITRIX/OU=ANG/ST=KA/emailAddress=CALCUTTACA_CA@CALCUTTACA_mail.com
                serial:A5:C6:47:0E:E6:06:37:18

            Authority Information Access: 
                OCSP - URI:http://172.18.20.1/responderpath

    Signature Algorithm: sha256WithRSAEncryption
         17:4a:cd:e8:f2:7f:65:9e:c1:49:af:a7:bb:60:8e:4e:76:c7:
         bf:7d:37:7e:02:02:31:dc:86:fc:78:3a:43:0e:37:5f:bf:ed:
         68:cc:73:f8:60:8c:6f:5d:9d:1b:2d:06:00:73:d4:38:f9:72:
         26:d4:fe:99:fd:2e:15:4b:d0:d9:00:7f:56:5b:4a:31:3c:ec:
         2b:85:cc:e5:50:58:c2:3b:fd:87:5a:9c:97:50:dc:b1:eb:56:
         b7:4c:13:4e:92:82:c6:a6:d5:5b:79:d1:66:eb:2d:b9:d1:4c:
         86:5d:d2:f8:56:46:08:92:a1:c6:01:7c:b8:70:57:16:79:ff:
         e6:9d:00:8b:99:e9:90:fb:29:3b:eb:b3:79:ef:8e:ad:1c:b5:
         3b:1a:b5:a4:d4:4e:69:6d:1a:7c:77:1b:90:fd:bb:b8:5b:91:
         c6:f6:6c:a2:f4:b9:64:fa:9f:94:b8:c6:7c:30:0f:ad:e8:de:
         c7:7d:cc:52:d2:c6:ad:68:3e:ad:a2:66:f9:e9:9f:97:73:34:
         e0:b9:20:74:c5:e0:ce:38:c7:b8:10:78:64:eb:59:90:7c:84:
         26:03:6f:4e:d0:63:b5:7d:f8:57:d5:b9:27:50:1d:20:cd:58:
         1a:a6:9c:38:2d:1a:b4:28:85:a2:a6:42:25:2f:db:bb:45:d6:
         5b:a9:e5:62
-----BEGIN CERTIFICATE-----
MIIEpTCCA42gAwIBAgIGCgsMDQ5mMA0GCSqGSIb3DQEBCwUAMIGDMRYwFAYDVQQD
FA1DQUxDVVRUQUNBX0NBMQswCQYDVQQGEwJJTjEPMA0GA1UEChMGQ0lUUklYMQww
CgYDVQQLEwNBTkcxCzAJBgNVBAgTAktBMTAwLgYJKoZIhvcNAQkBFiFDQUxDVVRU
QUNBX0NBQENBTENVVFRBQ0FfbWFpbC5jb20wHhcNMTcwODIzMTAxNjE0WhcNMjcw
ODIxMTAxNjE0WjBwMQswCQYDVQQIEwJLQTELMAkGA1UEBhMCSU4xGzAZBgNVBAMU
EmNhbGN1dHRhXzQ4X2NsaWVudDEmMCQGCSqGSIb3DQEJARYXY2FsY3V0dGFfNDhA
dGVzdF9jYS5jb20xDzANBgNVBAoTBkNJVFJJWDCCASIwDQYJKoZIhvcNAQEBBQAD
ggEPADCCAQoCggEBAMOD6pDE55aLRkmXhwlQ77wFTZ0JnBR87vE212k86J3vmlUd
bLJAjWA4+W6KduODV53ll3P+T/ER8itF2+ce5MM31ulu57Mbj4FPqdjUI2g2KoC1
2ccuUMrTIXJurvqJzJdmOOWdKALE5KYzQG6SznarZTKA3pY3gDdFGIbCbaeB0QJQ
fCZpORo8hr2isXaTP2VGWmNMb9XgVJ2pg/r6n3oYmZaTqjAzF6XZ5RDB5dkKizBs
7rvNpzIt8K48dSJ3ed993srmAXyfmp/vpy4hN0TmXMBfZ12sN8qU74Ckx2kC5Xw5
xn36OaSTx8SKdmkDynWHFCxsLpTNy7dakiUt2gkCAwEAAaOCAS8wggErMBEGCWCG
SAGG+EIBAQQEAwIHgDAdBgNVHQ4EFgQUHzet81aNWoDDGrvCZxT5brI/6rowgbgG
A1UdIwSBsDCBrYAUNy57J0ZLz0cQrCsuutDzZnXrUnWhgYmkgYYwgYMxFjAUBgNV
BAMUDUNBTENVVFRBQ0FfQ0ExCzAJBgNVBAYTAklOMQ8wDQYDVQQKEwZDSVRSSVgx
DDAKBgNVBAsTA0FORzELMAkGA1UECBMCS0ExMDAuBgkqhkiG9w0BCQEWIUNBTENV
VFRBQ0FfQ0FAQ0FMQ1VUVEFDQV9tYWlsLmNvbYIJAKXGRw7mBjcYMDwGCCsGAQUF
BwEBBDAwLjAsBggrBgEFBQcwAYYgaHR0cDovLzE3Mi4xOC4yMC4xL3Jlc3BvbmRl
cnBhdGgwDQYJKoZIhvcNAQELBQADggEBABdKzejyf2WewUmvp7tgjk52x799N34C
AjHchvx4OkMON1+/7WjMc/hgjG9dnRstBgBz1Dj5cibU/pn9LhVL0NkAf1ZbSjE8
7CuFzOVQWMI7/YdanJdQ3LHrVrdME06Sgsam1Vt50WbrLbnRTIZd0vhWRgiSocYB
fLhwVxZ5/+adAIuZ6ZD7KTvrs3nvjq0ctTsataTUTmltGnx3G5D9u7hbkcb2bKL0
uWT6n5S4xnwwD63o3sd9zFLSxq1oPq2iZvnpn5dzNOC5IHTF4M44x7gQeGTrWZB8
hCYDb07QY7V9+FfVuSdQHSDNWBqmnDgtGrQohaKmQiUv27tF1lup5WI=
-----END CERTIFICATE-----
