Certificate:
    Data:
        Version: 3 (0x2)
        Serial Number: 11042563100254 (0xa0b0c0d0e5e)
    Signature Algorithm: sha256WithRSAEncryption
        Issuer: CN=CALCUTTACA_CA, C=IN, O=CITRIX, OU=ANG, ST=KA/emailAddress=CALCUTTACA_CA@CALCUTTACA_mail.com
        Validity
            Not Before: Aug 23 10:16:09 2017 GMT
            Not After : Aug 21 10:16:09 2027 GMT
        Subject: ST=KA, C=IN, CN=calcutta_40_client/emailAddress=calcutta_40@test_ca.com, O=CITRIX
        Subject Public Key Info:
            Public Key Algorithm: rsaEncryption
                Public-Key: (2048 bit)
                Modulus:
                    00:a7:f6:c9:a4:70:67:87:05:1f:f6:43:34:b7:67:
                    18:ff:b0:7c:54:0e:23:f3:9b:76:fa:ac:ee:b8:0f:
                    44:92:0e:a9:45:5f:d8:95:35:b4:07:2a:27:b7:1e:
                    1e:1f:90:52:0f:bb:0b:0a:bb:04:02:90:ac:6a:29:
                    6c:c1:19:99:e2:7f:88:4b:8a:40:14:b7:42:eb:f2:
                    8a:3e:7b:20:ed:07:4d:0c:05:b7:f4:8b:c4:c7:cf:
                    4d:01:46:4d:d7:0f:8c:2c:5b:1d:c3:89:f9:98:3e:
                    30:65:eb:4b:80:9d:8c:a5:2d:bc:0b:c7:c2:56:a2:
                    70:89:7f:8d:89:d8:6a:15:ea:49:80:b5:98:a8:d3:
                    ea:17:65:3e:08:32:19:7a:44:43:5f:02:1c:b5:16:
                    8f:c5:73:6e:08:df:32:65:75:ca:77:2e:17:28:4b:
                    47:1e:a1:cd:dd:04:43:c2:20:ae:95:d5:54:bb:06:
                    bd:c0:9a:4f:1f:a2:a5:a1:26:1c:8e:ee:f6:87:4a:
                    07:b6:f4:e4:ca:fe:ea:56:0d:0f:74:62:f8:b9:5f:
                    f0:77:62:83:17:e1:75:56:c8:e2:ac:93:91:f5:c6:
                    11:ed:dc:40:9d:aa:85:29:a3:8e:b4:7b:96:8c:9c:
                    d5:bc:bd:92:45:40:68:88:86:4d:56:b8:bb:d8:b1:
                    fe:4b
                Exponent: 65537 (0x10001)
        X509v3 extensions:
            Netscape Cert Type: 
                SSL Client
            X509v3 Subject Key Identifier: 
                B1:69:2D:DC:BE:58:DD:35:54:CC:4E:E6:C0:36:60:7A:A1:5F:FF:DF
            X509v3 Authority Key Identifier: 
                keyid:37:2E:7B:27:46:4B:CF:47:10:AC:2B:2E:BA:D0:F3:66:75:EB:52:75
                DirName:/CN=CALCUTTACA_CA/C=IN/O=CITRIX/OU=ANG/ST=KA/emailAddress=CALCUTTACA_CA@CALCUTTACA_mail.com
                serial:A5:C6:47:0E:E6:06:37:18

            Authority Information Access: 
                OCSP - URI:http://172.18.20.1/responderpath

    Signature Algorithm: sha256WithRSAEncryption
         de:d5:fe:25:e7:4c:0c:d4:89:6a:93:57:9c:0c:43:a5:7e:60:
         38:f8:dd:a3:e6:97:fd:82:0f:63:45:34:61:68:43:3d:16:06:
         8c:33:b5:0c:48:57:93:4f:15:04:fa:bf:4c:41:25:2f:8b:f9:
         9c:12:c1:47:3a:bd:69:3e:fb:3d:bc:ec:ae:2c:cd:cb:17:98:
         ed:9c:61:25:69:91:93:65:0b:08:7d:48:1d:f9:91:91:37:a1:
         d0:d8:2d:e0:92:37:29:69:c9:85:4b:ec:bb:dc:08:19:e6:e8:
         aa:55:06:8d:ea:92:c3:07:83:fb:c3:95:c8:b3:45:d7:ce:c7:
         47:bb:a7:2b:bc:57:05:00:1f:77:6a:63:20:2d:0d:41:08:a3:
         ae:71:01:94:9e:c6:14:66:1e:8b:7a:b0:81:25:16:e3:c4:4d:
         e0:74:74:9f:67:d3:17:bd:46:73:74:a7:17:e7:98:95:b6:9d:
         63:fa:be:ad:c7:ae:60:c8:13:11:1c:56:a9:4e:55:bc:a2:c5:
         62:ec:85:28:39:66:c3:50:0e:51:1d:64:ff:00:e5:9e:f8:93:
         b4:a8:18:2d:01:e6:5f:fc:4e:33:3b:47:8e:92:11:62:11:6d:
         c0:61:ec:7e:70:77:ab:a5:7e:8c:83:c5:b1:4f:33:06:0e:2f:
         16:83:2d:b3
-----BEGIN CERTIFICATE-----
MIIEpTCCA42gAwIBAgIGCgsMDQ5eMA0GCSqGSIb3DQEBCwUAMIGDMRYwFAYDVQQD
FA1DQUxDVVRUQUNBX0NBMQswCQYDVQQGEwJJTjEPMA0GA1UEChMGQ0lUUklYMQww
CgYDVQQLEwNBTkcxCzAJBgNVBAgTAktBMTAwLgYJKoZIhvcNAQkBFiFDQUxDVVRU
QUNBX0NBQENBTENVVFRBQ0FfbWFpbC5jb20wHhcNMTcwODIzMTAxNjA5WhcNMjcw
ODIxMTAxNjA5WjBwMQswCQYDVQQIEwJLQTELMAkGA1UEBhMCSU4xGzAZBgNVBAMU
EmNhbGN1dHRhXzQwX2NsaWVudDEmMCQGCSqGSIb3DQEJARYXY2FsY3V0dGFfNDBA
dGVzdF9jYS5jb20xDzANBgNVBAoTBkNJVFJJWDCCASIwDQYJKoZIhvcNAQEBBQAD
ggEPADCCAQoCggEBAKf2yaRwZ4cFH/ZDNLdnGP+wfFQOI/Obdvqs7rgPRJIOqUVf
2JU1tAcqJ7ceHh+QUg+7Cwq7BAKQrGopbMEZmeJ/iEuKQBS3Quvyij57IO0HTQwF
t/SLxMfPTQFGTdcPjCxbHcOJ+Zg+MGXrS4CdjKUtvAvHwlaicIl/jYnYahXqSYC1
mKjT6hdlPggyGXpEQ18CHLUWj8VzbgjfMmV1yncuFyhLRx6hzd0EQ8IgrpXVVLsG
vcCaTx+ipaEmHI7u9odKB7b05Mr+6lYND3Ri+Llf8HdigxfhdVbI4qyTkfXGEe3c
QJ2qhSmjjrR7loyc1by9kkVAaIiGTVa4u9ix/ksCAwEAAaOCAS8wggErMBEGCWCG
SAGG+EIBAQQEAwIHgDAdBgNVHQ4EFgQUsWkt3L5Y3TVUzE7mwDZgeqFf/98wgbgG
A1UdIwSBsDCBrYAUNy57J0ZLz0cQrCsuutDzZnXrUnWhgYmkgYYwgYMxFjAUBgNV
BAMUDUNBTENVVFRBQ0FfQ0ExCzAJBgNVBAYTAklOMQ8wDQYDVQQKEwZDSVRSSVgx
DDAKBgNVBAsTA0FORzELMAkGA1UECBMCS0ExMDAuBgkqhkiG9w0BCQEWIUNBTENV
VFRBQ0FfQ0FAQ0FMQ1VUVEFDQV9tYWlsLmNvbYIJAKXGRw7mBjcYMDwGCCsGAQUF
BwEBBDAwLjAsBggrBgEFBQcwAYYgaHR0cDovLzE3Mi4xOC4yMC4xL3Jlc3BvbmRl
cnBhdGgwDQYJKoZIhvcNAQELBQADggEBAN7V/iXnTAzUiWqTV5wMQ6V+YDj43aPm
l/2CD2NFNGFoQz0WBowztQxIV5NPFQT6v0xBJS+L+ZwSwUc6vWk++z287K4szcsX
mO2cYSVpkZNlCwh9SB35kZE3odDYLeCSNylpyYVL7LvcCBnm6KpVBo3qksMHg/vD
lcizRdfOx0e7pyu8VwUAH3dqYyAtDUEIo65xAZSexhRmHot6sIElFuPETeB0dJ9n
0xe9RnN0pxfnmJW2nWP6vq3HrmDIExEcVqlOVbyixWLshSg5ZsNQDlEdZP8A5Z74
k7SoGC0B5l/8TjM7R46SEWIRbcBh7H5wd6ulfoyDxbFPMwYOLxaDLbM=
-----END CERTIFICATE-----
