Certificate:
    Data:
        Version: 3 (0x2)
        Serial Number: 11042563100232 (0xa0b0c0d0e48)
    Signature Algorithm: sha256WithRSAEncryption
        Issuer: CN=CALCUTTACA_CA, C=IN, O=CITRIX, OU=ANG, ST=KA/emailAddress=CALCUTTACA_CA@CALCUTTACA_mail.com
        Validity
            Not Before: Aug 23 10:15:53 2017 GMT
            Not After : Aug 21 10:15:53 2027 GMT
        Subject: ST=KA, C=IN, CN=calcutta_18_client/emailAddress=calcutta_18@test_ca.com, O=CITRIX
        Subject Public Key Info:
            Public Key Algorithm: rsaEncryption
                Public-Key: (2048 bit)
                Modulus:
                    00:fd:05:38:bf:5e:c6:6b:e3:78:29:4c:cb:23:a4:
                    19:63:38:77:e3:85:7c:27:c9:fd:71:bd:5e:60:b2:
                    42:f7:12:cc:e0:38:59:29:1f:bf:9e:81:95:0e:cc:
                    f8:47:62:64:47:bb:b2:58:87:fa:66:9f:cd:c8:a5:
                    42:37:50:38:65:04:a3:89:86:b9:e1:a3:e0:07:38:
                    bf:ed:f1:eb:6f:32:aa:27:08:91:1a:4b:08:92:fa:
                    74:ef:f8:5f:53:33:42:1d:51:e8:ea:05:86:77:21:
                    82:5f:ae:f4:02:60:4c:f2:f5:c4:e6:18:3f:b5:c0:
                    7f:50:d1:a2:33:26:52:1c:ba:74:8a:fe:c3:ff:a1:
                    a2:94:ed:1e:13:52:7a:46:c3:b1:7e:59:aa:3e:7a:
                    d4:fd:0a:d6:be:80:fa:4d:c7:25:3f:f4:6d:2f:45:
                    d9:e9:ac:dd:91:07:18:8c:c2:96:00:bb:36:15:fa:
                    6a:60:01:48:22:e7:df:4c:68:dd:7c:5b:e5:4b:43:
                    5d:4b:d7:22:0b:6c:33:6e:12:76:cb:54:0d:5c:90:
                    17:2c:a0:47:03:84:10:ae:e4:93:3c:64:2f:50:6c:
                    79:4a:42:75:e9:40:71:01:cc:55:95:6e:92:56:a7:
                    ab:5c:90:70:65:42:66:01:bb:b2:69:0b:e0:71:f8:
                    ae:39
                Exponent: 65537 (0x10001)
        X509v3 extensions:
            Netscape Cert Type: 
                SSL Client
            X509v3 Subject Key Identifier: 
                8A:7B:00:65:9C:D3:25:21:D8:88:E5:79:5C:0F:C2:65:CF:19:AA:0A
            X509v3 Authority Key Identifier: 
                keyid:37:2E:7B:27:46:4B:CF:47:10:AC:2B:2E:BA:D0:F3:66:75:EB:52:75
                DirName:/CN=CALCUTTACA_CA/C=IN/O=CITRIX/OU=ANG/ST=KA/emailAddress=CALCUTTACA_CA@CALCUTTACA_mail.com
                serial:A5:C6:47:0E:E6:06:37:18

            Authority Information Access: 
                OCSP - URI:http://172.18.20.1/responderpath

    Signature Algorithm: sha256WithRSAEncryption
         02:93:3a:a1:47:e2:9e:6c:58:39:66:d1:c3:99:8b:6e:10:2c:
         70:11:ba:09:6d:0b:db:f3:9f:8e:8c:61:2f:22:90:57:0a:60:
         fd:df:fd:a5:2e:a7:ba:4b:cf:9e:03:50:a9:45:4e:83:17:31:
         9a:73:8d:fc:27:73:79:91:63:8d:f5:71:aa:fd:87:da:da:01:
         cc:46:48:4f:fc:b8:1c:14:5a:e7:70:a9:7c:b8:67:48:3e:52:
         e1:99:45:89:85:63:3c:32:5e:44:f4:7c:b4:a0:b3:65:e1:c7:
         86:2c:85:d9:bd:1c:42:ac:9a:99:ac:17:1c:f8:53:b8:a9:b2:
         44:b5:fa:7b:da:97:23:38:1b:5a:d7:32:9f:4a:40:aa:c5:29:
         cb:1e:49:c5:60:b5:ce:7b:bd:4e:3e:07:b5:c4:70:81:bf:97:
         ac:80:a2:ea:a2:30:9b:b4:cb:59:39:d6:3e:4d:c4:71:02:ac:
         02:7b:5e:a9:5b:d9:c7:2c:65:a5:d4:d6:52:7d:2f:47:f0:97:
         e4:1b:d8:53:fa:b9:60:59:52:22:6b:b1:4c:a1:b8:95:f0:e0:
         71:87:bb:c7:22:6f:ba:5f:f8:15:28:83:ff:47:a2:28:d3:71:
         b3:44:28:35:2b:0a:e8:22:e5:08:79:5d:23:26:a5:97:2b:e2:
         c8:f8:9b:b6
-----BEGIN CERTIFICATE-----
MIIEpTCCA42gAwIBAgIGCgsMDQ5IMA0GCSqGSIb3DQEBCwUAMIGDMRYwFAYDVQQD
FA1DQUxDVVRUQUNBX0NBMQswCQYDVQQGEwJJTjEPMA0GA1UEChMGQ0lUUklYMQww
CgYDVQQLEwNBTkcxCzAJBgNVBAgTAktBMTAwLgYJKoZIhvcNAQkBFiFDQUxDVVRU
QUNBX0NBQENBTENVVFRBQ0FfbWFpbC5jb20wHhcNMTcwODIzMTAxNTUzWhcNMjcw
ODIxMTAxNTUzWjBwMQswCQYDVQQIEwJLQTELMAkGA1UEBhMCSU4xGzAZBgNVBAMU
EmNhbGN1dHRhXzE4X2NsaWVudDEmMCQGCSqGSIb3DQEJARYXY2FsY3V0dGFfMThA
dGVzdF9jYS5jb20xDzANBgNVBAoTBkNJVFJJWDCCASIwDQYJKoZIhvcNAQEBBQAD
ggEPADCCAQoCggEBAP0FOL9exmvjeClMyyOkGWM4d+OFfCfJ/XG9XmCyQvcSzOA4
WSkfv56BlQ7M+EdiZEe7sliH+mafzcilQjdQOGUEo4mGueGj4Ac4v+3x628yqicI
kRpLCJL6dO/4X1MzQh1R6OoFhnchgl+u9AJgTPL1xOYYP7XAf1DRojMmUhy6dIr+
w/+hopTtHhNSekbDsX5Zqj561P0K1r6A+k3HJT/0bS9F2ems3ZEHGIzClgC7NhX6
amABSCLn30xo3Xxb5UtDXUvXIgtsM24SdstUDVyQFyygRwOEEK7kkzxkL1BseUpC
delAcQHMVZVuklanq1yQcGVCZgG7smkL4HH4rjkCAwEAAaOCAS8wggErMBEGCWCG
SAGG+EIBAQQEAwIHgDAdBgNVHQ4EFgQUinsAZZzTJSHYiOV5XA/CZc8ZqgowgbgG
A1UdIwSBsDCBrYAUNy57J0ZLz0cQrCsuutDzZnXrUnWhgYmkgYYwgYMxFjAUBgNV
BAMUDUNBTENVVFRBQ0FfQ0ExCzAJBgNVBAYTAklOMQ8wDQYDVQQKEwZDSVRSSVgx
DDAKBgNVBAsTA0FORzELMAkGA1UECBMCS0ExMDAuBgkqhkiG9w0BCQEWIUNBTENV
VFRBQ0FfQ0FAQ0FMQ1VUVEFDQV9tYWlsLmNvbYIJAKXGRw7mBjcYMDwGCCsGAQUF
BwEBBDAwLjAsBggrBgEFBQcwAYYgaHR0cDovLzE3Mi4xOC4yMC4xL3Jlc3BvbmRl
cnBhdGgwDQYJKoZIhvcNAQELBQADggEBAAKTOqFH4p5sWDlm0cOZi24QLHARuglt
C9vzn46MYS8ikFcKYP3f/aUup7pLz54DUKlFToMXMZpzjfwnc3mRY431car9h9ra
AcxGSE/8uBwUWudwqXy4Z0g+UuGZRYmFYzwyXkT0fLSgs2Xhx4Yshdm9HEKsmpms
Fxz4U7ipskS1+nvalyM4G1rXMp9KQKrFKcseScVgtc57vU4+B7XEcIG/l6yAouqi
MJu0y1k51j5NxHECrAJ7Xqlb2ccsZaXU1lJ9L0fwl+Qb2FP6uWBZUiJrsUyhuJXw
4HGHu8cib7pf+BUog/9HoijTcbNEKDUrCugi5Qh5XSMmpZcr4sj4m7Y=
-----END CERTIFICATE-----
