Certificate:
    Data:
        Version: 3 (0x2)
        Serial Number: 11042563100198 (0xa0b0c0d0e26)
    Signature Algorithm: sha1WithRSAEncryption
        Issuer: CN=OCSP_CATWO, ST=KA, C=IN/emailAddress=ocspcatwo@ocsptesting.com, O=CITRIX
        Validity
            Not Before: Jun 28 00:49:49 2016 GMT
            Not After : Jun 26 00:49:49 2026 GMT
        Subject: ST=KA, C=IN, CN=010_server/emailAddress=010@test_ca.com, O=CITRIX
        Subject Public Key Info:
            Public Key Algorithm: rsaEncryption
                Public-Key: (2048 bit)
                Modulus:
                    00:e4:d4:3a:f9:28:14:40:9f:fe:71:c2:0b:31:c4:
                    a6:49:38:4c:e1:fc:70:a5:20:52:a4:08:55:1e:5c:
                    4f:2e:1a:60:79:ab:a5:14:95:03:55:41:f2:33:4d:
                    68:1f:97:02:bb:97:46:43:c3:b7:f2:f0:31:88:77:
                    1c:30:1f:d9:aa:67:93:62:1b:fc:de:43:01:5c:d5:
                    9a:62:b3:6a:23:55:9c:ff:9f:b7:65:2b:9b:69:df:
                    f6:89:52:3f:8e:b7:5f:3c:1d:29:14:d4:1f:e5:40:
                    76:78:a1:8d:f4:87:a0:71:f8:89:53:58:a6:fe:40:
                    fc:4e:65:aa:e6:1f:0e:dc:95:5a:c2:97:5a:41:e0:
                    dd:05:0c:99:e9:7e:73:6e:5d:2e:a2:d2:42:f5:d7:
                    57:a9:7b:1d:5a:d8:59:e4:39:b1:aa:95:ee:03:7c:
                    f9:2c:88:e7:75:d5:5f:f8:a5:12:a3:c1:98:f7:e2:
                    ce:09:67:bc:01:e9:3a:5c:4a:74:d6:56:87:d9:e4:
                    e3:4f:69:cb:0e:10:5d:16:ed:64:a7:2f:49:cb:c3:
                    65:ee:63:b4:89:44:c3:85:49:e0:df:df:a5:83:11:
                    cc:73:4b:92:d2:24:cc:33:62:ae:c8:39:02:06:3c:
                    99:5c:25:e2:8b:d9:67:c4:85:ad:59:7a:b9:67:32:
                    dc:49
                Exponent: 65537 (0x10001)
        X509v3 extensions:
            Netscape Cert Type: 
                SSL Server
            X509v3 Subject Key Identifier: 
                16:62:87:C6:63:2B:27:8E:6A:17:32:14:F9:7B:A9:3D:29:98:8B:C0
            X509v3 Authority Key Identifier: 
                keyid:02:88:18:65:DF:25:91:21:D4:0A:68:78:D6:38:A0:5F:8F:17:1E:D3
                DirName:/CN=OCSP_CATWO/ST=KA/C=IN/emailAddress=ocspcatwo@ocsptesting.com/O=CITRIX
                serial:95:45:0F:EB:FA:5E:01:F6

            Authority Information Access: 
                OCSP - URI:http://172.18.10.21/responderpath

    Signature Algorithm: sha1WithRSAEncryption
         7d:04:e0:a0:11:0e:d4:cd:73:1a:63:a8:29:2d:89:4d:6a:9b:
         c8:cf:25:9c:94:15:94:77:ad:c7:4d:0c:7c:3c:d5:d7:58:af:
         03:b5:52:73:75:cc:56:35:0f:dc:fd:75:10:cf:00:74:43:7e:
         75:fc:0a:45:ef:ce:39:ea:c2:2e:45:b7:0f:7d:2e:68:67:4e:
         8a:21:b1:43:3c:3c:8c:31:f0:eb:fb:db:93:9d:d7:e5:d2:d8:
         32:ea:58:c7:dc:e8:82:3d:41:0d:12:c1:36:a1:89:05:14:8e:
         03:0f:54:d4:26:d0:d2:83:74:a9:c7:6e:e4:1e:e6:1e:5f:5b:
         f1:2a:e8:91:a8:04:a0:a7:e8:d5:2c:54:83:55:e4:25:bf:c8:
         b8:8c:de:0f:c2:b9:6f:3f:d4:49:ad:82:d5:06:b7:cd:f7:0f:
         51:27:f5:91:fc:b6:7e:20:56:c0:14:63:7f:64:7a:6b:82:7b:
         ef:a4:8f:cc:cb:26:d8:56:50:31:ab:26:34:81:61:4c:ea:23:
         1e:cb:a9:c8:87:41:24:8d:69:25:c0:74:0a:3e:99:95:00:a5:
         ea:f8:58:6e:f0:c4:9b:d7:c6:44:b7:c3:f7:8f:27:87:27:f6:
         ec:d7:fb:0b:39:e4:ba:c6:5f:b1:94:4b:4f:d3:b8:04:80:55:
         3f:cb:37:ed
-----BEGIN CERTIFICATE-----
MIIEYDCCA0igAwIBAgIGCgsMDQ4mMA0GCSqGSIb3DQEBBQUAMGoxEzARBgNVBAMU
Ck9DU1BfQ0FUV08xCzAJBgNVBAgTAktBMQswCQYDVQQGEwJJTjEoMCYGCSqGSIb3
DQEJARYZb2NzcGNhdHdvQG9jc3B0ZXN0aW5nLmNvbTEPMA0GA1UEChMGQ0lUUklY
MB4XDTE2MDYyODAwNDk0OVoXDTI2MDYyNjAwNDk0OVowYDELMAkGA1UECBMCS0Ex
CzAJBgNVBAYTAklOMRMwEQYDVQQDFAowMTBfc2VydmVyMR4wHAYJKoZIhvcNAQkB
Fg8wMTBAdGVzdF9jYS5jb20xDzANBgNVBAoTBkNJVFJJWDCCASIwDQYJKoZIhvcN
AQEBBQADggEPADCCAQoCggEBAOTUOvkoFECf/nHCCzHEpkk4TOH8cKUgUqQIVR5c
Ty4aYHmrpRSVA1VB8jNNaB+XAruXRkPDt/LwMYh3HDAf2apnk2Ib/N5DAVzVmmKz
aiNVnP+ft2Urm2nf9olSP463XzwdKRTUH+VAdnihjfSHoHH4iVNYpv5A/E5lquYf
DtyVWsKXWkHg3QUMmel+c25dLqLSQvXXV6l7HVrYWeQ5saqV7gN8+SyI53XVX/il
EqPBmPfizglnvAHpOlxKdNZWh9nk409pyw4QXRbtZKcvScvDZe5jtIlEw4VJ4N/f
pYMRzHNLktIkzDNirsg5AgY8mVwl4ovZZ8SFrVl6uWcy3EkCAwEAAaOCARQwggEQ
MBEGCWCGSAGG+EIBAQQEAwIGQDAdBgNVHQ4EFgQUFmKHxmMrJ45qFzIU+XupPSmY
i8AwgZwGA1UdIwSBlDCBkYAUAogYZd8lkSHUCmh41jigX48XHtOhbqRsMGoxEzAR
BgNVBAMUCk9DU1BfQ0FUV08xCzAJBgNVBAgTAktBMQswCQYDVQQGEwJJTjEoMCYG
CSqGSIb3DQEJARYZb2NzcGNhdHdvQG9jc3B0ZXN0aW5nLmNvbTEPMA0GA1UEChMG
Q0lUUklYggkAlUUP6/peAfYwPQYIKwYBBQUHAQEEMTAvMC0GCCsGAQUFBzABhiFo
dHRwOi8vMTcyLjE4LjEwLjIxL3Jlc3BvbmRlcnBhdGgwDQYJKoZIhvcNAQEFBQAD
ggEBAH0E4KARDtTNcxpjqCktiU1qm8jPJZyUFZR3rcdNDHw81ddYrwO1UnN1zFY1
D9z9dRDPAHRDfnX8CkXvzjnqwi5Ftw99LmhnToohsUM8PIwx8Ov725Od1+XS2DLq
WMfc6II9QQ0SwTahiQUUjgMPVNQm0NKDdKnHbuQe5h5fW/Eq6JGoBKCn6NUsVINV
5CW/yLiM3g/CuW8/1EmtgtUGt833D1En9ZH8tn4gVsAUY39kemuCe++kj8zLJthW
UDGrJjSBYUzqIx7LqciHQSSNaSXAdAo+mZUAper4WG7wxJvXxkS3w/ePJ4cn9uzX
+ws55LrGX7GUS0/TuASAVT/LN+0=
-----END CERTIFICATE-----
