Certificate:
    Data:
        Version: 3 (0x2)
        Serial Number: 11042563100199 (0xa0b0c0d0e27)
    Signature Algorithm: sha1WithRSAEncryption
        Issuer: CN=OCSP_CATWO, ST=KA, C=IN/emailAddress=ocspcatwo@ocsptesting.com, O=CITRIX
        Validity
            Not Before: Jun 28 00:49:51 2016 GMT
            Not After : Jun 26 00:49:51 2026 GMT
        Subject: ST=KA, C=IN, CN=011_server/emailAddress=011@test_ca.com, O=CITRIX
        Subject Public Key Info:
            Public Key Algorithm: rsaEncryption
                Public-Key: (2048 bit)
                Modulus:
                    00:d4:26:66:be:ed:67:00:5a:c5:74:ec:67:d1:69:
                    fd:04:17:fb:07:05:5d:7f:06:fa:b6:f2:b9:ce:3d:
                    9c:c3:cb:3b:ce:0d:2a:6d:2a:ee:f5:b4:31:5f:3a:
                    d1:79:28:c0:aa:f9:85:24:18:6e:c0:eb:10:7d:0d:
                    2b:85:5b:b5:49:65:23:45:ee:9a:db:f9:38:cc:5d:
                    12:93:f7:e7:0b:7a:1e:48:ea:0d:e0:f2:6f:86:76:
                    eb:69:c4:06:ed:1f:89:5e:f5:ea:25:f7:d6:b4:45:
                    98:35:86:65:5d:7a:d8:22:d4:f1:2c:ff:77:b2:31:
                    be:1c:2a:2e:40:57:1a:9f:fa:52:11:6d:3e:60:4c:
                    0c:0d:0b:3f:5d:72:d1:8c:91:3a:70:cf:a9:24:9e:
                    19:dd:7b:8b:7b:7a:91:91:7a:7a:42:b3:69:bf:b7:
                    91:d4:39:6f:1e:04:7b:23:39:e4:1e:f6:53:cb:41:
                    1b:74:04:c6:19:74:b2:8b:2f:b7:fc:b2:94:25:7e:
                    d1:3a:e5:6c:6c:86:f4:08:3e:36:e8:6e:34:fa:b1:
                    d1:cf:b6:bf:fd:90:23:cb:94:6f:cc:a6:ea:05:07:
                    f9:fb:44:96:1e:88:3d:a0:a2:2d:87:93:c8:da:81:
                    51:91:f2:ac:5c:03:36:d5:de:37:8b:88:16:24:c4:
                    0a:81
                Exponent: 65537 (0x10001)
        X509v3 extensions:
            Netscape Cert Type: 
                SSL Server
            X509v3 Subject Key Identifier: 
                4E:C5:8F:ED:A8:52:66:70:61:44:DC:AD:96:35:9B:22:2D:B9:9C:9B
            X509v3 Authority Key Identifier: 
                keyid:02:88:18:65:DF:25:91:21:D4:0A:68:78:D6:38:A0:5F:8F:17:1E:D3
                DirName:/CN=OCSP_CATWO/ST=KA/C=IN/emailAddress=ocspcatwo@ocsptesting.com/O=CITRIX
                serial:95:45:0F:EB:FA:5E:01:F6

            Authority Information Access: 
                OCSP - URI:http://172.18.10.21/responderpath

    Signature Algorithm: sha1WithRSAEncryption
         b3:f6:94:b8:d7:f7:2e:fc:76:cb:bc:90:6e:d8:18:32:0d:59:
         fe:63:6f:14:b8:c1:80:3e:b3:12:49:7d:da:ae:fd:57:fd:15:
         b6:d8:75:0a:7e:c6:dd:3c:33:97:80:a6:1b:17:b0:6f:04:21:
         ba:f2:fb:c7:c1:a3:f1:98:cb:37:47:ee:11:ca:34:9c:05:64:
         bf:2e:3f:14:b1:de:9d:84:68:63:3b:b9:93:97:cf:6d:13:21:
         92:4b:59:e1:06:f8:c8:ca:af:77:c8:ee:ca:b3:03:93:0c:c0:
         7e:e7:f6:c2:a5:bf:86:32:de:d2:7d:a5:d5:94:e8:09:ff:f5:
         71:ba:75:27:73:c0:a2:7d:00:35:7f:37:b5:77:99:cf:2d:a5:
         a1:8e:39:bf:50:a4:ec:02:fb:00:6a:18:56:3e:3e:53:8a:7b:
         7d:c6:89:53:2f:b2:92:35:11:79:af:ab:c2:f4:ea:0c:05:ca:
         f2:b7:c2:16:9e:1c:a8:d8:e1:aa:71:d7:ec:76:6b:70:ff:f6:
         54:f1:43:fb:f1:d3:5d:58:e4:34:fb:9f:fd:6c:c3:a8:4d:7d:
         ab:13:15:21:f2:4c:ed:59:3f:69:51:c0:0d:6b:fc:fd:1d:9a:
         09:bb:bd:0e:b5:c1:25:68:db:2d:7e:20:14:ec:2d:33:94:db:
         7e:cf:de:ae
-----BEGIN CERTIFICATE-----
MIIEYDCCA0igAwIBAgIGCgsMDQ4nMA0GCSqGSIb3DQEBBQUAMGoxEzARBgNVBAMU
Ck9DU1BfQ0FUV08xCzAJBgNVBAgTAktBMQswCQYDVQQGEwJJTjEoMCYGCSqGSIb3
DQEJARYZb2NzcGNhdHdvQG9jc3B0ZXN0aW5nLmNvbTEPMA0GA1UEChMGQ0lUUklY
MB4XDTE2MDYyODAwNDk1MVoXDTI2MDYyNjAwNDk1MVowYDELMAkGA1UECBMCS0Ex
CzAJBgNVBAYTAklOMRMwEQYDVQQDFAowMTFfc2VydmVyMR4wHAYJKoZIhvcNAQkB
Fg8wMTFAdGVzdF9jYS5jb20xDzANBgNVBAoTBkNJVFJJWDCCASIwDQYJKoZIhvcN
AQEBBQADggEPADCCAQoCggEBANQmZr7tZwBaxXTsZ9Fp/QQX+wcFXX8G+rbyuc49
nMPLO84NKm0q7vW0MV860XkowKr5hSQYbsDrEH0NK4VbtUllI0Xumtv5OMxdEpP3
5wt6HkjqDeDyb4Z262nEBu0fiV716iX31rRFmDWGZV162CLU8Sz/d7IxvhwqLkBX
Gp/6UhFtPmBMDA0LP11y0YyROnDPqSSeGd17i3t6kZF6ekKzab+3kdQ5bx4EeyM5
5B72U8tBG3QExhl0sosvt/yylCV+0TrlbGyG9Ag+NuhuNPqx0c+2v/2QI8uUb8ym
6gUH+ftElh6IPaCiLYeTyNqBUZHyrFwDNtXeN4uIFiTECoECAwEAAaOCARQwggEQ
MBEGCWCGSAGG+EIBAQQEAwIGQDAdBgNVHQ4EFgQUTsWP7ahSZnBhRNytljWbIi25
nJswgZwGA1UdIwSBlDCBkYAUAogYZd8lkSHUCmh41jigX48XHtOhbqRsMGoxEzAR
BgNVBAMUCk9DU1BfQ0FUV08xCzAJBgNVBAgTAktBMQswCQYDVQQGEwJJTjEoMCYG
CSqGSIb3DQEJARYZb2NzcGNhdHdvQG9jc3B0ZXN0aW5nLmNvbTEPMA0GA1UEChMG
Q0lUUklYggkAlUUP6/peAfYwPQYIKwYBBQUHAQEEMTAvMC0GCCsGAQUFBzABhiFo
dHRwOi8vMTcyLjE4LjEwLjIxL3Jlc3BvbmRlcnBhdGgwDQYJKoZIhvcNAQEFBQAD
ggEBALP2lLjX9y78dsu8kG7YGDINWf5jbxS4wYA+sxJJfdqu/Vf9FbbYdQp+xt08
M5eAphsXsG8EIbry+8fBo/GYyzdH7hHKNJwFZL8uPxSx3p2EaGM7uZOXz20TIZJL
WeEG+MjKr3fI7sqzA5MMwH7n9sKlv4Yy3tJ9pdWU6An/9XG6dSdzwKJ9ADV/N7V3
mc8tpaGOOb9QpOwC+wBqGFY+PlOKe33GiVMvspI1EXmvq8L06gwFyvK3whaeHKjY
4apx1+x2a3D/9lTxQ/vx011Y5DT7n/1sw6hNfasTFSHyTO1ZP2lRwA1r/P0dmgm7
vQ61wSVo2y1+IBTsLTOU237P3q4=
-----END CERTIFICATE-----
