Certificate:
    Data:
        Version: 3 (0x2)
        Serial Number: 11042563100193 (0xa0b0c0d0e21)
    Signature Algorithm: sha1WithRSAEncryption
        Issuer: CN=OCSP_CATWO, ST=KA, C=IN/emailAddress=ocspcatwo@ocsptesting.com, O=CITRIX
        Validity
            Not Before: Jun 28 00:49:36 2016 GMT
            Not After : Jun 26 00:49:36 2026 GMT
        Subject: ST=KA, C=IN, CN=005_server/emailAddress=005@test_ca.com, O=CITRIX
        Subject Public Key Info:
            Public Key Algorithm: rsaEncryption
                Public-Key: (2048 bit)
                Modulus:
                    00:ae:c5:f1:2f:0f:da:e5:d9:40:56:d8:36:03:ac:
                    cc:f2:ab:3b:1e:41:ff:4f:32:a5:e9:3b:d5:ce:0e:
                    a6:c9:9e:28:fd:8b:4d:0d:dd:83:ef:5d:13:8f:6f:
                    3d:ed:06:c9:32:7b:26:63:c8:8d:7d:c3:ef:ba:19:
                    2a:39:d4:1d:cb:ce:6d:6d:52:2e:35:3a:d1:a4:7e:
                    08:0b:d0:06:7d:05:5e:ba:8b:26:93:9b:0c:3a:70:
                    05:9f:ea:5e:e3:92:79:9d:03:1f:59:db:a8:f7:b4:
                    eb:73:9c:55:b7:80:68:f7:27:c5:07:66:e7:e6:c2:
                    30:cf:d9:c7:df:6e:e6:6d:53:a6:0f:8f:ed:21:d0:
                    3f:56:0f:1a:27:c9:91:de:48:bd:48:ce:d1:4c:e2:
                    e5:8d:bb:3c:08:a0:9b:bc:f2:70:62:a2:c1:7f:16:
                    d2:fd:7a:5c:19:5a:16:db:85:a7:1e:69:72:85:3a:
                    57:21:fc:5e:bd:41:f2:96:9f:40:33:17:3f:cc:1a:
                    c5:af:aa:57:f0:c7:d6:a7:7a:db:05:3d:2d:98:4a:
                    a3:a1:cf:6d:02:4a:49:13:f1:db:46:4b:fb:2a:06:
                    46:77:06:37:da:2b:e3:06:65:84:a2:c5:31:55:c5:
                    32:6c:ad:0f:59:a9:b3:43:b6:85:33:60:80:4a:6d:
                    3a:a5
                Exponent: 65537 (0x10001)
        X509v3 extensions:
            Netscape Cert Type: 
                SSL Server
            X509v3 Subject Key Identifier: 
                E3:73:F1:62:79:BC:08:D9:AA:E1:6D:CD:BA:91:8B:93:22:07:7F:45
            X509v3 Authority Key Identifier: 
                keyid:02:88:18:65:DF:25:91:21:D4:0A:68:78:D6:38:A0:5F:8F:17:1E:D3
                DirName:/CN=OCSP_CATWO/ST=KA/C=IN/emailAddress=ocspcatwo@ocsptesting.com/O=CITRIX
                serial:95:45:0F:EB:FA:5E:01:F6

            Authority Information Access: 
                OCSP - URI:http://172.18.10.21/responderpath

    Signature Algorithm: sha1WithRSAEncryption
         6b:9b:e6:d8:f9:78:d4:eb:cd:1b:98:24:8e:b7:4e:5b:2f:dc:
         54:dc:45:54:d0:3a:07:9a:ff:a4:29:89:fd:c5:dc:3c:dd:a3:
         3d:9c:3b:20:bc:97:5e:2e:85:40:0c:76:60:ad:e0:04:47:33:
         d7:bb:df:2e:62:e9:91:81:42:bf:e5:60:14:be:cb:6b:c1:ca:
         da:1d:26:4b:70:20:23:1b:89:da:11:29:b0:4d:ae:0a:23:d5:
         a8:26:a2:c4:b6:fd:30:e7:51:bb:67:53:b0:00:d5:34:da:6e:
         08:94:d3:0d:52:6d:1a:3c:9c:2f:24:80:02:74:5a:df:da:e7:
         60:c5:ae:a9:99:29:f4:e6:7d:51:02:5f:52:6c:00:c4:05:51:
         ec:50:20:29:49:df:b2:a8:56:82:b1:5a:cd:d9:49:ca:29:dd:
         c6:51:f1:66:dc:48:de:0c:c2:85:ff:40:aa:63:48:99:90:1c:
         8e:1f:70:65:4b:6d:91:52:9b:3d:5d:6c:b1:3d:80:58:6a:c0:
         8e:5e:c7:4d:d8:88:93:d4:e2:1b:75:93:95:20:c7:30:25:56:
         84:15:5f:b7:f8:e1:25:e5:69:11:00:b5:6f:f4:4d:24:5f:0e:
         c2:3d:00:8a:62:63:e5:14:89:c3:40:35:5b:5b:6a:21:d4:89:
         d6:23:e4:9f
-----BEGIN CERTIFICATE-----
MIIEYDCCA0igAwIBAgIGCgsMDQ4hMA0GCSqGSIb3DQEBBQUAMGoxEzARBgNVBAMU
Ck9DU1BfQ0FUV08xCzAJBgNVBAgTAktBMQswCQYDVQQGEwJJTjEoMCYGCSqGSIb3
DQEJARYZb2NzcGNhdHdvQG9jc3B0ZXN0aW5nLmNvbTEPMA0GA1UEChMGQ0lUUklY
MB4XDTE2MDYyODAwNDkzNloXDTI2MDYyNjAwNDkzNlowYDELMAkGA1UECBMCS0Ex
CzAJBgNVBAYTAklOMRMwEQYDVQQDFAowMDVfc2VydmVyMR4wHAYJKoZIhvcNAQkB
Fg8wMDVAdGVzdF9jYS5jb20xDzANBgNVBAoTBkNJVFJJWDCCASIwDQYJKoZIhvcN
AQEBBQADggEPADCCAQoCggEBAK7F8S8P2uXZQFbYNgOszPKrOx5B/08ypek71c4O
psmeKP2LTQ3dg+9dE49vPe0GyTJ7JmPIjX3D77oZKjnUHcvObW1SLjU60aR+CAvQ
Bn0FXrqLJpObDDpwBZ/qXuOSeZ0DH1nbqPe063OcVbeAaPcnxQdm5+bCMM/Zx99u
5m1Tpg+P7SHQP1YPGifJkd5IvUjO0Uzi5Y27PAigm7zycGKiwX8W0v16XBlaFtuF
px5pcoU6VyH8Xr1B8pafQDMXP8waxa+qV/DH1qd62wU9LZhKo6HPbQJKSRPx20ZL
+yoGRncGN9or4wZlhKLFMVXFMmytD1mps0O2hTNggEptOqUCAwEAAaOCARQwggEQ
MBEGCWCGSAGG+EIBAQQEAwIGQDAdBgNVHQ4EFgQU43PxYnm8CNmq4W3NupGLkyIH
f0UwgZwGA1UdIwSBlDCBkYAUAogYZd8lkSHUCmh41jigX48XHtOhbqRsMGoxEzAR
BgNVBAMUCk9DU1BfQ0FUV08xCzAJBgNVBAgTAktBMQswCQYDVQQGEwJJTjEoMCYG
CSqGSIb3DQEJARYZb2NzcGNhdHdvQG9jc3B0ZXN0aW5nLmNvbTEPMA0GA1UEChMG
Q0lUUklYggkAlUUP6/peAfYwPQYIKwYBBQUHAQEEMTAvMC0GCCsGAQUFBzABhiFo
dHRwOi8vMTcyLjE4LjEwLjIxL3Jlc3BvbmRlcnBhdGgwDQYJKoZIhvcNAQEFBQAD
ggEBAGub5tj5eNTrzRuYJI63Tlsv3FTcRVTQOgea/6Qpif3F3Dzdoz2cOyC8l14u
hUAMdmCt4ARHM9e73y5i6ZGBQr/lYBS+y2vBytodJktwICMbidoRKbBNrgoj1agm
osS2/TDnUbtnU7AA1TTabgiU0w1SbRo8nC8kgAJ0Wt/a52DFrqmZKfTmfVECX1Js
AMQFUexQIClJ37KoVoKxWs3ZScop3cZR8WbcSN4MwoX/QKpjSJmQHI4fcGVLbZFS
mz1dbLE9gFhqwI5ex03YiJPU4ht1k5UgxzAlVoQVX7f44SXlaREAtW/0TSRfDsI9
AIpiY+UUicNANVtbaiHUidYj5J8=
-----END CERTIFICATE-----
