Certificate:
    Data:
        Version: 3 (0x2)
        Serial Number: 11042563100221 (0xa0b0c0d0e3d)
    Signature Algorithm: sha1WithRSAEncryption
        Issuer: CN=OCSP_CATWO, ST=KA, C=IN/emailAddress=ocspcatwo@ocsptesting.com, O=CITRIX
        Validity
            Not Before: Jun 28 00:57:45 2016 GMT
            Not After : Jun 26 00:57:45 2026 GMT
        Subject: ST=KA, C=IN, CN=ocspcatwo_033_server/emailAddress=ocspcatwo_033@test_ca.com, O=CITRIX
        Subject Public Key Info:
            Public Key Algorithm: rsaEncryption
                Public-Key: (2048 bit)
                Modulus:
                    00:ee:a2:4c:9a:81:b8:6f:16:f8:a7:0c:f8:82:3a:
                    3c:27:c6:df:79:49:dd:e9:7a:45:dc:0d:6a:1a:32:
                    5a:6c:f2:17:5d:a1:6a:6d:81:d2:75:e7:1a:d2:51:
                    40:4e:98:31:c0:89:96:d9:a5:93:3c:90:3c:9b:91:
                    7c:01:12:c2:db:04:37:e2:d0:ca:d6:87:8c:3f:06:
                    20:51:38:20:0c:ea:6c:4c:3a:b9:48:7d:cf:46:4d:
                    48:99:79:88:a2:5d:00:93:75:ec:f3:ce:25:2f:49:
                    f8:9e:36:11:2c:fa:e1:24:ab:3e:54:22:34:72:a1:
                    d3:15:25:fc:94:ce:5e:bc:47:bc:c5:ce:27:b9:76:
                    12:6a:a6:bd:51:da:91:5d:59:08:55:96:b3:71:7b:
                    fe:fa:c3:b5:b7:be:8f:84:e4:d6:c1:6b:f7:ed:9c:
                    5c:62:21:22:46:ce:91:1d:25:55:0f:14:62:96:cd:
                    f1:3d:18:98:72:bf:0f:53:62:fd:9f:f7:39:18:ba:
                    ae:fd:d7:35:96:04:29:5a:98:2f:e9:48:13:f0:ad:
                    00:5a:28:8e:ff:fa:23:ee:5c:f7:b7:8c:a5:1a:59:
                    eb:d3:4d:7c:06:51:92:86:0d:f8:e2:90:d4:6b:1d:
                    33:84:19:59:00:6b:f3:c2:1c:a7:f9:22:5d:f7:cc:
                    0c:77
                Exponent: 65537 (0x10001)
        X509v3 extensions:
            Netscape Cert Type: 
                SSL Server
            X509v3 Subject Key Identifier: 
                D9:71:E0:AE:5B:35:CF:6E:B0:3F:54:7D:41:25:07:19:70:A7:54:98
            X509v3 Authority Key Identifier: 
                keyid:02:88:18:65:DF:25:91:21:D4:0A:68:78:D6:38:A0:5F:8F:17:1E:D3
                DirName:/CN=OCSP_CATWO/ST=KA/C=IN/emailAddress=ocspcatwo@ocsptesting.com/O=CITRIX
                serial:95:45:0F:EB:FA:5E:01:F6

            Authority Information Access: 
                OCSP - URI:http://ashoke.ocsp_catwo.citrite.net/responderpath

    Signature Algorithm: sha1WithRSAEncryption
         0c:c9:37:eb:6a:1c:df:8f:07:be:96:f3:40:d0:5e:4a:88:76:
         8f:de:39:06:47:5c:67:30:30:bf:6b:61:f6:f0:4a:ff:40:c1:
         2d:f9:11:54:b7:25:8c:f2:71:7f:b2:12:ba:1c:ef:6a:0c:82:
         3d:81:ea:a1:72:a6:95:73:78:12:67:46:d2:9f:db:e3:68:4e:
         89:8b:58:b4:57:ee:54:82:90:40:4b:4f:c6:04:45:6e:ff:05:
         2d:26:9e:41:53:ce:4d:f7:8f:55:8c:e5:2e:7b:95:6b:62:19:
         55:87:eb:e2:30:08:33:a8:e0:66:2d:06:fd:b4:6d:be:10:15:
         db:ed:aa:dd:b2:01:49:cb:af:66:8c:6c:e2:c0:7a:05:b5:e8:
         1b:eb:26:40:64:85:87:75:38:9d:ec:d4:b4:1d:c0:ef:ed:f7:
         e8:95:59:9f:79:dd:49:c5:e5:78:44:04:3f:8a:83:82:8c:e4:
         42:0e:dd:79:5b:56:eb:64:9a:32:8b:29:1d:65:79:a0:da:26:
         c7:9c:fe:d5:e4:8e:97:e0:f6:a6:c0:dd:5a:0b:8e:b4:f4:af:
         42:0c:38:92:2d:be:db:d2:5f:95:2a:29:35:ae:24:19:9a:47:
         4c:de:6a:5b:07:db:4a:84:ee:01:72:dc:55:c7:a6:89:9a:84:
         3b:c1:53:a7
-----BEGIN CERTIFICATE-----
MIIEhTCCA22gAwIBAgIGCgsMDQ49MA0GCSqGSIb3DQEBBQUAMGoxEzARBgNVBAMU
Ck9DU1BfQ0FUV08xCzAJBgNVBAgTAktBMQswCQYDVQQGEwJJTjEoMCYGCSqGSIb3
DQEJARYZb2NzcGNhdHdvQG9jc3B0ZXN0aW5nLmNvbTEPMA0GA1UEChMGQ0lUUklY
MB4XDTE2MDYyODAwNTc0NVoXDTI2MDYyNjAwNTc0NVowdDELMAkGA1UECBMCS0Ex
CzAJBgNVBAYTAklOMR0wGwYDVQQDFBRvY3NwY2F0d29fMDMzX3NlcnZlcjEoMCYG
CSqGSIb3DQEJARYZb2NzcGNhdHdvXzAzM0B0ZXN0X2NhLmNvbTEPMA0GA1UEChMG
Q0lUUklYMIIBIjANBgkqhkiG9w0BAQEFAAOCAQ8AMIIBCgKCAQEA7qJMmoG4bxb4
pwz4gjo8J8bfeUnd6XpF3A1qGjJabPIXXaFqbYHSdeca0lFATpgxwImW2aWTPJA8
m5F8ARLC2wQ34tDK1oeMPwYgUTggDOpsTDq5SH3PRk1ImXmIol0Ak3Xs884lL0n4
njYRLPrhJKs+VCI0cqHTFSX8lM5evEe8xc4nuXYSaqa9UdqRXVkIVZazcXv++sO1
t76PhOTWwWv37ZxcYiEiRs6RHSVVDxRils3xPRiYcr8PU2L9n/c5GLqu/dc1lgQp
Wpgv6UgT8K0AWiiO//oj7lz3t4ylGlnr0018BlGShg344pDUax0zhBlZAGvzwhyn
+SJd98wMdwIDAQABo4IBJTCCASEwEQYJYIZIAYb4QgEBBAQDAgZAMB0GA1UdDgQW
BBTZceCuWzXPbrA/VH1BJQcZcKdUmDCBnAYDVR0jBIGUMIGRgBQCiBhl3yWRIdQK
aHjWOKBfjxce06FupGwwajETMBEGA1UEAxQKT0NTUF9DQVRXTzELMAkGA1UECBMC
S0ExCzAJBgNVBAYTAklOMSgwJgYJKoZIhvcNAQkBFhlvY3NwY2F0d29Ab2NzcHRl
c3RpbmcuY29tMQ8wDQYDVQQKEwZDSVRSSViCCQCVRQ/r+l4B9jBOBggrBgEFBQcB
AQRCMEAwPgYIKwYBBQUHMAGGMmh0dHA6Ly9hc2hva2Uub2NzcF9jYXR3by5jaXRy
aXRlLm5ldC9yZXNwb25kZXJwYXRoMA0GCSqGSIb3DQEBBQUAA4IBAQAMyTfrahzf
jwe+lvNA0F5KiHaP3jkGR1xnMDC/a2H28Er/QMEt+RFUtyWM8nF/shK6HO9qDII9
geqhcqaVc3gSZ0bSn9vjaE6Ji1i0V+5UgpBAS0/GBEVu/wUtJp5BU85N949VjOUu
e5VrYhlVh+viMAgzqOBmLQb9tG2+EBXb7ardsgFJy69mjGziwHoFtegb6yZAZIWH
dTid7NS0HcDv7ffolVmfed1JxeV4RAQ/ioOCjORCDt15W1brZJoyiykdZXmg2ibH
nP7V5I6X4PamwN1aC4609K9CDDiSLb7b0l+VKik1riQZmkdM3mpbB9tKhO4BctxV
x6aJmoQ7wVOn
-----END CERTIFICATE-----
