Certificate:
    Data:
        Version: 3 (0x2)
        Serial Number: 11042563100216 (0xa0b0c0d0e38)
    Signature Algorithm: sha1WithRSAEncryption
        Issuer: CN=OCSP_CATWO, ST=KA, C=IN/emailAddress=ocspcatwo@ocsptesting.com, O=CITRIX
        Validity
            Not Before: Jun 28 00:50:44 2016 GMT
            Not After : Jun 26 00:50:44 2026 GMT
        Subject: ST=KA, C=IN, CN=028_server/emailAddress=028@test_ca.com, O=CITRIX
        Subject Public Key Info:
            Public Key Algorithm: rsaEncryption
                Public-Key: (2048 bit)
                Modulus:
                    00:ca:65:e5:37:85:f4:51:cd:51:7c:72:e2:51:26:
                    4b:38:fb:9e:a7:4f:e1:79:07:b7:b4:35:19:23:58:
                    da:4c:87:bd:50:d6:9b:66:c0:2f:48:5d:40:69:43:
                    7c:1e:f8:50:87:c5:74:42:51:6c:34:96:aa:be:75:
                    52:6b:9d:28:ea:bc:30:68:c4:6d:6e:06:4f:fb:62:
                    7e:33:2d:6c:2e:e4:0b:dd:ae:61:80:8f:84:4c:db:
                    b1:6c:e6:1f:8c:db:86:3b:b7:0a:8e:48:f6:dd:0b:
                    82:a3:57:2e:97:6d:94:b8:23:52:51:a0:71:a8:0f:
                    24:c5:50:ca:8e:8c:8c:e9:a2:7c:70:ff:24:7a:e7:
                    f8:fe:39:0d:e9:0b:3c:18:9e:ff:3b:91:4e:99:8e:
                    b6:d7:f3:9c:57:23:c8:bf:7c:c3:4f:4d:bc:68:fb:
                    fa:6d:3a:39:84:87:64:9f:de:ef:7f:c5:be:7c:b2:
                    02:49:f9:95:0d:7d:ac:8a:13:a9:3a:33:55:59:e9:
                    2c:f1:36:0f:b4:65:f1:06:35:b0:7f:81:3c:ee:0b:
                    eb:63:e4:c9:b9:7f:b0:d2:e1:cc:d5:1e:9b:bc:ab:
                    f3:26:ca:41:47:88:09:b5:44:a1:d8:ce:44:8c:0d:
                    74:27:18:cb:2c:cd:ed:8a:c3:59:60:1e:d7:54:75:
                    fc:cd
                Exponent: 65537 (0x10001)
        X509v3 extensions:
            Netscape Cert Type: 
                SSL Server
            X509v3 Subject Key Identifier: 
                28:D5:A2:55:67:C7:4E:B5:1E:4F:55:8C:4F:40:22:7A:C5:A4:C5:54
            X509v3 Authority Key Identifier: 
                keyid:02:88:18:65:DF:25:91:21:D4:0A:68:78:D6:38:A0:5F:8F:17:1E:D3
                DirName:/CN=OCSP_CATWO/ST=KA/C=IN/emailAddress=ocspcatwo@ocsptesting.com/O=CITRIX
                serial:95:45:0F:EB:FA:5E:01:F6

            Authority Information Access: 
                OCSP - URI:http://172.18.10.21/responderpath

    Signature Algorithm: sha1WithRSAEncryption
         b9:70:ea:0b:53:89:85:92:f2:4a:37:01:d7:66:e8:c4:84:bb:
         fc:fe:78:2c:24:3b:52:08:3b:cb:94:9f:51:51:e3:e3:40:d7:
         1d:23:c5:af:13:da:16:fb:3c:bd:5f:11:86:51:5f:f3:d9:3a:
         32:d2:5f:6f:15:f6:94:cb:71:76:14:78:15:c5:96:6c:92:15:
         fe:a9:37:95:ab:2b:4c:a2:ca:25:ac:e4:e4:ad:71:29:9e:7a:
         23:b6:87:6c:43:67:b3:30:9e:26:e5:5b:5a:a8:8e:91:62:fa:
         a5:be:65:5e:fb:21:da:68:8a:2e:fa:3a:79:85:35:7d:4e:3d:
         e9:df:b7:71:4e:eb:cf:ac:b2:f8:78:a3:9f:69:ea:7e:8f:3a:
         93:10:05:98:d5:fe:07:f9:89:6f:af:c0:4c:41:9b:8d:be:f2:
         58:9b:20:a8:fe:05:10:18:90:0f:c8:84:fd:10:0d:d4:57:ba:
         d1:83:3d:4d:eb:6d:74:18:e1:a4:bc:a5:85:24:c0:b4:15:48:
         df:6c:2c:14:55:ec:19:6a:78:d1:46:e5:49:8e:14:a4:4d:fd:
         33:48:9f:5e:33:48:b4:74:3c:aa:12:9e:a3:ed:1b:5a:e7:13:
         cd:d4:3d:6c:4f:26:b7:92:e6:74:61:fc:51:f6:8d:43:08:53:
         c4:0b:82:a2
-----BEGIN CERTIFICATE-----
MIIEYDCCA0igAwIBAgIGCgsMDQ44MA0GCSqGSIb3DQEBBQUAMGoxEzARBgNVBAMU
Ck9DU1BfQ0FUV08xCzAJBgNVBAgTAktBMQswCQYDVQQGEwJJTjEoMCYGCSqGSIb3
DQEJARYZb2NzcGNhdHdvQG9jc3B0ZXN0aW5nLmNvbTEPMA0GA1UEChMGQ0lUUklY
MB4XDTE2MDYyODAwNTA0NFoXDTI2MDYyNjAwNTA0NFowYDELMAkGA1UECBMCS0Ex
CzAJBgNVBAYTAklOMRMwEQYDVQQDFAowMjhfc2VydmVyMR4wHAYJKoZIhvcNAQkB
Fg8wMjhAdGVzdF9jYS5jb20xDzANBgNVBAoTBkNJVFJJWDCCASIwDQYJKoZIhvcN
AQEBBQADggEPADCCAQoCggEBAMpl5TeF9FHNUXxy4lEmSzj7nqdP4XkHt7Q1GSNY
2kyHvVDWm2bAL0hdQGlDfB74UIfFdEJRbDSWqr51UmudKOq8MGjEbW4GT/tifjMt
bC7kC92uYYCPhEzbsWzmH4zbhju3Co5I9t0LgqNXLpdtlLgjUlGgcagPJMVQyo6M
jOmifHD/JHrn+P45DekLPBie/zuRTpmOttfznFcjyL98w09NvGj7+m06OYSHZJ/e
73/FvnyyAkn5lQ19rIoTqTozVVnpLPE2D7Rl8QY1sH+BPO4L62Pkybl/sNLhzNUe
m7yr8ybKQUeICbVEodjORIwNdCcYyyzN7YrDWWAe11R1/M0CAwEAAaOCARQwggEQ
MBEGCWCGSAGG+EIBAQQEAwIGQDAdBgNVHQ4EFgQUKNWiVWfHTrUeT1WMT0AiesWk
xVQwgZwGA1UdIwSBlDCBkYAUAogYZd8lkSHUCmh41jigX48XHtOhbqRsMGoxEzAR
BgNVBAMUCk9DU1BfQ0FUV08xCzAJBgNVBAgTAktBMQswCQYDVQQGEwJJTjEoMCYG
CSqGSIb3DQEJARYZb2NzcGNhdHdvQG9jc3B0ZXN0aW5nLmNvbTEPMA0GA1UEChMG
Q0lUUklYggkAlUUP6/peAfYwPQYIKwYBBQUHAQEEMTAvMC0GCCsGAQUFBzABhiFo
dHRwOi8vMTcyLjE4LjEwLjIxL3Jlc3BvbmRlcnBhdGgwDQYJKoZIhvcNAQEFBQAD
ggEBALlw6gtTiYWS8ko3Addm6MSEu/z+eCwkO1IIO8uUn1FR4+NA1x0jxa8T2hb7
PL1fEYZRX/PZOjLSX28V9pTLcXYUeBXFlmySFf6pN5WrK0yiyiWs5OStcSmeeiO2
h2xDZ7MwniblW1qojpFi+qW+ZV77Idpoii76OnmFNX1OPenft3FO68+ssvh4o59p
6n6POpMQBZjV/gf5iW+vwExBm42+8libIKj+BRAYkA/IhP0QDdRXutGDPU3rbXQY
4aS8pYUkwLQVSN9sLBRV7BlqeNFG5UmOFKRN/TNIn14zSLR0PKoSnqPtG1rnE83U
PWxPJreS5nRh/FH2jUMIU8QLgqI=
-----END CERTIFICATE-----
