Certificate:
    Data:
        Version: 3 (0x2)
        Serial Number: 11042563100212 (0xa0b0c0d0e34)
    Signature Algorithm: sha1WithRSAEncryption
        Issuer: CN=OCSP_CATWO, ST=KA, C=IN/emailAddress=ocspcatwo@ocsptesting.com, O=CITRIX
        Validity
            Not Before: Jun 28 00:50:31 2016 GMT
            Not After : Jun 26 00:50:31 2026 GMT
        Subject: ST=KA, C=IN, CN=024_server/emailAddress=024@test_ca.com, O=CITRIX
        Subject Public Key Info:
            Public Key Algorithm: rsaEncryption
                Public-Key: (2048 bit)
                Modulus:
                    00:d8:b3:76:25:ce:72:04:67:bc:8e:06:71:9c:5e:
                    14:32:1a:11:8c:cf:41:1e:6d:d7:16:10:c4:18:5e:
                    b6:5d:35:f2:bc:38:5c:c9:58:50:57:c2:de:33:36:
                    62:ce:c7:68:c2:c0:d2:45:2e:00:e1:3d:3e:db:59:
                    4c:d9:c2:d4:06:40:d5:c7:be:80:4a:af:a3:7c:d0:
                    b4:a7:92:3b:6e:32:1f:13:05:58:cf:81:47:83:0d:
                    77:6f:ae:b9:61:57:23:32:73:58:c1:4e:22:41:26:
                    67:e0:d5:f8:cb:77:f0:55:0f:e0:44:0b:6d:e4:b6:
                    56:93:9b:aa:e6:ae:82:3e:2f:8f:f4:30:26:14:4f:
                    32:99:fe:d0:91:b5:15:b5:2e:f1:a6:db:92:88:eb:
                    ef:c1:0a:0c:ef:23:db:88:8b:72:a0:15:b4:99:12:
                    ef:68:cf:61:3a:77:c0:12:c6:0d:ea:65:7d:8f:2d:
                    58:63:ae:3d:a6:dc:7f:64:05:65:e9:16:ef:1a:4f:
                    c7:2f:d9:74:bc:b3:bd:36:83:01:38:a6:d0:fa:2f:
                    1e:5e:e4:d7:d7:05:fa:7d:43:6d:b2:a7:70:44:e1:
                    f9:17:7b:dd:03:09:89:d0:0f:e5:2f:6c:2e:51:17:
                    25:26:63:a7:67:3e:f9:19:bf:56:ad:93:b4:e0:b3:
                    87:d3
                Exponent: 65537 (0x10001)
        X509v3 extensions:
            Netscape Cert Type: 
                SSL Server
            X509v3 Subject Key Identifier: 
                2C:61:65:1A:3B:13:00:C4:49:7F:E4:C0:8B:1F:BF:AA:16:E3:4C:CD
            X509v3 Authority Key Identifier: 
                keyid:02:88:18:65:DF:25:91:21:D4:0A:68:78:D6:38:A0:5F:8F:17:1E:D3
                DirName:/CN=OCSP_CATWO/ST=KA/C=IN/emailAddress=ocspcatwo@ocsptesting.com/O=CITRIX
                serial:95:45:0F:EB:FA:5E:01:F6

            Authority Information Access: 
                OCSP - URI:http://172.18.10.21/responderpath

    Signature Algorithm: sha1WithRSAEncryption
         2a:c0:0d:43:cf:03:be:37:17:a7:53:54:76:c4:0b:be:bc:be:
         c6:27:dc:f8:d9:ff:da:d6:ba:08:1f:cf:a3:ef:1b:61:2a:b8:
         cf:d8:34:59:fd:b8:96:fd:34:96:e4:2a:9c:04:c4:e6:9a:66:
         9a:ff:e7:40:36:76:42:f0:33:32:b1:42:33:5d:bc:03:0d:c7:
         1a:61:21:30:b2:16:e2:76:4c:2e:15:4c:63:f2:e0:2f:54:62:
         55:09:39:14:3b:89:14:70:5a:62:b1:67:03:30:1c:59:f6:c0:
         8c:50:e3:44:09:ea:f6:0d:e7:a6:26:95:3a:2c:a6:30:23:2d:
         11:16:10:ad:ef:0b:90:45:8e:e4:fa:35:3f:ff:63:b4:fe:16:
         55:40:b2:b6:c3:3c:77:51:eb:4c:27:e6:f9:aa:5e:b6:6d:28:
         32:84:f5:bf:48:0a:43:c4:97:99:f8:9b:5c:87:b0:d8:39:f0:
         4e:7f:c3:d2:5d:a1:a3:1a:80:20:8d:56:d9:bc:82:f6:1e:a2:
         8b:5e:36:cf:ef:c6:3c:9e:9b:a6:f7:fd:83:75:5d:be:0f:18:
         b6:d8:3d:8d:47:d3:c9:f4:d9:bf:c5:53:6c:dd:10:e0:de:82:
         25:5a:9b:10:70:67:bb:8b:a2:53:22:b0:be:3d:ea:94:fb:7a:
         91:30:5b:3e
-----BEGIN CERTIFICATE-----
MIIEYDCCA0igAwIBAgIGCgsMDQ40MA0GCSqGSIb3DQEBBQUAMGoxEzARBgNVBAMU
Ck9DU1BfQ0FUV08xCzAJBgNVBAgTAktBMQswCQYDVQQGEwJJTjEoMCYGCSqGSIb3
DQEJARYZb2NzcGNhdHdvQG9jc3B0ZXN0aW5nLmNvbTEPMA0GA1UEChMGQ0lUUklY
MB4XDTE2MDYyODAwNTAzMVoXDTI2MDYyNjAwNTAzMVowYDELMAkGA1UECBMCS0Ex
CzAJBgNVBAYTAklOMRMwEQYDVQQDFAowMjRfc2VydmVyMR4wHAYJKoZIhvcNAQkB
Fg8wMjRAdGVzdF9jYS5jb20xDzANBgNVBAoTBkNJVFJJWDCCASIwDQYJKoZIhvcN
AQEBBQADggEPADCCAQoCggEBANizdiXOcgRnvI4GcZxeFDIaEYzPQR5t1xYQxBhe
tl018rw4XMlYUFfC3jM2Ys7HaMLA0kUuAOE9PttZTNnC1AZA1ce+gEqvo3zQtKeS
O24yHxMFWM+BR4MNd2+uuWFXIzJzWMFOIkEmZ+DV+Mt38FUP4EQLbeS2VpObquau
gj4vj/QwJhRPMpn+0JG1FbUu8abbkojr78EKDO8j24iLcqAVtJkS72jPYTp3wBLG
DeplfY8tWGOuPabcf2QFZekW7xpPxy/ZdLyzvTaDATim0PovHl7k19cF+n1DbbKn
cETh+Rd73QMJidAP5S9sLlEXJSZjp2c++Rm/Vq2TtOCzh9MCAwEAAaOCARQwggEQ
MBEGCWCGSAGG+EIBAQQEAwIGQDAdBgNVHQ4EFgQULGFlGjsTAMRJf+TAix+/qhbj
TM0wgZwGA1UdIwSBlDCBkYAUAogYZd8lkSHUCmh41jigX48XHtOhbqRsMGoxEzAR
BgNVBAMUCk9DU1BfQ0FUV08xCzAJBgNVBAgTAktBMQswCQYDVQQGEwJJTjEoMCYG
CSqGSIb3DQEJARYZb2NzcGNhdHdvQG9jc3B0ZXN0aW5nLmNvbTEPMA0GA1UEChMG
Q0lUUklYggkAlUUP6/peAfYwPQYIKwYBBQUHAQEEMTAvMC0GCCsGAQUFBzABhiFo
dHRwOi8vMTcyLjE4LjEwLjIxL3Jlc3BvbmRlcnBhdGgwDQYJKoZIhvcNAQEFBQAD
ggEBACrADUPPA743F6dTVHbEC768vsYn3PjZ/9rWuggfz6PvG2EquM/YNFn9uJb9
NJbkKpwExOaaZpr/50A2dkLwMzKxQjNdvAMNxxphITCyFuJ2TC4VTGPy4C9UYlUJ
ORQ7iRRwWmKxZwMwHFn2wIxQ40QJ6vYN56YmlTospjAjLREWEK3vC5BFjuT6NT//
Y7T+FlVAsrbDPHdR60wn5vmqXrZtKDKE9b9ICkPEl5n4m1yHsNg58E5/w9JdoaMa
gCCNVtm8gvYeooteNs/vxjyem6b3/YN1Xb4PGLbYPY1H08n02b/FU2zdEODegiVa
mxBwZ7uLolMisL496pT7epEwWz4=
-----END CERTIFICATE-----
