Certificate:
    Data:
        Version: 3 (0x2)
        Serial Number: 11042563100234 (0xa0b0c0d0e4a)
    Signature Algorithm: sha1WithRSAEncryption
        Issuer: CN=OCSP_CATWO, ST=KA, C=IN/emailAddress=ocspcatwo@ocsptesting.com, O=CITRIX
        Validity
            Not Before: Jun 28 00:59:51 2016 GMT
            Not After : Jun 26 00:59:51 2026 GMT
        Subject: ST=KA, C=IN, CN=ocspcatwo_046_server/emailAddress=ocspcatwo_046@test_ca.com, O=CITRIX
        Subject Public Key Info:
            Public Key Algorithm: rsaEncryption
                Public-Key: (2048 bit)
                Modulus:
                    00:d9:7c:84:ac:2f:99:d0:fe:56:8c:26:fa:de:79:
                    51:08:56:4c:49:20:72:a8:db:78:a3:eb:5e:7c:d1:
                    59:bb:80:2d:00:0e:dd:df:7d:3a:30:bf:0a:3c:50:
                    14:56:0b:74:f5:6d:6d:22:5b:e8:ee:71:1d:fe:c7:
                    fe:09:fe:8a:78:52:a0:05:9a:2b:e1:34:1f:bb:84:
                    b2:90:f0:a5:f8:ea:ce:4e:03:44:0b:d5:17:04:75:
                    b8:c0:ac:7b:d0:f4:b7:aa:d5:42:60:b1:37:bb:51:
                    44:01:47:63:7d:a6:4e:5b:42:f1:88:57:ff:2b:3c:
                    9b:be:5f:b3:b4:9a:be:15:04:d2:fe:25:69:68:73:
                    2b:87:14:8b:dc:dd:80:b9:50:4c:a5:08:b6:e1:78:
                    59:16:6a:48:36:b5:e9:ea:4f:30:d3:3e:60:85:19:
                    8f:63:6d:a7:8f:a3:72:12:b6:33:a2:8d:11:96:d6:
                    c8:4a:11:43:57:f0:8b:63:db:37:96:5e:f5:bb:33:
                    ad:38:bc:d3:f0:dc:d4:58:e7:1a:c3:96:6a:b9:88:
                    fc:45:fc:45:65:04:a4:b2:14:95:09:5f:bf:7d:b5:
                    fe:a5:06:de:60:ab:db:1d:cd:21:ea:74:e4:e5:d0:
                    58:47:32:2c:7f:bb:a1:b1:48:cc:57:11:4c:4e:d1:
                    fe:f9
                Exponent: 65537 (0x10001)
        X509v3 extensions:
            Netscape Cert Type: 
                SSL Server
            X509v3 Subject Key Identifier: 
                AB:B0:3C:44:94:E8:3B:C3:A1:97:3A:39:5A:84:0D:F5:31:6B:E4:DD
            X509v3 Authority Key Identifier: 
                keyid:02:88:18:65:DF:25:91:21:D4:0A:68:78:D6:38:A0:5F:8F:17:1E:D3
                DirName:/CN=OCSP_CATWO/ST=KA/C=IN/emailAddress=ocspcatwo@ocsptesting.com/O=CITRIX
                serial:95:45:0F:EB:FA:5E:01:F6

            Authority Information Access: 
                OCSP - URI:http://ashoke2.ocsp_catwo.citrite.net/responderpath

    Signature Algorithm: sha1WithRSAEncryption
         a4:67:ef:0d:44:26:25:b7:84:4f:bf:ba:41:e8:24:08:cd:61:
         5d:83:c4:68:59:36:90:6d:57:e7:58:20:d3:05:67:1e:fc:37:
         0b:6f:a5:c3:47:58:f4:de:f8:20:85:1d:cb:bc:b6:b2:a1:82:
         83:f6:12:0d:12:f5:37:4c:62:a9:42:ba:8c:40:27:99:0e:11:
         58:71:7c:02:13:57:cb:e3:8e:1b:09:36:1d:10:e4:a3:2d:71:
         4b:fb:ad:33:b6:f4:4b:bb:3a:fa:fa:0c:a0:6a:dd:14:0c:88:
         bb:f3:36:82:62:32:4d:c1:e4:63:ef:8a:68:08:50:7c:70:5d:
         b5:a3:6f:9f:ec:b7:0b:0b:fb:c6:7c:85:3d:32:47:9b:31:a0:
         9f:7b:81:9e:87:05:8b:34:c1:8b:5d:c2:8e:33:26:69:8b:5c:
         2a:1e:fc:5e:b0:78:8d:f2:e0:7d:fe:51:6d:5b:ed:3d:c9:41:
         a7:16:ca:a8:78:c9:38:3d:ff:23:46:dc:27:30:92:ba:76:05:
         43:8f:15:0b:c9:9f:b4:0f:7f:4b:d9:43:af:32:ca:f1:71:f5:
         db:6b:e5:13:c6:2e:c2:b2:c2:8e:f2:2e:ee:81:22:a2:12:94:
         4e:96:5c:08:6a:ba:db:5d:2b:44:fb:97:2b:1d:c7:7e:aa:be:
         7f:39:03:ce
-----BEGIN CERTIFICATE-----
MIIEhjCCA26gAwIBAgIGCgsMDQ5KMA0GCSqGSIb3DQEBBQUAMGoxEzARBgNVBAMU
Ck9DU1BfQ0FUV08xCzAJBgNVBAgTAktBMQswCQYDVQQGEwJJTjEoMCYGCSqGSIb3
DQEJARYZb2NzcGNhdHdvQG9jc3B0ZXN0aW5nLmNvbTEPMA0GA1UEChMGQ0lUUklY
MB4XDTE2MDYyODAwNTk1MVoXDTI2MDYyNjAwNTk1MVowdDELMAkGA1UECBMCS0Ex
CzAJBgNVBAYTAklOMR0wGwYDVQQDFBRvY3NwY2F0d29fMDQ2X3NlcnZlcjEoMCYG
CSqGSIb3DQEJARYZb2NzcGNhdHdvXzA0NkB0ZXN0X2NhLmNvbTEPMA0GA1UEChMG
Q0lUUklYMIIBIjANBgkqhkiG9w0BAQEFAAOCAQ8AMIIBCgKCAQEA2XyErC+Z0P5W
jCb63nlRCFZMSSByqNt4o+tefNFZu4AtAA7d3306ML8KPFAUVgt09W1tIlvo7nEd
/sf+Cf6KeFKgBZor4TQfu4SykPCl+OrOTgNEC9UXBHW4wKx70PS3qtVCYLE3u1FE
AUdjfaZOW0LxiFf/Kzybvl+ztJq+FQTS/iVpaHMrhxSL3N2AuVBMpQi24XhZFmpI
NrXp6k8w0z5ghRmPY22nj6NyErYzoo0RltbIShFDV/CLY9s3ll71uzOtOLzT8NzU
WOcaw5ZquYj8RfxFZQSkshSVCV+/fbX+pQbeYKvbHc0h6nTk5dBYRzIsf7uhsUjM
VxFMTtH++QIDAQABo4IBJjCCASIwEQYJYIZIAYb4QgEBBAQDAgZAMB0GA1UdDgQW
BBSrsDxElOg7w6GXOjlahA31MWvk3TCBnAYDVR0jBIGUMIGRgBQCiBhl3yWRIdQK
aHjWOKBfjxce06FupGwwajETMBEGA1UEAxQKT0NTUF9DQVRXTzELMAkGA1UECBMC
S0ExCzAJBgNVBAYTAklOMSgwJgYJKoZIhvcNAQkBFhlvY3NwY2F0d29Ab2NzcHRl
c3RpbmcuY29tMQ8wDQYDVQQKEwZDSVRSSViCCQCVRQ/r+l4B9jBPBggrBgEFBQcB
AQRDMEEwPwYIKwYBBQUHMAGGM2h0dHA6Ly9hc2hva2UyLm9jc3BfY2F0d28uY2l0
cml0ZS5uZXQvcmVzcG9uZGVycGF0aDANBgkqhkiG9w0BAQUFAAOCAQEApGfvDUQm
JbeET7+6QegkCM1hXYPEaFk2kG1X51gg0wVnHvw3C2+lw0dY9N74IIUdy7y2sqGC
g/YSDRL1N0xiqUK6jEAnmQ4RWHF8AhNXy+OOGwk2HRDkoy1xS/utM7b0S7s6+voM
oGrdFAyIu/M2gmIyTcHkY++KaAhQfHBdtaNvn+y3Cwv7xnyFPTJHmzGgn3uBnocF
izTBi13CjjMmaYtcKh78XrB4jfLgff5RbVvtPclBpxbKqHjJOD3/I0bcJzCSunYF
Q48VC8mftA9/S9lDrzLK8XH122vlE8YuwrLCjvIu7oEiohKUTpZcCGq6210rRPuX
Kx3Hfqq+fzkDzg==
-----END CERTIFICATE-----
