Certificate:
    Data:
        Version: 3 (0x2)
        Serial Number: 11042563100207 (0xa0b0c0d0e2f)
    Signature Algorithm: sha1WithRSAEncryption
        Issuer: CN=OCSP_CATWO, ST=KA, C=IN/emailAddress=ocspcatwo@ocsptesting.com, O=CITRIX
        Validity
            Not Before: Jun 28 00:50:08 2016 GMT
            Not After : Jun 26 00:50:08 2026 GMT
        Subject: ST=KA, C=IN, CN=019_server/emailAddress=019@test_ca.com, O=CITRIX
        Subject Public Key Info:
            Public Key Algorithm: rsaEncryption
                Public-Key: (2048 bit)
                Modulus:
                    00:af:99:ea:65:d1:f6:79:84:ec:c4:dd:0d:0e:c4:
                    89:c6:cb:10:f6:9d:2a:99:85:3f:ac:97:b8:ba:0c:
                    5b:31:a4:f6:60:f0:02:7c:cd:fa:55:ee:ac:84:fa:
                    0e:40:4a:07:d4:36:79:64:c6:f7:4e:3f:d4:88:5b:
                    6b:90:41:4e:57:1a:de:2b:4d:d2:6e:a9:40:b3:15:
                    c6:81:37:ac:8e:be:62:cc:79:54:4e:db:7c:71:62:
                    e8:7e:09:93:e0:1a:dd:88:77:b5:5a:bd:92:5b:a3:
                    ed:6e:85:37:60:6c:8e:eb:bc:eb:e1:79:5d:01:56:
                    66:84:cd:0e:59:b4:ba:01:78:7b:1d:25:31:08:2b:
                    8d:77:2b:3f:c7:d5:97:e0:20:10:85:cb:c8:98:b3:
                    23:c5:86:3f:78:74:ed:11:33:a3:2c:58:db:4a:16:
                    f8:7e:29:3c:04:d6:93:06:ca:c5:db:67:1c:65:c2:
                    5f:c6:f6:29:29:96:a4:6b:48:37:ae:31:e8:a7:6c:
                    fd:26:ea:9b:2a:a2:af:0f:f6:81:7a:78:08:0f:56:
                    3d:13:f5:8d:fd:db:76:8c:9b:f8:b7:fe:ab:45:d3:
                    cb:90:cd:9f:93:9a:1c:18:5e:bd:be:0f:c5:30:68:
                    2c:df:6f:b6:77:fd:76:be:bc:f1:3c:85:d2:a4:5d:
                    f4:77
                Exponent: 65537 (0x10001)
        X509v3 extensions:
            Netscape Cert Type: 
                SSL Server
            X509v3 Subject Key Identifier: 
                30:E7:8E:31:9F:86:A3:6B:31:E3:9A:26:93:75:01:BE:5D:19:3B:32
            X509v3 Authority Key Identifier: 
                keyid:02:88:18:65:DF:25:91:21:D4:0A:68:78:D6:38:A0:5F:8F:17:1E:D3
                DirName:/CN=OCSP_CATWO/ST=KA/C=IN/emailAddress=ocspcatwo@ocsptesting.com/O=CITRIX
                serial:95:45:0F:EB:FA:5E:01:F6

            Authority Information Access: 
                OCSP - URI:http://172.18.10.21/responderpath

    Signature Algorithm: sha1WithRSAEncryption
         7f:75:6b:64:74:16:d6:7a:aa:77:f1:aa:1b:e4:c8:53:ca:3a:
         b8:9f:43:63:46:13:73:c0:00:7c:96:46:a6:a9:09:1c:47:21:
         07:a9:b4:00:13:d7:22:8f:fb:73:0b:b8:c8:a7:2e:3e:9e:d1:
         f4:49:ac:d2:87:11:20:82:5a:50:72:29:9e:95:3a:3d:07:65:
         1a:11:25:1f:88:aa:75:89:c0:d7:06:ac:d0:2a:e6:b5:ab:ee:
         a9:cd:ef:2e:f6:10:13:9a:05:0a:7f:16:82:ee:1a:5a:0c:a2:
         b2:0f:40:42:af:f0:af:aa:a0:17:03:ca:ee:46:ec:6b:68:62:
         42:38:30:2b:fe:1b:6b:da:3d:66:f8:1a:bc:3f:20:e8:f8:73:
         c6:af:ec:8f:43:13:0c:0b:e5:cf:d1:57:8a:bb:e3:28:60:13:
         c6:1e:d7:1b:17:3d:bb:2c:8f:14:67:a0:8a:fa:6a:3c:49:c1:
         74:83:96:25:b3:6e:d3:ea:91:48:58:c2:e3:d3:cd:50:73:f1:
         73:e3:9a:85:61:b1:17:42:fd:df:3a:6f:06:3e:a1:59:84:01:
         85:41:42:c5:a9:38:0d:c4:65:2a:aa:c2:ba:cd:1a:79:21:4f:
         2a:c6:5e:8f:e1:c5:02:1b:8b:e9:f2:9f:fc:17:01:10:92:14:
         8a:ff:fd:f1
-----BEGIN CERTIFICATE-----
MIIEYDCCA0igAwIBAgIGCgsMDQ4vMA0GCSqGSIb3DQEBBQUAMGoxEzARBgNVBAMU
Ck9DU1BfQ0FUV08xCzAJBgNVBAgTAktBMQswCQYDVQQGEwJJTjEoMCYGCSqGSIb3
DQEJARYZb2NzcGNhdHdvQG9jc3B0ZXN0aW5nLmNvbTEPMA0GA1UEChMGQ0lUUklY
MB4XDTE2MDYyODAwNTAwOFoXDTI2MDYyNjAwNTAwOFowYDELMAkGA1UECBMCS0Ex
CzAJBgNVBAYTAklOMRMwEQYDVQQDFAowMTlfc2VydmVyMR4wHAYJKoZIhvcNAQkB
Fg8wMTlAdGVzdF9jYS5jb20xDzANBgNVBAoTBkNJVFJJWDCCASIwDQYJKoZIhvcN
AQEBBQADggEPADCCAQoCggEBAK+Z6mXR9nmE7MTdDQ7EicbLEPadKpmFP6yXuLoM
WzGk9mDwAnzN+lXurIT6DkBKB9Q2eWTG904/1Ihba5BBTlca3itN0m6pQLMVxoE3
rI6+Ysx5VE7bfHFi6H4Jk+Aa3Yh3tVq9kluj7W6FN2Bsjuu86+F5XQFWZoTNDlm0
ugF4ex0lMQgrjXcrP8fVl+AgEIXLyJizI8WGP3h07REzoyxY20oW+H4pPATWkwbK
xdtnHGXCX8b2KSmWpGtIN64x6Kds/Sbqmyqirw/2gXp4CA9WPRP1jf3bdoyb+Lf+
q0XTy5DNn5OaHBhevb4PxTBoLN9vtnf9dr688TyF0qRd9HcCAwEAAaOCARQwggEQ
MBEGCWCGSAGG+EIBAQQEAwIGQDAdBgNVHQ4EFgQUMOeOMZ+Go2sx45omk3UBvl0Z
OzIwgZwGA1UdIwSBlDCBkYAUAogYZd8lkSHUCmh41jigX48XHtOhbqRsMGoxEzAR
BgNVBAMUCk9DU1BfQ0FUV08xCzAJBgNVBAgTAktBMQswCQYDVQQGEwJJTjEoMCYG
CSqGSIb3DQEJARYZb2NzcGNhdHdvQG9jc3B0ZXN0aW5nLmNvbTEPMA0GA1UEChMG
Q0lUUklYggkAlUUP6/peAfYwPQYIKwYBBQUHAQEEMTAvMC0GCCsGAQUFBzABhiFo
dHRwOi8vMTcyLjE4LjEwLjIxL3Jlc3BvbmRlcnBhdGgwDQYJKoZIhvcNAQEFBQAD
ggEBAH91a2R0FtZ6qnfxqhvkyFPKOrifQ2NGE3PAAHyWRqapCRxHIQeptAAT1yKP
+3MLuMinLj6e0fRJrNKHESCCWlByKZ6VOj0HZRoRJR+IqnWJwNcGrNAq5rWr7qnN
7y72EBOaBQp/FoLuGloMorIPQEKv8K+qoBcDyu5G7GtoYkI4MCv+G2vaPWb4Grw/
IOj4c8av7I9DEwwL5c/RV4q74yhgE8Ye1xsXPbssjxRnoIr6ajxJwXSDliWzbtPq
kUhYwuPTzVBz8XPjmoVhsRdC/d86bwY+oVmEAYVBQsWpOA3EZSqqwrrNGnkhTyrG
Xo/hxQIbi+nyn/wXARCSFIr//fE=
-----END CERTIFICATE-----
