Certificate:
    Data:
        Version: 3 (0x2)
        Serial Number: 11042563100191 (0xa0b0c0d0e1f)
    Signature Algorithm: sha1WithRSAEncryption
        Issuer: CN=OCSP_CATWO, ST=KA, C=IN/emailAddress=ocspcatwo@ocsptesting.com, O=CITRIX
        Validity
            Not Before: Jun 28 00:49:31 2016 GMT
            Not After : Jun 26 00:49:31 2026 GMT
        Subject: ST=KA, C=IN, CN=003_server/emailAddress=003@test_ca.com, O=CITRIX
        Subject Public Key Info:
            Public Key Algorithm: rsaEncryption
                Public-Key: (2048 bit)
                Modulus:
                    00:ba:b6:50:2c:c1:5f:18:9b:b6:c9:08:6c:9d:fe:
                    85:63:bc:29:8b:15:d3:9a:bd:42:f7:52:7f:31:db:
                    62:8e:6e:91:ff:b6:4e:fc:2b:56:01:0a:05:50:6b:
                    db:ae:17:78:34:68:32:4b:de:2b:b0:bb:d3:41:a8:
                    07:c6:94:e4:82:e1:a4:d2:80:f3:1a:c2:1b:e7:81:
                    48:0d:a0:bc:b6:87:2c:02:0b:f7:a9:55:fb:bb:b5:
                    19:b8:b9:15:ca:e8:86:7b:d1:05:5a:8a:6d:55:27:
                    27:03:e1:8d:c1:e6:a0:bb:ca:94:d6:d0:bc:20:f7:
                    e4:39:ae:8e:8d:60:16:4e:fd:50:30:94:5c:57:d0:
                    35:e4:9a:cf:17:8c:24:d9:a7:8a:72:c7:6d:7a:82:
                    25:16:47:92:18:22:63:2e:ec:0c:07:89:db:a8:0c:
                    16:1a:84:31:a2:a0:25:84:c1:30:b3:36:85:00:7c:
                    be:0b:76:8f:ba:7e:ea:af:c0:db:ff:f5:7e:dc:ce:
                    6d:41:3f:cd:4a:9f:1d:13:53:5b:bb:aa:17:01:6e:
                    bd:5d:f8:65:c6:f0:8e:08:b8:67:d5:7d:38:6a:a1:
                    f6:83:25:39:6b:c7:98:73:2c:b9:a0:8d:05:ef:a8:
                    4e:cf:79:83:86:05:5c:30:6d:b8:47:c5:22:3d:2c:
                    bb:d9
                Exponent: 65537 (0x10001)
        X509v3 extensions:
            Netscape Cert Type: 
                SSL Server
            X509v3 Subject Key Identifier: 
                15:49:6A:2D:E6:EC:63:64:21:7E:99:19:1E:80:70:CD:BE:74:39:9D
            X509v3 Authority Key Identifier: 
                keyid:02:88:18:65:DF:25:91:21:D4:0A:68:78:D6:38:A0:5F:8F:17:1E:D3
                DirName:/CN=OCSP_CATWO/ST=KA/C=IN/emailAddress=ocspcatwo@ocsptesting.com/O=CITRIX
                serial:95:45:0F:EB:FA:5E:01:F6

            Authority Information Access: 
                OCSP - URI:http://172.18.10.21/responderpath

    Signature Algorithm: sha1WithRSAEncryption
         8c:2b:58:fa:e9:31:72:91:8c:7c:e2:22:84:33:09:86:3d:38:
         f1:ae:a7:14:38:72:0e:6d:d8:3e:37:97:80:b1:c3:fd:a5:05:
         0a:78:13:e7:6a:83:1e:6a:7c:b2:45:7d:ff:82:35:80:a0:62:
         00:e0:49:ec:46:6d:f9:38:da:1b:93:e1:15:86:87:6c:89:05:
         a8:f6:31:56:cb:d7:c0:33:d5:c1:52:f2:29:18:05:aa:f5:51:
         f0:f0:06:62:eb:a2:20:27:b0:0e:4a:8b:70:97:4a:01:af:78:
         db:99:e7:c5:a8:b9:53:21:da:d1:46:fa:f4:63:be:b8:4a:59:
         73:e5:91:89:d0:bd:4e:93:62:2e:0e:8f:91:fa:db:b3:a3:9e:
         da:3b:eb:9b:05:bd:55:99:fd:53:90:8f:d2:2f:5c:5a:5e:3a:
         d4:88:a6:02:09:0c:5f:ed:55:d3:85:ff:c6:a8:19:ad:d8:07:
         4c:24:ca:a0:e2:25:42:b8:aa:d9:34:4e:26:3b:21:3e:6e:28:
         56:35:9d:d8:dd:27:60:d0:57:c6:e8:66:e9:44:1a:51:23:87:
         85:07:cd:d3:2f:97:6a:e3:96:1f:8b:76:30:66:ca:e4:ae:6f:
         11:c1:83:f7:b2:cf:af:d0:34:34:e4:f4:d8:81:a4:09:55:ba:
         24:b4:7a:80
-----BEGIN CERTIFICATE-----
MIIEYDCCA0igAwIBAgIGCgsMDQ4fMA0GCSqGSIb3DQEBBQUAMGoxEzARBgNVBAMU
Ck9DU1BfQ0FUV08xCzAJBgNVBAgTAktBMQswCQYDVQQGEwJJTjEoMCYGCSqGSIb3
DQEJARYZb2NzcGNhdHdvQG9jc3B0ZXN0aW5nLmNvbTEPMA0GA1UEChMGQ0lUUklY
MB4XDTE2MDYyODAwNDkzMVoXDTI2MDYyNjAwNDkzMVowYDELMAkGA1UECBMCS0Ex
CzAJBgNVBAYTAklOMRMwEQYDVQQDFAowMDNfc2VydmVyMR4wHAYJKoZIhvcNAQkB
Fg8wMDNAdGVzdF9jYS5jb20xDzANBgNVBAoTBkNJVFJJWDCCASIwDQYJKoZIhvcN
AQEBBQADggEPADCCAQoCggEBALq2UCzBXxibtskIbJ3+hWO8KYsV05q9QvdSfzHb
Yo5ukf+2TvwrVgEKBVBr264XeDRoMkveK7C700GoB8aU5ILhpNKA8xrCG+eBSA2g
vLaHLAIL96lV+7u1Gbi5FcrohnvRBVqKbVUnJwPhjcHmoLvKlNbQvCD35Dmujo1g
Fk79UDCUXFfQNeSazxeMJNmninLHbXqCJRZHkhgiYy7sDAeJ26gMFhqEMaKgJYTB
MLM2hQB8vgt2j7p+6q/A2//1ftzObUE/zUqfHRNTW7uqFwFuvV34Zcbwjgi4Z9V9
OGqh9oMlOWvHmHMsuaCNBe+oTs95g4YFXDBtuEfFIj0su9kCAwEAAaOCARQwggEQ
MBEGCWCGSAGG+EIBAQQEAwIGQDAdBgNVHQ4EFgQUFUlqLebsY2QhfpkZHoBwzb50
OZ0wgZwGA1UdIwSBlDCBkYAUAogYZd8lkSHUCmh41jigX48XHtOhbqRsMGoxEzAR
BgNVBAMUCk9DU1BfQ0FUV08xCzAJBgNVBAgTAktBMQswCQYDVQQGEwJJTjEoMCYG
CSqGSIb3DQEJARYZb2NzcGNhdHdvQG9jc3B0ZXN0aW5nLmNvbTEPMA0GA1UEChMG
Q0lUUklYggkAlUUP6/peAfYwPQYIKwYBBQUHAQEEMTAvMC0GCCsGAQUFBzABhiFo
dHRwOi8vMTcyLjE4LjEwLjIxL3Jlc3BvbmRlcnBhdGgwDQYJKoZIhvcNAQEFBQAD
ggEBAIwrWPrpMXKRjHziIoQzCYY9OPGupxQ4cg5t2D43l4Cxw/2lBQp4E+dqgx5q
fLJFff+CNYCgYgDgSexGbfk42huT4RWGh2yJBaj2MVbL18Az1cFS8ikYBar1UfDw
BmLroiAnsA5Ki3CXSgGveNuZ58WouVMh2tFG+vRjvrhKWXPlkYnQvU6TYi4Oj5H6
27Ojnto765sFvVWZ/VOQj9IvXFpeOtSIpgIJDF/tVdOF/8aoGa3YB0wkyqDiJUK4
qtk0TiY7IT5uKFY1ndjdJ2DQV8boZulEGlEjh4UHzdMvl2rjlh+LdjBmyuSubxHB
g/eyz6/QNDTk9NiBpAlVuiS0eoA=
-----END CERTIFICATE-----
