Certificate:
    Data:
        Version: 3 (0x2)
        Serial Number: 11042563100189 (0xa0b0c0d0e1d)
    Signature Algorithm: sha1WithRSAEncryption
        Issuer: CN=OCSP_CATWO, ST=KA, C=IN/emailAddress=ocspcatwo@ocsptesting.com, O=CITRIX
        Validity
            Not Before: Jun 28 00:49:25 2016 GMT
            Not After : Jun 26 00:49:25 2026 GMT
        Subject: ST=KA, C=IN, CN=001_server/emailAddress=001@test_ca.com, O=CITRIX
        Subject Public Key Info:
            Public Key Algorithm: rsaEncryption
                Public-Key: (2048 bit)
                Modulus:
                    00:eb:87:80:fb:91:be:85:00:90:65:06:e3:de:5c:
                    f2:68:e0:a1:67:ce:23:9e:82:1a:20:51:aa:c8:0c:
                    03:04:c3:31:30:a0:39:ab:3a:09:b8:10:33:fd:0f:
                    de:60:04:cf:ff:41:45:70:a5:ac:e7:ee:d4:f3:85:
                    2d:8a:ed:b4:5a:5d:b8:56:5c:c8:a7:7d:fd:b2:89:
                    78:79:98:d3:60:dd:3b:28:f3:53:18:f1:d9:2c:49:
                    ea:fa:8f:7a:8a:fd:47:75:59:1c:b5:b7:9e:8d:52:
                    1c:b8:81:c5:9f:c2:8a:14:c5:b0:20:a1:34:ad:b2:
                    05:a4:1a:59:e6:24:20:4d:6e:bd:02:72:1f:30:d1:
                    72:f3:2d:d7:2a:10:09:db:92:83:16:33:47:fb:a7:
                    98:35:1f:5b:76:3f:8b:89:13:0b:13:1e:ee:b5:55:
                    b2:33:d7:ff:78:80:8e:2c:8c:5c:81:38:14:28:d2:
                    9a:fc:eb:49:72:de:d8:b6:c5:24:93:1a:50:95:a6:
                    e9:4a:e4:0d:00:f6:a1:63:a1:8d:c0:2f:eb:b8:40:
                    be:ed:a1:eb:53:7c:b2:12:14:4f:f3:13:69:88:5e:
                    cf:8d:bf:96:4a:e5:ca:e8:6b:7e:c2:02:2c:0a:1a:
                    17:8a:57:dc:b8:c7:f2:55:ec:57:bb:18:f7:df:ab:
                    1e:03
                Exponent: 65537 (0x10001)
        X509v3 extensions:
            Netscape Cert Type: 
                SSL Server
            X509v3 Subject Key Identifier: 
                55:09:64:8E:D2:05:45:80:B1:17:FC:56:DB:42:94:FA:20:D5:BD:06
            X509v3 Authority Key Identifier: 
                keyid:02:88:18:65:DF:25:91:21:D4:0A:68:78:D6:38:A0:5F:8F:17:1E:D3
                DirName:/CN=OCSP_CATWO/ST=KA/C=IN/emailAddress=ocspcatwo@ocsptesting.com/O=CITRIX
                serial:95:45:0F:EB:FA:5E:01:F6

            Authority Information Access: 
                OCSP - URI:http://172.18.10.21/responderpath

    Signature Algorithm: sha1WithRSAEncryption
         20:05:f5:0f:fe:b7:99:3d:10:02:2c:fd:98:14:b4:cd:ab:2a:
         e6:c0:78:96:65:ec:92:58:07:8d:e1:f2:1b:85:c2:ae:6f:22:
         15:49:98:fd:b4:21:33:24:66:2e:f7:5c:12:2d:c3:67:b4:05:
         0c:02:94:15:af:cb:c3:28:41:29:d5:54:a5:f4:4e:0b:6a:bb:
         14:40:44:c6:8d:48:90:bb:dc:fc:22:fd:aa:b1:00:d9:de:07:
         81:03:67:32:b8:4a:a0:0a:74:c3:ab:90:83:8a:8c:08:20:4f:
         ae:ac:ed:98:eb:36:ab:26:97:ac:56:e5:d8:f6:67:8f:d5:0f:
         e7:ad:de:28:e6:d7:b1:62:22:88:38:0f:c4:a9:da:58:74:dd:
         a7:e1:ee:05:6b:98:c5:cf:f0:ae:3a:ee:4c:1e:2c:5f:a1:39:
         ee:df:40:60:01:61:6a:cd:7d:c0:d5:7c:ab:4d:b0:1a:7f:dd:
         0a:77:84:9a:0c:ee:54:c7:40:8b:f9:91:b1:ef:47:4e:b5:a9:
         20:1f:09:8a:23:2c:ea:e8:b1:db:3e:00:a2:da:16:86:75:b7:
         a9:d2:a8:fb:32:1f:46:ae:c5:24:5a:c2:71:b3:7d:60:76:82:
         65:5d:c5:8b:8f:92:90:8b:ee:e5:33:2c:b2:3e:bc:ae:71:ff:
         a6:21:7a:bd
-----BEGIN CERTIFICATE-----
MIIEYDCCA0igAwIBAgIGCgsMDQ4dMA0GCSqGSIb3DQEBBQUAMGoxEzARBgNVBAMU
Ck9DU1BfQ0FUV08xCzAJBgNVBAgTAktBMQswCQYDVQQGEwJJTjEoMCYGCSqGSIb3
DQEJARYZb2NzcGNhdHdvQG9jc3B0ZXN0aW5nLmNvbTEPMA0GA1UEChMGQ0lUUklY
MB4XDTE2MDYyODAwNDkyNVoXDTI2MDYyNjAwNDkyNVowYDELMAkGA1UECBMCS0Ex
CzAJBgNVBAYTAklOMRMwEQYDVQQDFAowMDFfc2VydmVyMR4wHAYJKoZIhvcNAQkB
Fg8wMDFAdGVzdF9jYS5jb20xDzANBgNVBAoTBkNJVFJJWDCCASIwDQYJKoZIhvcN
AQEBBQADggEPADCCAQoCggEBAOuHgPuRvoUAkGUG495c8mjgoWfOI56CGiBRqsgM
AwTDMTCgOas6CbgQM/0P3mAEz/9BRXClrOfu1POFLYrttFpduFZcyKd9/bKJeHmY
02DdOyjzUxjx2SxJ6vqPeor9R3VZHLW3no1SHLiBxZ/CihTFsCChNK2yBaQaWeYk
IE1uvQJyHzDRcvMt1yoQCduSgxYzR/unmDUfW3Y/i4kTCxMe7rVVsjPX/3iAjiyM
XIE4FCjSmvzrSXLe2LbFJJMaUJWm6UrkDQD2oWOhjcAv67hAvu2h61N8shIUT/MT
aYhez42/lkrlyuhrfsICLAoaF4pX3LjH8lXsV7sY99+rHgMCAwEAAaOCARQwggEQ
MBEGCWCGSAGG+EIBAQQEAwIGQDAdBgNVHQ4EFgQUVQlkjtIFRYCxF/xW20KU+iDV
vQYwgZwGA1UdIwSBlDCBkYAUAogYZd8lkSHUCmh41jigX48XHtOhbqRsMGoxEzAR
BgNVBAMUCk9DU1BfQ0FUV08xCzAJBgNVBAgTAktBMQswCQYDVQQGEwJJTjEoMCYG
CSqGSIb3DQEJARYZb2NzcGNhdHdvQG9jc3B0ZXN0aW5nLmNvbTEPMA0GA1UEChMG
Q0lUUklYggkAlUUP6/peAfYwPQYIKwYBBQUHAQEEMTAvMC0GCCsGAQUFBzABhiFo
dHRwOi8vMTcyLjE4LjEwLjIxL3Jlc3BvbmRlcnBhdGgwDQYJKoZIhvcNAQEFBQAD
ggEBACAF9Q/+t5k9EAIs/ZgUtM2rKubAeJZl7JJYB43h8huFwq5vIhVJmP20ITMk
Zi73XBItw2e0BQwClBWvy8MoQSnVVKX0TgtquxRARMaNSJC73Pwi/aqxANneB4ED
ZzK4SqAKdMOrkIOKjAggT66s7ZjrNqsml6xW5dj2Z4/VD+et3ijm17FiIog4D8Sp
2lh03afh7gVrmMXP8K467kweLF+hOe7fQGABYWrNfcDVfKtNsBp/3Qp3hJoM7lTH
QIv5kbHvR061qSAfCYojLOrosds+AKLaFoZ1t6nSqPsyH0auxSRawnGzfWB2gmVd
xYuPkpCL7uUzLLI+vK5x/6Yher0=
-----END CERTIFICATE-----
