Certificate:
    Data:
        Version: 3 (0x2)
        Serial Number: 11042563100229 (0xa0b0c0d0e45)
    Signature Algorithm: sha1WithRSAEncryption
        Issuer: CN=OCSP_CATWO, ST=KA, C=IN/emailAddress=ocspcatwo@ocsptesting.com, O=CITRIX
        Validity
            Not Before: Jun 28 00:59:36 2016 GMT
            Not After : Jun 26 00:59:36 2026 GMT
        Subject: ST=KA, C=IN, CN=ocspcatwo_041_server/emailAddress=ocspcatwo_041@test_ca.com, O=CITRIX
        Subject Public Key Info:
            Public Key Algorithm: rsaEncryption
                Public-Key: (2048 bit)
                Modulus:
                    00:ea:4a:c5:74:a8:ae:07:7d:de:70:f5:71:26:0b:
                    ab:4c:64:59:ea:d5:f3:08:c4:60:1e:0a:14:19:1a:
                    45:e9:c0:3b:3b:4c:25:45:85:0f:79:94:55:15:2b:
                    ea:30:14:85:84:09:71:50:2a:d2:9c:2a:59:e8:47:
                    49:c5:f7:7c:9b:37:be:c8:d3:c2:cc:66:77:40:fd:
                    32:54:02:01:fb:67:5e:d2:2b:91:90:01:a8:68:ae:
                    23:62:6d:41:dc:8e:a1:4a:b5:bd:a4:4e:78:2b:50:
                    69:43:54:2d:35:6c:ed:b9:f7:11:e3:c9:70:ef:9c:
                    e5:9a:cc:15:55:5b:bd:a3:de:3e:ab:2d:5f:ef:91:
                    9f:aa:f5:3c:53:06:70:40:3d:89:95:b4:1f:0c:fa:
                    28:99:94:bc:69:70:58:cf:fb:06:53:0f:ff:3e:75:
                    27:57:14:9f:e8:8b:b0:89:ca:67:d4:c6:3b:30:1f:
                    ca:f2:ab:e9:7d:eb:96:bf:b4:ed:6b:44:c9:64:ce:
                    61:b2:5e:66:59:a7:bf:74:2e:d8:a8:35:8b:bb:0b:
                    e9:39:49:ad:6f:b1:63:a6:f8:ee:4f:53:5c:e7:8e:
                    82:81:2d:cb:0d:2a:4a:1a:df:94:3b:58:7e:15:3f:
                    85:9f:15:6c:e2:ea:03:fc:c3:07:81:50:a4:bc:f0:
                    3e:cb
                Exponent: 65537 (0x10001)
        X509v3 extensions:
            Netscape Cert Type: 
                SSL Server
            X509v3 Subject Key Identifier: 
                74:A0:0C:E4:71:0F:4C:AD:EF:42:D9:47:46:66:47:28:8B:AB:73:FA
            X509v3 Authority Key Identifier: 
                keyid:02:88:18:65:DF:25:91:21:D4:0A:68:78:D6:38:A0:5F:8F:17:1E:D3
                DirName:/CN=OCSP_CATWO/ST=KA/C=IN/emailAddress=ocspcatwo@ocsptesting.com/O=CITRIX
                serial:95:45:0F:EB:FA:5E:01:F6

            Authority Information Access: 
                OCSP - URI:http://ashoke2.ocsp_catwo.citrite.net/responderpath

    Signature Algorithm: sha1WithRSAEncryption
         a1:f0:64:d1:63:b5:8e:22:ec:ce:39:cd:3a:9a:21:fc:b9:1c:
         fd:00:7e:d7:49:6f:ff:1a:35:94:ff:64:8b:6f:83:23:fe:13:
         fb:79:5a:4f:bb:b1:9a:20:13:ef:fe:11:28:7a:64:9e:a1:20:
         ee:6e:e4:97:b9:cd:c0:11:61:b3:5d:d7:97:7f:42:b3:c8:6a:
         78:8a:44:53:99:1e:6f:e9:a6:a7:16:ba:e2:55:e8:b8:fa:64:
         af:92:2e:36:c2:9a:2f:50:c4:8b:f5:27:e9:82:be:fd:23:e7:
         52:9c:76:93:70:da:8f:be:e8:0e:5a:0b:96:74:5c:fc:88:ac:
         55:7a:40:3b:60:b7:bf:d5:6c:ff:bd:e4:10:f1:e6:18:d1:9c:
         31:7a:f0:11:4f:55:bc:d6:84:c7:d3:1d:22:e8:80:52:35:51:
         ba:81:1a:8a:3b:d4:82:44:4a:13:06:92:c7:df:3f:c5:81:a3:
         64:8a:97:d6:c9:90:3f:fd:7e:bc:85:cf:7e:5c:2f:0e:34:11:
         fe:79:ef:dd:8e:7c:04:aa:c7:85:1c:4e:0a:d1:44:e1:8c:0b:
         8f:8b:8a:17:ce:5c:e6:0d:f3:20:0b:7a:25:a8:a3:5a:8f:60:
         7b:d8:e7:65:a9:40:a1:11:a4:ba:ab:cd:dd:32:de:74:86:4b:
         a2:07:e1:57
-----BEGIN CERTIFICATE-----
MIIEhjCCA26gAwIBAgIGCgsMDQ5FMA0GCSqGSIb3DQEBBQUAMGoxEzARBgNVBAMU
Ck9DU1BfQ0FUV08xCzAJBgNVBAgTAktBMQswCQYDVQQGEwJJTjEoMCYGCSqGSIb3
DQEJARYZb2NzcGNhdHdvQG9jc3B0ZXN0aW5nLmNvbTEPMA0GA1UEChMGQ0lUUklY
MB4XDTE2MDYyODAwNTkzNloXDTI2MDYyNjAwNTkzNlowdDELMAkGA1UECBMCS0Ex
CzAJBgNVBAYTAklOMR0wGwYDVQQDFBRvY3NwY2F0d29fMDQxX3NlcnZlcjEoMCYG
CSqGSIb3DQEJARYZb2NzcGNhdHdvXzA0MUB0ZXN0X2NhLmNvbTEPMA0GA1UEChMG
Q0lUUklYMIIBIjANBgkqhkiG9w0BAQEFAAOCAQ8AMIIBCgKCAQEA6krFdKiuB33e
cPVxJgurTGRZ6tXzCMRgHgoUGRpF6cA7O0wlRYUPeZRVFSvqMBSFhAlxUCrSnCpZ
6EdJxfd8mze+yNPCzGZ3QP0yVAIB+2de0iuRkAGoaK4jYm1B3I6hSrW9pE54K1Bp
Q1QtNWztufcR48lw75zlmswVVVu9o94+qy1f75GfqvU8UwZwQD2JlbQfDPoomZS8
aXBYz/sGUw//PnUnVxSf6Iuwicpn1MY7MB/K8qvpfeuWv7Tta0TJZM5hsl5mWae/
dC7YqDWLuwvpOUmtb7FjpvjuT1Nc546CgS3LDSpKGt+UO1h+FT+FnxVs4uoD/MMH
gVCkvPA+ywIDAQABo4IBJjCCASIwEQYJYIZIAYb4QgEBBAQDAgZAMB0GA1UdDgQW
BBR0oAzkcQ9Mre9C2UdGZkcoi6tz+jCBnAYDVR0jBIGUMIGRgBQCiBhl3yWRIdQK
aHjWOKBfjxce06FupGwwajETMBEGA1UEAxQKT0NTUF9DQVRXTzELMAkGA1UECBMC
S0ExCzAJBgNVBAYTAklOMSgwJgYJKoZIhvcNAQkBFhlvY3NwY2F0d29Ab2NzcHRl
c3RpbmcuY29tMQ8wDQYDVQQKEwZDSVRSSViCCQCVRQ/r+l4B9jBPBggrBgEFBQcB
AQRDMEEwPwYIKwYBBQUHMAGGM2h0dHA6Ly9hc2hva2UyLm9jc3BfY2F0d28uY2l0
cml0ZS5uZXQvcmVzcG9uZGVycGF0aDANBgkqhkiG9w0BAQUFAAOCAQEAofBk0WO1
jiLszjnNOpoh/Lkc/QB+10lv/xo1lP9ki2+DI/4T+3laT7uxmiAT7/4RKHpknqEg
7m7kl7nNwBFhs13Xl39Cs8hqeIpEU5keb+mmpxa64lXouPpkr5IuNsKaL1DEi/Un
6YK+/SPnUpx2k3Daj77oDloLlnRc/IisVXpAO2C3v9Vs/73kEPHmGNGcMXrwEU9V
vNaEx9MdIuiAUjVRuoEaijvUgkRKEwaSx98/xYGjZIqX1smQP/1+vIXPflwvDjQR
/nnv3Y58BKrHhRxOCtFE4YwLj4uKF85c5g3zIAt6JaijWo9ge9jnZalAoRGkuqvN
3TLedIZLogfhVw==
-----END CERTIFICATE-----
