Certificate:
    Data:
        Version: 3 (0x2)
        Serial Number: 11042563100236 (0xa0b0c0d0e4c)
    Signature Algorithm: sha1WithRSAEncryption
        Issuer: CN=OCSP_CATWO, ST=KA, C=IN/emailAddress=ocspcatwo@ocsptesting.com, O=CITRIX
        Validity
            Not Before: Jun 28 01:00:00 2016 GMT
            Not After : Jun 26 01:00:00 2026 GMT
        Subject: ST=KA, C=IN, CN=ocspcatwo_048_server/emailAddress=ocspcatwo_048@test_ca.com, O=CITRIX
        Subject Public Key Info:
            Public Key Algorithm: rsaEncryption
                Public-Key: (2048 bit)
                Modulus:
                    00:d3:f6:65:0d:e0:c3:c8:58:f7:eb:e2:11:fa:5e:
                    2b:c6:8d:59:24:56:23:92:f7:6d:33:b8:c3:fb:78:
                    39:09:10:f0:75:cd:af:03:08:15:a8:6a:5e:80:31:
                    f1:b7:65:68:d0:7e:c3:6d:be:1a:83:94:b9:b7:ab:
                    67:4d:2e:62:6e:97:4b:67:51:c1:ec:f1:81:1e:af:
                    08:7e:44:b3:94:98:cd:be:5f:c3:e2:54:9c:7a:4d:
                    f7:b0:9f:9f:4d:4b:08:4c:b7:77:52:7d:ea:02:66:
                    f8:1a:00:26:f8:76:6e:9b:36:78:95:b6:eb:a8:09:
                    59:11:dd:ac:79:8d:1d:bd:f2:d3:94:54:63:d8:97:
                    21:f9:2d:09:c1:74:8c:c9:9a:14:55:ff:f5:49:41:
                    e3:46:1c:a0:be:48:63:29:70:ea:75:5b:70:bb:d4:
                    fe:f5:4b:01:39:50:51:85:3b:39:30:ce:ea:05:23:
                    b9:b0:21:03:28:1b:19:bd:11:dd:29:44:46:b1:c4:
                    c1:2c:ee:7b:c1:a5:c2:55:a0:c5:cb:45:be:77:3c:
                    29:51:a4:13:c5:af:9b:c9:7e:55:d6:87:c1:06:c3:
                    6d:94:df:41:1b:a0:bb:65:30:a6:6d:eb:0d:52:25:
                    dd:64:00:be:45:af:4b:4b:26:1a:bc:19:88:5e:a9:
                    2a:37
                Exponent: 65537 (0x10001)
        X509v3 extensions:
            Netscape Cert Type: 
                SSL Server
            X509v3 Subject Key Identifier: 
                AC:D7:DC:A3:F4:EA:55:38:D6:33:D1:CA:6B:5D:32:34:8B:E0:75:D4
            X509v3 Authority Key Identifier: 
                keyid:02:88:18:65:DF:25:91:21:D4:0A:68:78:D6:38:A0:5F:8F:17:1E:D3
                DirName:/CN=OCSP_CATWO/ST=KA/C=IN/emailAddress=ocspcatwo@ocsptesting.com/O=CITRIX
                serial:95:45:0F:EB:FA:5E:01:F6

            Authority Information Access: 
                OCSP - URI:http://ashoke2.ocsp_catwo.citrite.net/responderpath

    Signature Algorithm: sha1WithRSAEncryption
         77:82:b4:5f:36:ad:3b:29:fc:ec:a3:01:fa:0e:01:8d:75:1f:
         2b:d1:59:c6:24:e1:d6:e4:83:9c:67:ea:a2:0d:8d:b6:1d:d4:
         f9:14:db:5d:b9:76:4d:52:dd:8a:e0:42:06:31:60:0e:67:83:
         8d:bf:23:ab:33:4d:75:d1:87:10:32:b7:6b:0c:9a:c0:af:13:
         56:c4:79:31:f7:21:5b:88:ff:20:eb:de:0b:e9:7a:6b:d9:a6:
         be:dc:96:88:b0:84:29:7c:33:a8:21:4d:b6:96:78:0c:cc:6a:
         8b:51:98:ba:9f:24:43:e1:68:8b:db:f3:49:4a:8c:57:b9:41:
         3c:34:6f:67:2d:67:d2:dd:73:fd:b1:66:9e:6b:a9:54:90:1d:
         15:4f:33:86:a4:48:d0:a5:b5:07:84:60:3b:40:2d:2f:dc:16:
         e7:e1:7a:fa:03:c2:f7:c0:1b:84:c5:df:46:5f:a4:c1:38:63:
         24:66:97:44:77:60:01:e8:00:e2:86:c6:b3:3c:44:12:4c:1d:
         54:c5:1a:62:42:7b:6b:e7:2b:a1:cf:5c:dc:50:42:72:70:9f:
         5a:6c:6f:10:59:27:81:70:7f:45:a7:14:2a:68:1d:13:4b:cb:
         b0:0e:1b:7e:3d:26:8e:f6:11:80:04:9e:7b:5b:1f:e7:5e:0f:
         37:1a:bc:69
-----BEGIN CERTIFICATE-----
MIIEhjCCA26gAwIBAgIGCgsMDQ5MMA0GCSqGSIb3DQEBBQUAMGoxEzARBgNVBAMU
Ck9DU1BfQ0FUV08xCzAJBgNVBAgTAktBMQswCQYDVQQGEwJJTjEoMCYGCSqGSIb3
DQEJARYZb2NzcGNhdHdvQG9jc3B0ZXN0aW5nLmNvbTEPMA0GA1UEChMGQ0lUUklY
MB4XDTE2MDYyODAxMDAwMFoXDTI2MDYyNjAxMDAwMFowdDELMAkGA1UECBMCS0Ex
CzAJBgNVBAYTAklOMR0wGwYDVQQDFBRvY3NwY2F0d29fMDQ4X3NlcnZlcjEoMCYG
CSqGSIb3DQEJARYZb2NzcGNhdHdvXzA0OEB0ZXN0X2NhLmNvbTEPMA0GA1UEChMG
Q0lUUklYMIIBIjANBgkqhkiG9w0BAQEFAAOCAQ8AMIIBCgKCAQEA0/ZlDeDDyFj3
6+IR+l4rxo1ZJFYjkvdtM7jD+3g5CRDwdc2vAwgVqGpegDHxt2Vo0H7Dbb4ag5S5
t6tnTS5ibpdLZ1HB7PGBHq8IfkSzlJjNvl/D4lScek33sJ+fTUsITLd3Un3qAmb4
GgAm+HZumzZ4lbbrqAlZEd2seY0dvfLTlFRj2Jch+S0JwXSMyZoUVf/1SUHjRhyg
vkhjKXDqdVtwu9T+9UsBOVBRhTs5MM7qBSO5sCEDKBsZvRHdKURGscTBLO57waXC
VaDFy0W+dzwpUaQTxa+byX5V1ofBBsNtlN9BG6C7ZTCmbesNUiXdZAC+Ra9LSyYa
vBmIXqkqNwIDAQABo4IBJjCCASIwEQYJYIZIAYb4QgEBBAQDAgZAMB0GA1UdDgQW
BBSs19yj9OpVONYz0cprXTI0i+B11DCBnAYDVR0jBIGUMIGRgBQCiBhl3yWRIdQK
aHjWOKBfjxce06FupGwwajETMBEGA1UEAxQKT0NTUF9DQVRXTzELMAkGA1UECBMC
S0ExCzAJBgNVBAYTAklOMSgwJgYJKoZIhvcNAQkBFhlvY3NwY2F0d29Ab2NzcHRl
c3RpbmcuY29tMQ8wDQYDVQQKEwZDSVRSSViCCQCVRQ/r+l4B9jBPBggrBgEFBQcB
AQRDMEEwPwYIKwYBBQUHMAGGM2h0dHA6Ly9hc2hva2UyLm9jc3BfY2F0d28uY2l0
cml0ZS5uZXQvcmVzcG9uZGVycGF0aDANBgkqhkiG9w0BAQUFAAOCAQEAd4K0Xzat
Oyn87KMB+g4BjXUfK9FZxiTh1uSDnGfqog2Nth3U+RTbXbl2TVLdiuBCBjFgDmeD
jb8jqzNNddGHEDK3awyawK8TVsR5MfchW4j/IOveC+l6a9mmvtyWiLCEKXwzqCFN
tpZ4DMxqi1GYup8kQ+Foi9vzSUqMV7lBPDRvZy1n0t1z/bFmnmupVJAdFU8zhqRI
0KW1B4RgO0AtL9wW5+F6+gPC98AbhMXfRl+kwThjJGaXRHdgAegA4obGszxEEkwd
VMUaYkJ7a+croc9c3FBCcnCfWmxvEFkngXB/RacUKmgdE0vLsA4bfj0mjvYRgASe
e1sf514PNxq8aQ==
-----END CERTIFICATE-----
