Certificate:
    Data:
        Version: 3 (0x2)
        Serial Number: 11042563100218 (0xa0b0c0d0e3a)
    Signature Algorithm: sha1WithRSAEncryption
        Issuer: CN=OCSP_CATWO, ST=KA, C=IN/emailAddress=ocspcatwo@ocsptesting.com, O=CITRIX
        Validity
            Not Before: Jun 28 00:50:45 2016 GMT
            Not After : Jun 26 00:50:45 2026 GMT
        Subject: ST=KA, C=IN, CN=030_server/emailAddress=030@test_ca.com, O=CITRIX
        Subject Public Key Info:
            Public Key Algorithm: rsaEncryption
                Public-Key: (2048 bit)
                Modulus:
                    00:dc:f4:2b:7d:cb:0d:ae:e2:7f:e3:ca:50:60:ef:
                    a3:e4:e1:06:c6:d6:14:f4:ce:b8:2e:2c:c5:52:47:
                    a7:f1:e7:f6:82:ba:93:b7:eb:3d:69:98:2a:e4:71:
                    ec:45:d0:22:b3:a8:15:d7:de:55:5d:00:82:0e:16:
                    61:b1:0f:e3:7c:c1:e2:05:2d:c9:22:08:62:28:3c:
                    a2:68:60:04:19:75:9f:fc:97:6d:a1:61:59:cf:8c:
                    7e:fd:ad:18:83:5f:85:7f:78:bc:84:35:17:87:62:
                    8d:0a:76:29:76:d6:91:f4:38:74:10:09:da:a3:e5:
                    68:de:a3:1a:f5:1f:1c:74:33:eb:e5:da:75:4f:10:
                    27:22:4d:51:1c:9f:f0:09:e7:5a:ca:0a:b7:16:b3:
                    f5:bc:4f:8d:f2:94:62:e7:3b:69:f5:e3:39:34:7d:
                    0d:01:74:c2:60:3b:a5:d2:50:fe:ac:cf:d0:a5:20:
                    0f:65:1c:85:71:b9:61:c3:8e:0c:6d:42:f2:ec:b9:
                    f0:33:51:af:d6:da:d2:e8:60:e7:96:5f:f8:4b:fb:
                    2d:ad:d7:9b:a1:68:40:22:59:af:f6:1d:c7:02:61:
                    ce:72:2a:be:69:cc:7a:b7:e4:66:da:20:43:a1:68:
                    94:fd:71:1a:07:c8:21:7f:64:d3:75:44:ad:ed:b9:
                    28:6b
                Exponent: 65537 (0x10001)
        X509v3 extensions:
            Netscape Cert Type: 
                SSL Server
            X509v3 Subject Key Identifier: 
                C5:FF:CA:3D:A0:D3:97:5D:1C:BA:49:11:BF:99:9E:57:EC:8A:F4:D3
            X509v3 Authority Key Identifier: 
                keyid:02:88:18:65:DF:25:91:21:D4:0A:68:78:D6:38:A0:5F:8F:17:1E:D3
                DirName:/CN=OCSP_CATWO/ST=KA/C=IN/emailAddress=ocspcatwo@ocsptesting.com/O=CITRIX
                serial:95:45:0F:EB:FA:5E:01:F6

            Authority Information Access: 
                OCSP - URI:http://172.18.10.21/responderpath

    Signature Algorithm: sha1WithRSAEncryption
         a5:6e:f3:ab:a5:a1:7a:b4:52:51:64:0f:a4:58:b3:57:62:42:
         7b:fb:2b:0e:e7:14:b2:c8:10:0e:b0:0c:e6:dd:5a:01:f0:ca:
         04:c9:3d:91:9b:88:92:cf:b6:73:41:ee:07:dd:b9:b5:4d:55:
         26:f9:c6:95:f9:92:88:74:5e:d9:c1:57:eb:a3:73:5d:9b:1d:
         38:8d:73:17:2a:b1:e4:bb:6a:d7:c3:2e:2e:db:4b:54:20:af:
         db:6b:64:e5:6c:fc:a5:6a:d9:d4:07:1b:cb:d7:49:33:fd:cd:
         ea:3a:fc:a1:ed:1c:64:39:00:7d:fd:e8:f3:e0:a5:e6:4b:1d:
         13:9c:50:3a:3d:b7:17:1b:d4:82:5e:8e:d9:fc:94:3a:3f:de:
         3a:aa:b3:21:cb:2e:53:9f:42:51:9b:71:36:18:87:a4:1f:b5:
         f0:d3:8f:b7:ef:68:80:a8:b9:af:82:56:c8:b5:ea:18:6a:b3:
         1e:3b:80:1a:59:17:65:c9:40:da:bc:2e:4b:59:0d:dc:5a:89:
         6f:83:cf:88:d6:ff:ac:90:6a:66:86:f5:b8:cf:09:5f:1c:97:
         ed:43:bb:75:35:29:f0:d3:7e:9f:cb:4f:23:b5:33:98:b2:9f:
         14:88:a7:0f:9d:d1:8d:55:a9:9a:17:ef:02:a6:78:49:33:b4:
         60:35:23:a3
-----BEGIN CERTIFICATE-----
MIIEYDCCA0igAwIBAgIGCgsMDQ46MA0GCSqGSIb3DQEBBQUAMGoxEzARBgNVBAMU
Ck9DU1BfQ0FUV08xCzAJBgNVBAgTAktBMQswCQYDVQQGEwJJTjEoMCYGCSqGSIb3
DQEJARYZb2NzcGNhdHdvQG9jc3B0ZXN0aW5nLmNvbTEPMA0GA1UEChMGQ0lUUklY
MB4XDTE2MDYyODAwNTA0NVoXDTI2MDYyNjAwNTA0NVowYDELMAkGA1UECBMCS0Ex
CzAJBgNVBAYTAklOMRMwEQYDVQQDFAowMzBfc2VydmVyMR4wHAYJKoZIhvcNAQkB
Fg8wMzBAdGVzdF9jYS5jb20xDzANBgNVBAoTBkNJVFJJWDCCASIwDQYJKoZIhvcN
AQEBBQADggEPADCCAQoCggEBANz0K33LDa7if+PKUGDvo+ThBsbWFPTOuC4sxVJH
p/Hn9oK6k7frPWmYKuRx7EXQIrOoFdfeVV0Agg4WYbEP43zB4gUtySIIYig8omhg
BBl1n/yXbaFhWc+Mfv2tGINfhX94vIQ1F4dijQp2KXbWkfQ4dBAJ2qPlaN6jGvUf
HHQz6+XadU8QJyJNURyf8AnnWsoKtxaz9bxPjfKUYuc7afXjOTR9DQF0wmA7pdJQ
/qzP0KUgD2UchXG5YcOODG1C8uy58DNRr9ba0uhg55Zf+Ev7La3Xm6FoQCJZr/Yd
xwJhznIqvmnMerfkZtogQ6FolP1xGgfIIX9k03VEre25KGsCAwEAAaOCARQwggEQ
MBEGCWCGSAGG+EIBAQQEAwIGQDAdBgNVHQ4EFgQUxf/KPaDTl10cukkRv5meV+yK
9NMwgZwGA1UdIwSBlDCBkYAUAogYZd8lkSHUCmh41jigX48XHtOhbqRsMGoxEzAR
BgNVBAMUCk9DU1BfQ0FUV08xCzAJBgNVBAgTAktBMQswCQYDVQQGEwJJTjEoMCYG
CSqGSIb3DQEJARYZb2NzcGNhdHdvQG9jc3B0ZXN0aW5nLmNvbTEPMA0GA1UEChMG
Q0lUUklYggkAlUUP6/peAfYwPQYIKwYBBQUHAQEEMTAvMC0GCCsGAQUFBzABhiFo
dHRwOi8vMTcyLjE4LjEwLjIxL3Jlc3BvbmRlcnBhdGgwDQYJKoZIhvcNAQEFBQAD
ggEBAKVu86uloXq0UlFkD6RYs1diQnv7Kw7nFLLIEA6wDObdWgHwygTJPZGbiJLP
tnNB7gfdubVNVSb5xpX5koh0XtnBV+ujc12bHTiNcxcqseS7atfDLi7bS1Qgr9tr
ZOVs/KVq2dQHG8vXSTP9zeo6/KHtHGQ5AH396PPgpeZLHROcUDo9txcb1IJejtn8
lDo/3jqqsyHLLlOfQlGbcTYYh6QftfDTj7fvaICoua+CVsi16hhqsx47gBpZF2XJ
QNq8LktZDdxaiW+Dz4jW/6yQamaG9bjPCV8cl+1Du3U1KfDTfp/LTyO1M5iynxSI
pw+d0Y1VqZoX7wKmeEkztGA1I6M=
-----END CERTIFICATE-----
