Certificate:
    Data:
        Version: 3 (0x2)
        Serial Number: 11042563100220 (0xa0b0c0d0e3c)
    Signature Algorithm: sha1WithRSAEncryption
        Issuer: CN=OCSP_CATWO, ST=KA, C=IN/emailAddress=ocspcatwo@ocsptesting.com, O=CITRIX
        Validity
            Not Before: Jun 28 00:57:44 2016 GMT
            Not After : Jun 26 00:57:44 2026 GMT
        Subject: ST=KA, C=IN, CN=ocspcatwo_032_server/emailAddress=ocspcatwo_032@test_ca.com, O=CITRIX
        Subject Public Key Info:
            Public Key Algorithm: rsaEncryption
                Public-Key: (2048 bit)
                Modulus:
                    00:dd:5a:3f:ee:b0:68:e2:83:32:47:57:ed:b7:b3:
                    d6:f6:e7:3d:af:ad:b4:6a:1c:84:76:f0:cf:8a:c8:
                    8a:49:eb:88:3b:0e:74:75:f1:c2:9c:d1:dd:e5:52:
                    22:39:05:fd:23:c5:0d:05:8e:8f:16:41:10:07:70:
                    c1:df:9c:9b:b2:a4:e3:4e:41:b0:f4:d3:6e:2d:01:
                    65:4b:a8:a0:ec:c3:2b:17:9f:e0:81:bc:27:cc:ed:
                    da:d1:c0:0c:c6:46:d9:67:60:1b:bb:8c:f0:04:ab:
                    61:03:11:3e:a2:ae:5e:eb:5d:26:2c:5f:eb:f2:8b:
                    a9:26:31:7a:9f:9d:c3:ae:f6:16:40:a4:07:4e:d0:
                    f6:90:30:b7:e8:bd:49:00:20:4d:36:94:99:3d:0a:
                    10:41:4c:ba:ad:d4:3e:24:60:75:dc:9e:66:d8:38:
                    1e:2b:ff:a6:ac:a0:4e:cd:fa:2c:ef:83:93:0a:34:
                    4c:56:79:ba:5c:51:40:33:30:54:ca:1f:ad:ba:ad:
                    8f:5d:e9:7d:f9:93:fb:67:d0:79:b3:0b:2d:b4:1f:
                    46:94:74:fd:d4:d7:7c:9d:db:cf:9e:38:58:46:e2:
                    e6:95:ec:4d:db:8f:eb:b6:f0:9e:59:37:02:e8:ec:
                    51:86:42:81:e1:76:2d:fa:f3:25:6e:ac:51:74:88:
                    04:55
                Exponent: 65537 (0x10001)
        X509v3 extensions:
            Netscape Cert Type: 
                SSL Server
            X509v3 Subject Key Identifier: 
                4A:AC:C0:87:60:67:17:08:B8:5B:BD:97:A9:66:17:3D:B2:F9:FF:11
            X509v3 Authority Key Identifier: 
                keyid:02:88:18:65:DF:25:91:21:D4:0A:68:78:D6:38:A0:5F:8F:17:1E:D3
                DirName:/CN=OCSP_CATWO/ST=KA/C=IN/emailAddress=ocspcatwo@ocsptesting.com/O=CITRIX
                serial:95:45:0F:EB:FA:5E:01:F6

            Authority Information Access: 
                OCSP - URI:http://ashoke.ocsp_catwo.citrite.net/responderpath

    Signature Algorithm: sha1WithRSAEncryption
         3b:97:2d:1e:bd:70:09:97:c4:31:49:8d:18:24:78:12:7f:1e:
         60:c1:dc:79:c0:8b:1e:27:75:f0:1d:5a:41:de:ed:31:43:09:
         03:b0:4c:12:ec:9f:8c:84:16:7d:0b:02:49:51:e4:a1:84:03:
         c9:d0:1e:9b:26:49:73:ca:ad:69:db:02:6d:e2:4e:eb:5a:d9:
         da:4e:9f:13:80:48:1c:6f:1a:75:c8:87:c6:3e:27:6b:88:76:
         35:9a:61:32:73:1c:05:eb:6a:cb:64:eb:e4:bc:9f:9d:f7:87:
         6b:42:71:f5:29:ca:f1:c0:a6:70:4b:1f:56:f5:c1:5e:f0:4c:
         8c:f6:83:44:f5:38:7e:62:32:4a:fe:ac:ff:f7:44:7e:34:43:
         f3:55:ef:90:d1:bf:6a:a9:46:23:0a:fb:62:5d:45:a6:77:14:
         ca:bd:c9:e8:3b:68:c9:9c:5e:8f:39:fe:63:87:ae:69:0c:00:
         aa:66:0e:19:a1:b2:7b:95:1e:c0:0a:7b:0b:37:1a:25:31:ee:
         e2:42:56:02:01:1c:23:54:5b:51:da:b6:4c:8e:33:97:d3:97:
         19:37:3f:f2:56:5d:75:35:5c:5d:55:22:a4:60:7e:f3:ea:bc:
         6c:ad:b7:60:10:96:e4:e9:c2:0c:c2:27:81:71:ef:e0:87:19:
         1b:63:23:9d
-----BEGIN CERTIFICATE-----
MIIEhTCCA22gAwIBAgIGCgsMDQ48MA0GCSqGSIb3DQEBBQUAMGoxEzARBgNVBAMU
Ck9DU1BfQ0FUV08xCzAJBgNVBAgTAktBMQswCQYDVQQGEwJJTjEoMCYGCSqGSIb3
DQEJARYZb2NzcGNhdHdvQG9jc3B0ZXN0aW5nLmNvbTEPMA0GA1UEChMGQ0lUUklY
MB4XDTE2MDYyODAwNTc0NFoXDTI2MDYyNjAwNTc0NFowdDELMAkGA1UECBMCS0Ex
CzAJBgNVBAYTAklOMR0wGwYDVQQDFBRvY3NwY2F0d29fMDMyX3NlcnZlcjEoMCYG
CSqGSIb3DQEJARYZb2NzcGNhdHdvXzAzMkB0ZXN0X2NhLmNvbTEPMA0GA1UEChMG
Q0lUUklYMIIBIjANBgkqhkiG9w0BAQEFAAOCAQ8AMIIBCgKCAQEA3Vo/7rBo4oMy
R1ftt7PW9uc9r620ahyEdvDPisiKSeuIOw50dfHCnNHd5VIiOQX9I8UNBY6PFkEQ
B3DB35ybsqTjTkGw9NNuLQFlS6ig7MMrF5/ggbwnzO3a0cAMxkbZZ2Abu4zwBKth
AxE+oq5e610mLF/r8oupJjF6n53DrvYWQKQHTtD2kDC36L1JACBNNpSZPQoQQUy6
rdQ+JGB13J5m2DgeK/+mrKBOzfos74OTCjRMVnm6XFFAMzBUyh+tuq2PXel9+ZP7
Z9B5swsttB9GlHT91Nd8ndvPnjhYRuLmlexN24/rtvCeWTcC6OxRhkKB4XYt+vMl
bqxRdIgEVQIDAQABo4IBJTCCASEwEQYJYIZIAYb4QgEBBAQDAgZAMB0GA1UdDgQW
BBRKrMCHYGcXCLhbvZepZhc9svn/ETCBnAYDVR0jBIGUMIGRgBQCiBhl3yWRIdQK
aHjWOKBfjxce06FupGwwajETMBEGA1UEAxQKT0NTUF9DQVRXTzELMAkGA1UECBMC
S0ExCzAJBgNVBAYTAklOMSgwJgYJKoZIhvcNAQkBFhlvY3NwY2F0d29Ab2NzcHRl
c3RpbmcuY29tMQ8wDQYDVQQKEwZDSVRSSViCCQCVRQ/r+l4B9jBOBggrBgEFBQcB
AQRCMEAwPgYIKwYBBQUHMAGGMmh0dHA6Ly9hc2hva2Uub2NzcF9jYXR3by5jaXRy
aXRlLm5ldC9yZXNwb25kZXJwYXRoMA0GCSqGSIb3DQEBBQUAA4IBAQA7ly0evXAJ
l8QxSY0YJHgSfx5gwdx5wIseJ3XwHVpB3u0xQwkDsEwS7J+MhBZ9CwJJUeShhAPJ
0B6bJklzyq1p2wJt4k7rWtnaTp8TgEgcbxp1yIfGPidriHY1mmEycxwF62rLZOvk
vJ+d94drQnH1KcrxwKZwSx9W9cFe8EyM9oNE9Th+YjJK/qz/90R+NEPzVe+Q0b9q
qUYjCvtiXUWmdxTKvcnoO2jJnF6POf5jh65pDACqZg4ZobJ7lR7ACnsLNxolMe7i
QlYCARwjVFtR2rZMjjOX05cZNz/yVl11NVxdVSKkYH7z6rxsrbdgEJbk6cIMwieB
ce/ghxkbYyOd
-----END CERTIFICATE-----
