Certificate:
    Data:
        Version: 3 (0x2)
        Serial Number: 11042563100204 (0xa0b0c0d0e2c)
    Signature Algorithm: sha1WithRSAEncryption
        Issuer: CN=OCSP_CATWO, ST=KA, C=IN/emailAddress=ocspcatwo@ocsptesting.com, O=CITRIX
        Validity
            Not Before: Jun 28 00:50:01 2016 GMT
            Not After : Jun 26 00:50:01 2026 GMT
        Subject: ST=KA, C=IN, CN=016_server/emailAddress=016@test_ca.com, O=CITRIX
        Subject Public Key Info:
            Public Key Algorithm: rsaEncryption
                Public-Key: (2048 bit)
                Modulus:
                    00:b5:ae:ea:35:9f:1e:f2:77:3b:2d:6b:48:27:f8:
                    cd:dc:27:b5:56:bb:45:39:d1:46:f6:63:16:b1:10:
                    20:2e:46:83:db:f8:53:6a:a4:19:38:42:8a:45:8a:
                    8a:3f:51:b1:43:df:3e:55:ef:5a:35:ac:08:ee:15:
                    76:84:cf:06:d1:1b:c4:d0:a6:de:f8:94:36:60:e2:
                    90:26:1c:3f:be:21:15:f4:18:92:db:3a:4b:27:04:
                    e6:9b:41:98:b5:35:72:3a:b3:8e:59:9a:93:d0:26:
                    25:8a:db:0b:10:94:90:a1:de:1b:91:68:6f:c5:96:
                    06:a3:2a:3e:06:49:8f:36:74:3c:23:03:9c:d1:9b:
                    21:5d:df:b8:f2:1c:0d:18:15:e0:20:b8:6a:35:e4:
                    95:4a:e7:d6:52:f9:46:07:6b:9f:ff:d5:26:2d:a6:
                    f2:6b:65:c9:c8:42:f1:62:0f:71:3d:39:fb:ba:90:
                    8b:39:3d:3b:05:34:ad:5b:9a:1c:a8:c2:15:5f:08:
                    23:09:d6:68:06:c7:2e:40:a8:ec:ce:85:ac:1c:81:
                    27:b6:93:81:7d:8c:93:e0:0f:e2:74:68:88:cf:e7:
                    26:8a:23:53:2a:7d:6c:02:74:b6:6d:70:3b:4e:03:
                    37:0b:53:1e:71:30:82:1f:46:2a:7d:7e:8a:9a:86:
                    a3:97
                Exponent: 65537 (0x10001)
        X509v3 extensions:
            Netscape Cert Type: 
                SSL Server
            X509v3 Subject Key Identifier: 
                04:0B:5B:3E:C3:5E:D8:22:40:94:05:50:C4:99:19:B6:1C:48:87:A3
            X509v3 Authority Key Identifier: 
                keyid:02:88:18:65:DF:25:91:21:D4:0A:68:78:D6:38:A0:5F:8F:17:1E:D3
                DirName:/CN=OCSP_CATWO/ST=KA/C=IN/emailAddress=ocspcatwo@ocsptesting.com/O=CITRIX
                serial:95:45:0F:EB:FA:5E:01:F6

            Authority Information Access: 
                OCSP - URI:http://172.18.10.21/responderpath

    Signature Algorithm: sha1WithRSAEncryption
         07:2e:d2:7b:a2:f4:bb:37:51:1a:ce:b4:b2:2c:d6:cc:79:56:
         10:a4:18:15:ff:9a:fb:2f:0e:98:da:b3:13:92:a7:14:94:f6:
         bf:ab:09:ca:d2:69:c7:50:d9:0f:e0:5e:7d:76:14:77:47:23:
         49:be:fe:7f:02:23:26:ac:80:85:e7:a6:55:18:e5:4d:81:7b:
         2a:a8:fb:87:f1:c3:81:2a:91:90:4d:5d:de:ef:26:87:96:8a:
         b2:61:1b:73:8f:b9:88:46:45:01:32:4e:d5:39:c3:6a:2f:aa:
         76:89:5f:9e:c6:29:54:5c:f4:60:61:84:d8:c4:65:68:62:91:
         cf:3b:c2:53:23:49:36:ce:7e:77:5f:3f:cf:6e:c2:fa:43:c2:
         89:e6:b9:0c:14:c7:67:be:b6:3a:05:45:fa:cb:8e:26:39:17:
         79:f1:ed:a1:f1:bc:60:df:d1:55:7e:3f:9e:2c:8e:fc:e1:02:
         2c:0b:b5:d8:9a:82:ea:a7:3a:bb:3d:e8:1d:f4:b6:f9:c9:9f:
         da:ac:d3:75:55:2e:ff:ff:37:f6:66:cb:70:42:39:15:22:e7:
         99:6d:bf:0a:48:6f:8e:93:fc:82:bb:88:75:30:2f:53:42:a5:
         26:47:10:80:ca:55:53:0e:82:2e:4d:ba:66:6a:f7:28:30:9f:
         f8:c6:48:aa
-----BEGIN CERTIFICATE-----
MIIEYDCCA0igAwIBAgIGCgsMDQ4sMA0GCSqGSIb3DQEBBQUAMGoxEzARBgNVBAMU
Ck9DU1BfQ0FUV08xCzAJBgNVBAgTAktBMQswCQYDVQQGEwJJTjEoMCYGCSqGSIb3
DQEJARYZb2NzcGNhdHdvQG9jc3B0ZXN0aW5nLmNvbTEPMA0GA1UEChMGQ0lUUklY
MB4XDTE2MDYyODAwNTAwMVoXDTI2MDYyNjAwNTAwMVowYDELMAkGA1UECBMCS0Ex
CzAJBgNVBAYTAklOMRMwEQYDVQQDFAowMTZfc2VydmVyMR4wHAYJKoZIhvcNAQkB
Fg8wMTZAdGVzdF9jYS5jb20xDzANBgNVBAoTBkNJVFJJWDCCASIwDQYJKoZIhvcN
AQEBBQADggEPADCCAQoCggEBALWu6jWfHvJ3Oy1rSCf4zdwntVa7RTnRRvZjFrEQ
IC5Gg9v4U2qkGThCikWKij9RsUPfPlXvWjWsCO4VdoTPBtEbxNCm3viUNmDikCYc
P74hFfQYkts6SycE5ptBmLU1cjqzjlmak9AmJYrbCxCUkKHeG5Fob8WWBqMqPgZJ
jzZ0PCMDnNGbIV3fuPIcDRgV4CC4ajXklUrn1lL5Rgdrn//VJi2m8mtlychC8WIP
cT05+7qQizk9OwU0rVuaHKjCFV8IIwnWaAbHLkCo7M6FrByBJ7aTgX2Mk+AP4nRo
iM/nJoojUyp9bAJ0tm1wO04DNwtTHnEwgh9GKn1+ipqGo5cCAwEAAaOCARQwggEQ
MBEGCWCGSAGG+EIBAQQEAwIGQDAdBgNVHQ4EFgQUBAtbPsNe2CJAlAVQxJkZthxI
h6MwgZwGA1UdIwSBlDCBkYAUAogYZd8lkSHUCmh41jigX48XHtOhbqRsMGoxEzAR
BgNVBAMUCk9DU1BfQ0FUV08xCzAJBgNVBAgTAktBMQswCQYDVQQGEwJJTjEoMCYG
CSqGSIb3DQEJARYZb2NzcGNhdHdvQG9jc3B0ZXN0aW5nLmNvbTEPMA0GA1UEChMG
Q0lUUklYggkAlUUP6/peAfYwPQYIKwYBBQUHAQEEMTAvMC0GCCsGAQUFBzABhiFo
dHRwOi8vMTcyLjE4LjEwLjIxL3Jlc3BvbmRlcnBhdGgwDQYJKoZIhvcNAQEFBQAD
ggEBAAcu0nui9Ls3URrOtLIs1sx5VhCkGBX/mvsvDpjasxOSpxSU9r+rCcrSacdQ
2Q/gXn12FHdHI0m+/n8CIyasgIXnplUY5U2Beyqo+4fxw4EqkZBNXd7vJoeWirJh
G3OPuYhGRQEyTtU5w2ovqnaJX57GKVRc9GBhhNjEZWhikc87wlMjSTbOfndfP89u
wvpDwonmuQwUx2e+tjoFRfrLjiY5F3nx7aHxvGDf0VV+P54sjvzhAiwLtdiaguqn
Ors96B30tvnJn9qs03VVLv//N/Zmy3BCORUi55ltvwpIb46T/IK7iHUwL1NCpSZH
EIDKVVMOgi5NumZq9ygwn/jGSKo=
-----END CERTIFICATE-----
