Certificate:
    Data:
        Version: 3 (0x2)
        Serial Number: 11042563100211 (0xa0b0c0d0e33)
    Signature Algorithm: sha1WithRSAEncryption
        Issuer: CN=OCSP_CATWO, ST=KA, C=IN/emailAddress=ocspcatwo@ocsptesting.com, O=CITRIX
        Validity
            Not Before: Jun 28 00:50:26 2016 GMT
            Not After : Jun 26 00:50:26 2026 GMT
        Subject: ST=KA, C=IN, CN=023_server/emailAddress=023@test_ca.com, O=CITRIX
        Subject Public Key Info:
            Public Key Algorithm: rsaEncryption
                Public-Key: (2048 bit)
                Modulus:
                    00:b4:8b:98:84:a0:ca:8b:f7:b4:d9:7c:07:4f:96:
                    e2:63:1e:04:b8:3c:04:06:51:f2:3e:2f:33:ac:af:
                    7e:33:a4:22:78:0d:a7:9d:ae:c6:ad:a0:f5:b5:b1:
                    41:98:29:cf:b3:35:01:41:0f:5d:b2:39:af:99:15:
                    4d:67:7d:d4:6c:16:b6:13:0a:29:4f:6f:ad:19:6f:
                    3b:29:f4:7f:87:78:50:85:af:3c:2e:d3:37:80:68:
                    9b:7d:ba:3d:30:3d:05:26:c6:8d:8c:fd:a2:f6:be:
                    a2:a4:d6:60:00:bc:f9:68:7e:fb:51:18:d0:8f:0b:
                    ff:8a:67:2f:b7:a7:71:62:bc:05:f8:49:64:1a:24:
                    3a:71:bd:d9:52:ce:dd:fa:ca:07:6c:4b:fb:55:97:
                    09:ed:9b:02:d3:56:21:2b:0b:0b:07:77:39:6b:33:
                    9a:61:5e:0e:0d:5d:08:98:e8:a8:6b:2a:f5:a0:39:
                    0b:85:0a:4c:71:74:59:64:d5:18:14:35:45:82:52:
                    bd:49:73:5d:1c:68:69:98:3d:b8:a3:9f:ba:b6:90:
                    9f:bf:37:bb:52:81:d8:d5:fe:09:14:2c:2d:b8:de:
                    41:1d:e0:08:51:20:81:41:4a:c4:8e:6e:af:d5:9d:
                    3f:53:77:3d:41:7f:7f:39:ff:47:33:65:eb:1d:1f:
                    5d:73
                Exponent: 65537 (0x10001)
        X509v3 extensions:
            Netscape Cert Type: 
                SSL Server
            X509v3 Subject Key Identifier: 
                E1:CD:7A:D0:AE:85:8A:3C:9C:08:26:48:F5:64:B4:14:08:0F:67:24
            X509v3 Authority Key Identifier: 
                keyid:02:88:18:65:DF:25:91:21:D4:0A:68:78:D6:38:A0:5F:8F:17:1E:D3
                DirName:/CN=OCSP_CATWO/ST=KA/C=IN/emailAddress=ocspcatwo@ocsptesting.com/O=CITRIX
                serial:95:45:0F:EB:FA:5E:01:F6

            Authority Information Access: 
                OCSP - URI:http://172.18.10.21/responderpath

    Signature Algorithm: sha1WithRSAEncryption
         1b:fe:91:16:40:f5:43:5d:f4:1e:fc:f4:b2:8d:ff:81:78:ce:
         83:21:b3:2f:6d:74:db:f4:6f:85:d6:ad:6a:cf:66:74:d3:53:
         8d:8b:0a:71:f8:3e:b4:f8:4b:2c:4d:96:20:ec:9a:39:ed:f8:
         81:34:7d:f6:59:80:6d:d8:53:23:3d:47:35:97:6c:8a:da:8d:
         fe:81:c4:4d:b7:d9:31:a3:8b:f5:97:4a:b3:d9:3b:e7:ed:64:
         56:50:6c:1f:b8:8b:f3:19:13:17:45:e7:e4:ee:0e:8b:d3:9d:
         06:b4:fe:c1:ad:32:39:d4:f2:f2:63:08:4a:3e:a2:1c:aa:db:
         30:3a:29:8f:de:71:03:a7:40:18:7b:2f:7b:bf:55:3d:c0:44:
         d5:1a:e6:81:c1:fc:72:27:e4:6a:c9:bf:eb:f9:29:52:62:29:
         32:65:f9:9e:35:a0:3f:a5:1e:31:28:ff:bd:ac:90:81:de:43:
         af:27:d6:90:29:a4:ca:e4:22:d1:aa:31:83:58:4d:da:6c:ea:
         62:40:51:f2:4d:3d:a4:96:d9:a1:d9:60:09:18:76:bf:0f:a0:
         42:45:28:c0:82:80:e5:a6:bb:6f:b9:b1:ff:88:6f:25:41:3d:
         ab:61:11:6f:c6:77:e0:af:29:78:89:61:a1:47:51:d1:37:26:
         e8:9e:87:65
-----BEGIN CERTIFICATE-----
MIIEYDCCA0igAwIBAgIGCgsMDQ4zMA0GCSqGSIb3DQEBBQUAMGoxEzARBgNVBAMU
Ck9DU1BfQ0FUV08xCzAJBgNVBAgTAktBMQswCQYDVQQGEwJJTjEoMCYGCSqGSIb3
DQEJARYZb2NzcGNhdHdvQG9jc3B0ZXN0aW5nLmNvbTEPMA0GA1UEChMGQ0lUUklY
MB4XDTE2MDYyODAwNTAyNloXDTI2MDYyNjAwNTAyNlowYDELMAkGA1UECBMCS0Ex
CzAJBgNVBAYTAklOMRMwEQYDVQQDFAowMjNfc2VydmVyMR4wHAYJKoZIhvcNAQkB
Fg8wMjNAdGVzdF9jYS5jb20xDzANBgNVBAoTBkNJVFJJWDCCASIwDQYJKoZIhvcN
AQEBBQADggEPADCCAQoCggEBALSLmISgyov3tNl8B0+W4mMeBLg8BAZR8j4vM6yv
fjOkIngNp52uxq2g9bWxQZgpz7M1AUEPXbI5r5kVTWd91GwWthMKKU9vrRlvOyn0
f4d4UIWvPC7TN4Bom326PTA9BSbGjYz9ova+oqTWYAC8+Wh++1EY0I8L/4pnL7en
cWK8BfhJZBokOnG92VLO3frKB2xL+1WXCe2bAtNWISsLCwd3OWszmmFeDg1dCJjo
qGsq9aA5C4UKTHF0WWTVGBQ1RYJSvUlzXRxoaZg9uKOfuraQn783u1KB2NX+CRQs
LbjeQR3gCFEggUFKxI5ur9WdP1N3PUF/fzn/RzNl6x0fXXMCAwEAAaOCARQwggEQ
MBEGCWCGSAGG+EIBAQQEAwIGQDAdBgNVHQ4EFgQU4c160K6FijycCCZI9WS0FAgP
ZyQwgZwGA1UdIwSBlDCBkYAUAogYZd8lkSHUCmh41jigX48XHtOhbqRsMGoxEzAR
BgNVBAMUCk9DU1BfQ0FUV08xCzAJBgNVBAgTAktBMQswCQYDVQQGEwJJTjEoMCYG
CSqGSIb3DQEJARYZb2NzcGNhdHdvQG9jc3B0ZXN0aW5nLmNvbTEPMA0GA1UEChMG
Q0lUUklYggkAlUUP6/peAfYwPQYIKwYBBQUHAQEEMTAvMC0GCCsGAQUFBzABhiFo
dHRwOi8vMTcyLjE4LjEwLjIxL3Jlc3BvbmRlcnBhdGgwDQYJKoZIhvcNAQEFBQAD
ggEBABv+kRZA9UNd9B789LKN/4F4zoMhsy9tdNv0b4XWrWrPZnTTU42LCnH4PrT4
SyxNliDsmjnt+IE0ffZZgG3YUyM9RzWXbIrajf6BxE232TGji/WXSrPZO+ftZFZQ
bB+4i/MZExdF5+TuDovTnQa0/sGtMjnU8vJjCEo+ohyq2zA6KY/ecQOnQBh7L3u/
VT3ARNUa5oHB/HIn5GrJv+v5KVJiKTJl+Z41oD+lHjEo/72skIHeQ68n1pAppMrk
ItGqMYNYTdps6mJAUfJNPaSW2aHZYAkYdr8PoEJFKMCCgOWmu2+5sf+IbyVBPath
EW/Gd+CvKXiJYaFHUdE3Juieh2U=
-----END CERTIFICATE-----
