Certificate:
    Data:
        Version: 3 (0x2)
        Serial Number: 11042563100210 (0xa0b0c0d0e32)
    Signature Algorithm: sha1WithRSAEncryption
        Issuer: CN=OCSP_CATWO, ST=KA, C=IN/emailAddress=ocspcatwo@ocsptesting.com, O=CITRIX
        Validity
            Not Before: Jun 28 00:50:21 2016 GMT
            Not After : Jun 26 00:50:21 2026 GMT
        Subject: ST=KA, C=IN, CN=022_server/emailAddress=022@test_ca.com, O=CITRIX
        Subject Public Key Info:
            Public Key Algorithm: rsaEncryption
                Public-Key: (2048 bit)
                Modulus:
                    00:c8:f5:35:0a:0d:91:3b:2d:dc:20:fd:34:03:69:
                    7d:92:86:bb:3e:16:c2:a7:d8:4e:61:51:0b:55:2a:
                    7d:fd:f0:b9:01:60:a0:10:78:d7:75:be:c4:9d:cb:
                    41:aa:52:a7:a6:4b:07:ec:68:9e:b9:a1:58:67:4a:
                    42:67:af:73:38:9c:c0:1e:34:14:0a:4d:ee:8a:ae:
                    aa:d5:7f:80:0c:65:91:19:7d:23:fa:77:8f:c3:77:
                    df:b9:4c:ff:d9:55:c7:1e:99:36:46:4c:be:27:bd:
                    37:8f:06:0c:7e:b8:44:72:7d:5c:89:a2:c3:bc:27:
                    f3:c9:86:82:79:7e:fe:63:a6:6a:ba:46:2a:9e:27:
                    4d:fc:42:5c:62:71:25:c9:08:e5:23:44:e0:06:d8:
                    e5:f9:bf:99:a4:c9:a0:16:01:20:35:ba:ee:88:ac:
                    72:da:38:15:4a:87:89:4d:13:3e:42:0b:ba:87:a2:
                    9a:9f:f1:f2:3b:08:b7:30:24:73:2f:a7:32:16:b5:
                    85:30:55:1d:dd:3c:7a:93:c1:1c:cd:5a:c5:7c:b3:
                    57:30:f5:d6:a6:4b:d6:ba:c6:5b:ed:e5:26:77:7b:
                    23:0d:a7:18:a5:78:7f:e8:72:e0:a3:eb:e3:0e:d3:
                    f0:24:50:15:20:ab:ea:e1:4e:a4:17:25:4e:65:d1:
                    04:55
                Exponent: 65537 (0x10001)
        X509v3 extensions:
            Netscape Cert Type: 
                SSL Server
            X509v3 Subject Key Identifier: 
                D9:93:53:FB:C2:A8:C1:2F:F1:CB:BB:1E:F8:92:B7:9F:5B:11:65:00
            X509v3 Authority Key Identifier: 
                keyid:02:88:18:65:DF:25:91:21:D4:0A:68:78:D6:38:A0:5F:8F:17:1E:D3
                DirName:/CN=OCSP_CATWO/ST=KA/C=IN/emailAddress=ocspcatwo@ocsptesting.com/O=CITRIX
                serial:95:45:0F:EB:FA:5E:01:F6

            Authority Information Access: 
                OCSP - URI:http://172.18.10.21/responderpath

    Signature Algorithm: sha1WithRSAEncryption
         72:a2:0c:e7:a2:44:ad:bd:08:4e:f4:58:13:29:fa:b4:5c:27:
         f4:54:ea:21:2a:48:ea:24:61:9c:4a:a4:25:ee:22:47:53:71:
         b9:f9:11:cc:85:03:97:25:56:b3:fa:29:34:c2:ff:8c:4e:f2:
         d0:c1:94:f2:0a:4c:6f:c3:ed:a5:8c:2b:81:69:c1:e9:4d:5a:
         f2:b0:c5:c3:22:53:ca:23:40:5f:24:74:8b:3a:92:9e:9d:6a:
         07:cb:9f:1b:d1:84:01:8d:c9:24:de:ce:af:40:e1:80:ce:4b:
         ba:b7:cc:b7:c0:67:29:87:13:02:1d:dd:dd:40:c2:c6:5e:ff:
         32:fd:b5:93:24:01:e5:e1:7e:d1:a4:77:00:e4:53:ae:46:1d:
         c6:4b:d3:bb:09:3f:92:09:6c:54:1a:93:c1:c7:e6:3d:1f:d3:
         ba:39:73:44:7a:31:64:1d:65:b0:6c:41:d6:1b:46:1d:d6:4c:
         e3:b0:38:c5:77:e8:31:75:00:00:66:c2:fc:c6:94:bc:b7:d8:
         15:0d:8b:7b:2c:32:98:b9:6b:ea:7d:b6:ba:27:91:e9:b6:b8:
         34:b0:ac:bc:c1:cd:ac:ab:91:26:71:ac:ed:82:8e:db:f0:67:
         fb:03:53:45:2d:e5:04:79:7b:e3:98:3a:0a:96:12:fd:b4:73:
         c2:3c:d0:49
-----BEGIN CERTIFICATE-----
MIIEYDCCA0igAwIBAgIGCgsMDQ4yMA0GCSqGSIb3DQEBBQUAMGoxEzARBgNVBAMU
Ck9DU1BfQ0FUV08xCzAJBgNVBAgTAktBMQswCQYDVQQGEwJJTjEoMCYGCSqGSIb3
DQEJARYZb2NzcGNhdHdvQG9jc3B0ZXN0aW5nLmNvbTEPMA0GA1UEChMGQ0lUUklY
MB4XDTE2MDYyODAwNTAyMVoXDTI2MDYyNjAwNTAyMVowYDELMAkGA1UECBMCS0Ex
CzAJBgNVBAYTAklOMRMwEQYDVQQDFAowMjJfc2VydmVyMR4wHAYJKoZIhvcNAQkB
Fg8wMjJAdGVzdF9jYS5jb20xDzANBgNVBAoTBkNJVFJJWDCCASIwDQYJKoZIhvcN
AQEBBQADggEPADCCAQoCggEBAMj1NQoNkTst3CD9NANpfZKGuz4WwqfYTmFRC1Uq
ff3wuQFgoBB413W+xJ3LQapSp6ZLB+xonrmhWGdKQmevczicwB40FApN7oquqtV/
gAxlkRl9I/p3j8N337lM/9lVxx6ZNkZMvie9N48GDH64RHJ9XImiw7wn88mGgnl+
/mOmarpGKp4nTfxCXGJxJckI5SNE4AbY5fm/maTJoBYBIDW67oiscto4FUqHiU0T
PkILuoeimp/x8jsItzAkcy+nMha1hTBVHd08epPBHM1axXyzVzD11qZL1rrGW+3l
Jnd7Iw2nGKV4f+hy4KPr4w7T8CRQFSCr6uFOpBclTmXRBFUCAwEAAaOCARQwggEQ
MBEGCWCGSAGG+EIBAQQEAwIGQDAdBgNVHQ4EFgQU2ZNT+8KowS/xy7se+JK3n1sR
ZQAwgZwGA1UdIwSBlDCBkYAUAogYZd8lkSHUCmh41jigX48XHtOhbqRsMGoxEzAR
BgNVBAMUCk9DU1BfQ0FUV08xCzAJBgNVBAgTAktBMQswCQYDVQQGEwJJTjEoMCYG
CSqGSIb3DQEJARYZb2NzcGNhdHdvQG9jc3B0ZXN0aW5nLmNvbTEPMA0GA1UEChMG
Q0lUUklYggkAlUUP6/peAfYwPQYIKwYBBQUHAQEEMTAvMC0GCCsGAQUFBzABhiFo
dHRwOi8vMTcyLjE4LjEwLjIxL3Jlc3BvbmRlcnBhdGgwDQYJKoZIhvcNAQEFBQAD
ggEBAHKiDOeiRK29CE70WBMp+rRcJ/RU6iEqSOokYZxKpCXuIkdTcbn5EcyFA5cl
VrP6KTTC/4xO8tDBlPIKTG/D7aWMK4FpwelNWvKwxcMiU8ojQF8kdIs6kp6dagfL
nxvRhAGNySTezq9A4YDOS7q3zLfAZymHEwId3d1AwsZe/zL9tZMkAeXhftGkdwDk
U65GHcZL07sJP5IJbFQak8HH5j0f07o5c0R6MWQdZbBsQdYbRh3WTOOwOMV36DF1
AABmwvzGlLy32BUNi3ssMpi5a+p9tronkem2uDSwrLzBzayrkSZxrO2CjtvwZ/sD
U0Ut5QR5e+OYOgqWEv20c8I80Ek=
-----END CERTIFICATE-----
