Certificate:
    Data:
        Version: 3 (0x2)
        Serial Number: 11042563100215 (0xa0b0c0d0e37)
    Signature Algorithm: sha1WithRSAEncryption
        Issuer: CN=OCSP_CATWO, ST=KA, C=IN/emailAddress=ocspcatwo@ocsptesting.com, O=CITRIX
        Validity
            Not Before: Jun 28 00:50:42 2016 GMT
            Not After : Jun 26 00:50:42 2026 GMT
        Subject: ST=KA, C=IN, CN=027_server/emailAddress=027@test_ca.com, O=CITRIX
        Subject Public Key Info:
            Public Key Algorithm: rsaEncryption
                Public-Key: (2048 bit)
                Modulus:
                    00:e6:37:b0:1f:e5:24:11:8b:88:93:f5:8d:12:ac:
                    26:f1:1c:83:f3:d9:59:68:03:3d:b1:9a:3d:38:03:
                    6c:26:42:78:07:3f:bc:12:fe:29:ba:dc:cd:60:46:
                    cd:17:60:36:23:ac:be:61:66:e3:79:26:c4:53:9c:
                    fc:a4:fc:c1:60:4a:53:90:6b:57:15:0a:fc:ad:0a:
                    ec:b7:91:5c:c3:51:13:86:f1:5c:2c:66:9d:a3:91:
                    66:92:cb:d6:8d:15:df:50:fd:9f:1f:c5:2e:e3:3b:
                    53:ee:c1:74:3e:60:6f:38:b0:11:af:d3:30:55:e3:
                    4c:f7:d9:34:87:96:27:4a:24:01:43:91:45:42:32:
                    6a:ab:81:0e:04:92:4e:df:ff:38:df:f6:cf:86:19:
                    4b:87:d7:18:f6:86:b3:c6:9a:c8:bb:f1:89:2a:2e:
                    f6:81:1f:05:5b:c2:ce:dc:c3:f2:b2:71:8b:e6:64:
                    11:c4:6b:54:75:f4:d9:ab:bb:c3:63:3d:c7:78:05:
                    09:1d:b9:f1:ae:c0:47:3b:3e:39:ae:fc:6e:18:9e:
                    57:78:7e:b5:d1:02:9a:70:d0:be:29:44:27:a4:7d:
                    3b:1c:7c:94:3f:96:50:75:10:f0:35:36:29:d1:42:
                    d1:d4:f1:7d:98:e4:7e:09:bf:e1:d7:94:72:12:71:
                    13:5f
                Exponent: 65537 (0x10001)
        X509v3 extensions:
            Netscape Cert Type: 
                SSL Server
            X509v3 Subject Key Identifier: 
                1F:20:44:FA:A5:D4:EF:D3:03:54:C3:44:5F:D9:CE:6D:40:62:C2:DA
            X509v3 Authority Key Identifier: 
                keyid:02:88:18:65:DF:25:91:21:D4:0A:68:78:D6:38:A0:5F:8F:17:1E:D3
                DirName:/CN=OCSP_CATWO/ST=KA/C=IN/emailAddress=ocspcatwo@ocsptesting.com/O=CITRIX
                serial:95:45:0F:EB:FA:5E:01:F6

            Authority Information Access: 
                OCSP - URI:http://172.18.10.21/responderpath

    Signature Algorithm: sha1WithRSAEncryption
         24:f4:02:8b:e3:cc:23:b2:97:3c:80:60:76:d8:b8:ca:86:c2:
         e8:02:e8:23:d6:98:c2:c7:ee:6f:a6:8d:d0:52:ad:e6:10:2d:
         8c:01:8a:fd:72:22:d2:f8:d4:cb:75:33:66:fa:c3:a1:96:7d:
         3b:53:75:ce:c7:97:1a:33:30:10:57:ff:63:dd:0c:1f:3c:a3:
         a9:8a:39:a2:af:7e:85:77:9f:c8:91:ce:fb:80:bd:3e:a8:a2:
         b8:59:0a:25:c7:2f:7e:8b:8c:96:d2:7a:05:11:0b:2f:be:c3:
         cf:d7:1a:ab:fc:dc:95:70:51:a5:2a:88:cf:c8:36:57:d1:72:
         df:56:eb:f6:06:0f:fa:30:b4:ba:da:30:8e:14:eb:f5:fe:4e:
         e2:ee:55:97:6a:92:81:f0:3e:8c:7e:76:14:14:34:ed:13:41:
         1b:9b:6a:35:93:ff:32:52:28:c7:45:9e:eb:e6:08:fa:e5:89:
         04:21:b7:89:a1:98:ad:79:e9:96:1e:70:61:60:f8:a9:aa:2f:
         22:7f:37:62:59:93:ac:2b:94:cd:4c:ee:72:b9:a0:30:71:48:
         85:16:bf:36:ca:a7:36:80:fe:7d:6e:36:fd:16:db:1d:89:fc:
         9f:97:7d:ab:d8:3a:ed:e6:d9:29:4b:72:8a:ae:5b:f3:6c:b6:
         3e:c1:20:f2
-----BEGIN CERTIFICATE-----
MIIEYDCCA0igAwIBAgIGCgsMDQ43MA0GCSqGSIb3DQEBBQUAMGoxEzARBgNVBAMU
Ck9DU1BfQ0FUV08xCzAJBgNVBAgTAktBMQswCQYDVQQGEwJJTjEoMCYGCSqGSIb3
DQEJARYZb2NzcGNhdHdvQG9jc3B0ZXN0aW5nLmNvbTEPMA0GA1UEChMGQ0lUUklY
MB4XDTE2MDYyODAwNTA0MloXDTI2MDYyNjAwNTA0MlowYDELMAkGA1UECBMCS0Ex
CzAJBgNVBAYTAklOMRMwEQYDVQQDFAowMjdfc2VydmVyMR4wHAYJKoZIhvcNAQkB
Fg8wMjdAdGVzdF9jYS5jb20xDzANBgNVBAoTBkNJVFJJWDCCASIwDQYJKoZIhvcN
AQEBBQADggEPADCCAQoCggEBAOY3sB/lJBGLiJP1jRKsJvEcg/PZWWgDPbGaPTgD
bCZCeAc/vBL+KbrczWBGzRdgNiOsvmFm43kmxFOc/KT8wWBKU5BrVxUK/K0K7LeR
XMNRE4bxXCxmnaORZpLL1o0V31D9nx/FLuM7U+7BdD5gbziwEa/TMFXjTPfZNIeW
J0okAUORRUIyaquBDgSSTt//ON/2z4YZS4fXGPaGs8aayLvxiSou9oEfBVvCztzD
8rJxi+ZkEcRrVHX02au7w2M9x3gFCR258a7ARzs+Oa78bhieV3h+tdECmnDQvilE
J6R9Oxx8lD+WUHUQ8DU2KdFC0dTxfZjkfgm/4deUchJxE18CAwEAAaOCARQwggEQ
MBEGCWCGSAGG+EIBAQQEAwIGQDAdBgNVHQ4EFgQUHyBE+qXU79MDVMNEX9nObUBi
wtowgZwGA1UdIwSBlDCBkYAUAogYZd8lkSHUCmh41jigX48XHtOhbqRsMGoxEzAR
BgNVBAMUCk9DU1BfQ0FUV08xCzAJBgNVBAgTAktBMQswCQYDVQQGEwJJTjEoMCYG
CSqGSIb3DQEJARYZb2NzcGNhdHdvQG9jc3B0ZXN0aW5nLmNvbTEPMA0GA1UEChMG
Q0lUUklYggkAlUUP6/peAfYwPQYIKwYBBQUHAQEEMTAvMC0GCCsGAQUFBzABhiFo
dHRwOi8vMTcyLjE4LjEwLjIxL3Jlc3BvbmRlcnBhdGgwDQYJKoZIhvcNAQEFBQAD
ggEBACT0AovjzCOylzyAYHbYuMqGwugC6CPWmMLH7m+mjdBSreYQLYwBiv1yItL4
1Mt1M2b6w6GWfTtTdc7HlxozMBBX/2PdDB88o6mKOaKvfoV3n8iRzvuAvT6oorhZ
CiXHL36LjJbSegURCy++w8/XGqv83JVwUaUqiM/INlfRct9W6/YGD/owtLraMI4U
6/X+TuLuVZdqkoHwPox+dhQUNO0TQRubajWT/zJSKMdFnuvmCPrliQQht4mhmK15
6ZYecGFg+KmqLyJ/N2JZk6wrlM1M7nK5oDBxSIUWvzbKpzaA/n1uNv0W2x2J/J+X
favYOu3m2SlLcoquW/Nstj7BIPI=
-----END CERTIFICATE-----
