Certificate:
    Data:
        Version: 3 (0x2)
        Serial Number: 11042563100227 (0xa0b0c0d0e43)
    Signature Algorithm: sha1WithRSAEncryption
        Issuer: CN=OCSP_CATWO, ST=KA, C=IN/emailAddress=ocspcatwo@ocsptesting.com, O=CITRIX
        Validity
            Not Before: Jun 28 00:57:56 2016 GMT
            Not After : Jun 26 00:57:56 2026 GMT
        Subject: ST=KA, C=IN, CN=ocspcatwo_039_server/emailAddress=ocspcatwo_039@test_ca.com, O=CITRIX
        Subject Public Key Info:
            Public Key Algorithm: rsaEncryption
                Public-Key: (2048 bit)
                Modulus:
                    00:c5:64:61:75:d5:15:08:10:98:a7:03:bd:4a:fd:
                    fc:69:ac:e7:86:25:ab:b5:11:56:f8:f0:e0:c4:50:
                    33:02:8c:36:c5:53:9d:e9:24:80:1d:b7:7c:66:ab:
                    d1:a1:f8:59:98:46:b5:19:55:56:33:30:86:ac:ae:
                    49:05:c7:07:5a:0a:55:0a:74:9b:c2:bd:cc:43:d9:
                    26:b6:26:93:5b:1e:61:33:db:ce:a3:0c:11:67:e1:
                    56:40:8d:6c:2e:85:85:07:d8:f7:bb:c2:ec:3d:be:
                    3a:7d:f8:64:a9:07:a6:d9:de:3e:a3:44:c9:2b:c0:
                    69:01:fd:bb:17:5a:25:9e:0c:98:48:30:93:81:4e:
                    4a:c7:37:cf:e1:69:85:97:f2:6d:78:0d:75:ed:60:
                    ed:27:59:d5:b1:32:ae:6a:ad:05:62:30:2a:0d:7a:
                    fc:83:a4:64:07:8a:db:96:70:c4:e8:b2:9b:07:cd:
                    f5:89:1b:e5:14:78:56:b1:35:0b:24:3d:6d:12:62:
                    73:6d:f5:4d:af:79:70:f9:bf:51:97:43:95:81:29:
                    32:26:fe:cb:96:c5:b8:7e:b4:ba:fd:8d:dd:79:44:
                    1c:19:20:19:cd:8f:18:24:1b:87:a6:60:1c:72:fd:
                    19:5d:83:ed:74:ad:49:ce:8b:c0:7f:31:69:ca:70:
                    c2:1b
                Exponent: 65537 (0x10001)
        X509v3 extensions:
            Netscape Cert Type: 
                SSL Server
            X509v3 Subject Key Identifier: 
                2D:AA:DB:29:2C:3F:FD:71:9C:3B:F8:E2:AC:9D:77:FB:84:7D:78:B9
            X509v3 Authority Key Identifier: 
                keyid:02:88:18:65:DF:25:91:21:D4:0A:68:78:D6:38:A0:5F:8F:17:1E:D3
                DirName:/CN=OCSP_CATWO/ST=KA/C=IN/emailAddress=ocspcatwo@ocsptesting.com/O=CITRIX
                serial:95:45:0F:EB:FA:5E:01:F6

            Authority Information Access: 
                OCSP - URI:http://ashoke.ocsp_catwo.citrite.net/responderpath

    Signature Algorithm: sha1WithRSAEncryption
         0c:b7:89:13:af:5f:70:42:52:2d:d2:4d:0f:40:35:87:c0:35:
         a1:4b:c5:66:5e:55:07:39:0f:6d:8a:58:44:7c:e4:81:57:23:
         f4:8a:44:18:75:89:99:e0:72:ec:f4:56:f9:d3:d1:5b:f1:66:
         c0:36:03:60:31:82:a4:65:7a:83:8e:94:ec:a3:c9:1d:43:b6:
         83:3e:f0:b8:ca:de:56:71:bf:7a:a3:fc:dd:41:ae:ce:ac:e6:
         12:78:71:88:da:e7:64:e9:e1:84:3c:3a:c0:db:81:d4:4b:ce:
         1b:fe:fd:4c:cb:08:72:fb:ed:64:fb:08:5b:ce:56:b8:d7:b6:
         9b:45:d0:f5:03:21:bd:99:e9:ea:01:4b:a4:39:19:14:de:1f:
         9f:cb:98:2c:a4:83:b4:13:83:81:ac:30:a5:e3:56:f0:0b:af:
         13:1d:1c:89:27:70:f9:55:b5:60:60:65:28:86:8c:fd:01:f1:
         44:b8:2a:b2:d6:c5:a7:aa:40:36:17:1f:86:cd:c2:90:7b:60:
         14:90:2d:37:52:b7:38:30:f9:87:10:27:39:9e:96:7b:f5:3b:
         54:28:e3:63:f7:7b:ed:6e:2c:47:3c:cc:48:6f:b2:99:3a:23:
         9a:03:21:29:81:ae:79:5e:d9:83:4e:f2:33:f4:d9:50:a2:e0:
         38:8d:a4:bd
-----BEGIN CERTIFICATE-----
MIIEhTCCA22gAwIBAgIGCgsMDQ5DMA0GCSqGSIb3DQEBBQUAMGoxEzARBgNVBAMU
Ck9DU1BfQ0FUV08xCzAJBgNVBAgTAktBMQswCQYDVQQGEwJJTjEoMCYGCSqGSIb3
DQEJARYZb2NzcGNhdHdvQG9jc3B0ZXN0aW5nLmNvbTEPMA0GA1UEChMGQ0lUUklY
MB4XDTE2MDYyODAwNTc1NloXDTI2MDYyNjAwNTc1NlowdDELMAkGA1UECBMCS0Ex
CzAJBgNVBAYTAklOMR0wGwYDVQQDFBRvY3NwY2F0d29fMDM5X3NlcnZlcjEoMCYG
CSqGSIb3DQEJARYZb2NzcGNhdHdvXzAzOUB0ZXN0X2NhLmNvbTEPMA0GA1UEChMG
Q0lUUklYMIIBIjANBgkqhkiG9w0BAQEFAAOCAQ8AMIIBCgKCAQEAxWRhddUVCBCY
pwO9Sv38aaznhiWrtRFW+PDgxFAzAow2xVOd6SSAHbd8ZqvRofhZmEa1GVVWMzCG
rK5JBccHWgpVCnSbwr3MQ9kmtiaTWx5hM9vOowwRZ+FWQI1sLoWFB9j3u8LsPb46
ffhkqQem2d4+o0TJK8BpAf27F1olngyYSDCTgU5KxzfP4WmFl/JteA117WDtJ1nV
sTKuaq0FYjAqDXr8g6RkB4rblnDE6LKbB831iRvlFHhWsTULJD1tEmJzbfVNr3lw
+b9Rl0OVgSkyJv7LlsW4frS6/Y3deUQcGSAZzY8YJBuHpmAccv0ZXYPtdK1JzovA
fzFpynDCGwIDAQABo4IBJTCCASEwEQYJYIZIAYb4QgEBBAQDAgZAMB0GA1UdDgQW
BBQtqtspLD/9cZw7+OKsnXf7hH14uTCBnAYDVR0jBIGUMIGRgBQCiBhl3yWRIdQK
aHjWOKBfjxce06FupGwwajETMBEGA1UEAxQKT0NTUF9DQVRXTzELMAkGA1UECBMC
S0ExCzAJBgNVBAYTAklOMSgwJgYJKoZIhvcNAQkBFhlvY3NwY2F0d29Ab2NzcHRl
c3RpbmcuY29tMQ8wDQYDVQQKEwZDSVRSSViCCQCVRQ/r+l4B9jBOBggrBgEFBQcB
AQRCMEAwPgYIKwYBBQUHMAGGMmh0dHA6Ly9hc2hva2Uub2NzcF9jYXR3by5jaXRy
aXRlLm5ldC9yZXNwb25kZXJwYXRoMA0GCSqGSIb3DQEBBQUAA4IBAQAMt4kTr19w
QlIt0k0PQDWHwDWhS8VmXlUHOQ9tilhEfOSBVyP0ikQYdYmZ4HLs9Fb509Fb8WbA
NgNgMYKkZXqDjpTso8kdQ7aDPvC4yt5Wcb96o/zdQa7OrOYSeHGI2udk6eGEPDrA
24HUS84b/v1Mywhy++1k+whbzla417abRdD1AyG9menqAUukORkU3h+fy5gspIO0
E4OBrDCl41bwC68THRyJJ3D5VbVgYGUohoz9AfFEuCqy1sWnqkA2Fx+GzcKQe2AU
kC03Urc4MPmHECc5npZ79TtUKONj93vtbixHPMxIb7KZOiOaAyEpga55XtmDTvIz
9NlQouA4jaS9
-----END CERTIFICATE-----
