Certificate:
    Data:
        Version: 3 (0x2)
        Serial Number: 11042563100232 (0xa0b0c0d0e48)
    Signature Algorithm: sha1WithRSAEncryption
        Issuer: CN=OCSP_CATWO, ST=KA, C=IN/emailAddress=ocspcatwo@ocsptesting.com, O=CITRIX
        Validity
            Not Before: Jun 28 00:59:45 2016 GMT
            Not After : Jun 26 00:59:45 2026 GMT
        Subject: ST=KA, C=IN, CN=ocspcatwo_044_server/emailAddress=ocspcatwo_044@test_ca.com, O=CITRIX
        Subject Public Key Info:
            Public Key Algorithm: rsaEncryption
                Public-Key: (2048 bit)
                Modulus:
                    00:bc:5c:ee:01:54:09:13:4e:e3:fe:d4:7a:3d:77:
                    c4:e5:b6:14:40:8d:9d:67:ec:af:10:f8:ca:70:1f:
                    ed:db:ab:74:23:57:45:38:27:6c:c4:39:e6:92:66:
                    1e:19:a9:e6:bf:20:a7:5f:08:32:47:eb:8d:d9:a5:
                    90:f4:38:4a:6d:34:55:58:00:36:90:d4:1c:c2:09:
                    28:5e:d4:6f:27:07:74:64:a8:7b:b7:6c:b5:60:6c:
                    9a:4d:67:25:0b:19:ad:2f:66:d8:4a:28:8b:ca:d6:
                    0f:76:4d:37:68:f9:ab:69:f1:36:9a:0d:ec:e9:41:
                    4d:fc:25:98:4c:d9:6b:f1:82:b3:00:b4:7f:b5:70:
                    e2:78:da:96:4a:f4:f8:40:53:df:3e:66:82:38:5a:
                    b1:b6:c5:24:71:e2:c0:62:cf:ab:74:86:ff:75:7e:
                    90:c2:92:de:0d:74:78:9e:a1:6d:99:e0:1f:9c:07:
                    9a:be:42:d7:4e:62:78:c4:1f:97:3b:f8:71:56:3e:
                    c9:31:cf:a9:fe:86:70:34:78:9d:a1:20:25:b8:38:
                    fc:ea:da:6b:9f:37:e6:75:3f:52:da:db:f4:fc:ad:
                    ce:6a:09:93:8a:9d:e3:f5:27:67:d6:45:d3:7e:eb:
                    fc:c9:c0:72:bb:fe:d6:ea:e3:6a:d6:0d:0e:8f:03:
                    04:71
                Exponent: 65537 (0x10001)
        X509v3 extensions:
            Netscape Cert Type: 
                SSL Server
            X509v3 Subject Key Identifier: 
                96:55:22:0A:B0:3E:88:9C:F8:8D:35:98:20:F0:1B:15:4F:70:43:D9
            X509v3 Authority Key Identifier: 
                keyid:02:88:18:65:DF:25:91:21:D4:0A:68:78:D6:38:A0:5F:8F:17:1E:D3
                DirName:/CN=OCSP_CATWO/ST=KA/C=IN/emailAddress=ocspcatwo@ocsptesting.com/O=CITRIX
                serial:95:45:0F:EB:FA:5E:01:F6

            Authority Information Access: 
                OCSP - URI:http://ashoke2.ocsp_catwo.citrite.net/responderpath

    Signature Algorithm: sha1WithRSAEncryption
         76:6c:44:fb:21:70:7d:9c:01:12:8d:74:ce:82:df:2d:bf:28:
         fc:ef:d3:b6:17:af:0b:f7:d3:62:72:64:2c:4e:1c:c8:28:9f:
         35:f3:69:58:16:d1:34:5d:60:48:36:a9:88:69:2d:bb:83:de:
         b1:39:eb:41:4f:ca:5f:42:91:94:b8:01:f5:ae:04:d9:f7:fe:
         bd:41:6c:66:d3:54:0a:e7:f1:4f:b0:61:ec:26:8a:45:06:47:
         40:23:36:0d:a7:42:9f:c0:37:69:c0:42:9a:fc:55:4a:fd:89:
         bb:1c:24:34:c6:65:01:ad:4b:af:4a:56:b0:91:f6:db:fe:a0:
         2f:2c:d4:8d:ee:f1:c9:63:df:e3:77:7d:4f:d2:e1:1e:72:12:
         82:86:c6:4f:1a:77:50:60:80:e3:6c:b0:a7:44:a9:14:5c:c8:
         b0:e6:52:5b:e1:1d:d5:e8:f9:c8:73:bd:75:c9:d2:98:e3:95:
         9f:9e:fb:5e:b4:8f:63:5c:45:52:d7:42:60:74:76:ac:74:43:
         d1:30:6e:6e:a9:f9:e5:a5:86:58:d9:fe:ae:ed:01:86:8e:1f:
         36:dd:3d:14:e9:49:f2:6a:91:76:65:c7:44:02:03:7a:9a:90:
         42:29:15:3d:f3:14:a4:04:dd:29:3f:ec:83:d4:26:5e:24:f3:
         47:2d:71:63
-----BEGIN CERTIFICATE-----
MIIEhjCCA26gAwIBAgIGCgsMDQ5IMA0GCSqGSIb3DQEBBQUAMGoxEzARBgNVBAMU
Ck9DU1BfQ0FUV08xCzAJBgNVBAgTAktBMQswCQYDVQQGEwJJTjEoMCYGCSqGSIb3
DQEJARYZb2NzcGNhdHdvQG9jc3B0ZXN0aW5nLmNvbTEPMA0GA1UEChMGQ0lUUklY
MB4XDTE2MDYyODAwNTk0NVoXDTI2MDYyNjAwNTk0NVowdDELMAkGA1UECBMCS0Ex
CzAJBgNVBAYTAklOMR0wGwYDVQQDFBRvY3NwY2F0d29fMDQ0X3NlcnZlcjEoMCYG
CSqGSIb3DQEJARYZb2NzcGNhdHdvXzA0NEB0ZXN0X2NhLmNvbTEPMA0GA1UEChMG
Q0lUUklYMIIBIjANBgkqhkiG9w0BAQEFAAOCAQ8AMIIBCgKCAQEAvFzuAVQJE07j
/tR6PXfE5bYUQI2dZ+yvEPjKcB/t26t0I1dFOCdsxDnmkmYeGanmvyCnXwgyR+uN
2aWQ9DhKbTRVWAA2kNQcwgkoXtRvJwd0ZKh7t2y1YGyaTWclCxmtL2bYSiiLytYP
dk03aPmrafE2mg3s6UFN/CWYTNlr8YKzALR/tXDieNqWSvT4QFPfPmaCOFqxtsUk
ceLAYs+rdIb/dX6QwpLeDXR4nqFtmeAfnAeavkLXTmJ4xB+XO/hxVj7JMc+p/oZw
NHidoSAluDj86tprnzfmdT9S2tv0/K3OagmTip3j9Sdn1kXTfuv8ycByu/7W6uNq
1g0OjwMEcQIDAQABo4IBJjCCASIwEQYJYIZIAYb4QgEBBAQDAgZAMB0GA1UdDgQW
BBSWVSIKsD6InPiNNZgg8BsVT3BD2TCBnAYDVR0jBIGUMIGRgBQCiBhl3yWRIdQK
aHjWOKBfjxce06FupGwwajETMBEGA1UEAxQKT0NTUF9DQVRXTzELMAkGA1UECBMC
S0ExCzAJBgNVBAYTAklOMSgwJgYJKoZIhvcNAQkBFhlvY3NwY2F0d29Ab2NzcHRl
c3RpbmcuY29tMQ8wDQYDVQQKEwZDSVRSSViCCQCVRQ/r+l4B9jBPBggrBgEFBQcB
AQRDMEEwPwYIKwYBBQUHMAGGM2h0dHA6Ly9hc2hva2UyLm9jc3BfY2F0d28uY2l0
cml0ZS5uZXQvcmVzcG9uZGVycGF0aDANBgkqhkiG9w0BAQUFAAOCAQEAdmxE+yFw
fZwBEo10zoLfLb8o/O/TthevC/fTYnJkLE4cyCifNfNpWBbRNF1gSDapiGktu4Pe
sTnrQU/KX0KRlLgB9a4E2ff+vUFsZtNUCufxT7Bh7CaKRQZHQCM2DadCn8A3acBC
mvxVSv2JuxwkNMZlAa1Lr0pWsJH22/6gLyzUje7xyWPf43d9T9LhHnISgobGTxp3
UGCA42ywp0SpFFzIsOZSW+Ed1ej5yHO9dcnSmOOVn577XrSPY1xFUtdCYHR2rHRD
0TBubqn55aWGWNn+ru0Bho4fNt09FOlJ8mqRdmXHRAIDepqQQikVPfMUpATdKT/s
g9QmXiTzRy1xYw==
-----END CERTIFICATE-----
