Certificate:
    Data:
        Version: 3 (0x2)
        Serial Number: 11042563100209 (0xa0b0c0d0e31)
    Signature Algorithm: sha1WithRSAEncryption
        Issuer: CN=OCSP_CATWO, ST=KA, C=IN/emailAddress=ocspcatwo@ocsptesting.com, O=CITRIX
        Validity
            Not Before: Jun 28 00:50:13 2016 GMT
            Not After : Jun 26 00:50:13 2026 GMT
        Subject: ST=KA, C=IN, CN=021_server/emailAddress=021@test_ca.com, O=CITRIX
        Subject Public Key Info:
            Public Key Algorithm: rsaEncryption
                Public-Key: (2048 bit)
                Modulus:
                    00:c8:18:e9:f0:ea:d9:83:db:9f:5d:e8:24:53:9f:
                    4b:cb:aa:87:5e:eb:1b:ef:6b:72:f2:af:1b:9e:74:
                    78:06:2d:e7:20:d4:07:2b:b1:fd:68:9c:89:3e:b6:
                    77:90:c3:c2:2b:03:3f:ae:41:62:a7:de:3d:d7:7a:
                    dc:e1:ee:c1:78:6d:7a:62:ef:00:96:16:fd:a1:cc:
                    72:5a:b4:67:d7:24:f9:a7:1f:a9:6a:2f:1b:cf:21:
                    f0:a9:23:60:6e:b7:70:fe:0e:ce:62:e4:38:d6:ab:
                    3f:7b:09:47:e4:79:c1:9e:63:79:69:d7:4b:b0:0c:
                    2d:67:81:68:c5:26:ce:24:e8:c3:dd:94:3a:a1:db:
                    83:dd:b0:27:0a:6e:d3:dd:2d:f2:08:a1:27:b2:37:
                    8c:f5:34:51:21:61:17:ed:58:7d:20:56:53:e5:60:
                    60:6a:46:c3:09:9c:e6:dc:b5:c0:fa:28:f1:4f:6d:
                    11:ef:54:81:84:60:4c:db:cd:fe:17:63:63:3f:e4:
                    dd:91:98:1d:4d:ef:20:be:25:e2:11:5e:de:3e:c8:
                    d3:57:c2:48:6a:31:c6:68:18:dd:23:ac:ac:c7:75:
                    b1:cb:d6:5a:d3:fa:88:6a:5b:52:0e:b1:e0:eb:54:
                    20:2e:c5:7b:37:75:4c:b5:6d:a2:55:e4:f6:d8:fb:
                    66:4d
                Exponent: 65537 (0x10001)
        X509v3 extensions:
            Netscape Cert Type: 
                SSL Server
            X509v3 Subject Key Identifier: 
                34:B4:46:E2:3F:9F:A2:50:B0:B6:1F:4F:A5:E6:E3:F3:4D:07:36:47
            X509v3 Authority Key Identifier: 
                keyid:02:88:18:65:DF:25:91:21:D4:0A:68:78:D6:38:A0:5F:8F:17:1E:D3
                DirName:/CN=OCSP_CATWO/ST=KA/C=IN/emailAddress=ocspcatwo@ocsptesting.com/O=CITRIX
                serial:95:45:0F:EB:FA:5E:01:F6

            Authority Information Access: 
                OCSP - URI:http://172.18.10.21/responderpath

    Signature Algorithm: sha1WithRSAEncryption
         0c:a0:42:0c:d7:04:f9:2a:d5:7a:c5:ec:c2:72:31:f6:1f:aa:
         79:63:f7:c4:ab:8c:34:e9:d6:a0:fd:e0:d0:0a:0c:25:4a:cf:
         ba:42:b0:d5:df:26:42:d6:59:e1:bb:a0:45:7e:af:22:52:37:
         28:74:6a:38:7e:98:39:4c:07:85:a6:07:74:b8:f5:b8:9e:5b:
         03:b0:4c:da:89:03:2c:ae:9a:28:61:be:5f:17:28:2b:11:3d:
         11:2b:41:2a:71:b9:e0:80:91:7a:6f:fe:69:3e:46:3b:a3:2f:
         cb:ca:cd:a3:01:ca:72:81:eb:ba:bb:9d:cc:49:4a:92:16:7a:
         3e:54:12:7f:59:35:f1:5a:fa:cd:b5:1a:84:98:cb:4c:59:b2:
         66:53:4d:d5:a0:b6:73:0d:d1:67:47:0e:4a:eb:cf:76:9f:7f:
         a5:7b:44:d6:d2:3e:df:00:75:06:19:13:ba:f5:5f:b0:eb:b6:
         1c:e6:50:f9:6f:f2:a9:ad:42:00:44:45:ad:44:06:0a:68:75:
         80:d8:f6:ae:a0:6e:dd:14:79:d5:93:17:ac:f0:c2:aa:9b:dc:
         80:da:46:be:59:35:58:56:b0:b0:b5:fa:a1:b4:e2:dd:d5:26:
         78:1a:a0:6e:5f:7a:d9:46:06:ba:be:04:c3:6d:f0:3f:32:0a:
         96:b3:b2:3b
-----BEGIN CERTIFICATE-----
MIIEYDCCA0igAwIBAgIGCgsMDQ4xMA0GCSqGSIb3DQEBBQUAMGoxEzARBgNVBAMU
Ck9DU1BfQ0FUV08xCzAJBgNVBAgTAktBMQswCQYDVQQGEwJJTjEoMCYGCSqGSIb3
DQEJARYZb2NzcGNhdHdvQG9jc3B0ZXN0aW5nLmNvbTEPMA0GA1UEChMGQ0lUUklY
MB4XDTE2MDYyODAwNTAxM1oXDTI2MDYyNjAwNTAxM1owYDELMAkGA1UECBMCS0Ex
CzAJBgNVBAYTAklOMRMwEQYDVQQDFAowMjFfc2VydmVyMR4wHAYJKoZIhvcNAQkB
Fg8wMjFAdGVzdF9jYS5jb20xDzANBgNVBAoTBkNJVFJJWDCCASIwDQYJKoZIhvcN
AQEBBQADggEPADCCAQoCggEBAMgY6fDq2YPbn13oJFOfS8uqh17rG+9rcvKvG550
eAYt5yDUByux/WiciT62d5DDwisDP65BYqfePdd63OHuwXhtemLvAJYW/aHMclq0
Z9ck+acfqWovG88h8KkjYG63cP4OzmLkONarP3sJR+R5wZ5jeWnXS7AMLWeBaMUm
ziTow92UOqHbg92wJwpu090t8gihJ7I3jPU0USFhF+1YfSBWU+VgYGpGwwmc5ty1
wPoo8U9tEe9UgYRgTNvN/hdjYz/k3ZGYHU3vIL4l4hFe3j7I01fCSGoxxmgY3SOs
rMd1scvWWtP6iGpbUg6x4OtUIC7Fezd1TLVtolXk9tj7Zk0CAwEAAaOCARQwggEQ
MBEGCWCGSAGG+EIBAQQEAwIGQDAdBgNVHQ4EFgQUNLRG4j+folCwth9Ppebj800H
NkcwgZwGA1UdIwSBlDCBkYAUAogYZd8lkSHUCmh41jigX48XHtOhbqRsMGoxEzAR
BgNVBAMUCk9DU1BfQ0FUV08xCzAJBgNVBAgTAktBMQswCQYDVQQGEwJJTjEoMCYG
CSqGSIb3DQEJARYZb2NzcGNhdHdvQG9jc3B0ZXN0aW5nLmNvbTEPMA0GA1UEChMG
Q0lUUklYggkAlUUP6/peAfYwPQYIKwYBBQUHAQEEMTAvMC0GCCsGAQUFBzABhiFo
dHRwOi8vMTcyLjE4LjEwLjIxL3Jlc3BvbmRlcnBhdGgwDQYJKoZIhvcNAQEFBQAD
ggEBAAygQgzXBPkq1XrF7MJyMfYfqnlj98SrjDTp1qD94NAKDCVKz7pCsNXfJkLW
WeG7oEV+ryJSNyh0ajh+mDlMB4WmB3S49bieWwOwTNqJAyyumihhvl8XKCsRPREr
QSpxueCAkXpv/mk+RjujL8vKzaMBynKB67q7ncxJSpIWej5UEn9ZNfFa+s21GoSY
y0xZsmZTTdWgtnMN0WdHDkrrz3aff6V7RNbSPt8AdQYZE7r1X7DrthzmUPlv8qmt
QgBERa1EBgpodYDY9q6gbt0UedWTF6zwwqqb3IDaRr5ZNVhWsLC1+qG04t3VJnga
oG5fetlGBrq+BMNt8D8yCpazsjs=
-----END CERTIFICATE-----
