Certificate:
    Data:
        Version: 3 (0x2)
        Serial Number: 11042563100205 (0xa0b0c0d0e2d)
    Signature Algorithm: sha1WithRSAEncryption
        Issuer: CN=OCSP_CATWO, ST=KA, C=IN/emailAddress=ocspcatwo@ocsptesting.com, O=CITRIX
        Validity
            Not Before: Jun 28 00:50:02 2016 GMT
            Not After : Jun 26 00:50:02 2026 GMT
        Subject: ST=KA, C=IN, CN=017_server/emailAddress=017@test_ca.com, O=CITRIX
        Subject Public Key Info:
            Public Key Algorithm: rsaEncryption
                Public-Key: (2048 bit)
                Modulus:
                    00:e6:f9:fe:b1:fd:10:27:bb:62:88:9d:ab:77:90:
                    67:0d:88:a2:01:f3:63:2c:14:7d:db:fc:8c:ca:24:
                    88:2c:f8:49:e7:76:74:cf:26:34:d2:08:b9:1a:f0:
                    24:c6:a5:12:a1:f8:87:a1:0c:74:ce:41:ad:70:bd:
                    c7:c2:26:9e:27:8c:38:59:bd:86:0f:da:a6:d5:89:
                    57:c1:4c:8d:1a:ef:15:34:24:03:c1:11:e5:f9:fe:
                    7b:43:b5:aa:47:5c:29:86:3c:43:6d:a2:72:85:1b:
                    a9:ff:4c:da:d6:be:24:0b:d3:04:2e:ec:63:ef:15:
                    e6:68:f5:8f:73:a6:f0:65:e0:a7:d5:e9:38:68:23:
                    6a:d8:28:39:6e:a9:6b:e1:6a:a5:d9:9e:e1:19:8f:
                    a1:c2:4c:0f:93:39:fe:fa:50:d7:bb:4f:72:d4:ed:
                    60:d0:54:65:19:96:80:10:7c:1f:22:07:7e:7d:1a:
                    2e:51:17:ef:b2:9d:74:c8:c1:df:03:74:c5:8c:a3:
                    3d:3b:33:b3:86:ad:b2:3e:8a:7d:88:f0:e6:97:18:
                    6a:8c:c5:09:db:99:5f:32:a5:24:95:c3:fa:01:f4:
                    42:cd:ed:7d:0d:55:30:49:d1:e6:8e:1b:33:76:e6:
                    a7:f6:ab:a5:c1:5f:79:9b:57:2c:91:c6:4d:d7:0e:
                    96:03
                Exponent: 65537 (0x10001)
        X509v3 extensions:
            Netscape Cert Type: 
                SSL Server
            X509v3 Subject Key Identifier: 
                28:82:BD:08:22:20:E5:EB:B3:86:84:32:FC:CE:1D:F0:BD:7C:92:2B
            X509v3 Authority Key Identifier: 
                keyid:02:88:18:65:DF:25:91:21:D4:0A:68:78:D6:38:A0:5F:8F:17:1E:D3
                DirName:/CN=OCSP_CATWO/ST=KA/C=IN/emailAddress=ocspcatwo@ocsptesting.com/O=CITRIX
                serial:95:45:0F:EB:FA:5E:01:F6

            Authority Information Access: 
                OCSP - URI:http://172.18.10.21/responderpath

    Signature Algorithm: sha1WithRSAEncryption
         ab:6a:a1:75:df:07:6d:12:e5:30:57:c8:b3:ec:5b:45:d9:f7:
         26:7f:0b:09:3d:3c:3b:c3:54:84:05:7f:c8:67:44:8b:60:19:
         ac:60:4d:be:c7:d9:15:f7:d3:41:8e:5e:68:d5:1e:bb:93:1f:
         47:59:04:a5:ae:4f:cb:39:21:1a:2e:7e:ea:4a:0d:46:e6:2d:
         b1:eb:85:f2:a9:8c:c2:98:42:69:43:26:e7:7e:31:e7:34:ba:
         cb:03:54:f6:07:0f:fa:6b:41:31:c9:e3:e6:67:4b:81:a8:bf:
         d1:03:09:d0:8c:bf:6b:d9:a6:a0:3c:1c:d1:cf:07:cf:07:34:
         bb:c4:48:ae:d8:98:44:f1:8b:40:d0:cf:75:b7:18:3d:f8:04:
         c6:fb:7c:0b:13:a8:3e:85:31:f2:f1:53:4d:92:f5:f5:60:cb:
         05:50:ed:ef:c3:71:29:b3:20:d9:bc:0a:88:1b:41:46:dc:23:
         11:ce:fb:19:a0:b3:a8:28:c0:2f:4a:6c:ae:8d:1f:3b:50:d8:
         5b:61:25:2a:63:f5:9b:d6:fa:0e:00:d9:5c:f6:7a:70:30:3a:
         7b:55:df:d2:29:11:0d:b5:fe:fc:a2:91:bf:9c:5d:35:3e:94:
         c2:7e:89:6e:02:a3:17:57:34:28:01:b6:1d:eb:3b:f6:59:19:
         0a:52:ec:72
-----BEGIN CERTIFICATE-----
MIIEYDCCA0igAwIBAgIGCgsMDQ4tMA0GCSqGSIb3DQEBBQUAMGoxEzARBgNVBAMU
Ck9DU1BfQ0FUV08xCzAJBgNVBAgTAktBMQswCQYDVQQGEwJJTjEoMCYGCSqGSIb3
DQEJARYZb2NzcGNhdHdvQG9jc3B0ZXN0aW5nLmNvbTEPMA0GA1UEChMGQ0lUUklY
MB4XDTE2MDYyODAwNTAwMloXDTI2MDYyNjAwNTAwMlowYDELMAkGA1UECBMCS0Ex
CzAJBgNVBAYTAklOMRMwEQYDVQQDFAowMTdfc2VydmVyMR4wHAYJKoZIhvcNAQkB
Fg8wMTdAdGVzdF9jYS5jb20xDzANBgNVBAoTBkNJVFJJWDCCASIwDQYJKoZIhvcN
AQEBBQADggEPADCCAQoCggEBAOb5/rH9ECe7Yoidq3eQZw2IogHzYywUfdv8jMok
iCz4Sed2dM8mNNIIuRrwJMalEqH4h6EMdM5BrXC9x8ImnieMOFm9hg/aptWJV8FM
jRrvFTQkA8ER5fn+e0O1qkdcKYY8Q22icoUbqf9M2ta+JAvTBC7sY+8V5mj1j3Om
8GXgp9XpOGgjatgoOW6pa+Fqpdme4RmPocJMD5M5/vpQ17tPctTtYNBUZRmWgBB8
HyIHfn0aLlEX77KddMjB3wN0xYyjPTszs4atsj6KfYjw5pcYaozFCduZXzKlJJXD
+gH0Qs3tfQ1VMEnR5o4bM3bmp/arpcFfeZtXLJHGTdcOlgMCAwEAAaOCARQwggEQ
MBEGCWCGSAGG+EIBAQQEAwIGQDAdBgNVHQ4EFgQUKIK9CCIg5euzhoQy/M4d8L18
kiswgZwGA1UdIwSBlDCBkYAUAogYZd8lkSHUCmh41jigX48XHtOhbqRsMGoxEzAR
BgNVBAMUCk9DU1BfQ0FUV08xCzAJBgNVBAgTAktBMQswCQYDVQQGEwJJTjEoMCYG
CSqGSIb3DQEJARYZb2NzcGNhdHdvQG9jc3B0ZXN0aW5nLmNvbTEPMA0GA1UEChMG
Q0lUUklYggkAlUUP6/peAfYwPQYIKwYBBQUHAQEEMTAvMC0GCCsGAQUFBzABhiFo
dHRwOi8vMTcyLjE4LjEwLjIxL3Jlc3BvbmRlcnBhdGgwDQYJKoZIhvcNAQEFBQAD
ggEBAKtqoXXfB20S5TBXyLPsW0XZ9yZ/Cwk9PDvDVIQFf8hnRItgGaxgTb7H2RX3
00GOXmjVHruTH0dZBKWuT8s5IRoufupKDUbmLbHrhfKpjMKYQmlDJud+Mec0ussD
VPYHD/prQTHJ4+ZnS4Gov9EDCdCMv2vZpqA8HNHPB88HNLvESK7YmETxi0DQz3W3
GD34BMb7fAsTqD6FMfLxU02S9fVgywVQ7e/DcSmzINm8CogbQUbcIxHO+xmgs6go
wC9KbK6NHztQ2FthJSpj9ZvW+g4A2Vz2enAwOntV39IpEQ21/vyikb+cXTU+lMJ+
iW4CoxdXNCgBth3rO/ZZGQpS7HI=
-----END CERTIFICATE-----
