Certificate:
    Data:
        Version: 3 (0x2)
        Serial Number: 11042563100196 (0xa0b0c0d0e24)
    Signature Algorithm: sha1WithRSAEncryption
        Issuer: CN=OCSP_CATWO, ST=KA, C=IN/emailAddress=ocspcatwo@ocsptesting.com, O=CITRIX
        Validity
            Not Before: Jun 28 00:49:41 2016 GMT
            Not After : Jun 26 00:49:41 2026 GMT
        Subject: ST=KA, C=IN, CN=008_server/emailAddress=008@test_ca.com, O=CITRIX
        Subject Public Key Info:
            Public Key Algorithm: rsaEncryption
                Public-Key: (2048 bit)
                Modulus:
                    00:dc:d9:dc:d4:49:c9:a2:c8:3a:ea:47:12:1b:3c:
                    35:57:6d:d6:7c:c7:a2:0a:33:0b:33:78:0d:c9:14:
                    90:9f:e2:46:82:fa:76:a2:de:43:69:f5:e4:5d:90:
                    e9:c1:39:8b:e2:3a:44:3e:df:b2:90:01:1d:a3:ef:
                    56:71:41:b2:92:1c:71:e9:d1:44:26:bb:04:7d:8d:
                    bb:8c:0a:25:75:30:ba:23:63:c9:5a:5a:7c:8e:e9:
                    82:22:b9:1f:22:a8:5c:1a:18:9c:a1:f8:c1:51:45:
                    71:be:88:fe:24:41:19:f0:7a:dd:5c:6d:6c:ff:30:
                    62:d7:4b:d6:eb:33:51:d4:5b:8e:3f:8b:96:0a:62:
                    2b:85:fd:5e:28:22:f3:be:ea:eb:dd:6b:7e:bd:fc:
                    b1:1f:a8:ba:83:30:e0:0b:b3:b8:05:42:d8:a1:df:
                    d7:66:f2:c0:db:0c:77:0f:9c:8b:ae:9f:23:19:d0:
                    80:4f:c9:ed:a4:26:03:c9:3e:67:1f:1c:5b:0c:16:
                    42:40:b0:af:78:59:6e:17:44:a0:1c:02:4d:22:45:
                    df:30:88:5e:ff:1f:3b:11:0f:fa:0b:fb:e3:70:18:
                    59:61:b6:6f:3d:ed:d8:c2:6b:15:71:d2:e5:aa:37:
                    c7:01:1c:47:95:5e:c0:ee:c6:ac:e9:d8:34:3b:58:
                    57:4d
                Exponent: 65537 (0x10001)
        X509v3 extensions:
            Netscape Cert Type: 
                SSL Server
            X509v3 Subject Key Identifier: 
                74:3F:F3:45:4E:30:C6:C1:36:10:54:FB:0B:09:24:83:36:A9:56:3D
            X509v3 Authority Key Identifier: 
                keyid:02:88:18:65:DF:25:91:21:D4:0A:68:78:D6:38:A0:5F:8F:17:1E:D3
                DirName:/CN=OCSP_CATWO/ST=KA/C=IN/emailAddress=ocspcatwo@ocsptesting.com/O=CITRIX
                serial:95:45:0F:EB:FA:5E:01:F6

            Authority Information Access: 
                OCSP - URI:http://172.18.10.21/responderpath

    Signature Algorithm: sha1WithRSAEncryption
         0d:72:16:76:af:ab:16:9f:46:28:16:16:12:a0:3c:af:6f:35:
         c0:37:c7:0f:cb:f4:7c:74:9d:6a:03:b1:ed:04:fa:8c:c4:e6:
         6f:84:a4:f3:d5:2b:58:42:ed:d9:d0:f5:bc:2d:0e:e9:9a:7c:
         14:88:f5:cd:54:3d:8e:02:a5:17:88:4e:ff:23:f2:f8:6b:ea:
         c0:0b:e6:6e:2a:1c:b9:78:ca:f6:c1:13:b5:7e:23:9e:29:c5:
         10:5d:0d:df:01:76:c6:d3:83:86:82:ab:d1:f1:5c:ea:6f:e0:
         eb:6a:e3:b8:f7:0e:89:7f:f3:7b:95:47:7d:53:f3:2e:3d:11:
         d0:3b:14:1c:b7:88:b2:8e:93:d4:19:d0:d3:11:5d:b3:59:47:
         dc:1c:2b:65:c9:f5:75:23:f7:cd:71:7e:d4:74:b3:39:b6:a9:
         2d:fc:88:09:f6:66:00:7d:d4:94:fe:2b:91:86:22:53:67:00:
         51:23:ad:86:2b:14:1a:b7:b9:4f:f8:23:88:66:51:e5:79:de:
         73:2e:0c:c9:86:e1:dc:8c:eb:a4:a8:6d:b8:56:aa:ce:64:a5:
         6f:a9:64:01:7d:74:63:81:0c:83:3a:bf:c3:f2:db:f0:87:c3:
         89:7b:e5:5c:28:68:48:6e:25:ab:59:d2:0a:87:5c:02:61:a6:
         64:0e:bd:cb
-----BEGIN CERTIFICATE-----
MIIEYDCCA0igAwIBAgIGCgsMDQ4kMA0GCSqGSIb3DQEBBQUAMGoxEzARBgNVBAMU
Ck9DU1BfQ0FUV08xCzAJBgNVBAgTAktBMQswCQYDVQQGEwJJTjEoMCYGCSqGSIb3
DQEJARYZb2NzcGNhdHdvQG9jc3B0ZXN0aW5nLmNvbTEPMA0GA1UEChMGQ0lUUklY
MB4XDTE2MDYyODAwNDk0MVoXDTI2MDYyNjAwNDk0MVowYDELMAkGA1UECBMCS0Ex
CzAJBgNVBAYTAklOMRMwEQYDVQQDFAowMDhfc2VydmVyMR4wHAYJKoZIhvcNAQkB
Fg8wMDhAdGVzdF9jYS5jb20xDzANBgNVBAoTBkNJVFJJWDCCASIwDQYJKoZIhvcN
AQEBBQADggEPADCCAQoCggEBANzZ3NRJyaLIOupHEhs8NVdt1nzHogozCzN4DckU
kJ/iRoL6dqLeQ2n15F2Q6cE5i+I6RD7fspABHaPvVnFBspIccenRRCa7BH2Nu4wK
JXUwuiNjyVpafI7pgiK5HyKoXBoYnKH4wVFFcb6I/iRBGfB63VxtbP8wYtdL1usz
UdRbjj+LlgpiK4X9Xigi877q691rfr38sR+ouoMw4AuzuAVC2KHf12bywNsMdw+c
i66fIxnQgE/J7aQmA8k+Zx8cWwwWQkCwr3hZbhdEoBwCTSJF3zCIXv8fOxEP+gv7
43AYWWG2bz3t2MJrFXHS5ao3xwEcR5VewO7GrOnYNDtYV00CAwEAAaOCARQwggEQ
MBEGCWCGSAGG+EIBAQQEAwIGQDAdBgNVHQ4EFgQUdD/zRU4wxsE2EFT7Cwkkgzap
Vj0wgZwGA1UdIwSBlDCBkYAUAogYZd8lkSHUCmh41jigX48XHtOhbqRsMGoxEzAR
BgNVBAMUCk9DU1BfQ0FUV08xCzAJBgNVBAgTAktBMQswCQYDVQQGEwJJTjEoMCYG
CSqGSIb3DQEJARYZb2NzcGNhdHdvQG9jc3B0ZXN0aW5nLmNvbTEPMA0GA1UEChMG
Q0lUUklYggkAlUUP6/peAfYwPQYIKwYBBQUHAQEEMTAvMC0GCCsGAQUFBzABhiFo
dHRwOi8vMTcyLjE4LjEwLjIxL3Jlc3BvbmRlcnBhdGgwDQYJKoZIhvcNAQEFBQAD
ggEBAA1yFnavqxafRigWFhKgPK9vNcA3xw/L9Hx0nWoDse0E+ozE5m+EpPPVK1hC
7dnQ9bwtDumafBSI9c1UPY4CpReITv8j8vhr6sAL5m4qHLl4yvbBE7V+I54pxRBd
Dd8BdsbTg4aCq9HxXOpv4Otq47j3Dol/83uVR31T8y49EdA7FBy3iLKOk9QZ0NMR
XbNZR9wcK2XJ9XUj981xftR0szm2qS38iAn2ZgB91JT+K5GGIlNnAFEjrYYrFBq3
uU/4I4hmUeV53nMuDMmG4dyM66SobbhWqs5kpW+pZAF9dGOBDIM6v8Py2/CHw4l7
5VwoaEhuJatZ0gqHXAJhpmQOvcs=
-----END CERTIFICATE-----
