Certificate:
    Data:
        Version: 3 (0x2)
        Serial Number: 11042563100208 (0xa0b0c0d0e30)
    Signature Algorithm: sha1WithRSAEncryption
        Issuer: CN=OCSP_CATWO, ST=KA, C=IN/emailAddress=ocspcatwo@ocsptesting.com, O=CITRIX
        Validity
            Not Before: Jun 28 00:50:11 2016 GMT
            Not After : Jun 26 00:50:11 2026 GMT
        Subject: ST=KA, C=IN, CN=020_server/emailAddress=020@test_ca.com, O=CITRIX
        Subject Public Key Info:
            Public Key Algorithm: rsaEncryption
                Public-Key: (2048 bit)
                Modulus:
                    00:cd:d8:b6:93:a3:46:23:d4:4b:8f:ec:ed:12:56:
                    8f:d7:86:e3:5f:86:43:56:47:83:1d:76:4e:03:27:
                    fe:e0:a0:d9:50:7a:f8:de:9e:c2:e9:9f:00:90:e2:
                    3b:3b:f4:a0:30:76:34:c3:ad:30:10:75:34:53:6e:
                    0d:b2:c2:93:67:9d:5f:46:3f:c3:2d:02:e1:8a:82:
                    df:c8:b6:ea:ef:fc:60:bd:2d:c8:e0:c1:db:41:77:
                    be:43:04:5e:bf:c2:d9:d5:28:44:89:b0:11:ae:53:
                    76:33:89:4a:35:51:ca:df:c5:a8:77:25:f2:aa:39:
                    53:21:55:18:fe:e8:a6:22:f0:fb:1b:b8:a0:81:6f:
                    60:77:42:0c:31:85:e1:18:eb:e9:10:be:76:3b:6b:
                    f1:64:0c:8a:05:a5:52:b0:cf:0d:9f:07:5a:a4:62:
                    d6:88:7e:8e:3b:83:79:2f:f2:16:d0:f1:80:a9:38:
                    af:62:1b:9d:e1:87:a9:fc:27:a6:1c:a1:60:a7:aa:
                    ca:41:fd:10:fd:cc:41:ec:80:3c:b6:49:a2:54:64:
                    df:af:20:a8:1d:e6:c3:10:69:ea:4c:3a:c4:f9:69:
                    18:fa:f8:7c:44:40:0a:1c:17:82:d5:4a:e9:07:8d:
                    d2:34:c5:5e:95:75:4d:9e:d7:49:0d:90:70:ed:1b:
                    67:1b
                Exponent: 65537 (0x10001)
        X509v3 extensions:
            Netscape Cert Type: 
                SSL Server
            X509v3 Subject Key Identifier: 
                7F:8F:CB:03:0C:DC:34:00:36:69:16:E4:3D:B9:3E:C0:B8:6C:C9:98
            X509v3 Authority Key Identifier: 
                keyid:02:88:18:65:DF:25:91:21:D4:0A:68:78:D6:38:A0:5F:8F:17:1E:D3
                DirName:/CN=OCSP_CATWO/ST=KA/C=IN/emailAddress=ocspcatwo@ocsptesting.com/O=CITRIX
                serial:95:45:0F:EB:FA:5E:01:F6

            Authority Information Access: 
                OCSP - URI:http://172.18.10.21/responderpath

    Signature Algorithm: sha1WithRSAEncryption
         04:9a:16:f4:ff:ff:80:c7:ad:55:3f:e9:91:51:0b:07:02:42:
         ae:ce:c5:83:3d:b8:b3:3c:f4:75:27:0b:01:08:23:ca:52:2d:
         22:db:ac:80:d1:49:00:10:03:a7:04:2c:b7:31:8c:7b:96:fb:
         68:17:01:99:9a:fd:b2:91:4c:12:f7:93:41:67:70:46:92:c9:
         11:19:fc:ac:95:0f:2b:5c:e3:d7:d3:9f:c5:52:c6:50:9d:63:
         37:9b:f8:bf:97:1f:aa:1e:b9:4b:a8:cd:1a:fa:0d:f5:9b:67:
         9a:fc:77:0c:93:85:70:b1:e8:75:bf:4c:1e:39:7d:53:fe:fa:
         a1:6d:21:57:59:dc:ca:a1:fe:fc:0a:ac:40:5c:b5:fb:f9:ad:
         63:0a:f0:74:5e:dd:84:fd:d5:fe:01:99:03:49:6d:61:b1:92:
         e3:9d:97:d7:3e:b6:21:01:99:5e:ef:f5:9e:8f:28:dd:1b:8f:
         46:68:ac:9e:43:90:8f:2c:49:18:26:80:a7:05:f4:d3:41:0e:
         16:33:ee:f1:bb:6d:b8:76:d2:19:81:fd:a2:9e:9c:2d:e9:ea:
         e0:c4:0a:15:1f:51:b3:b0:2e:61:cc:ad:39:9d:a7:96:53:9d:
         af:ce:a4:77:b1:57:86:85:7d:cb:f5:44:a0:67:31:58:dd:35:
         2b:a6:b9:9d
-----BEGIN CERTIFICATE-----
MIIEYDCCA0igAwIBAgIGCgsMDQ4wMA0GCSqGSIb3DQEBBQUAMGoxEzARBgNVBAMU
Ck9DU1BfQ0FUV08xCzAJBgNVBAgTAktBMQswCQYDVQQGEwJJTjEoMCYGCSqGSIb3
DQEJARYZb2NzcGNhdHdvQG9jc3B0ZXN0aW5nLmNvbTEPMA0GA1UEChMGQ0lUUklY
MB4XDTE2MDYyODAwNTAxMVoXDTI2MDYyNjAwNTAxMVowYDELMAkGA1UECBMCS0Ex
CzAJBgNVBAYTAklOMRMwEQYDVQQDFAowMjBfc2VydmVyMR4wHAYJKoZIhvcNAQkB
Fg8wMjBAdGVzdF9jYS5jb20xDzANBgNVBAoTBkNJVFJJWDCCASIwDQYJKoZIhvcN
AQEBBQADggEPADCCAQoCggEBAM3YtpOjRiPUS4/s7RJWj9eG41+GQ1ZHgx12TgMn
/uCg2VB6+N6ewumfAJDiOzv0oDB2NMOtMBB1NFNuDbLCk2edX0Y/wy0C4YqC38i2
6u/8YL0tyODB20F3vkMEXr/C2dUoRImwEa5TdjOJSjVRyt/FqHcl8qo5UyFVGP7o
piLw+xu4oIFvYHdCDDGF4Rjr6RC+djtr8WQMigWlUrDPDZ8HWqRi1oh+jjuDeS/y
FtDxgKk4r2IbneGHqfwnphyhYKeqykH9EP3MQeyAPLZJolRk368gqB3mwxBp6kw6
xPlpGPr4fERAChwXgtVK6QeN0jTFXpV1TZ7XSQ2QcO0bZxsCAwEAAaOCARQwggEQ
MBEGCWCGSAGG+EIBAQQEAwIGQDAdBgNVHQ4EFgQUf4/LAwzcNAA2aRbkPbk+wLhs
yZgwgZwGA1UdIwSBlDCBkYAUAogYZd8lkSHUCmh41jigX48XHtOhbqRsMGoxEzAR
BgNVBAMUCk9DU1BfQ0FUV08xCzAJBgNVBAgTAktBMQswCQYDVQQGEwJJTjEoMCYG
CSqGSIb3DQEJARYZb2NzcGNhdHdvQG9jc3B0ZXN0aW5nLmNvbTEPMA0GA1UEChMG
Q0lUUklYggkAlUUP6/peAfYwPQYIKwYBBQUHAQEEMTAvMC0GCCsGAQUFBzABhiFo
dHRwOi8vMTcyLjE4LjEwLjIxL3Jlc3BvbmRlcnBhdGgwDQYJKoZIhvcNAQEFBQAD
ggEBAASaFvT//4DHrVU/6ZFRCwcCQq7OxYM9uLM89HUnCwEII8pSLSLbrIDRSQAQ
A6cELLcxjHuW+2gXAZma/bKRTBL3k0FncEaSyREZ/KyVDytc49fTn8VSxlCdYzeb
+L+XH6oeuUuozRr6DfWbZ5r8dwyThXCx6HW/TB45fVP++qFtIVdZ3Mqh/vwKrEBc
tfv5rWMK8HRe3YT91f4BmQNJbWGxkuOdl9c+tiEBmV7v9Z6PKN0bj0ZorJ5DkI8s
SRgmgKcF9NNBDhYz7vG7bbh20hmB/aKenC3p6uDEChUfUbOwLmHMrTmdp5ZTna/O
pHexV4aFfcv1RKBnMVjdNSumuZ0=
-----END CERTIFICATE-----
