Certificate:
    Data:
        Version: 3 (0x2)
        Serial Number: 11042563100195 (0xa0b0c0d0e23)
    Signature Algorithm: sha1WithRSAEncryption
        Issuer: CN=OCSP_CATWO, ST=KA, C=IN/emailAddress=ocspcatwo@ocsptesting.com, O=CITRIX
        Validity
            Not Before: Jun 28 00:49:40 2016 GMT
            Not After : Jun 26 00:49:40 2026 GMT
        Subject: ST=KA, C=IN, CN=007_server/emailAddress=007@test_ca.com, O=CITRIX
        Subject Public Key Info:
            Public Key Algorithm: rsaEncryption
                Public-Key: (2048 bit)
                Modulus:
                    00:c0:0c:d4:ff:52:e8:4f:01:2e:a7:11:3e:c3:83:
                    79:db:f1:60:80:df:04:b2:0b:aa:9e:55:ab:a0:66:
                    9c:da:e0:05:c8:f1:18:81:39:ad:78:b1:6d:97:d9:
                    84:28:94:3a:75:9d:53:43:67:03:bf:83:22:5f:dc:
                    4d:96:8e:9b:b5:69:e2:01:98:f0:1d:94:bf:ff:46:
                    f4:53:be:6f:00:8f:ff:f9:9d:8b:ab:77:35:5b:8f:
                    35:24:4a:8a:9d:8a:b4:5b:72:b7:ca:ab:18:1d:91:
                    01:b9:61:38:53:ce:0f:24:7b:3e:04:55:6b:96:58:
                    af:00:2c:12:65:98:c1:2c:a6:50:f6:8c:80:ca:61:
                    46:ae:15:c8:7b:d1:c0:7b:58:85:04:53:8d:26:03:
                    39:d2:cf:7e:10:77:0e:4e:6b:0e:79:b4:01:6f:98:
                    0d:d7:d9:6b:61:21:e9:eb:ae:fa:3b:1c:72:41:3b:
                    47:32:64:63:0e:f1:6b:ce:a5:24:6d:43:6b:91:2c:
                    d6:da:e2:6f:63:c2:af:be:5d:7f:10:c7:c4:9d:d3:
                    7f:e7:7c:00:89:d4:c4:d7:df:22:b3:0c:32:82:5c:
                    f3:04:18:fe:9c:47:77:fb:d3:f2:db:cc:6c:9e:80:
                    aa:7c:03:90:cc:64:c9:1d:25:bd:43:21:73:3d:60:
                    f9:dd
                Exponent: 65537 (0x10001)
        X509v3 extensions:
            Netscape Cert Type: 
                SSL Server
            X509v3 Subject Key Identifier: 
                D9:0C:25:EE:76:91:78:34:30:04:DF:CD:CF:1E:9F:44:24:4B:E5:8B
            X509v3 Authority Key Identifier: 
                keyid:02:88:18:65:DF:25:91:21:D4:0A:68:78:D6:38:A0:5F:8F:17:1E:D3
                DirName:/CN=OCSP_CATWO/ST=KA/C=IN/emailAddress=ocspcatwo@ocsptesting.com/O=CITRIX
                serial:95:45:0F:EB:FA:5E:01:F6

            Authority Information Access: 
                OCSP - URI:http://172.18.10.21/responderpath

    Signature Algorithm: sha1WithRSAEncryption
         27:f9:c5:58:14:a3:c8:3a:71:df:a5:3f:53:92:f9:d8:8a:81:
         30:8f:be:24:5c:96:9a:69:e1:9c:0a:9b:05:04:21:21:59:31:
         f2:94:ff:08:2b:f5:8b:9a:3a:90:c1:55:d2:c7:c6:90:13:f4:
         57:5c:57:c4:5a:71:09:3c:df:1b:7a:c2:3f:6c:86:19:0a:bc:
         ea:5c:fb:a0:30:82:76:44:d6:dc:5a:b1:fd:fd:58:b7:10:59:
         d6:34:45:a8:9a:42:16:3e:d1:bc:26:23:5c:fe:e7:c4:10:7f:
         7f:ac:69:f7:a6:c0:2e:1e:64:9a:d8:23:ac:50:e8:17:7f:b4:
         f6:60:eb:07:1d:94:d3:f8:23:d2:0b:bc:de:c7:fb:19:50:c4:
         c7:3f:63:37:f9:86:d4:df:45:78:77:c9:0f:91:5c:c0:40:35:
         39:08:da:8b:d0:1c:37:b0:a3:14:bf:af:16:f9:68:37:39:fc:
         11:cf:57:c8:1e:e3:8d:cd:76:5e:22:30:e9:62:66:d5:0b:1b:
         aa:b1:6c:de:f9:f4:4d:6b:19:83:cb:b7:a6:cc:b7:c8:ae:f4:
         c1:1f:e3:89:00:6c:9a:01:d9:bb:57:ec:d0:70:b0:34:0c:e8:
         28:e7:b2:b1:84:f0:ad:60:f6:84:43:f1:2e:f6:81:78:52:60:
         2d:5a:3e:32
-----BEGIN CERTIFICATE-----
MIIEYDCCA0igAwIBAgIGCgsMDQ4jMA0GCSqGSIb3DQEBBQUAMGoxEzARBgNVBAMU
Ck9DU1BfQ0FUV08xCzAJBgNVBAgTAktBMQswCQYDVQQGEwJJTjEoMCYGCSqGSIb3
DQEJARYZb2NzcGNhdHdvQG9jc3B0ZXN0aW5nLmNvbTEPMA0GA1UEChMGQ0lUUklY
MB4XDTE2MDYyODAwNDk0MFoXDTI2MDYyNjAwNDk0MFowYDELMAkGA1UECBMCS0Ex
CzAJBgNVBAYTAklOMRMwEQYDVQQDFAowMDdfc2VydmVyMR4wHAYJKoZIhvcNAQkB
Fg8wMDdAdGVzdF9jYS5jb20xDzANBgNVBAoTBkNJVFJJWDCCASIwDQYJKoZIhvcN
AQEBBQADggEPADCCAQoCggEBAMAM1P9S6E8BLqcRPsODedvxYIDfBLILqp5Vq6Bm
nNrgBcjxGIE5rXixbZfZhCiUOnWdU0NnA7+DIl/cTZaOm7Vp4gGY8B2Uv/9G9FO+
bwCP//mdi6t3NVuPNSRKip2KtFtyt8qrGB2RAblhOFPODyR7PgRVa5ZYrwAsEmWY
wSymUPaMgMphRq4VyHvRwHtYhQRTjSYDOdLPfhB3Dk5rDnm0AW+YDdfZa2Eh6euu
+jscckE7RzJkYw7xa86lJG1Da5Es1trib2PCr75dfxDHxJ3Tf+d8AInUxNffIrMM
MoJc8wQY/pxHd/vT8tvMbJ6AqnwDkMxkyR0lvUMhcz1g+d0CAwEAAaOCARQwggEQ
MBEGCWCGSAGG+EIBAQQEAwIGQDAdBgNVHQ4EFgQU2Qwl7naReDQwBN/Nzx6fRCRL
5YswgZwGA1UdIwSBlDCBkYAUAogYZd8lkSHUCmh41jigX48XHtOhbqRsMGoxEzAR
BgNVBAMUCk9DU1BfQ0FUV08xCzAJBgNVBAgTAktBMQswCQYDVQQGEwJJTjEoMCYG
CSqGSIb3DQEJARYZb2NzcGNhdHdvQG9jc3B0ZXN0aW5nLmNvbTEPMA0GA1UEChMG
Q0lUUklYggkAlUUP6/peAfYwPQYIKwYBBQUHAQEEMTAvMC0GCCsGAQUFBzABhiFo
dHRwOi8vMTcyLjE4LjEwLjIxL3Jlc3BvbmRlcnBhdGgwDQYJKoZIhvcNAQEFBQAD
ggEBACf5xVgUo8g6cd+lP1OS+diKgTCPviRclppp4ZwKmwUEISFZMfKU/wgr9Yua
OpDBVdLHxpAT9FdcV8RacQk83xt6wj9shhkKvOpc+6AwgnZE1txasf39WLcQWdY0
RaiaQhY+0bwmI1z+58QQf3+safemwC4eZJrYI6xQ6Bd/tPZg6wcdlNP4I9ILvN7H
+xlQxMc/Yzf5htTfRXh3yQ+RXMBANTkI2ovQHDewoxS/rxb5aDc5/BHPV8ge443N
dl4iMOliZtULG6qxbN759E1rGYPLt6bMt8iu9MEf44kAbJoB2btX7NBwsDQM6Cjn
srGE8K1g9oRD8S72gXhSYC1aPjI=
-----END CERTIFICATE-----
