Certificate:
    Data:
        Version: 3 (0x2)
        Serial Number: 11042563100206 (0xa0b0c0d0e2e)
    Signature Algorithm: sha1WithRSAEncryption
        Issuer: CN=OCSP_CATWO, ST=KA, C=IN/emailAddress=ocspcatwo@ocsptesting.com, O=CITRIX
        Validity
            Not Before: Jun 28 00:50:06 2016 GMT
            Not After : Jun 26 00:50:06 2026 GMT
        Subject: ST=KA, C=IN, CN=018_server/emailAddress=018@test_ca.com, O=CITRIX
        Subject Public Key Info:
            Public Key Algorithm: rsaEncryption
                Public-Key: (2048 bit)
                Modulus:
                    00:9a:d8:5c:b4:ca:2e:dc:e0:2b:6a:d4:97:6d:61:
                    6a:c6:77:e4:ea:be:2b:65:82:eb:41:99:e4:7e:13:
                    15:b8:aa:06:f2:c9:29:ee:38:ee:fa:30:c4:10:7d:
                    25:5d:31:7e:19:ff:aa:e1:50:dd:ec:cc:f2:38:41:
                    9b:11:fb:7e:31:58:7b:bb:76:c0:45:ef:b4:8f:80:
                    d7:cf:74:c7:1c:5a:73:86:e2:e0:03:d0:84:3d:60:
                    fc:32:14:ba:4e:35:94:8d:98:d9:29:a6:f2:e3:5f:
                    da:40:d5:34:56:11:9e:1b:7f:3b:38:65:af:d4:35:
                    04:e8:76:24:a0:10:15:db:ee:11:37:d0:36:34:0e:
                    e1:3c:dd:8d:47:43:6a:0a:fd:50:46:0a:7f:1b:3a:
                    b2:9e:b3:2d:7b:d5:13:65:26:31:29:75:cd:b8:2f:
                    f8:e2:32:1c:3d:6f:c6:51:36:1f:fb:b4:b2:89:b5:
                    26:3d:51:75:7f:16:b9:8c:24:16:be:aa:e3:ad:82:
                    f0:b9:f6:8c:3a:02:d9:29:bd:4d:5a:72:f2:9d:9c:
                    a6:96:06:8a:f6:df:7d:19:8c:2b:c5:1d:e3:0d:4c:
                    99:0f:cc:fb:e4:13:33:17:94:02:d7:08:4a:e5:76:
                    5d:8b:30:e1:ac:30:5b:c0:e2:6a:33:1e:91:97:43:
                    81:ab
                Exponent: 65537 (0x10001)
        X509v3 extensions:
            Netscape Cert Type: 
                SSL Server
            X509v3 Subject Key Identifier: 
                D3:90:2E:8E:61:AC:26:BA:77:8F:6F:B3:B1:39:6A:A5:A6:55:1E:6B
            X509v3 Authority Key Identifier: 
                keyid:02:88:18:65:DF:25:91:21:D4:0A:68:78:D6:38:A0:5F:8F:17:1E:D3
                DirName:/CN=OCSP_CATWO/ST=KA/C=IN/emailAddress=ocspcatwo@ocsptesting.com/O=CITRIX
                serial:95:45:0F:EB:FA:5E:01:F6

            Authority Information Access: 
                OCSP - URI:http://172.18.10.21/responderpath

    Signature Algorithm: sha1WithRSAEncryption
         98:c9:6e:1c:52:67:b5:cf:94:fc:42:5a:7e:44:6a:4b:7d:b5:
         d6:1c:44:40:67:fd:f6:3e:3c:3e:38:82:c0:77:20:c0:ba:21:
         10:f6:5a:a6:50:22:35:1e:f6:63:68:20:9a:62:3f:82:1f:e5:
         75:06:a5:d1:30:1f:ae:c5:88:57:96:e2:76:89:de:8b:9f:17:
         2f:21:3b:df:1c:48:54:25:ff:41:82:1f:1a:46:e9:f0:fc:97:
         8e:dc:3f:23:02:79:31:36:14:db:5e:cf:fe:2c:f2:52:f0:91:
         0f:45:0d:05:12:04:93:4d:4d:7d:f2:54:ab:9d:12:66:fb:47:
         66:2f:bf:9b:c8:31:c1:e9:50:2c:9f:e8:27:99:42:83:aa:12:
         9f:29:88:da:d0:9a:2e:79:fa:ef:12:a2:c4:0c:9f:df:a4:ba:
         71:ee:ec:1b:f1:62:ee:32:80:24:40:10:24:bb:85:36:bb:39:
         47:69:08:31:87:6e:2d:ea:67:69:db:eb:6f:45:26:5c:33:8a:
         ca:7d:09:12:c8:68:ab:bd:83:97:8c:25:4b:d1:68:3a:75:6f:
         7a:d4:27:ff:62:95:c2:f5:e5:d7:05:21:79:74:e6:be:e6:51:
         0f:c6:36:71:b8:a4:05:67:bf:43:4b:06:b1:1a:33:ee:90:7f:
         c9:9b:e5:82
-----BEGIN CERTIFICATE-----
MIIEYDCCA0igAwIBAgIGCgsMDQ4uMA0GCSqGSIb3DQEBBQUAMGoxEzARBgNVBAMU
Ck9DU1BfQ0FUV08xCzAJBgNVBAgTAktBMQswCQYDVQQGEwJJTjEoMCYGCSqGSIb3
DQEJARYZb2NzcGNhdHdvQG9jc3B0ZXN0aW5nLmNvbTEPMA0GA1UEChMGQ0lUUklY
MB4XDTE2MDYyODAwNTAwNloXDTI2MDYyNjAwNTAwNlowYDELMAkGA1UECBMCS0Ex
CzAJBgNVBAYTAklOMRMwEQYDVQQDFAowMThfc2VydmVyMR4wHAYJKoZIhvcNAQkB
Fg8wMThAdGVzdF9jYS5jb20xDzANBgNVBAoTBkNJVFJJWDCCASIwDQYJKoZIhvcN
AQEBBQADggEPADCCAQoCggEBAJrYXLTKLtzgK2rUl21hasZ35Oq+K2WC60GZ5H4T
FbiqBvLJKe447vowxBB9JV0xfhn/quFQ3ezM8jhBmxH7fjFYe7t2wEXvtI+A1890
xxxac4bi4APQhD1g/DIUuk41lI2Y2Smm8uNf2kDVNFYRnht/Ozhlr9Q1BOh2JKAQ
FdvuETfQNjQO4TzdjUdDagr9UEYKfxs6sp6zLXvVE2UmMSl1zbgv+OIyHD1vxlE2
H/u0som1Jj1RdX8WuYwkFr6q462C8Ln2jDoC2Sm9TVpy8p2cppYGivbffRmMK8Ud
4w1MmQ/M++QTMxeUAtcISuV2XYsw4awwW8DiajMekZdDgasCAwEAAaOCARQwggEQ
MBEGCWCGSAGG+EIBAQQEAwIGQDAdBgNVHQ4EFgQU05AujmGsJrp3j2+zsTlqpaZV
HmswgZwGA1UdIwSBlDCBkYAUAogYZd8lkSHUCmh41jigX48XHtOhbqRsMGoxEzAR
BgNVBAMUCk9DU1BfQ0FUV08xCzAJBgNVBAgTAktBMQswCQYDVQQGEwJJTjEoMCYG
CSqGSIb3DQEJARYZb2NzcGNhdHdvQG9jc3B0ZXN0aW5nLmNvbTEPMA0GA1UEChMG
Q0lUUklYggkAlUUP6/peAfYwPQYIKwYBBQUHAQEEMTAvMC0GCCsGAQUFBzABhiFo
dHRwOi8vMTcyLjE4LjEwLjIxL3Jlc3BvbmRlcnBhdGgwDQYJKoZIhvcNAQEFBQAD
ggEBAJjJbhxSZ7XPlPxCWn5Eakt9tdYcREBn/fY+PD44gsB3IMC6IRD2WqZQIjUe
9mNoIJpiP4If5XUGpdEwH67FiFeW4naJ3oufFy8hO98cSFQl/0GCHxpG6fD8l47c
PyMCeTE2FNtez/4s8lLwkQ9FDQUSBJNNTX3yVKudEmb7R2Yvv5vIMcHpUCyf6CeZ
QoOqEp8piNrQmi55+u8SosQMn9+kunHu7BvxYu4ygCRAECS7hTa7OUdpCDGHbi3q
Z2nb629FJlwzisp9CRLIaKu9g5eMJUvRaDp1b3rUJ/9ilcL15dcFIXl05r7mUQ/G
NnG4pAVnv0NLBrEaM+6Qf8mb5YI=
-----END CERTIFICATE-----
