Certificate:
    Data:
        Version: 3 (0x2)
        Serial Number: 11042563100194 (0xa0b0c0d0e22)
    Signature Algorithm: sha1WithRSAEncryption
        Issuer: CN=OCSP_CATWO, ST=KA, C=IN/emailAddress=ocspcatwo@ocsptesting.com, O=CITRIX
        Validity
            Not Before: Jun 28 00:49:37 2016 GMT
            Not After : Jun 26 00:49:37 2026 GMT
        Subject: ST=KA, C=IN, CN=006_server/emailAddress=006@test_ca.com, O=CITRIX
        Subject Public Key Info:
            Public Key Algorithm: rsaEncryption
                Public-Key: (2048 bit)
                Modulus:
                    00:b1:c7:e1:10:99:a8:b3:ae:e4:77:8e:45:06:63:
                    71:0c:f8:46:ee:a0:eb:1a:59:2e:51:d3:e4:01:2c:
                    dd:e0:ae:b3:ac:fa:94:00:7c:58:19:98:01:72:1e:
                    6b:73:a0:20:ac:0b:9c:34:01:66:18:08:41:ab:6d:
                    a1:84:f3:90:25:ac:1b:df:42:6c:e0:9f:33:c8:d1:
                    c8:d1:98:ca:20:21:42:83:de:c5:09:fa:0f:f9:13:
                    b3:f0:5d:9a:a6:8d:6e:a2:3f:d5:6e:22:a8:23:58:
                    f4:da:78:27:e7:de:7d:71:75:77:b8:d7:33:59:e9:
                    c8:dc:87:6d:29:84:9c:be:1e:41:fb:8f:9d:70:3d:
                    61:a7:7a:7d:30:fe:cd:92:5d:02:04:58:00:5d:34:
                    bf:9d:ea:56:c1:33:df:d2:c0:85:ec:20:26:2b:e2:
                    fd:e4:ef:d7:58:2a:fa:d0:81:a8:87:10:e7:f1:10:
                    65:c9:d7:7a:8b:7f:18:8c:34:1e:45:d3:43:07:91:
                    a9:97:e4:bf:cd:2c:b9:30:7a:1a:12:28:4a:a4:43:
                    12:80:5d:4c:c2:ec:f9:03:34:c5:01:92:e8:6e:95:
                    9e:1f:6a:3c:4b:e5:73:f9:31:34:03:69:ba:22:59:
                    07:b4:e7:a5:96:12:00:7e:b0:83:5d:6e:b4:2f:72:
                    c1:5f
                Exponent: 65537 (0x10001)
        X509v3 extensions:
            Netscape Cert Type: 
                SSL Server
            X509v3 Subject Key Identifier: 
                55:49:16:BB:AD:7C:06:D4:98:63:DC:25:50:86:8A:A9:76:AB:86:B5
            X509v3 Authority Key Identifier: 
                keyid:02:88:18:65:DF:25:91:21:D4:0A:68:78:D6:38:A0:5F:8F:17:1E:D3
                DirName:/CN=OCSP_CATWO/ST=KA/C=IN/emailAddress=ocspcatwo@ocsptesting.com/O=CITRIX
                serial:95:45:0F:EB:FA:5E:01:F6

            Authority Information Access: 
                OCSP - URI:http://172.18.10.21/responderpath

    Signature Algorithm: sha1WithRSAEncryption
         7f:60:af:73:26:88:96:a5:69:48:24:ec:a4:00:6a:7a:98:4a:
         47:64:32:32:0d:93:d6:4a:ab:e3:64:83:a6:61:12:45:82:b9:
         14:74:7d:50:58:13:b7:83:fe:56:f6:72:21:3e:4f:51:44:ef:
         48:ec:6d:24:73:5f:39:ec:6a:14:ac:c0:d7:e4:43:bb:3d:7e:
         e7:f5:2f:25:e3:9e:b9:fb:0c:c6:5c:d1:bf:93:5c:ef:d0:05:
         23:94:db:24:9c:52:a5:1e:c1:ee:32:26:db:2c:67:bd:37:73:
         85:c1:77:28:c2:7a:ac:1e:0e:2f:24:13:ec:ad:97:ce:93:4b:
         04:71:70:5b:70:4d:0e:4d:0f:42:d8:04:54:49:c5:c4:57:46:
         31:9c:fe:b4:bb:cd:9c:e7:ab:8b:bb:4a:e5:8a:23:d1:03:9d:
         a4:b7:3c:aa:95:85:03:a0:77:08:a1:c9:dc:86:c9:09:52:2e:
         7e:d3:be:7f:3d:86:6c:2b:09:ab:bb:e3:32:d3:1a:91:d7:ff:
         74:20:47:99:64:77:5f:7e:c8:dd:f0:2d:1a:f6:53:22:40:28:
         53:26:77:85:e3:2b:8a:58:d3:fd:70:ad:44:36:c3:95:7c:49:
         9e:ac:7c:e7:fd:cc:7e:94:21:34:60:97:7c:22:9f:5e:65:a7:
         ca:01:ea:22
-----BEGIN CERTIFICATE-----
MIIEYDCCA0igAwIBAgIGCgsMDQ4iMA0GCSqGSIb3DQEBBQUAMGoxEzARBgNVBAMU
Ck9DU1BfQ0FUV08xCzAJBgNVBAgTAktBMQswCQYDVQQGEwJJTjEoMCYGCSqGSIb3
DQEJARYZb2NzcGNhdHdvQG9jc3B0ZXN0aW5nLmNvbTEPMA0GA1UEChMGQ0lUUklY
MB4XDTE2MDYyODAwNDkzN1oXDTI2MDYyNjAwNDkzN1owYDELMAkGA1UECBMCS0Ex
CzAJBgNVBAYTAklOMRMwEQYDVQQDFAowMDZfc2VydmVyMR4wHAYJKoZIhvcNAQkB
Fg8wMDZAdGVzdF9jYS5jb20xDzANBgNVBAoTBkNJVFJJWDCCASIwDQYJKoZIhvcN
AQEBBQADggEPADCCAQoCggEBALHH4RCZqLOu5HeORQZjcQz4Ru6g6xpZLlHT5AEs
3eCus6z6lAB8WBmYAXIea3OgIKwLnDQBZhgIQattoYTzkCWsG99CbOCfM8jRyNGY
yiAhQoPexQn6D/kTs/BdmqaNbqI/1W4iqCNY9Np4J+fefXF1d7jXM1npyNyHbSmE
nL4eQfuPnXA9Yad6fTD+zZJdAgRYAF00v53qVsEz39LAhewgJivi/eTv11gq+tCB
qIcQ5/EQZcnXeot/GIw0HkXTQweRqZfkv80suTB6GhIoSqRDEoBdTMLs+QM0xQGS
6G6Vnh9qPEvlc/kxNANpuiJZB7TnpZYSAH6wg11utC9ywV8CAwEAAaOCARQwggEQ
MBEGCWCGSAGG+EIBAQQEAwIGQDAdBgNVHQ4EFgQUVUkWu618BtSYY9wlUIaKqXar
hrUwgZwGA1UdIwSBlDCBkYAUAogYZd8lkSHUCmh41jigX48XHtOhbqRsMGoxEzAR
BgNVBAMUCk9DU1BfQ0FUV08xCzAJBgNVBAgTAktBMQswCQYDVQQGEwJJTjEoMCYG
CSqGSIb3DQEJARYZb2NzcGNhdHdvQG9jc3B0ZXN0aW5nLmNvbTEPMA0GA1UEChMG
Q0lUUklYggkAlUUP6/peAfYwPQYIKwYBBQUHAQEEMTAvMC0GCCsGAQUFBzABhiFo
dHRwOi8vMTcyLjE4LjEwLjIxL3Jlc3BvbmRlcnBhdGgwDQYJKoZIhvcNAQEFBQAD
ggEBAH9gr3MmiJalaUgk7KQAanqYSkdkMjINk9ZKq+Nkg6ZhEkWCuRR0fVBYE7eD
/lb2ciE+T1FE70jsbSRzXznsahSswNfkQ7s9fuf1LyXjnrn7DMZc0b+TXO/QBSOU
2yScUqUewe4yJtssZ703c4XBdyjCeqweDi8kE+ytl86TSwRxcFtwTQ5ND0LYBFRJ
xcRXRjGc/rS7zZznq4u7SuWKI9EDnaS3PKqVhQOgdwihydyGyQlSLn7Tvn89hmwr
Cau74zLTGpHX/3QgR5lkd19+yN3wLRr2UyJAKFMmd4XjK4pY0/1wrUQ2w5V8SZ6s
fOf9zH6UITRgl3win15lp8oB6iI=
-----END CERTIFICATE-----
