Certificate:
    Data:
        Version: 3 (0x2)
        Serial Number: 11042563100225 (0xa0b0c0d0e41)
    Signature Algorithm: sha1WithRSAEncryption
        Issuer: CN=OCSP_CATWO, ST=KA, C=IN/emailAddress=ocspcatwo@ocsptesting.com, O=CITRIX
        Validity
            Not Before: Jun 28 00:57:50 2016 GMT
            Not After : Jun 26 00:57:50 2026 GMT
        Subject: ST=KA, C=IN, CN=ocspcatwo_037_server/emailAddress=ocspcatwo_037@test_ca.com, O=CITRIX
        Subject Public Key Info:
            Public Key Algorithm: rsaEncryption
                Public-Key: (2048 bit)
                Modulus:
                    00:e7:cf:8e:8f:9d:8b:40:be:58:04:53:93:bf:27:
                    fb:a7:9b:18:60:c0:e3:67:ee:29:88:d5:96:77:2e:
                    81:27:79:69:fa:9b:ef:30:7c:35:3b:45:16:b4:9b:
                    1c:02:52:d3:aa:1d:64:46:2e:c5:d3:f6:50:40:87:
                    5c:c3:bc:89:63:70:f4:9c:2d:2c:86:ee:e9:6b:12:
                    cd:94:db:58:c3:5f:1e:b3:d4:db:9c:83:cc:40:d1:
                    f3:4e:d7:85:04:26:53:01:4c:c7:5c:e0:31:cc:e5:
                    52:46:70:ae:00:5b:c9:1d:ac:4c:0e:2e:11:f8:91:
                    17:79:7e:81:0c:e1:46:eb:81:ad:c5:b6:3a:f0:fa:
                    6b:14:87:e0:90:46:8e:d9:8f:93:4b:10:2f:9a:ed:
                    c6:d6:8d:85:83:ee:ac:ec:e5:43:ca:0f:ed:14:af:
                    12:83:64:c7:88:3d:a1:3f:37:e8:30:94:cf:f6:c1:
                    53:09:58:75:18:c1:42:e8:25:8d:e6:00:d7:84:53:
                    62:2d:1f:43:a9:18:aa:e8:db:3c:b5:b6:5c:f0:cb:
                    74:72:90:f0:d6:34:50:a7:08:a6:fb:70:31:40:f8:
                    fc:76:a7:5e:2e:9c:47:82:c0:60:93:47:63:0e:3b:
                    71:a9:00:49:08:29:55:8f:9d:3e:76:47:a9:bd:a1:
                    cc:79
                Exponent: 65537 (0x10001)
        X509v3 extensions:
            Netscape Cert Type: 
                SSL Server
            X509v3 Subject Key Identifier: 
                44:35:3C:FB:FC:AE:BC:EF:AD:4B:47:0E:00:CB:FF:CD:CB:E2:D4:59
            X509v3 Authority Key Identifier: 
                keyid:02:88:18:65:DF:25:91:21:D4:0A:68:78:D6:38:A0:5F:8F:17:1E:D3
                DirName:/CN=OCSP_CATWO/ST=KA/C=IN/emailAddress=ocspcatwo@ocsptesting.com/O=CITRIX
                serial:95:45:0F:EB:FA:5E:01:F6

            Authority Information Access: 
                OCSP - URI:http://ashoke.ocsp_catwo.citrite.net/responderpath

    Signature Algorithm: sha1WithRSAEncryption
         51:e8:ba:ea:6d:4d:54:07:18:cb:14:1d:9e:4c:73:7c:70:9a:
         ce:54:78:a6:01:cd:15:34:37:7c:b3:8c:14:2c:6b:69:29:5d:
         f6:df:7c:f9:9a:17:aa:6e:36:92:a3:8b:35:29:e1:75:b5:3f:
         5a:c7:4d:ae:bf:33:fb:25:09:ea:36:2f:2a:0f:7b:27:c9:2c:
         76:0b:cd:f4:e6:f1:69:a2:ee:2d:14:9f:3f:f5:76:12:31:b7:
         83:74:b8:e2:88:b2:b8:d4:fe:13:a1:f3:15:e7:59:e0:0a:fc:
         d7:c6:2f:41:56:86:c8:89:06:66:b4:90:cd:23:eb:cb:ae:1f:
         27:51:1b:aa:4f:55:54:38:8c:0c:2f:54:54:e2:b4:2e:6a:de:
         d3:3e:dd:8e:9e:8c:d3:52:7c:15:ae:96:64:14:44:a0:8d:0e:
         93:6b:a6:c2:89:d1:14:bc:85:a8:d6:17:a1:b6:8a:38:07:6c:
         7b:8f:03:0c:9b:4b:f7:47:44:32:5c:b8:40:43:68:24:ea:95:
         92:c5:e7:90:de:fb:bb:31:39:67:92:ca:ce:8b:20:56:be:ec:
         2f:64:06:8e:9c:5c:a9:38:c9:b4:04:cc:36:af:e7:6c:2b:46:
         57:f5:65:c4:c7:7a:e5:2e:1e:cb:2f:25:c4:f6:07:97:f6:57:
         78:c8:d8:99
-----BEGIN CERTIFICATE-----
MIIEhTCCA22gAwIBAgIGCgsMDQ5BMA0GCSqGSIb3DQEBBQUAMGoxEzARBgNVBAMU
Ck9DU1BfQ0FUV08xCzAJBgNVBAgTAktBMQswCQYDVQQGEwJJTjEoMCYGCSqGSIb3
DQEJARYZb2NzcGNhdHdvQG9jc3B0ZXN0aW5nLmNvbTEPMA0GA1UEChMGQ0lUUklY
MB4XDTE2MDYyODAwNTc1MFoXDTI2MDYyNjAwNTc1MFowdDELMAkGA1UECBMCS0Ex
CzAJBgNVBAYTAklOMR0wGwYDVQQDFBRvY3NwY2F0d29fMDM3X3NlcnZlcjEoMCYG
CSqGSIb3DQEJARYZb2NzcGNhdHdvXzAzN0B0ZXN0X2NhLmNvbTEPMA0GA1UEChMG
Q0lUUklYMIIBIjANBgkqhkiG9w0BAQEFAAOCAQ8AMIIBCgKCAQEA58+Oj52LQL5Y
BFOTvyf7p5sYYMDjZ+4piNWWdy6BJ3lp+pvvMHw1O0UWtJscAlLTqh1kRi7F0/ZQ
QIdcw7yJY3D0nC0shu7paxLNlNtYw18es9TbnIPMQNHzTteFBCZTAUzHXOAxzOVS
RnCuAFvJHaxMDi4R+JEXeX6BDOFG64GtxbY68PprFIfgkEaO2Y+TSxAvmu3G1o2F
g+6s7OVDyg/tFK8Sg2THiD2hPzfoMJTP9sFTCVh1GMFC6CWN5gDXhFNiLR9DqRiq
6Ns8tbZc8Mt0cpDw1jRQpwim+3AxQPj8dqdeLpxHgsBgk0djDjtxqQBJCClVj50+
dkepvaHMeQIDAQABo4IBJTCCASEwEQYJYIZIAYb4QgEBBAQDAgZAMB0GA1UdDgQW
BBRENTz7/K68761LRw4Ay//Ny+LUWTCBnAYDVR0jBIGUMIGRgBQCiBhl3yWRIdQK
aHjWOKBfjxce06FupGwwajETMBEGA1UEAxQKT0NTUF9DQVRXTzELMAkGA1UECBMC
S0ExCzAJBgNVBAYTAklOMSgwJgYJKoZIhvcNAQkBFhlvY3NwY2F0d29Ab2NzcHRl
c3RpbmcuY29tMQ8wDQYDVQQKEwZDSVRSSViCCQCVRQ/r+l4B9jBOBggrBgEFBQcB
AQRCMEAwPgYIKwYBBQUHMAGGMmh0dHA6Ly9hc2hva2Uub2NzcF9jYXR3by5jaXRy
aXRlLm5ldC9yZXNwb25kZXJwYXRoMA0GCSqGSIb3DQEBBQUAA4IBAQBR6LrqbU1U
BxjLFB2eTHN8cJrOVHimAc0VNDd8s4wULGtpKV3233z5mheqbjaSo4s1KeF1tT9a
x02uvzP7JQnqNi8qD3snySx2C8305vFpou4tFJ8/9XYSMbeDdLjiiLK41P4TofMV
51ngCvzXxi9BVobIiQZmtJDNI+vLrh8nURuqT1VUOIwML1RU4rQuat7TPt2OnozT
UnwVrpZkFESgjQ6Ta6bCidEUvIWo1hehtoo4B2x7jwMMm0v3R0QyXLhAQ2gk6pWS
xeeQ3vu7MTlnksrOiyBWvuwvZAaOnFypOMm0BMw2r+dsK0ZX9WXEx3rlLh7LLyXE
9geX9ld4yNiZ
-----END CERTIFICATE-----
