Certificate:
    Data:
        Version: 3 (0x2)
        Serial Number: 11042563100200 (0xa0b0c0d0e28)
    Signature Algorithm: sha1WithRSAEncryption
        Issuer: CN=OCSP_CATWO, ST=KA, C=IN/emailAddress=ocspcatwo@ocsptesting.com, O=CITRIX
        Validity
            Not Before: Jun 28 00:49:52 2016 GMT
            Not After : Jun 26 00:49:52 2026 GMT
        Subject: ST=KA, C=IN, CN=012_server/emailAddress=012@test_ca.com, O=CITRIX
        Subject Public Key Info:
            Public Key Algorithm: rsaEncryption
                Public-Key: (2048 bit)
                Modulus:
                    00:c9:0f:83:c3:37:f2:a1:1b:44:41:e3:a4:dd:12:
                    25:83:24:1c:f8:ec:f1:02:0f:43:47:7d:72:0f:1b:
                    15:2f:f8:b5:70:c3:ac:7d:49:fc:d5:9b:9e:af:71:
                    27:e9:62:d2:92:cc:ba:9b:3a:9f:5f:c7:e8:da:33:
                    f8:f0:6f:d5:26:3d:e6:04:61:4e:de:eb:2d:0b:b2:
                    f9:21:e5:5a:d5:a7:8c:a5:0f:3d:65:33:46:69:38:
                    fb:5d:6d:27:fd:79:18:98:c3:21:c7:ea:8c:a7:1b:
                    80:2d:d9:f0:ba:d8:87:b5:26:53:b8:8b:ad:8c:1c:
                    4c:31:0e:08:31:47:80:a5:60:1f:cb:07:20:6f:29:
                    82:ba:b1:b5:3e:10:2f:a4:4c:42:c9:61:2e:6c:f3:
                    29:3f:9c:b6:15:8e:ff:2b:1a:98:40:cf:46:5e:62:
                    e2:b9:23:a9:f1:20:99:3e:6b:65:c6:ce:09:b4:1b:
                    7f:c0:1a:e8:5d:c9:62:e6:b4:2b:58:80:6c:1a:2f:
                    47:6e:81:7f:e6:07:7d:81:6b:5b:cf:0c:81:5c:eb:
                    89:35:e3:13:28:8b:b5:00:4a:a7:0f:d6:80:03:37:
                    98:2d:68:33:e5:15:e9:bf:52:24:5c:42:c5:52:a4:
                    f4:7a:a6:d5:ce:c1:59:8e:dd:ef:ac:38:6f:44:77:
                    3c:5b
                Exponent: 65537 (0x10001)
        X509v3 extensions:
            Netscape Cert Type: 
                SSL Server
            X509v3 Subject Key Identifier: 
                AB:02:89:7D:5A:0E:A2:31:F5:DD:A8:FF:62:05:D5:81:56:CE:5D:1F
            X509v3 Authority Key Identifier: 
                keyid:02:88:18:65:DF:25:91:21:D4:0A:68:78:D6:38:A0:5F:8F:17:1E:D3
                DirName:/CN=OCSP_CATWO/ST=KA/C=IN/emailAddress=ocspcatwo@ocsptesting.com/O=CITRIX
                serial:95:45:0F:EB:FA:5E:01:F6

            Authority Information Access: 
                OCSP - URI:http://172.18.10.21/responderpath

    Signature Algorithm: sha1WithRSAEncryption
         81:c6:7a:6f:3f:98:e0:cc:39:9a:1a:1e:94:17:5f:3b:76:87:
         c1:e6:b8:7b:bc:54:b9:4a:aa:75:e6:8f:92:ca:bf:de:2d:12:
         76:70:1e:c7:35:9d:b8:36:80:e5:6a:e7:26:db:32:62:32:70:
         a9:c6:ed:6e:60:e6:25:7a:b9:35:47:46:9f:a3:15:53:40:c0:
         cf:fc:7d:70:c9:19:ff:9b:ce:f1:d3:73:77:96:24:10:47:64:
         37:c8:ea:12:b6:a0:c4:8f:68:bf:b1:1f:77:19:13:4a:38:9e:
         7e:a7:26:21:7f:f4:82:52:44:cc:96:cd:2d:99:19:46:2e:6e:
         ff:d2:9c:41:6a:d6:23:8d:17:92:93:07:b9:8f:c6:5a:58:04:
         a0:c9:79:29:64:3c:72:97:86:39:d3:9d:b0:5f:ad:4e:56:e6:
         2b:2e:11:8f:a2:dd:09:87:22:25:c4:0e:8b:1f:40:cd:32:16:
         ec:07:4b:b4:89:fd:7c:82:fc:d9:98:42:c7:85:29:e0:8d:82:
         e2:2e:cf:79:48:15:7b:2b:3b:c7:b7:ed:84:aa:3c:67:b6:84:
         ad:7d:18:cd:9f:32:e3:bc:19:48:14:85:4d:01:97:4e:e5:cc:
         06:a8:bf:c0:6c:cd:dc:3f:51:f1:06:aa:f3:74:16:5f:7f:ec:
         b6:4b:3d:8a
-----BEGIN CERTIFICATE-----
MIIEYDCCA0igAwIBAgIGCgsMDQ4oMA0GCSqGSIb3DQEBBQUAMGoxEzARBgNVBAMU
Ck9DU1BfQ0FUV08xCzAJBgNVBAgTAktBMQswCQYDVQQGEwJJTjEoMCYGCSqGSIb3
DQEJARYZb2NzcGNhdHdvQG9jc3B0ZXN0aW5nLmNvbTEPMA0GA1UEChMGQ0lUUklY
MB4XDTE2MDYyODAwNDk1MloXDTI2MDYyNjAwNDk1MlowYDELMAkGA1UECBMCS0Ex
CzAJBgNVBAYTAklOMRMwEQYDVQQDFAowMTJfc2VydmVyMR4wHAYJKoZIhvcNAQkB
Fg8wMTJAdGVzdF9jYS5jb20xDzANBgNVBAoTBkNJVFJJWDCCASIwDQYJKoZIhvcN
AQEBBQADggEPADCCAQoCggEBAMkPg8M38qEbREHjpN0SJYMkHPjs8QIPQ0d9cg8b
FS/4tXDDrH1J/NWbnq9xJ+li0pLMups6n1/H6Noz+PBv1SY95gRhTt7rLQuy+SHl
WtWnjKUPPWUzRmk4+11tJ/15GJjDIcfqjKcbgC3Z8LrYh7UmU7iLrYwcTDEOCDFH
gKVgH8sHIG8pgrqxtT4QL6RMQslhLmzzKT+cthWO/ysamEDPRl5i4rkjqfEgmT5r
ZcbOCbQbf8Aa6F3JYua0K1iAbBovR26Bf+YHfYFrW88MgVzriTXjEyiLtQBKpw/W
gAM3mC1oM+UV6b9SJFxCxVKk9Hqm1c7BWY7d76w4b0R3PFsCAwEAAaOCARQwggEQ
MBEGCWCGSAGG+EIBAQQEAwIGQDAdBgNVHQ4EFgQUqwKJfVoOojH13aj/YgXVgVbO
XR8wgZwGA1UdIwSBlDCBkYAUAogYZd8lkSHUCmh41jigX48XHtOhbqRsMGoxEzAR
BgNVBAMUCk9DU1BfQ0FUV08xCzAJBgNVBAgTAktBMQswCQYDVQQGEwJJTjEoMCYG
CSqGSIb3DQEJARYZb2NzcGNhdHdvQG9jc3B0ZXN0aW5nLmNvbTEPMA0GA1UEChMG
Q0lUUklYggkAlUUP6/peAfYwPQYIKwYBBQUHAQEEMTAvMC0GCCsGAQUFBzABhiFo
dHRwOi8vMTcyLjE4LjEwLjIxL3Jlc3BvbmRlcnBhdGgwDQYJKoZIhvcNAQEFBQAD
ggEBAIHGem8/mODMOZoaHpQXXzt2h8HmuHu8VLlKqnXmj5LKv94tEnZwHsc1nbg2
gOVq5ybbMmIycKnG7W5g5iV6uTVHRp+jFVNAwM/8fXDJGf+bzvHTc3eWJBBHZDfI
6hK2oMSPaL+xH3cZE0o4nn6nJiF/9IJSRMyWzS2ZGUYubv/SnEFq1iONF5KTB7mP
xlpYBKDJeSlkPHKXhjnTnbBfrU5W5isuEY+i3QmHIiXEDosfQM0yFuwHS7SJ/XyC
/NmYQseFKeCNguIuz3lIFXsrO8e37YSqPGe2hK19GM2fMuO8GUgUhU0Bl07lzAao
v8Bszdw/UfEGqvN0Fl9/7LZLPYo=
-----END CERTIFICATE-----
