Certificate:
    Data:
        Version: 3 (0x2)
        Serial Number: 690161238269 (0xa0b0d0c0fd)
sha256WithRSAEncryption
        Issuer: ST=KA, C=IN, CN=SNICA2048_server/emailAddress=SNICA@test_ca.com, O=CITRIX
        Validity
            Not Before: Oct 16 04:17:03 2017 GMT
            Not After : Oct 14 04:17:03 2027 GMT
        Subject: ST=KA, C=IN, CN=altname/emailAddress=altname@test_ca.com, O=CITRIX
        Subject Public Key Info:
            Public Key Algorithm: rsaEncryption
                Public-Key: (2048 bit)
                Modulus:
                    00:b8:9e:55:b1:93:6d:53:0d:0c:ef:cc:32:96:93:
                    30:f4:e1:2f:91:b7:4d:96:12:86:30:03:08:b0:21:
                    0f:7c:e6:68:27:17:7f:07:69:ce:23:73:d4:e8:e6:
                    71:d2:7b:64:c0:4b:fa:8e:07:28:71:19:48:72:2f:
                    71:b6:5f:c7:c2:ef:22:56:ca:5d:73:71:63:d8:e5:
                    9d:22:cd:d5:a8:c9:72:45:8b:a4:c9:5b:96:21:7a:
                    f1:b1:b3:c9:b8:80:e7:95:74:f3:58:a0:70:f8:75:
                    82:51:fe:b7:47:96:9f:b9:85:24:b4:02:3e:63:ec:
                    0c:61:33:af:b4:3a:c0:c7:32:22:f5:94:ad:6f:39:
                    8b:20:68:26:8f:ff:df:41:12:35:e1:9d:85:a3:8c:
                    ec:89:7a:d5:d5:be:e4:87:42:b0:7b:f4:e9:ba:64:
                    7a:29:ac:42:cc:f3:26:5c:ca:06:a2:be:f8:37:eb:
                    da:f9:90:2f:cb:69:ee:f3:1a:55:03:a4:77:ec:27:
                    b0:b9:5e:01:1c:99:c1:c3:5c:25:60:9a:03:d4:43:
                    3c:ed:ef:96:82:a0:70:ac:d7:19:4a:e8:9b:ee:ff:
                    3b:12:28:b1:df:c4:ab:6f:b3:d5:47:36:0b:e4:a8:
                    f6:b9:b2:87:59:cb:3a:bc:67:9d:da:04:ea:e1:33:
                    50:77
                Exponent: 65537 (0x10001)
        X509v3 extensions:
            Netscape Cert Type: 
                SSL Server
            X509v3 Key Usage: 
                Digital Signature, Non Repudiation, Key Encipherment
            X509v3 Subject Alternative Name: 
                DNS:*.abc.com, DNS:news.abc.com, DNS:sports.abc.com, DNS:*.news.abc.com, DNS:*.sports.abc.com
            X509v3 Subject Key Identifier: 
                FE:C9:BF:4E:0C:74:9A:7A:32:90:15:2F:6C:F3:6D:CB:86:86:15:C1
            X509v3 Authority Key Identifier: 
                keyid:3C:67:A2:64:7B:B9:62:CC:A8:68:8D:2B:1D:CE:39:3A:BB:75:4E:66
                DirName:/ST=KA/C=IN/CN=TwoCA1024_server/emailAddress=TwoCA@test_ca.com/O=CITRIX
                serial:11:22:33:44:56

sha256WithRSAEncryption
         49:28:40:c5:91:3a:32:5c:58:f0:37:bb:f2:50:67:33:20:3c:
         9b:ad:2f:28:46:88:58:31:84:14:0c:6c:54:e6:76:f7:85:d0:
         0c:b8:d6:b2:3e:ae:e2:b1:60:43:5e:00:e1:59:e7:c5:98:05:
         fe:78:32:08:f7:f4:fd:27:bd:44:60:f4:2d:7a:5c:35:4b:47:
         7b:9f:91:52:c6:c2:7f:f1:3a:c6:47:cd:8a:3f:ee:cb:94:25:
         d9:4f:22:a2:07:ad:88:d4:da:ef:4e:01:0e:a0:b6:c7:b2:85:
         58:b9:c8:73:19:74:68:46:23:c1:86:b9:8a:53:a8:94:de:ff:
         51:a3:29:af:2c:3f:f3:d2:4e:e3:c2:3f:02:5c:c4:91:93:c2:
         f7:78:2d:b1:2a:29:77:e0:9e:10:c9:8e:0a:96:4b:47:0a:76:
         32:80:63:d1:00:94:40:40:4f:20:5f:87:aa:b8:6f:ab:ba:58:
         c8:07:07:0b:ad:8a:b2:7f:7c:ba:da:68:e2:00:26:f9:04:44:
         64:12:26:98:8a:51:68:1b:35:90:0c:e8:ff:27:c6:df:de:2f:
         1a:8a:55:f8:43:10:19:dc:1a:91:1d:01:77:f2:d2:55:e1:37:
         0c:a7:8f:6f:56:04:72:6f:1a:cc:9f:07:1e:06:da:4d:cb:00:
         95:46:3f:dc
-----BEGIN CERTIFICATE-----
MIIEfTCCA2WgAwIBAgIGAKCw0MD9MA0GCSqGSIb3DQEBCwUAMGgxCzAJBgNVBAgT
AktBMQswCQYDVQQGEwJJTjEZMBcGA1UEAxQQU05JQ0EyMDQ4X3NlcnZlcjEgMB4G
CSqGSIb3DQEJARYRU05JQ0FAdGVzdF9jYS5jb20xDzANBgNVBAoTBkNJVFJJWDAe
Fw0xNzEwMTYwNDE3MDNaFw0yNzEwMTQwNDE3MDNaMGExCzAJBgNVBAgTAktBMQsw
CQYDVQQGEwJJTjEQMA4GA1UEAxMHYWx0bmFtZTEiMCAGCSqGSIb3DQEJARYTYWx0
bmFtZUB0ZXN0X2NhLmNvbTEPMA0GA1UEChMGQ0lUUklYMIIBIjANBgkqhkiG9w0B
AQEFAAOCAQ8AMIIBCgKCAQEAuJ5VsZNtUw0M78wylpMw9OEvkbdNlhKGMAMIsCEP
fOZoJxd/B2nOI3PU6OZx0ntkwEv6jgcocRlIci9xtl/Hwu8iVspdc3Fj2OWdIs3V
qMlyRYukyVuWIXrxsbPJuIDnlXTzWKBw+HWCUf63R5afuYUktAI+Y+wMYTOvtDrA
xzIi9ZStbzmLIGgmj//fQRI14Z2Fo4zsiXrV1b7kh0Kwe/TpumR6KaxCzPMmXMoG
or74N+va+ZAvy2nu8xpVA6R37CewuV4BHJnBw1wlYJoD1EM87e+WgqBwrNcZSuib
7v87Eiix38Srb7PVRzYL5Kj2ubKHWcs6vGed2gTq4TNQdwIDAQABo4IBMjCCAS4w
EQYJYIZIAYb4QgEBBAQDAgZAMAsGA1UdDwQEAwIF4DBUBgNVHREETTBLggkqLmFi
Yy5jb22CDG5ld3MuYWJjLmNvbYIOc3BvcnRzLmFiYy5jb22CDioubmV3cy5hYmMu
Y29tghAqLnNwb3J0cy5hYmMuY29tMB0GA1UdDgQWBBT+yb9ODHSaejKQFS9s823L
hoYVwTCBlgYDVR0jBIGOMIGLgBQ8Z6Jke7lizKhojSsdzjk6u3VOZqFspGowaDEL
MAkGA1UECBMCS0ExCzAJBgNVBAYTAklOMRkwFwYDVQQDFBBUd29DQTEwMjRfc2Vy
dmVyMSAwHgYJKoZIhvcNAQkBFhFUd29DQUB0ZXN0X2NhLmNvbTEPMA0GA1UEChMG
Q0lUUklYggURIjNEVjANBgkqhkiG9w0BAQsFAAOCAQEASShAxZE6MlxY8De78lBn
MyA8m60vKEaIWDGEFAxsVOZ294XQDLjWsj6u4rFgQ14A4VnnxZgF/ngyCPf0/Se9
RGD0LXpcNUtHe5+RUsbCf/E6xkfNij/uy5Ql2U8iogetiNTa704BDqC2x7KFWLnI
cxl0aEYjwYa5ilOolN7/UaMpryw/89JO48I/AlzEkZPC93gtsSopd+CeEMmOCpZL
Rwp2MoBj0QCUQEBPIF+Hqrhvq7pYyAcHC62Ksn98utpo4gAm+QREZBImmIpRaBs1
kAzo/yfG394vGopV+EMQGdwakR0Bd/LSVeE3DKePb1YEcm8azJ8HHgbaTcsAlUY/
3A==
-----END CERTIFICATE-----
