Certificate:
    Data:
        Version: 3 (0x2)
        Serial Number: 690161238267 (0xa0b0d0c0fb)
sha256WithRSAEncryption
        Issuer: ST=KA, C=IN, CN=SNICA2048_server/emailAddress=SNICA@test_ca.com, O=CITRIX
        Validity
            Not Before: Aug 22 02:05:33 2017 GMT
            Not After : Aug 20 02:05:33 2027 GMT
        Subject: ST=KA, C=IN, CN=dupcheck.abc.com/emailAddress=dupcheck.abc.com@test_ca.com, O=CITRIX
        Subject Public Key Info:
            Public Key Algorithm: rsaEncryption
                Public-Key: (2048 bit)
                Modulus:
                    00:b9:5a:17:0d:17:60:d7:ae:4c:1c:ad:1f:53:2d:
                    18:07:8d:d1:eb:aa:fc:98:1c:d7:dc:1f:79:f9:36:
                    ce:65:cf:b9:aa:da:21:20:c7:51:12:1c:6e:32:c2:
                    7d:f3:8d:3b:3e:32:d3:13:b2:95:76:f1:69:f7:c3:
                    80:30:3d:57:64:2c:f8:38:1d:a5:3d:48:85:a1:6f:
                    a5:20:99:df:aa:13:5b:d0:8a:47:00:98:3f:b7:00:
                    ce:06:62:25:7e:8a:8a:2f:43:ce:0f:a9:4d:e3:68:
                    64:dc:c5:bc:d4:27:fb:c7:f5:e7:6a:b5:27:4f:c1:
                    7a:dc:52:ec:1b:b7:2f:ea:9c:06:3f:cb:f9:a0:84:
                    e1:64:b2:c1:cd:59:b7:f2:d0:15:89:17:f1:6d:dd:
                    ef:00:fd:d5:0d:0e:c1:88:32:8f:b8:a4:f5:1b:d3:
                    29:eb:a4:8b:20:b8:de:6f:5e:57:a8:c5:8e:fa:41:
                    72:e4:5e:a6:80:fb:50:b5:d4:82:ff:ec:eb:e3:96:
                    34:02:0c:86:3d:78:c7:76:00:f2:45:84:bb:07:b2:
                    8a:34:a6:3f:25:e3:66:22:ec:ca:63:61:b5:5c:4b:
                    41:b7:fd:b9:dd:0a:61:bb:af:55:87:a6:7d:9d:ac:
                    88:70:aa:6b:3f:8b:4c:87:9e:fc:9c:7d:96:fb:93:
                    3e:cb
                Exponent: 65537 (0x10001)
        X509v3 extensions:
            Netscape Cert Type: 
                SSL Server
            X509v3 Key Usage: 
                Digital Signature, Non Repudiation, Key Encipherment
            X509v3 Subject Alternative Name: 
                DNS:*.abc.com, DNS:news.abc.com, DNS:sports.abc.com, DNS:*.news.abc.com, DNS:*.sports.abc.com
            X509v3 Subject Key Identifier: 
                50:27:2B:C8:EF:C3:D4:90:27:5B:C5:1A:A3:5F:F3:27:D7:48:15:A8
            X509v3 Authority Key Identifier: 
                keyid:3C:67:A2:64:7B:B9:62:CC:A8:68:8D:2B:1D:CE:39:3A:BB:75:4E:66
                DirName:/ST=KA/C=IN/CN=TwoCA1024_server/emailAddress=TwoCA@test_ca.com/O=CITRIX
                serial:11:22:33:44:56

sha256WithRSAEncryption
         63:f4:38:3b:1d:57:9e:bc:32:26:f0:56:5d:9c:0b:c3:60:0e:
         59:d0:b7:ac:39:26:a9:e5:5e:96:2c:4a:e6:2d:e4:58:af:2c:
         0b:cc:66:25:24:c2:d7:a7:4a:ce:dc:e3:c1:ae:a9:b3:39:98:
         bc:51:f7:4a:58:3e:79:c6:b7:08:23:f7:62:f6:61:6b:1c:0f:
         d7:21:b0:64:a4:09:f9:38:22:7d:90:38:0f:37:e3:3c:8b:27:
         3c:ae:1b:3d:8c:58:5b:c8:86:71:aa:f0:1d:5d:e9:dd:3d:0c:
         10:a0:c1:08:eb:48:5a:cb:dd:b0:ed:f3:7b:52:39:75:92:1a:
         1d:6d:ad:6d:7b:06:d3:a3:82:5d:b5:6b:fa:91:86:3b:7c:66:
         0e:2a:ab:93:28:e6:04:e6:31:81:17:52:da:70:4f:5b:c1:8c:
         2c:96:f2:61:f8:58:20:ae:8d:31:bf:94:8d:57:24:bf:49:6d:
         19:15:a8:1f:7f:e1:19:ab:1f:ed:23:53:04:2c:dd:50:56:27:
         f5:4c:3b:ac:30:3a:81:a0:2e:c0:e0:c2:2e:39:99:79:1e:77:
         aa:38:99:b5:81:97:83:4a:82:1f:51:8f:43:db:7c:60:de:39:
         01:a9:84:f5:35:57:e7:14:79:21:0d:8b:a3:06:62:5c:ad:64:
         33:c2:2a:39
-----BEGIN CERTIFICATE-----
MIIEjzCCA3egAwIBAgIGAKCw0MD7MA0GCSqGSIb3DQEBCwUAMGgxCzAJBgNVBAgT
AktBMQswCQYDVQQGEwJJTjEZMBcGA1UEAxQQU05JQ0EyMDQ4X3NlcnZlcjEgMB4G
CSqGSIb3DQEJARYRU05JQ0FAdGVzdF9jYS5jb20xDzANBgNVBAoTBkNJVFJJWDAe
Fw0xNzA4MjIwMjA1MzNaFw0yNzA4MjAwMjA1MzNaMHMxCzAJBgNVBAgTAktBMQsw
CQYDVQQGEwJJTjEZMBcGA1UEAxMQZHVwY2hlY2suYWJjLmNvbTErMCkGCSqGSIb3
DQEJARYcZHVwY2hlY2suYWJjLmNvbUB0ZXN0X2NhLmNvbTEPMA0GA1UEChMGQ0lU
UklYMIIBIjANBgkqhkiG9w0BAQEFAAOCAQ8AMIIBCgKCAQEAuVoXDRdg165MHK0f
Uy0YB43R66r8mBzX3B95+TbOZc+5qtohIMdREhxuMsJ98407PjLTE7KVdvFp98OA
MD1XZCz4OB2lPUiFoW+lIJnfqhNb0IpHAJg/twDOBmIlfoqKL0POD6lN42hk3MW8
1Cf7x/XnarUnT8F63FLsG7cv6pwGP8v5oIThZLLBzVm38tAViRfxbd3vAP3VDQ7B
iDKPuKT1G9Mp66SLILjeb15XqMWO+kFy5F6mgPtQtdSC/+zr45Y0AgyGPXjHdgDy
RYS7B7KKNKY/JeNmIuzKY2G1XEtBt/253Qphu69Vh6Z9nayIcKprP4tMh578nH2W
+5M+ywIDAQABo4IBMjCCAS4wEQYJYIZIAYb4QgEBBAQDAgZAMAsGA1UdDwQEAwIF
4DBUBgNVHREETTBLggkqLmFiYy5jb22CDG5ld3MuYWJjLmNvbYIOc3BvcnRzLmFi
Yy5jb22CDioubmV3cy5hYmMuY29tghAqLnNwb3J0cy5hYmMuY29tMB0GA1UdDgQW
BBRQJyvI78PUkCdbxRqjX/Mn10gVqDCBlgYDVR0jBIGOMIGLgBQ8Z6Jke7lizKho
jSsdzjk6u3VOZqFspGowaDELMAkGA1UECBMCS0ExCzAJBgNVBAYTAklOMRkwFwYD
VQQDFBBUd29DQTEwMjRfc2VydmVyMSAwHgYJKoZIhvcNAQkBFhFUd29DQUB0ZXN0
X2NhLmNvbTEPMA0GA1UEChMGQ0lUUklYggURIjNEVjANBgkqhkiG9w0BAQsFAAOC
AQEAY/Q4Ox1XnrwyJvBWXZwLw2AOWdC3rDkmqeVelixK5i3kWK8sC8xmJSTC16dK
ztzjwa6pszmYvFH3Slg+eca3CCP3YvZhaxwP1yGwZKQJ+TgifZA4DzfjPIsnPK4b
PYxYW8iGcarwHV3p3T0MEKDBCOtIWsvdsO3ze1I5dZIaHW2tbXsG06OCXbVr+pGG
O3xmDiqrkyjmBOYxgRdS2nBPW8GMLJbyYfhYIK6NMb+UjVckv0ltGRWoH3/hGasf
7SNTBCzdUFYn9Uw7rDA6gaAuwODCLjmZeR53qjiZtYGXg0qCH1GPQ9t8YN45AamE
9TVX5xR5IQ2LowZiXK1kM8IqOQ==
-----END CERTIFICATE-----
