Certificate:
    Data:
        Version: 3 (0x2)
        Serial Number: 73588229206 (0x1122334456)
sha1WithRSAEncryption
        Issuer: ST=KA, C=IN, CN=TwoCA1024_server/emailAddress=TwoCA@test_ca.com, O=CITRIX
        Validity
            Not Before: Aug 22 01:21:22 2017 GMT
            Not After : Aug 20 01:21:22 2027 GMT
        Subject: ST=KA, C=IN, CN=SNICA2048_server/emailAddress=SNICA@test_ca.com, O=CITRIX
        Subject Public Key Info:
            Public Key Algorithm: rsaEncryption
                Public-Key: (2048 bit)
                Modulus:
                    00:d7:85:3a:d6:16:72:04:ed:42:4e:03:cc:62:52:
                    cc:bd:7b:94:95:af:e3:d9:43:20:ef:6c:e2:9e:d1:
                    7b:38:c0:73:32:2e:54:e7:46:84:0f:78:00:32:e8:
                    98:53:97:9d:43:e6:78:6a:aa:dd:e3:48:51:fc:ad:
                    8a:16:45:cb:38:d0:90:a6:7e:9c:f4:3f:57:79:e5:
                    a6:dc:02:9f:4d:a5:36:37:86:25:f5:f7:ce:03:70:
                    4f:83:ce:e9:99:8e:92:e5:e6:de:22:57:c4:e8:ee:
                    75:e8:a1:12:ce:ba:43:72:ec:8b:68:9c:eb:85:22:
                    de:0d:07:f2:9c:6b:4d:dc:b8:39:80:f6:9d:ba:5a:
                    b4:4a:8c:dc:96:63:5f:77:cc:41:bf:ee:bc:12:1d:
                    87:11:03:67:88:e1:cc:28:45:d6:7d:00:9f:72:fd:
                    96:b2:35:8a:f9:a8:d1:2e:d3:c2:be:25:9f:10:3a:
                    1f:14:ed:67:22:76:7e:5a:c0:01:83:49:e5:0c:42:
                    6b:a9:f0:0e:64:22:06:f3:1f:ec:88:a8:d7:bb:f6:
                    b9:b8:eb:77:6d:8f:93:7c:de:08:b4:ad:26:d8:e3:
                    9f:b0:53:aa:cb:b2:7b:2f:2b:5a:5d:7b:92:fe:42:
                    fb:f3:5a:ab:d6:18:a6:2a:d7:0b:39:aa:64:56:4d:
                    c6:7d
                Exponent: 65537 (0x10001)
        X509v3 extensions:
            X509v3 Basic Constraints: 
                CA:TRUE
            X509v3 Subject Key Identifier: 
                3C:67:A2:64:7B:B9:62:CC:A8:68:8D:2B:1D:CE:39:3A:BB:75:4E:66
            X509v3 Authority Key Identifier: 
                keyid:D3:F4:28:AF:B1:CD:B0:34:5E:24:E5:22:1E:12:2D:D1:A5:14:63:9D
                DirName:/ST=KA/C=IN/CN=OneCA2048_server/emailAddress=OneCA2048@test_ca.com/O=CITRIX
                serial:0A:0B:0C:0D:0E:02

sha1WithRSAEncryption
         b8:a9:98:b3:e6:79:d4:7e:cc:a9:49:b0:e9:cf:f7:70:a2:d6:
         65:97:1d:f3:07:6f:78:9e:1c:26:ce:08:fe:37:16:c8:32:26:
         17:fb:6b:74:b7:5a:4c:6e:e5:d8:4c:1c:c0:d8:0e:3b:49:0a:
         bf:ce:33:69:d1:f5:d2:87:4e:d0:a7:bd:d1:e8:16:ca:33:c0:
         a5:87:4b:9b:46:6a:66:ea:6e:60:a9:af:a7:10:af:3b:a1:c8:
         f9:f9:82:0c:68:a3:0a:18:e8:fd:ba:d3:a4:f6:05:ed:74:6c:
         4c:65:3c:45:d3:77:dc:62:09:38:16:be:c0:c9:54:32:dd:16:
         53:f9
-----BEGIN CERTIFICATE-----
MIIDnTCCAwagAwIBAgIFESIzRFYwDQYJKoZIhvcNAQEFBQAwaDELMAkGA1UECBMC
S0ExCzAJBgNVBAYTAklOMRkwFwYDVQQDFBBUd29DQTEwMjRfc2VydmVyMSAwHgYJ
KoZIhvcNAQkBFhFUd29DQUB0ZXN0X2NhLmNvbTEPMA0GA1UEChMGQ0lUUklYMB4X
DTE3MDgyMjAxMjEyMloXDTI3MDgyMDAxMjEyMlowaDELMAkGA1UECBMCS0ExCzAJ
BgNVBAYTAklOMRkwFwYDVQQDFBBTTklDQTIwNDhfc2VydmVyMSAwHgYJKoZIhvcN
AQkBFhFTTklDQUB0ZXN0X2NhLmNvbTEPMA0GA1UEChMGQ0lUUklYMIIBIjANBgkq
hkiG9w0BAQEFAAOCAQ8AMIIBCgKCAQEA14U61hZyBO1CTgPMYlLMvXuUla/j2UMg
72zintF7OMBzMi5U50aED3gAMuiYU5edQ+Z4aqrd40hR/K2KFkXLONCQpn6c9D9X
eeWm3AKfTaU2N4Yl9ffOA3BPg87pmY6S5ebeIlfE6O516KESzrpDcuyLaJzrhSLe
DQfynGtN3Lg5gPadulq0SozclmNfd8xBv+68Eh2HEQNniOHMKEXWfQCfcv2WsjWK
+ajRLtPCviWfEDofFO1nInZ+WsABg0nlDEJrqfAOZCIG8x/siKjXu/a5uOt3bY+T
fN4ItK0m2OOfsFOqy7J7LytaXXuS/kL781qr1himKtcLOapkVk3GfQIDAQABo4HO
MIHLMAwGA1UdEwQFMAMBAf8wHQYDVR0OBBYEFDxnomR7uWLMqGiNKx3OOTq7dU5m
MIGbBgNVHSMEgZMwgZCAFNP0KK+xzbA0XiTlIh4SLdGlFGOdoXCkbjBsMQswCQYD
VQQIEwJLQTELMAkGA1UEBhMCSU4xGTAXBgNVBAMUEE9uZUNBMjA0OF9zZXJ2ZXIx
JDAiBgkqhkiG9w0BCQEWFU9uZUNBMjA0OEB0ZXN0X2NhLmNvbTEPMA0GA1UEChMG
Q0lUUklYggYKCwwNDgIwDQYJKoZIhvcNAQEFBQADgYEAuKmYs+Z51H7MqUmw6c/3
cKLWZZcd8wdveJ4cJs4I/jcWyDImF/trdLdaTG7l2EwcwNgOO0kKv84zadH10odO
0Ke90egWyjPApYdLm0ZqZupuYKmvpxCvO6HI+fmCDGijChjo/brTpPYF7XRsTGU8
RdN33GIJOBa+wMlUMt0WU/k=
-----END CERTIFICATE-----
