Certificate:
    Data:
        Version: 3 (0x2)
        Serial Number: 690161238263 (0xa0b0d0c0f7)
sha256WithRSAEncryption
        Issuer: ST=KA, C=IN, CN=SNICA2048_server/emailAddress=SNICA@test_ca.com, O=CITRIX
        Validity
            Not Before: Aug 22 01:56:31 2017 GMT
            Not After : Aug 20 01:56:31 2027 GMT
        Subject: ST=KA, C=IN, CN=sports.abc.com/emailAddress=sports.abc.com@test_ca.com, O=CITRIX
        Subject Public Key Info:
            Public Key Algorithm: rsaEncryption
                Public-Key: (2048 bit)
                Modulus:
                    00:ce:26:7b:82:30:ec:6e:22:97:c6:90:74:10:f0:
                    61:e8:dc:bb:aa:d4:5b:9f:b2:83:5f:ac:bf:8d:40:
                    ea:3b:8d:ec:e5:5a:f6:95:d6:ea:51:a4:5e:79:87:
                    fa:78:25:df:19:de:95:60:54:cd:45:9d:0e:b6:e7:
                    63:52:74:ca:76:11:ea:60:5d:01:fb:d4:e4:80:1a:
                    06:0c:b6:70:a1:fe:e7:c8:e2:b5:f6:08:c9:70:75:
                    18:5f:c8:d4:b2:64:50:e0:da:f9:81:ff:64:78:b8:
                    bb:a0:cf:f0:85:f9:0d:be:fc:d0:84:18:e3:3d:70:
                    09:a6:d9:07:9e:f2:07:29:c5:a3:68:e8:63:5d:08:
                    f3:35:f5:9c:8c:3a:3e:c9:40:85:27:10:40:f5:e4:
                    39:dd:e8:d4:61:17:2a:69:27:4d:3e:c2:be:5e:aa:
                    7e:4e:83:18:39:75:e4:a8:d6:b5:a4:18:ac:ad:33:
                    8b:c5:26:d7:18:76:4f:aa:3f:72:f1:c8:0e:cf:82:
                    c6:50:6b:16:7e:5d:f5:57:11:dc:c9:20:da:b5:e9:
                    75:c5:bc:60:db:52:95:4a:f3:ba:9f:7d:8f:a6:c3:
                    67:14:e5:3c:f6:65:0c:a8:f9:45:89:0c:d9:9b:47:
                    67:98:2d:a9:a3:18:ca:cf:4c:d3:5a:71:ce:8c:2e:
                    4c:af
                Exponent: 65537 (0x10001)
        X509v3 extensions:
            Netscape Cert Type: 
                SSL Server
            X509v3 Key Usage: 
                Digital Signature, Non Repudiation, Key Encipherment
            X509v3 Subject Key Identifier: 
                B1:8F:B7:F0:08:B5:89:4C:9D:66:19:C0:56:E8:9F:0F:01:DB:97:3E
            X509v3 Authority Key Identifier: 
                keyid:3C:67:A2:64:7B:B9:62:CC:A8:68:8D:2B:1D:CE:39:3A:BB:75:4E:66
                DirName:/ST=KA/C=IN/CN=TwoCA1024_server/emailAddress=TwoCA@test_ca.com/O=CITRIX
                serial:11:22:33:44:56

sha256WithRSAEncryption
         b0:f5:94:c1:07:73:47:28:c3:d4:b3:3b:eb:02:57:bd:34:5c:
         ac:eb:74:55:03:c4:f9:d3:95:02:aa:f8:07:cf:0c:07:76:bf:
         4e:6c:60:9f:8e:85:ca:f2:40:82:1d:46:63:74:e2:45:3c:63:
         42:cd:7b:a0:67:d3:1e:b9:79:53:8e:85:28:cc:e8:99:f4:92:
         3c:28:63:34:b0:19:7d:ad:cb:0e:bb:c0:17:1f:65:6a:a5:96:
         19:72:ae:ed:d0:e6:56:54:9e:95:48:06:b4:02:52:10:e0:42:
         2d:0b:ae:48:5c:ab:55:8b:e3:1e:29:2a:ad:fd:ca:b8:88:32:
         b6:e9:ce:8c:e2:dc:eb:a2:55:3b:a4:02:2d:95:95:ef:1b:30:
         b8:fb:33:01:8a:76:c2:37:49:20:2c:c3:e3:e0:03:60:98:70:
         45:c4:26:30:13:56:d1:1a:e7:f8:58:83:ae:17:f3:d3:b4:8a:
         06:58:58:51:44:7e:4a:f5:98:bb:33:98:8b:e6:23:30:2f:a9:
         25:ab:9f:e8:b8:b9:30:73:b7:72:e8:5c:e2:c1:ca:7b:c9:c6:
         99:4d:6b:36:3e:95:53:1e:1b:51:4e:37:87:f1:95:58:d3:6f:
         34:af:bd:58:15:93:43:bd:32:20:81:15:b9:ab:91:cd:66:aa:
         9a:b8:59:98
-----BEGIN CERTIFICATE-----
MIIEMzCCAxugAwIBAgIGAKCw0MD3MA0GCSqGSIb3DQEBCwUAMGgxCzAJBgNVBAgT
AktBMQswCQYDVQQGEwJJTjEZMBcGA1UEAxQQU05JQ0EyMDQ4X3NlcnZlcjEgMB4G
CSqGSIb3DQEJARYRU05JQ0FAdGVzdF9jYS5jb20xDzANBgNVBAoTBkNJVFJJWDAe
Fw0xNzA4MjIwMTU2MzFaFw0yNzA4MjAwMTU2MzFaMG8xCzAJBgNVBAgTAktBMQsw
CQYDVQQGEwJJTjEXMBUGA1UEAxMOc3BvcnRzLmFiYy5jb20xKTAnBgkqhkiG9w0B
CQEWGnNwb3J0cy5hYmMuY29tQHRlc3RfY2EuY29tMQ8wDQYDVQQKEwZDSVRSSVgw
ggEiMA0GCSqGSIb3DQEBAQUAA4IBDwAwggEKAoIBAQDOJnuCMOxuIpfGkHQQ8GHo
3Luq1FufsoNfrL+NQOo7jezlWvaV1upRpF55h/p4Jd8Z3pVgVM1FnQ6252NSdMp2
EepgXQH71OSAGgYMtnCh/ufI4rX2CMlwdRhfyNSyZFDg2vmB/2R4uLugz/CF+Q2+
/NCEGOM9cAmm2Qee8gcpxaNo6GNdCPM19ZyMOj7JQIUnEED15Dnd6NRhFyppJ00+
wr5eqn5Ogxg5deSo1rWkGKytM4vFJtcYdk+qP3LxyA7PgsZQaxZ+XfVXEdzJINq1
6XXFvGDbUpVK87qffY+mw2cU5Tz2ZQyo+UWJDNmbR2eYLamjGMrPTNNacc6MLkyv
AgMBAAGjgdswgdgwEQYJYIZIAYb4QgEBBAQDAgZAMAsGA1UdDwQEAwIF4DAdBgNV
HQ4EFgQUsY+38Ai1iUydZhnAVuifDwHblz4wgZYGA1UdIwSBjjCBi4AUPGeiZHu5
YsyoaI0rHc45Ort1TmahbKRqMGgxCzAJBgNVBAgTAktBMQswCQYDVQQGEwJJTjEZ
MBcGA1UEAxQQVHdvQ0ExMDI0X3NlcnZlcjEgMB4GCSqGSIb3DQEJARYRVHdvQ0FA
dGVzdF9jYS5jb20xDzANBgNVBAoTBkNJVFJJWIIFESIzRFYwDQYJKoZIhvcNAQEL
BQADggEBALD1lMEHc0cow9SzO+sCV700XKzrdFUDxPnTlQKq+AfPDAd2v05sYJ+O
hcryQIIdRmN04kU8Y0LNe6Bn0x65eVOOhSjM6Jn0kjwoYzSwGX2tyw67wBcfZWql
lhlyru3Q5lZUnpVIBrQCUhDgQi0Lrkhcq1WL4x4pKq39yriIMrbpzozi3OuiVTuk
Ai2Vle8bMLj7MwGKdsI3SSAsw+PgA2CYcEXEJjATVtEa5/hYg64X89O0igZYWFFE
fkr1mLszmIvmIzAvqSWrn+i4uTBzt3LoXOLBynvJxplNazY+lVMeG1FON4fxlVjT
bzSvvVgVk0O9MiCBFbmrkc1mqpq4WZg=
-----END CERTIFICATE-----
