Certificate:
    Data:
        Version: 3 (0x2)
        Serial Number: 690161238266 (0xa0b0d0c0fa)
sha256WithRSAEncryption
        Issuer: ST=KA, C=IN, CN=SNICA2048_server/emailAddress=SNICA@test_ca.com, O=CITRIX
        Validity
            Not Before: Aug 22 02:01:19 2017 GMT
            Not After : Aug 20 02:01:19 2027 GMT
        Subject: ST=KA, C=IN, CN=*.sports.abc.com/emailAddress=*.sports.abc.com@test_ca.com, O=CITRIX
        Subject Public Key Info:
            Public Key Algorithm: rsaEncryption
                Public-Key: (2048 bit)
                Modulus:
                    00:ca:d5:d7:ce:15:f7:98:a9:7a:09:01:17:75:f7:
                    62:83:aa:e1:85:b0:22:99:25:bd:45:fe:f5:c3:20:
                    d1:d8:ae:6e:e0:07:64:f3:ee:79:0b:e5:0d:32:47:
                    d6:92:90:92:69:84:d0:a5:4d:2b:a4:17:69:1a:c8:
                    ab:f0:4b:1f:a9:86:9c:ef:c4:a7:1c:68:64:35:20:
                    42:59:be:1a:20:34:f7:80:b5:f3:04:ce:c1:d3:20:
                    1c:d7:f0:48:cc:f8:7a:4e:95:85:d1:08:44:5f:03:
                    64:40:b5:d5:43:80:7d:de:a3:63:93:01:02:5e:fe:
                    76:51:88:eb:fb:4a:ad:15:88:b1:8d:92:c7:0e:43:
                    63:b7:8b:66:c3:c0:94:36:80:38:37:cb:7c:d6:0b:
                    dd:6b:c2:c2:2b:14:5e:87:ae:d9:f8:98:4a:78:87:
                    58:22:dc:ac:4f:69:6e:12:45:89:fa:27:6f:c0:13:
                    27:01:61:91:28:c5:a7:5f:b5:8f:7b:ab:c5:ac:51:
                    84:d5:e8:a7:a0:95:35:1b:aa:0f:8a:1b:1d:19:50:
                    da:42:35:bc:42:c6:4d:54:df:3b:b1:8f:33:ca:63:
                    e3:09:3d:f0:cc:c2:fc:cc:b6:d8:d5:f5:36:8c:1e:
                    cb:3b:35:ce:a8:ff:98:06:4c:27:eb:41:82:cc:5e:
                    e7:43
                Exponent: 65537 (0x10001)
        X509v3 extensions:
            Netscape Cert Type: 
                SSL Server
            X509v3 Key Usage: 
                Digital Signature, Non Repudiation, Key Encipherment
            X509v3 Subject Key Identifier: 
                0B:BE:EF:94:0E:4C:7B:25:64:8D:BA:E8:09:01:2C:4E:36:96:79:09
            X509v3 Authority Key Identifier: 
                keyid:3C:67:A2:64:7B:B9:62:CC:A8:68:8D:2B:1D:CE:39:3A:BB:75:4E:66
                DirName:/ST=KA/C=IN/CN=TwoCA1024_server/emailAddress=TwoCA@test_ca.com/O=CITRIX
                serial:11:22:33:44:56

sha256WithRSAEncryption
         4b:17:44:44:dd:7b:ee:5f:1f:f1:82:78:96:1f:f2:e4:a1:e0:
         d8:5a:ed:5f:80:fd:9d:8d:1c:0e:ce:94:50:52:01:3e:1d:56:
         68:20:6a:7a:44:74:c0:f5:84:21:4a:fe:62:3d:ed:c5:fb:f2:
         57:ea:e3:6a:76:e4:d9:c0:0f:11:4c:1d:f8:d7:cb:f3:bc:60:
         9a:81:0a:8d:ab:61:38:dc:5a:60:7f:27:d2:73:97:cb:71:06:
         dc:06:81:46:0d:85:e8:fe:ff:01:33:54:36:83:84:17:47:f9:
         b5:25:db:fb:06:4d:d0:ac:be:cb:fc:f8:4f:36:1b:53:6b:8c:
         3a:6d:ce:fc:a9:1b:ad:71:5b:4b:cb:0b:8d:5e:bf:55:4e:1d:
         5a:73:45:84:66:68:87:9d:0a:60:94:0e:f0:45:0d:2c:ba:a0:
         fa:f8:54:04:10:e7:83:5a:35:d0:86:77:4e:a8:4d:22:d4:70:
         12:4c:be:49:25:5d:f3:26:13:05:b0:37:21:64:3b:0c:7b:d1:
         e6:c1:a6:2d:8c:7e:ca:7a:7e:7d:0d:38:33:3f:6b:e0:e2:4a:
         b3:39:64:09:71:43:c6:64:9a:98:c7:4b:71:2e:01:ea:b6:ad:
         a8:26:4b:20:e5:c2:79:9c:64:81:87:0c:35:91:c3:1e:4e:0f:
         97:f8:95:75
-----BEGIN CERTIFICATE-----
MIIENzCCAx+gAwIBAgIGAKCw0MD6MA0GCSqGSIb3DQEBCwUAMGgxCzAJBgNVBAgT
AktBMQswCQYDVQQGEwJJTjEZMBcGA1UEAxQQU05JQ0EyMDQ4X3NlcnZlcjEgMB4G
CSqGSIb3DQEJARYRU05JQ0FAdGVzdF9jYS5jb20xDzANBgNVBAoTBkNJVFJJWDAe
Fw0xNzA4MjIwMjAxMTlaFw0yNzA4MjAwMjAxMTlaMHMxCzAJBgNVBAgTAktBMQsw
CQYDVQQGEwJJTjEZMBcGA1UEAxQQKi5zcG9ydHMuYWJjLmNvbTErMCkGCSqGSIb3
DQEJARYcKi5zcG9ydHMuYWJjLmNvbUB0ZXN0X2NhLmNvbTEPMA0GA1UEChMGQ0lU
UklYMIIBIjANBgkqhkiG9w0BAQEFAAOCAQ8AMIIBCgKCAQEAytXXzhX3mKl6CQEX
dfdig6rhhbAimSW9Rf71wyDR2K5u4Adk8+55C+UNMkfWkpCSaYTQpU0rpBdpGsir
8EsfqYac78SnHGhkNSBCWb4aIDT3gLXzBM7B0yAc1/BIzPh6TpWF0QhEXwNkQLXV
Q4B93qNjkwECXv52UYjr+0qtFYixjZLHDkNjt4tmw8CUNoA4N8t81gvda8LCKxRe
h67Z+JhKeIdYItysT2luEkWJ+idvwBMnAWGRKMWnX7WPe6vFrFGE1einoJU1G6oP
ihsdGVDaQjW8QsZNVN87sY8zymPjCT3wzML8zLbY1fU2jB7LOzXOqP+YBkwn60GC
zF7nQwIDAQABo4HbMIHYMBEGCWCGSAGG+EIBAQQEAwIGQDALBgNVHQ8EBAMCBeAw
HQYDVR0OBBYEFAu+75QOTHslZI266AkBLE42lnkJMIGWBgNVHSMEgY4wgYuAFDxn
omR7uWLMqGiNKx3OOTq7dU5moWykajBoMQswCQYDVQQIEwJLQTELMAkGA1UEBhMC
SU4xGTAXBgNVBAMUEFR3b0NBMTAyNF9zZXJ2ZXIxIDAeBgkqhkiG9w0BCQEWEVR3
b0NBQHRlc3RfY2EuY29tMQ8wDQYDVQQKEwZDSVRSSViCBREiM0RWMA0GCSqGSIb3
DQEBCwUAA4IBAQBLF0RE3XvuXx/xgniWH/LkoeDYWu1fgP2djRwOzpRQUgE+HVZo
IGp6RHTA9YQhSv5iPe3F+/JX6uNqduTZwA8RTB3418vzvGCagQqNq2E43FpgfyfS
c5fLcQbcBoFGDYXo/v8BM1Q2g4QXR/m1Jdv7Bk3QrL7L/PhPNhtTa4w6bc78qRut
cVtLywuNXr9VTh1ac0WEZmiHnQpglA7wRQ0suqD6+FQEEOeDWjXQhndOqE0i1HAS
TL5JJV3zJhMFsDchZDsMe9HmwaYtjH7Ken59DTgzP2vg4kqzOWQJcUPGZJqYx0tx
LgHqtq2oJksg5cJ5nGSBhww1kcMeTg+X+JV1
-----END CERTIFICATE-----
