Certificate:
    Data:
        Version: 3 (0x2)
        Serial Number: 690161238264 (0xa0b0d0c0f8)
sha256WithRSAEncryption
        Issuer: ST=KA, C=IN, CN=SNICA2048_server/emailAddress=SNICA@test_ca.com, O=CITRIX
        Validity
            Not Before: Aug 22 01:59:32 2017 GMT
            Not After : Aug 20 01:59:32 2027 GMT
        Subject: ST=KA, C=IN, CN=*.abc.com/emailAddress=*.abc.com@test_ca.com, O=CITRIX
        Subject Public Key Info:
            Public Key Algorithm: rsaEncryption
                Public-Key: (2048 bit)
                Modulus:
                    00:ab:fb:25:3c:0f:34:51:04:00:9d:ba:fb:94:bd:
                    a3:d6:51:15:db:1a:6c:2f:22:a4:c0:32:63:12:5e:
                    da:f4:90:21:c7:77:b3:f3:f8:c8:c8:1d:3b:93:68:
                    49:16:39:3d:2d:9b:92:bc:e1:d9:7d:bb:c1:08:22:
                    f4:a2:8c:b4:4d:d0:3b:93:6f:be:e5:a8:c8:2e:ae:
                    09:fc:9e:9a:6c:cb:58:7b:ca:03:94:9f:a6:53:e7:
                    db:6e:4d:55:94:13:56:8f:e3:4e:44:78:af:56:ce:
                    5a:c9:76:cb:0a:0d:73:61:10:c4:c4:4d:b3:f8:f3:
                    0b:fa:b9:0c:73:43:f7:10:ea:7d:6f:5e:af:ff:24:
                    cb:6f:8f:52:20:3f:fd:dd:13:ac:78:ae:f6:42:8d:
                    c3:2f:53:76:10:4a:47:a0:92:6b:fe:53:b4:f5:e3:
                    da:6c:1a:d5:80:14:ba:95:1e:98:e2:b4:08:0d:96:
                    30:ef:75:7c:c7:e8:d0:8d:ac:10:04:2e:96:ea:c1:
                    b9:ae:da:2b:2c:aa:fe:37:04:4f:ec:4e:c8:76:ea:
                    0b:36:92:a7:9f:8a:e9:69:0e:49:4c:76:fb:74:ad:
                    21:ed:56:50:1b:f6:54:f0:34:26:e6:37:a9:02:19:
                    d5:08:77:cd:24:b2:d9:b2:fe:57:14:98:88:4d:48:
                    02:6d
                Exponent: 65537 (0x10001)
        X509v3 extensions:
            Netscape Cert Type: 
                SSL Server
            X509v3 Key Usage: 
                Digital Signature, Non Repudiation, Key Encipherment
            X509v3 Subject Key Identifier: 
                6B:C2:50:12:A3:F6:84:A7:46:03:73:76:A7:FF:62:66:C8:23:8D:80
            X509v3 Authority Key Identifier: 
                keyid:3C:67:A2:64:7B:B9:62:CC:A8:68:8D:2B:1D:CE:39:3A:BB:75:4E:66
                DirName:/ST=KA/C=IN/CN=TwoCA1024_server/emailAddress=TwoCA@test_ca.com/O=CITRIX
                serial:11:22:33:44:56

sha256WithRSAEncryption
         7e:66:9a:f1:c4:09:42:5e:5b:c7:cd:a4:08:80:0d:76:d2:17:
         41:e5:1b:b0:ad:f4:14:9e:ec:d4:55:5c:31:14:6f:74:9b:11:
         a8:5d:d6:4c:47:98:5a:a4:b7:59:a5:56:f6:2c:2b:ad:0c:c2:
         9d:ed:6f:d3:df:8f:a9:68:03:3e:e6:29:4f:ef:2a:0d:0e:3c:
         05:4b:d8:d2:71:31:f5:5b:d3:68:7d:dc:ba:f3:71:0c:56:6f:
         72:e2:1d:1c:7a:a6:87:6c:19:82:f3:52:4f:11:ea:7c:5f:dd:
         3e:ec:b8:09:6d:cc:0b:c1:d5:47:49:e6:5c:db:a7:73:c6:c2:
         71:77:38:af:41:9e:06:57:8b:c0:92:d8:c7:a4:37:8c:a6:22:
         c7:1b:c6:57:8c:ad:db:84:b4:0f:ec:d0:7f:e7:fc:35:84:e4:
         e3:b2:ad:4c:57:1b:4f:eb:09:2e:4f:bc:74:e8:56:8d:ab:2d:
         e6:8b:0d:7a:39:57:ad:22:cb:25:0b:ba:5f:a7:d2:33:8f:f3:
         d7:5a:a4:0d:0e:e4:18:57:ae:8e:45:af:97:81:13:f2:1e:ed:
         9e:5c:92:a6:a0:12:ab:ec:be:38:c0:0f:4c:f7:11:b2:88:88:
         8e:75:0b:e3:47:26:d6:8c:60:15:9b:08:26:4f:02:15:30:6a:
         f6:b1:eb:66
-----BEGIN CERTIFICATE-----
MIIEKTCCAxGgAwIBAgIGAKCw0MD4MA0GCSqGSIb3DQEBCwUAMGgxCzAJBgNVBAgT
AktBMQswCQYDVQQGEwJJTjEZMBcGA1UEAxQQU05JQ0EyMDQ4X3NlcnZlcjEgMB4G
CSqGSIb3DQEJARYRU05JQ0FAdGVzdF9jYS5jb20xDzANBgNVBAoTBkNJVFJJWDAe
Fw0xNzA4MjIwMTU5MzJaFw0yNzA4MjAwMTU5MzJaMGUxCzAJBgNVBAgTAktBMQsw
CQYDVQQGEwJJTjESMBAGA1UEAxQJKi5hYmMuY29tMSQwIgYJKoZIhvcNAQkBFhUq
LmFiYy5jb21AdGVzdF9jYS5jb20xDzANBgNVBAoTBkNJVFJJWDCCASIwDQYJKoZI
hvcNAQEBBQADggEPADCCAQoCggEBAKv7JTwPNFEEAJ26+5S9o9ZRFdsabC8ipMAy
YxJe2vSQIcd3s/P4yMgdO5NoSRY5PS2bkrzh2X27wQgi9KKMtE3QO5NvvuWoyC6u
CfyemmzLWHvKA5SfplPn225NVZQTVo/jTkR4r1bOWsl2ywoNc2EQxMRNs/jzC/q5
DHND9xDqfW9er/8ky2+PUiA//d0TrHiu9kKNwy9TdhBKR6CSa/5TtPXj2mwa1YAU
upUemOK0CA2WMO91fMfo0I2sEAQulurBua7aKyyq/jcET+xOyHbqCzaSp5+K6WkO
SUx2+3StIe1WUBv2VPA0JuY3qQIZ1Qh3zSSy2bL+VxSYiE1IAm0CAwEAAaOB2zCB
2DARBglghkgBhvhCAQEEBAMCBkAwCwYDVR0PBAQDAgXgMB0GA1UdDgQWBBRrwlAS
o/aEp0YDc3an/2JmyCONgDCBlgYDVR0jBIGOMIGLgBQ8Z6Jke7lizKhojSsdzjk6
u3VOZqFspGowaDELMAkGA1UECBMCS0ExCzAJBgNVBAYTAklOMRkwFwYDVQQDFBBU
d29DQTEwMjRfc2VydmVyMSAwHgYJKoZIhvcNAQkBFhFUd29DQUB0ZXN0X2NhLmNv
bTEPMA0GA1UEChMGQ0lUUklYggURIjNEVjANBgkqhkiG9w0BAQsFAAOCAQEAfmaa
8cQJQl5bx82kCIANdtIXQeUbsK30FJ7s1FVcMRRvdJsRqF3WTEeYWqS3WaVW9iwr
rQzCne1v09+PqWgDPuYpT+8qDQ48BUvY0nEx9VvTaH3cuvNxDFZvcuIdHHqmh2wZ
gvNSTxHqfF/dPuy4CW3MC8HVR0nmXNunc8bCcXc4r0GeBleLwJLYx6Q3jKYixxvG
V4yt24S0D+zQf+f8NYTk47KtTFcbT+sJLk+8dOhWjast5osNejlXrSLLJQu6X6fS
M4/z11qkDQ7kGFeujkWvl4ET8h7tnlySpqASq+y+OMAPTPcRsoiIjnUL40cm1oxg
FZsIJk8CFTBq9rHrZg==
-----END CERTIFICATE-----
