Certificate:
    Data:
        Version: 3 (0x2)
        Serial Number:
            05:0a:05:0a:05:0a:05:0a:00:00:02
    Signature Algorithm: sha256WithRSAEncryption
        Issuer: ST=KA, C=IN, CN=LevelThreeClientCA/emailAddress=LevelThreeClientCA@test_ca.com, O=CITRIX
        Validity
            Not Before: Feb 17 11:36:51 2016 GMT
            Not After : Feb 14 11:36:51 2026 GMT
        Subject: ST=KA, C=IN, CN=2048_sha2_client/emailAddress=2048_sha2_client@test_ca.com, O=CITRIX
        Subject Public Key Info:
            Public Key Algorithm: rsaEncryption
                Public-Key: (2048 bit)
                Modulus:
                    00:c0:6e:9c:79:25:10:77:33:20:39:94:86:0b:60:
                    da:e1:ea:cf:80:3b:12:2d:21:3e:bd:15:89:7e:21:
                    46:e2:a9:4c:73:1a:c2:fc:c2:b2:c9:67:14:e0:02:
                    44:ca:f2:6a:2c:9b:74:aa:3b:5b:25:38:2a:f2:6d:
                    d3:8e:ac:28:b9:a8:72:32:4b:05:75:5b:05:80:67:
                    8a:26:eb:14:42:2d:ee:ab:3f:bb:4c:42:11:b7:80:
                    75:f1:96:7c:16:95:39:32:f6:c7:45:22:5d:41:b5:
                    ec:79:71:65:51:2c:1f:18:35:08:b6:57:9b:1c:71:
                    03:f7:a4:20:e9:16:a1:e1:7f:5a:40:af:c0:dc:1a:
                    c8:04:9f:29:32:6b:37:48:65:21:2b:c8:51:78:7e:
                    d2:14:00:23:9a:ee:7e:2a:bf:75:b6:b1:00:62:c0:
                    c4:f0:b3:6f:3c:f2:e7:dd:9c:0c:8a:65:57:dc:5a:
                    40:46:e2:88:8f:a2:72:6c:52:dc:35:14:bf:8c:89:
                    a8:3d:9d:ac:75:bb:e7:f2:b7:33:a4:2b:7f:8c:fe:
                    51:77:8b:24:e6:0e:7b:3b:d1:7a:53:f1:67:a5:21:
                    96:6e:96:af:99:bd:2c:71:67:f0:7c:a1:c8:e1:f6:
                    46:f6:f5:2f:6a:ce:04:74:11:22:52:6a:6f:1f:76:
                    a8:e9
                Exponent: 65537 (0x10001)
        X509v3 extensions:
            X509v3 Basic Constraints: 
                CA:FALSE
            Netscape Cert Type: 
                SSL Client
            X509v3 Key Usage: 
                Digital Signature, Non Repudiation, Key Encipherment
            X509v3 Subject Key Identifier: 
                0F:EC:41:F3:39:D6:97:CF:C4:12:21:F3:47:CC:9B:9E:CC:8A:AF:BD
            X509v3 Authority Key Identifier: 
                keyid:DF:F5:69:E3:7D:93:55:F6:B4:A0:39:A4:93:AC:E4:90:F8:1D:6A:D2
                DirName:/ST=KA/C=IN/CN=LevelTwoClientCA/emailAddress=LevelTwoClientCA@test_ca.com/O=CITRIX
                serial:02:02:02:03:03:03

            X509v3 Certificate Policies: 
                Policy: testoid1
                Policy: 1.5.6.7.8

            X509v3 Policy Mappings: 
                0.10.11.12:0.1.2.3, 0.3.5.7:0.2.4.6
    Signature Algorithm: sha256WithRSAEncryption
         49:0c:e1:cd:b7:af:a9:ea:79:0c:2c:d0:38:fe:19:1c:ce:31:
         71:4c:c0:0e:86:27:f3:43:d8:49:d5:49:81:d4:c5:5b:c8:5c:
         33:f5:bb:5c:dd:e0:84:e8:6e:89:b1:90:48:14:7f:0b:c1:ec:
         34:b2:45:23:3a:f9:68:f4:aa:55:a7:17:ef:6e:c6:8b:c3:17:
         e7:ab:81:12:76:6b:bb:6b:43:7a:93:88:a7:50:f2:28:b6:a7:
         a9:67:e4:f4:c4:46:8f:d0:5d:1e:f3:41:68:16:da:ca:88:18:
         dc:46:81:2e:4c:62:28:7e:fc:d8:e3:56:ef:f9:ef:fc:cd:a5:
         26:ba:c8:75:5f:92:47:15:6d:36:cf:0a:10:fc:0e:af:3a:8c:
         35:ec:a3:12:a0:5b:22:ab:f0:db:3c:57:73:0f:50:1c:b7:c5:
         ad:87:42:0d:b5:b4:a6:07:f4:f5:6c:85:23:0c:96:62:28:1f:
         57:a3:75:cf:fb:d4:86:93:15:c1:a3:31:ba:a9:01:12:24:50:
         72:c5:58:2f:36:d2:c2:84:2a:91:03:b9:26:d1:3a:21:83:c4:
         ce:67:7a:27:42:41:44:04:a4:4e:f7:35:72:ca:13:3b:9f:5f:
         ca:1a:df:5d:7d:2e:77:a4:80:a3:64:4d:1a:1d:56:02:b8:b8:
         20:2b:dc:13
-----BEGIN CERTIFICATE-----
MIIEozCCA4ugAwIBAgILBQoFCgUKBQoAAAIwDQYJKoZIhvcNAQELBQAwdzELMAkG
A1UECBMCS0ExCzAJBgNVBAYTAklOMRswGQYDVQQDExJMZXZlbFRocmVlQ2xpZW50
Q0ExLTArBgkqhkiG9w0BCQEWHkxldmVsVGhyZWVDbGllbnRDQUB0ZXN0X2NhLmNv
bTEPMA0GA1UEChMGQ0lUUklYMB4XDTE2MDIxNzExMzY1MVoXDTI2MDIxNDExMzY1
MVowczELMAkGA1UECBMCS0ExCzAJBgNVBAYTAklOMRkwFwYDVQQDFBAyMDQ4X3No
YTJfY2xpZW50MSswKQYJKoZIhvcNAQkBFhwyMDQ4X3NoYTJfY2xpZW50QHRlc3Rf
Y2EuY29tMQ8wDQYDVQQKEwZDSVRSSVgwggEiMA0GCSqGSIb3DQEBAQUAA4IBDwAw
ggEKAoIBAQDAbpx5JRB3MyA5lIYLYNrh6s+AOxItIT69FYl+IUbiqUxzGsL8wrLJ
ZxTgAkTK8mosm3SqO1slOCrybdOOrCi5qHIySwV1WwWAZ4om6xRCLe6rP7tMQhG3
gHXxlnwWlTky9sdFIl1Btex5cWVRLB8YNQi2V5sccQP3pCDpFqHhf1pAr8DcGsgE
nykyazdIZSEryFF4ftIUACOa7n4qv3W2sQBiwMTws2888ufdnAyKZVfcWkBG4oiP
onJsUtw1FL+Miag9nax1u+fytzOkK3+M/lF3iyTmDns70XpT8WelIZZulq+ZvSxx
Z/B8ocjh9kb29S9qzgR0ESJSam8fdqjpAgMBAAGjggEyMIIBLjAJBgNVHRMEAjAA
MBEGCWCGSAGG+EIBAQQEAwIHgDALBgNVHQ8EBAMCBeAwHQYDVR0OBBYEFA/sQfM5
1pfPxBIh80fMm57Miq+9MIGiBgNVHSMEgZowgZeAFN/1aeN9k1X2tKA5pJOs5JD4
HWrSoXekdTBzMQswCQYDVQQIEwJLQTELMAkGA1UEBhMCSU4xGTAXBgNVBAMTEExl
dmVsVHdvQ2xpZW50Q0ExKzApBgkqhkiG9w0BCQEWHExldmVsVHdvQ2xpZW50Q0FA
dGVzdF9jYS5jb20xDzANBgNVBAoTBkNJVFJJWIIGAgICAwMDMBgGA1UdIAQRMA8w
BQYDKgMEMAYGBC0GBwgwIwYDVR0hBBwwgDAKBgMKCwwGAwECAzAKBgMDBQcGAwIE
BgAAMA0GCSqGSIb3DQEBCwUAA4IBAQBJDOHNt6+p6nkMLNA4/hkczjFxTMAOhifz
Q9hJ1UmB1MVbyFwz9btc3eCE6G6JsZBIFH8Lwew0skUjOvlo9KpVpxfvbsaLwxfn
q4ESdmu7a0N6k4inUPIotqepZ+T0xEaP0F0e80FoFtrKiBjcRoEuTGIofvzY41bv
+e/8zaUmush1X5JHFW02zwoQ/A6vOow17KMSoFsiq/DbPFdzD1Act8Wth0INtbSm
B/T1bIUjDJZiKB9Xo3XP+9SGkxXBozG6qQESJFByxVgvNtLChCqRA7km0Tohg8TO
Z3onQkFEBKRO9zVyyhM7n1/KGt9dfS53pICjZE0aHVYCuLggK9wT
-----END CERTIFICATE-----
