Certificate:
    Data:
        Version: 3 (0x2)
        Serial Number: 2207646941955 (0x20202030303)
    Signature Algorithm: sha256WithRSAEncryption
        Issuer: ST=KA, C=IN, CN=LevelTwoClientCA/emailAddress=LevelTwoClientCA@test_ca.com, O=CITRIX
        Validity
            Not Before: Feb 17 10:56:07 2016 GMT
            Not After : Feb 14 10:56:07 2026 GMT
        Subject: ST=KA, C=IN, CN=LevelThreeClientCA/emailAddress=LevelThreeClientCA@test_ca.com, O=CITRIX
        Subject Public Key Info:
            Public Key Algorithm: rsaEncryption
                Public-Key: (2048 bit)
                Modulus:
                    00:c6:da:b4:de:55:b4:04:e7:00:14:0a:c6:71:b3:
                    69:e5:8e:e9:4d:61:7e:62:23:8d:a1:2d:2a:db:bf:
                    90:b8:f6:eb:5c:0c:b1:ed:dd:e1:71:cd:77:86:5d:
                    47:0d:34:72:06:18:77:73:1e:dc:4d:b1:0a:27:a6:
                    9f:aa:d0:ae:04:2b:d8:ea:6b:e6:ae:e6:26:10:be:
                    48:21:58:5b:44:0d:61:74:81:c2:aa:db:aa:bc:c1:
                    f1:80:ca:32:d4:20:c0:1f:a3:97:af:7e:d5:6c:88:
                    e3:a5:93:1c:47:00:c3:06:dc:74:01:f7:f3:99:ec:
                    d8:24:de:fa:f8:5b:7e:36:ad:88:c7:15:03:12:4f:
                    1b:df:11:08:2b:89:0f:4a:2e:5a:93:73:79:d7:67:
                    14:6f:45:cd:c9:7b:3f:41:e7:b1:75:73:61:79:bb:
                    aa:67:b9:c5:49:4b:55:d4:bd:e4:7e:a5:be:ae:2c:
                    c7:19:2e:9d:d2:e7:bc:a8:23:21:46:3f:31:57:91:
                    ca:71:ea:5e:14:e1:7e:44:e9:02:a1:33:83:43:9d:
                    02:0e:78:8b:bc:b5:24:4c:34:53:ab:e1:e1:14:15:
                    8c:b8:5c:96:12:da:54:3b:5e:98:cd:78:b4:e8:c4:
                    39:b6:64:31:f0:d9:82:90:e1:0d:8e:15:76:6d:41:
                    37:d5
                Exponent: 65537 (0x10001)
        X509v3 extensions:
            X509v3 Basic Constraints: 
                CA:TRUE
            Authority Information Access: 
                CA Issuers - URI:http://server.whatever.org/cert-path

            X509v3 Subject Key Identifier: 
                DF:F5:69:E3:7D:93:55:F6:B4:A0:39:A4:93:AC:E4:90:F8:1D:6A:D2
            X509v3 Authority Key Identifier: 
                keyid:B5:0B:4F:81:20:F8:A9:E9:7A:37:35:F3:40:C6:1E:FD:40:C1:C0:FA
                DirName:/ST=KA/C=IN/CN=LevelOneClientCA/emailAddress=LevelOnetClientCA@test_ca.com/O=CITRIX
                serial:01:03:05:07

            X509v3 Certificate Policies: 
                Policy: testoid1
                Policy: 1.5.6.7.8
                Policy: 1.3.5.8
                  CPS: http://my.host.name/
                  CPS: http://my.your.name/
                  User Notice:
                    Organization: Organisation Name
                    Numbers: 1, 2, 3, 4
                    Explicit Text: Explicit Text Here

            X509v3 Policy Mappings: 
                0.10.11.12:0.1.2.3, 0.3.5.7:0.2.4.6
    Signature Algorithm: sha256WithRSAEncryption
         ab:3f:2d:40:09:6e:3a:c6:90:c2:3d:0b:dc:58:4f:2f:a2:07:
         15:6d:eb:3d:c6:2f:a7:53:17:2a:b9:f3:a1:2c:f0:e4:2b:4f:
         aa:7f:e4:2b:b3:d8:ef:5a:1b:5f:da:34:30:00:24:28:ab:38:
         02:97:90:3f:65:f6:cf:e6:79:cf:e2:0a:89:d5:ea:fd:09:25:
         92:f7:98:f8:25:89:a9:de:fd:58:7b:94:28:46:38:bd:21:d9:
         2e:d5:fa:11:da:b5:a8:83:23:64:60:cf:6a:2f:b3:03:c1:5b:
         6b:d9:33:7a:50:09:2a:3d:b6:f2:c7:d3:be:ba:14:95:d9:f7:
         88:2c:3f:38:76:68:dc:68:a7:65:94:53:c3:8e:54:d3:98:aa:
         d6:14:f5:13:b7:0d:de:a3:24:c4:fe:a1:4c:f1:56:cb:78:e2:
         bc:48:31:6f:7a:31:1c:f5:37:e2:2b:0e:6e:bc:af:f2:2b:c3:
         08:6d:ee:c6:64:97:61:c4:a4:b7:12:b9:5f:91:db:f4:c0:80:
         cc:a9:7f:50:4d:98:5f:5e:57:ae:e4:50:22:d2:b6:a1:e9:ad:
         a3:a0:e1:b7:91:78:61:46:33:3b:d0:ea:8c:d2:ec:db:e1:00:
         4b:cc:3c:22:48:bd:3a:f5:b5:0a:21:0f:a5:7a:54:3f:f9:43:
         ea:9a:46:53:bb:6a:96:ac:d5:5d:2b:f8:eb:b8:48:51:a7:56:
         3d:46:8e:af:61:ed:cd:67:e2:9e:fe:80:9b:c7:39:2d:d3:95:
         ec:e0:0c:2f:83:0a:4b:ba:4a:d9:ad:6a:5f:a8:b2:66:ec:6d:
         6b:fb:d2:e5:c5:47:5a:be:3a:d8:46:57:0b:96:22:94:f4:e3:
         49:83:7f:ea:de:25:ad:7e:b5:6a:26:e2:78:64:e6:7c:4c:4d:
         1a:d6:32:a4:7a:a2:5f:00:05:ff:13:cc:ed:b4:0b:b9:52:0a:
         23:39:35:19:1d:1e:3e:53:8c:d7:37:83:24:97:91:b0:bb:77:
         9b:78:64:68:66:ab:0a:30:1d:f9:bb:6c:43:38:3a:55:ea:16:
         36:78:e3:2d:15:7d:01:20:ec:c2:37:8d:41:1e:ec:65:94:dc:
         64:08:e3:40:af:3a:a0:0c:63:54:e2:bd:fa:bf:63:90:42:84:
         ff:93:63:7b:43:42:d8:97:27:50:71:f6:df:9d:e1:33:e0:97:
         4b:f9:b2:8e:f7:3a:a8:ea:2a:64:b8:1f:17:2c:4c:3e:ac:f0:
         65:c6:5e:a1:6e:4d:15:5d:ee:0e:be:5f:f2:9e:33:a4:2e:f7:
         54:6a:42:52:7f:67:69:a1:83:ab:92:ed:74:09:3a:3e:4a:e4:
         e9:b1:96:e7:43:e9:6a:dd
-----BEGIN CERTIFICATE-----
MIIGWTCCBEGgAwIBAgIGAgICAwMDMA0GCSqGSIb3DQEBCwUAMHMxCzAJBgNVBAgT
AktBMQswCQYDVQQGEwJJTjEZMBcGA1UEAxMQTGV2ZWxUd29DbGllbnRDQTErMCkG
CSqGSIb3DQEJARYcTGV2ZWxUd29DbGllbnRDQUB0ZXN0X2NhLmNvbTEPMA0GA1UE
ChMGQ0lUUklYMB4XDTE2MDIxNzEwNTYwN1oXDTI2MDIxNDEwNTYwN1owdzELMAkG
A1UECBMCS0ExCzAJBgNVBAYTAklOMRswGQYDVQQDExJMZXZlbFRocmVlQ2xpZW50
Q0ExLTArBgkqhkiG9w0BCQEWHkxldmVsVGhyZWVDbGllbnRDQUB0ZXN0X2NhLmNv
bTEPMA0GA1UEChMGQ0lUUklYMIIBIjANBgkqhkiG9w0BAQEFAAOCAQ8AMIIBCgKC
AQEAxtq03lW0BOcAFArGcbNp5Y7pTWF+YiONoS0q27+QuPbrXAyx7d3hcc13hl1H
DTRyBhh3cx7cTbEKJ6afqtCuBCvY6mvmruYmEL5IIVhbRA1hdIHCqtuqvMHxgMoy
1CDAH6OXr37VbIjjpZMcRwDDBtx0AffzmezYJN76+Ft+Nq2IxxUDEk8b3xEIK4kP
Si5ak3N512cUb0XNyXs/QeexdXNhebuqZ7nFSUtV1L3kfqW+rizHGS6d0ue8qCMh
Rj8xV5HKcepeFOF+ROkCoTODQ50CDniLvLUkTDRTq+HhFBWMuFyWEtpUO16YzXi0
6MQ5tmQx8NmCkOENjhV2bUE31QIDAQABo4IB7TCCAekwDAYDVR0TBAUwAwEB/zBA
BggrBgEFBQcBAQQ0MDIwMAYIKwYBBQUHMAKGJGh0dHA6Ly9zZXJ2ZXIud2hhdGV2
ZXIub3JnL2NlcnQtcGF0aDAdBgNVHQ4EFgQU3/Vp432TVfa0oDmkk6zkkPgdatIw
gaEGA1UdIwSBmTCBloAUtQtPgSD4qel6NzXzQMYe/UDBwPqheKR2MHQxCzAJBgNV
BAgTAktBMQswCQYDVQQGEwJJTjEZMBcGA1UEAxMQTGV2ZWxPbmVDbGllbnRDQTEs
MCoGCSqGSIb3DQEJARYdTGV2ZWxPbmV0Q2xpZW50Q0FAdGVzdF9jYS5jb20xDzAN
BgNVBAoTBkNJVFJJWIIEAQMFBzCBrgYDVR0gBIGmMIGjMAUGAyoDBDAGBgQtBgcI
MIGRBgMrBQgwgYkwIAYIKwYBBQUHAgEWFGh0dHA6Ly9teS5ob3N0Lm5hbWUvMCAG
CCsGAQUFBwIBFhRodHRwOi8vbXkueW91ci5uYW1lLzBDBggrBgEFBQcCAjA3MCEW
EU9yZ2FuaXNhdGlvbiBOYW1lMAwCAQECAQICAQMCAQQaEkV4cGxpY2l0IFRleHQg
SGVyZTAjBgNVHSEEHDCAMAoGAwoLDAYDAQIDMAoGAwMFBwYDAgQGAAAwDQYJKoZI
hvcNAQELBQADggIBAKs/LUAJbjrGkMI9C9xYTy+iBxVt6z3GL6dTFyq586Es8OQr
T6p/5Cuz2O9aG1/aNDAAJCirOAKXkD9l9s/mec/iConV6v0JJZL3mPgliane/Vh7
lChGOL0h2S7V+hHataiDI2Rgz2ovswPBW2vZM3pQCSo9tvLH0766FJXZ94gsPzh2
aNxop2WUU8OOVNOYqtYU9RO3Dd6jJMT+oUzxVst44rxIMW96MRz1N+IrDm68r/Ir
wwht7sZkl2HEpLcSuV+R2/TAgMypf1BNmF9eV67kUCLStqHpraOg4beReGFGMzvQ
6ozS7NvhAEvMPCJIvTr1tQohD6V6VD/5Q+qaRlO7apas1V0r+Ou4SFGnVj1Gjq9h
7c1n4p7+gJvHOS3TlezgDC+DCku6Stmtal+osmbsbWv70uXFR1q+OthGVwuWIpT0
40mDf+reJa1+tWom4nhk5nxMTRrWMqR6ol8ABf8TzO20C7lSCiM5NRkdHj5TjNc3
gySXkbC7d5t4ZGhmqwowHfm7bEM4OlXqFjZ44y0VfQEg7MI3jUEe7GWU3GQI40Cv
OqAMY1Tivfq/Y5BChP+TY3tDQtiXJ1Bx9t+d4TPgl0v5so73OqjqKmS4HxcsTD6s
8GXGXqFuTRVd7g6+X/KeM6Qu91RqQlJ/Z2mhg6uS7XQJOj5K5OmxludD6Wrd
-----END CERTIFICATE-----
