Certificate:
    Data:
        Version: 3 (0x2)
        Serial Number: 16975111 (0x1030507)
    Signature Algorithm: sha256WithRSAEncryption
        Issuer: ST=KA, C=IN, CN=LevelOneClientCA/emailAddress=LevelOnetClientCA@test_ca.com, O=CITRIX
        Validity
            Not Before: Feb 17 10:48:28 2016 GMT
            Not After : Feb 14 10:48:28 2026 GMT
        Subject: ST=KA, C=IN, CN=LevelTwoClientCA/emailAddress=LevelTwoClientCA@test_ca.com, O=CITRIX
        Subject Public Key Info:
            Public Key Algorithm: rsaEncryption
                Public-Key: (4096 bit)
                Modulus:
                    00:b4:ad:9d:27:60:45:ff:07:72:14:d7:62:79:7a:
                    90:c1:25:2f:b6:30:84:99:48:ee:33:96:02:73:47:
                    e4:f8:59:9b:2b:5a:35:d3:1c:d0:08:46:3e:6c:b0:
                    13:18:3b:57:d3:19:bf:44:a0:6f:cb:e4:e6:09:a3:
                    36:59:3e:1b:8b:bb:f1:7a:0a:a9:a0:32:17:aa:a4:
                    24:87:0f:78:38:eb:b7:d4:14:93:04:8b:ea:4a:9f:
                    4d:d3:a2:c1:8c:c4:d7:14:93:7e:03:37:75:93:13:
                    c7:00:91:90:81:0b:12:92:53:09:07:82:c7:0a:13:
                    10:0a:39:76:c9:90:0b:15:97:45:20:57:a3:bf:8a:
                    a1:0d:8a:74:ea:73:35:78:53:d5:9b:5f:d7:b5:6b:
                    9c:66:56:4c:02:c6:40:d6:a4:9b:a0:f7:18:8d:69:
                    25:d5:94:22:b0:80:d3:be:d3:e7:04:fd:38:ce:01:
                    6e:29:2a:c9:34:42:13:9d:37:59:05:17:45:11:2b:
                    1b:c6:36:68:75:bb:2c:a8:8d:bc:e4:2d:2c:13:1c:
                    ed:9f:0c:eb:61:58:09:c8:14:48:ef:5d:6a:00:5b:
                    86:48:de:ce:31:cb:94:f1:b3:df:2e:ec:04:90:cd:
                    88:2c:e7:79:02:83:be:0d:6d:94:7a:c1:3a:86:32:
                    f1:e4:8f:80:c1:31:4c:d9:45:e7:3b:ae:ab:81:5d:
                    e4:54:50:5d:c8:ca:54:dd:27:c7:15:2e:64:ce:a5:
                    e0:8c:80:18:c9:36:08:e9:b7:77:84:ed:cd:89:10:
                    4a:23:e9:e5:e8:27:6e:21:6a:bc:c0:de:6f:6b:bc:
                    8c:9b:8b:45:19:7b:7e:9a:af:b1:97:b3:86:73:ef:
                    a6:69:67:7f:91:53:00:9e:88:ba:ca:51:12:2d:22:
                    04:8d:3c:7b:83:75:ca:b4:79:1c:7a:1e:f9:f7:83:
                    f6:b2:b5:dd:59:8a:81:d2:b5:8d:0a:37:ba:52:9b:
                    a1:d7:78:6c:82:95:d2:6b:fa:bf:43:c7:9e:92:89:
                    f1:a9:fa:46:88:4f:56:6e:ee:e2:97:82:9a:4f:bb:
                    ce:50:2c:cc:d8:41:2f:12:4e:f0:2a:b7:6a:7d:22:
                    2e:bc:6b:a2:f8:91:a8:e2:f5:9e:13:26:74:2a:ce:
                    f6:a4:9f:2a:26:96:6e:af:2b:ae:fc:47:bf:ba:93:
                    bb:4f:0e:18:1b:f5:60:04:d4:e8:36:d1:4b:91:df:
                    36:97:05:ca:d8:da:bb:a6:7d:fc:46:0b:55:1c:f5:
                    b6:4b:b0:25:83:af:fe:2c:4b:64:5f:64:cd:49:3e:
                    9c:25:2f:a5:12:95:3b:c1:4a:07:8a:01:a3:fe:db:
                    94:3d:8f
                Exponent: 65537 (0x10001)
        X509v3 extensions:
            X509v3 Basic Constraints: 
                CA:TRUE
            Authority Information Access: 
                CA Issuers - URI:http://server.whatever.org/cert-path

            X509v3 Subject Key Identifier: 
                B5:0B:4F:81:20:F8:A9:E9:7A:37:35:F3:40:C6:1E:FD:40:C1:C0:FA
            X509v3 Authority Key Identifier: 
                keyid:6C:C6:8A:2D:AE:B3:2D:92:A9:1D:CE:DB:74:03:F1:85:9C:46:76:D4
                DirName:/CN=ClientRootCA/ST=KA/C=IN/emailAddress=ClientRootCA@testca.com/O=CITRIX
                serial:09:08:07:06:05:04

            X509v3 Certificate Policies: 
                Policy: testoid1
                Policy: 1.5.6.7.8
                Policy: 1.3.5.8
                  CPS: http://my.host.name/
                  CPS: http://my.your.name/
                  User Notice:
                    Organization: Organisation Name
                    Numbers: 1, 2, 3, 4
                    Explicit Text: Explicit Text Here

            X509v3 Policy Mappings: 
                0.10.11.12:0.1.2.3, 0.3.5.7:0.2.4.6
    Signature Algorithm: sha256WithRSAEncryption
         48:30:d6:b7:b5:8b:83:e3:f1:55:fb:ad:12:fd:30:d8:85:5b:
         8e:66:1f:fa:28:c2:76:a8:b8:d3:29:d6:75:93:a4:ff:fd:b5:
         ca:e5:a8:d6:ad:be:32:81:45:6e:cb:4f:2c:a8:9f:52:ec:58:
         fd:cf:06:0c:9c:33:bd:5c:e9:ce:ad:0b:eb:21:06:55:f0:aa:
         b6:5c:ff:ca:cc:a5:5b:a5:f6:27:1e:d8:d4:96:c0:65:b6:c6:
         07:87:c4:dd:9c:27:b7:75:3b:b8:f2:6e:f9:8f:04:d4:ca:e2:
         49:31:c7:23:dc:9d:be:70:2d:7c:d8:c3:d0:7e:d5:93:d4:5a:
         ad:27:06:3d:1a:06:cf:51:b6:71:71:9b:c8:8b:61:84:a6:b8:
         c0:47:30:98:db:62:21:24:b9:bd:fb:f3:9e:b1:6b:b1:1f:5d:
         2d:55:6c:fd:5b:a0:64:18:0d:e1:3c:d3:39:ac:f2:24:fd:48:
         e0:1b:18:41:9b:c1:a6:3c:35:3d:3b:08:f0:a3:6b:6e:3b:88:
         bb:54:4a:37:17:4d:cf:e1:d4:00:57:40:da:31:d4:7e:f9:63:
         25:b0:e8:e5:69:57:ee:ef:c8:6c:a4:84:67:75:bb:bf:2a:20:
         12:17:a6:2d:4c:95:47:60:6d:23:31:76:56:37:70:6d:17:b2:
         2f:cd:59:71
-----BEGIN CERTIFICATE-----
MIIGTDCCBTSgAwIBAgIEAQMFBzANBgkqhkiG9w0BAQsFADB0MQswCQYDVQQIEwJL
QTELMAkGA1UEBhMCSU4xGTAXBgNVBAMTEExldmVsT25lQ2xpZW50Q0ExLDAqBgkq
hkiG9w0BCQEWHUxldmVsT25ldENsaWVudENBQHRlc3RfY2EuY29tMQ8wDQYDVQQK
EwZDSVRSSVgwHhcNMTYwMjE3MTA0ODI4WhcNMjYwMjE0MTA0ODI4WjBzMQswCQYD
VQQIEwJLQTELMAkGA1UEBhMCSU4xGTAXBgNVBAMTEExldmVsVHdvQ2xpZW50Q0Ex
KzApBgkqhkiG9w0BCQEWHExldmVsVHdvQ2xpZW50Q0FAdGVzdF9jYS5jb20xDzAN
BgNVBAoTBkNJVFJJWDCCAiIwDQYJKoZIhvcNAQEBBQADggIPADCCAgoCggIBALSt
nSdgRf8HchTXYnl6kMElL7YwhJlI7jOWAnNH5PhZmytaNdMc0AhGPmywExg7V9MZ
v0Sgb8vk5gmjNlk+G4u78XoKqaAyF6qkJIcPeDjrt9QUkwSL6kqfTdOiwYzE1xST
fgM3dZMTxwCRkIELEpJTCQeCxwoTEAo5dsmQCxWXRSBXo7+KoQ2KdOpzNXhT1Ztf
17VrnGZWTALGQNakm6D3GI1pJdWUIrCA077T5wT9OM4BbikqyTRCE503WQUXRREr
G8Y2aHW7LKiNvOQtLBMc7Z8M62FYCcgUSO9dagBbhkjezjHLlPGz3y7sBJDNiCzn
eQKDvg1tlHrBOoYy8eSPgMExTNlF5zuuq4Fd5FRQXcjKVN0nxxUuZM6l4IyAGMk2
COm3d4TtzYkQSiPp5egnbiFqvMDeb2u8jJuLRRl7fpqvsZezhnPvpmlnf5FTAJ6I
uspREi0iBI08e4N1yrR5HHoe+feD9rK13VmKgdK1jQo3ulKbodd4bIKV0mv6v0PH
npKJ8an6RohPVm7u4peCmk+7zlAszNhBLxJO8Cq3an0iLrxroviRqOL1nhMmdCrO
9qSfKiaWbq8rrvxHv7qTu08OGBv1YATU6DbRS5HfNpcFytjau6Z9/EYLVRz1tkuw
JYOv/ixLZF9kzUk+nCUvpRKVO8FKB4oBo/7blD2PAgMBAAGjggHlMIIB4TAMBgNV
HRMEBTADAQH/MEAGCCsGAQUFBwEBBDQwMjAwBggrBgEFBQcwAoYkaHR0cDovL3Nl
cnZlci53aGF0ZXZlci5vcmcvY2VydC1wYXRoMB0GA1UdDgQWBBS1C0+BIPip6Xo3
NfNAxh79QMHA+jCBmQYDVR0jBIGRMIGOgBRsxootrrMtkqkdztt0A/GFnEZ21KFu
pGwwajEVMBMGA1UEAxMMQ2xpZW50Um9vdENBMQswCQYDVQQIEwJLQTELMAkGA1UE
BhMCSU4xJjAkBgkqhkiG9w0BCQEWF0NsaWVudFJvb3RDQUB0ZXN0Y2EuY29tMQ8w
DQYDVQQKEwZDSVRSSViCBgkIBwYFBDCBrgYDVR0gBIGmMIGjMAUGAyoDBDAGBgQt
BgcIMIGRBgMrBQgwgYkwIAYIKwYBBQUHAgEWFGh0dHA6Ly9teS5ob3N0Lm5hbWUv
MCAGCCsGAQUFBwIBFhRodHRwOi8vbXkueW91ci5uYW1lLzBDBggrBgEFBQcCAjA3
MCEWEU9yZ2FuaXNhdGlvbiBOYW1lMAwCAQECAQICAQMCAQQaEkV4cGxpY2l0IFRl
eHQgSGVyZTAjBgNVHSEEHDCAMAoGAwoLDAYDAQIDMAoGAwMFBwYDAgQGAAAwDQYJ
KoZIhvcNAQELBQADggEBAEgw1re1i4Pj8VX7rRL9MNiFW45mH/oownaouNMp1nWT
pP/9tcrlqNatvjKBRW7LTyyon1LsWP3PBgycM71c6c6tC+shBlXwqrZc/8rMpVul
9ice2NSWwGW2xgeHxN2cJ7d1O7jybvmPBNTK4kkxxyPcnb5wLXzYw9B+1ZPUWq0n
Bj0aBs9RtnFxm8iLYYSmuMBHMJjbYiEkub37856xa7EfXS1VbP1boGQYDeE80zms
8iT9SOAbGEGbwaY8NT07CPCja247iLtUSjcXTc/h1ABXQNox1H75YyWw6OVpV+7v
yGykhGd1u78qIBIXpi1MlUdgbSMxdlY3cG0Xsi/NWXE=
-----END CERTIFICATE-----
