Certificate:
    Data:
        Version: 3 (0x2)
        Serial Number:
            01:0a:02:0b:03:0c:04:0d:05:0e:06:0f:00:00:01:02:03:04:06
    Signature Algorithm: sha1WithRSAEncryption
        Issuer: ST=KA, C=IN, CN=LevelTwoTestCA/emailAddress=LevelTwoTestCA@test_ca.com, O=CITRIX
        Validity
            Not Before: Feb 17 09:44:52 2016 GMT
            Not After : Feb 14 09:44:52 2026 GMT
        Subject: ST=KA, C=IN, CN=server_two_l2_client/emailAddress=server_two_l2@test_ca.com, O=CITRIX
        Subject Public Key Info:
            Public Key Algorithm: rsaEncryption
                Public-Key: (2048 bit)
                Modulus:
                    00:c2:c8:12:67:6d:3c:a8:2e:15:91:48:d5:d6:49:
                    a0:5b:09:ec:0b:e1:00:c2:e9:77:fd:ac:c3:07:bf:
                    75:97:db:2f:8e:a1:33:d0:c1:a5:52:d3:d4:9f:b3:
                    b1:96:a0:6f:22:3d:fb:41:81:74:d5:d9:1b:31:46:
                    a3:97:4f:1b:29:2a:c7:e3:83:e0:af:e3:d0:ca:b0:
                    38:94:06:45:a7:66:6f:b5:5b:80:ec:2f:0f:a9:f1:
                    ae:a6:1c:76:cc:56:ea:3e:f9:79:34:74:06:5d:6d:
                    f8:30:34:58:0d:08:5b:0d:a8:48:25:e6:80:de:07:
                    8c:92:6b:c2:41:43:c5:3b:7d:34:ba:47:de:1e:8f:
                    2f:93:b0:94:92:42:3d:a1:4b:48:68:bb:03:7d:13:
                    bc:9a:e7:5f:aa:f0:c3:35:46:ef:04:a4:d0:92:b7:
                    8a:7b:78:c4:22:43:62:c4:49:05:42:c3:a1:77:8f:
                    1c:4b:92:45:07:dc:a3:66:d3:37:96:6d:d1:b7:f2:
                    8c:c8:97:ac:32:fc:3f:32:48:18:c0:7d:a7:06:62:
                    6f:cf:11:15:81:5f:13:7b:ee:c7:4f:9d:6c:02:fb:
                    1c:6b:0b:8b:3b:33:f0:82:6b:bd:7a:d0:b4:c0:61:
                    f9:ea:c7:9f:7d:1a:f9:63:6c:ba:99:2d:6e:e9:db:
                    f0:3b
                Exponent: 65537 (0x10001)
        X509v3 extensions:
            X509v3 Basic Constraints: 
                CA:FALSE
            X509v3 Key Usage: 
                Digital Signature, Non Repudiation, Key Encipherment
            X509v3 Subject Alternative Name: 
                DNS:altname-2-1.myca.com, DNS:altname-2-2.myca.com, DNS:altname-2-3.myca.com, DNS:altname-2-4.myca.com, email:mail-2-1@myca.com, email:mail-2-2@myca.com
            Authority Information Access: 
                CA Issuers - URI:http://server.whatever.org/cert-path

            X509v3 Subject Key Identifier: 
                5B:41:00:1E:10:B6:B8:75:C8:58:A7:51:33:9F:C8:A2:92:C3:B4:F8
            X509v3 Authority Key Identifier: 
                keyid:A5:DA:F5:FA:0A:E7:79:0E:74:46:A2:94:CE:9D:8A:5E:99:64:A3:9D
                DirName:/ST=KA/C=IN/CN=LevelOneTestCA/emailAddress=LevelOneTestCA@test_ca.com/O=CITRIX
                serial:05:07:09:0A

            X509v3 Certificate Policies: 
                Policy: 1.5.7.4
                Policy: 1.5.9.7.8

    Signature Algorithm: sha1WithRSAEncryption
         90:ca:21:ff:7e:fc:79:5c:7b:58:54:26:44:02:35:62:51:c1:
         4a:73:13:a1:7b:98:9e:0e:a5:56:31:5f:4f:01:ce:79:32:9f:
         9c:fd:42:7b:38:cc:8e:7c:b3:6e:7c:be:bd:04:c2:d3:02:84:
         f4:53:d2:29:84:b2:51:90:5b:4e:33:c3:f9:df:85:e1:7e:33:
         d9:16:4b:ee:93:b1:d2:cf:8c:57:c9:09:4c:6a:88:69:45:b0:
         60:98:3f:5f:f7:0c:23:3c:ab:fa:07:7d:6b:5a:d3:ab:58:13:
         3c:81:0d:87:c0:01:75:19:e0:69:27:a6:6d:69:21:06:e5:dd:
         8d:26:64:96:fc:31:a4:ff:1b:51:30:80:31:9d:f2:1a:73:c1:
         73:4b:3f:7f:cb:81:9b:8c:11:28:1a:5e:42:61:38:ac:26:a2:
         ab:6f:c4:f8:2c:ce:be:69:b7:e0:98:4a:ce:27:fa:67:34:56:
         fc:82:5d:97:02:9d:a9:41:e0:9e:e2:5c:8d:e3:3f:e7:59:93:
         ae:f5:5b:b6:50:90:ef:3f:21:7e:99:c2:ec:d2:c6:97:5b:2c:
         b3:24:47:b3:05:3f:34:71:39:f0:19:a8:37:8e:4d:6f:21:db:
         d4:ee:5d:5d:3c:69:cb:65:d9:7c:60:b0:84:d4:56:80:77:7d:
         d2:2e:ef:b6
-----BEGIN CERTIFICATE-----
MIIFMzCCBBugAwIBAgITAQoCCwMMBA0FDgYPAAABAgMEBjANBgkqhkiG9w0BAQUF
ADBvMQswCQYDVQQIEwJLQTELMAkGA1UEBhMCSU4xFzAVBgNVBAMTDkxldmVsVHdv
VGVzdENBMSkwJwYJKoZIhvcNAQkBFhpMZXZlbFR3b1Rlc3RDQUB0ZXN0X2NhLmNv
bTEPMA0GA1UEChMGQ0lUUklYMB4XDTE2MDIxNzA5NDQ1MloXDTI2MDIxNDA5NDQ1
MlowdDELMAkGA1UECBMCS0ExCzAJBgNVBAYTAklOMR0wGwYDVQQDFBRzZXJ2ZXJf
dHdvX2wyX2NsaWVudDEoMCYGCSqGSIb3DQEJARYZc2VydmVyX3R3b19sMkB0ZXN0
X2NhLmNvbTEPMA0GA1UEChMGQ0lUUklYMIIBIjANBgkqhkiG9w0BAQEFAAOCAQ8A
MIIBCgKCAQEAwsgSZ208qC4VkUjV1kmgWwnsC+EAwul3/azDB791l9svjqEz0MGl
UtPUn7OxlqBvIj37QYF01dkbMUajl08bKSrH44Pgr+PQyrA4lAZFp2ZvtVuA7C8P
qfGuphx2zFbqPvl5NHQGXW34MDRYDQhbDahIJeaA3geMkmvCQUPFO300ukfeHo8v
k7CUkkI9oUtIaLsDfRO8mudfqvDDNUbvBKTQkreKe3jEIkNixEkFQsOhd48cS5JF
B9yjZtM3lm3Rt/KMyJesMvw/MkgYwH2nBmJvzxEVgV8Te+7HT51sAvscawuLOzPw
gmu9etC0wGH56seffRr5Y2y6mS1u6dvwOwIDAQABo4IBwTCCAb0wCQYDVR0TBAIw
ADALBgNVHQ8EBAMCBeAwgYgGA1UdEQSBgDB+ghRhbHRuYW1lLTItMS5teWNhLmNv
bYIUYWx0bmFtZS0yLTIubXljYS5jb22CFGFsdG5hbWUtMi0zLm15Y2EuY29tghRh
bHRuYW1lLTItNC5teWNhLmNvbYERbWFpbC0yLTFAbXljYS5jb22BEW1haWwtMi0y
QG15Y2EuY29tMEAGCCsGAQUFBwEBBDQwMjAwBggrBgEFBQcwAoYkaHR0cDovL3Nl
cnZlci53aGF0ZXZlci5vcmcvY2VydC1wYXRoMB0GA1UdDgQWBBRbQQAeELa4dchY
p1Ezn8iiksO0+DCBnAYDVR0jBIGUMIGRgBSl2vX6Cud5DnRGopTOnYpemWSjnaFz
pHEwbzELMAkGA1UECBMCS0ExCzAJBgNVBAYTAklOMRcwFQYDVQQDEw5MZXZlbE9u
ZVRlc3RDQTEpMCcGCSqGSIb3DQEJARYaTGV2ZWxPbmVUZXN0Q0FAdGVzdF9jYS5j
b20xDzANBgNVBAoTBkNJVFJJWIIEBQcJCjAYBgNVHSAEETAPMAUGAy0HBDAGBgQt
CQcIMA0GCSqGSIb3DQEBBQUAA4IBAQCQyiH/fvx5XHtYVCZEAjViUcFKcxOhe5ie
DqVWMV9PAc55Mp+c/UJ7OMyOfLNufL69BMLTAoT0U9IphLJRkFtOM8P534XhfjPZ
Fkvuk7HSz4xXyQlMaohpRbBgmD9f9wwjPKv6B31rWtOrWBM8gQ2HwAF1GeBpJ6Zt
aSEG5d2NJmSW/DGk/xtRMIAxnfIac8FzSz9/y4GbjBEoGl5CYTisJqKrb8T4LM6+
abfgmErOJ/pnNFb8gl2XAp2pQeCe4lyN4z/nWZOu9Vu2UJDvPyF+mcLs0saXWyyz
JEezBT80cTnwGag3jk1vIdvU7l1dPGnLZdl8YLCE1FaAd33SLu+2
-----END CERTIFICATE-----
