Certificate:
    Data:
        Version: 3 (0x2)
        Serial Number:
            01:0a:02:0b:03:0c:04:0d:05:0e:06:0f:00:00:01:02:03:04:05
    Signature Algorithm: sha1WithRSAEncryption
        Issuer: ST=KA, C=IN, CN=LevelTwoTestCA/emailAddress=LevelTwoTestCA@test_ca.com, O=CITRIX
        Validity
            Not Before: Feb 17 09:43:04 2016 GMT
            Not After : Feb 14 09:43:04 2026 GMT
        Subject: ST=KA, C=IN, CN=server_one_l2_client/emailAddress=server_one_l2@test_ca.com, O=CITRIX
        Subject Public Key Info:
            Public Key Algorithm: rsaEncryption
                Public-Key: (1024 bit)
                Modulus:
                    00:c8:8a:35:a3:1b:0e:00:d2:35:78:15:d8:32:e4:
                    a6:6d:0d:b6:2d:ea:f4:49:b2:bd:74:83:50:41:1a:
                    74:b3:a7:f4:82:9a:c4:17:15:fa:2a:ca:08:39:da:
                    a1:39:d8:04:f6:f3:69:27:89:64:1a:15:d3:59:f8:
                    00:95:90:24:82:64:8b:a1:d9:3a:9e:77:15:e5:c6:
                    0e:3e:df:7a:e0:5b:b9:1b:d9:93:46:c4:67:4d:1c:
                    d5:02:75:b5:a1:2c:50:e5:48:5a:ff:a4:8b:e5:ce:
                    5f:b3:15:c2:9f:30:4d:a2:83:7a:80:57:2f:4b:bb:
                    88:07:8b:03:e3:a2:73:bb:75
                Exponent: 65537 (0x10001)
        X509v3 extensions:
            X509v3 Basic Constraints: 
                CA:FALSE
            X509v3 Key Usage: 
                Digital Signature, Non Repudiation, Key Encipherment
            X509v3 Subject Alternative Name: 
                DNS:altname-2-1.myca.com, DNS:altname-2-2.myca.com, DNS:altname-2-3.myca.com, DNS:altname-2-4.myca.com, email:mail-2-1@myca.com, email:mail-2-2@myca.com
            Authority Information Access: 
                CA Issuers - URI:http://server.whatever.org/cert-path

            X509v3 Subject Key Identifier: 
                AA:B5:03:D6:C0:C3:B5:58:BD:E7:5E:24:37:88:76:BB:D3:4D:CD:33
            X509v3 Authority Key Identifier: 
                keyid:A5:DA:F5:FA:0A:E7:79:0E:74:46:A2:94:CE:9D:8A:5E:99:64:A3:9D
                DirName:/ST=KA/C=IN/CN=LevelOneTestCA/emailAddress=LevelOneTestCA@test_ca.com/O=CITRIX
                serial:05:07:09:0A

            X509v3 Certificate Policies: 
                Policy: 1.5.7.4
                Policy: 1.5.9.7.8

    Signature Algorithm: sha1WithRSAEncryption
         17:2c:9d:5c:24:4a:aa:8f:1d:ab:9d:ea:2e:0a:fd:58:d2:4d:
         41:53:6e:68:cf:21:33:9a:53:6c:20:54:80:37:b9:f4:ce:50:
         87:3d:59:78:31:ba:8f:4b:2f:cd:54:d8:b8:c3:14:1a:22:82:
         cb:b5:e6:67:da:95:de:36:14:73:93:49:f7:2d:14:02:23:f4:
         00:bd:12:7d:c9:4d:8a:f1:49:73:13:82:37:88:6f:f3:46:08:
         99:aa:e9:90:bd:b7:06:20:9c:b8:68:b3:0e:05:ba:45:83:e1:
         31:5a:3c:ff:2e:2d:55:ea:30:36:d3:34:45:cf:56:0b:67:18:
         52:6e:22:e5:f3:27:83:37:a9:c4:4b:3e:98:fa:71:96:92:7c:
         5a:80:a7:4f:02:f9:4c:7d:4a:4c:06:4b:b8:51:b5:dd:f3:34:
         a8:39:ab:64:9b:34:ca:9b:d9:58:d9:55:c5:c1:44:5c:e5:22:
         dc:16:82:50:0a:65:16:74:0a:b5:85:e7:fb:84:77:7e:1f:6a:
         4f:85:f8:eb:f6:0b:85:89:8b:e2:fb:46:fb:c9:83:dc:21:77:
         7c:9a:3b:cf:db:66:42:c8:97:43:3c:7e:e1:68:bd:0d:b9:3d:
         16:41:41:2c:3b:e5:1c:21:68:32:83:3f:46:79:74:5f:72:6f:
         ba:6f:91:88
-----BEGIN CERTIFICATE-----
MIIErzCCA5egAwIBAgITAQoCCwMMBA0FDgYPAAABAgMEBTANBgkqhkiG9w0BAQUF
ADBvMQswCQYDVQQIEwJLQTELMAkGA1UEBhMCSU4xFzAVBgNVBAMTDkxldmVsVHdv
VGVzdENBMSkwJwYJKoZIhvcNAQkBFhpMZXZlbFR3b1Rlc3RDQUB0ZXN0X2NhLmNv
bTEPMA0GA1UEChMGQ0lUUklYMB4XDTE2MDIxNzA5NDMwNFoXDTI2MDIxNDA5NDMw
NFowdDELMAkGA1UECBMCS0ExCzAJBgNVBAYTAklOMR0wGwYDVQQDFBRzZXJ2ZXJf
b25lX2wyX2NsaWVudDEoMCYGCSqGSIb3DQEJARYZc2VydmVyX29uZV9sMkB0ZXN0
X2NhLmNvbTEPMA0GA1UEChMGQ0lUUklYMIGfMA0GCSqGSIb3DQEBAQUAA4GNADCB
iQKBgQDIijWjGw4A0jV4Fdgy5KZtDbYt6vRJsr10g1BBGnSzp/SCmsQXFfoqygg5
2qE52AT282kniWQaFdNZ+ACVkCSCZIuh2TqedxXlxg4+33rgW7kb2ZNGxGdNHNUC
dbWhLFDlSFr/pIvlzl+zFcKfME2ig3qAVy9Lu4gHiwPjonO7dQIDAQABo4IBwTCC
Ab0wCQYDVR0TBAIwADALBgNVHQ8EBAMCBeAwgYgGA1UdEQSBgDB+ghRhbHRuYW1l
LTItMS5teWNhLmNvbYIUYWx0bmFtZS0yLTIubXljYS5jb22CFGFsdG5hbWUtMi0z
Lm15Y2EuY29tghRhbHRuYW1lLTItNC5teWNhLmNvbYERbWFpbC0yLTFAbXljYS5j
b22BEW1haWwtMi0yQG15Y2EuY29tMEAGCCsGAQUFBwEBBDQwMjAwBggrBgEFBQcw
AoYkaHR0cDovL3NlcnZlci53aGF0ZXZlci5vcmcvY2VydC1wYXRoMB0GA1UdDgQW
BBSqtQPWwMO1WL3nXiQ3iHa7003NMzCBnAYDVR0jBIGUMIGRgBSl2vX6Cud5DnRG
opTOnYpemWSjnaFzpHEwbzELMAkGA1UECBMCS0ExCzAJBgNVBAYTAklOMRcwFQYD
VQQDEw5MZXZlbE9uZVRlc3RDQTEpMCcGCSqGSIb3DQEJARYaTGV2ZWxPbmVUZXN0
Q0FAdGVzdF9jYS5jb20xDzANBgNVBAoTBkNJVFJJWIIEBQcJCjAYBgNVHSAEETAP
MAUGAy0HBDAGBgQtCQcIMA0GCSqGSIb3DQEBBQUAA4IBAQAXLJ1cJEqqjx2rneou
Cv1Y0k1BU25ozyEzmlNsIFSAN7n0zlCHPVl4MbqPSy/NVNi4wxQaIoLLteZn2pXe
NhRzk0n3LRQCI/QAvRJ9yU2K8UlzE4I3iG/zRgiZqumQvbcGIJy4aLMOBbpFg+Ex
Wjz/Li1V6jA20zRFz1YLZxhSbiLl8yeDN6nESz6Y+nGWknxagKdPAvlMfUpMBku4
UbXd8zSoOatkmzTKm9lY2VXFwURc5SLcFoJQCmUWdAq1hef7hHd+H2pPhfjr9guF
iYvi+0b7yYPcIXd8mjvP22ZCyJdDPH7haL0NuT0WQUEsO+UcIWgygz9GeXRfcm+6
b5GI
-----END CERTIFICATE-----
