Certificate:
    Data:
        Version: 3 (0x2)
        Serial Number:
            01:0a:02:0b:03:0c:04:0d:05:0e:06:0f:00:00:01:02:03:04:08
    Signature Algorithm: sha256WithRSAEncryption
        Issuer: ST=KA, C=IN, CN=LevelTwoTestCA/emailAddress=LevelTwoTestCA@test_ca.com, O=CITRIX
        Validity
            Not Before: Feb 17 09:52:23 2016 GMT
            Not After : Feb 14 09:52:23 2026 GMT
        Subject: ST=KA, C=IN, CN=server_three_l2_client/emailAddress=server_three_l2@test_ca.com, O=CITRIX
        Subject Public Key Info:
            Public Key Algorithm: rsaEncryption
                Public-Key: (2048 bit)
                Modulus:
                    00:c4:5c:c5:f4:dd:87:3c:0c:f4:41:69:05:03:cb:
                    4b:ff:0e:8a:a4:b2:bd:d4:62:1a:71:18:4d:83:9f:
                    c8:0d:58:ee:20:02:e9:dd:eb:c3:dc:dd:b0:0f:9c:
                    2f:ab:35:45:6c:fa:98:66:27:8c:b1:15:22:0e:96:
                    05:62:1e:ec:b5:ee:4d:51:f2:3a:8e:1f:97:fe:18:
                    28:97:4a:0a:94:f2:39:b7:b6:f0:9e:e7:25:3b:6d:
                    d7:2d:9c:17:1d:8b:f0:ea:c1:b8:39:25:de:c7:27:
                    18:95:9b:f3:fe:a9:5f:28:db:37:65:0d:c3:08:a4:
                    9c:b4:58:8e:1f:9a:85:0c:5c:a3:82:91:ae:c6:10:
                    6c:8c:4a:a6:d3:17:b9:36:58:4e:73:a5:be:08:0f:
                    4e:57:b4:21:1c:ca:71:30:bb:ea:e0:d4:fb:64:ef:
                    de:37:d0:6c:4b:5d:90:f1:c6:67:1a:6f:31:08:f0:
                    e0:6b:a0:b0:8b:b9:e7:43:2c:4d:cb:79:de:36:09:
                    87:69:b4:4b:e6:db:bc:94:7d:b6:1b:2d:cf:d1:d9:
                    31:4b:4d:b8:50:00:2e:c6:e5:32:9e:5d:61:e2:2f:
                    ec:77:52:5d:25:a9:05:60:3e:84:a4:66:aa:3b:d9:
                    82:99:3e:82:57:6b:c8:10:3e:00:81:e6:fc:d3:14:
                    e7:f7
                Exponent: 65537 (0x10001)
        X509v3 extensions:
            X509v3 Basic Constraints: 
                CA:FALSE
            X509v3 Key Usage: 
                Digital Signature, Non Repudiation, Key Encipherment
            X509v3 Subject Alternative Name: 
                DNS:altname-2-1.myca.com, DNS:altname-2-2.myca.com, DNS:altname-2-3.myca.com, DNS:altname-2-4.myca.com, email:mail-2-1@myca.com, email:mail-2-2@myca.com
            Authority Information Access: 
                CA Issuers - URI:http://server.whatever.org/cert-path

            X509v3 Subject Key Identifier: 
                20:C8:65:7E:27:54:9A:86:D0:5D:50:EF:2F:35:7C:2C:1B:22:D3:37
            X509v3 Authority Key Identifier: 
                keyid:A5:DA:F5:FA:0A:E7:79:0E:74:46:A2:94:CE:9D:8A:5E:99:64:A3:9D
                DirName:/ST=KA/C=IN/CN=LevelOneTestCA/emailAddress=LevelOneTestCA@test_ca.com/O=CITRIX
                serial:05:07:09:0A

            X509v3 Certificate Policies: 
                Policy: 1.5.7.4
                Policy: 1.5.9.7.8

    Signature Algorithm: sha256WithRSAEncryption
         a3:1b:cc:6a:c7:6c:d1:3c:35:09:1e:f5:40:82:45:9c:d2:db:
         ff:6c:96:e9:83:1f:81:17:f7:27:9e:31:65:ef:85:5b:90:78:
         8c:22:26:43:2f:58:ea:da:dc:14:1a:bf:10:5e:00:71:a1:14:
         07:be:8b:13:f4:ff:0e:64:f4:04:b7:25:e1:ba:57:2d:15:df:
         cc:16:24:4e:7e:a0:4e:db:90:6f:08:b4:ec:ac:3e:82:d1:0a:
         c7:89:6c:94:f4:3a:00:36:75:93:db:6a:63:0a:4c:17:ae:7b:
         73:dd:75:be:83:47:f0:37:11:b7:08:1f:af:67:5c:91:7a:a2:
         59:34:4b:1f:3a:15:60:e2:c2:bc:86:65:07:c5:16:66:07:9a:
         a4:34:7d:81:b6:82:2a:69:ee:87:f2:72:42:55:c3:3a:0d:8c:
         fd:52:c5:9f:06:9a:98:d3:83:2d:1f:e2:47:e6:53:69:e9:c0:
         3a:2b:0d:c4:7d:22:10:09:17:89:b5:77:df:19:b7:73:6d:98:
         08:77:63:0d:d1:4b:96:75:78:e4:32:da:df:17:36:91:95:51:
         fc:17:2f:bf:81:e4:e9:c6:25:44:9b:b1:ca:26:81:7e:fa:c2:
         8b:b0:aa:d3:8a:4a:3c:f8:8b:ac:00:73:cb:f4:2d:50:73:ce:
         47:ce:5e:e3
-----BEGIN CERTIFICATE-----
MIIFNzCCBB+gAwIBAgITAQoCCwMMBA0FDgYPAAABAgMECDANBgkqhkiG9w0BAQsF
ADBvMQswCQYDVQQIEwJLQTELMAkGA1UEBhMCSU4xFzAVBgNVBAMTDkxldmVsVHdv
VGVzdENBMSkwJwYJKoZIhvcNAQkBFhpMZXZlbFR3b1Rlc3RDQUB0ZXN0X2NhLmNv
bTEPMA0GA1UEChMGQ0lUUklYMB4XDTE2MDIxNzA5NTIyM1oXDTI2MDIxNDA5NTIy
M1oweDELMAkGA1UECBMCS0ExCzAJBgNVBAYTAklOMR8wHQYDVQQDFBZzZXJ2ZXJf
dGhyZWVfbDJfY2xpZW50MSowKAYJKoZIhvcNAQkBFhtzZXJ2ZXJfdGhyZWVfbDJA
dGVzdF9jYS5jb20xDzANBgNVBAoTBkNJVFJJWDCCASIwDQYJKoZIhvcNAQEBBQAD
ggEPADCCAQoCggEBAMRcxfTdhzwM9EFpBQPLS/8OiqSyvdRiGnEYTYOfyA1Y7iAC
6d3rw9zdsA+cL6s1RWz6mGYnjLEVIg6WBWIe7LXuTVHyOo4fl/4YKJdKCpTyObe2
8J7nJTtt1y2cFx2L8OrBuDkl3scnGJWb8/6pXyjbN2UNwwiknLRYjh+ahQxco4KR
rsYQbIxKptMXuTZYTnOlvggPTle0IRzKcTC76uDU+2Tv3jfQbEtdkPHGZxpvMQjw
4GugsIu550MsTct53jYJh2m0S+bbvJR9thstz9HZMUtNuFAALsblMp5dYeIv7HdS
XSWpBWA+hKRmqjvZgpk+gldryBA+AIHm/NMU5/cCAwEAAaOCAcEwggG9MAkGA1Ud
EwQCMAAwCwYDVR0PBAQDAgXgMIGIBgNVHREEgYAwfoIUYWx0bmFtZS0yLTEubXlj
YS5jb22CFGFsdG5hbWUtMi0yLm15Y2EuY29tghRhbHRuYW1lLTItMy5teWNhLmNv
bYIUYWx0bmFtZS0yLTQubXljYS5jb22BEW1haWwtMi0xQG15Y2EuY29tgRFtYWls
LTItMkBteWNhLmNvbTBABggrBgEFBQcBAQQ0MDIwMAYIKwYBBQUHMAKGJGh0dHA6
Ly9zZXJ2ZXIud2hhdGV2ZXIub3JnL2NlcnQtcGF0aDAdBgNVHQ4EFgQUIMhlfidU
mobQXVDvLzV8LBsi0zcwgZwGA1UdIwSBlDCBkYAUpdr1+grneQ50RqKUzp2KXplk
o52hc6RxMG8xCzAJBgNVBAgTAktBMQswCQYDVQQGEwJJTjEXMBUGA1UEAxMOTGV2
ZWxPbmVUZXN0Q0ExKTAnBgkqhkiG9w0BCQEWGkxldmVsT25lVGVzdENBQHRlc3Rf
Y2EuY29tMQ8wDQYDVQQKEwZDSVRSSViCBAUHCQowGAYDVR0gBBEwDzAFBgMtBwQw
BgYELQkHCDANBgkqhkiG9w0BAQsFAAOCAQEAoxvMasds0Tw1CR71QIJFnNLb/2yW
6YMfgRf3J54xZe+FW5B4jCImQy9Y6trcFBq/EF4AcaEUB76LE/T/DmT0BLcl4bpX
LRXfzBYkTn6gTtuQbwi07Kw+gtEKx4lslPQ6ADZ1k9tqYwpMF657c911voNH8DcR
twgfr2dckXqiWTRLHzoVYOLCvIZlB8UWZgeapDR9gbaCKmnuh/JyQlXDOg2M/VLF
nwaamNODLR/iR+ZTaenAOisNxH0iEAkXibV33xm3c22YCHdjDdFLlnV45DLa3xc2
kZVR/Bcvv4Hk6cYlRJuxyiaBfvrCi7Cq04pKPPiLrABzy/QtUHPOR85e4w==
-----END CERTIFICATE-----
