Certificate:
    Data:
        Version: 3 (0x2)
        Serial Number: 11042563100209 (0xa0b0c0d0e31)
    Signature Algorithm: sha256WithRSAEncryption
        Issuer: CN=KOCHICA_CA, C=IN, O=CITRIX, OU=ANG, ST=KA/emailAddress=KOCHICA_CA@KOCHICA_mail.com
        Validity
            Not Before: Jul  8 04:35:26 2016 GMT
            Not After : Jul  6 04:35:26 2026 GMT
        Subject: ST=KA, C=IN, CN=135_KOCHICA_server/emailAddress=135_KOCHICA@test_ca.com, O=CITRIX
        Subject Public Key Info:
            Public Key Algorithm: rsaEncryption
                Public-Key: (2048 bit)
                Modulus:
                    00:aa:d9:b7:b2:0a:69:5e:5d:fb:2c:c8:66:cc:00:
                    60:0f:4f:0d:c8:45:e6:36:ff:33:9f:b3:e6:bb:64:
                    2e:ca:d7:2d:40:b5:b1:9d:9f:3b:31:25:3e:55:41:
                    7e:7c:ec:4b:49:c1:44:2a:b6:67:55:af:71:2d:9a:
                    24:3a:5f:1b:80:97:1c:78:1f:97:a6:e5:62:5c:2b:
                    bd:cf:52:49:4b:6a:1b:14:3a:fd:f1:a3:67:cd:e8:
                    23:4f:00:79:58:fa:e4:ef:54:1c:cb:30:75:34:fb:
                    3d:96:43:0c:e1:69:70:91:32:a4:63:51:6c:07:05:
                    85:ba:19:8a:e8:14:60:86:d9:b9:03:1b:78:62:af:
                    24:ba:98:70:00:f6:56:7e:93:cd:03:ce:c4:e5:96:
                    68:e1:66:83:74:db:78:c3:d9:e7:00:83:d6:c9:a2:
                    48:b4:0f:b8:e4:d0:34:c7:ae:af:9b:b3:a9:54:14:
                    d7:fa:58:12:f9:47:67:9c:ea:55:3c:d8:f0:01:5b:
                    d6:d0:d0:f1:63:ce:99:5a:20:85:d8:f0:d5:d9:7b:
                    5f:02:bc:dc:65:24:31:a9:84:8c:50:88:12:4d:73:
                    14:83:0c:34:fc:46:f8:31:70:fa:cf:e7:bb:d0:eb:
                    98:87:ee:06:10:dc:68:37:a6:11:7a:3c:25:1d:fb:
                    56:15
                Exponent: 65537 (0x10001)
        X509v3 extensions:
            Netscape Cert Type: 
                SSL Server
            X509v3 Subject Key Identifier: 
                09:8A:21:77:4D:56:14:1A:EC:B3:0B:17:09:61:3E:00:89:7A:0D:78
            X509v3 Authority Key Identifier: 
                keyid:BD:BB:95:76:5C:F9:2D:21:29:42:22:FD:91:AF:B8:39:24:AA:7E:37
                DirName:/CN=KOCHICA_CA/C=IN/O=CITRIX/OU=ANG/ST=KA/emailAddress=KOCHICA_CA@KOCHICA_mail.com
                serial:E1:10:ED:B2:3C:3D:E3:71

            Authority Information Access: 
                OCSP - URI:http://172.22.20.1/responderpath

    Signature Algorithm: sha256WithRSAEncryption
         09:e4:30:20:03:63:b7:eb:c7:12:32:67:d3:a1:77:48:cb:4f:
         13:b0:95:3e:1e:26:18:4d:6c:dc:0c:3f:48:4b:b5:b2:6f:70:
         82:d1:14:f2:93:98:3a:e2:8e:af:5e:f6:12:97:0b:c7:bb:f9:
         22:dd:5f:20:d9:4e:80:0c:af:b1:e6:dc:a6:c9:74:20:3c:6d:
         f9:56:0b:70:b2:56:2e:e8:92:55:38:9b:fe:1b:e1:31:a8:05:
         4f:07:29:e5:67:ee:ef:b4:81:8a:8c:99:2a:2f:73:5f:67:59:
         0f:e8:bb:5d:27:2c:ac:c3:f1:ba:97:56:ce:a1:9b:a9:ee:45:
         46:d5:48:e1:32:5e:fd:cf:df:9f:ea:ea:3d:7c:f9:68:e9:b4:
         b3:75:aa:bc:32:e9:85:4a:b4:6d:f8:68:79:81:69:36:c3:8a:
         e9:dd:89:83:4e:12:e5:8f:da:13:56:ec:00:5d:a3:52:b5:24:
         97:e3:da:5f:54:6c:93:8c:2a:65:05:47:35:68:00:f6:56:27:
         d2:3e:66:9c:c4:8d:cb:c6:63:5f:43:6e:fa:26:b2:6f:cb:82:
         aa:4d:43:24:87:98:7e:c6:fd:73:96:ee:75:6f:b6:d7:c8:7c:
         71:a4:c8:2c:bf:a6:92:77:3e:92:56:07:7c:03:0a:14:9f:50:
         3c:96:1d:ed
-----BEGIN CERTIFICATE-----
MIIEjzCCA3egAwIBAgIGCgsMDQ4xMA0GCSqGSIb3DQEBCwUAMHoxEzARBgNVBAMU
CktPQ0hJQ0FfQ0ExCzAJBgNVBAYTAklOMQ8wDQYDVQQKEwZDSVRSSVgxDDAKBgNV
BAsTA0FORzELMAkGA1UECBMCS0ExKjAoBgkqhkiG9w0BCQEWG0tPQ0hJQ0FfQ0FA
S09DSElDQV9tYWlsLmNvbTAeFw0xNjA3MDgwNDM1MjZaFw0yNjA3MDYwNDM1MjZa
MHAxCzAJBgNVBAgTAktBMQswCQYDVQQGEwJJTjEbMBkGA1UEAxQSMTM1X0tPQ0hJ
Q0Ffc2VydmVyMSYwJAYJKoZIhvcNAQkBFhcxMzVfS09DSElDQUB0ZXN0X2NhLmNv
bTEPMA0GA1UEChMGQ0lUUklYMIIBIjANBgkqhkiG9w0BAQEFAAOCAQ8AMIIBCgKC
AQEAqtm3sgppXl37LMhmzABgD08NyEXmNv8zn7Pmu2QuytctQLWxnZ87MSU+VUF+
fOxLScFEKrZnVa9xLZokOl8bgJcceB+XpuViXCu9z1JJS2obFDr98aNnzegjTwB5
WPrk71QcyzB1NPs9lkMM4WlwkTKkY1FsBwWFuhmK6BRghtm5Axt4Yq8kuphwAPZW
fpPNA87E5ZZo4WaDdNt4w9nnAIPWyaJItA+45NA0x66vm7OpVBTX+lgS+UdnnOpV
PNjwAVvW0NDxY86ZWiCF2PDV2XtfArzcZSQxqYSMUIgSTXMUgww0/Eb4MXD6z+e7
0OuYh+4GENxoN6YRejwlHftWFQIDAQABo4IBIzCCAR8wEQYJYIZIAYb4QgEBBAQD
AgZAMB0GA1UdDgQWBBQJiiF3TVYUGuyzCxcJYT4AiXoNeDCBrAYDVR0jBIGkMIGh
gBS9u5V2XPktISlCIv2Rr7g5JKp+N6F+pHwwejETMBEGA1UEAxQKS09DSElDQV9D
QTELMAkGA1UEBhMCSU4xDzANBgNVBAoTBkNJVFJJWDEMMAoGA1UECxMDQU5HMQsw
CQYDVQQIEwJLQTEqMCgGCSqGSIb3DQEJARYbS09DSElDQV9DQUBLT0NISUNBX21h
aWwuY29tggkA4RDtsjw943EwPAYIKwYBBQUHAQEEMDAuMCwGCCsGAQUFBzABhiBo
dHRwOi8vMTcyLjIyLjIwLjEvcmVzcG9uZGVycGF0aDANBgkqhkiG9w0BAQsFAAOC
AQEACeQwIANjt+vHEjJn06F3SMtPE7CVPh4mGE1s3Aw/SEu1sm9wgtEU8pOYOuKO
r172EpcLx7v5It1fINlOgAyvsebcpsl0IDxt+VYLcLJWLuiSVTib/hvhMagFTwcp
5Wfu77SBioyZKi9zX2dZD+i7XScsrMPxupdWzqGbqe5FRtVI4TJe/c/fn+rqPXz5
aOm0s3WqvDLphUq0bfhoeYFpNsOK6d2Jg04S5Y/aE1bsAF2jUrUkl+PaX1Rsk4wq
ZQVHNWgA9lYn0j5mnMSNy8ZjX0Nu+iayb8uCqk1DJIeYfsb9c5budW+218h8caTI
LL+mknc+klYHfAMKFJ9QPJYd7Q==
-----END CERTIFICATE-----
