Certificate:
    Data:
        Version: 3 (0x2)
        Serial Number: 11042563100179 (0xa0b0c0d0e13)
    Signature Algorithm: sha256WithRSAEncryption
        Issuer: CN=KOCHICA_CA, C=IN, O=CITRIX, OU=ANG, ST=KA/emailAddress=KOCHICA_CA@KOCHICA_mail.com
        Validity
            Not Before: Jul  8 04:35:17 2016 GMT
            Not After : Jul  6 04:35:17 2026 GMT
        Subject: ST=KA, C=IN, CN=105_KOCHICA_server/emailAddress=105_KOCHICA@test_ca.com, O=CITRIX
        Subject Public Key Info:
            Public Key Algorithm: rsaEncryption
                Public-Key: (2048 bit)
                Modulus:
                    00:c3:b1:03:0b:fc:83:fc:e0:ab:04:4d:89:89:27:
                    52:19:58:59:7f:23:c4:d5:df:c8:c6:83:36:5d:45:
                    bf:cf:84:07:66:dd:08:60:a6:c8:d2:72:30:68:dc:
                    5f:bb:2a:89:36:fa:c2:8d:00:18:d5:24:92:64:40:
                    06:95:08:9f:05:a5:e9:94:e7:d1:ae:9a:cb:ff:e8:
                    5a:37:d9:be:19:ec:07:9a:10:ec:9f:49:80:94:3f:
                    a5:97:64:8d:15:10:ea:27:f9:11:3d:6d:a0:37:66:
                    fe:00:1b:19:0c:b1:82:e2:d4:b4:6c:36:fd:8e:36:
                    25:ce:3a:87:82:6d:37:90:8c:bd:bb:b4:6f:8a:c2:
                    96:50:df:28:f9:46:0a:47:5d:89:31:16:bd:40:3f:
                    e4:4f:b5:aa:8d:72:a7:00:3c:12:20:02:ca:51:8a:
                    57:d7:fc:7c:04:9f:6f:08:3e:88:94:4d:49:d0:94:
                    ea:52:86:c5:a7:a0:9f:b8:64:5f:fb:67:37:e3:1a:
                    57:d1:0b:e0:e3:1d:4a:4f:5d:00:15:87:d2:17:e1:
                    36:b4:66:08:57:c8:18:b8:c7:5d:f8:30:37:e3:01:
                    fd:35:26:46:7f:46:de:ba:ea:58:01:c2:d3:6e:21:
                    06:fb:b3:fe:c5:3b:87:44:c0:72:18:14:13:37:f8:
                    21:8b
                Exponent: 65537 (0x10001)
        X509v3 extensions:
            Netscape Cert Type: 
                SSL Server
            X509v3 Subject Key Identifier: 
                57:2B:1A:D7:36:79:D8:29:E7:AE:B0:20:9A:B0:A8:11:C7:98:85:D5
            X509v3 Authority Key Identifier: 
                keyid:BD:BB:95:76:5C:F9:2D:21:29:42:22:FD:91:AF:B8:39:24:AA:7E:37
                DirName:/CN=KOCHICA_CA/C=IN/O=CITRIX/OU=ANG/ST=KA/emailAddress=KOCHICA_CA@KOCHICA_mail.com
                serial:E1:10:ED:B2:3C:3D:E3:71

            Authority Information Access: 
                OCSP - URI:http://KOCHICA_one.ocsptest.com/responderpath

    Signature Algorithm: sha256WithRSAEncryption
         b6:5f:87:f1:ec:bb:fb:b2:45:91:10:6d:c6:8f:25:8a:4a:e1:
         69:1e:de:1b:c3:39:cb:85:75:1f:bc:5e:91:71:3a:2f:a1:30:
         51:4d:f0:3e:73:af:8f:2c:5b:89:20:aa:e4:f0:e2:04:6c:5d:
         93:72:21:d9:23:64:9f:94:d8:22:eb:ac:78:e8:42:49:05:a3:
         11:a2:8b:b2:b1:67:70:4b:d7:4e:d7:a9:33:be:de:86:d0:20:
         1e:75:2e:a7:50:d2:91:08:44:61:3c:78:d8:dc:94:23:7e:69:
         b2:27:a0:00:fe:74:70:ff:6b:cd:3d:31:67:32:7a:8e:67:ff:
         6f:8c:e7:ab:c6:3d:ae:9d:84:de:b3:63:38:75:6d:2e:89:9b:
         8e:e3:09:b1:fb:50:d5:fb:71:b4:7a:9a:a2:25:49:1d:32:2f:
         68:aa:87:54:ae:4d:f4:0f:d7:24:e6:ac:a6:75:50:ff:bf:46:
         90:db:bb:0b:3c:9a:77:cf:86:d9:e6:76:95:5c:66:05:54:ef:
         f3:a7:6c:f4:5b:db:e6:e4:f0:24:74:89:a5:3c:e3:2d:3c:8b:
         d6:75:a0:91:92:d7:3f:01:cc:b7:3f:54:03:26:ec:d7:66:a1:
         48:fa:da:a7:ef:05:4b:8a:23:0a:e8:05:06:2e:a7:bf:1e:b8:
         dc:90:70:74
-----BEGIN CERTIFICATE-----
MIIEnDCCA4SgAwIBAgIGCgsMDQ4TMA0GCSqGSIb3DQEBCwUAMHoxEzARBgNVBAMU
CktPQ0hJQ0FfQ0ExCzAJBgNVBAYTAklOMQ8wDQYDVQQKEwZDSVRSSVgxDDAKBgNV
BAsTA0FORzELMAkGA1UECBMCS0ExKjAoBgkqhkiG9w0BCQEWG0tPQ0hJQ0FfQ0FA
S09DSElDQV9tYWlsLmNvbTAeFw0xNjA3MDgwNDM1MTdaFw0yNjA3MDYwNDM1MTda
MHAxCzAJBgNVBAgTAktBMQswCQYDVQQGEwJJTjEbMBkGA1UEAxQSMTA1X0tPQ0hJ
Q0Ffc2VydmVyMSYwJAYJKoZIhvcNAQkBFhcxMDVfS09DSElDQUB0ZXN0X2NhLmNv
bTEPMA0GA1UEChMGQ0lUUklYMIIBIjANBgkqhkiG9w0BAQEFAAOCAQ8AMIIBCgKC
AQEAw7EDC/yD/OCrBE2JiSdSGVhZfyPE1d/IxoM2XUW/z4QHZt0IYKbI0nIwaNxf
uyqJNvrCjQAY1SSSZEAGlQifBaXplOfRrprL/+haN9m+GewHmhDsn0mAlD+ll2SN
FRDqJ/kRPW2gN2b+ABsZDLGC4tS0bDb9jjYlzjqHgm03kIy9u7RvisKWUN8o+UYK
R12JMRa9QD/kT7WqjXKnADwSIALKUYpX1/x8BJ9vCD6IlE1J0JTqUobFp6CfuGRf
+2c34xpX0Qvg4x1KT10AFYfSF+E2tGYIV8gYuMdd+DA34wH9NSZGf0beuupYAcLT
biEG+7P+xTuHRMByGBQTN/ghiwIDAQABo4IBMDCCASwwEQYJYIZIAYb4QgEBBAQD
AgZAMB0GA1UdDgQWBBRXKxrXNnnYKeeusCCasKgRx5iF1TCBrAYDVR0jBIGkMIGh
gBS9u5V2XPktISlCIv2Rr7g5JKp+N6F+pHwwejETMBEGA1UEAxQKS09DSElDQV9D
QTELMAkGA1UEBhMCSU4xDzANBgNVBAoTBkNJVFJJWDEMMAoGA1UECxMDQU5HMQsw
CQYDVQQIEwJLQTEqMCgGCSqGSIb3DQEJARYbS09DSElDQV9DQUBLT0NISUNBX21h
aWwuY29tggkA4RDtsjw943EwSQYIKwYBBQUHAQEEPTA7MDkGCCsGAQUFBzABhi1o
dHRwOi8vS09DSElDQV9vbmUub2NzcHRlc3QuY29tL3Jlc3BvbmRlcnBhdGgwDQYJ
KoZIhvcNAQELBQADggEBALZfh/Hsu/uyRZEQbcaPJYpK4Wke3hvDOcuFdR+8XpFx
Oi+hMFFN8D5zr48sW4kgquTw4gRsXZNyIdkjZJ+U2CLrrHjoQkkFoxGii7KxZ3BL
107XqTO+3obQIB51LqdQ0pEIRGE8eNjclCN+abInoAD+dHD/a809MWcyeo5n/2+M
56vGPa6dhN6zYzh1bS6Jm47jCbH7UNX7cbR6mqIlSR0yL2iqh1SuTfQP1yTmrKZ1
UP+/RpDbuws8mnfPhtnmdpVcZgVU7/OnbPRb2+bk8CR0iaU84y08i9Z1oJGS1z8B
zLc/VAMm7NdmoUj62qfvBUuKIwroBQYup78euNyQcHQ=
-----END CERTIFICATE-----
