Certificate:
    Data:
        Version: 3 (0x2)
        Serial Number: 11042563100176 (0xa0b0c0d0e10)
    Signature Algorithm: sha256WithRSAEncryption
        Issuer: CN=KOCHICA_CA, C=IN, O=CITRIX, OU=ANG, ST=KA/emailAddress=KOCHICA_CA@KOCHICA_mail.com
        Validity
            Not Before: Jul  8 04:35:16 2016 GMT
            Not After : Jul  6 04:35:16 2026 GMT
        Subject: ST=KA, C=IN, CN=102_KOCHICA_server/emailAddress=102_KOCHICA@test_ca.com, O=CITRIX
        Subject Public Key Info:
            Public Key Algorithm: rsaEncryption
                Public-Key: (2048 bit)
                Modulus:
                    00:ed:f9:c6:f7:50:46:a7:fb:25:df:54:c5:41:4e:
                    49:a4:6e:1a:fa:cf:74:45:62:e4:09:59:9b:05:84:
                    70:8b:bd:eb:6c:e0:0b:61:37:7f:a2:98:21:09:63:
                    2d:3f:5f:14:e8:72:ff:c3:70:6f:d0:04:71:2c:0d:
                    95:95:ce:3c:8e:dd:28:81:68:2d:d5:a8:c6:78:77:
                    8b:84:f8:b8:53:b1:94:fe:02:56:84:11:2e:14:39:
                    51:df:7e:f6:45:41:ee:4e:03:cf:47:78:bc:f8:d2:
                    a0:6a:d2:15:56:12:af:cf:ae:a2:a9:0c:91:ab:7b:
                    1d:95:2f:a6:15:0b:e4:9b:c6:2e:65:25:f0:2b:53:
                    60:2a:2f:9f:ff:81:89:f9:4a:dc:25:fa:9c:ae:a2:
                    1d:68:c8:62:22:16:76:44:b1:96:ec:b4:62:c9:a3:
                    96:65:f7:52:04:29:ff:5c:47:1d:60:dd:ad:fc:e3:
                    b8:e5:e5:65:5c:35:3d:ef:62:4f:87:a1:c2:7c:93:
                    c8:b5:81:b1:47:b5:42:13:50:2d:c8:be:8d:db:4b:
                    83:a9:df:5d:7d:63:e2:26:f2:cc:37:73:87:f2:22:
                    e1:9f:cb:c4:cc:e8:3d:22:06:0f:61:b4:08:a9:38:
                    67:eb:04:dd:2a:7e:f3:c4:43:dc:69:f9:7c:d2:e5:
                    0f:79
                Exponent: 65537 (0x10001)
        X509v3 extensions:
            Netscape Cert Type: 
                SSL Server
            X509v3 Subject Key Identifier: 
                17:B2:C4:21:3A:E7:37:3D:4F:A4:74:1B:AD:C9:35:1D:5D:AC:6F:0D
            X509v3 Authority Key Identifier: 
                keyid:BD:BB:95:76:5C:F9:2D:21:29:42:22:FD:91:AF:B8:39:24:AA:7E:37
                DirName:/CN=KOCHICA_CA/C=IN/O=CITRIX/OU=ANG/ST=KA/emailAddress=KOCHICA_CA@KOCHICA_mail.com
                serial:E1:10:ED:B2:3C:3D:E3:71

            Authority Information Access: 
                OCSP - URI:http://KOCHICA_one.ocsptest.com/responderpath

    Signature Algorithm: sha256WithRSAEncryption
         92:25:33:ca:ec:90:44:47:df:1c:d6:60:03:f6:5e:f1:2b:bb:
         5a:b8:33:b7:3f:5d:c5:85:94:69:16:4a:a5:4a:d2:0a:a9:ef:
         d0:b9:6d:65:70:d0:ab:63:21:3e:62:bc:c3:11:2a:28:a1:6b:
         1b:18:9b:2b:ee:55:36:d6:b6:0a:da:78:12:5a:80:db:1f:ed:
         88:51:81:e3:76:77:4c:01:08:3d:5e:07:c9:a8:4d:7b:e8:50:
         f9:36:86:9e:e1:86:e5:a4:7b:f2:27:13:3d:17:0f:6d:b8:6d:
         88:ce:98:e2:6d:28:81:92:99:88:75:d4:0f:f4:a2:ed:a9:06:
         5d:99:2c:cb:42:3d:e4:f5:6d:93:6a:f9:58:72:dd:a4:5b:6e:
         07:57:1a:19:55:2b:c5:bd:5d:0d:12:14:eb:9f:1c:47:68:78:
         49:87:f9:55:a0:ea:31:34:6a:91:9a:2e:63:f8:b5:34:f1:33:
         64:8a:8c:c2:aa:25:db:fd:98:53:03:97:b8:4c:3a:e7:db:6d:
         70:dc:cc:e3:be:14:17:d6:48:a6:09:64:c3:15:25:e4:b3:f2:
         99:a6:e8:e3:1d:7c:ba:8d:3a:97:bf:31:74:1a:bc:a8:27:3c:
         1b:27:ec:c6:40:50:6d:10:41:53:10:c6:05:2d:d5:81:c9:93:
         4d:02:9a:1c
-----BEGIN CERTIFICATE-----
MIIEnDCCA4SgAwIBAgIGCgsMDQ4QMA0GCSqGSIb3DQEBCwUAMHoxEzARBgNVBAMU
CktPQ0hJQ0FfQ0ExCzAJBgNVBAYTAklOMQ8wDQYDVQQKEwZDSVRSSVgxDDAKBgNV
BAsTA0FORzELMAkGA1UECBMCS0ExKjAoBgkqhkiG9w0BCQEWG0tPQ0hJQ0FfQ0FA
S09DSElDQV9tYWlsLmNvbTAeFw0xNjA3MDgwNDM1MTZaFw0yNjA3MDYwNDM1MTZa
MHAxCzAJBgNVBAgTAktBMQswCQYDVQQGEwJJTjEbMBkGA1UEAxQSMTAyX0tPQ0hJ
Q0Ffc2VydmVyMSYwJAYJKoZIhvcNAQkBFhcxMDJfS09DSElDQUB0ZXN0X2NhLmNv
bTEPMA0GA1UEChMGQ0lUUklYMIIBIjANBgkqhkiG9w0BAQEFAAOCAQ8AMIIBCgKC
AQEA7fnG91BGp/sl31TFQU5JpG4a+s90RWLkCVmbBYRwi73rbOALYTd/opghCWMt
P18U6HL/w3Bv0ARxLA2Vlc48jt0ogWgt1ajGeHeLhPi4U7GU/gJWhBEuFDlR3372
RUHuTgPPR3i8+NKgatIVVhKvz66iqQyRq3sdlS+mFQvkm8YuZSXwK1NgKi+f/4GJ
+UrcJfqcrqIdaMhiIhZ2RLGW7LRiyaOWZfdSBCn/XEcdYN2t/OO45eVlXDU972JP
h6HCfJPItYGxR7VCE1AtyL6N20uDqd9dfWPiJvLMN3OH8iLhn8vEzOg9IgYPYbQI
qThn6wTdKn7zxEPcafl80uUPeQIDAQABo4IBMDCCASwwEQYJYIZIAYb4QgEBBAQD
AgZAMB0GA1UdDgQWBBQXssQhOuc3PU+kdButyTUdXaxvDTCBrAYDVR0jBIGkMIGh
gBS9u5V2XPktISlCIv2Rr7g5JKp+N6F+pHwwejETMBEGA1UEAxQKS09DSElDQV9D
QTELMAkGA1UEBhMCSU4xDzANBgNVBAoTBkNJVFJJWDEMMAoGA1UECxMDQU5HMQsw
CQYDVQQIEwJLQTEqMCgGCSqGSIb3DQEJARYbS09DSElDQV9DQUBLT0NISUNBX21h
aWwuY29tggkA4RDtsjw943EwSQYIKwYBBQUHAQEEPTA7MDkGCCsGAQUFBzABhi1o
dHRwOi8vS09DSElDQV9vbmUub2NzcHRlc3QuY29tL3Jlc3BvbmRlcnBhdGgwDQYJ
KoZIhvcNAQELBQADggEBAJIlM8rskERH3xzWYAP2XvEru1q4M7c/XcWFlGkWSqVK
0gqp79C5bWVw0KtjIT5ivMMRKiihaxsYmyvuVTbWtgraeBJagNsf7YhRgeN2d0wB
CD1eB8moTXvoUPk2hp7hhuWke/InEz0XD224bYjOmOJtKIGSmYh11A/0ou2pBl2Z
LMtCPeT1bZNq+Vhy3aRbbgdXGhlVK8W9XQ0SFOufHEdoeEmH+VWg6jE0apGaLmP4
tTTxM2SKjMKqJdv9mFMDl7hMOufbbXDczOO+FBfWSKYJZMMVJeSz8pmm6OMdfLqN
Ope/MXQavKgnPBsn7MZAUG0QQVMQxgUt1YHJk00Cmhw=
-----END CERTIFICATE-----
