Certificate:
    Data:
        Version: 3 (0x2)
        Serial Number: 11042563100205 (0xa0b0c0d0e2d)
    Signature Algorithm: sha256WithRSAEncryption
        Issuer: CN=KOCHICA_CA, C=IN, O=CITRIX, OU=ANG, ST=KA/emailAddress=KOCHICA_CA@KOCHICA_mail.com
        Validity
            Not Before: Jul  8 04:35:25 2016 GMT
            Not After : Jul  6 04:35:25 2026 GMT
        Subject: ST=KA, C=IN, CN=131_KOCHICA_server/emailAddress=131_KOCHICA@test_ca.com, O=CITRIX
        Subject Public Key Info:
            Public Key Algorithm: rsaEncryption
                Public-Key: (2048 bit)
                Modulus:
                    00:c9:9b:0c:8d:7f:91:ce:fb:15:11:5f:09:9f:56:
                    90:65:df:4c:4a:47:08:10:34:dc:df:0d:3b:de:9e:
                    db:c7:af:1d:0d:2d:01:2f:06:70:e6:d7:75:9f:07:
                    68:cd:21:85:a7:19:32:3a:39:aa:c4:e1:b0:a2:43:
                    71:db:fc:3f:bc:28:97:cd:74:19:7f:7b:09:fb:24:
                    b8:f8:74:49:65:45:98:18:8a:b6:0a:c4:c0:c1:4f:
                    2d:33:42:ab:c9:6d:05:20:71:a2:6a:93:17:bc:69:
                    cd:0c:9f:87:67:90:21:1a:b8:14:24:2c:11:f3:f0:
                    7f:3b:00:93:44:76:1e:34:2b:4e:30:fb:fd:dd:ab:
                    e4:45:39:33:4d:3a:6b:f4:54:0a:a9:78:78:17:58:
                    89:47:0b:82:e8:93:d1:15:e1:2f:7f:82:2b:cd:d3:
                    6a:ad:6b:d8:4a:45:c8:d0:53:e0:be:98:b1:d1:b3:
                    0b:8d:35:24:49:f5:b4:3e:6f:f0:7b:f8:73:8b:81:
                    60:de:8c:bc:e4:de:12:35:77:5a:fd:96:27:6f:c8:
                    93:8f:f2:b5:0e:53:fe:13:28:1e:be:99:60:ed:28:
                    93:81:e4:0e:8b:f3:46:40:ef:ad:23:df:49:66:d8:
                    13:69:19:3c:01:68:c2:4f:ca:60:58:ed:d8:45:97:
                    b4:37
                Exponent: 65537 (0x10001)
        X509v3 extensions:
            Netscape Cert Type: 
                SSL Server
            X509v3 Subject Key Identifier: 
                20:5A:43:AB:D7:34:D5:68:82:EC:F1:F5:FA:08:B7:25:C0:FB:7C:EA
            X509v3 Authority Key Identifier: 
                keyid:BD:BB:95:76:5C:F9:2D:21:29:42:22:FD:91:AF:B8:39:24:AA:7E:37
                DirName:/CN=KOCHICA_CA/C=IN/O=CITRIX/OU=ANG/ST=KA/emailAddress=KOCHICA_CA@KOCHICA_mail.com
                serial:E1:10:ED:B2:3C:3D:E3:71

            Authority Information Access: 
                OCSP - URI:http://172.22.20.1/responderpath

    Signature Algorithm: sha256WithRSAEncryption
         3c:42:e2:9b:53:99:bf:e6:5d:dd:03:96:d1:04:bd:bd:b9:5c:
         e3:8a:fc:66:1e:25:35:7b:db:a2:24:f2:7c:8d:b9:62:f4:a0:
         40:7e:e6:04:11:b6:cf:27:2c:2c:28:8b:b7:e4:0f:ab:65:22:
         c3:48:c3:c1:77:73:47:12:d4:87:be:1b:82:74:c8:39:26:6d:
         64:b9:c9:22:4e:43:31:1b:55:9d:2f:ed:bc:0b:04:10:b2:d7:
         df:52:27:28:91:ae:e3:e6:b6:e1:cf:64:21:b9:9a:5b:d5:dc:
         ca:7e:f9:62:7b:ad:29:c9:88:1e:ab:80:91:2b:cc:de:47:68:
         c8:00:49:40:38:dc:77:bc:ec:85:04:19:95:33:7a:0b:7d:00:
         63:20:6e:79:fc:52:e1:dd:d2:c2:16:1b:f1:00:1c:d0:14:d9:
         c7:c2:d5:2d:de:bc:a9:29:48:0a:78:55:fe:45:86:f7:03:f7:
         e7:31:84:ea:04:c1:33:74:ed:d8:2a:35:23:ab:f4:9e:77:c5:
         89:2d:e1:5a:5a:01:11:06:df:3e:31:c6:01:de:ab:8a:6d:8c:
         49:f8:62:1a:e6:c3:49:c6:80:db:f3:26:03:2e:68:d0:d0:75:
         37:d0:27:f4:da:b4:ad:02:eb:84:b6:82:3e:3d:b9:5a:37:cb:
         dc:7a:b9:d0
-----BEGIN CERTIFICATE-----
MIIEjzCCA3egAwIBAgIGCgsMDQ4tMA0GCSqGSIb3DQEBCwUAMHoxEzARBgNVBAMU
CktPQ0hJQ0FfQ0ExCzAJBgNVBAYTAklOMQ8wDQYDVQQKEwZDSVRSSVgxDDAKBgNV
BAsTA0FORzELMAkGA1UECBMCS0ExKjAoBgkqhkiG9w0BCQEWG0tPQ0hJQ0FfQ0FA
S09DSElDQV9tYWlsLmNvbTAeFw0xNjA3MDgwNDM1MjVaFw0yNjA3MDYwNDM1MjVa
MHAxCzAJBgNVBAgTAktBMQswCQYDVQQGEwJJTjEbMBkGA1UEAxQSMTMxX0tPQ0hJ
Q0Ffc2VydmVyMSYwJAYJKoZIhvcNAQkBFhcxMzFfS09DSElDQUB0ZXN0X2NhLmNv
bTEPMA0GA1UEChMGQ0lUUklYMIIBIjANBgkqhkiG9w0BAQEFAAOCAQ8AMIIBCgKC
AQEAyZsMjX+RzvsVEV8Jn1aQZd9MSkcIEDTc3w073p7bx68dDS0BLwZw5td1nwdo
zSGFpxkyOjmqxOGwokNx2/w/vCiXzXQZf3sJ+yS4+HRJZUWYGIq2CsTAwU8tM0Kr
yW0FIHGiapMXvGnNDJ+HZ5AhGrgUJCwR8/B/OwCTRHYeNCtOMPv93avkRTkzTTpr
9FQKqXh4F1iJRwuC6JPRFeEvf4IrzdNqrWvYSkXI0FPgvpix0bMLjTUkSfW0Pm/w
e/hzi4Fg3oy85N4SNXda/ZYnb8iTj/K1DlP+Eygevplg7SiTgeQOi/NGQO+tI99J
ZtgTaRk8AWjCT8pgWO3YRZe0NwIDAQABo4IBIzCCAR8wEQYJYIZIAYb4QgEBBAQD
AgZAMB0GA1UdDgQWBBQgWkOr1zTVaILs8fX6CLclwPt86jCBrAYDVR0jBIGkMIGh
gBS9u5V2XPktISlCIv2Rr7g5JKp+N6F+pHwwejETMBEGA1UEAxQKS09DSElDQV9D
QTELMAkGA1UEBhMCSU4xDzANBgNVBAoTBkNJVFJJWDEMMAoGA1UECxMDQU5HMQsw
CQYDVQQIEwJLQTEqMCgGCSqGSIb3DQEJARYbS09DSElDQV9DQUBLT0NISUNBX21h
aWwuY29tggkA4RDtsjw943EwPAYIKwYBBQUHAQEEMDAuMCwGCCsGAQUFBzABhiBo
dHRwOi8vMTcyLjIyLjIwLjEvcmVzcG9uZGVycGF0aDANBgkqhkiG9w0BAQsFAAOC
AQEAPELim1OZv+Zd3QOW0QS9vblc44r8Zh4lNXvboiTyfI25YvSgQH7mBBG2zycs
LCiLt+QPq2Uiw0jDwXdzRxLUh74bgnTIOSZtZLnJIk5DMRtVnS/tvAsEELLX31In
KJGu4+a24c9kIbmaW9Xcyn75YnutKcmIHquAkSvM3kdoyABJQDjcd7zshQQZlTN6
C30AYyBuefxS4d3SwhYb8QAc0BTZx8LVLd68qSlICnhV/kWG9wP35zGE6gTBM3Tt
2Co1I6v0nnfFiS3hWloBEQbfPjHGAd6rim2MSfhiGubDScaA2/MmAy5o0NB1N9An
9Nq0rQLrhLaCPj25WjfL3Hq50A==
-----END CERTIFICATE-----
