Certificate:
    Data:
        Version: 3 (0x2)
        Serial Number: 11042563100180 (0xa0b0c0d0e14)
    Signature Algorithm: sha256WithRSAEncryption
        Issuer: CN=KOCHICA_CA, C=IN, O=CITRIX, OU=ANG, ST=KA/emailAddress=KOCHICA_CA@KOCHICA_mail.com
        Validity
            Not Before: Jul  8 04:35:17 2016 GMT
            Not After : Jul  6 04:35:17 2026 GMT
        Subject: ST=KA, C=IN, CN=106_KOCHICA_server/emailAddress=106_KOCHICA@test_ca.com, O=CITRIX
        Subject Public Key Info:
            Public Key Algorithm: rsaEncryption
                Public-Key: (2048 bit)
                Modulus:
                    00:9a:72:0b:ff:d7:18:24:37:ef:42:84:65:52:79:
                    52:cb:30:49:64:fe:64:dc:c1:29:81:26:fb:50:87:
                    74:c6:df:e3:dc:cc:f7:67:3a:0e:cb:ba:a7:a1:97:
                    94:e9:32:55:40:f1:d5:d7:b1:7f:a0:ad:60:a4:58:
                    0f:2c:8d:a8:0e:bd:61:f5:0e:f6:24:ff:60:d9:8e:
                    2b:21:69:0c:16:8c:6b:79:83:4f:cf:0f:59:eb:1c:
                    56:6c:8c:13:99:50:53:6e:20:00:91:a3:16:aa:4e:
                    7f:8a:04:a7:5a:69:ad:f0:3c:c3:f1:9b:9a:2f:f2:
                    ee:54:9f:5a:fe:0a:20:0c:57:2f:d8:04:67:ea:35:
                    60:8b:19:21:15:20:04:c8:ae:80:5a:26:3b:42:64:
                    79:37:a8:e5:25:a8:6b:dc:2f:44:86:16:16:c6:ad:
                    43:ed:c2:57:07:fc:73:72:2e:55:a3:3d:bc:2f:ce:
                    35:a5:fa:9c:50:28:31:b4:27:bc:a5:f5:e1:e7:cd:
                    ad:f9:17:b5:9a:b6:4b:b8:43:55:b8:27:bd:36:1d:
                    74:ea:00:68:1d:35:be:a2:e5:c7:12:3c:2a:52:32:
                    0b:b7:04:f2:76:cf:20:0b:78:bf:89:12:10:a6:1d:
                    05:32:24:c0:2d:f1:be:8c:96:98:d8:9b:7a:5c:94:
                    fe:47
                Exponent: 65537 (0x10001)
        X509v3 extensions:
            Netscape Cert Type: 
                SSL Server
            X509v3 Subject Key Identifier: 
                41:37:73:33:5C:5F:05:D3:C9:B2:B1:C1:D6:52:E1:BD:AD:19:22:0A
            X509v3 Authority Key Identifier: 
                keyid:BD:BB:95:76:5C:F9:2D:21:29:42:22:FD:91:AF:B8:39:24:AA:7E:37
                DirName:/CN=KOCHICA_CA/C=IN/O=CITRIX/OU=ANG/ST=KA/emailAddress=KOCHICA_CA@KOCHICA_mail.com
                serial:E1:10:ED:B2:3C:3D:E3:71

            Authority Information Access: 
                OCSP - URI:http://KOCHICA_one.ocsptest.com/responderpath

    Signature Algorithm: sha256WithRSAEncryption
         7f:4f:d1:65:a6:bc:5f:a9:15:73:1a:32:53:00:ba:3e:00:00:
         52:8e:bc:7c:3b:fd:90:83:4c:60:04:88:34:58:b9:7f:b6:83:
         18:84:8b:dc:a2:b7:15:e6:12:a9:3f:64:f1:d4:80:9f:37:aa:
         46:c3:2a:74:90:a8:7a:a1:59:74:1e:55:9c:2b:51:18:b4:31:
         74:09:6c:8c:79:c4:91:8d:0c:e4:d9:ac:f2:32:82:13:b1:a6:
         00:6a:06:46:cb:b2:c4:e0:5d:6c:5a:87:2d:c7:49:1e:38:8e:
         54:97:c5:5e:0d:b8:36:e8:c6:2c:a1:82:8e:45:15:2c:1b:f9:
         c9:e0:ec:81:5f:a3:d7:29:b3:ee:6b:cf:4b:56:88:8c:00:4f:
         a7:ee:3c:1b:1c:6c:6b:23:c2:38:96:7e:67:7f:73:47:56:0e:
         49:a5:37:6f:69:1d:46:34:49:3a:6e:95:d0:20:2c:2d:18:5a:
         74:c9:97:a0:1c:82:77:fb:54:26:fa:e8:86:70:00:4e:39:b9:
         a3:1e:c1:d6:09:7f:ed:24:63:a2:d1:19:2c:8d:c5:0d:2a:de:
         f4:30:dd:77:29:5c:e8:ca:72:3f:d5:f7:a7:ad:eb:21:af:f7:
         e5:40:f1:ae:e1:1d:32:79:f1:c3:8e:8e:b3:1d:13:d5:a7:bc:
         91:01:2f:c1
-----BEGIN CERTIFICATE-----
MIIEnDCCA4SgAwIBAgIGCgsMDQ4UMA0GCSqGSIb3DQEBCwUAMHoxEzARBgNVBAMU
CktPQ0hJQ0FfQ0ExCzAJBgNVBAYTAklOMQ8wDQYDVQQKEwZDSVRSSVgxDDAKBgNV
BAsTA0FORzELMAkGA1UECBMCS0ExKjAoBgkqhkiG9w0BCQEWG0tPQ0hJQ0FfQ0FA
S09DSElDQV9tYWlsLmNvbTAeFw0xNjA3MDgwNDM1MTdaFw0yNjA3MDYwNDM1MTda
MHAxCzAJBgNVBAgTAktBMQswCQYDVQQGEwJJTjEbMBkGA1UEAxQSMTA2X0tPQ0hJ
Q0Ffc2VydmVyMSYwJAYJKoZIhvcNAQkBFhcxMDZfS09DSElDQUB0ZXN0X2NhLmNv
bTEPMA0GA1UEChMGQ0lUUklYMIIBIjANBgkqhkiG9w0BAQEFAAOCAQ8AMIIBCgKC
AQEAmnIL/9cYJDfvQoRlUnlSyzBJZP5k3MEpgSb7UId0xt/j3Mz3ZzoOy7qnoZeU
6TJVQPHV17F/oK1gpFgPLI2oDr1h9Q72JP9g2Y4rIWkMFoxreYNPzw9Z6xxWbIwT
mVBTbiAAkaMWqk5/igSnWmmt8DzD8ZuaL/LuVJ9a/gogDFcv2ARn6jVgixkhFSAE
yK6AWiY7QmR5N6jlJahr3C9EhhYWxq1D7cJXB/xzci5Voz28L841pfqcUCgxtCe8
pfXh582t+Re1mrZLuENVuCe9Nh106gBoHTW+ouXHEjwqUjILtwTyds8gC3i/iRIQ
ph0FMiTALfG+jJaY2Jt6XJT+RwIDAQABo4IBMDCCASwwEQYJYIZIAYb4QgEBBAQD
AgZAMB0GA1UdDgQWBBRBN3MzXF8F08myscHWUuG9rRkiCjCBrAYDVR0jBIGkMIGh
gBS9u5V2XPktISlCIv2Rr7g5JKp+N6F+pHwwejETMBEGA1UEAxQKS09DSElDQV9D
QTELMAkGA1UEBhMCSU4xDzANBgNVBAoTBkNJVFJJWDEMMAoGA1UECxMDQU5HMQsw
CQYDVQQIEwJLQTEqMCgGCSqGSIb3DQEJARYbS09DSElDQV9DQUBLT0NISUNBX21h
aWwuY29tggkA4RDtsjw943EwSQYIKwYBBQUHAQEEPTA7MDkGCCsGAQUFBzABhi1o
dHRwOi8vS09DSElDQV9vbmUub2NzcHRlc3QuY29tL3Jlc3BvbmRlcnBhdGgwDQYJ
KoZIhvcNAQELBQADggEBAH9P0WWmvF+pFXMaMlMAuj4AAFKOvHw7/ZCDTGAEiDRY
uX+2gxiEi9yitxXmEqk/ZPHUgJ83qkbDKnSQqHqhWXQeVZwrURi0MXQJbIx5xJGN
DOTZrPIyghOxpgBqBkbLssTgXWxahy3HSR44jlSXxV4NuDboxiyhgo5FFSwb+cng
7IFfo9cps+5rz0tWiIwAT6fuPBscbGsjwjiWfmd/c0dWDkmlN29pHUY0STpuldAg
LC0YWnTJl6Acgnf7VCb66IZwAE45uaMewdYJf+0kY6LRGSyNxQ0q3vQw3XcpXOjK
cj/V96et6yGv9+VA8a7hHTJ58cOOjrMdE9WnvJEBL8E=
-----END CERTIFICATE-----
