Certificate:
    Data:
        Version: 3 (0x2)
        Serial Number: 11042563100210 (0xa0b0c0d0e32)
    Signature Algorithm: sha256WithRSAEncryption
        Issuer: CN=KOCHICA_CA, C=IN, O=CITRIX, OU=ANG, ST=KA/emailAddress=KOCHICA_CA@KOCHICA_mail.com
        Validity
            Not Before: Jul  8 04:35:27 2016 GMT
            Not After : Jul  6 04:35:27 2026 GMT
        Subject: ST=KA, C=IN, CN=136_KOCHICA_server/emailAddress=136_KOCHICA@test_ca.com, O=CITRIX
        Subject Public Key Info:
            Public Key Algorithm: rsaEncryption
                Public-Key: (2048 bit)
                Modulus:
                    00:c0:05:72:08:9c:e3:7e:42:c9:fb:76:c4:4b:92:
                    b9:bb:66:fd:64:4a:e4:da:ab:a5:9a:15:16:b9:99:
                    62:01:a9:a7:2e:7d:bd:12:67:fa:64:a4:49:e7:b3:
                    53:a3:82:ee:54:9c:a6:d0:fe:7c:62:79:ef:50:1f:
                    d8:69:87:cf:54:f6:c0:0f:24:02:8c:09:8f:c1:47:
                    72:89:b1:c3:34:d1:65:db:87:f6:14:e0:80:46:19:
                    f2:70:30:e6:96:14:f7:db:d4:54:06:0f:10:70:c3:
                    d2:7f:02:41:a8:4e:b9:71:ae:67:45:6e:64:13:e4:
                    c3:ec:18:49:8f:38:03:36:53:2a:b6:13:dc:92:5f:
                    32:77:4e:3f:12:99:72:24:5e:1b:ba:67:09:ea:ac:
                    13:a3:d1:d5:43:eb:2a:ff:19:71:3e:6f:84:9b:59:
                    62:7f:28:30:9e:63:b7:bf:67:6e:02:f4:88:87:5e:
                    54:e8:36:89:26:26:20:cc:26:ce:ef:24:fe:2f:14:
                    81:1a:bb:e6:fe:e6:d0:bd:c5:de:d5:1d:7a:32:01:
                    20:8d:6d:e4:44:f5:4e:d9:71:55:99:a2:82:8f:d9:
                    22:34:62:a0:6f:60:72:f5:0d:a6:e4:32:93:2b:ae:
                    f9:f4:47:72:41:c4:57:a8:fd:b3:92:94:a8:4e:72:
                    4b:c9
                Exponent: 65537 (0x10001)
        X509v3 extensions:
            Netscape Cert Type: 
                SSL Server
            X509v3 Subject Key Identifier: 
                1F:45:D8:34:83:7D:A4:00:8A:00:42:DA:4A:6B:35:DA:A5:49:74:90
            X509v3 Authority Key Identifier: 
                keyid:BD:BB:95:76:5C:F9:2D:21:29:42:22:FD:91:AF:B8:39:24:AA:7E:37
                DirName:/CN=KOCHICA_CA/C=IN/O=CITRIX/OU=ANG/ST=KA/emailAddress=KOCHICA_CA@KOCHICA_mail.com
                serial:E1:10:ED:B2:3C:3D:E3:71

            Authority Information Access: 
                OCSP - URI:http://172.22.20.1/responderpath

    Signature Algorithm: sha256WithRSAEncryption
         67:ed:25:53:a3:5f:69:15:bb:a4:34:bf:0c:4f:8e:b9:7d:79:
         f9:05:f3:27:8f:d6:d4:b5:be:f4:53:d5:af:b2:2f:43:f1:c7:
         56:79:a0:f6:2b:01:f2:e3:de:27:44:cf:fc:98:01:fc:0f:e9:
         d7:98:21:58:d3:33:a3:8f:03:6e:8d:0c:d3:df:a2:e7:09:52:
         05:b1:d4:51:33:80:7c:3a:83:26:50:a6:fd:49:1e:27:e0:d0:
         5f:1a:99:14:f6:3b:b6:17:30:ce:d1:f2:44:6a:b5:f4:c6:3f:
         ea:a8:98:ac:66:bf:92:f0:b8:00:ba:77:36:6b:59:01:22:2b:
         b2:f3:15:69:6b:e6:9c:b4:e8:a5:d2:da:41:c6:d4:88:0f:ab:
         47:20:84:44:bb:82:ba:fc:44:0e:ba:30:c3:17:36:45:32:1c:
         7e:c5:5a:bd:a1:12:1a:b1:ef:7a:ce:9f:cc:90:85:e1:a8:73:
         e7:4f:7c:5d:02:73:ee:77:94:ae:49:ff:f6:e6:64:bb:41:41:
         0c:70:f5:37:36:17:e3:92:5d:ac:56:e7:75:f0:5b:57:6a:4f:
         7a:e0:7e:61:02:d3:7e:bc:80:da:94:39:01:01:e7:84:e4:40:
         5d:f7:cc:a1:aa:55:d3:9b:8e:6a:e5:7e:c1:dc:83:9d:50:cc:
         43:b4:8d:58
-----BEGIN CERTIFICATE-----
MIIEjzCCA3egAwIBAgIGCgsMDQ4yMA0GCSqGSIb3DQEBCwUAMHoxEzARBgNVBAMU
CktPQ0hJQ0FfQ0ExCzAJBgNVBAYTAklOMQ8wDQYDVQQKEwZDSVRSSVgxDDAKBgNV
BAsTA0FORzELMAkGA1UECBMCS0ExKjAoBgkqhkiG9w0BCQEWG0tPQ0hJQ0FfQ0FA
S09DSElDQV9tYWlsLmNvbTAeFw0xNjA3MDgwNDM1MjdaFw0yNjA3MDYwNDM1Mjda
MHAxCzAJBgNVBAgTAktBMQswCQYDVQQGEwJJTjEbMBkGA1UEAxQSMTM2X0tPQ0hJ
Q0Ffc2VydmVyMSYwJAYJKoZIhvcNAQkBFhcxMzZfS09DSElDQUB0ZXN0X2NhLmNv
bTEPMA0GA1UEChMGQ0lUUklYMIIBIjANBgkqhkiG9w0BAQEFAAOCAQ8AMIIBCgKC
AQEAwAVyCJzjfkLJ+3bES5K5u2b9ZErk2qulmhUWuZliAamnLn29Emf6ZKRJ57NT
o4LuVJym0P58YnnvUB/YaYfPVPbADyQCjAmPwUdyibHDNNFl24f2FOCARhnycDDm
lhT329RUBg8QcMPSfwJBqE65ca5nRW5kE+TD7BhJjzgDNlMqthPckl8yd04/Eply
JF4bumcJ6qwTo9HVQ+sq/xlxPm+Em1lifygwnmO3v2duAvSIh15U6DaJJiYgzCbO
7yT+LxSBGrvm/ubQvcXe1R16MgEgjW3kRPVO2XFVmaKCj9kiNGKgb2By9Q2m5DKT
K6759EdyQcRXqP2zkpSoTnJLyQIDAQABo4IBIzCCAR8wEQYJYIZIAYb4QgEBBAQD
AgZAMB0GA1UdDgQWBBQfRdg0g32kAIoAQtpKazXapUl0kDCBrAYDVR0jBIGkMIGh
gBS9u5V2XPktISlCIv2Rr7g5JKp+N6F+pHwwejETMBEGA1UEAxQKS09DSElDQV9D
QTELMAkGA1UEBhMCSU4xDzANBgNVBAoTBkNJVFJJWDEMMAoGA1UECxMDQU5HMQsw
CQYDVQQIEwJLQTEqMCgGCSqGSIb3DQEJARYbS09DSElDQV9DQUBLT0NISUNBX21h
aWwuY29tggkA4RDtsjw943EwPAYIKwYBBQUHAQEEMDAuMCwGCCsGAQUFBzABhiBo
dHRwOi8vMTcyLjIyLjIwLjEvcmVzcG9uZGVycGF0aDANBgkqhkiG9w0BAQsFAAOC
AQEAZ+0lU6NfaRW7pDS/DE+OuX15+QXzJ4/W1LW+9FPVr7IvQ/HHVnmg9isB8uPe
J0TP/JgB/A/p15ghWNMzo48Dbo0M09+i5wlSBbHUUTOAfDqDJlCm/UkeJ+DQXxqZ
FPY7thcwztHyRGq19MY/6qiYrGa/kvC4ALp3NmtZASIrsvMVaWvmnLTopdLaQcbU
iA+rRyCERLuCuvxEDrowwxc2RTIcfsVavaESGrHves6fzJCF4ahz5098XQJz7neU
rkn/9uZku0FBDHD1NzYX45JdrFbndfBbV2pPeuB+YQLTfryA2pQ5AQHnhORAXffM
oapV05uOauV+wdyDnVDMQ7SNWA==
-----END CERTIFICATE-----
