Certificate:
    Data:
        Version: 3 (0x2)
        Serial Number: 11042563100202 (0xa0b0c0d0e2a)
    Signature Algorithm: sha256WithRSAEncryption
        Issuer: CN=KOCHICA_CA, C=IN, O=CITRIX, OU=ANG, ST=KA/emailAddress=KOCHICA_CA@KOCHICA_mail.com
        Validity
            Not Before: Jul  8 04:35:24 2016 GMT
            Not After : Jul  6 04:35:24 2026 GMT
        Subject: ST=KA, C=IN, CN=128_KOCHICA_server/emailAddress=128_KOCHICA@test_ca.com, O=CITRIX
        Subject Public Key Info:
            Public Key Algorithm: rsaEncryption
                Public-Key: (2048 bit)
                Modulus:
                    00:a4:a1:43:93:05:c9:67:85:1d:6c:67:71:44:73:
                    96:8a:4b:4d:d3:bf:77:a1:9d:45:d7:43:ac:1f:da:
                    1e:eb:cb:88:4e:bb:58:b5:cf:79:39:84:61:83:9e:
                    98:45:8f:45:28:40:47:85:70:dc:ab:aa:46:0d:94:
                    b7:50:01:ce:b6:44:c2:f8:3c:74:d2:4d:2a:d6:d5:
                    6f:34:1e:9b:64:e8:9b:db:e4:10:5e:12:e7:e5:4d:
                    5a:35:f6:bd:bc:57:3c:f7:60:93:85:ba:8c:9a:51:
                    be:c1:95:ec:f2:cb:fc:5f:39:0e:af:b0:a0:ae:3a:
                    85:68:97:e9:bd:3a:de:7d:5c:fe:c3:09:34:25:5d:
                    37:a7:e8:55:31:a3:a6:07:5d:56:d2:a3:98:88:20:
                    5c:6a:72:28:3e:e7:f4:e1:4c:a7:10:5a:04:e7:0f:
                    77:b1:69:61:be:c6:90:a4:4e:13:56:d5:0f:25:6c:
                    16:63:5f:5e:39:16:d3:f5:83:d6:5a:a9:f7:f1:5b:
                    5a:da:35:e6:1c:4b:e5:fe:70:0a:45:54:01:f6:b1:
                    66:e0:4d:8c:86:72:e2:01:0a:b6:81:ff:c0:22:d6:
                    d1:3b:88:ee:51:06:67:bd:03:2f:5e:9f:36:2b:88:
                    03:49:ad:0f:de:0d:18:71:c0:9b:4b:09:80:1e:ca:
                    91:b9
                Exponent: 65537 (0x10001)
        X509v3 extensions:
            Netscape Cert Type: 
                SSL Server
            X509v3 Subject Key Identifier: 
                79:1B:18:01:3D:05:94:91:3A:99:31:79:A0:6F:5B:7B:51:52:D1:A4
            X509v3 Authority Key Identifier: 
                keyid:BD:BB:95:76:5C:F9:2D:21:29:42:22:FD:91:AF:B8:39:24:AA:7E:37
                DirName:/CN=KOCHICA_CA/C=IN/O=CITRIX/OU=ANG/ST=KA/emailAddress=KOCHICA_CA@KOCHICA_mail.com
                serial:E1:10:ED:B2:3C:3D:E3:71

            Authority Information Access: 
                OCSP - URI:http://172.22.10.1/responderpath

    Signature Algorithm: sha256WithRSAEncryption
         0e:3e:51:44:8a:11:78:ba:46:12:f3:d4:71:52:6c:f1:70:31:
         30:43:0f:bd:76:c1:95:0b:a3:76:69:a8:e4:1e:c2:b3:99:7b:
         15:ba:26:08:83:a1:6b:d5:5f:1e:f8:62:fd:6e:4a:2e:bd:98:
         69:de:b8:0c:aa:43:ce:33:9b:74:9c:00:07:28:e1:4b:34:bf:
         56:2d:e9:7e:b9:ef:b2:c2:1e:86:5a:cf:06:ab:7a:e8:19:12:
         40:df:e2:dd:bc:6b:57:31:88:cd:b1:a4:03:9e:f5:df:bf:d1:
         ba:4a:df:60:b0:8f:0c:c7:1f:c9:ce:9f:a9:71:dc:93:a3:e8:
         0d:13:b6:d6:f4:00:3f:7a:d6:22:57:98:e9:f6:00:b6:3d:eb:
         bb:d4:5b:9d:a4:04:1a:e1:10:ed:6f:b6:21:7a:fe:dd:c4:af:
         65:2b:fa:8c:9e:1b:ae:3a:1a:0e:09:57:ba:2a:28:c6:8f:e4:
         0c:6b:54:ac:d8:19:5d:6b:d3:be:c5:db:b7:32:55:60:fd:35:
         79:21:2e:e2:5f:e7:44:4e:ef:dd:2d:5e:fb:d8:ba:f6:a9:04:
         fc:77:58:b5:cf:29:30:cb:df:b1:31:06:10:5d:21:b2:de:ec:
         5f:91:ce:c9:0d:9c:25:fb:25:86:af:14:13:86:cf:a0:a5:2e:
         ff:6f:3f:5e
-----BEGIN CERTIFICATE-----
MIIEjzCCA3egAwIBAgIGCgsMDQ4qMA0GCSqGSIb3DQEBCwUAMHoxEzARBgNVBAMU
CktPQ0hJQ0FfQ0ExCzAJBgNVBAYTAklOMQ8wDQYDVQQKEwZDSVRSSVgxDDAKBgNV
BAsTA0FORzELMAkGA1UECBMCS0ExKjAoBgkqhkiG9w0BCQEWG0tPQ0hJQ0FfQ0FA
S09DSElDQV9tYWlsLmNvbTAeFw0xNjA3MDgwNDM1MjRaFw0yNjA3MDYwNDM1MjRa
MHAxCzAJBgNVBAgTAktBMQswCQYDVQQGEwJJTjEbMBkGA1UEAxQSMTI4X0tPQ0hJ
Q0Ffc2VydmVyMSYwJAYJKoZIhvcNAQkBFhcxMjhfS09DSElDQUB0ZXN0X2NhLmNv
bTEPMA0GA1UEChMGQ0lUUklYMIIBIjANBgkqhkiG9w0BAQEFAAOCAQ8AMIIBCgKC
AQEApKFDkwXJZ4UdbGdxRHOWiktN0793oZ1F10OsH9oe68uITrtYtc95OYRhg56Y
RY9FKEBHhXDcq6pGDZS3UAHOtkTC+Dx00k0q1tVvNB6bZOib2+QQXhLn5U1aNfa9
vFc892CThbqMmlG+wZXs8sv8XzkOr7CgrjqFaJfpvTrefVz+wwk0JV03p+hVMaOm
B11W0qOYiCBcanIoPuf04UynEFoE5w93sWlhvsaQpE4TVtUPJWwWY19eORbT9YPW
Wqn38Vta2jXmHEvl/nAKRVQB9rFm4E2MhnLiAQq2gf/AItbRO4juUQZnvQMvXp82
K4gDSa0P3g0YccCbSwmAHsqRuQIDAQABo4IBIzCCAR8wEQYJYIZIAYb4QgEBBAQD
AgZAMB0GA1UdDgQWBBR5GxgBPQWUkTqZMXmgb1t7UVLRpDCBrAYDVR0jBIGkMIGh
gBS9u5V2XPktISlCIv2Rr7g5JKp+N6F+pHwwejETMBEGA1UEAxQKS09DSElDQV9D
QTELMAkGA1UEBhMCSU4xDzANBgNVBAoTBkNJVFJJWDEMMAoGA1UECxMDQU5HMQsw
CQYDVQQIEwJLQTEqMCgGCSqGSIb3DQEJARYbS09DSElDQV9DQUBLT0NISUNBX21h
aWwuY29tggkA4RDtsjw943EwPAYIKwYBBQUHAQEEMDAuMCwGCCsGAQUFBzABhiBo
dHRwOi8vMTcyLjIyLjEwLjEvcmVzcG9uZGVycGF0aDANBgkqhkiG9w0BAQsFAAOC
AQEADj5RRIoReLpGEvPUcVJs8XAxMEMPvXbBlQujdmmo5B7Cs5l7FbomCIOha9Vf
Hvhi/W5KLr2Yad64DKpDzjObdJwAByjhSzS/Vi3pfrnvssIehlrPBqt66BkSQN/i
3bxrVzGIzbGkA57137/RukrfYLCPDMcfyc6fqXHck6PoDRO21vQAP3rWIleY6fYA
tj3ru9RbnaQEGuEQ7W+2IXr+3cSvZSv6jJ4brjoaDglXuiooxo/kDGtUrNgZXWvT
vsXbtzJVYP01eSEu4l/nRE7v3S1e+9i69qkE/HdYtc8pMMvfsTEGEF0hst7sX5HO
yQ2cJfslhq8UE4bPoKUu/28/Xg==
-----END CERTIFICATE-----
