Certificate:
    Data:
        Version: 3 (0x2)
        Serial Number: 11042563100213 (0xa0b0c0d0e35)
    Signature Algorithm: sha256WithRSAEncryption
        Issuer: CN=KOCHICA_CA, C=IN, O=CITRIX, OU=ANG, ST=KA/emailAddress=KOCHICA_CA@KOCHICA_mail.com
        Validity
            Not Before: Jul  8 04:35:28 2016 GMT
            Not After : Jul  6 04:35:28 2026 GMT
        Subject: ST=KA, C=IN, CN=139_KOCHICA_server/emailAddress=139_KOCHICA@test_ca.com, O=CITRIX
        Subject Public Key Info:
            Public Key Algorithm: rsaEncryption
                Public-Key: (2048 bit)
                Modulus:
                    00:b7:f8:31:c1:22:70:d5:cc:2c:ac:fb:fe:fa:c8:
                    9f:d9:3f:89:42:8b:ed:66:c3:7d:d9:8d:03:64:66:
                    06:43:ce:d4:b3:94:a2:98:ac:01:97:7b:11:f1:a5:
                    23:a0:3d:a4:14:3b:f3:92:a8:44:75:85:9c:9a:65:
                    a0:8b:8e:4b:c3:40:a9:ca:c0:55:c3:e3:d3:91:a8:
                    75:d1:58:f0:13:4f:17:27:7c:33:78:57:8b:93:1e:
                    38:5b:05:43:0c:36:3a:db:af:4f:59:ef:44:9d:51:
                    21:41:d1:45:93:53:30:3f:e3:b4:cc:07:82:6b:5f:
                    03:08:a2:33:62:ff:9b:1d:55:dc:60:88:74:03:70:
                    70:09:6e:08:0e:50:48:29:62:4e:9f:9e:98:18:7d:
                    05:e4:f7:70:15:29:4c:68:5a:5a:9b:b6:9b:f7:b4:
                    7f:98:77:57:52:4c:bb:af:23:ec:e8:f5:88:4b:58:
                    92:c9:2a:a6:ce:d1:70:57:c2:a3:34:e2:26:6c:20:
                    35:a8:5e:83:08:06:10:ab:6b:9b:e8:13:3f:3a:91:
                    4f:71:6d:e2:52:68:e4:ba:f3:ca:fe:0c:7c:74:b1:
                    1d:06:c3:a7:62:08:a5:d3:80:ee:b2:59:c5:3d:aa:
                    c8:59:58:e6:11:c4:43:f7:e7:15:9a:2d:54:f2:8a:
                    ee:91
                Exponent: 65537 (0x10001)
        X509v3 extensions:
            Netscape Cert Type: 
                SSL Server
            X509v3 Subject Key Identifier: 
                84:CD:EC:2A:86:81:CF:B8:32:A9:6D:CC:9B:7A:BC:85:83:4D:26:A5
            X509v3 Authority Key Identifier: 
                keyid:BD:BB:95:76:5C:F9:2D:21:29:42:22:FD:91:AF:B8:39:24:AA:7E:37
                DirName:/CN=KOCHICA_CA/C=IN/O=CITRIX/OU=ANG/ST=KA/emailAddress=KOCHICA_CA@KOCHICA_mail.com
                serial:E1:10:ED:B2:3C:3D:E3:71

            Authority Information Access: 
                OCSP - URI:http://172.22.20.1/responderpath

    Signature Algorithm: sha256WithRSAEncryption
         88:a8:69:38:3f:22:50:09:04:07:08:fa:76:c1:36:8c:72:3f:
         92:a8:a5:bb:b4:db:d7:00:6a:1a:29:d8:be:77:ec:bd:65:20:
         41:92:c2:82:54:a6:b6:32:1e:fb:4a:c2:e3:7f:0c:9e:91:06:
         eb:ff:ba:3e:11:eb:8f:79:86:1b:33:fc:91:81:80:8e:95:ca:
         95:0c:bb:f2:f8:bb:2f:eb:f5:01:49:88:27:aa:42:4c:70:c3:
         17:51:19:3c:88:10:cd:27:84:5e:bf:9f:34:b8:6f:8b:d0:db:
         a4:6f:3d:5e:60:a7:55:d7:04:4e:1e:bd:42:90:36:44:b2:cd:
         f3:13:21:23:ce:3c:23:24:62:c2:16:d7:22:f6:77:0f:e1:77:
         fe:55:91:69:99:7e:08:d2:2c:27:17:04:81:51:3e:d8:3b:a4:
         62:8f:1f:ee:0a:1f:c4:11:7f:c8:9f:44:6a:14:8a:d9:19:12:
         0d:9b:a2:b4:30:55:93:ff:ee:ce:90:15:aa:06:f0:40:ad:82:
         5c:01:9b:5b:00:1d:2b:25:7b:70:6f:4b:72:72:f1:99:35:78:
         39:99:91:ea:92:51:8f:89:2c:73:e0:90:1d:7d:03:89:75:70:
         81:ad:6d:54:42:b6:d1:05:ef:8e:d7:ef:a1:78:17:a0:df:2c:
         eb:4a:bc:02
-----BEGIN CERTIFICATE-----
MIIEjzCCA3egAwIBAgIGCgsMDQ41MA0GCSqGSIb3DQEBCwUAMHoxEzARBgNVBAMU
CktPQ0hJQ0FfQ0ExCzAJBgNVBAYTAklOMQ8wDQYDVQQKEwZDSVRSSVgxDDAKBgNV
BAsTA0FORzELMAkGA1UECBMCS0ExKjAoBgkqhkiG9w0BCQEWG0tPQ0hJQ0FfQ0FA
S09DSElDQV9tYWlsLmNvbTAeFw0xNjA3MDgwNDM1MjhaFw0yNjA3MDYwNDM1Mjha
MHAxCzAJBgNVBAgTAktBMQswCQYDVQQGEwJJTjEbMBkGA1UEAxQSMTM5X0tPQ0hJ
Q0Ffc2VydmVyMSYwJAYJKoZIhvcNAQkBFhcxMzlfS09DSElDQUB0ZXN0X2NhLmNv
bTEPMA0GA1UEChMGQ0lUUklYMIIBIjANBgkqhkiG9w0BAQEFAAOCAQ8AMIIBCgKC
AQEAt/gxwSJw1cwsrPv++sif2T+JQovtZsN92Y0DZGYGQ87Us5SimKwBl3sR8aUj
oD2kFDvzkqhEdYWcmmWgi45Lw0CpysBVw+PTkah10VjwE08XJ3wzeFeLkx44WwVD
DDY6269PWe9EnVEhQdFFk1MwP+O0zAeCa18DCKIzYv+bHVXcYIh0A3BwCW4IDlBI
KWJOn56YGH0F5PdwFSlMaFpam7ab97R/mHdXUky7ryPs6PWIS1iSySqmztFwV8Kj
NOImbCA1qF6DCAYQq2ub6BM/OpFPcW3iUmjkuvPK/gx8dLEdBsOnYgil04DuslnF
ParIWVjmEcRD9+cVmi1U8orukQIDAQABo4IBIzCCAR8wEQYJYIZIAYb4QgEBBAQD
AgZAMB0GA1UdDgQWBBSEzewqhoHPuDKpbcyberyFg00mpTCBrAYDVR0jBIGkMIGh
gBS9u5V2XPktISlCIv2Rr7g5JKp+N6F+pHwwejETMBEGA1UEAxQKS09DSElDQV9D
QTELMAkGA1UEBhMCSU4xDzANBgNVBAoTBkNJVFJJWDEMMAoGA1UECxMDQU5HMQsw
CQYDVQQIEwJLQTEqMCgGCSqGSIb3DQEJARYbS09DSElDQV9DQUBLT0NISUNBX21h
aWwuY29tggkA4RDtsjw943EwPAYIKwYBBQUHAQEEMDAuMCwGCCsGAQUFBzABhiBo
dHRwOi8vMTcyLjIyLjIwLjEvcmVzcG9uZGVycGF0aDANBgkqhkiG9w0BAQsFAAOC
AQEAiKhpOD8iUAkEBwj6dsE2jHI/kqilu7Tb1wBqGinYvnfsvWUgQZLCglSmtjIe
+0rC438MnpEG6/+6PhHrj3mGGzP8kYGAjpXKlQy78vi7L+v1AUmIJ6pCTHDDF1EZ
PIgQzSeEXr+fNLhvi9DbpG89XmCnVdcETh69QpA2RLLN8xMhI848IyRiwhbXIvZ3
D+F3/lWRaZl+CNIsJxcEgVE+2DukYo8f7gofxBF/yJ9EahSK2RkSDZuitDBVk//u
zpAVqgbwQK2CXAGbWwAdKyV7cG9LcnLxmTV4OZmR6pJRj4ksc+CQHX0DiXVwga1t
VEK20QXvjtfvoXgXoN8s60q8Ag==
-----END CERTIFICATE-----
