Certificate:
    Data:
        Version: 3 (0x2)
        Serial Number: 11042563100175 (0xa0b0c0d0e0f)
    Signature Algorithm: sha256WithRSAEncryption
        Issuer: CN=KOCHICA_CA, C=IN, O=CITRIX, OU=ANG, ST=KA/emailAddress=KOCHICA_CA@KOCHICA_mail.com
        Validity
            Not Before: Jul  8 04:35:16 2016 GMT
            Not After : Jul  6 04:35:16 2026 GMT
        Subject: ST=KA, C=IN, CN=101_KOCHICA_server/emailAddress=101_KOCHICA@test_ca.com, O=CITRIX
        Subject Public Key Info:
            Public Key Algorithm: rsaEncryption
                Public-Key: (2048 bit)
                Modulus:
                    00:e1:f7:35:27:65:f4:d0:9b:c5:d7:ca:14:a7:00:
                    d3:a0:6a:6f:39:f2:7d:4d:3c:05:07:11:ba:7a:56:
                    f9:f9:52:28:d2:fc:07:eb:60:8b:43:75:16:69:86:
                    aa:20:e4:c5:fd:a9:63:ba:d5:ec:d0:01:a0:6b:18:
                    54:83:dd:02:60:c9:22:f3:b5:37:8f:0d:9b:57:30:
                    ea:9c:ca:46:4d:6b:b5:ef:62:f9:22:4e:92:a2:85:
                    88:ce:8b:05:4a:58:84:9d:ae:39:97:ae:64:8b:99:
                    0b:af:c7:57:4d:3a:c4:24:9b:b4:7c:6f:86:cf:77:
                    2b:f7:aa:cb:4d:1c:d2:64:4b:e6:9b:4c:45:43:bc:
                    77:98:c2:75:00:ce:be:af:55:d1:6f:8a:7f:88:3f:
                    d4:59:ce:75:c3:c4:65:8e:c7:97:57:75:a7:83:46:
                    a4:65:05:db:83:2c:2c:3b:c6:e4:aa:39:f1:a6:cf:
                    01:59:29:ce:a5:08:01:77:42:b1:32:46:b8:d1:00:
                    9d:e6:21:52:53:24:4e:5e:42:74:13:8e:5d:f4:e7:
                    ed:e0:35:14:24:c8:1d:c2:67:a3:70:36:5c:a9:10:
                    f6:46:8a:f3:ff:b8:02:c7:1d:cf:d4:c3:85:da:f7:
                    13:7f:5e:b2:57:44:26:f2:1e:2f:c6:91:8a:fc:32:
                    9e:d9
                Exponent: 65537 (0x10001)
        X509v3 extensions:
            Netscape Cert Type: 
                SSL Server
            X509v3 Subject Key Identifier: 
                E1:F1:0D:38:18:0A:EC:79:F0:64:91:53:48:4D:59:D0:F3:75:30:95
            X509v3 Authority Key Identifier: 
                keyid:BD:BB:95:76:5C:F9:2D:21:29:42:22:FD:91:AF:B8:39:24:AA:7E:37
                DirName:/CN=KOCHICA_CA/C=IN/O=CITRIX/OU=ANG/ST=KA/emailAddress=KOCHICA_CA@KOCHICA_mail.com
                serial:E1:10:ED:B2:3C:3D:E3:71

            Authority Information Access: 
                OCSP - URI:http://KOCHICA_one.ocsptest.com/responderpath

    Signature Algorithm: sha256WithRSAEncryption
         76:d6:9c:2a:c0:90:9a:8e:a6:02:e0:5d:bf:33:81:44:3f:45:
         ea:76:36:ba:11:67:fb:eb:dd:c4:41:5c:4d:78:d0:ea:f3:08:
         84:35:d4:61:1d:84:d2:11:f6:f0:7c:24:5c:ee:b8:4d:66:b4:
         fd:9c:b2:32:44:3c:aa:b7:6e:a9:86:4b:84:cd:ef:7b:8e:48:
         d2:17:3f:91:e5:0c:0d:1e:77:de:36:af:17:9e:04:19:70:3e:
         d8:a3:f9:99:44:db:4e:b4:bb:53:21:73:04:6c:95:9e:19:bc:
         39:01:f4:96:d6:7a:e0:24:a6:9c:c3:5c:bc:40:14:1e:1c:a1:
         89:3a:bd:e6:e1:8c:34:90:28:c3:45:0b:db:eb:5e:50:db:5b:
         1f:ee:d0:91:28:1c:11:59:69:28:c5:62:f7:ae:f0:b2:bb:98:
         bc:f2:fb:cb:5c:07:a2:b0:0f:c6:35:a2:12:0f:8a:38:1a:f1:
         9b:8c:12:92:5b:88:b4:5e:5d:15:82:ce:21:2c:7c:8b:ff:b0:
         f6:76:eb:97:35:de:9a:7b:2a:c7:01:bc:bc:15:be:ce:fc:fd:
         00:f1:0a:25:3b:16:2b:c9:2e:ac:d8:14:3e:61:bd:4e:88:9f:
         bd:44:69:e8:28:71:43:8f:7b:c4:d0:d4:03:49:70:e6:fc:2f:
         80:d6:95:46
-----BEGIN CERTIFICATE-----
MIIEnDCCA4SgAwIBAgIGCgsMDQ4PMA0GCSqGSIb3DQEBCwUAMHoxEzARBgNVBAMU
CktPQ0hJQ0FfQ0ExCzAJBgNVBAYTAklOMQ8wDQYDVQQKEwZDSVRSSVgxDDAKBgNV
BAsTA0FORzELMAkGA1UECBMCS0ExKjAoBgkqhkiG9w0BCQEWG0tPQ0hJQ0FfQ0FA
S09DSElDQV9tYWlsLmNvbTAeFw0xNjA3MDgwNDM1MTZaFw0yNjA3MDYwNDM1MTZa
MHAxCzAJBgNVBAgTAktBMQswCQYDVQQGEwJJTjEbMBkGA1UEAxQSMTAxX0tPQ0hJ
Q0Ffc2VydmVyMSYwJAYJKoZIhvcNAQkBFhcxMDFfS09DSElDQUB0ZXN0X2NhLmNv
bTEPMA0GA1UEChMGQ0lUUklYMIIBIjANBgkqhkiG9w0BAQEFAAOCAQ8AMIIBCgKC
AQEA4fc1J2X00JvF18oUpwDToGpvOfJ9TTwFBxG6elb5+VIo0vwH62CLQ3UWaYaq
IOTF/aljutXs0AGgaxhUg90CYMki87U3jw2bVzDqnMpGTWu172L5Ik6SooWIzosF
SliEna45l65ki5kLr8dXTTrEJJu0fG+Gz3cr96rLTRzSZEvmm0xFQ7x3mMJ1AM6+
r1XRb4p/iD/UWc51w8RljseXV3Wng0akZQXbgywsO8bkqjnxps8BWSnOpQgBd0Kx
Mka40QCd5iFSUyROXkJ0E45d9Oft4DUUJMgdwmejcDZcqRD2Rorz/7gCxx3P1MOF
2vcTf16yV0Qm8h4vxpGK/DKe2QIDAQABo4IBMDCCASwwEQYJYIZIAYb4QgEBBAQD
AgZAMB0GA1UdDgQWBBTh8Q04GArsefBkkVNITVnQ83UwlTCBrAYDVR0jBIGkMIGh
gBS9u5V2XPktISlCIv2Rr7g5JKp+N6F+pHwwejETMBEGA1UEAxQKS09DSElDQV9D
QTELMAkGA1UEBhMCSU4xDzANBgNVBAoTBkNJVFJJWDEMMAoGA1UECxMDQU5HMQsw
CQYDVQQIEwJLQTEqMCgGCSqGSIb3DQEJARYbS09DSElDQV9DQUBLT0NISUNBX21h
aWwuY29tggkA4RDtsjw943EwSQYIKwYBBQUHAQEEPTA7MDkGCCsGAQUFBzABhi1o
dHRwOi8vS09DSElDQV9vbmUub2NzcHRlc3QuY29tL3Jlc3BvbmRlcnBhdGgwDQYJ
KoZIhvcNAQELBQADggEBAHbWnCrAkJqOpgLgXb8zgUQ/Rep2NroRZ/vr3cRBXE14
0OrzCIQ11GEdhNIR9vB8JFzuuE1mtP2csjJEPKq3bqmGS4TN73uOSNIXP5HlDA0e
d942rxeeBBlwPtij+ZlE2060u1MhcwRslZ4ZvDkB9JbWeuAkppzDXLxAFB4coYk6
vebhjDSQKMNFC9vrXlDbWx/u0JEoHBFZaSjFYveu8LK7mLzy+8tcB6KwD8Y1ohIP
ijga8ZuMEpJbiLReXRWCziEsfIv/sPZ265c13pp7KscBvLwVvs78/QDxCiU7FivJ
LqzYFD5hvU6In71EaegocUOPe8TQ1ANJcOb8L4DWlUY=
-----END CERTIFICATE-----
