Certificate:
    Data:
        Version: 3 (0x2)
        Serial Number: 11042563100178 (0xa0b0c0d0e12)
    Signature Algorithm: sha256WithRSAEncryption
        Issuer: CN=KOCHICA_CA, C=IN, O=CITRIX, OU=ANG, ST=KA/emailAddress=KOCHICA_CA@KOCHICA_mail.com
        Validity
            Not Before: Jul  8 04:35:16 2016 GMT
            Not After : Jul  6 04:35:16 2026 GMT
        Subject: ST=KA, C=IN, CN=104_KOCHICA_server/emailAddress=104_KOCHICA@test_ca.com, O=CITRIX
        Subject Public Key Info:
            Public Key Algorithm: rsaEncryption
                Public-Key: (2048 bit)
                Modulus:
                    00:ca:33:93:d8:57:17:36:ac:8a:95:5d:ff:ca:23:
                    21:18:b1:1f:cf:22:3d:0b:d1:47:d2:c7:12:fc:c7:
                    93:84:1c:01:1b:a0:82:94:0c:3e:10:d5:4a:0c:9a:
                    6d:6d:62:3a:22:10:ae:c0:d4:e5:aa:d1:1b:d0:4d:
                    35:0f:4a:75:12:9b:b7:d0:6f:c8:58:1e:5a:2f:f0:
                    bc:00:7f:00:0a:d3:84:05:2c:05:66:82:3f:ca:75:
                    05:0b:6b:8b:2a:56:c4:d6:ad:20:90:d8:cc:00:ed:
                    dd:48:51:24:16:a9:1e:56:d5:71:31:5a:8e:59:60:
                    a9:fe:84:d4:92:83:54:b7:f9:62:fc:b1:ff:3c:8f:
                    22:88:6b:95:aa:0a:2a:79:2c:f3:99:49:cd:20:06:
                    ef:69:e8:8d:be:af:1c:26:50:4c:b1:e8:5d:92:bb:
                    34:71:aa:33:be:65:bc:42:b9:73:c0:ec:bc:8d:37:
                    c9:3b:21:ee:91:16:b1:49:c7:0d:e8:0a:d5:c0:20:
                    69:a3:72:47:27:18:af:bd:16:c8:fd:e5:28:e9:5b:
                    35:5c:9d:d2:c4:5d:d5:4b:09:d4:66:7d:85:62:e2:
                    ba:8d:bd:c5:90:79:f3:05:23:97:d9:75:8e:99:45:
                    c5:83:45:31:09:0d:f8:84:58:43:1b:82:6b:5e:99:
                    ef:ad
                Exponent: 65537 (0x10001)
        X509v3 extensions:
            Netscape Cert Type: 
                SSL Server
            X509v3 Subject Key Identifier: 
                10:99:DF:EC:5A:E5:36:F2:E7:1F:D5:77:B0:DE:A2:D5:0F:B7:2D:5F
            X509v3 Authority Key Identifier: 
                keyid:BD:BB:95:76:5C:F9:2D:21:29:42:22:FD:91:AF:B8:39:24:AA:7E:37
                DirName:/CN=KOCHICA_CA/C=IN/O=CITRIX/OU=ANG/ST=KA/emailAddress=KOCHICA_CA@KOCHICA_mail.com
                serial:E1:10:ED:B2:3C:3D:E3:71

            Authority Information Access: 
                OCSP - URI:http://KOCHICA_one.ocsptest.com/responderpath

    Signature Algorithm: sha256WithRSAEncryption
         a8:a7:48:41:7b:6c:83:8f:30:eb:8d:9f:9f:cd:7c:a1:72:64:
         3f:22:6f:ad:6a:5c:92:95:a7:85:3a:24:af:34:a3:53:a0:63:
         83:9c:28:11:67:e0:f3:19:12:31:6c:31:79:40:d4:c5:eb:95:
         2f:b0:e7:a5:82:91:fc:05:1b:e2:5c:a8:53:a7:e5:c6:8d:fc:
         87:24:03:1f:30:41:0d:ba:43:2d:b8:b3:eb:6a:a2:99:51:db:
         03:45:0c:80:e4:32:e8:b2:b5:9c:e1:a9:93:93:8d:5c:92:a6:
         f2:16:a9:fa:22:d8:17:d1:07:cb:82:7a:2a:8a:94:02:a8:57:
         b5:83:ee:b6:b3:13:1c:c0:7b:a0:0e:ca:c5:9d:73:7d:6d:9e:
         b3:c3:8c:f4:1a:7f:6a:30:22:db:e8:14:0c:d6:1d:24:c5:c3:
         03:6b:2b:47:50:bd:ef:ce:03:eb:16:b8:f3:ba:a7:8f:62:d5:
         20:10:fc:30:43:b0:76:90:1e:ef:b2:61:ff:95:fe:19:16:6d:
         6c:05:b1:e6:ce:5c:1b:69:b1:37:61:22:50:7e:9c:28:7d:bf:
         48:b8:99:71:a0:d8:c9:b7:9f:17:f0:1b:95:0f:0e:3b:e7:7c:
         a4:86:8c:dd:c3:2a:ba:dc:b9:61:39:ea:ee:dd:82:b1:5e:6e:
         12:6e:54:39
-----BEGIN CERTIFICATE-----
MIIEnDCCA4SgAwIBAgIGCgsMDQ4SMA0GCSqGSIb3DQEBCwUAMHoxEzARBgNVBAMU
CktPQ0hJQ0FfQ0ExCzAJBgNVBAYTAklOMQ8wDQYDVQQKEwZDSVRSSVgxDDAKBgNV
BAsTA0FORzELMAkGA1UECBMCS0ExKjAoBgkqhkiG9w0BCQEWG0tPQ0hJQ0FfQ0FA
S09DSElDQV9tYWlsLmNvbTAeFw0xNjA3MDgwNDM1MTZaFw0yNjA3MDYwNDM1MTZa
MHAxCzAJBgNVBAgTAktBMQswCQYDVQQGEwJJTjEbMBkGA1UEAxQSMTA0X0tPQ0hJ
Q0Ffc2VydmVyMSYwJAYJKoZIhvcNAQkBFhcxMDRfS09DSElDQUB0ZXN0X2NhLmNv
bTEPMA0GA1UEChMGQ0lUUklYMIIBIjANBgkqhkiG9w0BAQEFAAOCAQ8AMIIBCgKC
AQEAyjOT2FcXNqyKlV3/yiMhGLEfzyI9C9FH0scS/MeThBwBG6CClAw+ENVKDJpt
bWI6IhCuwNTlqtEb0E01D0p1Epu30G/IWB5aL/C8AH8ACtOEBSwFZoI/ynUFC2uL
KlbE1q0gkNjMAO3dSFEkFqkeVtVxMVqOWWCp/oTUkoNUt/li/LH/PI8iiGuVqgoq
eSzzmUnNIAbvaeiNvq8cJlBMsehdkrs0caozvmW8QrlzwOy8jTfJOyHukRaxSccN
6ArVwCBpo3JHJxivvRbI/eUo6Vs1XJ3SxF3VSwnUZn2FYuK6jb3FkHnzBSOX2XWO
mUXFg0UxCQ34hFhDG4JrXpnvrQIDAQABo4IBMDCCASwwEQYJYIZIAYb4QgEBBAQD
AgZAMB0GA1UdDgQWBBQQmd/sWuU28ucf1Xew3qLVD7ctXzCBrAYDVR0jBIGkMIGh
gBS9u5V2XPktISlCIv2Rr7g5JKp+N6F+pHwwejETMBEGA1UEAxQKS09DSElDQV9D
QTELMAkGA1UEBhMCSU4xDzANBgNVBAoTBkNJVFJJWDEMMAoGA1UECxMDQU5HMQsw
CQYDVQQIEwJLQTEqMCgGCSqGSIb3DQEJARYbS09DSElDQV9DQUBLT0NISUNBX21h
aWwuY29tggkA4RDtsjw943EwSQYIKwYBBQUHAQEEPTA7MDkGCCsGAQUFBzABhi1o
dHRwOi8vS09DSElDQV9vbmUub2NzcHRlc3QuY29tL3Jlc3BvbmRlcnBhdGgwDQYJ
KoZIhvcNAQELBQADggEBAKinSEF7bIOPMOuNn5/NfKFyZD8ib61qXJKVp4U6JK80
o1OgY4OcKBFn4PMZEjFsMXlA1MXrlS+w56WCkfwFG+JcqFOn5caN/IckAx8wQQ26
Qy24s+tqoplR2wNFDIDkMuiytZzhqZOTjVySpvIWqfoi2BfRB8uCeiqKlAKoV7WD
7razExzAe6AOysWdc31tnrPDjPQaf2owItvoFAzWHSTFwwNrK0dQve/OA+sWuPO6
p49i1SAQ/DBDsHaQHu+yYf+V/hkWbWwFsebOXBtpsTdhIlB+nCh9v0i4mXGg2Mm3
nxfwG5UPDjvnfKSGjN3DKrrcuWE56u7dgrFebhJuVDk=
-----END CERTIFICATE-----
