Certificate:
    Data:
        Version: 3 (0x2)
        Serial Number: 11042563100181 (0xa0b0c0d0e15)
    Signature Algorithm: sha256WithRSAEncryption
        Issuer: CN=KOCHICA_CA, C=IN, O=CITRIX, OU=ANG, ST=KA/emailAddress=KOCHICA_CA@KOCHICA_mail.com
        Validity
            Not Before: Jul  8 04:35:17 2016 GMT
            Not After : Jul  6 04:35:17 2026 GMT
        Subject: ST=KA, C=IN, CN=107_KOCHICA_server/emailAddress=107_KOCHICA@test_ca.com, O=CITRIX
        Subject Public Key Info:
            Public Key Algorithm: rsaEncryption
                Public-Key: (2048 bit)
                Modulus:
                    00:c9:59:61:0d:8d:6d:c8:3d:27:b8:9c:06:3b:e8:
                    0f:09:f5:e5:0d:32:0d:78:34:77:00:97:7f:5d:3a:
                    ab:ee:89:e7:a9:a6:52:04:c6:96:a4:bc:59:a0:22:
                    60:49:b2:69:fb:8a:ce:86:d4:9c:47:da:0e:11:53:
                    ab:51:5e:49:67:1f:8e:9f:ee:fa:57:d2:38:f5:36:
                    74:25:07:33:67:bd:4b:52:27:13:a4:a6:05:c3:25:
                    eb:9d:97:f9:42:b6:b9:db:24:df:0f:da:61:06:5b:
                    f1:1c:47:43:2f:3e:35:0d:5e:fe:c0:9f:ff:8b:7d:
                    6a:21:65:24:b1:dd:ec:63:d7:28:26:5b:90:d2:22:
                    0d:56:d3:a5:4c:09:ae:db:9b:bf:e2:99:4a:86:7a:
                    65:cd:81:73:52:32:23:1d:d1:9b:1e:13:c1:ef:1b:
                    e1:5f:b4:c6:85:67:7d:db:87:41:94:4d:55:8f:00:
                    44:d2:fb:5b:24:f6:82:28:69:f5:53:45:f3:c4:48:
                    ce:c4:30:7b:e1:67:fc:95:80:d1:76:9e:89:00:fa:
                    46:31:b5:25:db:17:9d:18:8a:af:01:7e:67:02:4d:
                    4c:8a:3e:53:ac:c5:8c:84:f8:14:e7:0f:46:37:10:
                    a8:52:f9:c2:d0:bf:01:a5:05:2f:5c:1e:12:04:3b:
                    c2:3b
                Exponent: 65537 (0x10001)
        X509v3 extensions:
            Netscape Cert Type: 
                SSL Server
            X509v3 Subject Key Identifier: 
                CB:19:6B:6C:17:DF:87:8E:AC:52:44:99:7C:F7:95:CE:83:27:82:F8
            X509v3 Authority Key Identifier: 
                keyid:BD:BB:95:76:5C:F9:2D:21:29:42:22:FD:91:AF:B8:39:24:AA:7E:37
                DirName:/CN=KOCHICA_CA/C=IN/O=CITRIX/OU=ANG/ST=KA/emailAddress=KOCHICA_CA@KOCHICA_mail.com
                serial:E1:10:ED:B2:3C:3D:E3:71

            Authority Information Access: 
                OCSP - URI:http://KOCHICA_one.ocsptest.com/responderpath

    Signature Algorithm: sha256WithRSAEncryption
         6b:e3:6b:81:ea:3a:a5:6e:b1:28:8a:43:ab:39:f2:fa:be:7c:
         be:f4:fb:10:4a:9e:a3:fb:d9:5e:3d:89:dc:6f:eb:a7:84:85:
         18:69:33:9d:96:f8:26:d3:5d:33:ca:d1:9b:73:00:4c:4a:4b:
         8e:ef:6f:2f:ab:d4:a5:85:05:7f:fa:e2:fe:bd:63:c6:e1:ec:
         87:68:8a:fa:19:b5:6b:d4:b5:0b:fe:4e:b5:ce:ef:84:e7:9e:
         aa:a9:ae:27:fa:59:33:4b:be:7f:ec:8e:45:80:67:fb:32:a3:
         39:ac:64:42:64:01:9b:f6:a8:84:a6:84:77:cf:19:49:b4:0f:
         0b:61:48:87:e5:02:e2:4c:57:50:90:09:56:b5:e9:f9:7d:46:
         0a:d6:b7:2c:77:d7:39:38:52:22:63:fd:c2:ca:21:bc:84:a8:
         ee:58:67:41:1b:5b:a9:3d:88:97:0e:ac:dd:6e:da:cd:a4:0c:
         4d:d3:d7:e6:8d:e5:10:75:fd:77:dd:6e:d6:48:28:ba:da:45:
         33:33:b9:8e:d9:d7:73:9f:84:0f:e6:8d:e4:19:4c:27:fc:68:
         a3:6e:d2:d7:36:06:67:ea:2c:55:39:cb:c5:e5:64:73:85:60:
         3a:55:5d:76:11:f1:78:d3:6e:83:d2:b4:1c:c4:46:ed:7c:70:
         e3:b2:33:19
-----BEGIN CERTIFICATE-----
MIIEnDCCA4SgAwIBAgIGCgsMDQ4VMA0GCSqGSIb3DQEBCwUAMHoxEzARBgNVBAMU
CktPQ0hJQ0FfQ0ExCzAJBgNVBAYTAklOMQ8wDQYDVQQKEwZDSVRSSVgxDDAKBgNV
BAsTA0FORzELMAkGA1UECBMCS0ExKjAoBgkqhkiG9w0BCQEWG0tPQ0hJQ0FfQ0FA
S09DSElDQV9tYWlsLmNvbTAeFw0xNjA3MDgwNDM1MTdaFw0yNjA3MDYwNDM1MTda
MHAxCzAJBgNVBAgTAktBMQswCQYDVQQGEwJJTjEbMBkGA1UEAxQSMTA3X0tPQ0hJ
Q0Ffc2VydmVyMSYwJAYJKoZIhvcNAQkBFhcxMDdfS09DSElDQUB0ZXN0X2NhLmNv
bTEPMA0GA1UEChMGQ0lUUklYMIIBIjANBgkqhkiG9w0BAQEFAAOCAQ8AMIIBCgKC
AQEAyVlhDY1tyD0nuJwGO+gPCfXlDTINeDR3AJd/XTqr7onnqaZSBMaWpLxZoCJg
SbJp+4rOhtScR9oOEVOrUV5JZx+On+76V9I49TZ0JQczZ71LUicTpKYFwyXrnZf5
Qra52yTfD9phBlvxHEdDLz41DV7+wJ//i31qIWUksd3sY9coJluQ0iINVtOlTAmu
25u/4plKhnplzYFzUjIjHdGbHhPB7xvhX7TGhWd924dBlE1VjwBE0vtbJPaCKGn1
U0XzxEjOxDB74Wf8lYDRdp6JAPpGMbUl2xedGIqvAX5nAk1Mij5TrMWMhPgU5w9G
NxCoUvnC0L8BpQUvXB4SBDvCOwIDAQABo4IBMDCCASwwEQYJYIZIAYb4QgEBBAQD
AgZAMB0GA1UdDgQWBBTLGWtsF9+HjqxSRJl895XOgyeC+DCBrAYDVR0jBIGkMIGh
gBS9u5V2XPktISlCIv2Rr7g5JKp+N6F+pHwwejETMBEGA1UEAxQKS09DSElDQV9D
QTELMAkGA1UEBhMCSU4xDzANBgNVBAoTBkNJVFJJWDEMMAoGA1UECxMDQU5HMQsw
CQYDVQQIEwJLQTEqMCgGCSqGSIb3DQEJARYbS09DSElDQV9DQUBLT0NISUNBX21h
aWwuY29tggkA4RDtsjw943EwSQYIKwYBBQUHAQEEPTA7MDkGCCsGAQUFBzABhi1o
dHRwOi8vS09DSElDQV9vbmUub2NzcHRlc3QuY29tL3Jlc3BvbmRlcnBhdGgwDQYJ
KoZIhvcNAQELBQADggEBAGvja4HqOqVusSiKQ6s58vq+fL70+xBKnqP72V49idxv
66eEhRhpM52W+CbTXTPK0ZtzAExKS47vby+r1KWFBX/64v69Y8bh7IdoivoZtWvU
tQv+TrXO74Tnnqqprif6WTNLvn/sjkWAZ/syozmsZEJkAZv2qISmhHfPGUm0Dwth
SIflAuJMV1CQCVa16fl9RgrWtyx31zk4UiJj/cLKIbyEqO5YZ0EbW6k9iJcOrN1u
2s2kDE3T1+aN5RB1/XfdbtZIKLraRTMzuY7Z13OfhA/mjeQZTCf8aKNu0tc2Bmfq
LFU5y8XlZHOFYDpVXXYR8XjTboPStBzERu18cOOyMxk=
-----END CERTIFICATE-----
