Certificate:
    Data:
        Version: 3 (0x2)
        Serial Number: 11042563100182 (0xa0b0c0d0e16)
    Signature Algorithm: sha256WithRSAEncryption
        Issuer: CN=KOCHICA_CA, C=IN, O=CITRIX, OU=ANG, ST=KA/emailAddress=KOCHICA_CA@KOCHICA_mail.com
        Validity
            Not Before: Jul  8 04:35:18 2016 GMT
            Not After : Jul  6 04:35:18 2026 GMT
        Subject: ST=KA, C=IN, CN=108_KOCHICA_server/emailAddress=108_KOCHICA@test_ca.com, O=CITRIX
        Subject Public Key Info:
            Public Key Algorithm: rsaEncryption
                Public-Key: (2048 bit)
                Modulus:
                    00:c0:c3:41:56:29:03:e3:88:d9:a2:fc:37:30:22:
                    ec:f2:25:a9:d5:a2:bd:40:c4:af:73:87:49:6d:c4:
                    15:d5:78:bc:06:a4:77:ce:7c:0f:26:fe:3d:e5:8e:
                    b1:0f:41:eb:2d:31:bc:e2:0c:75:e0:53:1e:59:52:
                    b4:3c:d5:74:86:40:97:e3:90:02:50:6f:bc:89:73:
                    fa:5d:5a:9f:d3:02:d1:c8:da:a0:18:33:75:58:00:
                    3f:c7:bd:ce:43:4b:92:57:b4:be:59:87:42:51:cb:
                    92:c8:8d:4a:87:a7:0f:98:97:0e:b9:ec:70:38:dc:
                    3b:93:fd:5a:32:9e:0e:24:ee:c3:9b:b1:76:40:7b:
                    2f:fd:fc:bc:a4:e3:c2:d2:a2:02:06:a2:18:94:df:
                    1a:65:97:ed:d6:60:e2:76:10:8b:0d:6e:95:b9:88:
                    89:b0:12:17:52:98:39:47:2a:27:fb:fc:bd:91:be:
                    ea:3f:84:3c:56:1a:72:0c:13:7a:2f:c4:76:5d:aa:
                    7e:c3:66:48:a4:95:51:84:7b:50:20:1d:c2:45:50:
                    11:2c:b5:b5:00:7c:dd:ba:0e:18:16:47:b1:6b:58:
                    0a:d9:98:54:8c:8d:37:c1:c1:cb:2b:b8:86:67:eb:
                    97:e2:25:7a:e7:b8:7a:56:bb:24:74:be:1a:e6:3e:
                    ab:f3
                Exponent: 65537 (0x10001)
        X509v3 extensions:
            Netscape Cert Type: 
                SSL Server
            X509v3 Subject Key Identifier: 
                21:08:F5:B6:7F:C6:E2:D1:C5:F6:B1:4E:23:E6:B2:E1:40:9C:33:1D
            X509v3 Authority Key Identifier: 
                keyid:BD:BB:95:76:5C:F9:2D:21:29:42:22:FD:91:AF:B8:39:24:AA:7E:37
                DirName:/CN=KOCHICA_CA/C=IN/O=CITRIX/OU=ANG/ST=KA/emailAddress=KOCHICA_CA@KOCHICA_mail.com
                serial:E1:10:ED:B2:3C:3D:E3:71

            Authority Information Access: 
                OCSP - URI:http://KOCHICA_one.ocsptest.com/responderpath

    Signature Algorithm: sha256WithRSAEncryption
         0d:40:8d:fb:a4:f3:c2:78:06:71:c9:96:6c:b2:9d:c5:d8:73:
         a7:08:b4:39:98:d8:9b:bf:08:e2:ac:f7:0a:4a:31:4f:10:11:
         6e:9e:0b:fd:a5:cc:61:80:ad:54:99:6d:61:5e:32:9c:a5:da:
         e1:6e:cc:56:a5:d1:bf:b6:bf:c5:bc:90:41:e4:e1:2e:b8:a9:
         e6:59:84:1c:46:42:eb:36:96:2c:80:b0:b8:95:69:f6:60:a6:
         94:c5:f6:41:36:c1:f6:12:57:cb:46:7d:2b:2b:ec:1d:b7:3a:
         d5:bb:62:7e:00:32:36:41:b6:cb:36:7f:41:a9:6c:f9:e1:9a:
         9a:ff:66:53:53:5e:b2:e3:a7:ef:2a:db:3f:80:f9:ae:41:71:
         a7:ae:74:ed:81:d1:5d:dd:e0:6f:fb:b5:48:64:3d:a2:5b:f7:
         db:21:35:8a:05:b2:b9:d3:b7:34:68:c6:0f:be:c8:3e:c0:91:
         11:cd:5e:72:9c:5b:46:02:b3:46:ca:a0:be:ec:cf:a0:3d:d5:
         1d:63:20:30:46:83:ce:03:d6:2a:a0:fe:48:6a:c5:b0:21:5f:
         aa:ed:de:7b:9a:b9:df:d4:8f:43:1f:82:9a:36:02:6b:40:38:
         f9:8b:c0:28:a4:ef:97:9a:a0:84:92:e7:4a:81:8a:30:58:dc:
         76:86:f7:4c
-----BEGIN CERTIFICATE-----
MIIEnDCCA4SgAwIBAgIGCgsMDQ4WMA0GCSqGSIb3DQEBCwUAMHoxEzARBgNVBAMU
CktPQ0hJQ0FfQ0ExCzAJBgNVBAYTAklOMQ8wDQYDVQQKEwZDSVRSSVgxDDAKBgNV
BAsTA0FORzELMAkGA1UECBMCS0ExKjAoBgkqhkiG9w0BCQEWG0tPQ0hJQ0FfQ0FA
S09DSElDQV9tYWlsLmNvbTAeFw0xNjA3MDgwNDM1MThaFw0yNjA3MDYwNDM1MTha
MHAxCzAJBgNVBAgTAktBMQswCQYDVQQGEwJJTjEbMBkGA1UEAxQSMTA4X0tPQ0hJ
Q0Ffc2VydmVyMSYwJAYJKoZIhvcNAQkBFhcxMDhfS09DSElDQUB0ZXN0X2NhLmNv
bTEPMA0GA1UEChMGQ0lUUklYMIIBIjANBgkqhkiG9w0BAQEFAAOCAQ8AMIIBCgKC
AQEAwMNBVikD44jZovw3MCLs8iWp1aK9QMSvc4dJbcQV1Xi8BqR3znwPJv495Y6x
D0HrLTG84gx14FMeWVK0PNV0hkCX45ACUG+8iXP6XVqf0wLRyNqgGDN1WAA/x73O
Q0uSV7S+WYdCUcuSyI1Kh6cPmJcOuexwONw7k/1aMp4OJO7Dm7F2QHsv/fy8pOPC
0qICBqIYlN8aZZft1mDidhCLDW6VuYiJsBIXUpg5Ryon+/y9kb7qP4Q8VhpyDBN6
L8R2Xap+w2ZIpJVRhHtQIB3CRVARLLW1AHzdug4YFkexa1gK2ZhUjI03wcHLK7iG
Z+uX4iV657h6VrskdL4a5j6r8wIDAQABo4IBMDCCASwwEQYJYIZIAYb4QgEBBAQD
AgZAMB0GA1UdDgQWBBQhCPW2f8bi0cX2sU4j5rLhQJwzHTCBrAYDVR0jBIGkMIGh
gBS9u5V2XPktISlCIv2Rr7g5JKp+N6F+pHwwejETMBEGA1UEAxQKS09DSElDQV9D
QTELMAkGA1UEBhMCSU4xDzANBgNVBAoTBkNJVFJJWDEMMAoGA1UECxMDQU5HMQsw
CQYDVQQIEwJLQTEqMCgGCSqGSIb3DQEJARYbS09DSElDQV9DQUBLT0NISUNBX21h
aWwuY29tggkA4RDtsjw943EwSQYIKwYBBQUHAQEEPTA7MDkGCCsGAQUFBzABhi1o
dHRwOi8vS09DSElDQV9vbmUub2NzcHRlc3QuY29tL3Jlc3BvbmRlcnBhdGgwDQYJ
KoZIhvcNAQELBQADggEBAA1Ajfuk88J4BnHJlmyyncXYc6cItDmY2Ju/COKs9wpK
MU8QEW6eC/2lzGGArVSZbWFeMpyl2uFuzFal0b+2v8W8kEHk4S64qeZZhBxGQus2
liyAsLiVafZgppTF9kE2wfYSV8tGfSsr7B23OtW7Yn4AMjZBtss2f0GpbPnhmpr/
ZlNTXrLjp+8q2z+A+a5BcaeudO2B0V3d4G/7tUhkPaJb99shNYoFsrnTtzRoxg++
yD7AkRHNXnKcW0YCs0bKoL7sz6A91R1jIDBGg84D1iqg/khqxbAhX6rt3nuaud/U
j0Mfgpo2AmtAOPmLwCik75eaoISS50qBijBY3HaG90w=
-----END CERTIFICATE-----
