Certificate:
    Data:
        Version: 3 (0x2)
        Serial Number: 11042563100183 (0xa0b0c0d0e17)
    Signature Algorithm: sha256WithRSAEncryption
        Issuer: CN=KOCHICA_CA, C=IN, O=CITRIX, OU=ANG, ST=KA/emailAddress=KOCHICA_CA@KOCHICA_mail.com
        Validity
            Not Before: Jul  8 04:35:18 2016 GMT
            Not After : Jul  6 04:35:18 2026 GMT
        Subject: ST=KA, C=IN, CN=109_KOCHICA_server/emailAddress=109_KOCHICA@test_ca.com, O=CITRIX
        Subject Public Key Info:
            Public Key Algorithm: rsaEncryption
                Public-Key: (2048 bit)
                Modulus:
                    00:b0:7a:2f:4f:0e:13:8e:77:2b:2d:ff:cd:b1:d0:
                    9e:de:c7:41:e9:d7:11:ad:cb:cb:6b:80:0d:8d:aa:
                    96:7d:00:11:15:20:76:07:f6:1e:27:99:8e:65:ce:
                    81:01:05:91:ea:9c:51:a6:b9:f8:03:ce:7d:8d:73:
                    49:20:b7:1b:43:e7:8a:7f:1d:bd:b2:c2:95:78:21:
                    d5:d1:2a:38:16:c7:51:5a:e8:82:15:9e:3b:79:5c:
                    cd:8a:aa:db:92:96:97:3f:a3:0f:64:ae:b6:8e:ef:
                    85:69:6c:6d:4b:a8:95:3a:84:bb:2d:ab:a3:41:a2:
                    c7:80:d1:a7:92:0e:2e:69:6a:e2:2d:03:93:ac:09:
                    b6:81:8f:27:a0:ff:76:18:ad:ce:f1:dd:2a:97:72:
                    5e:0c:c4:2f:a2:45:2d:92:3d:4b:60:9d:e3:4b:03:
                    0f:b6:41:9b:a8:4c:3c:80:29:89:ce:95:eb:43:ad:
                    91:45:3c:b9:c5:7d:21:ca:25:6e:4e:51:fc:c8:6c:
                    ba:92:a2:27:df:e0:48:82:84:c8:2a:20:90:14:1f:
                    05:71:7c:85:56:32:0d:93:a8:c8:38:1a:4d:ff:88:
                    f0:07:20:d8:c3:99:d0:22:93:ed:a9:f3:58:f8:cd:
                    22:8a:f8:ed:0b:0d:e4:44:03:90:88:58:f2:0f:bd:
                    4e:8d
                Exponent: 65537 (0x10001)
        X509v3 extensions:
            Netscape Cert Type: 
                SSL Server
            X509v3 Subject Key Identifier: 
                88:6D:72:E0:2D:DB:5A:8B:9E:20:22:68:1D:A9:C1:24:D5:AD:80:B4
            X509v3 Authority Key Identifier: 
                keyid:BD:BB:95:76:5C:F9:2D:21:29:42:22:FD:91:AF:B8:39:24:AA:7E:37
                DirName:/CN=KOCHICA_CA/C=IN/O=CITRIX/OU=ANG/ST=KA/emailAddress=KOCHICA_CA@KOCHICA_mail.com
                serial:E1:10:ED:B2:3C:3D:E3:71

            Authority Information Access: 
                OCSP - URI:http://KOCHICA_one.ocsptest.com/responderpath

    Signature Algorithm: sha256WithRSAEncryption
         70:6d:33:73:c1:20:1b:7a:e6:22:9e:26:95:da:e2:61:41:6e:
         2f:0e:ed:34:aa:82:81:16:6e:b0:66:60:e0:0b:32:41:fc:a8:
         a4:d3:7c:a3:f9:8c:85:1b:40:d5:29:f9:45:a6:79:b2:a5:bc:
         b3:02:5e:57:71:12:67:54:dc:26:e9:0f:10:42:fa:f5:5e:08:
         35:5f:6c:71:b6:e3:2a:6d:c5:36:7a:6d:6b:dd:a5:90:9f:4f:
         76:77:7d:8f:f7:e5:9a:aa:28:59:21:e5:d2:6a:22:45:58:21:
         9b:07:b7:5e:fa:b8:a3:c7:2e:99:08:27:fa:7e:f9:54:59:11:
         5f:b2:b3:54:1c:3b:48:bf:d5:c7:d6:7b:9e:60:dc:91:72:9a:
         18:36:4d:3b:90:61:f4:20:9a:b7:b9:b8:b9:2b:02:f4:81:94:
         0b:21:9e:48:6d:e8:c2:66:4c:27:75:dd:30:88:8a:0a:54:d2:
         d0:de:08:87:17:1c:be:9a:ac:aa:ff:0c:1b:b1:5f:d1:25:39:
         b6:cb:a3:21:7a:11:b1:93:90:b7:1c:1f:4e:df:33:5e:66:75:
         2e:ca:c5:a7:64:35:9b:52:a2:78:03:94:52:e1:bf:cf:7a:1f:
         ce:21:95:c0:e4:83:f4:a8:68:a9:84:56:df:71:b9:71:bf:f8:
         b2:a8:1b:22
-----BEGIN CERTIFICATE-----
MIIEnDCCA4SgAwIBAgIGCgsMDQ4XMA0GCSqGSIb3DQEBCwUAMHoxEzARBgNVBAMU
CktPQ0hJQ0FfQ0ExCzAJBgNVBAYTAklOMQ8wDQYDVQQKEwZDSVRSSVgxDDAKBgNV
BAsTA0FORzELMAkGA1UECBMCS0ExKjAoBgkqhkiG9w0BCQEWG0tPQ0hJQ0FfQ0FA
S09DSElDQV9tYWlsLmNvbTAeFw0xNjA3MDgwNDM1MThaFw0yNjA3MDYwNDM1MTha
MHAxCzAJBgNVBAgTAktBMQswCQYDVQQGEwJJTjEbMBkGA1UEAxQSMTA5X0tPQ0hJ
Q0Ffc2VydmVyMSYwJAYJKoZIhvcNAQkBFhcxMDlfS09DSElDQUB0ZXN0X2NhLmNv
bTEPMA0GA1UEChMGQ0lUUklYMIIBIjANBgkqhkiG9w0BAQEFAAOCAQ8AMIIBCgKC
AQEAsHovTw4TjncrLf/NsdCe3sdB6dcRrcvLa4ANjaqWfQARFSB2B/YeJ5mOZc6B
AQWR6pxRprn4A859jXNJILcbQ+eKfx29ssKVeCHV0So4FsdRWuiCFZ47eVzNiqrb
kpaXP6MPZK62ju+FaWxtS6iVOoS7LaujQaLHgNGnkg4uaWriLQOTrAm2gY8noP92
GK3O8d0ql3JeDMQvokUtkj1LYJ3jSwMPtkGbqEw8gCmJzpXrQ62RRTy5xX0hyiVu
TlH8yGy6kqIn3+BIgoTIKiCQFB8FcXyFVjINk6jIOBpN/4jwByDYw5nQIpPtqfNY
+M0iivjtCw3kRAOQiFjyD71OjQIDAQABo4IBMDCCASwwEQYJYIZIAYb4QgEBBAQD
AgZAMB0GA1UdDgQWBBSIbXLgLdtai54gImgdqcEk1a2AtDCBrAYDVR0jBIGkMIGh
gBS9u5V2XPktISlCIv2Rr7g5JKp+N6F+pHwwejETMBEGA1UEAxQKS09DSElDQV9D
QTELMAkGA1UEBhMCSU4xDzANBgNVBAoTBkNJVFJJWDEMMAoGA1UECxMDQU5HMQsw
CQYDVQQIEwJLQTEqMCgGCSqGSIb3DQEJARYbS09DSElDQV9DQUBLT0NISUNBX21h
aWwuY29tggkA4RDtsjw943EwSQYIKwYBBQUHAQEEPTA7MDkGCCsGAQUFBzABhi1o
dHRwOi8vS09DSElDQV9vbmUub2NzcHRlc3QuY29tL3Jlc3BvbmRlcnBhdGgwDQYJ
KoZIhvcNAQELBQADggEBAHBtM3PBIBt65iKeJpXa4mFBbi8O7TSqgoEWbrBmYOAL
MkH8qKTTfKP5jIUbQNUp+UWmebKlvLMCXldxEmdU3CbpDxBC+vVeCDVfbHG24ypt
xTZ6bWvdpZCfT3Z3fY/35ZqqKFkh5dJqIkVYIZsHt176uKPHLpkIJ/p++VRZEV+y
s1QcO0i/1cfWe55g3JFymhg2TTuQYfQgmre5uLkrAvSBlAshnkht6MJmTCd13TCI
igpU0tDeCIcXHL6arKr/DBuxX9ElObbLoyF6EbGTkLccH07fM15mdS7KxadkNZtS
ongDlFLhv896H84hlcDkg/SoaKmEVt9xuXG/+LKoGyI=
-----END CERTIFICATE-----
