Certificate:
    Data:
        Version: 3 (0x2)
        Serial Number: 11042563100185 (0xa0b0c0d0e19)
    Signature Algorithm: sha256WithRSAEncryption
        Issuer: CN=KOCHICA_CA, C=IN, O=CITRIX, OU=ANG, ST=KA/emailAddress=KOCHICA_CA@KOCHICA_mail.com
        Validity
            Not Before: Jul  8 04:35:19 2016 GMT
            Not After : Jul  6 04:35:19 2026 GMT
        Subject: ST=KA, C=IN, CN=111_KOCHICA_server/emailAddress=111_KOCHICA@test_ca.com, O=CITRIX
        Subject Public Key Info:
            Public Key Algorithm: rsaEncryption
                Public-Key: (2048 bit)
                Modulus:
                    00:a3:7d:ba:10:0b:a7:09:03:a1:e6:83:3a:05:e2:
                    85:26:c5:db:37:d8:06:f2:25:8d:44:17:15:47:fb:
                    e0:e0:78:42:b1:2e:83:1c:10:ee:0a:bc:6a:ec:b3:
                    35:87:4a:08:3d:f7:3e:d6:da:39:e5:03:56:a5:2f:
                    f6:72:8a:81:31:eb:88:6e:8a:78:05:e3:ca:86:1e:
                    fc:06:84:40:e9:64:21:78:4d:9d:d7:82:b9:b7:b0:
                    cc:de:0b:96:c0:5b:b6:03:f0:8c:42:04:84:d9:4e:
                    4f:cd:8a:54:86:a3:bc:21:89:d5:1f:44:c2:62:eb:
                    d4:31:48:e4:2c:d6:5a:e0:83:5c:9d:ab:1c:89:01:
                    b8:84:02:a2:c0:0c:6a:bb:4c:ba:20:80:01:e8:fa:
                    55:56:12:a5:38:38:46:09:06:f4:d3:90:ab:fc:89:
                    49:96:29:b1:df:51:f5:4f:c8:81:de:60:81:9a:9e:
                    b8:57:03:cf:ca:c0:90:59:ae:cc:7f:4d:34:03:7b:
                    81:7f:94:12:af:36:13:ef:96:ed:f5:49:f9:9c:3f:
                    29:12:44:ec:e8:2d:19:18:d5:44:1f:51:23:3d:76:
                    ea:f7:18:47:69:7e:b7:84:89:63:56:69:a4:fe:d0:
                    50:8e:44:28:30:83:69:dd:b5:fb:5f:93:a4:f5:23:
                    f9:5f
                Exponent: 65537 (0x10001)
        X509v3 extensions:
            Netscape Cert Type: 
                SSL Server
            X509v3 Subject Key Identifier: 
                A2:68:C5:CA:3A:DD:A7:83:5E:EE:4A:4A:6B:2B:20:70:A1:BD:15:90
            X509v3 Authority Key Identifier: 
                keyid:BD:BB:95:76:5C:F9:2D:21:29:42:22:FD:91:AF:B8:39:24:AA:7E:37
                DirName:/CN=KOCHICA_CA/C=IN/O=CITRIX/OU=ANG/ST=KA/emailAddress=KOCHICA_CA@KOCHICA_mail.com
                serial:E1:10:ED:B2:3C:3D:E3:71

            Authority Information Access: 
                OCSP - URI:http://KOCHICA_two.ocsptest.com/responderpath

    Signature Algorithm: sha256WithRSAEncryption
         12:ea:89:ae:3f:38:41:47:1e:e4:56:e5:6f:4c:fd:95:3f:eb:
         cb:44:f4:eb:45:f2:3e:e2:88:23:07:68:59:50:b9:02:7b:86:
         f1:3f:8a:a1:1a:30:84:31:03:33:a1:27:10:73:d1:73:09:f5:
         57:f0:80:72:dd:bc:a3:ec:ca:58:d9:a5:8d:ef:2d:35:fb:73:
         2f:f6:91:aa:0e:e8:c2:45:90:44:82:a5:9b:a1:69:1d:e5:31:
         15:ab:87:45:64:8f:30:fa:65:a8:fa:20:1c:00:04:25:72:53:
         04:5b:34:f2:dd:1d:ed:25:3f:c1:f0:61:07:a3:03:a9:29:a3:
         fd:28:f7:3a:7a:fa:4b:57:74:f3:69:96:d5:17:a3:94:6f:30:
         36:7f:eb:cb:93:64:43:2a:d5:d0:81:46:d4:9b:54:ed:46:bf:
         78:52:9e:b9:d5:7e:67:cf:9b:b0:9a:37:42:fc:81:8e:c2:20:
         3e:4c:11:d8:60:d6:7b:d1:69:f8:fe:2a:a3:2a:82:0c:37:fe:
         ab:d9:34:ec:96:8f:9b:34:b6:e7:b2:03:74:3a:05:b8:97:61:
         27:40:13:dd:f3:f5:07:4e:25:75:62:3a:33:6e:05:49:72:c2:
         18:42:63:af:6e:1e:82:d8:d7:4f:82:32:49:0f:20:93:fc:f0:
         10:ab:f9:0a
-----BEGIN CERTIFICATE-----
MIIEnDCCA4SgAwIBAgIGCgsMDQ4ZMA0GCSqGSIb3DQEBCwUAMHoxEzARBgNVBAMU
CktPQ0hJQ0FfQ0ExCzAJBgNVBAYTAklOMQ8wDQYDVQQKEwZDSVRSSVgxDDAKBgNV
BAsTA0FORzELMAkGA1UECBMCS0ExKjAoBgkqhkiG9w0BCQEWG0tPQ0hJQ0FfQ0FA
S09DSElDQV9tYWlsLmNvbTAeFw0xNjA3MDgwNDM1MTlaFw0yNjA3MDYwNDM1MTla
MHAxCzAJBgNVBAgTAktBMQswCQYDVQQGEwJJTjEbMBkGA1UEAxQSMTExX0tPQ0hJ
Q0Ffc2VydmVyMSYwJAYJKoZIhvcNAQkBFhcxMTFfS09DSElDQUB0ZXN0X2NhLmNv
bTEPMA0GA1UEChMGQ0lUUklYMIIBIjANBgkqhkiG9w0BAQEFAAOCAQ8AMIIBCgKC
AQEAo326EAunCQOh5oM6BeKFJsXbN9gG8iWNRBcVR/vg4HhCsS6DHBDuCrxq7LM1
h0oIPfc+1to55QNWpS/2coqBMeuIbop4BePKhh78BoRA6WQheE2d14K5t7DM3guW
wFu2A/CMQgSE2U5PzYpUhqO8IYnVH0TCYuvUMUjkLNZa4INcnasciQG4hAKiwAxq
u0y6IIAB6PpVVhKlODhGCQb005Cr/IlJlimx31H1T8iB3mCBmp64VwPPysCQWa7M
f000A3uBf5QSrzYT75bt9Un5nD8pEkTs6C0ZGNVEH1EjPXbq9xhHaX63hIljVmmk
/tBQjkQoMINp3bX7X5Ok9SP5XwIDAQABo4IBMDCCASwwEQYJYIZIAYb4QgEBBAQD
AgZAMB0GA1UdDgQWBBSiaMXKOt2ng17uSkprKyBwob0VkDCBrAYDVR0jBIGkMIGh
gBS9u5V2XPktISlCIv2Rr7g5JKp+N6F+pHwwejETMBEGA1UEAxQKS09DSElDQV9D
QTELMAkGA1UEBhMCSU4xDzANBgNVBAoTBkNJVFJJWDEMMAoGA1UECxMDQU5HMQsw
CQYDVQQIEwJLQTEqMCgGCSqGSIb3DQEJARYbS09DSElDQV9DQUBLT0NISUNBX21h
aWwuY29tggkA4RDtsjw943EwSQYIKwYBBQUHAQEEPTA7MDkGCCsGAQUFBzABhi1o
dHRwOi8vS09DSElDQV90d28ub2NzcHRlc3QuY29tL3Jlc3BvbmRlcnBhdGgwDQYJ
KoZIhvcNAQELBQADggEBABLqia4/OEFHHuRW5W9M/ZU/68tE9OtF8j7iiCMHaFlQ
uQJ7hvE/iqEaMIQxAzOhJxBz0XMJ9VfwgHLdvKPsyljZpY3vLTX7cy/2kaoO6MJF
kESCpZuhaR3lMRWrh0VkjzD6Zaj6IBwABCVyUwRbNPLdHe0lP8HwYQejA6kpo/0o
9zp6+ktXdPNpltUXo5RvMDZ/68uTZEMq1dCBRtSbVO1Gv3hSnrnVfmfPm7CaN0L8
gY7CID5MEdhg1nvRafj+KqMqggw3/qvZNOyWj5s0tueyA3Q6BbiXYSdAE93z9QdO
JXViOjNuBUlywhhCY69uHoLY10+CMkkPIJP88BCr+Qo=
-----END CERTIFICATE-----
