Certificate:
    Data:
        Version: 3 (0x2)
        Serial Number: 11042563100186 (0xa0b0c0d0e1a)
    Signature Algorithm: sha256WithRSAEncryption
        Issuer: CN=KOCHICA_CA, C=IN, O=CITRIX, OU=ANG, ST=KA/emailAddress=KOCHICA_CA@KOCHICA_mail.com
        Validity
            Not Before: Jul  8 04:35:19 2016 GMT
            Not After : Jul  6 04:35:19 2026 GMT
        Subject: ST=KA, C=IN, CN=112_KOCHICA_server/emailAddress=112_KOCHICA@test_ca.com, O=CITRIX
        Subject Public Key Info:
            Public Key Algorithm: rsaEncryption
                Public-Key: (2048 bit)
                Modulus:
                    00:a0:60:a2:d2:0d:8d:57:ab:f6:3c:2c:e0:23:a2:
                    b6:9c:df:f7:81:21:05:c0:5e:0e:27:10:38:a4:9a:
                    dc:51:40:90:d4:ab:e4:e5:0d:a8:ba:3f:f6:f3:d4:
                    c7:9f:97:91:c4:20:80:06:76:bf:a9:37:71:a7:2f:
                    80:50:5e:fd:5f:df:d3:9b:67:1d:62:6a:06:6b:71:
                    f8:1e:58:de:9e:cf:94:7e:b0:d5:74:47:99:a0:67:
                    32:f7:c8:63:a4:21:d6:04:20:32:f4:db:22:7b:2d:
                    97:47:aa:b6:45:3a:77:95:e4:4c:c2:88:b5:f2:22:
                    ab:18:02:a2:08:1a:36:64:68:aa:0e:9f:bc:9e:78:
                    60:f6:28:00:e1:8a:45:d3:f7:24:8d:ca:6f:18:00:
                    fd:b7:af:9b:04:59:d1:aa:93:f5:a9:be:60:31:ee:
                    67:2f:0f:25:ac:57:d7:89:2b:30:b9:4c:0f:9a:d7:
                    d9:2c:ef:8d:81:a5:d2:0f:d9:a2:44:b6:68:d0:f4:
                    a9:2d:70:a5:83:f3:eb:7f:a4:78:4e:0c:9b:6d:38:
                    9e:bb:80:53:e9:6a:df:72:98:fa:86:df:5a:ac:9f:
                    8f:b9:fd:e7:e7:4e:7d:5c:12:aa:89:63:96:63:11:
                    fc:7c:e7:25:5c:c2:d0:57:6d:c4:f2:f2:ca:fa:60:
                    5e:0b
                Exponent: 65537 (0x10001)
        X509v3 extensions:
            Netscape Cert Type: 
                SSL Server
            X509v3 Subject Key Identifier: 
                6E:76:7B:32:E1:0A:44:EC:6A:72:16:A2:6B:2B:F7:B7:56:4A:2A:71
            X509v3 Authority Key Identifier: 
                keyid:BD:BB:95:76:5C:F9:2D:21:29:42:22:FD:91:AF:B8:39:24:AA:7E:37
                DirName:/CN=KOCHICA_CA/C=IN/O=CITRIX/OU=ANG/ST=KA/emailAddress=KOCHICA_CA@KOCHICA_mail.com
                serial:E1:10:ED:B2:3C:3D:E3:71

            Authority Information Access: 
                OCSP - URI:http://KOCHICA_two.ocsptest.com/responderpath

    Signature Algorithm: sha256WithRSAEncryption
         56:bb:c8:a6:74:26:e9:50:fa:e2:52:44:56:2e:b2:3a:28:7e:
         b3:d5:16:82:ee:cc:a4:76:7d:4b:ce:66:14:bb:ff:87:c6:e3:
         5b:08:eb:26:3c:9a:bd:f2:90:33:ae:fa:2b:2f:eb:e0:ee:fb:
         b9:27:dc:d7:a6:a9:b9:f0:18:78:8f:22:79:ba:76:d0:d1:bc:
         8c:3c:17:6b:c4:2f:d1:db:e8:f2:10:45:35:5b:4e:b8:ec:b5:
         6b:75:e3:59:94:07:db:96:ce:88:0c:ad:b4:c4:c0:34:57:47:
         48:d4:ba:7f:81:a0:91:86:d6:a2:67:b7:72:e2:72:56:c9:f3:
         3f:35:45:53:53:24:14:6e:54:f3:4a:ee:af:55:cf:63:6a:e5:
         53:43:7d:85:db:db:59:44:b9:9d:25:1e:fc:78:47:20:5c:c3:
         97:e8:64:1b:b3:bf:1b:45:dd:63:fa:06:e3:d7:b8:d6:b7:74:
         11:37:ef:4b:2e:db:6b:14:d0:c3:7b:fe:f6:df:cb:d8:5d:8e:
         ca:50:19:aa:91:f6:be:d7:cb:94:26:91:2b:7c:5e:32:86:92:
         23:6c:c4:8e:74:e6:4b:f4:13:d5:a3:46:30:5b:fe:6c:be:ae:
         ee:b7:62:f0:b2:14:10:13:59:87:45:9f:53:f5:ea:7a:89:25:
         8a:f0:ae:d0
-----BEGIN CERTIFICATE-----
MIIEnDCCA4SgAwIBAgIGCgsMDQ4aMA0GCSqGSIb3DQEBCwUAMHoxEzARBgNVBAMU
CktPQ0hJQ0FfQ0ExCzAJBgNVBAYTAklOMQ8wDQYDVQQKEwZDSVRSSVgxDDAKBgNV
BAsTA0FORzELMAkGA1UECBMCS0ExKjAoBgkqhkiG9w0BCQEWG0tPQ0hJQ0FfQ0FA
S09DSElDQV9tYWlsLmNvbTAeFw0xNjA3MDgwNDM1MTlaFw0yNjA3MDYwNDM1MTla
MHAxCzAJBgNVBAgTAktBMQswCQYDVQQGEwJJTjEbMBkGA1UEAxQSMTEyX0tPQ0hJ
Q0Ffc2VydmVyMSYwJAYJKoZIhvcNAQkBFhcxMTJfS09DSElDQUB0ZXN0X2NhLmNv
bTEPMA0GA1UEChMGQ0lUUklYMIIBIjANBgkqhkiG9w0BAQEFAAOCAQ8AMIIBCgKC
AQEAoGCi0g2NV6v2PCzgI6K2nN/3gSEFwF4OJxA4pJrcUUCQ1Kvk5Q2ouj/289TH
n5eRxCCABna/qTdxpy+AUF79X9/Tm2cdYmoGa3H4Hljens+UfrDVdEeZoGcy98hj
pCHWBCAy9Nsiey2XR6q2RTp3leRMwoi18iKrGAKiCBo2ZGiqDp+8nnhg9igA4YpF
0/ckjcpvGAD9t6+bBFnRqpP1qb5gMe5nLw8lrFfXiSswuUwPmtfZLO+NgaXSD9mi
RLZo0PSpLXClg/Prf6R4TgybbTieu4BT6Wrfcpj6ht9arJ+Puf3n5059XBKqiWOW
YxH8fOclXMLQV23E8vLK+mBeCwIDAQABo4IBMDCCASwwEQYJYIZIAYb4QgEBBAQD
AgZAMB0GA1UdDgQWBBRudnsy4QpE7GpyFqJrK/e3VkoqcTCBrAYDVR0jBIGkMIGh
gBS9u5V2XPktISlCIv2Rr7g5JKp+N6F+pHwwejETMBEGA1UEAxQKS09DSElDQV9D
QTELMAkGA1UEBhMCSU4xDzANBgNVBAoTBkNJVFJJWDEMMAoGA1UECxMDQU5HMQsw
CQYDVQQIEwJLQTEqMCgGCSqGSIb3DQEJARYbS09DSElDQV9DQUBLT0NISUNBX21h
aWwuY29tggkA4RDtsjw943EwSQYIKwYBBQUHAQEEPTA7MDkGCCsGAQUFBzABhi1o
dHRwOi8vS09DSElDQV90d28ub2NzcHRlc3QuY29tL3Jlc3BvbmRlcnBhdGgwDQYJ
KoZIhvcNAQELBQADggEBAFa7yKZ0JulQ+uJSRFYusjoofrPVFoLuzKR2fUvOZhS7
/4fG41sI6yY8mr3ykDOu+isv6+Du+7kn3NemqbnwGHiPInm6dtDRvIw8F2vEL9Hb
6PIQRTVbTrjstWt141mUB9uWzogMrbTEwDRXR0jUun+BoJGG1qJnt3LiclbJ8z81
RVNTJBRuVPNK7q9Vz2Nq5VNDfYXb21lEuZ0lHvx4RyBcw5foZBuzvxtF3WP6BuPX
uNa3dBE370su22sU0MN7/vbfy9hdjspQGaqR9r7Xy5QmkSt8XjKGkiNsxI505kv0
E9WjRjBb/my+ru63YvCyFBATWYdFn1P16nqJJYrwrtA=
-----END CERTIFICATE-----
