Certificate:
    Data:
        Version: 3 (0x2)
        Serial Number: 11042563100188 (0xa0b0c0d0e1c)
    Signature Algorithm: sha256WithRSAEncryption
        Issuer: CN=KOCHICA_CA, C=IN, O=CITRIX, OU=ANG, ST=KA/emailAddress=KOCHICA_CA@KOCHICA_mail.com
        Validity
            Not Before: Jul  8 04:35:20 2016 GMT
            Not After : Jul  6 04:35:20 2026 GMT
        Subject: ST=KA, C=IN, CN=114_KOCHICA_server/emailAddress=114_KOCHICA@test_ca.com, O=CITRIX
        Subject Public Key Info:
            Public Key Algorithm: rsaEncryption
                Public-Key: (2048 bit)
                Modulus:
                    00:db:e8:0f:ce:2d:ec:09:df:b5:6e:4d:98:7b:9f:
                    4e:5d:e5:0f:f4:14:2d:55:51:7a:e8:ae:2b:a9:4f:
                    96:68:9c:4d:f5:0a:b7:d7:d8:59:3d:7c:de:47:f1:
                    17:59:c8:27:83:bb:7e:38:e2:17:0b:5c:7f:4d:5e:
                    46:0f:2f:c1:f8:ed:a7:fe:0f:6e:27:31:2f:65:c3:
                    d6:35:7f:df:c9:e0:11:08:fb:d1:cc:1f:7f:db:c5:
                    fd:6b:b0:b7:ca:97:b3:57:ef:8f:d9:62:e2:af:d6:
                    ea:db:bf:35:d8:c0:d8:a1:d5:39:61:4e:af:3e:3c:
                    45:de:57:79:b2:d7:6f:a5:0c:bd:a7:96:2a:ed:c8:
                    da:25:63:cc:f8:9d:f7:0b:a6:89:9e:11:c0:16:79:
                    f6:1c:aa:1a:db:68:4f:ef:f4:c6:39:ce:47:49:7e:
                    15:0d:17:b7:aa:5c:a0:c3:df:a9:b4:50:24:b1:4b:
                    17:1f:f8:78:c8:f0:35:d2:ad:e1:aa:35:5c:14:f4:
                    44:7d:77:ab:af:32:1b:40:79:5b:64:cb:71:28:99:
                    cd:e4:2c:d9:ae:4c:85:69:e1:e8:35:df:97:03:a8:
                    fa:c4:7d:40:ad:f3:a1:e7:06:73:3d:c0:e8:33:de:
                    63:bb:8d:66:c5:b9:42:9c:d5:25:54:4c:7d:5a:57:
                    77:2d
                Exponent: 65537 (0x10001)
        X509v3 extensions:
            Netscape Cert Type: 
                SSL Server
            X509v3 Subject Key Identifier: 
                CB:DB:89:B9:71:61:C0:E9:B6:0A:44:E7:82:31:9E:D4:82:A7:54:F3
            X509v3 Authority Key Identifier: 
                keyid:BD:BB:95:76:5C:F9:2D:21:29:42:22:FD:91:AF:B8:39:24:AA:7E:37
                DirName:/CN=KOCHICA_CA/C=IN/O=CITRIX/OU=ANG/ST=KA/emailAddress=KOCHICA_CA@KOCHICA_mail.com
                serial:E1:10:ED:B2:3C:3D:E3:71

            Authority Information Access: 
                OCSP - URI:http://KOCHICA_two.ocsptest.com/responderpath

    Signature Algorithm: sha256WithRSAEncryption
         3c:89:cd:aa:14:e7:62:ee:30:5e:01:22:ea:30:8c:ca:52:f4:
         44:d5:0f:d9:28:37:59:dd:3c:92:e6:de:dc:74:46:50:c7:86:
         5f:12:0d:b2:a2:52:89:ac:8d:04:87:40:35:fa:03:0b:db:a8:
         46:4d:28:6e:2b:b0:f5:87:11:13:17:e6:0c:f0:98:ad:10:3d:
         eb:d9:6b:e7:cc:2b:4c:78:72:3a:5c:87:b5:4d:18:ee:22:67:
         30:76:45:3b:4f:4e:ee:22:9c:0e:0d:d8:b7:6f:79:52:e1:fa:
         1c:18:d0:d5:d0:64:87:62:c5:d9:71:bd:9d:61:81:09:1e:a8:
         5e:8d:77:4f:d6:61:77:c2:e1:a8:9f:57:2c:65:bb:5d:04:eb:
         ff:61:f9:c6:92:85:e6:28:66:4f:f2:37:c7:ec:a7:9a:76:7e:
         03:19:19:9f:0a:51:37:60:11:10:88:a6:15:ad:8f:8c:e1:45:
         ef:d3:52:76:ab:3e:95:28:a4:e5:4d:d9:e2:ea:6e:f4:d0:5f:
         ac:02:fd:85:92:d1:cc:c6:c6:f1:a8:f5:a6:c1:1c:f6:fd:12:
         73:90:db:23:45:cd:34:76:44:da:de:cf:b6:22:41:43:0e:d2:
         d3:28:f3:91:ad:80:a1:f4:75:b7:e1:0d:30:01:19:72:35:05:
         93:13:5e:8c
-----BEGIN CERTIFICATE-----
MIIEnDCCA4SgAwIBAgIGCgsMDQ4cMA0GCSqGSIb3DQEBCwUAMHoxEzARBgNVBAMU
CktPQ0hJQ0FfQ0ExCzAJBgNVBAYTAklOMQ8wDQYDVQQKEwZDSVRSSVgxDDAKBgNV
BAsTA0FORzELMAkGA1UECBMCS0ExKjAoBgkqhkiG9w0BCQEWG0tPQ0hJQ0FfQ0FA
S09DSElDQV9tYWlsLmNvbTAeFw0xNjA3MDgwNDM1MjBaFw0yNjA3MDYwNDM1MjBa
MHAxCzAJBgNVBAgTAktBMQswCQYDVQQGEwJJTjEbMBkGA1UEAxQSMTE0X0tPQ0hJ
Q0Ffc2VydmVyMSYwJAYJKoZIhvcNAQkBFhcxMTRfS09DSElDQUB0ZXN0X2NhLmNv
bTEPMA0GA1UEChMGQ0lUUklYMIIBIjANBgkqhkiG9w0BAQEFAAOCAQ8AMIIBCgKC
AQEA2+gPzi3sCd+1bk2Ye59OXeUP9BQtVVF66K4rqU+WaJxN9Qq319hZPXzeR/EX
Wcgng7t+OOIXC1x/TV5GDy/B+O2n/g9uJzEvZcPWNX/fyeARCPvRzB9/28X9a7C3
ypezV++P2WLir9bq27812MDYodU5YU6vPjxF3ld5stdvpQy9p5Yq7cjaJWPM+J33
C6aJnhHAFnn2HKoa22hP7/TGOc5HSX4VDRe3qlygw9+ptFAksUsXH/h4yPA10q3h
qjVcFPREfXerrzIbQHlbZMtxKJnN5CzZrkyFaeHoNd+XA6j6xH1ArfOh5wZzPcDo
M95ju41mxblCnNUlVEx9Wld3LQIDAQABo4IBMDCCASwwEQYJYIZIAYb4QgEBBAQD
AgZAMB0GA1UdDgQWBBTL24m5cWHA6bYKROeCMZ7UgqdU8zCBrAYDVR0jBIGkMIGh
gBS9u5V2XPktISlCIv2Rr7g5JKp+N6F+pHwwejETMBEGA1UEAxQKS09DSElDQV9D
QTELMAkGA1UEBhMCSU4xDzANBgNVBAoTBkNJVFJJWDEMMAoGA1UECxMDQU5HMQsw
CQYDVQQIEwJLQTEqMCgGCSqGSIb3DQEJARYbS09DSElDQV9DQUBLT0NISUNBX21h
aWwuY29tggkA4RDtsjw943EwSQYIKwYBBQUHAQEEPTA7MDkGCCsGAQUFBzABhi1o
dHRwOi8vS09DSElDQV90d28ub2NzcHRlc3QuY29tL3Jlc3BvbmRlcnBhdGgwDQYJ
KoZIhvcNAQELBQADggEBADyJzaoU52LuMF4BIuowjMpS9ETVD9koN1ndPJLm3tx0
RlDHhl8SDbKiUomsjQSHQDX6AwvbqEZNKG4rsPWHERMX5gzwmK0QPevZa+fMK0x4
cjpch7VNGO4iZzB2RTtPTu4inA4N2LdveVLh+hwY0NXQZIdixdlxvZ1hgQkeqF6N
d0/WYXfC4aifVyxlu10E6/9h+caSheYoZk/yN8fsp5p2fgMZGZ8KUTdgERCIphWt
j4zhRe/TUnarPpUopOVN2eLqbvTQX6wC/YWS0czGxvGo9abBHPb9EnOQ2yNFzTR2
RNrez7YiQUMO0tMo85GtgKH0dbfhDTABGXI1BZMTXow=
-----END CERTIFICATE-----
