Certificate:
    Data:
        Version: 3 (0x2)
        Serial Number: 11042563100190 (0xa0b0c0d0e1e)
    Signature Algorithm: sha256WithRSAEncryption
        Issuer: CN=KOCHICA_CA, C=IN, O=CITRIX, OU=ANG, ST=KA/emailAddress=KOCHICA_CA@KOCHICA_mail.com
        Validity
            Not Before: Jul  8 04:35:20 2016 GMT
            Not After : Jul  6 04:35:20 2026 GMT
        Subject: ST=KA, C=IN, CN=116_KOCHICA_server/emailAddress=116_KOCHICA@test_ca.com, O=CITRIX
        Subject Public Key Info:
            Public Key Algorithm: rsaEncryption
                Public-Key: (2048 bit)
                Modulus:
                    00:e7:80:0c:4b:68:a8:70:84:31:ed:54:13:c5:5c:
                    c4:6d:2a:ea:6b:ee:ac:b7:df:3a:02:bd:32:63:9e:
                    2d:ff:e1:b9:ea:e1:a8:64:95:20:c7:d1:3b:69:f8:
                    09:83:a9:2c:1d:a8:e3:77:68:6f:1d:73:6b:fd:a0:
                    39:35:12:c7:e3:3a:a2:ba:71:98:ff:14:68:6b:e8:
                    e7:41:e6:61:c7:39:63:99:4b:9f:ed:f2:df:6e:c3:
                    78:ee:36:43:59:fb:b0:84:01:9b:d6:b9:d3:62:04:
                    c8:09:51:ee:49:4d:97:99:26:70:cc:aa:cc:d9:6c:
                    9a:4b:7d:25:07:c9:8e:71:21:eb:15:13:c7:11:4e:
                    a4:84:fb:5b:96:60:be:41:82:21:72:1e:29:c3:98:
                    cd:64:8a:2c:b1:60:8b:69:1a:56:2e:12:80:6e:8e:
                    3b:fa:71:21:81:7e:8e:0a:ee:54:6e:74:bb:1f:24:
                    26:68:56:b9:cb:fb:71:b1:c6:9b:bc:00:c9:e0:75:
                    ef:90:92:b9:d1:41:24:33:2b:34:aa:d5:ce:2e:09:
                    74:64:95:5c:dc:b5:ab:3a:9b:4d:9c:7f:6b:e7:9c:
                    97:9f:33:9a:e9:4e:ac:fb:1d:9f:77:b7:fd:f0:4b:
                    3d:c2:ba:0c:bb:66:7f:fa:64:12:d7:85:ee:ad:7b:
                    4b:d3
                Exponent: 65537 (0x10001)
        X509v3 extensions:
            Netscape Cert Type: 
                SSL Server
            X509v3 Subject Key Identifier: 
                61:69:7E:31:39:C9:9A:AB:ED:E2:AF:AB:95:40:DF:60:8A:B6:4D:E8
            X509v3 Authority Key Identifier: 
                keyid:BD:BB:95:76:5C:F9:2D:21:29:42:22:FD:91:AF:B8:39:24:AA:7E:37
                DirName:/CN=KOCHICA_CA/C=IN/O=CITRIX/OU=ANG/ST=KA/emailAddress=KOCHICA_CA@KOCHICA_mail.com
                serial:E1:10:ED:B2:3C:3D:E3:71

            Authority Information Access: 
                OCSP - URI:http://KOCHICA_two.ocsptest.com/responderpath

    Signature Algorithm: sha256WithRSAEncryption
         4e:63:40:b4:20:25:85:4d:fc:55:5d:ad:df:b0:0c:e1:58:bf:
         3e:f2:11:dc:58:b6:60:4b:50:d5:71:4b:b4:be:79:47:b5:35:
         c3:24:64:2d:53:47:89:e1:3d:fc:a0:9d:59:6e:0b:a3:a5:52:
         66:b3:0c:1f:01:38:51:34:6b:47:5f:9a:b4:4b:85:72:6b:3a:
         d3:9a:e1:3a:df:d9:79:4d:59:0d:d4:19:f2:1b:60:4c:8d:39:
         6b:4d:c3:05:44:a2:83:bc:a1:18:b7:de:34:f8:78:34:c9:13:
         92:a8:0c:87:97:0f:52:6a:a3:96:c4:81:6e:14:c2:31:a4:58:
         8c:95:5a:09:61:b3:a9:1e:86:fc:d9:3f:6d:ef:1f:32:bb:e2:
         62:32:ff:69:12:a6:07:96:58:e4:72:78:4b:a3:dd:9c:d1:52:
         ea:67:bf:56:f3:1c:a7:fc:15:8f:07:6e:57:71:b1:e1:47:d7:
         15:c4:af:2e:c4:f2:5a:50:8c:6e:cd:dd:93:e4:99:09:88:9b:
         a8:40:c2:0c:d9:80:4d:6c:7f:f5:8b:b3:8a:ae:60:e2:30:b8:
         81:94:98:55:ba:2a:3e:ea:a0:08:9d:05:70:42:d7:d5:4d:f9:
         92:ab:66:3c:d5:2e:d6:5c:6d:95:63:d1:0f:6c:9c:dd:ec:df:
         c1:68:72:c3
-----BEGIN CERTIFICATE-----
MIIEnDCCA4SgAwIBAgIGCgsMDQ4eMA0GCSqGSIb3DQEBCwUAMHoxEzARBgNVBAMU
CktPQ0hJQ0FfQ0ExCzAJBgNVBAYTAklOMQ8wDQYDVQQKEwZDSVRSSVgxDDAKBgNV
BAsTA0FORzELMAkGA1UECBMCS0ExKjAoBgkqhkiG9w0BCQEWG0tPQ0hJQ0FfQ0FA
S09DSElDQV9tYWlsLmNvbTAeFw0xNjA3MDgwNDM1MjBaFw0yNjA3MDYwNDM1MjBa
MHAxCzAJBgNVBAgTAktBMQswCQYDVQQGEwJJTjEbMBkGA1UEAxQSMTE2X0tPQ0hJ
Q0Ffc2VydmVyMSYwJAYJKoZIhvcNAQkBFhcxMTZfS09DSElDQUB0ZXN0X2NhLmNv
bTEPMA0GA1UEChMGQ0lUUklYMIIBIjANBgkqhkiG9w0BAQEFAAOCAQ8AMIIBCgKC
AQEA54AMS2iocIQx7VQTxVzEbSrqa+6st986Ar0yY54t/+G56uGoZJUgx9E7afgJ
g6ksHajjd2hvHXNr/aA5NRLH4zqiunGY/xRoa+jnQeZhxzljmUuf7fLfbsN47jZD
WfuwhAGb1rnTYgTICVHuSU2XmSZwzKrM2WyaS30lB8mOcSHrFRPHEU6khPtblmC+
QYIhch4pw5jNZIossWCLaRpWLhKAbo47+nEhgX6OCu5UbnS7HyQmaFa5y/txscab
vADJ4HXvkJK50UEkMys0qtXOLgl0ZJVc3LWrOptNnH9r55yXnzOa6U6s+x2fd7f9
8Es9wroMu2Z/+mQS14XurXtL0wIDAQABo4IBMDCCASwwEQYJYIZIAYb4QgEBBAQD
AgZAMB0GA1UdDgQWBBRhaX4xOcmaq+3ir6uVQN9girZN6DCBrAYDVR0jBIGkMIGh
gBS9u5V2XPktISlCIv2Rr7g5JKp+N6F+pHwwejETMBEGA1UEAxQKS09DSElDQV9D
QTELMAkGA1UEBhMCSU4xDzANBgNVBAoTBkNJVFJJWDEMMAoGA1UECxMDQU5HMQsw
CQYDVQQIEwJLQTEqMCgGCSqGSIb3DQEJARYbS09DSElDQV9DQUBLT0NISUNBX21h
aWwuY29tggkA4RDtsjw943EwSQYIKwYBBQUHAQEEPTA7MDkGCCsGAQUFBzABhi1o
dHRwOi8vS09DSElDQV90d28ub2NzcHRlc3QuY29tL3Jlc3BvbmRlcnBhdGgwDQYJ
KoZIhvcNAQELBQADggEBAE5jQLQgJYVN/FVdrd+wDOFYvz7yEdxYtmBLUNVxS7S+
eUe1NcMkZC1TR4nhPfygnVluC6OlUmazDB8BOFE0a0dfmrRLhXJrOtOa4Trf2XlN
WQ3UGfIbYEyNOWtNwwVEooO8oRi33jT4eDTJE5KoDIeXD1Jqo5bEgW4UwjGkWIyV
Wglhs6kehvzZP23vHzK74mIy/2kSpgeWWORyeEuj3ZzRUupnv1bzHKf8FY8Hbldx
seFH1xXEry7E8lpQjG7N3ZPkmQmIm6hAwgzZgE1sf/WLs4quYOIwuIGUmFW6Kj7q
oAidBXBC19VN+ZKrZjzVLtZcbZVj0Q9snN3s38FocsM=
-----END CERTIFICATE-----
