Certificate:
    Data:
        Version: 3 (0x2)
        Serial Number: 11042563100191 (0xa0b0c0d0e1f)
    Signature Algorithm: sha256WithRSAEncryption
        Issuer: CN=KOCHICA_CA, C=IN, O=CITRIX, OU=ANG, ST=KA/emailAddress=KOCHICA_CA@KOCHICA_mail.com
        Validity
            Not Before: Jul  8 04:35:20 2016 GMT
            Not After : Jul  6 04:35:20 2026 GMT
        Subject: ST=KA, C=IN, CN=117_KOCHICA_server/emailAddress=117_KOCHICA@test_ca.com, O=CITRIX
        Subject Public Key Info:
            Public Key Algorithm: rsaEncryption
                Public-Key: (2048 bit)
                Modulus:
                    00:b7:96:2d:ea:0b:97:fd:f2:4d:81:b6:3d:ee:ef:
                    7f:7c:7f:e1:81:c2:67:95:a5:2c:3f:83:fe:46:da:
                    16:bc:f9:fb:b9:a2:28:64:c5:44:19:6f:c2:fc:d7:
                    4c:93:4f:7f:f8:21:d1:0f:f7:6b:18:8c:a5:b9:1f:
                    ee:bc:73:6c:16:31:8d:4d:ca:5a:44:87:f9:43:c5:
                    63:4e:dc:b3:94:18:e0:32:86:1e:ee:80:97:5f:2c:
                    4b:cf:83:29:58:29:61:62:37:e2:e2:99:36:9c:52:
                    89:31:43:8e:72:56:67:68:8d:f0:15:d0:de:9b:cb:
                    0d:21:c5:02:44:b4:2c:78:fe:a7:66:0d:98:62:ec:
                    ce:d2:66:00:3f:e7:d6:2a:ac:c3:76:ca:e9:65:1a:
                    d1:61:8a:ac:c6:f8:a5:1c:9b:49:25:c5:fc:aa:6e:
                    52:b3:9a:97:c2:82:37:e9:5f:49:0a:24:21:db:dc:
                    53:c0:6f:fa:c8:b6:53:b4:09:e8:75:d1:a2:20:82:
                    02:31:6c:c2:f7:4d:60:15:8a:98:c6:ba:54:ad:c8:
                    9e:bf:e9:bd:8f:85:04:4b:be:5e:7f:08:8e:03:e2:
                    0c:eb:e2:f0:fe:0b:e7:ea:71:70:10:57:f3:45:52:
                    b0:d9:e9:db:9f:e3:9e:74:c1:fc:a5:a4:e1:26:4f:
                    dc:ab
                Exponent: 65537 (0x10001)
        X509v3 extensions:
            Netscape Cert Type: 
                SSL Server
            X509v3 Subject Key Identifier: 
                46:13:7D:C2:C7:AA:F1:F9:6A:F6:44:F7:12:1E:8E:82:AC:DB:34:ED
            X509v3 Authority Key Identifier: 
                keyid:BD:BB:95:76:5C:F9:2D:21:29:42:22:FD:91:AF:B8:39:24:AA:7E:37
                DirName:/CN=KOCHICA_CA/C=IN/O=CITRIX/OU=ANG/ST=KA/emailAddress=KOCHICA_CA@KOCHICA_mail.com
                serial:E1:10:ED:B2:3C:3D:E3:71

            Authority Information Access: 
                OCSP - URI:http://KOCHICA_two.ocsptest.com/responderpath

    Signature Algorithm: sha256WithRSAEncryption
         68:bc:b0:83:3a:2f:fb:16:79:47:1b:f1:37:9b:33:28:c3:81:
         ae:ce:97:8f:a0:c7:c7:31:da:c8:79:9c:eb:0f:7b:e6:1b:12:
         1d:f6:a6:8f:c7:e2:e2:f4:9b:7f:ca:11:9d:f6:87:4e:08:7e:
         2e:04:8a:e5:47:a9:17:c5:1c:8f:c8:9f:31:54:61:7a:9d:f4:
         84:96:bb:ab:16:a5:85:cc:3c:18:6f:f3:af:7f:fb:73:2e:97:
         ae:9c:df:3a:f3:fd:87:57:e1:27:74:78:35:3f:e8:56:ca:e2:
         34:87:24:cb:89:50:84:10:d0:a3:2f:f4:c4:ad:0f:a5:5a:3b:
         3b:e0:ed:57:54:69:f6:d4:58:a1:d7:a1:84:d9:55:76:b7:3d:
         78:51:ca:b3:1e:0a:51:fb:bc:55:31:e3:b4:c9:c7:af:89:3d:
         0f:ea:22:06:85:1c:53:46:fb:92:66:1a:1d:bc:cc:6d:03:75:
         b8:b4:40:1f:31:ef:bb:5c:e4:b6:a5:2a:e0:85:1c:09:36:47:
         09:43:59:6a:a2:f2:3d:30:16:2a:16:f7:e0:96:72:10:d7:d7:
         d6:c1:03:6d:6b:9f:3c:0d:f3:5c:22:b8:95:5c:fb:6f:38:ac:
         40:99:bd:c9:54:a0:6f:ab:b1:c8:81:ae:59:37:0c:93:58:dc:
         a7:aa:e3:09
-----BEGIN CERTIFICATE-----
MIIEnDCCA4SgAwIBAgIGCgsMDQ4fMA0GCSqGSIb3DQEBCwUAMHoxEzARBgNVBAMU
CktPQ0hJQ0FfQ0ExCzAJBgNVBAYTAklOMQ8wDQYDVQQKEwZDSVRSSVgxDDAKBgNV
BAsTA0FORzELMAkGA1UECBMCS0ExKjAoBgkqhkiG9w0BCQEWG0tPQ0hJQ0FfQ0FA
S09DSElDQV9tYWlsLmNvbTAeFw0xNjA3MDgwNDM1MjBaFw0yNjA3MDYwNDM1MjBa
MHAxCzAJBgNVBAgTAktBMQswCQYDVQQGEwJJTjEbMBkGA1UEAxQSMTE3X0tPQ0hJ
Q0Ffc2VydmVyMSYwJAYJKoZIhvcNAQkBFhcxMTdfS09DSElDQUB0ZXN0X2NhLmNv
bTEPMA0GA1UEChMGQ0lUUklYMIIBIjANBgkqhkiG9w0BAQEFAAOCAQ8AMIIBCgKC
AQEAt5Yt6guX/fJNgbY97u9/fH/hgcJnlaUsP4P+RtoWvPn7uaIoZMVEGW/C/NdM
k09/+CHRD/drGIyluR/uvHNsFjGNTcpaRIf5Q8VjTtyzlBjgMoYe7oCXXyxLz4Mp
WClhYjfi4pk2nFKJMUOOclZnaI3wFdDem8sNIcUCRLQseP6nZg2YYuzO0mYAP+fW
KqzDdsrpZRrRYYqsxvilHJtJJcX8qm5Ss5qXwoI36V9JCiQh29xTwG/6yLZTtAno
ddGiIIICMWzC901gFYqYxrpUrciev+m9j4UES75efwiOA+IM6+Lw/gvn6nFwEFfz
RVKw2enbn+OedMH8paThJk/cqwIDAQABo4IBMDCCASwwEQYJYIZIAYb4QgEBBAQD
AgZAMB0GA1UdDgQWBBRGE33Cx6rx+Wr2RPcSHo6CrNs07TCBrAYDVR0jBIGkMIGh
gBS9u5V2XPktISlCIv2Rr7g5JKp+N6F+pHwwejETMBEGA1UEAxQKS09DSElDQV9D
QTELMAkGA1UEBhMCSU4xDzANBgNVBAoTBkNJVFJJWDEMMAoGA1UECxMDQU5HMQsw
CQYDVQQIEwJLQTEqMCgGCSqGSIb3DQEJARYbS09DSElDQV9DQUBLT0NISUNBX21h
aWwuY29tggkA4RDtsjw943EwSQYIKwYBBQUHAQEEPTA7MDkGCCsGAQUFBzABhi1o
dHRwOi8vS09DSElDQV90d28ub2NzcHRlc3QuY29tL3Jlc3BvbmRlcnBhdGgwDQYJ
KoZIhvcNAQELBQADggEBAGi8sIM6L/sWeUcb8TebMyjDga7Ol4+gx8cx2sh5nOsP
e+YbEh32po/H4uL0m3/KEZ32h04Ifi4EiuVHqRfFHI/InzFUYXqd9ISWu6sWpYXM
PBhv869/+3Mul66c3zrz/YdX4Sd0eDU/6FbK4jSHJMuJUIQQ0KMv9MStD6VaOzvg
7VdUafbUWKHXoYTZVXa3PXhRyrMeClH7vFUx47TJx6+JPQ/qIgaFHFNG+5JmGh28
zG0Ddbi0QB8x77tc5LalKuCFHAk2RwlDWWqi8j0wFioW9+CWchDX19bBA21rnzwN
81wiuJVc+284rECZvclUoG+rsciBrlk3DJNY3Keq4wk=
-----END CERTIFICATE-----
