Certificate:
    Data:
        Version: 3 (0x2)
        Serial Number: 11042563100192 (0xa0b0c0d0e20)
    Signature Algorithm: sha256WithRSAEncryption
        Issuer: CN=KOCHICA_CA, C=IN, O=CITRIX, OU=ANG, ST=KA/emailAddress=KOCHICA_CA@KOCHICA_mail.com
        Validity
            Not Before: Jul  8 04:35:21 2016 GMT
            Not After : Jul  6 04:35:21 2026 GMT
        Subject: ST=KA, C=IN, CN=118_KOCHICA_server/emailAddress=118_KOCHICA@test_ca.com, O=CITRIX
        Subject Public Key Info:
            Public Key Algorithm: rsaEncryption
                Public-Key: (2048 bit)
                Modulus:
                    00:bd:82:1e:14:19:cf:c4:de:b0:16:d8:a8:46:ba:
                    72:2e:94:85:8a:e2:33:a7:78:3e:e4:6d:43:a5:0a:
                    b8:be:2c:48:34:b3:83:70:c0:3f:0d:6d:d3:29:0b:
                    7e:89:67:33:32:bb:a6:2f:3e:99:68:c7:cb:54:56:
                    d0:b7:54:90:2a:9f:43:99:ac:cb:71:24:91:b0:1b:
                    05:cb:51:78:bb:9b:69:72:4a:b1:82:2f:2a:8c:3a:
                    ed:ae:ae:68:83:53:2c:cc:fc:ff:c4:62:88:95:53:
                    04:60:91:95:e0:49:98:74:d1:96:3d:5f:2c:49:b7:
                    e9:ec:76:41:3a:32:91:5b:68:47:f5:c1:ad:c1:c8:
                    23:6b:ea:22:f8:5b:0a:67:93:d2:3c:b1:4b:49:23:
                    7c:cb:30:42:ab:17:ec:69:34:85:1f:de:80:f2:07:
                    87:2d:41:6e:ec:3b:08:db:33:14:a4:cd:bb:a4:30:
                    cb:d0:1b:2c:ea:62:a8:bb:8d:e9:72:67:c6:5e:29:
                    d1:bb:7c:6a:3e:a6:21:7e:18:fa:3c:27:b8:d6:7a:
                    31:e4:3d:59:52:49:da:ad:b3:ac:f9:33:93:e8:29:
                    be:3b:1d:b2:e3:d6:5e:d5:46:78:9a:33:63:42:41:
                    fe:43:80:8c:d7:ed:a0:18:cc:6d:2d:b1:01:10:6b:
                    0c:83
                Exponent: 65537 (0x10001)
        X509v3 extensions:
            Netscape Cert Type: 
                SSL Server
            X509v3 Subject Key Identifier: 
                1D:33:C5:C9:57:32:F6:52:B8:3C:A4:AE:60:D3:91:30:DE:14:6F:C3
            X509v3 Authority Key Identifier: 
                keyid:BD:BB:95:76:5C:F9:2D:21:29:42:22:FD:91:AF:B8:39:24:AA:7E:37
                DirName:/CN=KOCHICA_CA/C=IN/O=CITRIX/OU=ANG/ST=KA/emailAddress=KOCHICA_CA@KOCHICA_mail.com
                serial:E1:10:ED:B2:3C:3D:E3:71

            Authority Information Access: 
                OCSP - URI:http://KOCHICA_two.ocsptest.com/responderpath

    Signature Algorithm: sha256WithRSAEncryption
         11:0f:b4:cf:5f:20:6a:57:9d:5a:24:31:81:c7:39:83:e8:7e:
         dd:a7:21:69:e6:52:1c:71:2d:51:bf:21:8a:cc:a8:a1:48:cf:
         89:87:c6:45:9e:ae:04:61:bf:52:e5:60:37:48:6f:45:fc:57:
         7b:a0:83:ea:a6:c2:54:92:bf:97:0b:d3:96:13:12:a0:8d:35:
         33:32:8b:91:b4:48:7e:5c:14:05:af:5b:35:0b:20:71:9a:17:
         26:e9:78:d5:20:71:fd:82:be:b1:f7:b7:8a:3d:95:49:86:d8:
         89:74:69:b6:0e:89:ba:ca:ab:93:b2:1e:92:7b:c3:18:aa:74:
         c0:33:ac:ad:13:1a:49:54:7f:61:f8:bc:29:52:bf:00:41:ea:
         e9:de:d6:a5:e2:95:1b:dd:58:cc:c6:55:eb:ff:ee:ca:d1:e7:
         00:6e:e1:7e:aa:d5:1a:cb:b4:25:86:71:a0:41:48:74:a4:76:
         ab:f9:49:ef:fe:0d:e9:f6:d2:43:a4:8e:22:18:e2:20:27:43:
         74:65:d8:1f:4e:d6:fc:80:5c:b6:76:f8:85:5c:d8:90:b9:c3:
         a6:4d:20:af:87:2c:8c:b1:39:83:a5:36:e8:40:ee:73:a1:0a:
         3b:a8:23:a8:de:f3:37:15:3d:3d:22:f1:9f:33:ef:f1:54:48:
         97:6c:1e:f5
-----BEGIN CERTIFICATE-----
MIIEnDCCA4SgAwIBAgIGCgsMDQ4gMA0GCSqGSIb3DQEBCwUAMHoxEzARBgNVBAMU
CktPQ0hJQ0FfQ0ExCzAJBgNVBAYTAklOMQ8wDQYDVQQKEwZDSVRSSVgxDDAKBgNV
BAsTA0FORzELMAkGA1UECBMCS0ExKjAoBgkqhkiG9w0BCQEWG0tPQ0hJQ0FfQ0FA
S09DSElDQV9tYWlsLmNvbTAeFw0xNjA3MDgwNDM1MjFaFw0yNjA3MDYwNDM1MjFa
MHAxCzAJBgNVBAgTAktBMQswCQYDVQQGEwJJTjEbMBkGA1UEAxQSMTE4X0tPQ0hJ
Q0Ffc2VydmVyMSYwJAYJKoZIhvcNAQkBFhcxMThfS09DSElDQUB0ZXN0X2NhLmNv
bTEPMA0GA1UEChMGQ0lUUklYMIIBIjANBgkqhkiG9w0BAQEFAAOCAQ8AMIIBCgKC
AQEAvYIeFBnPxN6wFtioRrpyLpSFiuIzp3g+5G1DpQq4vixINLODcMA/DW3TKQt+
iWczMrumLz6ZaMfLVFbQt1SQKp9DmazLcSSRsBsFy1F4u5tpckqxgi8qjDrtrq5o
g1MszPz/xGKIlVMEYJGV4EmYdNGWPV8sSbfp7HZBOjKRW2hH9cGtwcgja+oi+FsK
Z5PSPLFLSSN8yzBCqxfsaTSFH96A8geHLUFu7DsI2zMUpM27pDDL0Bss6mKou43p
cmfGXinRu3xqPqYhfhj6PCe41nox5D1ZUknarbOs+TOT6Cm+Ox2y49Ze1UZ4mjNj
QkH+Q4CM1+2gGMxtLbEBEGsMgwIDAQABo4IBMDCCASwwEQYJYIZIAYb4QgEBBAQD
AgZAMB0GA1UdDgQWBBQdM8XJVzL2Urg8pK5g05Ew3hRvwzCBrAYDVR0jBIGkMIGh
gBS9u5V2XPktISlCIv2Rr7g5JKp+N6F+pHwwejETMBEGA1UEAxQKS09DSElDQV9D
QTELMAkGA1UEBhMCSU4xDzANBgNVBAoTBkNJVFJJWDEMMAoGA1UECxMDQU5HMQsw
CQYDVQQIEwJLQTEqMCgGCSqGSIb3DQEJARYbS09DSElDQV9DQUBLT0NISUNBX21h
aWwuY29tggkA4RDtsjw943EwSQYIKwYBBQUHAQEEPTA7MDkGCCsGAQUFBzABhi1o
dHRwOi8vS09DSElDQV90d28ub2NzcHRlc3QuY29tL3Jlc3BvbmRlcnBhdGgwDQYJ
KoZIhvcNAQELBQADggEBABEPtM9fIGpXnVokMYHHOYPoft2nIWnmUhxxLVG/IYrM
qKFIz4mHxkWergRhv1LlYDdIb0X8V3ugg+qmwlSSv5cL05YTEqCNNTMyi5G0SH5c
FAWvWzULIHGaFybpeNUgcf2CvrH3t4o9lUmG2Il0abYOibrKq5OyHpJ7wxiqdMAz
rK0TGklUf2H4vClSvwBB6une1qXilRvdWMzGVev/7srR5wBu4X6q1RrLtCWGcaBB
SHSkdqv5Se/+Den20kOkjiIY4iAnQ3Rl2B9O1vyAXLZ2+IVc2JC5w6ZNIK+HLIyx
OYOlNuhA7nOhCjuoI6je8zcVPT0i8Z8z7/FUSJdsHvU=
-----END CERTIFICATE-----
