Certificate:
    Data:
        Version: 3 (0x2)
        Serial Number: 11042563100194 (0xa0b0c0d0e22)
    Signature Algorithm: sha256WithRSAEncryption
        Issuer: CN=KOCHICA_CA, C=IN, O=CITRIX, OU=ANG, ST=KA/emailAddress=KOCHICA_CA@KOCHICA_mail.com
        Validity
            Not Before: Jul  8 04:35:21 2016 GMT
            Not After : Jul  6 04:35:21 2026 GMT
        Subject: ST=KA, C=IN, CN=120_KOCHICA_server/emailAddress=120_KOCHICA@test_ca.com, O=CITRIX
        Subject Public Key Info:
            Public Key Algorithm: rsaEncryption
                Public-Key: (2048 bit)
                Modulus:
                    00:b3:04:e5:19:fe:bc:20:c3:eb:6a:58:f6:56:de:
                    28:18:ae:2b:9f:0c:4b:ae:b5:d2:2b:bd:d7:62:aa:
                    07:89:86:73:77:bd:37:a1:57:b6:f8:e2:73:c9:05:
                    75:a0:c0:da:53:04:23:11:cd:a4:30:84:53:0a:37:
                    47:11:46:58:f1:fc:e6:6b:c3:4f:39:48:1b:9c:6e:
                    7d:1b:a8:97:1e:73:51:dc:f3:8d:e5:d1:0d:7f:79:
                    4b:fd:9c:8a:da:45:56:8e:9e:d8:77:38:12:d9:33:
                    f9:1b:ae:60:8f:74:79:57:22:48:32:74:b8:24:84:
                    88:4d:21:0d:88:61:74:2c:46:1e:5e:de:65:ba:f7:
                    1b:92:88:51:f4:16:e6:a9:fe:af:3f:43:a4:f7:22:
                    e8:56:66:99:4d:e6:e5:74:d3:1c:36:b9:01:e4:5f:
                    79:07:13:21:65:5e:c1:21:48:77:a3:52:d3:8d:dc:
                    b0:2c:b5:a8:ff:9c:fd:56:84:a8:cd:65:9a:8b:12:
                    c7:fd:3e:e1:d4:65:e1:19:b5:0a:b8:5f:02:26:af:
                    da:02:3a:c5:55:d6:3c:2c:0d:bd:a8:77:26:16:1e:
                    85:7e:07:74:1d:0f:84:61:77:71:a8:09:0e:cf:0b:
                    d1:35:75:88:ff:22:4a:51:95:cc:46:0b:02:cd:68:
                    e3:8d
                Exponent: 65537 (0x10001)
        X509v3 extensions:
            Netscape Cert Type: 
                SSL Server
            X509v3 Subject Key Identifier: 
                2D:97:EB:09:28:58:F5:F7:63:CD:A7:8E:BC:11:79:85:18:89:60:BF
            X509v3 Authority Key Identifier: 
                keyid:BD:BB:95:76:5C:F9:2D:21:29:42:22:FD:91:AF:B8:39:24:AA:7E:37
                DirName:/CN=KOCHICA_CA/C=IN/O=CITRIX/OU=ANG/ST=KA/emailAddress=KOCHICA_CA@KOCHICA_mail.com
                serial:E1:10:ED:B2:3C:3D:E3:71

            Authority Information Access: 
                OCSP - URI:http://KOCHICA_two.ocsptest.com/responderpath

    Signature Algorithm: sha256WithRSAEncryption
         45:ee:f6:c5:64:97:23:e2:a2:57:e9:f1:05:7f:3b:d9:eb:63:
         c8:ef:0f:e1:c5:3d:de:7e:02:4e:21:d7:0b:92:ee:1a:0a:8e:
         bf:ec:6e:ad:e3:dd:54:f1:58:23:03:a4:da:94:2c:ce:2b:7a:
         97:ba:e3:43:38:3b:3b:5d:11:10:a8:7d:c7:be:2d:17:c6:25:
         aa:e2:97:0a:dc:bc:c6:13:8a:ed:dc:f6:08:37:48:7d:f3:4e:
         e2:54:30:42:01:b4:f2:88:7a:92:1d:fb:75:7d:36:db:42:b9:
         80:c7:11:19:0a:5f:ef:0a:c1:a7:b7:8f:9e:c1:ad:ee:d3:3f:
         29:c1:15:ab:86:a3:16:e8:0a:59:7c:05:2b:26:2e:1e:b2:ea:
         e0:9c:c5:57:ff:8e:97:b7:b4:fb:55:eb:e1:e4:c8:a3:f0:66:
         d6:8c:36:74:fb:ca:c1:38:45:46:2d:b4:e1:96:e5:52:c2:68:
         25:83:e8:fe:f3:34:42:33:7c:98:2d:d3:31:51:0f:3c:e5:88:
         73:ab:f8:1c:91:14:6c:1c:27:ca:81:90:77:e1:a5:7a:89:e5:
         d4:36:26:7a:43:db:32:92:f3:ad:76:dd:dd:55:6b:d3:b9:82:
         aa:41:57:41:d3:0e:6f:de:63:a2:a6:81:42:f4:30:54:f4:08:
         b9:3e:6f:a7
-----BEGIN CERTIFICATE-----
MIIEnDCCA4SgAwIBAgIGCgsMDQ4iMA0GCSqGSIb3DQEBCwUAMHoxEzARBgNVBAMU
CktPQ0hJQ0FfQ0ExCzAJBgNVBAYTAklOMQ8wDQYDVQQKEwZDSVRSSVgxDDAKBgNV
BAsTA0FORzELMAkGA1UECBMCS0ExKjAoBgkqhkiG9w0BCQEWG0tPQ0hJQ0FfQ0FA
S09DSElDQV9tYWlsLmNvbTAeFw0xNjA3MDgwNDM1MjFaFw0yNjA3MDYwNDM1MjFa
MHAxCzAJBgNVBAgTAktBMQswCQYDVQQGEwJJTjEbMBkGA1UEAxQSMTIwX0tPQ0hJ
Q0Ffc2VydmVyMSYwJAYJKoZIhvcNAQkBFhcxMjBfS09DSElDQUB0ZXN0X2NhLmNv
bTEPMA0GA1UEChMGQ0lUUklYMIIBIjANBgkqhkiG9w0BAQEFAAOCAQ8AMIIBCgKC
AQEAswTlGf68IMPralj2Vt4oGK4rnwxLrrXSK73XYqoHiYZzd703oVe2+OJzyQV1
oMDaUwQjEc2kMIRTCjdHEUZY8fzma8NPOUgbnG59G6iXHnNR3PON5dENf3lL/ZyK
2kVWjp7YdzgS2TP5G65gj3R5VyJIMnS4JISITSENiGF0LEYeXt5luvcbkohR9Bbm
qf6vP0Ok9yLoVmaZTebldNMcNrkB5F95BxMhZV7BIUh3o1LTjdywLLWo/5z9VoSo
zWWaixLH/T7h1GXhGbUKuF8CJq/aAjrFVdY8LA29qHcmFh6Ffgd0HQ+EYXdxqAkO
zwvRNXWI/yJKUZXMRgsCzWjjjQIDAQABo4IBMDCCASwwEQYJYIZIAYb4QgEBBAQD
AgZAMB0GA1UdDgQWBBQtl+sJKFj192PNp468EXmFGIlgvzCBrAYDVR0jBIGkMIGh
gBS9u5V2XPktISlCIv2Rr7g5JKp+N6F+pHwwejETMBEGA1UEAxQKS09DSElDQV9D
QTELMAkGA1UEBhMCSU4xDzANBgNVBAoTBkNJVFJJWDEMMAoGA1UECxMDQU5HMQsw
CQYDVQQIEwJLQTEqMCgGCSqGSIb3DQEJARYbS09DSElDQV9DQUBLT0NISUNBX21h
aWwuY29tggkA4RDtsjw943EwSQYIKwYBBQUHAQEEPTA7MDkGCCsGAQUFBzABhi1o
dHRwOi8vS09DSElDQV90d28ub2NzcHRlc3QuY29tL3Jlc3BvbmRlcnBhdGgwDQYJ
KoZIhvcNAQELBQADggEBAEXu9sVklyPiolfp8QV/O9nrY8jvD+HFPd5+Ak4h1wuS
7hoKjr/sbq3j3VTxWCMDpNqULM4repe640M4OztdERCofce+LRfGJarilwrcvMYT
iu3c9gg3SH3zTuJUMEIBtPKIepId+3V9NttCuYDHERkKX+8Kwae3j57Bre7TPynB
FauGoxboCll8BSsmLh6y6uCcxVf/jpe3tPtV6+HkyKPwZtaMNnT7ysE4RUYttOGW
5VLCaCWD6P7zNEIzfJgt0zFRDzzliHOr+ByRFGwcJ8qBkHfhpXqJ5dQ2JnpD2zKS
86123d1Va9O5gqpBV0HTDm/eY6KmgUL0MFT0CLk+b6c=
-----END CERTIFICATE-----
