Certificate:
    Data:
        Version: 3 (0x2)
        Serial Number: 11042563100195 (0xa0b0c0d0e23)
    Signature Algorithm: sha256WithRSAEncryption
        Issuer: CN=KOCHICA_CA, C=IN, O=CITRIX, OU=ANG, ST=KA/emailAddress=KOCHICA_CA@KOCHICA_mail.com
        Validity
            Not Before: Jul  8 04:35:22 2016 GMT
            Not After : Jul  6 04:35:22 2026 GMT
        Subject: ST=KA, C=IN, CN=121_KOCHICA_server/emailAddress=121_KOCHICA@test_ca.com, O=CITRIX
        Subject Public Key Info:
            Public Key Algorithm: rsaEncryption
                Public-Key: (2048 bit)
                Modulus:
                    00:dc:e6:f1:59:fc:0f:b4:ed:66:ed:53:53:4a:9a:
                    d2:25:10:38:e7:25:e3:7d:20:92:ec:58:f6:4f:0c:
                    fc:fa:f7:c2:53:fc:91:bd:67:51:f9:73:4e:17:15:
                    53:35:74:db:00:22:af:88:03:bc:db:b9:53:07:3d:
                    47:df:a2:61:6e:13:f0:ae:e6:26:b8:31:20:47:98:
                    a1:9b:ca:ef:1a:52:64:9a:a3:73:22:44:2e:31:94:
                    91:3d:3d:16:22:c3:d8:2a:b7:2f:32:ae:67:1b:5e:
                    79:61:61:7c:df:42:57:63:26:74:4a:dd:ea:2e:3e:
                    6c:29:94:97:19:e4:27:1b:cb:40:20:52:06:4b:ca:
                    eb:88:b9:c0:11:33:6e:f1:c2:62:05:43:66:95:e3:
                    34:83:a7:59:a4:98:6b:5b:f2:43:73:a2:a0:b2:08:
                    60:59:41:9f:6c:db:54:36:e3:9d:f0:5b:bc:e2:70:
                    a3:63:93:0a:34:ff:46:40:32:26:80:db:2f:5c:e1:
                    6a:db:50:46:21:37:c1:8a:e5:22:7a:ac:f4:b3:07:
                    2c:e4:d0:8e:fe:30:09:6b:0f:32:96:5c:e6:14:e1:
                    88:25:24:55:5b:f9:58:0b:45:ed:6d:50:b5:f3:73:
                    da:c9:ca:7f:1e:08:38:15:79:38:7c:96:b6:7a:a0:
                    e2:a7
                Exponent: 65537 (0x10001)
        X509v3 extensions:
            Netscape Cert Type: 
                SSL Server
            X509v3 Subject Key Identifier: 
                A3:77:B1:04:27:A3:53:F1:84:D4:EA:8D:FB:F4:F0:41:0D:D4:20:8A
            X509v3 Authority Key Identifier: 
                keyid:BD:BB:95:76:5C:F9:2D:21:29:42:22:FD:91:AF:B8:39:24:AA:7E:37
                DirName:/CN=KOCHICA_CA/C=IN/O=CITRIX/OU=ANG/ST=KA/emailAddress=KOCHICA_CA@KOCHICA_mail.com
                serial:E1:10:ED:B2:3C:3D:E3:71

            Authority Information Access: 
                OCSP - URI:http://172.22.10.1/responderpath

    Signature Algorithm: sha256WithRSAEncryption
         13:bc:04:43:6f:66:09:96:f4:58:81:4a:db:e4:79:6a:51:ff:
         8c:ae:ff:2e:23:d0:b9:a2:54:d0:5c:2d:63:e5:46:14:22:2f:
         ea:b3:aa:14:a8:a6:29:5b:94:72:a9:29:82:80:4b:91:89:8a:
         5b:84:78:6f:c8:00:5b:57:d5:47:bb:a0:49:1b:da:b2:44:58:
         f7:86:9b:00:97:38:8b:4c:fe:5d:00:04:4e:f1:fa:45:73:ce:
         fd:9f:cc:af:40:35:6b:95:e0:93:51:12:3a:6e:9f:ce:5e:6d:
         10:1d:e7:a9:ae:b5:66:a6:2b:b7:63:da:90:bf:fd:1a:cc:8b:
         fb:a3:a1:45:f5:d7:d9:7a:87:e1:86:b8:74:3a:dd:7d:9d:c2:
         02:1c:1b:2b:8b:7e:86:40:e8:75:3e:04:0b:c2:1f:33:06:d7:
         81:4d:12:6f:e8:65:92:70:cc:41:bf:d3:bb:0d:04:85:10:2a:
         f3:59:40:2d:6e:84:a8:f2:93:26:32:d1:28:92:98:71:3e:de:
         ec:84:a2:50:48:dd:84:17:08:c8:85:ab:63:3e:19:79:30:a5:
         41:dd:6d:98:27:96:17:c6:33:a7:5d:3e:9d:40:cd:68:28:ac:
         ea:f1:54:48:67:54:61:30:0a:40:10:74:37:ef:fa:d9:22:c0:
         12:3a:ff:8f
-----BEGIN CERTIFICATE-----
MIIEjzCCA3egAwIBAgIGCgsMDQ4jMA0GCSqGSIb3DQEBCwUAMHoxEzARBgNVBAMU
CktPQ0hJQ0FfQ0ExCzAJBgNVBAYTAklOMQ8wDQYDVQQKEwZDSVRSSVgxDDAKBgNV
BAsTA0FORzELMAkGA1UECBMCS0ExKjAoBgkqhkiG9w0BCQEWG0tPQ0hJQ0FfQ0FA
S09DSElDQV9tYWlsLmNvbTAeFw0xNjA3MDgwNDM1MjJaFw0yNjA3MDYwNDM1MjJa
MHAxCzAJBgNVBAgTAktBMQswCQYDVQQGEwJJTjEbMBkGA1UEAxQSMTIxX0tPQ0hJ
Q0Ffc2VydmVyMSYwJAYJKoZIhvcNAQkBFhcxMjFfS09DSElDQUB0ZXN0X2NhLmNv
bTEPMA0GA1UEChMGQ0lUUklYMIIBIjANBgkqhkiG9w0BAQEFAAOCAQ8AMIIBCgKC
AQEA3ObxWfwPtO1m7VNTSprSJRA45yXjfSCS7Fj2Twz8+vfCU/yRvWdR+XNOFxVT
NXTbACKviAO827lTBz1H36JhbhPwruYmuDEgR5ihm8rvGlJkmqNzIkQuMZSRPT0W
IsPYKrcvMq5nG155YWF830JXYyZ0St3qLj5sKZSXGeQnG8tAIFIGS8rriLnAETNu
8cJiBUNmleM0g6dZpJhrW/JDc6KgsghgWUGfbNtUNuOd8Fu84nCjY5MKNP9GQDIm
gNsvXOFq21BGITfBiuUieqz0swcs5NCO/jAJaw8yllzmFOGIJSRVW/lYC0XtbVC1
83Paycp/Hgg4FXk4fJa2eqDipwIDAQABo4IBIzCCAR8wEQYJYIZIAYb4QgEBBAQD
AgZAMB0GA1UdDgQWBBSjd7EEJ6NT8YTU6o379PBBDdQgijCBrAYDVR0jBIGkMIGh
gBS9u5V2XPktISlCIv2Rr7g5JKp+N6F+pHwwejETMBEGA1UEAxQKS09DSElDQV9D
QTELMAkGA1UEBhMCSU4xDzANBgNVBAoTBkNJVFJJWDEMMAoGA1UECxMDQU5HMQsw
CQYDVQQIEwJLQTEqMCgGCSqGSIb3DQEJARYbS09DSElDQV9DQUBLT0NISUNBX21h
aWwuY29tggkA4RDtsjw943EwPAYIKwYBBQUHAQEEMDAuMCwGCCsGAQUFBzABhiBo
dHRwOi8vMTcyLjIyLjEwLjEvcmVzcG9uZGVycGF0aDANBgkqhkiG9w0BAQsFAAOC
AQEAE7wEQ29mCZb0WIFK2+R5alH/jK7/LiPQuaJU0FwtY+VGFCIv6rOqFKimKVuU
cqkpgoBLkYmKW4R4b8gAW1fVR7ugSRvaskRY94abAJc4i0z+XQAETvH6RXPO/Z/M
r0A1a5Xgk1ESOm6fzl5tEB3nqa61ZqYrt2PakL/9GsyL+6OhRfXX2XqH4Ya4dDrd
fZ3CAhwbK4t+hkDodT4EC8IfMwbXgU0Sb+hlknDMQb/Tuw0EhRAq81lALW6EqPKT
JjLRKJKYcT7e7ISiUEjdhBcIyIWrYz4ZeTClQd1tmCeWF8Yzp10+nUDNaCis6vFU
SGdUYTAKQBB0N+/62SLAEjr/jw==
-----END CERTIFICATE-----
