Certificate:
    Data:
        Version: 3 (0x2)
        Serial Number: 11042563100196 (0xa0b0c0d0e24)
    Signature Algorithm: sha256WithRSAEncryption
        Issuer: CN=KOCHICA_CA, C=IN, O=CITRIX, OU=ANG, ST=KA/emailAddress=KOCHICA_CA@KOCHICA_mail.com
        Validity
            Not Before: Jul  8 04:35:22 2016 GMT
            Not After : Jul  6 04:35:22 2026 GMT
        Subject: ST=KA, C=IN, CN=122_KOCHICA_server/emailAddress=122_KOCHICA@test_ca.com, O=CITRIX
        Subject Public Key Info:
            Public Key Algorithm: rsaEncryption
                Public-Key: (2048 bit)
                Modulus:
                    00:ad:95:34:9c:01:01:af:cb:ec:c1:84:64:d8:d0:
                    c7:33:7a:69:41:95:c5:6e:dc:1a:89:0a:b0:3f:52:
                    1c:0f:cc:31:16:7c:24:9a:13:b1:30:67:f1:28:b8:
                    e1:14:d8:55:e5:61:0d:f0:40:95:d5:c1:ae:83:d4:
                    de:4e:a0:08:43:da:76:08:e7:9a:33:eb:22:82:45:
                    dd:d1:d2:9a:2d:1d:5a:45:6d:fd:90:b8:08:5e:a8:
                    57:4c:6b:8d:ea:10:71:50:41:f7:33:94:94:1f:b8:
                    2a:32:11:28:e7:8f:dd:e6:eb:3b:c3:76:5b:2a:08:
                    24:e3:61:8c:6a:aa:48:a8:d7:f2:e8:1c:da:88:45:
                    ed:ff:48:fe:6d:c6:02:1e:34:7b:a0:1b:e6:37:71:
                    f9:8a:65:45:4f:86:35:76:96:4b:1e:fa:39:df:66:
                    06:cb:8f:43:7e:c9:e3:4d:a4:b7:e7:b9:00:05:e7:
                    0a:51:75:05:d5:55:77:7a:8f:c6:8d:2e:e2:a4:ee:
                    fa:3f:87:c0:c9:b3:36:15:ea:7f:83:ff:a6:0c:d0:
                    fe:90:bf:cf:03:a7:b4:83:00:1f:25:8a:38:79:05:
                    89:a1:17:62:68:21:5b:7d:f3:68:c0:70:16:11:1a:
                    f2:23:c3:33:e4:81:e5:14:1f:90:b3:e7:f3:20:52:
                    eb:6b
                Exponent: 65537 (0x10001)
        X509v3 extensions:
            Netscape Cert Type: 
                SSL Server
            X509v3 Subject Key Identifier: 
                8B:15:4F:DE:F9:33:CB:79:E2:CE:3D:61:6F:28:A3:C9:17:29:43:5D
            X509v3 Authority Key Identifier: 
                keyid:BD:BB:95:76:5C:F9:2D:21:29:42:22:FD:91:AF:B8:39:24:AA:7E:37
                DirName:/CN=KOCHICA_CA/C=IN/O=CITRIX/OU=ANG/ST=KA/emailAddress=KOCHICA_CA@KOCHICA_mail.com
                serial:E1:10:ED:B2:3C:3D:E3:71

            Authority Information Access: 
                OCSP - URI:http://172.22.10.1/responderpath

    Signature Algorithm: sha256WithRSAEncryption
         62:f3:9d:13:d9:2c:f5:84:8a:0f:e9:e7:0d:d1:c6:ea:5a:87:
         3f:e4:25:18:0c:63:56:fc:b1:fd:dd:ed:d1:1d:b9:15:fc:0b:
         96:7f:e0:80:2f:ab:f5:8f:a8:0f:a9:d3:9f:2b:27:e2:9b:cc:
         4e:ac:d5:db:ed:08:bc:6b:e1:92:c7:0f:13:cd:9d:10:eb:24:
         a2:24:37:10:92:c4:29:f6:66:56:20:57:18:00:ed:10:69:e7:
         e4:29:2b:28:13:db:d3:27:16:b1:2b:e6:f6:de:77:98:21:ba:
         8a:e7:11:8d:14:7d:17:8c:31:a7:51:74:c6:f3:13:d0:e9:04:
         1d:21:46:5a:09:7a:4d:f8:6f:c8:5b:bd:f9:ed:a4:6f:30:09:
         29:e8:f0:40:99:c4:fb:2a:fb:a4:b1:a9:ef:63:84:ed:03:1f:
         71:fd:8d:21:a9:2c:4d:a9:65:21:7f:24:23:92:18:2c:57:24:
         5b:3c:2a:1f:88:14:8a:07:e7:6b:12:67:94:a7:b4:91:bb:0d:
         84:02:7a:fb:64:46:68:98:62:74:dd:82:f3:e2:f5:34:5c:ea:
         51:05:3e:85:84:77:a5:61:ba:b2:9d:4c:1f:ed:70:a8:32:2e:
         fd:06:85:01:54:68:ce:cc:4e:13:67:6b:7f:d3:59:bd:da:46:
         e9:46:f5:0c
-----BEGIN CERTIFICATE-----
MIIEjzCCA3egAwIBAgIGCgsMDQ4kMA0GCSqGSIb3DQEBCwUAMHoxEzARBgNVBAMU
CktPQ0hJQ0FfQ0ExCzAJBgNVBAYTAklOMQ8wDQYDVQQKEwZDSVRSSVgxDDAKBgNV
BAsTA0FORzELMAkGA1UECBMCS0ExKjAoBgkqhkiG9w0BCQEWG0tPQ0hJQ0FfQ0FA
S09DSElDQV9tYWlsLmNvbTAeFw0xNjA3MDgwNDM1MjJaFw0yNjA3MDYwNDM1MjJa
MHAxCzAJBgNVBAgTAktBMQswCQYDVQQGEwJJTjEbMBkGA1UEAxQSMTIyX0tPQ0hJ
Q0Ffc2VydmVyMSYwJAYJKoZIhvcNAQkBFhcxMjJfS09DSElDQUB0ZXN0X2NhLmNv
bTEPMA0GA1UEChMGQ0lUUklYMIIBIjANBgkqhkiG9w0BAQEFAAOCAQ8AMIIBCgKC
AQEArZU0nAEBr8vswYRk2NDHM3ppQZXFbtwaiQqwP1IcD8wxFnwkmhOxMGfxKLjh
FNhV5WEN8ECV1cGug9TeTqAIQ9p2COeaM+sigkXd0dKaLR1aRW39kLgIXqhXTGuN
6hBxUEH3M5SUH7gqMhEo54/d5us7w3ZbKggk42GMaqpIqNfy6BzaiEXt/0j+bcYC
HjR7oBvmN3H5imVFT4Y1dpZLHvo532YGy49DfsnjTaS357kABecKUXUF1VV3eo/G
jS7ipO76P4fAybM2Fep/g/+mDND+kL/PA6e0gwAfJYo4eQWJoRdiaCFbffNowHAW
ERryI8Mz5IHlFB+Qs+fzIFLrawIDAQABo4IBIzCCAR8wEQYJYIZIAYb4QgEBBAQD
AgZAMB0GA1UdDgQWBBSLFU/e+TPLeeLOPWFvKKPJFylDXTCBrAYDVR0jBIGkMIGh
gBS9u5V2XPktISlCIv2Rr7g5JKp+N6F+pHwwejETMBEGA1UEAxQKS09DSElDQV9D
QTELMAkGA1UEBhMCSU4xDzANBgNVBAoTBkNJVFJJWDEMMAoGA1UECxMDQU5HMQsw
CQYDVQQIEwJLQTEqMCgGCSqGSIb3DQEJARYbS09DSElDQV9DQUBLT0NISUNBX21h
aWwuY29tggkA4RDtsjw943EwPAYIKwYBBQUHAQEEMDAuMCwGCCsGAQUFBzABhiBo
dHRwOi8vMTcyLjIyLjEwLjEvcmVzcG9uZGVycGF0aDANBgkqhkiG9w0BAQsFAAOC
AQEAYvOdE9ks9YSKD+nnDdHG6lqHP+QlGAxjVvyx/d3t0R25FfwLln/ggC+r9Y+o
D6nTnysn4pvMTqzV2+0IvGvhkscPE82dEOskoiQ3EJLEKfZmViBXGADtEGnn5Ckr
KBPb0ycWsSvm9t53mCG6iucRjRR9F4wxp1F0xvMT0OkEHSFGWgl6TfhvyFu9+e2k
bzAJKejwQJnE+yr7pLGp72OE7QMfcf2NIaksTallIX8kI5IYLFckWzwqH4gUigfn
axJnlKe0kbsNhAJ6+2RGaJhidN2C8+L1NFzqUQU+hYR3pWG6sp1MH+1wqDIu/QaF
AVRozsxOE2drf9NZvdpG6Ub1DA==
-----END CERTIFICATE-----
