Certificate:
    Data:
        Version: 3 (0x2)
        Serial Number: 11042563100201 (0xa0b0c0d0e29)
    Signature Algorithm: sha256WithRSAEncryption
        Issuer: CN=KOCHICA_CA, C=IN, O=CITRIX, OU=ANG, ST=KA/emailAddress=KOCHICA_CA@KOCHICA_mail.com
        Validity
            Not Before: Jul  8 04:35:24 2016 GMT
            Not After : Jul  6 04:35:24 2026 GMT
        Subject: ST=KA, C=IN, CN=127_KOCHICA_server/emailAddress=127_KOCHICA@test_ca.com, O=CITRIX
        Subject Public Key Info:
            Public Key Algorithm: rsaEncryption
                Public-Key: (2048 bit)
                Modulus:
                    00:b9:c3:9b:84:f6:d5:77:66:c5:ee:24:36:30:d9:
                    b2:cf:19:fc:b0:86:99:dd:ac:ee:46:db:0b:42:ae:
                    9b:87:b4:39:b9:35:89:1b:68:0a:d3:aa:ac:f3:e9:
                    63:b7:74:d6:d3:8d:c2:9e:91:72:24:82:27:38:91:
                    f6:dc:3a:2b:64:da:fa:62:d0:3b:40:5d:32:76:72:
                    35:3a:05:01:43:67:47:66:be:4a:75:52:a3:2e:44:
                    cc:66:cc:f2:10:42:29:d4:48:d5:d9:3c:ee:d3:ae:
                    9b:95:36:b5:e2:ea:86:71:7c:05:2f:5f:2e:c0:04:
                    d7:b5:11:17:e4:6e:85:32:2c:25:b2:e5:6d:ba:c2:
                    1f:cf:f8:ac:c2:fa:b3:3f:1e:25:f4:c3:e2:44:ec:
                    ed:7a:32:5c:7f:04:4a:a2:f5:4c:61:e5:2c:f2:f9:
                    bc:6b:11:96:97:4e:03:6f:99:4a:e2:70:ed:58:33:
                    d9:05:ff:f0:75:b0:d5:53:42:4c:2e:47:b4:46:57:
                    3a:78:ac:29:3d:ed:99:9f:b2:83:bc:fd:92:10:0d:
                    1b:f6:d5:3d:71:6f:9d:77:b0:7e:9a:16:9b:7a:6b:
                    76:12:71:00:39:eb:ab:e2:b6:81:11:7d:38:24:4d:
                    a3:6b:d5:e8:f9:4d:bd:5f:1b:88:b1:09:a0:21:ef:
                    cc:8d
                Exponent: 65537 (0x10001)
        X509v3 extensions:
            Netscape Cert Type: 
                SSL Server
            X509v3 Subject Key Identifier: 
                76:80:E7:1B:A5:7B:A1:6E:74:25:CE:2C:D9:77:D3:4C:CB:E0:9A:08
            X509v3 Authority Key Identifier: 
                keyid:BD:BB:95:76:5C:F9:2D:21:29:42:22:FD:91:AF:B8:39:24:AA:7E:37
                DirName:/CN=KOCHICA_CA/C=IN/O=CITRIX/OU=ANG/ST=KA/emailAddress=KOCHICA_CA@KOCHICA_mail.com
                serial:E1:10:ED:B2:3C:3D:E3:71

            Authority Information Access: 
                OCSP - URI:http://172.22.10.1/responderpath

    Signature Algorithm: sha256WithRSAEncryption
         01:be:b0:d6:b0:40:7a:ab:d1:cc:39:c7:39:22:3d:1f:14:d6:
         37:12:e6:e5:a7:cb:aa:99:54:dd:d0:50:36:9c:c8:af:e1:b7:
         e8:bb:9d:95:c2:3c:b9:3f:9f:6d:9a:5d:7a:8c:45:a2:33:da:
         f2:6d:18:d0:89:54:76:eb:04:a4:b0:fc:f0:cd:31:f1:10:2a:
         1f:32:8c:f1:b6:26:37:4b:7e:8d:2a:32:ef:40:69:23:f3:ec:
         d2:7a:97:f3:10:f0:88:fc:2c:74:05:01:ee:ac:6d:61:60:df:
         aa:b4:67:30:ee:b1:03:20:9f:5b:c0:76:1d:ad:7c:46:df:32:
         69:3c:48:40:3d:38:9a:aa:c1:a6:d2:09:ab:db:a2:3a:e0:b3:
         4d:ad:c2:25:da:38:f2:75:38:6f:99:1d:4e:5e:78:0c:b5:38:
         dc:ab:f3:d3:74:dd:7e:6d:3b:ac:ab:aa:c9:60:68:12:93:73:
         71:96:34:7b:ae:76:89:b2:0c:9b:17:41:be:90:31:0e:7b:c9:
         44:47:15:88:ad:06:8d:2d:9e:25:68:7a:7d:50:85:db:10:5f:
         c7:c3:3d:88:b9:d5:3f:07:ee:fd:f7:48:a2:9b:a5:0b:69:df:
         c9:9b:a2:cd:22:be:67:f3:6a:11:90:c1:3b:44:38:b5:a4:bb:
         39:2f:94:d1
-----BEGIN CERTIFICATE-----
MIIEjzCCA3egAwIBAgIGCgsMDQ4pMA0GCSqGSIb3DQEBCwUAMHoxEzARBgNVBAMU
CktPQ0hJQ0FfQ0ExCzAJBgNVBAYTAklOMQ8wDQYDVQQKEwZDSVRSSVgxDDAKBgNV
BAsTA0FORzELMAkGA1UECBMCS0ExKjAoBgkqhkiG9w0BCQEWG0tPQ0hJQ0FfQ0FA
S09DSElDQV9tYWlsLmNvbTAeFw0xNjA3MDgwNDM1MjRaFw0yNjA3MDYwNDM1MjRa
MHAxCzAJBgNVBAgTAktBMQswCQYDVQQGEwJJTjEbMBkGA1UEAxQSMTI3X0tPQ0hJ
Q0Ffc2VydmVyMSYwJAYJKoZIhvcNAQkBFhcxMjdfS09DSElDQUB0ZXN0X2NhLmNv
bTEPMA0GA1UEChMGQ0lUUklYMIIBIjANBgkqhkiG9w0BAQEFAAOCAQ8AMIIBCgKC
AQEAucObhPbVd2bF7iQ2MNmyzxn8sIaZ3azuRtsLQq6bh7Q5uTWJG2gK06qs8+lj
t3TW043CnpFyJIInOJH23DorZNr6YtA7QF0ydnI1OgUBQ2dHZr5KdVKjLkTMZszy
EEIp1EjV2Tzu066blTa14uqGcXwFL18uwATXtREX5G6FMiwlsuVtusIfz/iswvqz
Px4l9MPiROztejJcfwRKovVMYeUs8vm8axGWl04Db5lK4nDtWDPZBf/wdbDVU0JM
Lke0Rlc6eKwpPe2Zn7KDvP2SEA0b9tU9cW+dd7B+mhabemt2EnEAOeur4raBEX04
JE2ja9Xo+U29XxuIsQmgIe/MjQIDAQABo4IBIzCCAR8wEQYJYIZIAYb4QgEBBAQD
AgZAMB0GA1UdDgQWBBR2gOcbpXuhbnQlzizZd9NMy+CaCDCBrAYDVR0jBIGkMIGh
gBS9u5V2XPktISlCIv2Rr7g5JKp+N6F+pHwwejETMBEGA1UEAxQKS09DSElDQV9D
QTELMAkGA1UEBhMCSU4xDzANBgNVBAoTBkNJVFJJWDEMMAoGA1UECxMDQU5HMQsw
CQYDVQQIEwJLQTEqMCgGCSqGSIb3DQEJARYbS09DSElDQV9DQUBLT0NISUNBX21h
aWwuY29tggkA4RDtsjw943EwPAYIKwYBBQUHAQEEMDAuMCwGCCsGAQUFBzABhiBo
dHRwOi8vMTcyLjIyLjEwLjEvcmVzcG9uZGVycGF0aDANBgkqhkiG9w0BAQsFAAOC
AQEAAb6w1rBAeqvRzDnHOSI9HxTWNxLm5afLqplU3dBQNpzIr+G36LudlcI8uT+f
bZpdeoxFojPa8m0Y0IlUdusEpLD88M0x8RAqHzKM8bYmN0t+jSoy70BpI/Ps0nqX
8xDwiPwsdAUB7qxtYWDfqrRnMO6xAyCfW8B2Ha18Rt8yaTxIQD04mqrBptIJq9ui
OuCzTa3CJdo48nU4b5kdTl54DLU43Kvz03Tdfm07rKuqyWBoEpNzcZY0e652ibIM
mxdBvpAxDnvJREcViK0GjS2eJWh6fVCF2xBfx8M9iLnVPwfu/fdIopulC2nfyZui
zSK+Z/NqEZDBO0Q4taS7OS+U0Q==
-----END CERTIFICATE-----
