Certificate:
    Data:
        Version: 3 (0x2)
        Serial Number: 11042563100203 (0xa0b0c0d0e2b)
    Signature Algorithm: sha256WithRSAEncryption
        Issuer: CN=KOCHICA_CA, C=IN, O=CITRIX, OU=ANG, ST=KA/emailAddress=KOCHICA_CA@KOCHICA_mail.com
        Validity
            Not Before: Jul  8 04:35:24 2016 GMT
            Not After : Jul  6 04:35:24 2026 GMT
        Subject: ST=KA, C=IN, CN=129_KOCHICA_server/emailAddress=129_KOCHICA@test_ca.com, O=CITRIX
        Subject Public Key Info:
            Public Key Algorithm: rsaEncryption
                Public-Key: (2048 bit)
                Modulus:
                    00:bb:6c:c1:0d:8d:2d:80:74:1f:82:57:fa:30:d6:
                    ef:e8:eb:0b:9f:a9:82:9e:2e:ea:b8:e7:f7:cd:13:
                    52:8e:3a:12:53:d7:18:c3:6d:f6:ab:dc:f1:44:8e:
                    64:49:8b:d8:b7:fd:35:04:7b:f9:61:7c:be:5d:21:
                    54:72:9a:02:4a:e8:85:c3:79:6c:fa:b9:5b:3c:c1:
                    e7:31:0a:8d:40:7e:ea:4e:1c:53:ea:2a:bb:4e:f6:
                    8a:aa:04:2c:d5:37:45:f6:aa:4d:f1:64:28:71:ca:
                    17:dd:89:7f:5f:07:45:89:2e:a3:9b:54:bd:aa:ff:
                    7c:f8:e1:e6:65:43:b5:20:9c:95:17:8a:0d:75:be:
                    5a:3f:15:6f:d4:59:ca:2f:ec:a7:86:85:1b:69:f4:
                    f0:ed:a0:48:d8:61:8a:d0:74:1c:f8:12:3c:79:89:
                    30:66:4e:74:62:5c:18:2a:a7:d1:bc:bc:cb:e7:32:
                    0e:d7:9d:55:1a:a2:f8:d0:e9:58:6a:08:b8:b6:b5:
                    11:82:62:48:1c:8c:25:c2:5a:85:83:f4:3f:66:bd:
                    9a:4e:dd:ce:e6:5a:dc:2b:a8:fd:19:81:e6:16:32:
                    2c:9f:f8:b7:dc:17:79:80:46:e8:55:3e:97:8b:7e:
                    b1:66:86:77:d4:8d:74:ac:94:1d:ac:31:c1:11:d7:
                    ad:3b
                Exponent: 65537 (0x10001)
        X509v3 extensions:
            Netscape Cert Type: 
                SSL Server
            X509v3 Subject Key Identifier: 
                0F:50:14:A4:94:2D:7D:51:C8:73:0F:8F:69:75:7C:88:59:6B:19:63
            X509v3 Authority Key Identifier: 
                keyid:BD:BB:95:76:5C:F9:2D:21:29:42:22:FD:91:AF:B8:39:24:AA:7E:37
                DirName:/CN=KOCHICA_CA/C=IN/O=CITRIX/OU=ANG/ST=KA/emailAddress=KOCHICA_CA@KOCHICA_mail.com
                serial:E1:10:ED:B2:3C:3D:E3:71

            Authority Information Access: 
                OCSP - URI:http://172.22.10.1/responderpath

    Signature Algorithm: sha256WithRSAEncryption
         0e:aa:22:8e:77:c3:d3:28:bf:c5:58:57:77:f2:e5:10:34:86:
         ae:c2:21:af:d4:07:00:29:e7:03:17:ae:52:cc:1a:54:e6:42:
         17:3d:1f:22:96:5a:77:6f:28:ce:fe:52:fe:a3:1c:bd:b9:9f:
         a9:07:78:be:98:a1:7f:ce:da:85:59:a4:73:07:dd:62:8a:a4:
         38:6c:e8:a2:a1:5d:02:74:64:c6:4b:58:48:3c:6a:ce:85:57:
         99:6f:e0:a0:99:34:21:ba:98:c8:d9:8f:18:e4:52:00:2f:34:
         b1:fb:43:88:be:7e:f1:c4:ad:3d:82:00:da:7b:26:25:a8:4e:
         b4:a7:91:59:39:1b:22:19:f0:14:6b:34:9f:e4:1f:63:ca:8a:
         22:ed:92:1d:68:8d:de:b3:84:29:8b:46:8d:d0:23:91:c7:0f:
         38:e7:46:67:0f:45:7e:ac:f8:7a:b8:e6:ba:35:0b:59:12:64:
         5d:68:74:df:60:6b:d7:2b:05:35:b1:18:ee:0c:9d:54:8d:6d:
         e5:7e:3c:6c:eb:c5:7d:65:4d:fe:c0:7a:cc:01:47:5a:9f:df:
         bf:ce:b2:37:17:29:c1:1a:73:e0:0a:d6:a4:7c:22:5e:ae:7e:
         78:90:0e:42:06:5c:0c:05:61:53:7d:5a:10:1c:81:18:ec:41:
         48:ff:77:bb
-----BEGIN CERTIFICATE-----
MIIEjzCCA3egAwIBAgIGCgsMDQ4rMA0GCSqGSIb3DQEBCwUAMHoxEzARBgNVBAMU
CktPQ0hJQ0FfQ0ExCzAJBgNVBAYTAklOMQ8wDQYDVQQKEwZDSVRSSVgxDDAKBgNV
BAsTA0FORzELMAkGA1UECBMCS0ExKjAoBgkqhkiG9w0BCQEWG0tPQ0hJQ0FfQ0FA
S09DSElDQV9tYWlsLmNvbTAeFw0xNjA3MDgwNDM1MjRaFw0yNjA3MDYwNDM1MjRa
MHAxCzAJBgNVBAgTAktBMQswCQYDVQQGEwJJTjEbMBkGA1UEAxQSMTI5X0tPQ0hJ
Q0Ffc2VydmVyMSYwJAYJKoZIhvcNAQkBFhcxMjlfS09DSElDQUB0ZXN0X2NhLmNv
bTEPMA0GA1UEChMGQ0lUUklYMIIBIjANBgkqhkiG9w0BAQEFAAOCAQ8AMIIBCgKC
AQEAu2zBDY0tgHQfglf6MNbv6OsLn6mCni7quOf3zRNSjjoSU9cYw232q9zxRI5k
SYvYt/01BHv5YXy+XSFUcpoCSuiFw3ls+rlbPMHnMQqNQH7qThxT6iq7TvaKqgQs
1TdF9qpN8WQoccoX3Yl/XwdFiS6jm1S9qv98+OHmZUO1IJyVF4oNdb5aPxVv1FnK
L+ynhoUbafTw7aBI2GGK0HQc+BI8eYkwZk50YlwYKqfRvLzL5zIO151VGqL40OlY
agi4trURgmJIHIwlwlqFg/Q/Zr2aTt3O5lrcK6j9GYHmFjIsn/i33Bd5gEboVT6X
i36xZoZ31I10rJQdrDHBEdetOwIDAQABo4IBIzCCAR8wEQYJYIZIAYb4QgEBBAQD
AgZAMB0GA1UdDgQWBBQPUBSklC19UchzD49pdXyIWWsZYzCBrAYDVR0jBIGkMIGh
gBS9u5V2XPktISlCIv2Rr7g5JKp+N6F+pHwwejETMBEGA1UEAxQKS09DSElDQV9D
QTELMAkGA1UEBhMCSU4xDzANBgNVBAoTBkNJVFJJWDEMMAoGA1UECxMDQU5HMQsw
CQYDVQQIEwJLQTEqMCgGCSqGSIb3DQEJARYbS09DSElDQV9DQUBLT0NISUNBX21h
aWwuY29tggkA4RDtsjw943EwPAYIKwYBBQUHAQEEMDAuMCwGCCsGAQUFBzABhiBo
dHRwOi8vMTcyLjIyLjEwLjEvcmVzcG9uZGVycGF0aDANBgkqhkiG9w0BAQsFAAOC
AQEADqoijnfD0yi/xVhXd/LlEDSGrsIhr9QHACnnAxeuUswaVOZCFz0fIpZad28o
zv5S/qMcvbmfqQd4vpihf87ahVmkcwfdYoqkOGzooqFdAnRkxktYSDxqzoVXmW/g
oJk0IbqYyNmPGORSAC80sftDiL5+8cStPYIA2nsmJahOtKeRWTkbIhnwFGs0n+Qf
Y8qKIu2SHWiN3rOEKYtGjdAjkccPOOdGZw9Ffqz4erjmujULWRJkXWh032Br1ysF
NbEY7gydVI1t5X48bOvFfWVN/sB6zAFHWp/fv86yNxcpwRpz4ArWpHwiXq5+eJAO
QgZcDAVhU31aEByBGOxBSP93uw==
-----END CERTIFICATE-----
