Certificate:
    Data:
        Version: 3 (0x2)
        Serial Number: 11042563100204 (0xa0b0c0d0e2c)
    Signature Algorithm: sha256WithRSAEncryption
        Issuer: CN=KOCHICA_CA, C=IN, O=CITRIX, OU=ANG, ST=KA/emailAddress=KOCHICA_CA@KOCHICA_mail.com
        Validity
            Not Before: Jul  8 04:35:25 2016 GMT
            Not After : Jul  6 04:35:25 2026 GMT
        Subject: ST=KA, C=IN, CN=130_KOCHICA_server/emailAddress=130_KOCHICA@test_ca.com, O=CITRIX
        Subject Public Key Info:
            Public Key Algorithm: rsaEncryption
                Public-Key: (2048 bit)
                Modulus:
                    00:a2:5a:b5:a5:93:a7:1c:61:d5:c5:24:7f:c9:b0:
                    59:e9:23:95:5e:1b:af:d4:ed:ca:04:24:2b:dd:de:
                    88:42:59:7f:ef:9b:60:d5:34:86:d5:c3:fe:2b:fb:
                    3d:d4:b5:31:c0:31:4f:a8:cf:5a:26:d4:f2:d8:73:
                    f2:44:04:01:a2:39:ba:97:2c:2c:a2:e4:11:73:72:
                    79:62:7e:67:d6:1a:97:46:9c:a9:1b:0f:ed:61:36:
                    1d:23:fe:4f:44:00:3e:37:a2:55:80:13:38:64:8b:
                    7b:68:83:62:37:87:4d:61:4e:72:1e:c1:e3:43:e1:
                    94:24:44:2b:7b:7e:53:ef:96:27:f5:47:2d:bb:ab:
                    80:97:57:2b:aa:e4:0a:08:df:fe:4a:91:59:d6:db:
                    e5:84:9a:ed:55:52:b9:14:25:d2:e2:2b:f5:b7:a5:
                    37:58:0d:79:65:b2:ff:65:af:05:aa:a6:76:d4:f0:
                    ec:0e:7d:cb:80:8b:e6:89:57:46:ae:ff:01:32:91:
                    78:68:28:a4:ab:77:17:24:fe:c3:d9:97:2c:86:03:
                    6a:5e:03:79:ae:85:eb:cb:2b:30:9d:4a:e7:0b:db:
                    a0:ee:6e:33:be:e7:fb:17:56:2a:87:02:65:10:8b:
                    49:06:bf:dc:cc:59:3f:03:aa:f2:10:64:34:1a:0a:
                    16:51
                Exponent: 65537 (0x10001)
        X509v3 extensions:
            Netscape Cert Type: 
                SSL Server
            X509v3 Subject Key Identifier: 
                83:ED:E7:BC:96:BA:A0:39:41:6D:98:F5:C7:DF:B5:92:C4:F3:AC:D4
            X509v3 Authority Key Identifier: 
                keyid:BD:BB:95:76:5C:F9:2D:21:29:42:22:FD:91:AF:B8:39:24:AA:7E:37
                DirName:/CN=KOCHICA_CA/C=IN/O=CITRIX/OU=ANG/ST=KA/emailAddress=KOCHICA_CA@KOCHICA_mail.com
                serial:E1:10:ED:B2:3C:3D:E3:71

            Authority Information Access: 
                OCSP - URI:http://172.22.10.1/responderpath

    Signature Algorithm: sha256WithRSAEncryption
         09:da:5b:e5:57:10:a5:a8:35:0d:a0:2e:2f:09:75:86:16:89:
         09:57:af:0b:3d:fe:86:8b:4b:a9:1f:a6:d0:62:04:32:02:5f:
         42:d2:95:0d:87:b8:8e:94:5f:48:2f:85:84:c3:aa:2f:f7:34:
         f2:1c:22:01:ef:91:70:b9:11:11:69:dd:2c:3a:8f:19:46:4d:
         4e:0f:e1:4e:b8:09:a4:f8:dd:f6:7a:30:9e:3f:2f:0b:da:73:
         6a:c1:1b:86:ff:d6:f3:05:b5:c5:57:8c:c8:02:df:8d:af:59:
         06:79:02:3d:01:56:0c:e1:c9:16:3f:29:45:b7:9c:08:50:08:
         aa:12:ca:2f:c6:8f:73:09:19:7a:9c:50:a3:e0:a2:48:87:84:
         f8:8a:54:81:a8:d0:aa:c4:8a:17:63:d0:4b:af:c5:18:aa:5d:
         54:ad:11:70:d6:be:18:5b:5e:05:a0:26:85:35:d7:ea:70:65:
         72:73:c7:44:53:57:d6:c9:db:4a:14:4a:fe:11:5f:ab:81:1f:
         e7:d2:e1:82:76:d9:90:82:ae:e7:03:a7:64:9e:2c:5b:35:a8:
         0f:67:61:d9:50:99:c6:31:88:82:ac:6b:de:00:03:15:0c:21:
         12:29:93:2d:b7:78:7a:8d:75:34:d4:16:46:1f:93:88:dd:69:
         28:06:8e:7b
-----BEGIN CERTIFICATE-----
MIIEjzCCA3egAwIBAgIGCgsMDQ4sMA0GCSqGSIb3DQEBCwUAMHoxEzARBgNVBAMU
CktPQ0hJQ0FfQ0ExCzAJBgNVBAYTAklOMQ8wDQYDVQQKEwZDSVRSSVgxDDAKBgNV
BAsTA0FORzELMAkGA1UECBMCS0ExKjAoBgkqhkiG9w0BCQEWG0tPQ0hJQ0FfQ0FA
S09DSElDQV9tYWlsLmNvbTAeFw0xNjA3MDgwNDM1MjVaFw0yNjA3MDYwNDM1MjVa
MHAxCzAJBgNVBAgTAktBMQswCQYDVQQGEwJJTjEbMBkGA1UEAxQSMTMwX0tPQ0hJ
Q0Ffc2VydmVyMSYwJAYJKoZIhvcNAQkBFhcxMzBfS09DSElDQUB0ZXN0X2NhLmNv
bTEPMA0GA1UEChMGQ0lUUklYMIIBIjANBgkqhkiG9w0BAQEFAAOCAQ8AMIIBCgKC
AQEAolq1pZOnHGHVxSR/ybBZ6SOVXhuv1O3KBCQr3d6IQll/75tg1TSG1cP+K/s9
1LUxwDFPqM9aJtTy2HPyRAQBojm6lywsouQRc3J5Yn5n1hqXRpypGw/tYTYdI/5P
RAA+N6JVgBM4ZIt7aINiN4dNYU5yHsHjQ+GUJEQre35T75Yn9Uctu6uAl1crquQK
CN/+SpFZ1tvlhJrtVVK5FCXS4iv1t6U3WA15ZbL/Za8FqqZ21PDsDn3LgIvmiVdG
rv8BMpF4aCikq3cXJP7D2ZcshgNqXgN5roXryyswnUrnC9ug7m4zvuf7F1YqhwJl
EItJBr/czFk/A6ryEGQ0GgoWUQIDAQABo4IBIzCCAR8wEQYJYIZIAYb4QgEBBAQD
AgZAMB0GA1UdDgQWBBSD7ee8lrqgOUFtmPXH37WSxPOs1DCBrAYDVR0jBIGkMIGh
gBS9u5V2XPktISlCIv2Rr7g5JKp+N6F+pHwwejETMBEGA1UEAxQKS09DSElDQV9D
QTELMAkGA1UEBhMCSU4xDzANBgNVBAoTBkNJVFJJWDEMMAoGA1UECxMDQU5HMQsw
CQYDVQQIEwJLQTEqMCgGCSqGSIb3DQEJARYbS09DSElDQV9DQUBLT0NISUNBX21h
aWwuY29tggkA4RDtsjw943EwPAYIKwYBBQUHAQEEMDAuMCwGCCsGAQUFBzABhiBo
dHRwOi8vMTcyLjIyLjEwLjEvcmVzcG9uZGVycGF0aDANBgkqhkiG9w0BAQsFAAOC
AQEACdpb5VcQpag1DaAuLwl1hhaJCVevCz3+hotLqR+m0GIEMgJfQtKVDYe4jpRf
SC+FhMOqL/c08hwiAe+RcLkREWndLDqPGUZNTg/hTrgJpPjd9nownj8vC9pzasEb
hv/W8wW1xVeMyALfja9ZBnkCPQFWDOHJFj8pRbecCFAIqhLKL8aPcwkZepxQo+Ci
SIeE+IpUgajQqsSKF2PQS6/FGKpdVK0RcNa+GFteBaAmhTXX6nBlcnPHRFNX1snb
ShRK/hFfq4Ef59LhgnbZkIKu5wOnZJ4sWzWoD2dh2VCZxjGIgqxr3gADFQwhEimT
Lbd4eo11NNQWRh+TiN1pKAaOew==
-----END CERTIFICATE-----
