Certificate:
    Data:
        Version: 3 (0x2)
        Serial Number: 11042563100207 (0xa0b0c0d0e2f)
    Signature Algorithm: sha256WithRSAEncryption
        Issuer: CN=KOCHICA_CA, C=IN, O=CITRIX, OU=ANG, ST=KA/emailAddress=KOCHICA_CA@KOCHICA_mail.com
        Validity
            Not Before: Jul  8 04:35:26 2016 GMT
            Not After : Jul  6 04:35:26 2026 GMT
        Subject: ST=KA, C=IN, CN=133_KOCHICA_server/emailAddress=133_KOCHICA@test_ca.com, O=CITRIX
        Subject Public Key Info:
            Public Key Algorithm: rsaEncryption
                Public-Key: (2048 bit)
                Modulus:
                    00:e2:e6:64:e2:19:f9:ce:0c:bb:ae:aa:29:e5:78:
                    51:86:40:ce:d3:f1:23:a8:f7:d4:29:1d:26:41:48:
                    fa:6f:a7:b8:5b:f6:aa:43:07:e9:7e:43:53:00:95:
                    38:0e:93:ad:40:45:1b:fa:49:6e:c6:8d:d3:5f:c7:
                    2b:76:8e:6c:e1:71:26:c7:fd:25:75:cb:42:ec:85:
                    f5:a5:e7:b7:1d:c3:a5:97:96:83:2e:a5:a2:da:2a:
                    aa:87:35:58:b3:41:1e:df:e8:4d:53:97:8a:ec:1a:
                    a8:25:f1:24:08:f9:f1:d8:5d:b4:e5:6d:72:5d:1a:
                    5b:f2:ae:aa:34:52:f5:41:98:fc:bd:87:5c:d1:86:
                    9d:b1:ce:54:36:71:ba:ee:6a:2a:c0:ea:f8:7f:25:
                    9d:a6:e6:a9:18:48:94:59:49:e0:bb:dd:ef:12:7e:
                    06:32:e1:45:a6:d4:6e:aa:8b:c4:9a:94:78:b5:4c:
                    f0:d2:70:f8:ee:3e:f7:17:39:8c:6a:a4:8d:31:69:
                    ae:ab:83:2e:06:1d:73:7d:e7:e5:6e:ec:a1:a0:04:
                    89:b0:fe:99:56:98:8b:0d:4d:65:3d:dc:9e:ec:c6:
                    d1:be:f8:8f:f9:09:61:58:e9:64:7d:6e:06:36:4f:
                    d9:b0:e5:bb:2f:71:27:75:1f:75:1c:7b:6d:4f:16:
                    c8:5b
                Exponent: 65537 (0x10001)
        X509v3 extensions:
            Netscape Cert Type: 
                SSL Server
            X509v3 Subject Key Identifier: 
                10:E6:41:DA:A5:B1:45:21:23:37:70:E1:2A:2D:C7:92:80:F8:25:0F
            X509v3 Authority Key Identifier: 
                keyid:BD:BB:95:76:5C:F9:2D:21:29:42:22:FD:91:AF:B8:39:24:AA:7E:37
                DirName:/CN=KOCHICA_CA/C=IN/O=CITRIX/OU=ANG/ST=KA/emailAddress=KOCHICA_CA@KOCHICA_mail.com
                serial:E1:10:ED:B2:3C:3D:E3:71

            Authority Information Access: 
                OCSP - URI:http://172.22.20.1/responderpath

    Signature Algorithm: sha256WithRSAEncryption
         4f:01:a0:5f:d8:06:df:0f:0b:72:71:8b:5f:ed:9c:83:3b:51:
         0f:80:4b:38:09:66:89:63:3d:fc:76:0a:c5:e3:f9:b9:55:b9:
         d0:85:e6:7e:e7:5e:f4:ee:05:6d:3e:ff:e9:02:35:00:85:64:
         bd:3e:12:39:98:23:e5:be:18:47:83:b6:f3:8c:92:ff:90:25:
         d0:8c:d7:d5:ae:46:06:04:99:26:d3:96:6a:8c:bb:8a:7c:ea:
         12:44:67:17:a2:fe:8a:ea:10:a0:1b:a7:ec:93:49:d8:27:8b:
         4b:38:bb:b1:b7:0f:47:3a:31:6b:78:e4:da:5b:24:3f:20:61:
         55:31:21:3f:fa:f8:12:45:63:f1:b3:50:02:51:05:00:a0:31:
         f2:9a:0c:53:a1:51:ee:33:26:dc:82:44:9c:05:2a:1e:8e:68:
         96:dd:b5:77:9a:7a:56:45:40:54:fb:0a:6d:5c:4b:0b:b2:d2:
         a4:c1:a3:68:06:56:4a:7c:8b:e5:66:13:f0:0c:14:0c:6a:ec:
         ec:cd:1c:92:08:6f:ba:8d:2a:57:29:02:b9:89:43:20:46:6b:
         28:92:05:b9:4f:dd:b3:f4:08:3e:41:88:0d:ff:85:d2:57:e0:
         bb:43:42:00:76:49:30:f8:60:9d:ad:e9:0a:a5:d8:76:aa:9f:
         f1:be:c2:29
-----BEGIN CERTIFICATE-----
MIIEjzCCA3egAwIBAgIGCgsMDQ4vMA0GCSqGSIb3DQEBCwUAMHoxEzARBgNVBAMU
CktPQ0hJQ0FfQ0ExCzAJBgNVBAYTAklOMQ8wDQYDVQQKEwZDSVRSSVgxDDAKBgNV
BAsTA0FORzELMAkGA1UECBMCS0ExKjAoBgkqhkiG9w0BCQEWG0tPQ0hJQ0FfQ0FA
S09DSElDQV9tYWlsLmNvbTAeFw0xNjA3MDgwNDM1MjZaFw0yNjA3MDYwNDM1MjZa
MHAxCzAJBgNVBAgTAktBMQswCQYDVQQGEwJJTjEbMBkGA1UEAxQSMTMzX0tPQ0hJ
Q0Ffc2VydmVyMSYwJAYJKoZIhvcNAQkBFhcxMzNfS09DSElDQUB0ZXN0X2NhLmNv
bTEPMA0GA1UEChMGQ0lUUklYMIIBIjANBgkqhkiG9w0BAQEFAAOCAQ8AMIIBCgKC
AQEA4uZk4hn5zgy7rqop5XhRhkDO0/EjqPfUKR0mQUj6b6e4W/aqQwfpfkNTAJU4
DpOtQEUb+kluxo3TX8crdo5s4XEmx/0ldctC7IX1pee3HcOll5aDLqWi2iqqhzVY
s0Ee3+hNU5eK7BqoJfEkCPnx2F205W1yXRpb8q6qNFL1QZj8vYdc0Yadsc5UNnG6
7moqwOr4fyWdpuapGEiUWUngu93vEn4GMuFFptRuqovEmpR4tUzw0nD47j73FzmM
aqSNMWmuq4MuBh1zfeflbuyhoASJsP6ZVpiLDU1lPdye7MbRvviP+QlhWOlkfW4G
Nk/ZsOW7L3EndR91HHttTxbIWwIDAQABo4IBIzCCAR8wEQYJYIZIAYb4QgEBBAQD
AgZAMB0GA1UdDgQWBBQQ5kHapbFFISM3cOEqLceSgPglDzCBrAYDVR0jBIGkMIGh
gBS9u5V2XPktISlCIv2Rr7g5JKp+N6F+pHwwejETMBEGA1UEAxQKS09DSElDQV9D
QTELMAkGA1UEBhMCSU4xDzANBgNVBAoTBkNJVFJJWDEMMAoGA1UECxMDQU5HMQsw
CQYDVQQIEwJLQTEqMCgGCSqGSIb3DQEJARYbS09DSElDQV9DQUBLT0NISUNBX21h
aWwuY29tggkA4RDtsjw943EwPAYIKwYBBQUHAQEEMDAuMCwGCCsGAQUFBzABhiBo
dHRwOi8vMTcyLjIyLjIwLjEvcmVzcG9uZGVycGF0aDANBgkqhkiG9w0BAQsFAAOC
AQEATwGgX9gG3w8LcnGLX+2cgztRD4BLOAlmiWM9/HYKxeP5uVW50IXmfude9O4F
bT7/6QI1AIVkvT4SOZgj5b4YR4O284yS/5Al0IzX1a5GBgSZJtOWaoy7inzqEkRn
F6L+iuoQoBun7JNJ2CeLSzi7sbcPRzoxa3jk2lskPyBhVTEhP/r4EkVj8bNQAlEF
AKAx8poMU6FR7jMm3IJEnAUqHo5olt21d5p6VkVAVPsKbVxLC7LSpMGjaAZWSnyL
5WYT8AwUDGrs7M0ckghvuo0qVykCuYlDIEZrKJIFuU/ds/QIPkGIDf+F0lfgu0NC
AHZJMPhgna3pCqXYdqqf8b7CKQ==
-----END CERTIFICATE-----
