Certificate:
    Data:
        Version: 3 (0x2)
        Serial Number: 11042563100208 (0xa0b0c0d0e30)
    Signature Algorithm: sha256WithRSAEncryption
        Issuer: CN=KOCHICA_CA, C=IN, O=CITRIX, OU=ANG, ST=KA/emailAddress=KOCHICA_CA@KOCHICA_mail.com
        Validity
            Not Before: Jul  8 04:35:26 2016 GMT
            Not After : Jul  6 04:35:26 2026 GMT
        Subject: ST=KA, C=IN, CN=134_KOCHICA_server/emailAddress=134_KOCHICA@test_ca.com, O=CITRIX
        Subject Public Key Info:
            Public Key Algorithm: rsaEncryption
                Public-Key: (2048 bit)
                Modulus:
                    00:be:ed:56:94:5c:24:9f:e0:a7:54:4d:a1:e7:a1:
                    73:c9:b8:1d:6b:96:28:38:e7:40:6a:ea:6c:76:a1:
                    b3:fe:a7:f2:49:ef:6d:21:43:85:50:e6:93:4a:b2:
                    30:6f:1e:19:53:44:75:18:c7:90:0f:ea:61:09:30:
                    7b:f3:0d:c6:0e:29:68:ed:50:66:ef:a8:ae:c4:f7:
                    1d:23:c3:cb:3c:d3:2d:c0:8b:69:44:81:49:66:81:
                    01:ff:86:57:01:fc:fc:62:e1:d6:ab:e7:1f:49:72:
                    64:2e:06:14:93:84:2b:1d:4e:fd:96:f4:0f:9d:4d:
                    67:66:6d:ef:85:37:2c:b7:86:22:ea:a2:47:38:6c:
                    c6:2a:8a:64:ae:e9:ce:76:c1:bc:ae:7f:47:54:db:
                    67:6a:72:47:da:4f:f0:2c:81:87:7a:46:64:11:ec:
                    3c:5b:d7:7b:17:47:78:db:e7:ab:96:58:22:ce:4c:
                    53:40:33:df:9e:2f:ac:ab:77:59:33:d6:42:b2:77:
                    d7:bf:a4:b3:ce:7f:06:64:ab:28:e5:6b:03:b8:9b:
                    a1:7b:82:a7:ee:94:e6:ba:03:5a:c5:9d:fd:03:23:
                    e9:25:d1:a7:ca:83:2c:f3:a9:b3:ab:a0:8c:c8:4e:
                    db:44:80:42:ff:52:2e:d6:bf:1d:bd:49:ca:b6:fd:
                    ec:d7
                Exponent: 65537 (0x10001)
        X509v3 extensions:
            Netscape Cert Type: 
                SSL Server
            X509v3 Subject Key Identifier: 
                6A:1A:57:4C:CA:8E:84:4C:7B:40:D3:87:E8:8F:25:0F:1E:E7:6B:62
            X509v3 Authority Key Identifier: 
                keyid:BD:BB:95:76:5C:F9:2D:21:29:42:22:FD:91:AF:B8:39:24:AA:7E:37
                DirName:/CN=KOCHICA_CA/C=IN/O=CITRIX/OU=ANG/ST=KA/emailAddress=KOCHICA_CA@KOCHICA_mail.com
                serial:E1:10:ED:B2:3C:3D:E3:71

            Authority Information Access: 
                OCSP - URI:http://172.22.20.1/responderpath

    Signature Algorithm: sha256WithRSAEncryption
         53:91:44:77:6f:73:87:f0:16:0a:3e:52:a0:15:1c:68:4c:9d:
         3e:6f:e7:3a:c4:47:c2:65:3e:95:5e:53:9f:6c:15:45:37:8b:
         ec:0a:23:bc:c7:63:49:da:28:c9:fa:79:7a:98:c6:7c:f3:47:
         a8:df:5b:27:e6:30:38:81:06:a7:99:08:c7:34:85:e5:86:a8:
         e0:86:25:d8:fa:ed:4f:0a:af:53:c1:24:58:ea:d4:55:b5:34:
         40:23:c7:a5:56:26:e5:f1:69:1f:58:dd:ca:da:79:ef:57:c1:
         52:26:e4:db:03:17:3d:ef:6b:6e:53:23:f6:94:00:1f:0e:4b:
         f9:98:d5:d6:9e:2a:3e:d6:bc:e7:28:53:bf:6c:e6:99:20:7b:
         c1:a9:48:35:f0:54:ad:3a:2d:e8:b8:7e:3d:b6:c6:b6:82:fc:
         11:53:e4:ea:15:5c:9b:06:6c:60:84:d1:f1:d5:e1:43:16:59:
         b7:8b:b3:91:ee:07:96:98:9d:b4:82:0d:62:8b:59:29:ab:db:
         1e:12:19:6d:63:fc:0d:70:f4:7b:6f:05:b7:d3:50:1b:aa:3a:
         d0:7d:e2:77:d2:a1:ac:a9:8f:6a:89:08:6a:37:03:00:6d:1f:
         05:6c:16:c9:1d:cf:72:3c:a1:5c:45:8b:9f:09:6b:bb:0a:8d:
         ca:a0:91:61
-----BEGIN CERTIFICATE-----
MIIEjzCCA3egAwIBAgIGCgsMDQ4wMA0GCSqGSIb3DQEBCwUAMHoxEzARBgNVBAMU
CktPQ0hJQ0FfQ0ExCzAJBgNVBAYTAklOMQ8wDQYDVQQKEwZDSVRSSVgxDDAKBgNV
BAsTA0FORzELMAkGA1UECBMCS0ExKjAoBgkqhkiG9w0BCQEWG0tPQ0hJQ0FfQ0FA
S09DSElDQV9tYWlsLmNvbTAeFw0xNjA3MDgwNDM1MjZaFw0yNjA3MDYwNDM1MjZa
MHAxCzAJBgNVBAgTAktBMQswCQYDVQQGEwJJTjEbMBkGA1UEAxQSMTM0X0tPQ0hJ
Q0Ffc2VydmVyMSYwJAYJKoZIhvcNAQkBFhcxMzRfS09DSElDQUB0ZXN0X2NhLmNv
bTEPMA0GA1UEChMGQ0lUUklYMIIBIjANBgkqhkiG9w0BAQEFAAOCAQ8AMIIBCgKC
AQEAvu1WlFwkn+CnVE2h56Fzybgda5YoOOdAaupsdqGz/qfySe9tIUOFUOaTSrIw
bx4ZU0R1GMeQD+phCTB78w3GDilo7VBm76iuxPcdI8PLPNMtwItpRIFJZoEB/4ZX
Afz8YuHWq+cfSXJkLgYUk4QrHU79lvQPnU1nZm3vhTcst4Yi6qJHOGzGKopkrunO
dsG8rn9HVNtnanJH2k/wLIGHekZkEew8W9d7F0d42+erllgizkxTQDPfni+sq3dZ
M9ZCsnfXv6Szzn8GZKso5WsDuJuhe4Kn7pTmugNaxZ39AyPpJdGnyoMs86mzq6CM
yE7bRIBC/1Iu1r8dvUnKtv3s1wIDAQABo4IBIzCCAR8wEQYJYIZIAYb4QgEBBAQD
AgZAMB0GA1UdDgQWBBRqGldMyo6ETHtA04fojyUPHudrYjCBrAYDVR0jBIGkMIGh
gBS9u5V2XPktISlCIv2Rr7g5JKp+N6F+pHwwejETMBEGA1UEAxQKS09DSElDQV9D
QTELMAkGA1UEBhMCSU4xDzANBgNVBAoTBkNJVFJJWDEMMAoGA1UECxMDQU5HMQsw
CQYDVQQIEwJLQTEqMCgGCSqGSIb3DQEJARYbS09DSElDQV9DQUBLT0NISUNBX21h
aWwuY29tggkA4RDtsjw943EwPAYIKwYBBQUHAQEEMDAuMCwGCCsGAQUFBzABhiBo
dHRwOi8vMTcyLjIyLjIwLjEvcmVzcG9uZGVycGF0aDANBgkqhkiG9w0BAQsFAAOC
AQEAU5FEd29zh/AWCj5SoBUcaEydPm/nOsRHwmU+lV5Tn2wVRTeL7AojvMdjSdoo
yfp5epjGfPNHqN9bJ+YwOIEGp5kIxzSF5Yao4IYl2PrtTwqvU8EkWOrUVbU0QCPH
pVYm5fFpH1jdytp571fBUibk2wMXPe9rblMj9pQAHw5L+ZjV1p4qPta85yhTv2zm
mSB7walINfBUrTot6Lh+PbbGtoL8EVPk6hVcmwZsYITR8dXhQxZZt4uzke4Hlpid
tIINYotZKavbHhIZbWP8DXD0e28Ft9NQG6o60H3id9KhrKmPaokIajcDAG0fBWwW
yR3PcjyhXEWLnwlruwqNyqCRYQ==
-----END CERTIFICATE-----
