Certificate:
    Data:
        Version: 3 (0x2)
        Serial Number: 11042563100211 (0xa0b0c0d0e33)
    Signature Algorithm: sha256WithRSAEncryption
        Issuer: CN=KOCHICA_CA, C=IN, O=CITRIX, OU=ANG, ST=KA/emailAddress=KOCHICA_CA@KOCHICA_mail.com
        Validity
            Not Before: Jul  8 04:35:27 2016 GMT
            Not After : Jul  6 04:35:27 2026 GMT
        Subject: ST=KA, C=IN, CN=137_KOCHICA_server/emailAddress=137_KOCHICA@test_ca.com, O=CITRIX
        Subject Public Key Info:
            Public Key Algorithm: rsaEncryption
                Public-Key: (2048 bit)
                Modulus:
                    00:a6:59:40:c1:09:4f:0a:a0:6e:22:33:86:aa:f2:
                    a2:e5:22:ea:3f:b0:63:bf:e9:22:97:6b:ab:20:6f:
                    b5:b8:bf:76:b9:27:4a:10:28:c0:fb:5b:e0:12:74:
                    0b:87:fc:01:80:45:f9:27:b7:8f:44:41:14:56:0b:
                    81:75:92:af:b0:05:4d:85:54:1c:54:74:d9:df:1d:
                    eb:28:80:5f:e1:87:19:af:cc:e4:1f:38:8c:ba:dc:
                    68:b1:39:ed:1a:f3:7e:c6:50:65:5f:38:d0:63:83:
                    09:23:84:98:16:da:8f:66:14:74:91:ba:01:54:e3:
                    73:1f:66:e6:03:12:6c:8c:7e:41:c8:75:a3:74:79:
                    6f:66:5f:5a:6d:b3:3d:19:ac:b1:6e:08:ea:e1:da:
                    d8:e1:90:8e:06:8e:1c:e5:d4:b6:18:86:0c:a6:f9:
                    de:66:7d:e2:70:6f:8f:03:6d:05:b9:22:dd:1b:4e:
                    09:9f:72:af:fb:5c:39:0a:e3:ef:4c:8b:b9:6b:c8:
                    7b:c2:19:38:67:91:aa:54:35:9c:1c:97:9f:d2:e0:
                    5e:f4:39:58:9d:5e:00:39:da:6b:e9:ba:48:6e:37:
                    cb:e7:d0:33:53:df:49:c5:e0:0b:e0:4b:dc:97:d1:
                    2c:58:f7:f4:88:90:c2:af:56:c2:bb:4e:a2:29:f5:
                    d0:85
                Exponent: 65537 (0x10001)
        X509v3 extensions:
            Netscape Cert Type: 
                SSL Server
            X509v3 Subject Key Identifier: 
                B6:F5:AA:50:B4:E1:A6:05:08:90:64:77:73:0B:7C:F8:7E:0E:1A:E0
            X509v3 Authority Key Identifier: 
                keyid:BD:BB:95:76:5C:F9:2D:21:29:42:22:FD:91:AF:B8:39:24:AA:7E:37
                DirName:/CN=KOCHICA_CA/C=IN/O=CITRIX/OU=ANG/ST=KA/emailAddress=KOCHICA_CA@KOCHICA_mail.com
                serial:E1:10:ED:B2:3C:3D:E3:71

            Authority Information Access: 
                OCSP - URI:http://172.22.20.1/responderpath

    Signature Algorithm: sha256WithRSAEncryption
         4f:c0:0d:2d:cb:f0:bc:0a:9b:a8:8b:c0:a8:0b:f9:66:79:a2:
         59:12:ee:50:b1:d8:ee:59:12:93:8c:e9:da:52:5c:42:e8:d6:
         f8:5f:dc:d8:71:f0:5e:b0:cd:a6:46:6f:4b:c2:71:6a:d5:a6:
         ae:f5:5f:e9:ff:36:b4:da:29:8c:5c:a3:00:34:05:2a:0e:74:
         9c:a5:93:fb:cb:bd:10:f3:91:a6:2c:1c:a3:3f:ff:8d:88:a1:
         62:cd:30:fc:e8:3b:a0:f3:ca:13:58:6a:5e:31:b5:dd:ea:23:
         d5:66:23:65:9f:1c:75:42:53:b0:8f:d2:d1:30:87:39:21:1a:
         82:81:cc:f1:d0:9a:78:6d:63:0b:9c:ca:43:34:92:75:11:da:
         84:7e:43:01:29:64:d5:c4:ad:37:21:cf:8e:48:79:44:fb:54:
         2a:7d:e1:32:a8:cc:7e:d6:d7:70:88:c5:02:77:9e:18:cd:90:
         fa:3d:c2:f1:cb:d1:0a:10:25:9c:11:87:2d:22:37:b9:be:7a:
         d8:7a:ad:c2:31:84:40:f2:91:f8:b0:15:13:cf:cd:0a:7d:21:
         30:e3:57:12:be:11:20:7d:85:5e:b5:25:1f:88:95:2f:87:89:
         45:45:8f:20:7d:31:93:d5:07:17:78:a2:04:7e:dc:66:65:11:
         76:51:1b:76
-----BEGIN CERTIFICATE-----
MIIEjzCCA3egAwIBAgIGCgsMDQ4zMA0GCSqGSIb3DQEBCwUAMHoxEzARBgNVBAMU
CktPQ0hJQ0FfQ0ExCzAJBgNVBAYTAklOMQ8wDQYDVQQKEwZDSVRSSVgxDDAKBgNV
BAsTA0FORzELMAkGA1UECBMCS0ExKjAoBgkqhkiG9w0BCQEWG0tPQ0hJQ0FfQ0FA
S09DSElDQV9tYWlsLmNvbTAeFw0xNjA3MDgwNDM1MjdaFw0yNjA3MDYwNDM1Mjda
MHAxCzAJBgNVBAgTAktBMQswCQYDVQQGEwJJTjEbMBkGA1UEAxQSMTM3X0tPQ0hJ
Q0Ffc2VydmVyMSYwJAYJKoZIhvcNAQkBFhcxMzdfS09DSElDQUB0ZXN0X2NhLmNv
bTEPMA0GA1UEChMGQ0lUUklYMIIBIjANBgkqhkiG9w0BAQEFAAOCAQ8AMIIBCgKC
AQEApllAwQlPCqBuIjOGqvKi5SLqP7Bjv+kil2urIG+1uL92uSdKECjA+1vgEnQL
h/wBgEX5J7ePREEUVguBdZKvsAVNhVQcVHTZ3x3rKIBf4YcZr8zkHziMutxosTnt
GvN+xlBlXzjQY4MJI4SYFtqPZhR0kboBVONzH2bmAxJsjH5ByHWjdHlvZl9abbM9
Gayxbgjq4drY4ZCOBo4c5dS2GIYMpvneZn3icG+PA20FuSLdG04Jn3Kv+1w5CuPv
TIu5a8h7whk4Z5GqVDWcHJef0uBe9DlYnV4AOdpr6bpIbjfL59AzU99JxeAL4Evc
l9EsWPf0iJDCr1bCu06iKfXQhQIDAQABo4IBIzCCAR8wEQYJYIZIAYb4QgEBBAQD
AgZAMB0GA1UdDgQWBBS29apQtOGmBQiQZHdzC3z4fg4a4DCBrAYDVR0jBIGkMIGh
gBS9u5V2XPktISlCIv2Rr7g5JKp+N6F+pHwwejETMBEGA1UEAxQKS09DSElDQV9D
QTELMAkGA1UEBhMCSU4xDzANBgNVBAoTBkNJVFJJWDEMMAoGA1UECxMDQU5HMQsw
CQYDVQQIEwJLQTEqMCgGCSqGSIb3DQEJARYbS09DSElDQV9DQUBLT0NISUNBX21h
aWwuY29tggkA4RDtsjw943EwPAYIKwYBBQUHAQEEMDAuMCwGCCsGAQUFBzABhiBo
dHRwOi8vMTcyLjIyLjIwLjEvcmVzcG9uZGVycGF0aDANBgkqhkiG9w0BAQsFAAOC
AQEAT8ANLcvwvAqbqIvAqAv5ZnmiWRLuULHY7lkSk4zp2lJcQujW+F/c2HHwXrDN
pkZvS8JxatWmrvVf6f82tNopjFyjADQFKg50nKWT+8u9EPORpiwcoz//jYihYs0w
/Og7oPPKE1hqXjG13eoj1WYjZZ8cdUJTsI/S0TCHOSEagoHM8dCaeG1jC5zKQzSS
dRHahH5DASlk1cStNyHPjkh5RPtUKn3hMqjMftbXcIjFAneeGM2Q+j3C8cvRChAl
nBGHLSI3ub562HqtwjGEQPKR+LAVE8/NCn0hMONXEr4RIH2FXrUlH4iVL4eJRUWP
IH0xk9UHF3iiBH7cZmURdlEbdg==
-----END CERTIFICATE-----
