Certificate:
    Data:
        Version: 3 (0x2)
        Serial Number: 11042563100212 (0xa0b0c0d0e34)
    Signature Algorithm: sha256WithRSAEncryption
        Issuer: CN=KOCHICA_CA, C=IN, O=CITRIX, OU=ANG, ST=KA/emailAddress=KOCHICA_CA@KOCHICA_mail.com
        Validity
            Not Before: Jul  8 04:35:27 2016 GMT
            Not After : Jul  6 04:35:27 2026 GMT
        Subject: ST=KA, C=IN, CN=138_KOCHICA_server/emailAddress=138_KOCHICA@test_ca.com, O=CITRIX
        Subject Public Key Info:
            Public Key Algorithm: rsaEncryption
                Public-Key: (2048 bit)
                Modulus:
                    00:da:8a:64:de:e0:c1:49:8b:fa:53:2c:95:51:a6:
                    cb:18:e9:d3:ae:af:9f:8f:16:a9:5c:4f:62:d4:8e:
                    6d:82:43:54:5b:90:a7:86:5a:60:68:37:0c:2b:6a:
                    17:61:73:d3:f7:f8:dc:fa:7e:e0:c1:fc:f1:de:c5:
                    54:d2:ec:4c:0d:6d:ff:1c:88:60:25:fa:94:e5:9e:
                    09:2f:3c:06:3b:c9:5d:41:35:5d:cc:e9:82:1a:35:
                    a5:8e:b6:93:9c:32:41:f0:f4:d7:66:8f:12:30:e1:
                    cc:6d:c0:06:d7:01:ce:26:79:8d:a1:27:05:d1:ef:
                    b6:77:a5:6a:4f:85:a2:70:2b:25:26:dc:92:1c:ef:
                    09:b8:ee:16:a0:84:50:55:e3:30:25:4f:2f:62:91:
                    bf:3a:a3:d6:00:7e:a9:91:5a:fe:34:1f:3c:d6:ec:
                    f9:61:62:cf:00:97:67:7b:01:c3:c8:d4:b9:64:db:
                    75:32:04:73:98:29:0f:ca:45:d9:65:f5:d3:18:b2:
                    35:82:e4:76:7d:fd:80:e3:2b:3b:87:49:5a:eb:58:
                    90:ca:38:1f:4a:57:57:23:59:14:15:4b:16:47:2b:
                    1a:57:92:77:b8:45:8c:01:e9:a4:cd:58:32:af:31:
                    2e:94:8b:8d:03:72:fd:27:cc:18:e0:1b:b6:43:c6:
                    b2:77
                Exponent: 65537 (0x10001)
        X509v3 extensions:
            Netscape Cert Type: 
                SSL Server
            X509v3 Subject Key Identifier: 
                0F:87:17:CA:BB:0D:23:1B:15:14:91:68:B6:AC:D6:09:99:5F:7F:21
            X509v3 Authority Key Identifier: 
                keyid:BD:BB:95:76:5C:F9:2D:21:29:42:22:FD:91:AF:B8:39:24:AA:7E:37
                DirName:/CN=KOCHICA_CA/C=IN/O=CITRIX/OU=ANG/ST=KA/emailAddress=KOCHICA_CA@KOCHICA_mail.com
                serial:E1:10:ED:B2:3C:3D:E3:71

            Authority Information Access: 
                OCSP - URI:http://172.22.20.1/responderpath

    Signature Algorithm: sha256WithRSAEncryption
         16:10:5d:a9:a9:c0:cb:a3:44:09:46:48:91:66:1c:49:31:9d:
         a4:3c:7b:cf:04:ba:a0:98:b9:d0:fd:06:82:b0:83:5c:44:82:
         85:b4:8f:98:59:bb:00:5a:ed:51:04:41:a2:9f:d3:2b:af:57:
         7c:9f:11:14:9e:10:f3:8b:7c:ac:35:db:e8:9a:2e:fd:9a:40:
         f2:e8:4c:0f:cb:8d:14:e2:d3:7e:2b:e3:55:e1:c1:23:5b:60:
         3e:3d:a6:b1:57:f2:fb:31:c1:3c:40:60:32:63:12:a6:ba:e4:
         c0:f5:cc:14:71:be:7c:ce:d0:5a:cd:f4:70:a4:25:b9:65:7c:
         a9:6f:ea:45:97:b2:b0:79:07:e4:d7:66:bb:ee:e9:99:9c:19:
         79:5e:18:32:07:73:4d:bf:4d:f7:76:0a:47:f6:1e:9c:d0:84:
         04:a0:07:97:92:72:08:6b:51:ac:55:e6:74:8e:6d:39:d2:18:
         6c:2d:76:33:28:5d:16:a5:e4:5e:88:55:cf:cb:80:40:7c:9d:
         12:5c:a3:a4:57:47:32:10:70:3a:bc:4e:4e:e5:81:9c:97:86:
         30:97:10:a1:b4:65:10:2e:d1:90:ea:87:56:c5:51:69:3c:e6:
         41:6c:d5:dd:cc:e2:57:13:3e:78:6e:b5:46:8d:a2:bc:60:5d:
         f9:e9:cc:ee
-----BEGIN CERTIFICATE-----
MIIEjzCCA3egAwIBAgIGCgsMDQ40MA0GCSqGSIb3DQEBCwUAMHoxEzARBgNVBAMU
CktPQ0hJQ0FfQ0ExCzAJBgNVBAYTAklOMQ8wDQYDVQQKEwZDSVRSSVgxDDAKBgNV
BAsTA0FORzELMAkGA1UECBMCS0ExKjAoBgkqhkiG9w0BCQEWG0tPQ0hJQ0FfQ0FA
S09DSElDQV9tYWlsLmNvbTAeFw0xNjA3MDgwNDM1MjdaFw0yNjA3MDYwNDM1Mjda
MHAxCzAJBgNVBAgTAktBMQswCQYDVQQGEwJJTjEbMBkGA1UEAxQSMTM4X0tPQ0hJ
Q0Ffc2VydmVyMSYwJAYJKoZIhvcNAQkBFhcxMzhfS09DSElDQUB0ZXN0X2NhLmNv
bTEPMA0GA1UEChMGQ0lUUklYMIIBIjANBgkqhkiG9w0BAQEFAAOCAQ8AMIIBCgKC
AQEA2opk3uDBSYv6UyyVUabLGOnTrq+fjxapXE9i1I5tgkNUW5CnhlpgaDcMK2oX
YXPT9/jc+n7gwfzx3sVU0uxMDW3/HIhgJfqU5Z4JLzwGO8ldQTVdzOmCGjWljraT
nDJB8PTXZo8SMOHMbcAG1wHOJnmNoScF0e+2d6VqT4WicCslJtySHO8JuO4WoIRQ
VeMwJU8vYpG/OqPWAH6pkVr+NB881uz5YWLPAJdnewHDyNS5ZNt1MgRzmCkPykXZ
ZfXTGLI1guR2ff2A4ys7h0la61iQyjgfSldXI1kUFUsWRysaV5J3uEWMAemkzVgy
rzEulIuNA3L9J8wY4Bu2Q8aydwIDAQABo4IBIzCCAR8wEQYJYIZIAYb4QgEBBAQD
AgZAMB0GA1UdDgQWBBQPhxfKuw0jGxUUkWi2rNYJmV9/ITCBrAYDVR0jBIGkMIGh
gBS9u5V2XPktISlCIv2Rr7g5JKp+N6F+pHwwejETMBEGA1UEAxQKS09DSElDQV9D
QTELMAkGA1UEBhMCSU4xDzANBgNVBAoTBkNJVFJJWDEMMAoGA1UECxMDQU5HMQsw
CQYDVQQIEwJLQTEqMCgGCSqGSIb3DQEJARYbS09DSElDQV9DQUBLT0NISUNBX21h
aWwuY29tggkA4RDtsjw943EwPAYIKwYBBQUHAQEEMDAuMCwGCCsGAQUFBzABhiBo
dHRwOi8vMTcyLjIyLjIwLjEvcmVzcG9uZGVycGF0aDANBgkqhkiG9w0BAQsFAAOC
AQEAFhBdqanAy6NECUZIkWYcSTGdpDx7zwS6oJi50P0GgrCDXESChbSPmFm7AFrt
UQRBop/TK69XfJ8RFJ4Q84t8rDXb6Jou/ZpA8uhMD8uNFOLTfivjVeHBI1tgPj2m
sVfy+zHBPEBgMmMSprrkwPXMFHG+fM7QWs30cKQluWV8qW/qRZeysHkH5Ndmu+7p
mZwZeV4YMgdzTb9N93YKR/YenNCEBKAHl5JyCGtRrFXmdI5tOdIYbC12MyhdFqXk
XohVz8uAQHydElyjpFdHMhBwOrxOTuWBnJeGMJcQobRlEC7RkOqHVsVRaTzmQWzV
3cziVxM+eG61Ro2ivGBd+enM7g==
-----END CERTIFICATE-----
