Certificate:
    Data:
        Version: 3 (0x2)
        Serial Number: 11042563100214 (0xa0b0c0d0e36)
    Signature Algorithm: sha256WithRSAEncryption
        Issuer: CN=KOCHICA_CA, C=IN, O=CITRIX, OU=ANG, ST=KA/emailAddress=KOCHICA_CA@KOCHICA_mail.com
        Validity
            Not Before: Jul  8 04:35:28 2016 GMT
            Not After : Jul  6 04:35:28 2026 GMT
        Subject: ST=KA, C=IN, CN=140_KOCHICA_server/emailAddress=140_KOCHICA@test_ca.com, O=CITRIX
        Subject Public Key Info:
            Public Key Algorithm: rsaEncryption
                Public-Key: (2048 bit)
                Modulus:
                    00:c1:0d:95:17:c4:ee:c7:bc:49:aa:fd:10:ab:08:
                    6a:fb:81:35:68:72:ea:d2:cb:8b:44:f5:e3:42:88:
                    4b:96:73:6b:75:97:8f:4b:bc:b6:17:93:6c:8f:3f:
                    c0:3d:f5:ab:32:ff:02:6c:5d:a6:41:25:97:9b:c4:
                    40:a8:ce:83:3c:74:56:9c:b5:ba:ab:2b:2a:a9:29:
                    eb:cb:ab:f3:7f:cc:15:80:ed:e7:fc:96:06:99:63:
                    32:33:b8:66:78:b6:23:17:ac:72:2c:ab:a0:31:17:
                    f5:d1:75:15:dc:cf:b3:74:ff:23:ea:00:c8:7b:5a:
                    2e:a2:fe:d2:f8:92:a0:92:5c:cd:e4:7e:4d:a7:d2:
                    c8:98:da:3b:fc:e6:b3:a0:28:1c:01:59:fb:82:34:
                    8f:f6:e6:c2:3e:4a:e0:73:cd:54:46:25:75:94:a8:
                    09:38:d5:6a:ef:c0:26:35:11:a3:7e:ec:94:3d:bf:
                    12:68:5f:b6:91:62:1a:9e:04:fd:19:ca:72:aa:83:
                    f1:f0:7d:58:b9:46:1a:a6:b0:12:2b:ac:a1:7c:0d:
                    3f:f6:b1:a9:38:43:5f:b9:c9:d8:40:36:d3:c7:26:
                    af:7e:61:c5:15:de:1f:0c:2e:78:a5:05:5b:a6:99:
                    2a:1e:c4:f1:f1:44:2e:29:6d:05:b8:7c:0e:5b:15:
                    a1:cd
                Exponent: 65537 (0x10001)
        X509v3 extensions:
            Netscape Cert Type: 
                SSL Server
            X509v3 Subject Key Identifier: 
                8F:C4:3C:B8:6B:21:93:95:58:CF:E1:EE:AB:1B:A4:CB:69:65:3E:BC
            X509v3 Authority Key Identifier: 
                keyid:BD:BB:95:76:5C:F9:2D:21:29:42:22:FD:91:AF:B8:39:24:AA:7E:37
                DirName:/CN=KOCHICA_CA/C=IN/O=CITRIX/OU=ANG/ST=KA/emailAddress=KOCHICA_CA@KOCHICA_mail.com
                serial:E1:10:ED:B2:3C:3D:E3:71

            Authority Information Access: 
                OCSP - URI:http://172.22.20.1/responderpath

    Signature Algorithm: sha256WithRSAEncryption
         6f:0e:9f:23:18:97:42:65:25:2d:71:46:ed:05:d8:4c:e4:80:
         87:95:ec:68:31:e6:7d:1e:f4:f3:ed:b5:c4:9d:0d:ce:ce:37:
         85:68:ae:42:a2:b1:29:2a:c3:ba:5a:d1:f5:bf:77:4f:97:b9:
         43:94:79:73:b5:b9:08:3f:5a:c9:f2:89:35:b9:a7:99:55:99:
         84:30:fc:b0:fb:7f:2e:fb:94:ff:57:b9:44:ea:41:f3:28:91:
         77:df:6d:57:1c:d0:10:d6:50:a6:a6:10:16:9d:01:5f:8a:c1:
         84:76:9b:eb:02:f9:33:3b:c1:cb:8c:96:e2:2e:19:4d:a3:6d:
         0b:73:e9:fa:09:ae:7d:a1:22:af:94:b7:9a:67:cd:fc:a4:f9:
         73:17:52:0f:07:79:fc:13:25:b1:b8:24:5d:67:ea:95:73:01:
         33:a1:77:6c:46:d0:87:ba:58:cb:f4:4c:ca:ad:ea:bf:fa:a6:
         ac:24:19:4c:09:a4:bc:43:7c:39:32:8d:90:13:b1:45:e0:3b:
         c0:10:cc:6b:a9:be:99:60:2c:12:cc:ab:82:b6:c3:bf:15:ff:
         b3:40:50:9d:e9:65:c9:cf:5c:e4:6c:4f:73:52:e9:83:4a:1d:
         a2:13:69:88:d8:f3:19:9a:3f:c5:11:e6:a6:a4:51:59:90:7a:
         01:cf:08:9d
-----BEGIN CERTIFICATE-----
MIIEjzCCA3egAwIBAgIGCgsMDQ42MA0GCSqGSIb3DQEBCwUAMHoxEzARBgNVBAMU
CktPQ0hJQ0FfQ0ExCzAJBgNVBAYTAklOMQ8wDQYDVQQKEwZDSVRSSVgxDDAKBgNV
BAsTA0FORzELMAkGA1UECBMCS0ExKjAoBgkqhkiG9w0BCQEWG0tPQ0hJQ0FfQ0FA
S09DSElDQV9tYWlsLmNvbTAeFw0xNjA3MDgwNDM1MjhaFw0yNjA3MDYwNDM1Mjha
MHAxCzAJBgNVBAgTAktBMQswCQYDVQQGEwJJTjEbMBkGA1UEAxQSMTQwX0tPQ0hJ
Q0Ffc2VydmVyMSYwJAYJKoZIhvcNAQkBFhcxNDBfS09DSElDQUB0ZXN0X2NhLmNv
bTEPMA0GA1UEChMGQ0lUUklYMIIBIjANBgkqhkiG9w0BAQEFAAOCAQ8AMIIBCgKC
AQEAwQ2VF8Tux7xJqv0Qqwhq+4E1aHLq0suLRPXjQohLlnNrdZePS7y2F5Nsjz/A
PfWrMv8CbF2mQSWXm8RAqM6DPHRWnLW6qysqqSnry6vzf8wVgO3n/JYGmWMyM7hm
eLYjF6xyLKugMRf10XUV3M+zdP8j6gDIe1ouov7S+JKgklzN5H5Np9LImNo7/Oaz
oCgcAVn7gjSP9ubCPkrgc81URiV1lKgJONVq78AmNRGjfuyUPb8SaF+2kWIangT9
GcpyqoPx8H1YuUYaprASK6yhfA0/9rGpOENfucnYQDbTxyavfmHFFd4fDC54pQVb
ppkqHsTx8UQuKW0FuHwOWxWhzQIDAQABo4IBIzCCAR8wEQYJYIZIAYb4QgEBBAQD
AgZAMB0GA1UdDgQWBBSPxDy4ayGTlVjP4e6rG6TLaWU+vDCBrAYDVR0jBIGkMIGh
gBS9u5V2XPktISlCIv2Rr7g5JKp+N6F+pHwwejETMBEGA1UEAxQKS09DSElDQV9D
QTELMAkGA1UEBhMCSU4xDzANBgNVBAoTBkNJVFJJWDEMMAoGA1UECxMDQU5HMQsw
CQYDVQQIEwJLQTEqMCgGCSqGSIb3DQEJARYbS09DSElDQV9DQUBLT0NISUNBX21h
aWwuY29tggkA4RDtsjw943EwPAYIKwYBBQUHAQEEMDAuMCwGCCsGAQUFBzABhiBo
dHRwOi8vMTcyLjIyLjIwLjEvcmVzcG9uZGVycGF0aDANBgkqhkiG9w0BAQsFAAOC
AQEAbw6fIxiXQmUlLXFG7QXYTOSAh5XsaDHmfR708+21xJ0Nzs43hWiuQqKxKSrD
ulrR9b93T5e5Q5R5c7W5CD9ayfKJNbmnmVWZhDD8sPt/LvuU/1e5ROpB8yiRd99t
VxzQENZQpqYQFp0BX4rBhHab6wL5MzvBy4yW4i4ZTaNtC3Pp+gmufaEir5S3mmfN
/KT5cxdSDwd5/BMlsbgkXWfqlXMBM6F3bEbQh7pYy/RMyq3qv/qmrCQZTAmkvEN8
OTKNkBOxReA7wBDMa6m+mWAsEsyrgrbDvxX/s0BQnellyc9c5GxPc1Lpg0odohNp
iNjzGZo/xRHmpqRRWZB6Ac8InQ==
-----END CERTIFICATE-----
