Certificate:
    Data:
        Version: 3 (0x2)
        Serial Number:
            0a:0b:0c:0d:0e:01:02:03:06
    Signature Algorithm: sha1WithRSAEncryption
        Issuer: CN=RootServer2048CA, ST=KA, C=IN/emailAddress=RootServer2048CA@RootServer2048CA.com, O=CITRIX
        Validity
            Not Before: Apr 30 03:14:35 2017 GMT
            Not After : Apr 28 03:14:35 2027 GMT
        Subject: ST=KA, C=IN, CN=OneCA2048_server/emailAddress=OneCA2048@test_ca.com, O=CITRIX
        Subject Public Key Info:
            Public Key Algorithm: rsaEncryption
                Public-Key: (2048 bit)
                Modulus:
                    00:b4:d1:5d:a1:ae:c4:83:7c:ce:ee:a2:78:54:bd:
                    e4:22:e3:e8:9f:29:73:de:0e:e6:55:b8:5a:20:73:
                    ae:0e:9c:dc:21:0c:b3:72:fc:13:9c:3e:a9:e1:ce:
                    67:5b:59:59:c0:f8:80:2a:65:a5:8a:57:56:af:50:
                    05:47:de:df:a3:6b:d6:02:76:8d:3c:dd:dc:9d:d7:
                    12:42:a6:8f:26:97:2a:26:1d:5f:f7:15:85:7d:40:
                    5b:03:9b:56:45:97:fc:49:31:87:f1:d0:fd:b4:14:
                    bc:18:0b:79:bd:71:73:5d:74:48:49:0d:b9:b4:52:
                    a7:a3:41:5f:cd:3e:e0:91:2d:af:5c:aa:4e:5f:0b:
                    00:09:ec:40:2d:a3:63:eb:9c:19:67:87:0e:8a:7b:
                    38:20:61:e9:c3:28:8e:54:29:4b:9e:7d:60:5b:3a:
                    8b:e6:97:5b:19:7a:7b:d5:11:9e:b0:42:ef:69:b7:
                    98:14:f3:bb:8b:8c:62:3e:52:15:9d:ac:c9:6f:8d:
                    ff:e9:1c:3b:a3:34:ba:06:38:af:35:96:9d:89:01:
                    0f:d7:08:43:82:2b:12:77:0f:19:e3:34:e0:ca:f5:
                    a1:55:ee:49:10:c4:28:8d:2b:e4:8a:91:7f:5d:79:
                    9d:ca:88:aa:4d:a4:79:86:e6:e9:e4:71:a4:37:f0:
                    44:83
                Exponent: 65537 (0x10001)
        X509v3 extensions:
            X509v3 Basic Constraints: 
                CA:TRUE
            X509v3 Subject Key Identifier: 
                AB:6B:7A:88:FF:16:57:5F:CD:FB:4C:E5:FA:A2:B6:B4:5C:1C:28:04
            X509v3 Authority Key Identifier: 
                keyid:63:56:B6:99:D5:52:3C:39:62:F1:C0:14:E7:78:55:A7:C5:3E:E4:E3
                DirName:/CN=RootServer2048CA/ST=KA/C=IN/emailAddress=RootServer2048CA@RootServer2048CA.com/O=CITRIX
                serial:E3:DD:A4:08:60:FD:73:25

    Signature Algorithm: sha1WithRSAEncryption
         41:27:01:fc:9a:4c:2c:2b:52:33:18:b9:6e:bb:4d:56:8a:76:
         47:d9:00:1e:57:df:07:68:71:82:31:bc:e2:0a:89:74:40:03:
         7d:02:19:d2:cb:a0:7c:83:83:ed:71:f2:d4:e2:38:93:ad:da:
         16:3e:bc:3b:69:c8:2d:7b:bd:31:54:ef:bf:29:75:2f:f0:9a:
         f1:4d:16:47:9c:d6:14:0f:7a:54:53:a2:42:5e:d6:db:4c:4f:
         2f:bb:66:ed:80:90:93:a7:40:6b:70:50:42:20:63:e6:aa:16:
         d4:14:17:bc:a5:b9:c9:b0:ff:11:2a:94:bb:bc:03:66:c0:bf:
         54:d7:78:31:f8:28:80:c3:98:5a:8e:41:a4:eb:d7:d2:53:2e:
         7a:05:71:66:d3:d1:ae:ad:f5:73:42:92:8f:af:fb:a5:96:a5:
         58:f8:44:1d:68:9b:ab:7a:8b:95:37:b1:e9:65:95:48:0e:c8:
         1c:86:c5:f5:64:c4:82:e3:9d:20:b8:9b:09:ef:05:9b:d4:dc:
         8b:c7:fe:00:37:d3:e7:ff:67:74:a3:3e:80:0b:32:03:37:e5:
         a6:21:8b:5d:d8:92:76:89:18:f1:c6:c2:03:8b:17:56:26:2b:
         b1:b1:db:0a:ce:9c:32:e7:b0:e5:90:7a:36:c7:98:7d:cd:5d:
         29:e1:0b:db
-----BEGIN CERTIFICATE-----
MIIETjCCAzagAwIBAgIJCgsMDQ4BAgMGMA0GCSqGSIb3DQEBBQUAMHwxGTAXBgNV
BAMTEFJvb3RTZXJ2ZXIyMDQ4Q0ExCzAJBgNVBAgTAktBMQswCQYDVQQGEwJJTjE0
MDIGCSqGSIb3DQEJARYlUm9vdFNlcnZlcjIwNDhDQUBSb290U2VydmVyMjA0OENB
LmNvbTEPMA0GA1UEChMGQ0lUUklYMB4XDTE3MDQzMDAzMTQzNVoXDTI3MDQyODAz
MTQzNVowbDELMAkGA1UECBMCS0ExCzAJBgNVBAYTAklOMRkwFwYDVQQDFBBPbmVD
QTIwNDhfc2VydmVyMSQwIgYJKoZIhvcNAQkBFhVPbmVDQTIwNDhAdGVzdF9jYS5j
b20xDzANBgNVBAoTBkNJVFJJWDCCASIwDQYJKoZIhvcNAQEBBQADggEPADCCAQoC
ggEBALTRXaGuxIN8zu6ieFS95CLj6J8pc94O5lW4WiBzrg6c3CEMs3L8E5w+qeHO
Z1tZWcD4gCplpYpXVq9QBUfe36Nr1gJ2jTzd3J3XEkKmjyaXKiYdX/cVhX1AWwOb
VkWX/Ekxh/HQ/bQUvBgLeb1xc110SEkNubRSp6NBX80+4JEtr1yqTl8LAAnsQC2j
Y+ucGWeHDop7OCBh6cMojlQpS559YFs6i+aXWxl6e9URnrBC72m3mBTzu4uMYj5S
FZ2syW+N/+kcO6M0ugY4rzWWnYkBD9cIQ4IrEncPGeM04Mr1oVXuSRDEKI0r5IqR
f115ncqIqk2keYbm6eRxpDfwRIMCAwEAAaOB4jCB3zAMBgNVHRMEBTADAQH/MB0G
A1UdDgQWBBSra3qI/xZXX837TOX6ora0XBwoBDCBrwYDVR0jBIGnMIGkgBRjVraZ
1VI8OWLxwBTneFWnxT7k46GBgKR+MHwxGTAXBgNVBAMTEFJvb3RTZXJ2ZXIyMDQ4
Q0ExCzAJBgNVBAgTAktBMQswCQYDVQQGEwJJTjE0MDIGCSqGSIb3DQEJARYlUm9v
dFNlcnZlcjIwNDhDQUBSb290U2VydmVyMjA0OENBLmNvbTEPMA0GA1UEChMGQ0lU
UklYggkA492kCGD9cyUwDQYJKoZIhvcNAQEFBQADggEBAEEnAfyaTCwrUjMYuW67
TVaKdkfZAB5X3wdocYIxvOIKiXRAA30CGdLLoHyDg+1x8tTiOJOt2hY+vDtpyC17
vTFU778pdS/wmvFNFkec1hQPelRTokJe1ttMTy+7Zu2AkJOnQGtwUEIgY+aqFtQU
F7ylucmw/xEqlLu8A2bAv1TXeDH4KIDDmFqOQaTr19JTLnoFcWbT0a6t9XNCko+v
+6WWpVj4RB1om6t6i5U3selllUgOyByGxfVkxILjnSC4mwnvBZvU3IvH/gA30+f/
Z3SjPoALMgM35aYhi13YknaJGPHGwgOLF1YmK7Gx2wrOnDLnsOWQejbHmH3NXSnh
C9s=
-----END CERTIFICATE-----
