Certificate:
    Data:
        Version: 3 (0x2)
        Serial Number: 11042563100187 (0xa0b0c0d0e1b)
    Signature Algorithm: sha256WithRSAEncryption
        Issuer: CN=MYSORECA_CA, C=IN, O=CITRIX, OU=ANG, ST=KA/emailAddress=MYSORECA_CA@MYSORECA_mail.com
        Validity
            Not Before: Jul  8 04:36:33 2016 GMT
            Not After : Jul  6 04:36:33 2026 GMT
        Subject: ST=KA, C=IN, CN=113_MYSORECA_server/emailAddress=113_MYSORECA@test_ca.com, O=CITRIX
        Subject Public Key Info:
            Public Key Algorithm: rsaEncryption
                Public-Key: (2048 bit)
                Modulus:
                    00:c8:df:87:a8:cc:6e:eb:b6:fb:b6:69:a6:53:60:
                    ae:e5:17:82:13:d5:62:ac:23:c8:fe:4c:ca:1e:cb:
                    f9:56:b2:1c:18:d0:80:fa:f4:f8:14:80:b4:a7:07:
                    ed:3e:01:5f:5e:90:f5:e4:7d:eb:54:11:a4:ce:8c:
                    0a:ea:de:77:f0:9b:3c:e7:99:77:cb:2c:1f:9d:45:
                    4d:87:50:ad:ba:9c:52:57:9e:6f:62:fc:1a:3e:a7:
                    7b:10:4a:df:8d:bd:1c:83:df:88:76:e8:93:b2:a7:
                    cc:1d:d6:54:fc:20:f3:da:50:ee:f1:00:7a:68:e9:
                    59:0f:98:a3:08:a9:b8:cd:38:ea:91:95:f9:ac:5f:
                    4d:ee:80:1b:2a:74:dc:5b:ab:96:a2:60:e2:37:46:
                    a6:49:1e:43:a1:3d:3e:34:55:13:ae:3e:f8:4d:30:
                    1e:2a:c2:ef:b9:ef:e0:59:e8:00:d1:be:d3:71:95:
                    4c:32:5a:0c:db:32:75:84:e1:60:85:3c:e4:9d:59:
                    33:9d:90:7b:32:77:72:f4:ef:40:ba:34:24:5a:55:
                    b9:25:45:ef:90:c7:20:03:0b:2a:81:91:cc:30:2e:
                    6c:1b:d7:a7:ae:f1:85:af:ad:89:e9:c2:e6:d4:b0:
                    48:cc:25:08:ac:11:d4:1b:72:13:32:f5:eb:db:bf:
                    52:05
                Exponent: 65537 (0x10001)
        X509v3 extensions:
            Netscape Cert Type: 
                SSL Server
            X509v3 Subject Key Identifier: 
                4E:A2:82:29:24:B5:31:26:03:22:C5:9B:6B:8C:CB:EC:38:5B:A1:2D
            X509v3 Authority Key Identifier: 
                keyid:C6:18:DA:E4:16:A1:1E:60:AE:18:00:F5:A7:DF:0A:8B:65:4D:36:95
                DirName:/CN=MYSORECA_CA/C=IN/O=CITRIX/OU=ANG/ST=KA/emailAddress=MYSORECA_CA@MYSORECA_mail.com
                serial:D5:74:54:E9:D5:CF:C9:F6

            Authority Information Access: 
                OCSP - URI:http://MYSORECA_two.ocsptest.com/responderpath

    Signature Algorithm: sha256WithRSAEncryption
         96:e1:6f:57:b6:c0:f7:72:e5:4b:be:c6:7f:e0:13:0b:84:cb:
         9c:0c:29:e1:02:bf:e2:30:6c:50:df:b4:83:7e:d8:71:2e:da:
         c0:02:e9:c5:76:58:de:b8:5d:07:6f:3d:84:d1:94:f3:8d:44:
         2c:5b:fa:02:be:b8:6a:f3:6a:41:44:e1:7b:e5:8c:78:18:0c:
         9d:72:39:23:97:1f:b7:4f:eb:19:df:fc:33:2d:2e:44:c7:a3:
         98:52:7d:e9:1e:38:b3:be:47:01:f1:a0:77:ed:bf:44:31:f1:
         ca:10:ee:35:b8:9b:49:46:ee:4e:59:b7:a6:66:51:1f:5f:e7:
         dd:7c:98:f3:f0:4e:c5:75:69:49:03:4c:90:6d:ec:6f:e6:4a:
         ec:0d:1c:36:17:a4:72:f4:e3:df:75:2b:51:3c:d1:dc:46:ec:
         78:ba:c7:ac:8f:63:54:fe:4b:93:ce:39:4a:a3:62:aa:b8:29:
         46:5f:a2:1a:b7:bd:f6:36:9d:c6:54:42:3d:3d:ac:ae:ce:ce:
         1a:61:e7:f9:8f:dc:30:7c:49:5c:0f:61:3b:1a:ce:fa:2a:48:
         c2:29:cb:34:22:4d:ad:c1:92:df:c6:0c:a3:3d:e0:bc:94:04:
         fa:ce:c9:6d:a8:cb:ad:c5:21:46:06:dd:c6:fa:6c:71:0d:17:
         57:3f:22:d9
-----BEGIN CERTIFICATE-----
MIIEpjCCA46gAwIBAgIGCgsMDQ4bMA0GCSqGSIb3DQEBCwUAMH0xFDASBgNVBAMU
C01ZU09SRUNBX0NBMQswCQYDVQQGEwJJTjEPMA0GA1UEChMGQ0lUUklYMQwwCgYD
VQQLEwNBTkcxCzAJBgNVBAgTAktBMSwwKgYJKoZIhvcNAQkBFh1NWVNPUkVDQV9D
QUBNWVNPUkVDQV9tYWlsLmNvbTAeFw0xNjA3MDgwNDM2MzNaFw0yNjA3MDYwNDM2
MzNaMHIxCzAJBgNVBAgTAktBMQswCQYDVQQGEwJJTjEcMBoGA1UEAxQTMTEzX01Z
U09SRUNBX3NlcnZlcjEnMCUGCSqGSIb3DQEJARYYMTEzX01ZU09SRUNBQHRlc3Rf
Y2EuY29tMQ8wDQYDVQQKEwZDSVRSSVgwggEiMA0GCSqGSIb3DQEBAQUAA4IBDwAw
ggEKAoIBAQDI34eozG7rtvu2aaZTYK7lF4IT1WKsI8j+TMoey/lWshwY0ID69PgU
gLSnB+0+AV9ekPXkfetUEaTOjArq3nfwmzznmXfLLB+dRU2HUK26nFJXnm9i/Bo+
p3sQSt+NvRyD34h26JOyp8wd1lT8IPPaUO7xAHpo6VkPmKMIqbjNOOqRlfmsX03u
gBsqdNxbq5aiYOI3RqZJHkOhPT40VROuPvhNMB4qwu+57+BZ6ADRvtNxlUwyWgzb
MnWE4WCFPOSdWTOdkHsyd3L070C6NCRaVbklRe+QxyADCyqBkcwwLmwb16eu8YWv
rYnpwubUsEjMJQisEdQbchMy9evbv1IFAgMBAAGjggE1MIIBMTARBglghkgBhvhC
AQEEBAMCBkAwHQYDVR0OBBYEFE6igikktTEmAyLFm2uMy+w4W6EtMIGwBgNVHSME
gagwgaWAFMYY2uQWoR5grhgA9affCotlTTaVoYGBpH8wfTEUMBIGA1UEAxQLTVlT
T1JFQ0FfQ0ExCzAJBgNVBAYTAklOMQ8wDQYDVQQKEwZDSVRSSVgxDDAKBgNVBAsT
A0FORzELMAkGA1UECBMCS0ExLDAqBgkqhkiG9w0BCQEWHU1ZU09SRUNBX0NBQE1Z
U09SRUNBX21haWwuY29tggkA1XRU6dXPyfYwSgYIKwYBBQUHAQEEPjA8MDoGCCsG
AQUFBzABhi5odHRwOi8vTVlTT1JFQ0FfdHdvLm9jc3B0ZXN0LmNvbS9yZXNwb25k
ZXJwYXRoMA0GCSqGSIb3DQEBCwUAA4IBAQCW4W9XtsD3cuVLvsZ/4BMLhMucDCnh
Ar/iMGxQ37SDfthxLtrAAunFdljeuF0Hbz2E0ZTzjUQsW/oCvrhq82pBROF75Yx4
GAydcjkjlx+3T+sZ3/wzLS5Ex6OYUn3pHjizvkcB8aB37b9EMfHKEO41uJtJRu5O
WbemZlEfX+fdfJjz8E7FdWlJA0yQbexv5krsDRw2F6Ry9OPfdStRPNHcRux4uses
j2NU/kuTzjlKo2KquClGX6Iat732Np3GVEI9Payuzs4aYef5j9wwfElcD2E7Gs76
KkjCKcs0Ik2twZLfxgyjPeC8lAT6zsltqMutxSFGBt3G+mxxDRdXPyLZ
-----END CERTIFICATE-----
