Certificate:
    Data:
        Version: 3 (0x2)
        Serial Number: 11042563100180 (0xa0b0c0d0e14)
    Signature Algorithm: sha256WithRSAEncryption
        Issuer: CN=MYSORECA_CA, C=IN, O=CITRIX, OU=ANG, ST=KA/emailAddress=MYSORECA_CA@MYSORECA_mail.com
        Validity
            Not Before: Jul  8 04:36:31 2016 GMT
            Not After : Jul  6 04:36:31 2026 GMT
        Subject: ST=KA, C=IN, CN=106_MYSORECA_server/emailAddress=106_MYSORECA@test_ca.com, O=CITRIX
        Subject Public Key Info:
            Public Key Algorithm: rsaEncryption
                Public-Key: (2048 bit)
                Modulus:
                    00:af:cf:43:c8:71:5b:17:27:15:8a:59:89:e2:af:
                    76:ce:39:0b:5d:25:9a:9d:12:76:b6:10:17:58:bf:
                    a9:66:0e:ff:23:b8:05:1a:36:de:65:2d:38:d6:9c:
                    d6:bb:53:dc:0e:b1:6a:6a:82:ba:0b:9a:7b:65:3e:
                    7e:0a:f0:e1:d3:8d:24:f0:d2:aa:d5:67:14:30:dc:
                    5b:65:0e:f0:6a:3b:8f:0b:06:e7:6a:15:bf:8a:f9:
                    32:5e:f9:b1:4b:59:e2:f0:20:fd:cc:80:3f:14:a6:
                    a7:a2:82:9e:b1:c5:18:51:29:22:e4:6c:2a:98:24:
                    3b:84:32:12:35:3d:e3:b0:8a:03:9f:6a:7e:05:91:
                    86:c1:63:94:fd:09:a7:5a:5a:a2:b5:a9:d4:21:5d:
                    e9:05:1b:c3:df:70:8e:08:79:5d:a3:03:40:4d:12:
                    fd:7d:32:b1:a8:60:4b:57:da:9a:ab:fb:86:e5:9e:
                    df:cd:a0:26:5b:5e:8b:6c:18:f7:a6:f8:89:2a:8a:
                    9b:98:71:c3:cf:9a:8a:5c:e3:27:6b:08:8a:7b:bd:
                    8a:02:48:ea:7c:c9:ea:7e:b3:c7:e1:74:85:0b:d0:
                    7f:df:e1:11:78:59:ff:bd:b6:2d:f3:07:4a:91:49:
                    30:dd:ec:71:70:f6:5a:b8:cc:91:ea:14:ce:f5:75:
                    50:bf
                Exponent: 65537 (0x10001)
        X509v3 extensions:
            Netscape Cert Type: 
                SSL Server
            X509v3 Subject Key Identifier: 
                DD:53:00:30:C8:3E:53:0B:50:72:BB:DE:04:46:6B:90:3E:4E:6C:73
            X509v3 Authority Key Identifier: 
                keyid:C6:18:DA:E4:16:A1:1E:60:AE:18:00:F5:A7:DF:0A:8B:65:4D:36:95
                DirName:/CN=MYSORECA_CA/C=IN/O=CITRIX/OU=ANG/ST=KA/emailAddress=MYSORECA_CA@MYSORECA_mail.com
                serial:D5:74:54:E9:D5:CF:C9:F6

            Authority Information Access: 
                OCSP - URI:http://MYSORECA_one.ocsptest.com/responderpath

    Signature Algorithm: sha256WithRSAEncryption
         62:48:be:50:3f:17:9b:b3:6a:4d:1a:6b:33:63:26:0a:a3:c8:
         35:00:46:db:e5:ef:9d:f7:0d:d2:aa:d5:89:31:82:a5:63:da:
         95:05:9c:0a:fb:55:c1:0a:52:1e:f5:48:ad:08:31:62:cb:8d:
         f7:81:3d:9f:cc:ca:0b:dd:ef:c0:81:76:38:4a:05:35:f9:49:
         5a:7b:f4:11:51:04:ce:4c:96:6b:0f:68:2a:23:06:59:ea:eb:
         c4:10:32:44:3f:18:47:49:13:f9:ee:4b:1b:e9:2f:dd:5f:0b:
         bc:46:86:3c:94:f7:05:ad:ca:68:83:23:01:8e:2f:43:6b:e4:
         aa:d7:b4:ce:37:d4:e7:fb:be:90:91:84:3d:f5:4d:05:6f:01:
         04:60:5f:53:95:5a:9a:0b:5d:58:aa:b2:b2:12:69:5c:24:e9:
         36:b7:8f:d1:d2:00:86:67:73:a4:c2:28:32:42:ce:80:21:bf:
         61:8a:d2:e8:86:97:6a:72:ad:77:1c:4d:5b:45:13:f5:7e:f4:
         3e:8d:5b:14:14:01:98:7b:b2:74:b8:3f:7e:d0:72:f2:e3:90:
         cb:5a:a5:f7:d1:a0:02:57:5c:76:8c:bf:dc:54:64:e9:d9:29:
         05:f9:f9:92:98:3a:db:bb:cb:13:d5:ee:f6:0e:be:ed:31:e2:
         ae:f5:56:2e
-----BEGIN CERTIFICATE-----
MIIEpjCCA46gAwIBAgIGCgsMDQ4UMA0GCSqGSIb3DQEBCwUAMH0xFDASBgNVBAMU
C01ZU09SRUNBX0NBMQswCQYDVQQGEwJJTjEPMA0GA1UEChMGQ0lUUklYMQwwCgYD
VQQLEwNBTkcxCzAJBgNVBAgTAktBMSwwKgYJKoZIhvcNAQkBFh1NWVNPUkVDQV9D
QUBNWVNPUkVDQV9tYWlsLmNvbTAeFw0xNjA3MDgwNDM2MzFaFw0yNjA3MDYwNDM2
MzFaMHIxCzAJBgNVBAgTAktBMQswCQYDVQQGEwJJTjEcMBoGA1UEAxQTMTA2X01Z
U09SRUNBX3NlcnZlcjEnMCUGCSqGSIb3DQEJARYYMTA2X01ZU09SRUNBQHRlc3Rf
Y2EuY29tMQ8wDQYDVQQKEwZDSVRSSVgwggEiMA0GCSqGSIb3DQEBAQUAA4IBDwAw
ggEKAoIBAQCvz0PIcVsXJxWKWYnir3bOOQtdJZqdEna2EBdYv6lmDv8juAUaNt5l
LTjWnNa7U9wOsWpqgroLmntlPn4K8OHTjSTw0qrVZxQw3FtlDvBqO48LBudqFb+K
+TJe+bFLWeLwIP3MgD8Upqeigp6xxRhRKSLkbCqYJDuEMhI1PeOwigOfan4FkYbB
Y5T9CadaWqK1qdQhXekFG8PfcI4IeV2jA0BNEv19MrGoYEtX2pqr+4blnt/NoCZb
XotsGPem+IkqipuYccPPmopc4ydrCIp7vYoCSOp8yep+s8fhdIUL0H/f4RF4Wf+9
ti3zB0qRSTDd7HFw9lq4zJHqFM71dVC/AgMBAAGjggE1MIIBMTARBglghkgBhvhC
AQEEBAMCBkAwHQYDVR0OBBYEFN1TADDIPlMLUHK73gRGa5A+TmxzMIGwBgNVHSME
gagwgaWAFMYY2uQWoR5grhgA9affCotlTTaVoYGBpH8wfTEUMBIGA1UEAxQLTVlT
T1JFQ0FfQ0ExCzAJBgNVBAYTAklOMQ8wDQYDVQQKEwZDSVRSSVgxDDAKBgNVBAsT
A0FORzELMAkGA1UECBMCS0ExLDAqBgkqhkiG9w0BCQEWHU1ZU09SRUNBX0NBQE1Z
U09SRUNBX21haWwuY29tggkA1XRU6dXPyfYwSgYIKwYBBQUHAQEEPjA8MDoGCCsG
AQUFBzABhi5odHRwOi8vTVlTT1JFQ0Ffb25lLm9jc3B0ZXN0LmNvbS9yZXNwb25k
ZXJwYXRoMA0GCSqGSIb3DQEBCwUAA4IBAQBiSL5QPxebs2pNGmszYyYKo8g1AEbb
5e+d9w3SqtWJMYKlY9qVBZwK+1XBClIe9UitCDFiy433gT2fzMoL3e/AgXY4SgU1
+Ulae/QRUQTOTJZrD2gqIwZZ6uvEEDJEPxhHSRP57ksb6S/dXwu8RoY8lPcFrcpo
gyMBji9Da+Sq17TON9Tn+76QkYQ99U0FbwEEYF9TlVqaC11YqrKyEmlcJOk2t4/R
0gCGZ3OkwigyQs6AIb9hitLohpdqcq13HE1bRRP1fvQ+jVsUFAGYe7J0uD9+0HLy
45DLWqX30aACV1x2jL/cVGTp2SkF+fmSmDrbu8sT1e72Dr7tMeKu9VYu
-----END CERTIFICATE-----
