Certificate:
    Data:
        Version: 3 (0x2)
        Serial Number: 11042563100195 (0xa0b0c0d0e23)
    Signature Algorithm: sha256WithRSAEncryption
        Issuer: CN=MYSORECA_CA, C=IN, O=CITRIX, OU=ANG, ST=KA/emailAddress=MYSORECA_CA@MYSORECA_mail.com
        Validity
            Not Before: Jul  8 04:36:35 2016 GMT
            Not After : Jul  6 04:36:35 2026 GMT
        Subject: ST=KA, C=IN, CN=121_MYSORECA_server/emailAddress=121_MYSORECA@test_ca.com, O=CITRIX
        Subject Public Key Info:
            Public Key Algorithm: rsaEncryption
                Public-Key: (2048 bit)
                Modulus:
                    00:cf:e2:2e:99:52:f5:31:7e:0a:34:e7:fd:49:1f:
                    f0:43:fd:ff:65:06:ce:ad:f7:92:54:29:3c:72:55:
                    e7:34:0a:74:ef:a2:23:b9:8d:a3:3e:14:b4:2f:06:
                    61:fc:dd:a5:ae:23:a1:8b:28:30:e1:fa:9f:05:ab:
                    fa:73:2f:c6:38:13:b8:f0:48:6a:ca:fa:7a:a6:bf:
                    e7:d6:bd:a0:39:6e:99:c6:91:ff:40:45:a1:7d:ea:
                    9a:f2:4b:68:a7:fd:5b:33:9c:3a:46:ff:55:7e:9d:
                    fd:61:38:2e:f7:13:a5:1c:6f:40:ee:a9:a1:7b:b7:
                    ef:66:16:9a:23:d2:7a:27:f1:59:21:e2:2f:d1:e9:
                    8e:8b:c1:8b:11:19:96:c7:cd:2d:6c:02:b1:91:78:
                    f0:e4:b8:35:b9:85:4d:0c:37:e3:86:ab:95:72:e9:
                    09:07:34:00:3d:1a:37:4a:d6:0a:81:9b:3a:92:42:
                    b7:c9:c8:03:75:d8:a8:4e:1f:7e:ad:ae:b1:24:2f:
                    14:66:ee:d0:6c:78:10:5e:19:0a:91:e3:76:0e:ea:
                    85:40:98:6d:0b:77:d0:28:2d:fa:5d:14:53:3f:db:
                    61:29:23:97:bf:ff:8e:a4:fe:4d:48:9e:a7:2a:83:
                    bb:55:f4:a9:43:48:dc:57:4b:2a:46:6f:55:27:58:
                    3a:cb
                Exponent: 65537 (0x10001)
        X509v3 extensions:
            Netscape Cert Type: 
                SSL Server
            X509v3 Subject Key Identifier: 
                F9:B1:3B:0C:8C:EB:C2:65:1B:1F:02:4A:5F:7E:8C:FB:4F:CE:1D:B1
            X509v3 Authority Key Identifier: 
                keyid:C6:18:DA:E4:16:A1:1E:60:AE:18:00:F5:A7:DF:0A:8B:65:4D:36:95
                DirName:/CN=MYSORECA_CA/C=IN/O=CITRIX/OU=ANG/ST=KA/emailAddress=MYSORECA_CA@MYSORECA_mail.com
                serial:D5:74:54:E9:D5:CF:C9:F6

            Authority Information Access: 
                OCSP - URI:http://172.24.10.1/responderpath

    Signature Algorithm: sha256WithRSAEncryption
         68:d3:1f:5d:24:33:a5:fd:c9:44:92:4a:a5:0c:45:32:78:87:
         90:6d:70:57:90:fc:ab:d3:6f:0a:95:c5:bc:00:2d:9a:ec:f3:
         5b:91:91:3a:fb:84:ae:ef:e6:8c:fa:b1:28:ca:c5:71:58:9e:
         49:ff:17:eb:b7:54:fe:e1:8b:2a:51:70:be:ac:ce:e4:63:8f:
         3d:c9:ba:90:fa:b5:6c:79:eb:d5:b6:8d:6e:18:f0:07:78:b5:
         da:e5:33:79:4a:ab:85:23:75:4b:10:ca:e8:6a:f1:19:a4:c9:
         9d:bd:fd:d7:bb:67:77:34:06:e2:10:f5:36:d7:86:d9:fe:91:
         7e:ac:92:73:a8:58:31:89:1f:d0:be:a0:1b:1b:36:54:6a:5b:
         c0:13:99:59:53:cf:5d:14:db:f7:e4:50:1b:a8:b9:b8:5b:73:
         40:89:a3:ef:f7:21:ff:da:6e:30:dd:e6:4d:15:5e:9e:02:25:
         60:8f:60:bb:7c:55:36:da:d8:7e:e9:e2:62:e0:54:4f:9a:70:
         fa:a5:26:7d:0b:e5:1a:dd:2a:47:e0:99:b0:17:08:2f:f1:ba:
         b3:f8:f3:d9:ca:f1:56:ca:37:9d:c5:ea:dc:a9:b8:bf:3a:da:
         b0:47:98:b2:9d:37:81:96:8d:50:74:29:44:a9:d3:03:83:9f:
         7c:8a:4d:40
-----BEGIN CERTIFICATE-----
MIIEmDCCA4CgAwIBAgIGCgsMDQ4jMA0GCSqGSIb3DQEBCwUAMH0xFDASBgNVBAMU
C01ZU09SRUNBX0NBMQswCQYDVQQGEwJJTjEPMA0GA1UEChMGQ0lUUklYMQwwCgYD
VQQLEwNBTkcxCzAJBgNVBAgTAktBMSwwKgYJKoZIhvcNAQkBFh1NWVNPUkVDQV9D
QUBNWVNPUkVDQV9tYWlsLmNvbTAeFw0xNjA3MDgwNDM2MzVaFw0yNjA3MDYwNDM2
MzVaMHIxCzAJBgNVBAgTAktBMQswCQYDVQQGEwJJTjEcMBoGA1UEAxQTMTIxX01Z
U09SRUNBX3NlcnZlcjEnMCUGCSqGSIb3DQEJARYYMTIxX01ZU09SRUNBQHRlc3Rf
Y2EuY29tMQ8wDQYDVQQKEwZDSVRSSVgwggEiMA0GCSqGSIb3DQEBAQUAA4IBDwAw
ggEKAoIBAQDP4i6ZUvUxfgo05/1JH/BD/f9lBs6t95JUKTxyVec0CnTvoiO5jaM+
FLQvBmH83aWuI6GLKDDh+p8Fq/pzL8Y4E7jwSGrK+nqmv+fWvaA5bpnGkf9ARaF9
6pryS2in/VsznDpG/1V+nf1hOC73E6Ucb0DuqaF7t+9mFpoj0non8Vkh4i/R6Y6L
wYsRGZbHzS1sArGRePDkuDW5hU0MN+OGq5Vy6QkHNAA9GjdK1gqBmzqSQrfJyAN1
2KhOH36trrEkLxRm7tBseBBeGQqR43YO6oVAmG0Ld9AoLfpdFFM/22EpI5e//46k
/k1Inqcqg7tV9KlDSNxXSypGb1UnWDrLAgMBAAGjggEnMIIBIzARBglghkgBhvhC
AQEEBAMCBkAwHQYDVR0OBBYEFPmxOwyM68JlGx8CSl9+jPtPzh2xMIGwBgNVHSME
gagwgaWAFMYY2uQWoR5grhgA9affCotlTTaVoYGBpH8wfTEUMBIGA1UEAxQLTVlT
T1JFQ0FfQ0ExCzAJBgNVBAYTAklOMQ8wDQYDVQQKEwZDSVRSSVgxDDAKBgNVBAsT
A0FORzELMAkGA1UECBMCS0ExLDAqBgkqhkiG9w0BCQEWHU1ZU09SRUNBX0NBQE1Z
U09SRUNBX21haWwuY29tggkA1XRU6dXPyfYwPAYIKwYBBQUHAQEEMDAuMCwGCCsG
AQUFBzABhiBodHRwOi8vMTcyLjI0LjEwLjEvcmVzcG9uZGVycGF0aDANBgkqhkiG
9w0BAQsFAAOCAQEAaNMfXSQzpf3JRJJKpQxFMniHkG1wV5D8q9NvCpXFvAAtmuzz
W5GROvuEru/mjPqxKMrFcVieSf8X67dU/uGLKlFwvqzO5GOPPcm6kPq1bHnr1baN
bhjwB3i12uUzeUqrhSN1SxDK6GrxGaTJnb3917tndzQG4hD1NteG2f6RfqySc6hY
MYkf0L6gGxs2VGpbwBOZWVPPXRTb9+RQG6i5uFtzQImj7/ch/9puMN3mTRVengIl
YI9gu3xVNtrYfuniYuBUT5pw+qUmfQvlGt0qR+CZsBcIL/G6s/jz2crxVso3ncXq
3Km4vzrasEeYsp03gZaNUHQpRKnTA4OffIpNQA==
-----END CERTIFICATE-----
