Certificate:
    Data:
        Version: 3 (0x2)
        Serial Number: 11042563100182 (0xa0b0c0d0e16)
    Signature Algorithm: sha256WithRSAEncryption
        Issuer: CN=MYSORECA_CA, C=IN, O=CITRIX, OU=ANG, ST=KA/emailAddress=MYSORECA_CA@MYSORECA_mail.com
        Validity
            Not Before: Jul  8 04:36:31 2016 GMT
            Not After : Jul  6 04:36:31 2026 GMT
        Subject: ST=KA, C=IN, CN=108_MYSORECA_server/emailAddress=108_MYSORECA@test_ca.com, O=CITRIX
        Subject Public Key Info:
            Public Key Algorithm: rsaEncryption
                Public-Key: (2048 bit)
                Modulus:
                    00:c8:18:41:25:fd:7d:ba:76:04:e8:a8:e3:c6:e2:
                    e2:13:f6:00:06:e7:5e:c6:3b:b3:c4:f0:b9:08:d2:
                    b3:8d:61:01:d5:07:32:d4:2b:fe:23:1d:c1:4a:2e:
                    8b:52:f4:2a:30:89:15:69:47:6b:bb:66:d6:73:ec:
                    d0:13:84:ab:ac:6f:49:8a:2c:97:da:0b:28:88:ad:
                    2a:ca:2f:fa:37:50:9d:95:9b:52:f7:74:19:27:b9:
                    90:ef:c3:20:31:89:a3:aa:c5:56:4a:2a:45:7a:1d:
                    f5:19:c3:c0:fb:6f:58:c2:d7:58:c6:66:09:d2:e9:
                    35:45:d5:94:4e:e1:da:1f:c6:be:bd:87:35:00:0c:
                    26:22:68:75:cb:68:95:99:86:6b:56:c6:11:67:ff:
                    5b:a5:25:49:f4:48:00:9f:12:f5:c5:2a:6d:b4:ea:
                    5e:8a:d9:a8:7b:41:63:a4:f7:b7:07:7a:d2:b3:5f:
                    82:16:4e:72:43:2d:9d:72:5d:83:24:36:27:9b:92:
                    bc:38:a5:3d:f8:67:d8:26:49:95:d3:e6:85:6c:64:
                    2b:88:8e:df:6f:10:0f:9f:cc:c8:b1:c8:9e:06:77:
                    3d:a8:0b:73:8e:97:13:20:58:7b:af:bd:cd:5d:fe:
                    c9:18:20:79:c4:0b:02:f6:52:34:cf:8b:bf:20:4a:
                    04:37
                Exponent: 65537 (0x10001)
        X509v3 extensions:
            Netscape Cert Type: 
                SSL Server
            X509v3 Subject Key Identifier: 
                19:34:29:9C:A5:10:8A:CF:6D:7A:66:D8:7A:7F:C6:FA:B5:AC:34:72
            X509v3 Authority Key Identifier: 
                keyid:C6:18:DA:E4:16:A1:1E:60:AE:18:00:F5:A7:DF:0A:8B:65:4D:36:95
                DirName:/CN=MYSORECA_CA/C=IN/O=CITRIX/OU=ANG/ST=KA/emailAddress=MYSORECA_CA@MYSORECA_mail.com
                serial:D5:74:54:E9:D5:CF:C9:F6

            Authority Information Access: 
                OCSP - URI:http://MYSORECA_one.ocsptest.com/responderpath

    Signature Algorithm: sha256WithRSAEncryption
         5a:f0:6b:10:17:9f:82:61:99:9e:f7:4d:a6:04:31:a5:06:76:
         26:d6:09:32:4b:02:45:3f:ce:60:bd:c4:ba:90:d3:9e:d4:bd:
         c7:54:dd:f3:82:1f:5b:e7:94:a0:71:02:f9:5f:29:28:ae:76:
         52:30:04:31:bd:2d:14:51:60:d3:95:2e:b1:74:f9:c8:30:e0:
         65:17:0a:b7:ec:77:38:1b:c1:05:92:75:e1:be:70:42:79:47:
         95:16:a6:c8:d1:de:c1:21:2f:7f:60:57:2f:a6:36:48:6a:a1:
         7a:67:6e:0b:81:db:56:85:8a:11:f8:8b:7f:09:10:d6:b2:fc:
         31:24:a6:2c:b6:88:a8:47:9e:dc:83:d5:7f:46:14:5c:8a:b8:
         95:8e:50:69:2b:9e:31:32:aa:ed:56:f5:94:c1:bd:28:50:4e:
         79:10:68:9f:e8:86:e9:6c:16:37:72:fa:3d:1a:69:61:74:ab:
         6b:d8:d0:73:34:c4:fd:bb:f4:89:4b:b1:8c:2a:2e:96:2e:88:
         73:be:86:60:d5:e7:f6:5c:6a:8f:bb:01:9f:5e:5a:af:63:4c:
         f2:7b:8b:97:c6:fe:84:4d:be:e2:0c:52:ca:2b:11:6b:36:ea:
         a0:37:4f:fe:63:6b:b3:7a:02:12:2e:49:6a:d7:e7:4e:6a:8c:
         da:38:96:0c
-----BEGIN CERTIFICATE-----
MIIEpjCCA46gAwIBAgIGCgsMDQ4WMA0GCSqGSIb3DQEBCwUAMH0xFDASBgNVBAMU
C01ZU09SRUNBX0NBMQswCQYDVQQGEwJJTjEPMA0GA1UEChMGQ0lUUklYMQwwCgYD
VQQLEwNBTkcxCzAJBgNVBAgTAktBMSwwKgYJKoZIhvcNAQkBFh1NWVNPUkVDQV9D
QUBNWVNPUkVDQV9tYWlsLmNvbTAeFw0xNjA3MDgwNDM2MzFaFw0yNjA3MDYwNDM2
MzFaMHIxCzAJBgNVBAgTAktBMQswCQYDVQQGEwJJTjEcMBoGA1UEAxQTMTA4X01Z
U09SRUNBX3NlcnZlcjEnMCUGCSqGSIb3DQEJARYYMTA4X01ZU09SRUNBQHRlc3Rf
Y2EuY29tMQ8wDQYDVQQKEwZDSVRSSVgwggEiMA0GCSqGSIb3DQEBAQUAA4IBDwAw
ggEKAoIBAQDIGEEl/X26dgToqOPG4uIT9gAG517GO7PE8LkI0rONYQHVBzLUK/4j
HcFKLotS9CowiRVpR2u7ZtZz7NAThKusb0mKLJfaCyiIrSrKL/o3UJ2Vm1L3dBkn
uZDvwyAxiaOqxVZKKkV6HfUZw8D7b1jC11jGZgnS6TVF1ZRO4dofxr69hzUADCYi
aHXLaJWZhmtWxhFn/1ulJUn0SACfEvXFKm206l6K2ah7QWOk97cHetKzX4IWTnJD
LZ1yXYMkNiebkrw4pT34Z9gmSZXT5oVsZCuIjt9vEA+fzMixyJ4Gdz2oC3OOlxMg
WHuvvc1d/skYIHnECwL2UjTPi78gSgQ3AgMBAAGjggE1MIIBMTARBglghkgBhvhC
AQEEBAMCBkAwHQYDVR0OBBYEFBk0KZylEIrPbXpm2Hp/xvq1rDRyMIGwBgNVHSME
gagwgaWAFMYY2uQWoR5grhgA9affCotlTTaVoYGBpH8wfTEUMBIGA1UEAxQLTVlT
T1JFQ0FfQ0ExCzAJBgNVBAYTAklOMQ8wDQYDVQQKEwZDSVRSSVgxDDAKBgNVBAsT
A0FORzELMAkGA1UECBMCS0ExLDAqBgkqhkiG9w0BCQEWHU1ZU09SRUNBX0NBQE1Z
U09SRUNBX21haWwuY29tggkA1XRU6dXPyfYwSgYIKwYBBQUHAQEEPjA8MDoGCCsG
AQUFBzABhi5odHRwOi8vTVlTT1JFQ0Ffb25lLm9jc3B0ZXN0LmNvbS9yZXNwb25k
ZXJwYXRoMA0GCSqGSIb3DQEBCwUAA4IBAQBa8GsQF5+CYZme902mBDGlBnYm1gky
SwJFP85gvcS6kNOe1L3HVN3zgh9b55SgcQL5XykornZSMAQxvS0UUWDTlS6xdPnI
MOBlFwq37Hc4G8EFknXhvnBCeUeVFqbI0d7BIS9/YFcvpjZIaqF6Z24LgdtWhYoR
+It/CRDWsvwxJKYstoioR57cg9V/RhRciriVjlBpK54xMqrtVvWUwb0oUE55EGif
6IbpbBY3cvo9GmlhdKtr2NBzNMT9u/SJS7GMKi6WLohzvoZg1ef2XGqPuwGfXlqv
Y0zye4uXxv6ETb7iDFLKKxFrNuqgN0/+Y2uzegISLklq1+dOaozaOJYM
-----END CERTIFICATE-----
