Certificate:
    Data:
        Version: 3 (0x2)
        Serial Number: 11042563100179 (0xa0b0c0d0e13)
    Signature Algorithm: sha256WithRSAEncryption
        Issuer: CN=MYSORECA_CA, C=IN, O=CITRIX, OU=ANG, ST=KA/emailAddress=MYSORECA_CA@MYSORECA_mail.com
        Validity
            Not Before: Jul  8 04:36:31 2016 GMT
            Not After : Jul  6 04:36:31 2026 GMT
        Subject: ST=KA, C=IN, CN=105_MYSORECA_server/emailAddress=105_MYSORECA@test_ca.com, O=CITRIX
        Subject Public Key Info:
            Public Key Algorithm: rsaEncryption
                Public-Key: (2048 bit)
                Modulus:
                    00:c4:4d:6f:c4:16:27:53:8e:42:d9:68:85:ad:9d:
                    0f:b1:40:7b:3e:2d:14:38:9f:87:d9:5f:5c:67:26:
                    91:df:2c:7c:27:1a:30:c7:a8:29:f1:f1:01:58:18:
                    ba:8a:a0:af:b4:1a:c0:5c:2d:58:7a:0e:32:1d:77:
                    c6:da:28:7e:cc:97:dd:83:b5:0d:82:05:81:04:79:
                    8c:aa:14:22:02:bb:d2:f4:c1:89:3d:43:28:d5:95:
                    bf:48:0b:9c:f7:c6:0f:de:65:95:3d:a0:b0:ac:6a:
                    8c:b6:30:9f:61:19:71:f3:40:ad:f5:99:28:4a:22:
                    1b:bd:b1:6c:c1:88:1b:81:10:df:e5:51:8a:91:b3:
                    8d:76:b0:e5:ba:f9:6a:44:ee:0b:be:b0:39:40:7d:
                    c9:d7:64:39:39:ce:fc:e8:11:e8:b6:fb:d0:74:70:
                    20:5f:ea:01:5b:0d:c5:9d:b2:12:eb:ce:03:ba:9a:
                    14:3c:49:80:5f:b2:65:98:c9:d4:ef:4e:53:73:a6:
                    52:e1:1d:d0:95:89:ab:35:f4:c8:c1:0d:3b:17:01:
                    a0:a2:7e:f0:0f:47:51:1d:d5:c9:8e:de:3f:5f:74:
                    15:fd:fc:07:da:75:67:85:5e:ed:c7:b3:6e:1a:04:
                    c2:a8:bb:21:43:ec:dc:65:02:ea:ce:ac:94:1a:62:
                    bd:49
                Exponent: 65537 (0x10001)
        X509v3 extensions:
            Netscape Cert Type: 
                SSL Server
            X509v3 Subject Key Identifier: 
                2E:AB:FF:39:DE:5B:23:EC:71:3A:D1:08:49:3A:44:8A:CB:7A:B2:1E
            X509v3 Authority Key Identifier: 
                keyid:C6:18:DA:E4:16:A1:1E:60:AE:18:00:F5:A7:DF:0A:8B:65:4D:36:95
                DirName:/CN=MYSORECA_CA/C=IN/O=CITRIX/OU=ANG/ST=KA/emailAddress=MYSORECA_CA@MYSORECA_mail.com
                serial:D5:74:54:E9:D5:CF:C9:F6

            Authority Information Access: 
                OCSP - URI:http://MYSORECA_one.ocsptest.com/responderpath

    Signature Algorithm: sha256WithRSAEncryption
         91:b2:f4:e1:b1:7e:1d:ca:83:d0:e3:41:74:db:e5:4d:a7:1d:
         c9:36:10:c9:7a:5e:78:7e:5d:26:3b:4c:9d:33:c3:d9:2a:63:
         eb:f0:f5:b4:ed:00:5a:dc:35:e1:30:45:66:d7:24:c5:de:a7:
         14:a8:3a:2d:21:a6:ee:da:c8:c1:7b:62:ff:49:67:37:5e:b8:
         7a:fc:be:96:12:db:f4:38:53:55:a7:00:47:7d:9e:e3:db:92:
         cb:29:94:b3:3d:c1:4e:6c:cf:89:6d:35:96:d6:aa:e2:69:52:
         a9:9e:f3:58:d6:c9:81:6d:ac:09:0e:bc:65:75:82:5e:57:e7:
         e7:c2:36:07:36:42:f0:fa:bb:e8:91:b1:05:0e:22:92:b7:7a:
         c0:a3:d9:0d:89:c7:61:ec:13:c5:c1:87:aa:49:44:e6:aa:43:
         13:0d:7c:2b:40:ed:67:a4:d7:0f:87:be:60:41:34:7e:ed:5b:
         91:7c:50:b6:ef:63:5c:c3:85:33:5a:e7:2c:39:c9:c7:79:db:
         85:9c:ed:35:b1:c7:a2:dc:8f:7e:ca:1e:06:7e:a1:21:05:ca:
         a3:b1:70:7b:e9:4e:34:f3:08:83:0b:4c:a4:15:57:9d:b5:14:
         d9:6a:47:a1:76:fa:72:6c:3d:6d:69:40:a0:29:94:03:69:71:
         ba:33:aa:54
-----BEGIN CERTIFICATE-----
MIIEpjCCA46gAwIBAgIGCgsMDQ4TMA0GCSqGSIb3DQEBCwUAMH0xFDASBgNVBAMU
C01ZU09SRUNBX0NBMQswCQYDVQQGEwJJTjEPMA0GA1UEChMGQ0lUUklYMQwwCgYD
VQQLEwNBTkcxCzAJBgNVBAgTAktBMSwwKgYJKoZIhvcNAQkBFh1NWVNPUkVDQV9D
QUBNWVNPUkVDQV9tYWlsLmNvbTAeFw0xNjA3MDgwNDM2MzFaFw0yNjA3MDYwNDM2
MzFaMHIxCzAJBgNVBAgTAktBMQswCQYDVQQGEwJJTjEcMBoGA1UEAxQTMTA1X01Z
U09SRUNBX3NlcnZlcjEnMCUGCSqGSIb3DQEJARYYMTA1X01ZU09SRUNBQHRlc3Rf
Y2EuY29tMQ8wDQYDVQQKEwZDSVRSSVgwggEiMA0GCSqGSIb3DQEBAQUAA4IBDwAw
ggEKAoIBAQDETW/EFidTjkLZaIWtnQ+xQHs+LRQ4n4fZX1xnJpHfLHwnGjDHqCnx
8QFYGLqKoK+0GsBcLVh6DjIdd8baKH7Ml92DtQ2CBYEEeYyqFCICu9L0wYk9QyjV
lb9IC5z3xg/eZZU9oLCsaoy2MJ9hGXHzQK31mShKIhu9sWzBiBuBEN/lUYqRs412
sOW6+WpE7gu+sDlAfcnXZDk5zvzoEei2+9B0cCBf6gFbDcWdshLrzgO6mhQ8SYBf
smWYydTvTlNzplLhHdCVias19MjBDTsXAaCifvAPR1Ed1cmO3j9fdBX9/AfadWeF
Xu3Hs24aBMKouyFD7NxlAurOrJQaYr1JAgMBAAGjggE1MIIBMTARBglghkgBhvhC
AQEEBAMCBkAwHQYDVR0OBBYEFC6r/zneWyPscTrRCEk6RIrLerIeMIGwBgNVHSME
gagwgaWAFMYY2uQWoR5grhgA9affCotlTTaVoYGBpH8wfTEUMBIGA1UEAxQLTVlT
T1JFQ0FfQ0ExCzAJBgNVBAYTAklOMQ8wDQYDVQQKEwZDSVRSSVgxDDAKBgNVBAsT
A0FORzELMAkGA1UECBMCS0ExLDAqBgkqhkiG9w0BCQEWHU1ZU09SRUNBX0NBQE1Z
U09SRUNBX21haWwuY29tggkA1XRU6dXPyfYwSgYIKwYBBQUHAQEEPjA8MDoGCCsG
AQUFBzABhi5odHRwOi8vTVlTT1JFQ0Ffb25lLm9jc3B0ZXN0LmNvbS9yZXNwb25k
ZXJwYXRoMA0GCSqGSIb3DQEBCwUAA4IBAQCRsvThsX4dyoPQ40F02+VNpx3JNhDJ
el54fl0mO0ydM8PZKmPr8PW07QBa3DXhMEVm1yTF3qcUqDotIabu2sjBe2L/SWc3
Xrh6/L6WEtv0OFNVpwBHfZ7j25LLKZSzPcFObM+JbTWW1qriaVKpnvNY1smBbawJ
DrxldYJeV+fnwjYHNkLw+rvokbEFDiKSt3rAo9kNicdh7BPFwYeqSUTmqkMTDXwr
QO1npNcPh75gQTR+7VuRfFC272Ncw4UzWucsOcnHeduFnO01scei3I9+yh4GfqEh
BcqjsXB76U408wiDC0ykFVedtRTZakehdvpybD1taUCgKZQDaXG6M6pU
-----END CERTIFICATE-----
