Certificate:
    Data:
        Version: 3 (0x2)
        Serial Number: 11042563100210 (0xa0b0c0d0e32)
    Signature Algorithm: sha256WithRSAEncryption
        Issuer: CN=MYSORECA_CA, C=IN, O=CITRIX, OU=ANG, ST=KA/emailAddress=MYSORECA_CA@MYSORECA_mail.com
        Validity
            Not Before: Jul  8 04:36:39 2016 GMT
            Not After : Jul  6 04:36:39 2026 GMT
        Subject: ST=KA, C=IN, CN=136_MYSORECA_server/emailAddress=136_MYSORECA@test_ca.com, O=CITRIX
        Subject Public Key Info:
            Public Key Algorithm: rsaEncryption
                Public-Key: (2048 bit)
                Modulus:
                    00:ca:57:86:b5:f8:a0:e0:ae:a6:99:52:5e:d7:46:
                    98:9e:84:b8:62:aa:97:05:21:d0:a3:0a:9c:92:00:
                    bb:ca:17:79:ae:9c:93:88:3c:77:f2:4f:f8:11:72:
                    02:82:bc:ae:31:4e:d1:d5:bc:95:5b:d3:9a:b5:c6:
                    3d:b1:12:2f:18:c4:aa:15:b1:fa:ce:72:d8:b0:8c:
                    d7:67:9d:f4:8d:58:72:17:10:b9:46:27:a2:b9:21:
                    d4:08:ce:37:8b:97:24:be:78:f3:4c:92:7d:4a:60:
                    96:74:ea:e2:4a:18:f7:84:12:0e:e6:46:48:db:49:
                    5a:87:85:8d:01:02:b7:c7:89:4d:8c:5d:92:66:5f:
                    fe:78:a1:27:bb:c7:cb:8d:cf:b7:86:c1:30:f7:d5:
                    c9:41:ec:cd:58:ff:71:15:ef:db:82:ec:60:e1:af:
                    f6:67:56:92:59:45:3a:72:22:bc:a4:3d:4b:3f:2a:
                    b4:fe:9e:53:42:7f:80:15:27:57:12:1d:4f:23:a2:
                    35:41:55:68:de:7e:c6:a7:51:61:47:dd:26:38:3b:
                    1f:53:bd:95:7f:c3:cb:47:d2:c8:ba:ad:98:2f:94:
                    eb:c9:a3:3d:96:09:06:35:fb:7b:79:0e:64:1c:40:
                    74:93:b2:bd:48:41:e7:42:4e:72:9b:dd:27:d5:a2:
                    63:9d
                Exponent: 65537 (0x10001)
        X509v3 extensions:
            Netscape Cert Type: 
                SSL Server
            X509v3 Subject Key Identifier: 
                6E:3A:06:B2:B7:B7:6A:AD:6F:AE:1D:3C:0D:01:69:68:A6:AA:07:CC
            X509v3 Authority Key Identifier: 
                keyid:C6:18:DA:E4:16:A1:1E:60:AE:18:00:F5:A7:DF:0A:8B:65:4D:36:95
                DirName:/CN=MYSORECA_CA/C=IN/O=CITRIX/OU=ANG/ST=KA/emailAddress=MYSORECA_CA@MYSORECA_mail.com
                serial:D5:74:54:E9:D5:CF:C9:F6

            Authority Information Access: 
                OCSP - URI:http://172.24.20.1/responderpath

    Signature Algorithm: sha256WithRSAEncryption
         19:04:04:70:7e:53:ab:ac:8e:4c:45:b0:3e:c4:6e:e8:0a:f1:
         ac:15:16:97:f8:2f:82:1d:08:1f:61:e7:70:91:7a:99:a4:37:
         a2:7d:01:ba:95:2e:9e:88:9d:4e:35:b8:03:6d:5c:80:06:68:
         09:8a:dd:d3:6f:90:b0:5f:23:00:25:bb:bc:18:21:6f:1c:35:
         d3:2e:ee:b0:dd:6e:d3:96:c1:20:fa:a2:38:49:62:2d:e5:6c:
         75:ef:49:8d:a4:45:c8:fb:59:d6:e4:c9:e8:ae:1c:00:c1:fc:
         4c:ed:3c:ef:fa:e3:ea:be:d8:10:e9:7b:22:56:c0:77:7f:79:
         c9:33:4a:54:37:b8:c9:6d:ef:ad:f4:78:8d:a5:aa:20:6b:50:
         8e:48:f4:a3:21:d2:ac:32:a6:cd:ca:f3:7b:f9:74:4c:e3:f2:
         fa:19:e9:b4:ca:34:dd:83:66:ed:53:07:b8:ae:2b:5e:bb:23:
         b0:6c:37:62:fd:a5:61:50:53:3f:c6:d7:b6:38:f9:19:9d:73:
         b8:4b:3a:a0:b1:27:34:b0:1c:7a:0d:97:b1:9b:ae:2a:a2:93:
         d5:9a:41:0b:78:a0:d6:7e:92:b0:1f:e0:fb:51:d7:79:d3:89:
         85:b9:9e:74:77:17:81:aa:bb:b8:ad:09:72:f1:36:b3:50:85:
         fc:0b:9a:92
-----BEGIN CERTIFICATE-----
MIIEmDCCA4CgAwIBAgIGCgsMDQ4yMA0GCSqGSIb3DQEBCwUAMH0xFDASBgNVBAMU
C01ZU09SRUNBX0NBMQswCQYDVQQGEwJJTjEPMA0GA1UEChMGQ0lUUklYMQwwCgYD
VQQLEwNBTkcxCzAJBgNVBAgTAktBMSwwKgYJKoZIhvcNAQkBFh1NWVNPUkVDQV9D
QUBNWVNPUkVDQV9tYWlsLmNvbTAeFw0xNjA3MDgwNDM2MzlaFw0yNjA3MDYwNDM2
MzlaMHIxCzAJBgNVBAgTAktBMQswCQYDVQQGEwJJTjEcMBoGA1UEAxQTMTM2X01Z
U09SRUNBX3NlcnZlcjEnMCUGCSqGSIb3DQEJARYYMTM2X01ZU09SRUNBQHRlc3Rf
Y2EuY29tMQ8wDQYDVQQKEwZDSVRSSVgwggEiMA0GCSqGSIb3DQEBAQUAA4IBDwAw
ggEKAoIBAQDKV4a1+KDgrqaZUl7XRpiehLhiqpcFIdCjCpySALvKF3munJOIPHfy
T/gRcgKCvK4xTtHVvJVb05q1xj2xEi8YxKoVsfrOctiwjNdnnfSNWHIXELlGJ6K5
IdQIzjeLlyS+ePNMkn1KYJZ06uJKGPeEEg7mRkjbSVqHhY0BArfHiU2MXZJmX/54
oSe7x8uNz7eGwTD31clB7M1Y/3EV79uC7GDhr/ZnVpJZRTpyIrykPUs/KrT+nlNC
f4AVJ1cSHU8jojVBVWjefsanUWFH3SY4Ox9TvZV/w8tH0si6rZgvlOvJoz2WCQY1
+3t5DmQcQHSTsr1IQedCTnKb3SfVomOdAgMBAAGjggEnMIIBIzARBglghkgBhvhC
AQEEBAMCBkAwHQYDVR0OBBYEFG46BrK3t2qtb64dPA0BaWimqgfMMIGwBgNVHSME
gagwgaWAFMYY2uQWoR5grhgA9affCotlTTaVoYGBpH8wfTEUMBIGA1UEAxQLTVlT
T1JFQ0FfQ0ExCzAJBgNVBAYTAklOMQ8wDQYDVQQKEwZDSVRSSVgxDDAKBgNVBAsT
A0FORzELMAkGA1UECBMCS0ExLDAqBgkqhkiG9w0BCQEWHU1ZU09SRUNBX0NBQE1Z
U09SRUNBX21haWwuY29tggkA1XRU6dXPyfYwPAYIKwYBBQUHAQEEMDAuMCwGCCsG
AQUFBzABhiBodHRwOi8vMTcyLjI0LjIwLjEvcmVzcG9uZGVycGF0aDANBgkqhkiG
9w0BAQsFAAOCAQEAGQQEcH5Tq6yOTEWwPsRu6ArxrBUWl/gvgh0IH2HncJF6maQ3
on0BupUunoidTjW4A21cgAZoCYrd02+QsF8jACW7vBghbxw10y7usN1u05bBIPqi
OEliLeVsde9JjaRFyPtZ1uTJ6K4cAMH8TO087/rj6r7YEOl7IlbAd395yTNKVDe4
yW3vrfR4jaWqIGtQjkj0oyHSrDKmzcrze/l0TOPy+hnptMo03YNm7VMHuK4rXrsj
sGw3Yv2lYVBTP8bXtjj5GZ1zuEs6oLEnNLAceg2XsZuuKqKT1ZpBC3ig1n6SsB/g
+1HXedOJhbmedHcXgaq7uK0JcvE2s1CF/Auakg==
-----END CERTIFICATE-----
