Certificate:
    Data:
        Version: 3 (0x2)
        Serial Number: 11042563100200 (0xa0b0c0d0e28)
    Signature Algorithm: sha256WithRSAEncryption
        Issuer: CN=MYSORECA_CA, C=IN, O=CITRIX, OU=ANG, ST=KA/emailAddress=MYSORECA_CA@MYSORECA_mail.com
        Validity
            Not Before: Jul  8 04:36:36 2016 GMT
            Not After : Jul  6 04:36:36 2026 GMT
        Subject: ST=KA, C=IN, CN=126_MYSORECA_server/emailAddress=126_MYSORECA@test_ca.com, O=CITRIX
        Subject Public Key Info:
            Public Key Algorithm: rsaEncryption
                Public-Key: (2048 bit)
                Modulus:
                    00:a5:cf:68:3c:65:c2:99:76:4d:8f:0d:02:de:51:
                    77:c3:a6:78:32:ad:b7:0b:94:86:db:0f:7e:d5:cf:
                    07:cc:25:53:7f:f7:15:44:4e:86:04:be:05:f0:40:
                    b7:f2:4a:82:3c:4c:cf:39:62:c8:82:a6:cb:d7:29:
                    b1:2c:c6:f0:b5:f6:e2:c2:e3:1b:31:15:9b:d0:db:
                    42:27:2f:35:01:f4:31:49:55:b4:eb:40:de:10:9b:
                    8d:0f:1a:df:60:e6:45:28:4b:58:84:f5:bb:49:63:
                    95:06:85:fa:fc:cf:3c:8c:9b:e0:b6:58:41:ad:0b:
                    cb:cc:c7:b8:0c:93:1f:9a:a7:2c:a0:60:bc:9f:fc:
                    d7:b3:85:80:05:b4:16:51:28:df:14:bd:8f:4b:d1:
                    3e:29:b0:15:02:bc:38:ee:51:fc:d8:13:5e:c3:73:
                    50:0d:b7:f8:24:44:62:82:bb:d6:a0:b8:41:9c:24:
                    6b:ba:f0:0a:2c:df:9f:17:8f:9c:e8:de:63:ef:27:
                    8b:9f:0f:a3:2c:16:ee:e2:78:a6:e8:46:22:60:7a:
                    e4:3f:7f:62:75:e9:f4:31:ed:64:d6:d1:d8:cd:6f:
                    a3:11:dc:73:1f:70:4c:70:77:c6:16:0b:1f:ad:6c:
                    89:fa:1b:6f:78:5b:70:80:e4:55:bf:ba:75:d6:4f:
                    c3:71
                Exponent: 65537 (0x10001)
        X509v3 extensions:
            Netscape Cert Type: 
                SSL Server
            X509v3 Subject Key Identifier: 
                4F:90:9E:75:86:5F:A5:BE:39:F5:34:EF:A8:EC:A3:4F:0E:61:08:EF
            X509v3 Authority Key Identifier: 
                keyid:C6:18:DA:E4:16:A1:1E:60:AE:18:00:F5:A7:DF:0A:8B:65:4D:36:95
                DirName:/CN=MYSORECA_CA/C=IN/O=CITRIX/OU=ANG/ST=KA/emailAddress=MYSORECA_CA@MYSORECA_mail.com
                serial:D5:74:54:E9:D5:CF:C9:F6

            Authority Information Access: 
                OCSP - URI:http://172.24.10.1/responderpath

    Signature Algorithm: sha256WithRSAEncryption
         11:6a:ce:f2:61:08:3f:e0:56:a0:7e:44:cb:d5:50:46:5e:67:
         bc:30:35:17:25:20:75:2e:46:a0:b4:fb:e3:33:f1:aa:d8:9d:
         16:68:b5:a5:ca:80:90:56:d2:94:58:99:92:81:c2:b4:18:2e:
         06:a8:88:5d:df:46:85:72:e9:c9:0d:96:13:7e:00:14:4b:53:
         6c:45:26:2f:45:ef:f7:36:35:9d:a3:b4:b8:1e:7c:eb:c7:8a:
         0d:84:c9:99:96:d2:a1:eb:2a:ff:5e:12:7c:04:fb:79:23:1a:
         e9:27:09:0b:23:47:f6:47:89:63:15:21:f7:fd:57:64:89:18:
         82:02:4b:19:30:8a:86:eb:61:4b:db:93:cd:bb:4f:31:35:de:
         87:9c:64:90:78:8b:0f:e4:0b:2c:1d:d4:83:4f:30:12:f5:e6:
         a0:4f:37:dc:c4:48:3f:99:5f:37:6f:97:dd:c9:95:86:1a:04:
         be:00:d0:f4:02:4d:76:f6:d1:bf:9e:45:a9:e4:00:f4:9d:b0:
         43:c8:9a:b3:6a:a5:4d:85:9c:8f:ce:36:f9:88:95:5d:3b:ba:
         70:09:65:5d:04:6c:89:63:c6:9e:b4:5a:93:2c:8c:2f:2e:45:
         33:d4:05:e2:18:68:7c:3e:fb:52:8a:b6:d3:fb:86:15:ac:ed:
         07:06:6f:78
-----BEGIN CERTIFICATE-----
MIIEmDCCA4CgAwIBAgIGCgsMDQ4oMA0GCSqGSIb3DQEBCwUAMH0xFDASBgNVBAMU
C01ZU09SRUNBX0NBMQswCQYDVQQGEwJJTjEPMA0GA1UEChMGQ0lUUklYMQwwCgYD
VQQLEwNBTkcxCzAJBgNVBAgTAktBMSwwKgYJKoZIhvcNAQkBFh1NWVNPUkVDQV9D
QUBNWVNPUkVDQV9tYWlsLmNvbTAeFw0xNjA3MDgwNDM2MzZaFw0yNjA3MDYwNDM2
MzZaMHIxCzAJBgNVBAgTAktBMQswCQYDVQQGEwJJTjEcMBoGA1UEAxQTMTI2X01Z
U09SRUNBX3NlcnZlcjEnMCUGCSqGSIb3DQEJARYYMTI2X01ZU09SRUNBQHRlc3Rf
Y2EuY29tMQ8wDQYDVQQKEwZDSVRSSVgwggEiMA0GCSqGSIb3DQEBAQUAA4IBDwAw
ggEKAoIBAQClz2g8ZcKZdk2PDQLeUXfDpngyrbcLlIbbD37VzwfMJVN/9xVEToYE
vgXwQLfySoI8TM85YsiCpsvXKbEsxvC19uLC4xsxFZvQ20InLzUB9DFJVbTrQN4Q
m40PGt9g5kUoS1iE9btJY5UGhfr8zzyMm+C2WEGtC8vMx7gMkx+apyygYLyf/Nez
hYAFtBZRKN8UvY9L0T4psBUCvDjuUfzYE17Dc1ANt/gkRGKCu9aguEGcJGu68Aos
358Xj5zo3mPvJ4ufD6MsFu7ieKboRiJgeuQ/f2J16fQx7WTW0djNb6MR3HMfcExw
d8YWCx+tbIn6G294W3CA5FW/unXWT8NxAgMBAAGjggEnMIIBIzARBglghkgBhvhC
AQEEBAMCBkAwHQYDVR0OBBYEFE+QnnWGX6W+OfU076jso08OYQjvMIGwBgNVHSME
gagwgaWAFMYY2uQWoR5grhgA9affCotlTTaVoYGBpH8wfTEUMBIGA1UEAxQLTVlT
T1JFQ0FfQ0ExCzAJBgNVBAYTAklOMQ8wDQYDVQQKEwZDSVRSSVgxDDAKBgNVBAsT
A0FORzELMAkGA1UECBMCS0ExLDAqBgkqhkiG9w0BCQEWHU1ZU09SRUNBX0NBQE1Z
U09SRUNBX21haWwuY29tggkA1XRU6dXPyfYwPAYIKwYBBQUHAQEEMDAuMCwGCCsG
AQUFBzABhiBodHRwOi8vMTcyLjI0LjEwLjEvcmVzcG9uZGVycGF0aDANBgkqhkiG
9w0BAQsFAAOCAQEAEWrO8mEIP+BWoH5Ey9VQRl5nvDA1FyUgdS5GoLT74zPxqtid
Fmi1pcqAkFbSlFiZkoHCtBguBqiIXd9GhXLpyQ2WE34AFEtTbEUmL0Xv9zY1naO0
uB5868eKDYTJmZbSoesq/14SfAT7eSMa6ScJCyNH9keJYxUh9/1XZIkYggJLGTCK
huthS9uTzbtPMTXeh5xkkHiLD+QLLB3Ug08wEvXmoE833MRIP5lfN2+X3cmVhhoE
vgDQ9AJNdvbRv55FqeQA9J2wQ8ias2qlTYWcj842+YiVXTu6cAllXQRsiWPGnrRa
kyyMLy5FM9QF4hhofD77Uoq20/uGFaztBwZveA==
-----END CERTIFICATE-----
