Certificate:
    Data:
        Version: 3 (0x2)
        Serial Number: 11042563100184 (0xa0b0c0d0e18)
    Signature Algorithm: sha256WithRSAEncryption
        Issuer: CN=MYSORECA_CA, C=IN, O=CITRIX, OU=ANG, ST=KA/emailAddress=MYSORECA_CA@MYSORECA_mail.com
        Validity
            Not Before: Jul  8 04:36:32 2016 GMT
            Not After : Jul  6 04:36:32 2026 GMT
        Subject: ST=KA, C=IN, CN=110_MYSORECA_server/emailAddress=110_MYSORECA@test_ca.com, O=CITRIX
        Subject Public Key Info:
            Public Key Algorithm: rsaEncryption
                Public-Key: (2048 bit)
                Modulus:
                    00:c3:8c:34:ee:22:d5:fb:90:f8:62:9e:4a:91:68:
                    5b:86:1d:ba:ef:bb:e1:eb:a5:73:d4:66:37:ee:dc:
                    79:5f:3f:b9:6d:31:8b:fc:21:b6:4d:c2:19:aa:bd:
                    0f:8e:76:80:dc:dd:c5:04:89:d3:4f:70:3f:f8:5a:
                    0b:db:90:2e:f4:55:96:0b:b8:b3:19:a6:45:59:be:
                    d0:62:65:fc:b8:c2:2c:a7:b4:df:73:e9:40:1d:f1:
                    b4:ee:d5:34:c0:a2:f6:8c:ce:10:13:bb:4e:72:ff:
                    43:cc:ae:75:e0:d0:58:e6:68:0c:ff:05:c5:14:e8:
                    43:89:f7:a9:59:65:47:73:31:1f:51:2f:84:ad:60:
                    33:be:e8:c7:2e:7f:49:d5:2d:1d:81:01:df:4f:96:
                    0a:72:9e:f1:89:dc:d4:9f:6d:bc:42:91:2b:0d:0e:
                    45:4c:54:f5:a3:ed:45:43:7c:aa:44:20:d3:41:35:
                    6e:42:0e:85:cb:95:3c:77:55:89:29:9a:46:ca:27:
                    c2:4c:18:59:5b:ff:6a:d1:c2:7c:03:7d:e4:62:e7:
                    ec:12:65:48:6e:a9:9f:22:1f:f5:c4:f7:06:1c:ee:
                    28:89:0f:c5:dc:8e:e8:94:43:59:19:81:af:0f:9f:
                    21:65:a0:b9:0d:61:47:52:9c:7c:48:35:42:a1:60:
                    2c:75
                Exponent: 65537 (0x10001)
        X509v3 extensions:
            Netscape Cert Type: 
                SSL Server
            X509v3 Subject Key Identifier: 
                EE:2B:E7:9A:F8:FF:E7:0F:07:BC:C8:CB:03:C9:9C:A2:F9:C8:C9:1B
            X509v3 Authority Key Identifier: 
                keyid:C6:18:DA:E4:16:A1:1E:60:AE:18:00:F5:A7:DF:0A:8B:65:4D:36:95
                DirName:/CN=MYSORECA_CA/C=IN/O=CITRIX/OU=ANG/ST=KA/emailAddress=MYSORECA_CA@MYSORECA_mail.com
                serial:D5:74:54:E9:D5:CF:C9:F6

            Authority Information Access: 
                OCSP - URI:http://MYSORECA_one.ocsptest.com/responderpath

    Signature Algorithm: sha256WithRSAEncryption
         25:4f:92:ee:2c:4a:7c:34:45:3e:51:74:16:5f:64:00:ea:5d:
         7a:f5:c9:cc:aa:4d:ff:89:90:dd:90:7e:f9:90:56:86:07:eb:
         c0:51:80:ed:96:3f:12:b3:e0:67:3d:34:75:4d:31:20:38:6b:
         b6:f2:84:75:da:48:e0:8d:31:f3:7e:22:f1:f5:0f:37:10:8e:
         5c:78:a3:7a:b2:b2:b6:1a:6c:05:7d:83:e1:e2:9d:83:c9:28:
         5e:fc:d6:f2:81:b0:0b:b8:73:30:40:5f:75:96:0c:ab:a0:70:
         b2:13:65:9e:a4:b8:f4:56:71:bd:63:2c:0a:75:b6:9f:4e:17:
         e4:3f:1e:61:08:5d:89:87:72:a7:e8:8e:e5:50:ca:f2:24:0a:
         d0:a9:d9:23:68:5d:92:9a:85:95:01:41:15:56:45:69:ba:dc:
         d9:5a:d9:db:65:a5:12:50:31:43:e6:b9:f3:78:3c:f5:af:be:
         d2:88:09:d1:b7:c9:54:38:24:e0:af:b6:b4:12:1e:b2:02:6d:
         3a:47:2e:87:86:10:55:3d:58:15:09:70:46:e0:74:6d:1c:e6:
         29:20:60:51:21:d2:73:90:a8:b2:56:3a:c3:0b:e6:bb:89:a3:
         f6:cb:f7:43:b0:86:d5:99:b9:da:f0:00:86:c9:bc:b1:a2:fd:
         ee:6a:96:d6
-----BEGIN CERTIFICATE-----
MIIEpjCCA46gAwIBAgIGCgsMDQ4YMA0GCSqGSIb3DQEBCwUAMH0xFDASBgNVBAMU
C01ZU09SRUNBX0NBMQswCQYDVQQGEwJJTjEPMA0GA1UEChMGQ0lUUklYMQwwCgYD
VQQLEwNBTkcxCzAJBgNVBAgTAktBMSwwKgYJKoZIhvcNAQkBFh1NWVNPUkVDQV9D
QUBNWVNPUkVDQV9tYWlsLmNvbTAeFw0xNjA3MDgwNDM2MzJaFw0yNjA3MDYwNDM2
MzJaMHIxCzAJBgNVBAgTAktBMQswCQYDVQQGEwJJTjEcMBoGA1UEAxQTMTEwX01Z
U09SRUNBX3NlcnZlcjEnMCUGCSqGSIb3DQEJARYYMTEwX01ZU09SRUNBQHRlc3Rf
Y2EuY29tMQ8wDQYDVQQKEwZDSVRSSVgwggEiMA0GCSqGSIb3DQEBAQUAA4IBDwAw
ggEKAoIBAQDDjDTuItX7kPhinkqRaFuGHbrvu+HrpXPUZjfu3HlfP7ltMYv8IbZN
whmqvQ+OdoDc3cUEidNPcD/4WgvbkC70VZYLuLMZpkVZvtBiZfy4wiyntN9z6UAd
8bTu1TTAovaMzhATu05y/0PMrnXg0FjmaAz/BcUU6EOJ96lZZUdzMR9RL4StYDO+
6Mcuf0nVLR2BAd9PlgpynvGJ3NSfbbxCkSsNDkVMVPWj7UVDfKpEINNBNW5CDoXL
lTx3VYkpmkbKJ8JMGFlb/2rRwnwDfeRi5+wSZUhuqZ8iH/XE9wYc7iiJD8XcjuiU
Q1kZga8PnyFloLkNYUdSnHxINUKhYCx1AgMBAAGjggE1MIIBMTARBglghkgBhvhC
AQEEBAMCBkAwHQYDVR0OBBYEFO4r55r4/+cPB7zIywPJnKL5yMkbMIGwBgNVHSME
gagwgaWAFMYY2uQWoR5grhgA9affCotlTTaVoYGBpH8wfTEUMBIGA1UEAxQLTVlT
T1JFQ0FfQ0ExCzAJBgNVBAYTAklOMQ8wDQYDVQQKEwZDSVRSSVgxDDAKBgNVBAsT
A0FORzELMAkGA1UECBMCS0ExLDAqBgkqhkiG9w0BCQEWHU1ZU09SRUNBX0NBQE1Z
U09SRUNBX21haWwuY29tggkA1XRU6dXPyfYwSgYIKwYBBQUHAQEEPjA8MDoGCCsG
AQUFBzABhi5odHRwOi8vTVlTT1JFQ0Ffb25lLm9jc3B0ZXN0LmNvbS9yZXNwb25k
ZXJwYXRoMA0GCSqGSIb3DQEBCwUAA4IBAQAlT5LuLEp8NEU+UXQWX2QA6l169cnM
qk3/iZDdkH75kFaGB+vAUYDtlj8Ss+BnPTR1TTEgOGu28oR12kjgjTHzfiLx9Q83
EI5ceKN6srK2GmwFfYPh4p2DyShe/NbygbALuHMwQF91lgyroHCyE2WepLj0VnG9
YywKdbafThfkPx5hCF2Jh3Kn6I7lUMryJArQqdkjaF2SmoWVAUEVVkVputzZWtnb
ZaUSUDFD5rnzeDz1r77SiAnRt8lUOCTgr7a0Eh6yAm06Ry6HhhBVPVgVCXBG4HRt
HOYpIGBRIdJzkKiyVjrDC+a7iaP2y/dDsIbVmbna8ACGybyxov3uapbW
-----END CERTIFICATE-----
