Certificate:
    Data:
        Version: 3 (0x2)
        Serial Number: 11042563100177 (0xa0b0c0d0e11)
    Signature Algorithm: sha256WithRSAEncryption
        Issuer: CN=MYSORECA_CA, C=IN, O=CITRIX, OU=ANG, ST=KA/emailAddress=MYSORECA_CA@MYSORECA_mail.com
        Validity
            Not Before: Jul  8 04:36:30 2016 GMT
            Not After : Jul  6 04:36:30 2026 GMT
        Subject: ST=KA, C=IN, CN=103_MYSORECA_server/emailAddress=103_MYSORECA@test_ca.com, O=CITRIX
        Subject Public Key Info:
            Public Key Algorithm: rsaEncryption
                Public-Key: (2048 bit)
                Modulus:
                    00:de:91:d0:5a:d3:5e:7f:37:45:49:73:37:90:93:
                    7a:b6:fd:37:b6:98:b2:53:1b:38:ee:12:66:54:45:
                    92:ea:c3:e2:b7:5b:a0:03:a8:0d:ae:37:d6:21:c6:
                    2b:8e:a8:69:a0:bf:e4:17:72:87:fb:60:48:a2:35:
                    4f:70:4f:c7:a0:10:1a:76:a0:c3:10:ec:2e:97:dc:
                    94:5c:f1:6e:53:d2:46:53:8a:e3:7d:45:9e:9b:6a:
                    08:d1:8b:00:76:7c:2c:79:0f:fe:4d:26:59:e1:c8:
                    e3:e6:83:a9:08:28:b1:c9:e2:7e:2b:36:24:6c:76:
                    6c:2d:f9:b8:e1:d4:70:31:fb:da:0b:8c:12:58:48:
                    30:e6:94:c2:d2:b3:47:a4:21:2c:a0:6e:9a:bc:a9:
                    01:a5:12:6e:1f:24:ce:f6:6a:89:28:88:60:4b:fc:
                    02:31:5c:2b:73:f7:c1:52:8e:46:ed:4c:d7:ed:94:
                    cd:6f:86:2c:8b:e5:6c:5d:1d:13:10:d3:9a:2f:d8:
                    ab:e8:eb:5e:bf:d4:b5:cd:3c:47:8e:d4:a5:5b:0b:
                    21:58:5c:cb:92:72:f4:9b:d3:ae:5e:83:7a:00:3b:
                    0d:2a:35:ef:90:54:c0:c6:49:e8:e9:c2:71:55:9e:
                    09:04:b4:1f:4b:6b:59:41:50:15:05:c7:43:aa:e7:
                    f1:f5
                Exponent: 65537 (0x10001)
        X509v3 extensions:
            Netscape Cert Type: 
                SSL Server
            X509v3 Subject Key Identifier: 
                F1:47:C2:57:E5:5F:50:00:06:21:39:6C:00:1B:93:8D:5B:3F:88:9D
            X509v3 Authority Key Identifier: 
                keyid:C6:18:DA:E4:16:A1:1E:60:AE:18:00:F5:A7:DF:0A:8B:65:4D:36:95
                DirName:/CN=MYSORECA_CA/C=IN/O=CITRIX/OU=ANG/ST=KA/emailAddress=MYSORECA_CA@MYSORECA_mail.com
                serial:D5:74:54:E9:D5:CF:C9:F6

            Authority Information Access: 
                OCSP - URI:http://MYSORECA_one.ocsptest.com/responderpath

    Signature Algorithm: sha256WithRSAEncryption
         2d:1a:71:54:29:6a:a5:3c:f1:b1:9f:5d:60:36:05:f4:55:91:
         49:5f:ed:88:a9:0c:71:7a:72:22:33:e4:9c:95:9c:ec:c0:29:
         d0:2f:ae:2d:e5:79:64:19:af:22:1f:f8:bd:86:39:aa:ed:2b:
         11:b7:1b:ed:b4:38:25:56:cc:8e:12:3c:2d:cf:5c:59:58:39:
         c2:97:01:9c:00:07:1c:24:f9:c4:43:4a:d7:e3:c4:4d:62:61:
         9a:c3:2a:1d:26:bf:4b:d1:c0:24:04:9e:e3:75:57:d9:ec:8a:
         da:f6:66:30:66:3a:95:37:26:d2:e0:51:8c:3c:4c:91:cd:50:
         e0:0f:e7:c1:cc:7a:5d:1a:f6:13:98:36:16:7c:c8:c9:4b:cc:
         44:53:2c:7b:67:c2:5f:1d:0d:7a:e3:d2:e6:a2:67:2d:1c:fe:
         14:88:e4:f8:3f:bf:c9:f4:3a:eb:b2:d2:54:68:80:2e:0a:d0:
         43:a0:1b:42:c2:d5:22:86:ac:9a:ba:1e:42:46:89:fe:3b:91:
         f3:5f:76:34:a1:0e:dc:7d:8f:4b:60:23:89:15:74:20:25:67:
         36:84:36:bc:1b:21:99:58:3e:f9:8a:3c:e9:02:3b:72:74:1c:
         ef:9c:e3:6b:27:c4:8c:76:b6:2f:7e:0a:b7:80:55:b5:b9:03:
         04:d7:c6:be
-----BEGIN CERTIFICATE-----
MIIEpjCCA46gAwIBAgIGCgsMDQ4RMA0GCSqGSIb3DQEBCwUAMH0xFDASBgNVBAMU
C01ZU09SRUNBX0NBMQswCQYDVQQGEwJJTjEPMA0GA1UEChMGQ0lUUklYMQwwCgYD
VQQLEwNBTkcxCzAJBgNVBAgTAktBMSwwKgYJKoZIhvcNAQkBFh1NWVNPUkVDQV9D
QUBNWVNPUkVDQV9tYWlsLmNvbTAeFw0xNjA3MDgwNDM2MzBaFw0yNjA3MDYwNDM2
MzBaMHIxCzAJBgNVBAgTAktBMQswCQYDVQQGEwJJTjEcMBoGA1UEAxQTMTAzX01Z
U09SRUNBX3NlcnZlcjEnMCUGCSqGSIb3DQEJARYYMTAzX01ZU09SRUNBQHRlc3Rf
Y2EuY29tMQ8wDQYDVQQKEwZDSVRSSVgwggEiMA0GCSqGSIb3DQEBAQUAA4IBDwAw
ggEKAoIBAQDekdBa015/N0VJczeQk3q2/Te2mLJTGzjuEmZURZLqw+K3W6ADqA2u
N9YhxiuOqGmgv+QXcof7YEiiNU9wT8egEBp2oMMQ7C6X3JRc8W5T0kZTiuN9RZ6b
agjRiwB2fCx5D/5NJlnhyOPmg6kIKLHJ4n4rNiRsdmwt+bjh1HAx+9oLjBJYSDDm
lMLSs0ekISygbpq8qQGlEm4fJM72aokoiGBL/AIxXCtz98FSjkbtTNftlM1vhiyL
5WxdHRMQ05ov2Kvo616/1LXNPEeO1KVbCyFYXMuScvSb065eg3oAOw0qNe+QVMDG
SejpwnFVngkEtB9La1lBUBUFx0Oq5/H1AgMBAAGjggE1MIIBMTARBglghkgBhvhC
AQEEBAMCBkAwHQYDVR0OBBYEFPFHwlflX1AABiE5bAAbk41bP4idMIGwBgNVHSME
gagwgaWAFMYY2uQWoR5grhgA9affCotlTTaVoYGBpH8wfTEUMBIGA1UEAxQLTVlT
T1JFQ0FfQ0ExCzAJBgNVBAYTAklOMQ8wDQYDVQQKEwZDSVRSSVgxDDAKBgNVBAsT
A0FORzELMAkGA1UECBMCS0ExLDAqBgkqhkiG9w0BCQEWHU1ZU09SRUNBX0NBQE1Z
U09SRUNBX21haWwuY29tggkA1XRU6dXPyfYwSgYIKwYBBQUHAQEEPjA8MDoGCCsG
AQUFBzABhi5odHRwOi8vTVlTT1JFQ0Ffb25lLm9jc3B0ZXN0LmNvbS9yZXNwb25k
ZXJwYXRoMA0GCSqGSIb3DQEBCwUAA4IBAQAtGnFUKWqlPPGxn11gNgX0VZFJX+2I
qQxxenIiM+SclZzswCnQL64t5XlkGa8iH/i9hjmq7SsRtxvttDglVsyOEjwtz1xZ
WDnClwGcAAccJPnEQ0rX48RNYmGawyodJr9L0cAkBJ7jdVfZ7Ira9mYwZjqVNybS
4FGMPEyRzVDgD+fBzHpdGvYTmDYWfMjJS8xEUyx7Z8JfHQ1649LmomctHP4UiOT4
P7/J9DrrstJUaIAuCtBDoBtCwtUihqyauh5CRon+O5HzX3Y0oQ7cfY9LYCOJFXQg
JWc2hDa8GyGZWD75ijzpAjtydBzvnONrJ8SMdrYvfgq3gFW1uQME18a+
-----END CERTIFICATE-----
