Certificate:
    Data:
        Version: 3 (0x2)
        Serial Number: 11042563100176 (0xa0b0c0d0e10)
    Signature Algorithm: sha256WithRSAEncryption
        Issuer: CN=MYSORECA_CA, C=IN, O=CITRIX, OU=ANG, ST=KA/emailAddress=MYSORECA_CA@MYSORECA_mail.com
        Validity
            Not Before: Jul  8 04:36:30 2016 GMT
            Not After : Jul  6 04:36:30 2026 GMT
        Subject: ST=KA, C=IN, CN=102_MYSORECA_server/emailAddress=102_MYSORECA@test_ca.com, O=CITRIX
        Subject Public Key Info:
            Public Key Algorithm: rsaEncryption
                Public-Key: (2048 bit)
                Modulus:
                    00:c1:d5:fa:9a:14:93:74:94:47:cb:d9:04:15:37:
                    12:49:8a:c1:5a:c4:9c:e4:02:df:34:55:36:68:69:
                    8a:34:97:f1:37:d4:1e:65:62:91:b5:3a:6e:8b:d5:
                    ba:5b:5e:a6:0d:30:28:a3:37:5a:cf:34:51:25:b8:
                    e1:b3:4b:71:dc:66:8c:2f:c1:60:fb:12:05:ac:eb:
                    77:d0:bc:7b:14:00:ec:76:c2:4f:12:f5:c8:b5:f7:
                    36:59:59:56:84:a2:32:09:09:6e:9e:34:62:f6:5b:
                    3c:01:85:f3:a0:b5:39:db:6a:12:3c:e0:e6:14:52:
                    2b:33:76:6f:55:e5:51:28:4f:b3:96:40:c3:99:32:
                    95:93:cb:0e:18:dd:4f:c8:7d:02:51:e5:54:47:9b:
                    82:cf:d2:87:7e:cc:a6:d6:7a:a2:cc:09:fb:e3:c2:
                    71:1e:80:e1:5e:b7:55:9e:64:16:81:a2:63:6f:1d:
                    1e:c3:50:b0:5b:c8:b3:d7:5d:fe:c4:4d:5a:b1:ea:
                    f2:eb:53:44:a4:ea:6a:ff:e6:4d:51:04:1d:77:5a:
                    61:03:a4:6b:2d:42:32:82:51:3b:f4:89:04:67:c6:
                    56:8a:dc:cb:0c:00:91:cb:ea:fc:7e:90:b6:df:df:
                    7f:c4:30:09:af:6a:d2:d9:64:e5:94:43:92:44:de:
                    26:47
                Exponent: 65537 (0x10001)
        X509v3 extensions:
            Netscape Cert Type: 
                SSL Server
            X509v3 Subject Key Identifier: 
                2F:E3:D5:E2:69:0B:17:00:18:62:38:E8:76:AC:82:B2:87:C5:25:FA
            X509v3 Authority Key Identifier: 
                keyid:C6:18:DA:E4:16:A1:1E:60:AE:18:00:F5:A7:DF:0A:8B:65:4D:36:95
                DirName:/CN=MYSORECA_CA/C=IN/O=CITRIX/OU=ANG/ST=KA/emailAddress=MYSORECA_CA@MYSORECA_mail.com
                serial:D5:74:54:E9:D5:CF:C9:F6

            Authority Information Access: 
                OCSP - URI:http://MYSORECA_one.ocsptest.com/responderpath

    Signature Algorithm: sha256WithRSAEncryption
         87:f6:e0:b1:98:ac:c3:12:83:70:76:69:96:78:bc:51:8f:c1:
         5b:0c:bc:29:b3:e0:b0:15:e5:a7:88:4b:37:5d:69:4d:fe:09:
         8b:5e:9f:34:41:16:fd:ea:59:4e:89:fa:9a:ae:8b:14:ec:2a:
         15:c1:f9:25:3f:a3:d1:ce:76:1c:2d:91:43:e8:98:3c:65:f4:
         c7:02:86:e6:a6:e2:66:43:f1:d5:25:fa:78:ca:84:fb:3b:28:
         9f:c4:45:e3:da:4f:a6:ae:66:1b:98:c0:34:04:76:71:63:96:
         0e:c4:7a:df:bd:1b:92:73:ce:93:99:a9:b3:62:e2:b5:3f:3c:
         b5:41:6b:10:52:c6:19:93:9a:9c:ea:1c:f3:0b:a3:a8:86:f2:
         06:15:76:c0:7b:7d:0b:df:bf:c3:33:8b:3e:56:c2:cb:0f:96:
         f5:41:63:d0:38:50:5e:8c:c8:56:2f:7f:fe:db:8d:ca:b3:28:
         41:76:38:22:32:d4:2d:80:9c:cf:f8:28:8a:1c:7c:c9:b7:be:
         af:f5:4b:60:25:f1:e6:ed:5f:80:1f:c6:30:f1:91:f7:a2:1b:
         f0:87:72:fe:c5:7a:dd:9a:ee:3f:a2:bf:8a:fe:b1:7c:ba:43:
         b8:36:31:84:22:3b:54:bd:36:70:5e:f0:09:eb:8a:ac:29:05:
         8f:99:ea:65
-----BEGIN CERTIFICATE-----
MIIEpjCCA46gAwIBAgIGCgsMDQ4QMA0GCSqGSIb3DQEBCwUAMH0xFDASBgNVBAMU
C01ZU09SRUNBX0NBMQswCQYDVQQGEwJJTjEPMA0GA1UEChMGQ0lUUklYMQwwCgYD
VQQLEwNBTkcxCzAJBgNVBAgTAktBMSwwKgYJKoZIhvcNAQkBFh1NWVNPUkVDQV9D
QUBNWVNPUkVDQV9tYWlsLmNvbTAeFw0xNjA3MDgwNDM2MzBaFw0yNjA3MDYwNDM2
MzBaMHIxCzAJBgNVBAgTAktBMQswCQYDVQQGEwJJTjEcMBoGA1UEAxQTMTAyX01Z
U09SRUNBX3NlcnZlcjEnMCUGCSqGSIb3DQEJARYYMTAyX01ZU09SRUNBQHRlc3Rf
Y2EuY29tMQ8wDQYDVQQKEwZDSVRSSVgwggEiMA0GCSqGSIb3DQEBAQUAA4IBDwAw
ggEKAoIBAQDB1fqaFJN0lEfL2QQVNxJJisFaxJzkAt80VTZoaYo0l/E31B5lYpG1
Om6L1bpbXqYNMCijN1rPNFEluOGzS3HcZowvwWD7EgWs63fQvHsUAOx2wk8S9ci1
9zZZWVaEojIJCW6eNGL2WzwBhfOgtTnbahI84OYUUiszdm9V5VEoT7OWQMOZMpWT
yw4Y3U/IfQJR5VRHm4LP0od+zKbWeqLMCfvjwnEegOFet1WeZBaBomNvHR7DULBb
yLPXXf7ETVqx6vLrU0Sk6mr/5k1RBB13WmEDpGstQjKCUTv0iQRnxlaK3MsMAJHL
6vx+kLbf33/EMAmvatLZZOWUQ5JE3iZHAgMBAAGjggE1MIIBMTARBglghkgBhvhC
AQEEBAMCBkAwHQYDVR0OBBYEFC/j1eJpCxcAGGI46HasgrKHxSX6MIGwBgNVHSME
gagwgaWAFMYY2uQWoR5grhgA9affCotlTTaVoYGBpH8wfTEUMBIGA1UEAxQLTVlT
T1JFQ0FfQ0ExCzAJBgNVBAYTAklOMQ8wDQYDVQQKEwZDSVRSSVgxDDAKBgNVBAsT
A0FORzELMAkGA1UECBMCS0ExLDAqBgkqhkiG9w0BCQEWHU1ZU09SRUNBX0NBQE1Z
U09SRUNBX21haWwuY29tggkA1XRU6dXPyfYwSgYIKwYBBQUHAQEEPjA8MDoGCCsG
AQUFBzABhi5odHRwOi8vTVlTT1JFQ0Ffb25lLm9jc3B0ZXN0LmNvbS9yZXNwb25k
ZXJwYXRoMA0GCSqGSIb3DQEBCwUAA4IBAQCH9uCxmKzDEoNwdmmWeLxRj8FbDLwp
s+CwFeWniEs3XWlN/gmLXp80QRb96llOifqarosU7CoVwfklP6PRznYcLZFD6Jg8
ZfTHAobmpuJmQ/HVJfp4yoT7OyifxEXj2k+mrmYbmMA0BHZxY5YOxHrfvRuSc86T
mamzYuK1Pzy1QWsQUsYZk5qc6hzzC6OohvIGFXbAe30L37/DM4s+VsLLD5b1QWPQ
OFBejMhWL3/+243KsyhBdjgiMtQtgJzP+CiKHHzJt76v9UtgJfHm7V+AH8Yw8ZH3
ohvwh3L+xXrdmu4/or+K/rF8ukO4NjGEIjtUvTZwXvAJ64qsKQWPmepl
-----END CERTIFICATE-----
