Certificate:
    Data:
        Version: 3 (0x2)
        Serial Number: 11042563100196 (0xa0b0c0d0e24)
    Signature Algorithm: sha256WithRSAEncryption
        Issuer: CN=MYSORECA_CA, C=IN, O=CITRIX, OU=ANG, ST=KA/emailAddress=MYSORECA_CA@MYSORECA_mail.com
        Validity
            Not Before: Jul  8 04:36:35 2016 GMT
            Not After : Jul  6 04:36:35 2026 GMT
        Subject: ST=KA, C=IN, CN=122_MYSORECA_server/emailAddress=122_MYSORECA@test_ca.com, O=CITRIX
        Subject Public Key Info:
            Public Key Algorithm: rsaEncryption
                Public-Key: (2048 bit)
                Modulus:
                    00:bd:2d:89:f2:66:ee:47:51:d5:99:08:72:66:7b:
                    8d:ed:5d:70:69:ce:a7:b3:70:7a:88:bb:cb:41:a8:
                    3b:03:8f:16:61:18:9d:f9:68:c4:2c:d2:3c:32:09:
                    8c:3c:dd:6c:ff:c4:00:ee:9f:74:13:7e:f9:1b:12:
                    2f:f8:d5:4d:bc:f1:9c:36:24:a5:80:ca:c3:26:e2:
                    22:8a:ae:be:ee:38:2f:54:37:24:8f:36:d6:c6:bc:
                    3e:29:db:26:ec:65:47:e2:18:d4:3b:c5:38:2a:7f:
                    8d:d3:78:d9:d8:b4:15:d7:ce:84:b3:22:76:97:97:
                    43:84:c0:e4:06:2f:00:c4:c7:24:d0:6a:97:2b:6f:
                    cf:30:3d:bc:7a:cb:d6:d6:b4:6d:62:8c:6b:4f:fd:
                    f2:d6:e4:0b:06:da:6c:96:85:95:f9:9b:3b:bc:d1:
                    81:f8:71:10:ff:1f:80:07:ce:7d:f5:4b:31:c6:1f:
                    b0:29:83:e0:8c:19:47:19:35:05:86:49:e8:c3:31:
                    90:93:10:1b:f4:3a:41:02:e9:5b:ac:3a:b3:ba:17:
                    98:b8:02:41:31:eb:70:ae:e2:b1:c6:eb:8a:40:3e:
                    9a:f7:09:fd:80:e5:12:a4:c1:77:4d:97:ed:63:6c:
                    71:4a:2c:66:a6:45:fd:a3:8e:73:10:09:af:fa:f2:
                    53:c1
                Exponent: 65537 (0x10001)
        X509v3 extensions:
            Netscape Cert Type: 
                SSL Server
            X509v3 Subject Key Identifier: 
                A1:1A:4F:48:3C:35:82:05:95:CF:A4:4C:3D:82:38:F8:F5:95:A2:CE
            X509v3 Authority Key Identifier: 
                keyid:C6:18:DA:E4:16:A1:1E:60:AE:18:00:F5:A7:DF:0A:8B:65:4D:36:95
                DirName:/CN=MYSORECA_CA/C=IN/O=CITRIX/OU=ANG/ST=KA/emailAddress=MYSORECA_CA@MYSORECA_mail.com
                serial:D5:74:54:E9:D5:CF:C9:F6

            Authority Information Access: 
                OCSP - URI:http://172.24.10.1/responderpath

    Signature Algorithm: sha256WithRSAEncryption
         0f:9f:23:ca:2c:ae:74:db:e0:57:6d:f5:36:23:55:e6:7f:05:
         75:43:6f:7b:6d:d1:09:54:cf:31:48:8d:58:25:9d:d0:05:b1:
         a7:e8:58:ae:1b:8f:9e:da:a8:a1:35:c8:04:14:ac:b4:08:16:
         62:0d:60:e2:a9:3b:8d:da:9e:f7:80:8a:d2:5c:02:37:28:77:
         f1:dc:8f:31:14:2f:7a:cb:67:cf:31:d4:9e:1e:7d:e8:18:8b:
         bc:47:9d:22:99:9c:27:f5:6b:d0:a6:81:b8:49:57:a3:b4:5b:
         4f:57:bf:34:09:b0:ec:0c:fd:d4:08:1a:83:c9:57:c4:da:c6:
         98:a2:47:07:11:47:1d:c2:f9:f1:25:02:26:41:91:01:33:07:
         0d:5e:4a:1b:be:1f:c5:6e:20:0c:22:9e:fe:b6:9c:1b:bd:a3:
         b8:2f:43:45:81:37:59:be:94:af:ee:30:9e:d9:09:03:a1:a6:
         b3:80:75:93:80:9b:8d:01:07:21:b9:b7:d2:74:da:ba:77:de:
         b4:78:c9:84:31:b9:84:25:7a:aa:eb:e6:93:4c:d4:0a:9f:a9:
         a9:26:d8:a9:1f:4d:2f:c5:96:6c:63:20:ce:69:b4:3d:55:cf:
         17:95:7f:c2:8a:53:11:98:d4:09:22:01:92:1b:cf:b0:d0:bc:
         73:bd:b5:ac
-----BEGIN CERTIFICATE-----
MIIEmDCCA4CgAwIBAgIGCgsMDQ4kMA0GCSqGSIb3DQEBCwUAMH0xFDASBgNVBAMU
C01ZU09SRUNBX0NBMQswCQYDVQQGEwJJTjEPMA0GA1UEChMGQ0lUUklYMQwwCgYD
VQQLEwNBTkcxCzAJBgNVBAgTAktBMSwwKgYJKoZIhvcNAQkBFh1NWVNPUkVDQV9D
QUBNWVNPUkVDQV9tYWlsLmNvbTAeFw0xNjA3MDgwNDM2MzVaFw0yNjA3MDYwNDM2
MzVaMHIxCzAJBgNVBAgTAktBMQswCQYDVQQGEwJJTjEcMBoGA1UEAxQTMTIyX01Z
U09SRUNBX3NlcnZlcjEnMCUGCSqGSIb3DQEJARYYMTIyX01ZU09SRUNBQHRlc3Rf
Y2EuY29tMQ8wDQYDVQQKEwZDSVRSSVgwggEiMA0GCSqGSIb3DQEBAQUAA4IBDwAw
ggEKAoIBAQC9LYnyZu5HUdWZCHJme43tXXBpzqezcHqIu8tBqDsDjxZhGJ35aMQs
0jwyCYw83Wz/xADun3QTfvkbEi/41U288Zw2JKWAysMm4iKKrr7uOC9UNySPNtbG
vD4p2ybsZUfiGNQ7xTgqf43TeNnYtBXXzoSzInaXl0OEwOQGLwDExyTQapcrb88w
Pbx6y9bWtG1ijGtP/fLW5AsG2myWhZX5mzu80YH4cRD/H4AHzn31SzHGH7Apg+CM
GUcZNQWGSejDMZCTEBv0OkEC6VusOrO6F5i4AkEx63Cu4rHG64pAPpr3Cf2A5RKk
wXdNl+1jbHFKLGamRf2jjnMQCa/68lPBAgMBAAGjggEnMIIBIzARBglghkgBhvhC
AQEEBAMCBkAwHQYDVR0OBBYEFKEaT0g8NYIFlc+kTD2COPj1laLOMIGwBgNVHSME
gagwgaWAFMYY2uQWoR5grhgA9affCotlTTaVoYGBpH8wfTEUMBIGA1UEAxQLTVlT
T1JFQ0FfQ0ExCzAJBgNVBAYTAklOMQ8wDQYDVQQKEwZDSVRSSVgxDDAKBgNVBAsT
A0FORzELMAkGA1UECBMCS0ExLDAqBgkqhkiG9w0BCQEWHU1ZU09SRUNBX0NBQE1Z
U09SRUNBX21haWwuY29tggkA1XRU6dXPyfYwPAYIKwYBBQUHAQEEMDAuMCwGCCsG
AQUFBzABhiBodHRwOi8vMTcyLjI0LjEwLjEvcmVzcG9uZGVycGF0aDANBgkqhkiG
9w0BAQsFAAOCAQEAD58jyiyudNvgV231NiNV5n8FdUNve23RCVTPMUiNWCWd0AWx
p+hYrhuPntqooTXIBBSstAgWYg1g4qk7jdqe94CK0lwCNyh38dyPMRQvestnzzHU
nh596BiLvEedIpmcJ/Vr0KaBuElXo7RbT1e/NAmw7Az91Agag8lXxNrGmKJHBxFH
HcL58SUCJkGRATMHDV5KG74fxW4gDCKe/racG72juC9DRYE3Wb6Ur+4wntkJA6Gm
s4B1k4CbjQEHIbm30nTaunfetHjJhDG5hCV6quvmk0zUCp+pqSbYqR9NL8WWbGMg
zmm0PVXPF5V/wopTEZjUCSIBkhvPsNC8c721rA==
-----END CERTIFICATE-----
