Certificate:
    Data:
        Version: 3 (0x2)
        Serial Number: 11042563100199 (0xa0b0c0d0e27)
    Signature Algorithm: sha256WithRSAEncryption
        Issuer: CN=MYSORECA_CA, C=IN, O=CITRIX, OU=ANG, ST=KA/emailAddress=MYSORECA_CA@MYSORECA_mail.com
        Validity
            Not Before: Jul  8 04:36:36 2016 GMT
            Not After : Jul  6 04:36:36 2026 GMT
        Subject: ST=KA, C=IN, CN=125_MYSORECA_server/emailAddress=125_MYSORECA@test_ca.com, O=CITRIX
        Subject Public Key Info:
            Public Key Algorithm: rsaEncryption
                Public-Key: (2048 bit)
                Modulus:
                    00:b5:93:20:f9:76:37:30:53:90:a0:ae:9f:09:f7:
                    a3:b2:c5:dd:98:9c:e1:57:ae:9f:58:00:5a:b3:e6:
                    84:32:a2:db:e5:99:d6:cb:c1:e6:80:15:96:84:53:
                    3c:e4:a4:d4:80:41:41:e1:8b:2a:1f:6d:42:40:3c:
                    00:84:4a:b2:1d:ad:0a:73:89:a3:96:6e:5d:6a:aa:
                    2d:8b:8e:c4:84:ce:ed:02:31:b4:6d:50:ad:d5:ee:
                    ef:fd:cb:b0:39:e9:e1:15:bd:06:90:74:be:8a:ca:
                    e1:70:92:89:de:a3:dd:72:1a:d5:16:84:ce:92:58:
                    ee:d8:27:83:48:09:17:45:d1:82:13:d7:fd:f6:fc:
                    4c:28:57:d3:11:c6:ce:1e:89:dc:50:05:e0:25:b4:
                    09:ec:ab:ba:48:79:47:24:d2:69:f8:d5:7e:79:96:
                    8d:85:2d:b6:c7:f2:e9:4d:19:b9:73:58:dc:bf:8f:
                    44:1a:e6:32:d0:f8:cb:82:31:27:55:62:6a:93:cd:
                    6a:c9:09:95:7d:0e:b4:76:53:8b:83:20:a0:ac:cb:
                    25:d7:10:ff:3b:67:df:7f:ba:ba:f7:71:1e:52:9d:
                    be:5d:a5:fe:38:ca:7b:d4:2c:ef:f9:58:77:4c:44:
                    3c:d8:74:66:8e:84:cf:df:8a:3b:83:26:18:ee:75:
                    41:33
                Exponent: 65537 (0x10001)
        X509v3 extensions:
            Netscape Cert Type: 
                SSL Server
            X509v3 Subject Key Identifier: 
                D2:11:DA:81:B7:0F:4E:B3:EC:AF:72:95:1C:63:28:76:CB:C1:6A:C9
            X509v3 Authority Key Identifier: 
                keyid:C6:18:DA:E4:16:A1:1E:60:AE:18:00:F5:A7:DF:0A:8B:65:4D:36:95
                DirName:/CN=MYSORECA_CA/C=IN/O=CITRIX/OU=ANG/ST=KA/emailAddress=MYSORECA_CA@MYSORECA_mail.com
                serial:D5:74:54:E9:D5:CF:C9:F6

            Authority Information Access: 
                OCSP - URI:http://172.24.10.1/responderpath

    Signature Algorithm: sha256WithRSAEncryption
         45:08:43:7e:76:ad:d2:57:7a:b8:b6:41:b7:a8:86:e3:63:4e:
         8a:31:9a:09:47:bd:b9:09:88:79:f8:d1:7e:9a:9a:53:2a:30:
         41:df:dd:b3:03:35:c6:62:d3:7e:db:e5:f9:e0:36:2d:82:01:
         74:99:67:40:5a:4e:e6:b6:af:e8:e6:c6:af:45:06:52:98:4c:
         58:b4:de:5c:be:fc:3a:ac:a9:b1:83:c2:6b:93:49:c1:9a:62:
         88:10:61:3e:40:6b:85:f5:6d:39:d5:db:33:c1:5c:64:20:e4:
         15:30:be:15:99:fc:3b:07:84:e1:93:2b:c8:b3:3c:29:8a:64:
         83:49:f9:fd:5b:b1:8d:de:35:e8:3b:cd:6e:be:f4:17:7e:2d:
         f6:8d:d4:ec:d4:6c:03:19:d8:a4:19:c4:7b:03:b2:78:71:62:
         56:86:15:68:ba:09:8d:ee:05:f2:2e:38:3b:c8:7c:be:b1:1a:
         91:75:7b:d8:c5:cc:d7:6d:e0:45:f1:da:f8:59:f5:3a:f6:b8:
         0c:7e:73:20:72:7e:48:52:e9:71:bd:05:05:62:bc:49:f3:7b:
         00:2a:7f:5f:9d:80:38:84:46:0d:51:fa:81:4b:9c:47:96:4e:
         b2:1f:3e:af:f1:40:ec:f7:36:52:c4:87:2c:ea:06:10:1e:b6:
         88:91:16:7e
-----BEGIN CERTIFICATE-----
MIIEmDCCA4CgAwIBAgIGCgsMDQ4nMA0GCSqGSIb3DQEBCwUAMH0xFDASBgNVBAMU
C01ZU09SRUNBX0NBMQswCQYDVQQGEwJJTjEPMA0GA1UEChMGQ0lUUklYMQwwCgYD
VQQLEwNBTkcxCzAJBgNVBAgTAktBMSwwKgYJKoZIhvcNAQkBFh1NWVNPUkVDQV9D
QUBNWVNPUkVDQV9tYWlsLmNvbTAeFw0xNjA3MDgwNDM2MzZaFw0yNjA3MDYwNDM2
MzZaMHIxCzAJBgNVBAgTAktBMQswCQYDVQQGEwJJTjEcMBoGA1UEAxQTMTI1X01Z
U09SRUNBX3NlcnZlcjEnMCUGCSqGSIb3DQEJARYYMTI1X01ZU09SRUNBQHRlc3Rf
Y2EuY29tMQ8wDQYDVQQKEwZDSVRSSVgwggEiMA0GCSqGSIb3DQEBAQUAA4IBDwAw
ggEKAoIBAQC1kyD5djcwU5Cgrp8J96Oyxd2YnOFXrp9YAFqz5oQyotvlmdbLweaA
FZaEUzzkpNSAQUHhiyofbUJAPACESrIdrQpziaOWbl1qqi2LjsSEzu0CMbRtUK3V
7u/9y7A56eEVvQaQdL6KyuFwkoneo91yGtUWhM6SWO7YJ4NICRdF0YIT1/32/Ewo
V9MRxs4eidxQBeAltAnsq7pIeUck0mn41X55lo2FLbbH8ulNGblzWNy/j0Qa5jLQ
+MuCMSdVYmqTzWrJCZV9DrR2U4uDIKCsyyXXEP87Z99/urr3cR5Snb5dpf44ynvU
LO/5WHdMRDzYdGaOhM/fijuDJhjudUEzAgMBAAGjggEnMIIBIzARBglghkgBhvhC
AQEEBAMCBkAwHQYDVR0OBBYEFNIR2oG3D06z7K9ylRxjKHbLwWrJMIGwBgNVHSME
gagwgaWAFMYY2uQWoR5grhgA9affCotlTTaVoYGBpH8wfTEUMBIGA1UEAxQLTVlT
T1JFQ0FfQ0ExCzAJBgNVBAYTAklOMQ8wDQYDVQQKEwZDSVRSSVgxDDAKBgNVBAsT
A0FORzELMAkGA1UECBMCS0ExLDAqBgkqhkiG9w0BCQEWHU1ZU09SRUNBX0NBQE1Z
U09SRUNBX21haWwuY29tggkA1XRU6dXPyfYwPAYIKwYBBQUHAQEEMDAuMCwGCCsG
AQUFBzABhiBodHRwOi8vMTcyLjI0LjEwLjEvcmVzcG9uZGVycGF0aDANBgkqhkiG
9w0BAQsFAAOCAQEARQhDfnat0ld6uLZBt6iG42NOijGaCUe9uQmIefjRfpqaUyow
Qd/dswM1xmLTftvl+eA2LYIBdJlnQFpO5rav6ObGr0UGUphMWLTeXL78OqypsYPC
a5NJwZpiiBBhPkBrhfVtOdXbM8FcZCDkFTC+FZn8OweE4ZMryLM8KYpkg0n5/Vux
jd416DvNbr70F34t9o3U7NRsAxnYpBnEewOyeHFiVoYVaLoJje4F8i44O8h8vrEa
kXV72MXM123gRfHa+Fn1Ova4DH5zIHJ+SFLpcb0FBWK8SfN7ACp/X52AOIRGDVH6
gUucR5ZOsh8+r/FA7Pc2UsSHLOoGEB62iJEWfg==
-----END CERTIFICATE-----
