Certificate:
    Data:
        Version: 3 (0x2)
        Serial Number: 11042563100207 (0xa0b0c0d0e2f)
    Signature Algorithm: sha256WithRSAEncryption
        Issuer: CN=MYSORECA_CA, C=IN, O=CITRIX, OU=ANG, ST=KA/emailAddress=MYSORECA_CA@MYSORECA_mail.com
        Validity
            Not Before: Jul  8 04:36:38 2016 GMT
            Not After : Jul  6 04:36:38 2026 GMT
        Subject: ST=KA, C=IN, CN=133_MYSORECA_server/emailAddress=133_MYSORECA@test_ca.com, O=CITRIX
        Subject Public Key Info:
            Public Key Algorithm: rsaEncryption
                Public-Key: (2048 bit)
                Modulus:
                    00:96:67:6b:aa:5e:e1:b8:cf:69:8d:34:f8:ec:21:
                    4e:86:6b:0b:65:c3:03:a3:cf:ae:d7:57:bc:69:64:
                    ee:38:03:4f:05:ee:4e:a8:7f:e3:80:7c:8e:75:6d:
                    72:6e:c3:4d:39:a4:5d:e6:86:1d:05:a8:57:30:77:
                    cb:f6:bc:7a:42:dc:c8:74:43:5b:a7:58:fd:7d:81:
                    e2:33:f1:1c:5f:89:d3:11:9a:a4:9d:2f:2b:81:b0:
                    ba:17:b7:67:1e:df:c8:d5:de:48:82:f6:0d:23:a4:
                    ce:f6:9a:5b:49:12:5f:24:28:1d:24:15:f4:e9:fa:
                    f1:b1:ea:9f:74:7e:79:d5:b2:a0:da:dc:25:56:13:
                    e7:98:84:b5:1f:ff:51:f3:c2:37:80:7e:20:b3:8e:
                    5a:96:e1:e6:b2:f1:e8:23:7e:07:ce:58:f1:fb:77:
                    31:a5:b3:c0:16:4c:63:ef:57:12:d1:12:a6:38:5c:
                    56:6a:6d:08:e8:4f:de:ae:39:cc:bf:57:f9:4b:40:
                    46:51:da:d8:70:c7:17:28:b2:3d:b0:b2:c6:9b:ca:
                    cd:93:e1:9c:89:db:67:c6:23:ff:12:07:aa:1e:3f:
                    4c:5e:d2:d0:3c:89:42:93:1d:2a:f3:f7:3b:41:96:
                    22:8c:ce:d7:02:a9:42:3d:60:7e:15:eb:44:f2:ea:
                    61:bb
                Exponent: 65537 (0x10001)
        X509v3 extensions:
            Netscape Cert Type: 
                SSL Server
            X509v3 Subject Key Identifier: 
                5D:20:A5:B9:98:7A:31:B1:2A:67:91:A8:52:87:70:73:8D:0A:CA:1B
            X509v3 Authority Key Identifier: 
                keyid:C6:18:DA:E4:16:A1:1E:60:AE:18:00:F5:A7:DF:0A:8B:65:4D:36:95
                DirName:/CN=MYSORECA_CA/C=IN/O=CITRIX/OU=ANG/ST=KA/emailAddress=MYSORECA_CA@MYSORECA_mail.com
                serial:D5:74:54:E9:D5:CF:C9:F6

            Authority Information Access: 
                OCSP - URI:http://172.24.20.1/responderpath

    Signature Algorithm: sha256WithRSAEncryption
         93:6e:da:5d:3a:82:04:49:42:a6:44:fd:49:59:45:0a:f9:af:
         e8:b6:b4:fa:8d:97:24:11:30:e1:79:9b:11:a9:72:7e:d5:78:
         ec:e4:dd:ef:9f:e0:ac:60:44:83:2c:28:3a:6f:b6:ed:f4:1b:
         10:a7:d7:ed:0c:c2:05:da:d6:0e:51:40:d1:8f:9b:1b:b0:0e:
         47:19:b0:5c:08:b8:03:3d:99:0b:c3:0a:bd:27:8b:46:97:d2:
         ac:7b:60:6a:82:e8:32:a0:ce:07:31:0a:61:2e:22:33:6c:23:
         6e:97:4a:38:3e:2b:df:88:3e:f5:f3:4b:c8:8a:56:08:b3:fb:
         ce:b6:fa:75:48:20:d5:53:26:62:91:21:cf:db:a7:d0:7b:4c:
         b4:64:92:a0:d5:6c:19:d8:56:5a:c4:67:c2:81:9c:89:95:87:
         1e:9b:d7:0d:d7:b0:d1:16:ad:c3:0d:93:17:5f:e7:ef:93:00:
         f5:48:65:15:6b:28:d9:29:94:e1:85:c1:91:ae:36:dc:9c:cf:
         bf:3b:b1:a4:3d:35:92:64:41:c5:1f:c8:34:e7:bf:c8:29:cf:
         ac:41:01:70:d5:1f:86:6f:d3:3b:4f:e6:4f:5e:e0:c9:c0:0a:
         d6:71:af:15:a3:a1:70:aa:86:15:4c:46:4d:d9:e6:7d:bc:d6:
         ba:2c:03:fe
-----BEGIN CERTIFICATE-----
MIIEmDCCA4CgAwIBAgIGCgsMDQ4vMA0GCSqGSIb3DQEBCwUAMH0xFDASBgNVBAMU
C01ZU09SRUNBX0NBMQswCQYDVQQGEwJJTjEPMA0GA1UEChMGQ0lUUklYMQwwCgYD
VQQLEwNBTkcxCzAJBgNVBAgTAktBMSwwKgYJKoZIhvcNAQkBFh1NWVNPUkVDQV9D
QUBNWVNPUkVDQV9tYWlsLmNvbTAeFw0xNjA3MDgwNDM2MzhaFw0yNjA3MDYwNDM2
MzhaMHIxCzAJBgNVBAgTAktBMQswCQYDVQQGEwJJTjEcMBoGA1UEAxQTMTMzX01Z
U09SRUNBX3NlcnZlcjEnMCUGCSqGSIb3DQEJARYYMTMzX01ZU09SRUNBQHRlc3Rf
Y2EuY29tMQ8wDQYDVQQKEwZDSVRSSVgwggEiMA0GCSqGSIb3DQEBAQUAA4IBDwAw
ggEKAoIBAQCWZ2uqXuG4z2mNNPjsIU6GawtlwwOjz67XV7xpZO44A08F7k6of+OA
fI51bXJuw005pF3mhh0FqFcwd8v2vHpC3Mh0Q1unWP19geIz8RxfidMRmqSdLyuB
sLoXt2ce38jV3kiC9g0jpM72mltJEl8kKB0kFfTp+vGx6p90fnnVsqDa3CVWE+eY
hLUf/1HzwjeAfiCzjlqW4eay8egjfgfOWPH7dzGls8AWTGPvVxLREqY4XFZqbQjo
T96uOcy/V/lLQEZR2thwxxcosj2wssabys2T4ZyJ22fGI/8SB6oeP0xe0tA8iUKT
HSrz9ztBliKMztcCqUI9YH4V60Ty6mG7AgMBAAGjggEnMIIBIzARBglghkgBhvhC
AQEEBAMCBkAwHQYDVR0OBBYEFF0gpbmYejGxKmeRqFKHcHONCsobMIGwBgNVHSME
gagwgaWAFMYY2uQWoR5grhgA9affCotlTTaVoYGBpH8wfTEUMBIGA1UEAxQLTVlT
T1JFQ0FfQ0ExCzAJBgNVBAYTAklOMQ8wDQYDVQQKEwZDSVRSSVgxDDAKBgNVBAsT
A0FORzELMAkGA1UECBMCS0ExLDAqBgkqhkiG9w0BCQEWHU1ZU09SRUNBX0NBQE1Z
U09SRUNBX21haWwuY29tggkA1XRU6dXPyfYwPAYIKwYBBQUHAQEEMDAuMCwGCCsG
AQUFBzABhiBodHRwOi8vMTcyLjI0LjIwLjEvcmVzcG9uZGVycGF0aDANBgkqhkiG
9w0BAQsFAAOCAQEAk27aXTqCBElCpkT9SVlFCvmv6La0+o2XJBEw4XmbEalyftV4
7OTd75/grGBEgywoOm+27fQbEKfX7QzCBdrWDlFA0Y+bG7AORxmwXAi4Az2ZC8MK
vSeLRpfSrHtgaoLoMqDOBzEKYS4iM2wjbpdKOD4r34g+9fNLyIpWCLP7zrb6dUgg
1VMmYpEhz9un0HtMtGSSoNVsGdhWWsRnwoGciZWHHpvXDdew0Ratww2TF1/n75MA
9UhlFWso2SmU4YXBka423JzPvzuxpD01kmRBxR/INOe/yCnPrEEBcNUfhm/TO0/m
T17gycAK1nGvFaOhcKqGFUxGTdnmfbzWuiwD/g==
-----END CERTIFICATE-----
