Certificate:
    Data:
        Version: 3 (0x2)
        Serial Number: 11042563100181 (0xa0b0c0d0e15)
    Signature Algorithm: sha256WithRSAEncryption
        Issuer: CN=MYSORECA_CA, C=IN, O=CITRIX, OU=ANG, ST=KA/emailAddress=MYSORECA_CA@MYSORECA_mail.com
        Validity
            Not Before: Jul  8 04:36:31 2016 GMT
            Not After : Jul  6 04:36:31 2026 GMT
        Subject: ST=KA, C=IN, CN=107_MYSORECA_server/emailAddress=107_MYSORECA@test_ca.com, O=CITRIX
        Subject Public Key Info:
            Public Key Algorithm: rsaEncryption
                Public-Key: (2048 bit)
                Modulus:
                    00:ca:c3:66:6d:c0:a7:d7:d7:19:c6:4a:88:52:1f:
                    7b:6c:ac:69:98:60:b5:a8:92:28:49:96:4f:4f:aa:
                    26:d1:88:84:8e:f4:c4:62:a6:df:04:35:68:25:e6:
                    65:02:c9:7a:45:4d:7e:a7:cd:9e:54:e3:91:a2:ea:
                    30:2d:d1:17:1b:3f:4a:51:ed:cb:b4:65:11:74:51:
                    f3:e1:92:77:59:5b:ae:f3:0d:80:e2:3c:b4:c0:9d:
                    8f:06:0a:29:50:8b:a6:d2:45:1b:cc:c1:c4:ec:92:
                    4c:db:df:ac:8e:9f:5e:2c:1d:e2:57:f8:c6:4e:35:
                    82:af:e6:80:7e:6a:08:e9:75:77:e1:e3:f2:00:54:
                    7f:f8:d0:6c:a2:2a:0a:bb:ca:01:0b:ff:4a:e0:84:
                    8d:44:d1:9e:1f:e9:5c:bf:08:8a:de:f1:da:d4:b7:
                    3e:52:d2:77:b2:69:de:ae:c8:7b:5a:49:68:49:7d:
                    1d:d3:a7:a2:6d:39:68:04:26:06:ef:10:13:8d:cb:
                    82:76:36:d1:74:1e:22:3c:e2:33:61:b8:75:3a:fb:
                    37:a8:d1:f6:1e:c6:9d:2d:37:3f:bf:9e:40:d6:9a:
                    27:79:5d:8d:fd:3f:17:3a:1a:70:69:e1:a2:11:f4:
                    ee:08:57:99:05:dd:0e:f9:df:69:7c:6b:80:d6:23:
                    ba:81
                Exponent: 65537 (0x10001)
        X509v3 extensions:
            Netscape Cert Type: 
                SSL Server
            X509v3 Subject Key Identifier: 
                D8:DD:40:B6:2A:41:3E:9C:C2:10:75:95:B1:1E:2B:86:C5:19:BE:5B
            X509v3 Authority Key Identifier: 
                keyid:C6:18:DA:E4:16:A1:1E:60:AE:18:00:F5:A7:DF:0A:8B:65:4D:36:95
                DirName:/CN=MYSORECA_CA/C=IN/O=CITRIX/OU=ANG/ST=KA/emailAddress=MYSORECA_CA@MYSORECA_mail.com
                serial:D5:74:54:E9:D5:CF:C9:F6

            Authority Information Access: 
                OCSP - URI:http://MYSORECA_one.ocsptest.com/responderpath

    Signature Algorithm: sha256WithRSAEncryption
         a3:66:4c:26:5d:b8:f6:db:dd:df:f2:eb:92:0b:7f:9e:28:8e:
         8c:e5:a4:89:e6:74:ff:f7:ba:b2:99:a5:62:4c:46:1d:9e:5b:
         d5:99:c2:5b:c1:8a:7f:31:63:5e:53:40:87:b5:35:79:82:39:
         f3:18:8d:18:f3:5f:56:40:11:f7:f5:5f:d0:6e:6d:da:7c:76:
         5a:9a:e6:15:72:d7:38:b3:38:bd:c2:3c:59:03:73:3b:ff:c3:
         11:09:c5:98:97:66:a8:eb:69:f0:b9:14:70:f8:bb:08:dd:1f:
         f2:9a:c3:b7:00:ab:68:26:7b:7d:a1:a1:2f:f9:eb:2a:e7:26:
         ab:a5:ea:38:99:7b:f8:24:5d:3f:2e:b5:db:0c:42:3b:49:d8:
         37:f1:97:bd:73:06:66:ef:58:f7:3b:74:44:00:18:28:03:8d:
         28:c6:5c:0b:ca:61:f4:b4:e5:59:01:ee:da:31:62:57:b5:50:
         e0:c9:76:86:90:4a:11:95:3f:05:ee:86:81:77:de:0e:1d:0b:
         87:01:43:91:b5:ad:d8:03:9d:71:62:68:da:9d:ee:94:1e:a1:
         ad:83:b6:43:a2:9a:01:23:63:41:e7:f5:26:b7:45:29:65:ae:
         98:bc:f1:69:78:35:9d:6c:5a:72:9b:39:2e:03:95:f9:a3:06:
         76:de:51:ee
-----BEGIN CERTIFICATE-----
MIIEpjCCA46gAwIBAgIGCgsMDQ4VMA0GCSqGSIb3DQEBCwUAMH0xFDASBgNVBAMU
C01ZU09SRUNBX0NBMQswCQYDVQQGEwJJTjEPMA0GA1UEChMGQ0lUUklYMQwwCgYD
VQQLEwNBTkcxCzAJBgNVBAgTAktBMSwwKgYJKoZIhvcNAQkBFh1NWVNPUkVDQV9D
QUBNWVNPUkVDQV9tYWlsLmNvbTAeFw0xNjA3MDgwNDM2MzFaFw0yNjA3MDYwNDM2
MzFaMHIxCzAJBgNVBAgTAktBMQswCQYDVQQGEwJJTjEcMBoGA1UEAxQTMTA3X01Z
U09SRUNBX3NlcnZlcjEnMCUGCSqGSIb3DQEJARYYMTA3X01ZU09SRUNBQHRlc3Rf
Y2EuY29tMQ8wDQYDVQQKEwZDSVRSSVgwggEiMA0GCSqGSIb3DQEBAQUAA4IBDwAw
ggEKAoIBAQDKw2ZtwKfX1xnGSohSH3tsrGmYYLWokihJlk9PqibRiISO9MRipt8E
NWgl5mUCyXpFTX6nzZ5U45Gi6jAt0RcbP0pR7cu0ZRF0UfPhkndZW67zDYDiPLTA
nY8GCilQi6bSRRvMwcTskkzb36yOn14sHeJX+MZONYKv5oB+agjpdXfh4/IAVH/4
0GyiKgq7ygEL/0rghI1E0Z4f6Vy/CIre8drUtz5S0neyad6uyHtaSWhJfR3Tp6Jt
OWgEJgbvEBONy4J2NtF0HiI84jNhuHU6+zeo0fYexp0tNz+/nkDWmid5XY39Pxc6
GnBp4aIR9O4IV5kF3Q7532l8a4DWI7qBAgMBAAGjggE1MIIBMTARBglghkgBhvhC
AQEEBAMCBkAwHQYDVR0OBBYEFNjdQLYqQT6cwhB1lbEeK4bFGb5bMIGwBgNVHSME
gagwgaWAFMYY2uQWoR5grhgA9affCotlTTaVoYGBpH8wfTEUMBIGA1UEAxQLTVlT
T1JFQ0FfQ0ExCzAJBgNVBAYTAklOMQ8wDQYDVQQKEwZDSVRSSVgxDDAKBgNVBAsT
A0FORzELMAkGA1UECBMCS0ExLDAqBgkqhkiG9w0BCQEWHU1ZU09SRUNBX0NBQE1Z
U09SRUNBX21haWwuY29tggkA1XRU6dXPyfYwSgYIKwYBBQUHAQEEPjA8MDoGCCsG
AQUFBzABhi5odHRwOi8vTVlTT1JFQ0Ffb25lLm9jc3B0ZXN0LmNvbS9yZXNwb25k
ZXJwYXRoMA0GCSqGSIb3DQEBCwUAA4IBAQCjZkwmXbj2293f8uuSC3+eKI6M5aSJ
5nT/97qymaViTEYdnlvVmcJbwYp/MWNeU0CHtTV5gjnzGI0Y819WQBH39V/Qbm3a
fHZamuYVctc4szi9wjxZA3M7/8MRCcWYl2ao62nwuRRw+LsI3R/ymsO3AKtoJnt9
oaEv+esq5yarpeo4mXv4JF0/LrXbDEI7Sdg38Ze9cwZm71j3O3REABgoA40oxlwL
ymH0tOVZAe7aMWJXtVDgyXaGkEoRlT8F7oaBd94OHQuHAUORta3YA51xYmjane6U
HqGtg7ZDopoBI2NB5/Umt0UpZa6YvPFpeDWdbFpymzkuA5X5owZ23lHu
-----END CERTIFICATE-----
