Certificate:
    Data:
        Version: 3 (0x2)
        Serial Number: 11042563100189 (0xa0b0c0d0e1d)
    Signature Algorithm: sha256WithRSAEncryption
        Issuer: CN=MYSORECA_CA, C=IN, O=CITRIX, OU=ANG, ST=KA/emailAddress=MYSORECA_CA@MYSORECA_mail.com
        Validity
            Not Before: Jul  8 04:36:33 2016 GMT
            Not After : Jul  6 04:36:33 2026 GMT
        Subject: ST=KA, C=IN, CN=115_MYSORECA_server/emailAddress=115_MYSORECA@test_ca.com, O=CITRIX
        Subject Public Key Info:
            Public Key Algorithm: rsaEncryption
                Public-Key: (2048 bit)
                Modulus:
                    00:cf:7f:29:77:28:0a:fc:cc:b4:a9:0a:f5:87:85:
                    8b:25:79:62:9a:79:a6:52:21:fb:8a:39:ef:1c:14:
                    aa:fd:d8:be:06:af:cb:7f:0b:ea:29:dd:3e:64:e6:
                    fb:ff:08:cd:01:77:24:80:6e:42:ad:eb:94:66:6d:
                    bf:c4:3c:a0:e8:8a:bd:8d:e6:19:bf:81:a7:77:a3:
                    aa:2c:54:23:4d:1d:ea:f6:4e:a2:36:ad:49:33:3f:
                    94:68:e4:76:27:88:a5:c6:be:a4:b7:43:68:8c:83:
                    e3:04:b2:d9:f8:87:b7:04:9b:54:10:20:84:9e:af:
                    51:e9:8c:62:f3:2a:5a:f9:b7:56:f5:7d:9d:20:ad:
                    59:1e:9d:aa:c2:16:f1:a7:b9:a7:21:0e:47:0b:73:
                    89:8d:ad:05:1d:6b:c1:d4:76:38:8d:48:a3:c8:4d:
                    d6:56:da:87:ef:93:ec:28:44:54:ce:48:6f:6c:45:
                    51:46:e6:69:cd:d1:16:b3:30:10:7b:d3:52:9e:6f:
                    ea:d1:a5:96:51:6b:0f:77:2b:dd:23:5d:17:58:6e:
                    9a:a5:3d:c3:e0:36:49:16:e9:d6:4f:7f:11:16:27:
                    58:89:69:b1:38:e3:90:9b:1a:b2:76:c1:37:eb:e9:
                    b8:21:71:92:50:11:39:fe:65:51:53:ee:2f:2d:97:
                    65:69
                Exponent: 65537 (0x10001)
        X509v3 extensions:
            Netscape Cert Type: 
                SSL Server
            X509v3 Subject Key Identifier: 
                E6:DA:03:F5:61:A6:FC:E8:A9:07:36:36:E2:33:71:3F:16:7D:92:52
            X509v3 Authority Key Identifier: 
                keyid:C6:18:DA:E4:16:A1:1E:60:AE:18:00:F5:A7:DF:0A:8B:65:4D:36:95
                DirName:/CN=MYSORECA_CA/C=IN/O=CITRIX/OU=ANG/ST=KA/emailAddress=MYSORECA_CA@MYSORECA_mail.com
                serial:D5:74:54:E9:D5:CF:C9:F6

            Authority Information Access: 
                OCSP - URI:http://MYSORECA_two.ocsptest.com/responderpath

    Signature Algorithm: sha256WithRSAEncryption
         84:d8:5e:88:c3:7f:fa:3f:83:c9:96:57:cd:b1:24:1f:d1:51:
         db:77:1a:86:28:ac:6e:36:64:6c:57:11:8d:e5:b2:4b:7e:a6:
         12:0b:0a:86:2e:26:e2:f4:dc:39:bb:ca:9b:9a:d1:7f:ef:24:
         b0:f4:f9:7d:31:63:85:51:26:64:31:6e:a8:ec:a7:fc:0c:1e:
         90:46:07:f0:5a:cb:03:0d:55:64:4c:0e:06:2e:6c:a4:3b:17:
         6f:c7:db:9d:30:03:a2:ef:d5:1b:71:5c:16:53:d3:26:9b:e2:
         89:0b:91:e7:bd:5d:b7:8f:40:b8:de:d1:55:cf:c6:5c:0d:e2:
         57:ef:fa:a8:40:73:7b:97:06:cc:3e:ed:72:8f:73:bc:3f:c2:
         14:e6:ea:fe:d3:42:ac:8c:3b:43:a8:18:2b:89:53:e4:62:77:
         ac:cb:cf:0f:15:91:ef:ee:52:1b:41:0f:2b:57:84:df:71:96:
         18:65:39:97:2c:e2:ed:0a:d6:4e:88:eb:40:b9:c0:78:5d:16:
         61:a3:7d:1f:82:c1:87:a3:d0:bb:cf:e0:d5:d1:19:41:4e:d1:
         8e:d9:7f:7d:ad:0a:47:36:ab:35:c8:0d:9a:dc:ae:90:86:2e:
         30:41:92:0e:4a:84:4a:f2:95:a1:32:9d:80:58:de:9b:bd:69:
         05:b6:0a:6c
-----BEGIN CERTIFICATE-----
MIIEpjCCA46gAwIBAgIGCgsMDQ4dMA0GCSqGSIb3DQEBCwUAMH0xFDASBgNVBAMU
C01ZU09SRUNBX0NBMQswCQYDVQQGEwJJTjEPMA0GA1UEChMGQ0lUUklYMQwwCgYD
VQQLEwNBTkcxCzAJBgNVBAgTAktBMSwwKgYJKoZIhvcNAQkBFh1NWVNPUkVDQV9D
QUBNWVNPUkVDQV9tYWlsLmNvbTAeFw0xNjA3MDgwNDM2MzNaFw0yNjA3MDYwNDM2
MzNaMHIxCzAJBgNVBAgTAktBMQswCQYDVQQGEwJJTjEcMBoGA1UEAxQTMTE1X01Z
U09SRUNBX3NlcnZlcjEnMCUGCSqGSIb3DQEJARYYMTE1X01ZU09SRUNBQHRlc3Rf
Y2EuY29tMQ8wDQYDVQQKEwZDSVRSSVgwggEiMA0GCSqGSIb3DQEBAQUAA4IBDwAw
ggEKAoIBAQDPfyl3KAr8zLSpCvWHhYsleWKaeaZSIfuKOe8cFKr92L4Gr8t/C+op
3T5k5vv/CM0BdySAbkKt65Rmbb/EPKDoir2N5hm/gad3o6osVCNNHer2TqI2rUkz
P5Ro5HYniKXGvqS3Q2iMg+MEstn4h7cEm1QQIISer1HpjGLzKlr5t1b1fZ0grVke
narCFvGnuachDkcLc4mNrQUda8HUdjiNSKPITdZW2ofvk+woRFTOSG9sRVFG5mnN
0RazMBB701Keb+rRpZZRaw93K90jXRdYbpqlPcPgNkkW6dZPfxEWJ1iJabE445Cb
GrJ2wTfr6bghcZJQETn+ZVFT7i8tl2VpAgMBAAGjggE1MIIBMTARBglghkgBhvhC
AQEEBAMCBkAwHQYDVR0OBBYEFObaA/VhpvzoqQc2NuIzcT8WfZJSMIGwBgNVHSME
gagwgaWAFMYY2uQWoR5grhgA9affCotlTTaVoYGBpH8wfTEUMBIGA1UEAxQLTVlT
T1JFQ0FfQ0ExCzAJBgNVBAYTAklOMQ8wDQYDVQQKEwZDSVRSSVgxDDAKBgNVBAsT
A0FORzELMAkGA1UECBMCS0ExLDAqBgkqhkiG9w0BCQEWHU1ZU09SRUNBX0NBQE1Z
U09SRUNBX21haWwuY29tggkA1XRU6dXPyfYwSgYIKwYBBQUHAQEEPjA8MDoGCCsG
AQUFBzABhi5odHRwOi8vTVlTT1JFQ0FfdHdvLm9jc3B0ZXN0LmNvbS9yZXNwb25k
ZXJwYXRoMA0GCSqGSIb3DQEBCwUAA4IBAQCE2F6Iw3/6P4PJllfNsSQf0VHbdxqG
KKxuNmRsVxGN5bJLfqYSCwqGLibi9Nw5u8qbmtF/7ySw9Pl9MWOFUSZkMW6o7Kf8
DB6QRgfwWssDDVVkTA4GLmykOxdvx9udMAOi79UbcVwWU9Mmm+KJC5HnvV23j0C4
3tFVz8ZcDeJX7/qoQHN7lwbMPu1yj3O8P8IU5ur+00KsjDtDqBgriVPkYnesy88P
FZHv7lIbQQ8rV4TfcZYYZTmXLOLtCtZOiOtAucB4XRZho30fgsGHo9C7z+DV0RlB
TtGO2X99rQpHNqs1yA2a3K6Qhi4wQZIOSoRK8pWhMp2AWN6bvWkFtgps
-----END CERTIFICATE-----
