Certificate:
    Data:
        Version: 3 (0x2)
        Serial Number: 11042563100193 (0xa0b0c0d0e21)
    Signature Algorithm: sha256WithRSAEncryption
        Issuer: CN=MYSORECA_CA, C=IN, O=CITRIX, OU=ANG, ST=KA/emailAddress=MYSORECA_CA@MYSORECA_mail.com
        Validity
            Not Before: Jul  8 04:36:35 2016 GMT
            Not After : Jul  6 04:36:35 2026 GMT
        Subject: ST=KA, C=IN, CN=119_MYSORECA_server/emailAddress=119_MYSORECA@test_ca.com, O=CITRIX
        Subject Public Key Info:
            Public Key Algorithm: rsaEncryption
                Public-Key: (2048 bit)
                Modulus:
                    00:9e:9d:33:bd:6d:7f:36:ad:38:da:9a:76:a7:83:
                    e7:dc:91:61:70:32:67:96:18:fe:0a:c5:4b:a2:d2:
                    c3:59:db:ad:66:03:56:05:48:f6:32:47:d3:3e:92:
                    ad:17:f7:ef:13:2d:e3:8a:1e:6a:bb:b7:20:8e:06:
                    24:0f:c9:d2:ac:88:5e:7a:be:59:de:49:6f:aa:97:
                    65:1e:5a:eb:6f:9c:42:88:47:b2:16:f2:5c:cc:d6:
                    ce:9f:bc:2f:51:59:70:98:33:bc:ee:7b:96:6f:99:
                    93:7c:cb:e6:fc:ca:45:94:3a:fb:fa:19:80:62:cb:
                    cc:d1:58:95:23:79:30:86:83:91:89:d1:27:f8:f7:
                    06:96:52:ef:e3:06:20:56:b2:72:9b:ab:de:5c:58:
                    c8:bf:15:7f:5b:cb:14:91:30:82:83:07:52:b9:f2:
                    e0:e7:88:c7:da:e7:05:59:49:7a:0c:9b:a4:29:56:
                    3f:c7:54:71:94:e1:08:e4:91:85:10:b6:87:3e:43:
                    f8:27:75:9c:7a:37:0c:ef:32:1b:ec:4f:b7:20:1c:
                    28:41:c9:70:76:5f:f8:79:1e:4f:d1:8e:43:aa:d9:
                    77:fe:43:7b:d2:26:73:4a:2d:1b:4f:75:62:80:a2:
                    ff:1e:0d:39:92:c8:e2:cd:16:c6:b3:70:29:09:1e:
                    7a:e7
                Exponent: 65537 (0x10001)
        X509v3 extensions:
            Netscape Cert Type: 
                SSL Server
            X509v3 Subject Key Identifier: 
                87:69:28:7D:F6:AE:25:1D:2A:76:28:95:A3:3C:93:40:BE:AB:94:82
            X509v3 Authority Key Identifier: 
                keyid:C6:18:DA:E4:16:A1:1E:60:AE:18:00:F5:A7:DF:0A:8B:65:4D:36:95
                DirName:/CN=MYSORECA_CA/C=IN/O=CITRIX/OU=ANG/ST=KA/emailAddress=MYSORECA_CA@MYSORECA_mail.com
                serial:D5:74:54:E9:D5:CF:C9:F6

            Authority Information Access: 
                OCSP - URI:http://MYSORECA_two.ocsptest.com/responderpath

    Signature Algorithm: sha256WithRSAEncryption
         76:cb:06:6a:90:1a:a3:c7:98:15:7f:ba:70:ec:33:8a:1d:3a:
         96:d1:f5:c3:dd:a8:a4:90:5e:50:83:31:c4:8f:5f:a1:59:a3:
         ca:7b:82:0f:c8:00:c6:a7:ed:6a:8d:07:25:74:79:cd:30:5e:
         75:1d:d9:5f:23:4c:6d:f4:a3:59:3e:65:c8:82:f8:89:9c:3a:
         88:cf:cb:db:7c:7c:ae:13:c3:dd:c5:66:a0:29:63:5e:5a:90:
         12:37:13:f9:bb:a0:20:4a:ea:92:99:4c:f1:d7:81:18:70:e3:
         ad:2e:05:c2:17:b2:65:99:36:d3:66:e8:84:40:55:59:1f:44:
         1f:ca:6e:00:c3:6f:b1:8e:71:4e:4e:9a:f7:19:41:59:bb:7c:
         36:f9:86:94:41:7a:05:a4:c8:2f:f1:b7:5b:61:9c:5f:5f:46:
         1e:53:62:f3:87:06:9c:28:8b:04:d5:3a:b3:5b:17:49:88:d2:
         fa:48:39:e1:6e:ed:d6:8b:f4:82:65:3b:28:72:63:09:24:21:
         32:3b:ee:7e:ab:bd:13:27:b1:4e:a8:8c:9f:e3:78:ac:75:26:
         11:32:bd:a1:71:e3:b0:5d:3e:9f:24:62:39:5b:3e:23:32:1d:
         60:12:b2:f4:4d:a4:94:93:74:3e:7a:be:44:02:00:95:e8:7c:
         f7:f4:c8:24
-----BEGIN CERTIFICATE-----
MIIEpjCCA46gAwIBAgIGCgsMDQ4hMA0GCSqGSIb3DQEBCwUAMH0xFDASBgNVBAMU
C01ZU09SRUNBX0NBMQswCQYDVQQGEwJJTjEPMA0GA1UEChMGQ0lUUklYMQwwCgYD
VQQLEwNBTkcxCzAJBgNVBAgTAktBMSwwKgYJKoZIhvcNAQkBFh1NWVNPUkVDQV9D
QUBNWVNPUkVDQV9tYWlsLmNvbTAeFw0xNjA3MDgwNDM2MzVaFw0yNjA3MDYwNDM2
MzVaMHIxCzAJBgNVBAgTAktBMQswCQYDVQQGEwJJTjEcMBoGA1UEAxQTMTE5X01Z
U09SRUNBX3NlcnZlcjEnMCUGCSqGSIb3DQEJARYYMTE5X01ZU09SRUNBQHRlc3Rf
Y2EuY29tMQ8wDQYDVQQKEwZDSVRSSVgwggEiMA0GCSqGSIb3DQEBAQUAA4IBDwAw
ggEKAoIBAQCenTO9bX82rTjamnang+fckWFwMmeWGP4KxUui0sNZ261mA1YFSPYy
R9M+kq0X9+8TLeOKHmq7tyCOBiQPydKsiF56vlneSW+ql2UeWutvnEKIR7IW8lzM
1s6fvC9RWXCYM7zue5ZvmZN8y+b8ykWUOvv6GYBiy8zRWJUjeTCGg5GJ0Sf49waW
Uu/jBiBWsnKbq95cWMi/FX9byxSRMIKDB1K58uDniMfa5wVZSXoMm6QpVj/HVHGU
4QjkkYUQtoc+Q/gndZx6NwzvMhvsT7cgHChByXB2X/h5Hk/RjkOq2Xf+Q3vSJnNK
LRtPdWKAov8eDTmSyOLNFsazcCkJHnrnAgMBAAGjggE1MIIBMTARBglghkgBhvhC
AQEEBAMCBkAwHQYDVR0OBBYEFIdpKH32riUdKnYolaM8k0C+q5SCMIGwBgNVHSME
gagwgaWAFMYY2uQWoR5grhgA9affCotlTTaVoYGBpH8wfTEUMBIGA1UEAxQLTVlT
T1JFQ0FfQ0ExCzAJBgNVBAYTAklOMQ8wDQYDVQQKEwZDSVRSSVgxDDAKBgNVBAsT
A0FORzELMAkGA1UECBMCS0ExLDAqBgkqhkiG9w0BCQEWHU1ZU09SRUNBX0NBQE1Z
U09SRUNBX21haWwuY29tggkA1XRU6dXPyfYwSgYIKwYBBQUHAQEEPjA8MDoGCCsG
AQUFBzABhi5odHRwOi8vTVlTT1JFQ0FfdHdvLm9jc3B0ZXN0LmNvbS9yZXNwb25k
ZXJwYXRoMA0GCSqGSIb3DQEBCwUAA4IBAQB2ywZqkBqjx5gVf7pw7DOKHTqW0fXD
3aikkF5QgzHEj1+hWaPKe4IPyADGp+1qjQcldHnNMF51HdlfI0xt9KNZPmXIgviJ
nDqIz8vbfHyuE8PdxWagKWNeWpASNxP5u6AgSuqSmUzx14EYcOOtLgXCF7JlmTbT
ZuiEQFVZH0Qfym4Aw2+xjnFOTpr3GUFZu3w2+YaUQXoFpMgv8bdbYZxfX0YeU2Lz
hwacKIsE1TqzWxdJiNL6SDnhbu3Wi/SCZTsocmMJJCEyO+5+q70TJ7FOqIyf43is
dSYRMr2hceOwXT6fJGI5Wz4jMh1gErL0TaSUk3Q+er5EAgCV6Hz39Mgk
-----END CERTIFICATE-----
