Certificate:
    Data:
        Version: 3 (0x2)
        Serial Number: 11042563100197 (0xa0b0c0d0e25)
    Signature Algorithm: sha256WithRSAEncryption
        Issuer: CN=MYSORECA_CA, C=IN, O=CITRIX, OU=ANG, ST=KA/emailAddress=MYSORECA_CA@MYSORECA_mail.com
        Validity
            Not Before: Jul  8 04:36:35 2016 GMT
            Not After : Jul  6 04:36:35 2026 GMT
        Subject: ST=KA, C=IN, CN=123_MYSORECA_server/emailAddress=123_MYSORECA@test_ca.com, O=CITRIX
        Subject Public Key Info:
            Public Key Algorithm: rsaEncryption
                Public-Key: (2048 bit)
                Modulus:
                    00:be:fd:cb:81:ae:82:af:18:4a:f2:82:c1:76:c8:
                    c9:42:b2:1e:f1:1f:4c:35:a2:22:f0:cf:67:16:1c:
                    c0:73:b6:c6:68:7a:4d:86:88:f4:41:a4:28:65:13:
                    4f:e9:07:24:c6:82:d6:b5:ed:ce:6f:a2:c7:66:a6:
                    fb:07:5b:63:5f:91:08:03:75:0a:82:a3:2e:b0:18:
                    7b:b2:95:14:c8:bf:cd:a8:9a:37:ef:34:d2:d4:e6:
                    05:ca:22:7a:92:55:a2:d4:03:39:88:3f:57:05:bd:
                    22:c9:02:6d:81:d5:36:52:5b:5b:85:43:40:f2:b8:
                    bc:85:bb:02:96:5f:ca:2f:eb:a1:04:3e:5a:5e:4b:
                    7c:fe:01:cd:e3:39:d4:66:ce:d4:d3:d1:72:8e:c2:
                    2f:50:64:ae:61:4b:c2:8c:86:24:a0:4d:ea:91:91:
                    4d:17:d2:9f:01:2d:58:4b:1b:e9:d1:ea:18:8e:37:
                    21:de:54:8f:24:e2:7a:81:a3:42:25:8a:8a:b5:3a:
                    40:64:ce:50:a0:01:fd:c9:37:47:9b:57:52:b7:54:
                    f9:c8:f4:00:72:68:e6:b4:dd:f7:06:fb:36:d3:4d:
                    c7:0b:df:77:9b:b6:d0:e4:ac:49:a1:26:ff:b9:d8:
                    80:74:de:49:70:55:8c:f4:6e:1d:10:d4:d4:3d:f8:
                    91:45
                Exponent: 65537 (0x10001)
        X509v3 extensions:
            Netscape Cert Type: 
                SSL Server
            X509v3 Subject Key Identifier: 
                CA:DA:EF:1E:F2:E1:64:A7:4F:61:EB:43:A6:A2:68:33:6C:AB:C2:EA
            X509v3 Authority Key Identifier: 
                keyid:C6:18:DA:E4:16:A1:1E:60:AE:18:00:F5:A7:DF:0A:8B:65:4D:36:95
                DirName:/CN=MYSORECA_CA/C=IN/O=CITRIX/OU=ANG/ST=KA/emailAddress=MYSORECA_CA@MYSORECA_mail.com
                serial:D5:74:54:E9:D5:CF:C9:F6

            Authority Information Access: 
                OCSP - URI:http://172.24.10.1/responderpath

    Signature Algorithm: sha256WithRSAEncryption
         20:a1:40:f0:66:98:c5:ba:f8:af:40:e6:ef:a5:8e:a9:6f:36:
         d8:83:2a:1a:2b:a4:83:b2:be:1b:b0:74:20:d7:ff:df:05:12:
         d4:a5:2b:fb:84:bd:cf:5c:fa:d7:1c:4e:96:7e:8a:03:87:13:
         63:3a:fd:ca:77:19:42:6b:85:99:62:8b:ce:47:40:88:bf:08:
         61:3f:5a:fc:8e:c9:7d:f4:97:08:34:0e:fc:82:79:36:ed:fe:
         61:d6:0c:ae:3f:ff:ef:ae:0c:a6:f2:b3:b4:ed:1a:d2:e9:94:
         4d:d5:4b:dc:84:92:5c:f0:a2:9f:14:0d:e2:50:5d:3c:cb:c3:
         c1:bf:fd:f7:cb:b5:cc:19:22:1c:7b:5a:fa:3c:b7:ff:a9:a8:
         23:83:d1:1d:c9:ff:98:b0:c3:20:32:ee:79:1e:5f:b2:50:87:
         4c:c2:68:90:34:aa:f7:15:30:41:88:2f:b2:95:ff:f0:af:80:
         83:09:6f:33:df:40:7b:04:6e:a5:78:ec:0e:51:64:24:2e:cd:
         fb:5a:1c:38:b2:d7:d5:8d:b2:29:72:51:f0:91:c5:71:c5:da:
         8c:40:1f:85:76:e7:10:ed:d5:45:df:d7:1d:0c:5e:f7:f1:51:
         a3:91:26:97:8a:79:c0:f4:c1:5d:d6:92:34:aa:35:f1:b9:6f:
         09:6a:1c:7b
-----BEGIN CERTIFICATE-----
MIIEmDCCA4CgAwIBAgIGCgsMDQ4lMA0GCSqGSIb3DQEBCwUAMH0xFDASBgNVBAMU
C01ZU09SRUNBX0NBMQswCQYDVQQGEwJJTjEPMA0GA1UEChMGQ0lUUklYMQwwCgYD
VQQLEwNBTkcxCzAJBgNVBAgTAktBMSwwKgYJKoZIhvcNAQkBFh1NWVNPUkVDQV9D
QUBNWVNPUkVDQV9tYWlsLmNvbTAeFw0xNjA3MDgwNDM2MzVaFw0yNjA3MDYwNDM2
MzVaMHIxCzAJBgNVBAgTAktBMQswCQYDVQQGEwJJTjEcMBoGA1UEAxQTMTIzX01Z
U09SRUNBX3NlcnZlcjEnMCUGCSqGSIb3DQEJARYYMTIzX01ZU09SRUNBQHRlc3Rf
Y2EuY29tMQ8wDQYDVQQKEwZDSVRSSVgwggEiMA0GCSqGSIb3DQEBAQUAA4IBDwAw
ggEKAoIBAQC+/cuBroKvGErygsF2yMlCsh7xH0w1oiLwz2cWHMBztsZoek2GiPRB
pChlE0/pByTGgta17c5vosdmpvsHW2NfkQgDdQqCoy6wGHuylRTIv82omjfvNNLU
5gXKInqSVaLUAzmIP1cFvSLJAm2B1TZSW1uFQ0DyuLyFuwKWX8ov66EEPlpeS3z+
Ac3jOdRmztTT0XKOwi9QZK5hS8KMhiSgTeqRkU0X0p8BLVhLG+nR6hiONyHeVI8k
4nqBo0Ilioq1OkBkzlCgAf3JN0ebV1K3VPnI9AByaOa03fcG+zbTTccL33ebttDk
rEmhJv+52IB03klwVYz0bh0Q1NQ9+JFFAgMBAAGjggEnMIIBIzARBglghkgBhvhC
AQEEBAMCBkAwHQYDVR0OBBYEFMra7x7y4WSnT2HrQ6aiaDNsq8LqMIGwBgNVHSME
gagwgaWAFMYY2uQWoR5grhgA9affCotlTTaVoYGBpH8wfTEUMBIGA1UEAxQLTVlT
T1JFQ0FfQ0ExCzAJBgNVBAYTAklOMQ8wDQYDVQQKEwZDSVRSSVgxDDAKBgNVBAsT
A0FORzELMAkGA1UECBMCS0ExLDAqBgkqhkiG9w0BCQEWHU1ZU09SRUNBX0NBQE1Z
U09SRUNBX21haWwuY29tggkA1XRU6dXPyfYwPAYIKwYBBQUHAQEEMDAuMCwGCCsG
AQUFBzABhiBodHRwOi8vMTcyLjI0LjEwLjEvcmVzcG9uZGVycGF0aDANBgkqhkiG
9w0BAQsFAAOCAQEAIKFA8GaYxbr4r0Dm76WOqW822IMqGiukg7K+G7B0INf/3wUS
1KUr+4S9z1z61xxOln6KA4cTYzr9yncZQmuFmWKLzkdAiL8IYT9a/I7JffSXCDQO
/IJ5Nu3+YdYMrj//764MpvKztO0a0umUTdVL3ISSXPCinxQN4lBdPMvDwb/998u1
zBkiHHta+jy3/6moI4PRHcn/mLDDIDLueR5fslCHTMJokDSq9xUwQYgvspX/8K+A
gwlvM99AewRupXjsDlFkJC7N+1ocOLLX1Y2yKXJR8JHFccXajEAfhXbnEO3VRd/X
HQxe9/FRo5Eml4p5wPTBXdaSNKo18blvCWocew==
-----END CERTIFICATE-----
