Certificate:
    Data:
        Version: 3 (0x2)
        Serial Number: 11042563100198 (0xa0b0c0d0e26)
    Signature Algorithm: sha256WithRSAEncryption
        Issuer: CN=MYSORECA_CA, C=IN, O=CITRIX, OU=ANG, ST=KA/emailAddress=MYSORECA_CA@MYSORECA_mail.com
        Validity
            Not Before: Jul  8 04:36:36 2016 GMT
            Not After : Jul  6 04:36:36 2026 GMT
        Subject: ST=KA, C=IN, CN=124_MYSORECA_server/emailAddress=124_MYSORECA@test_ca.com, O=CITRIX
        Subject Public Key Info:
            Public Key Algorithm: rsaEncryption
                Public-Key: (2048 bit)
                Modulus:
                    00:a3:53:af:f2:aa:30:b3:58:b8:ec:39:52:6e:a1:
                    7b:6c:60:e6:a6:54:47:6d:bc:fb:2a:fb:59:cb:cf:
                    63:5f:c9:c6:f9:03:54:da:a3:62:fc:cf:1e:1c:2d:
                    35:36:e5:59:fe:dc:f6:25:27:51:26:12:6f:a4:f0:
                    f9:9b:2a:ac:f0:fa:7b:18:af:d6:45:11:be:7d:81:
                    97:4e:2a:85:7a:90:5f:f9:d8:82:28:02:73:5a:6a:
                    1c:a8:e3:6d:eb:17:de:b3:a8:06:2a:27:e3:a7:85:
                    6e:0a:02:65:9b:1d:45:48:3c:cb:b7:45:73:bf:35:
                    08:d3:ec:d0:76:61:38:4c:79:cd:74:33:16:f1:ab:
                    2f:d5:29:e7:9f:16:fc:ff:ff:a1:00:43:14:74:9d:
                    4a:2f:85:29:49:ec:52:4f:ad:8e:c6:ba:64:ea:a2:
                    62:a7:0f:f8:96:5d:09:b3:f4:50:d1:f8:0f:8d:14:
                    1d:b8:e9:05:30:07:fb:67:2d:7f:d2:42:61:43:46:
                    c0:16:8c:d1:85:51:36:d4:7c:23:46:31:ed:d7:67:
                    9c:25:01:ea:39:a5:91:db:b0:44:4b:88:63:4f:46:
                    13:47:23:e6:ad:25:e7:24:92:6e:31:58:52:6d:5c:
                    17:b3:bd:08:7d:d7:a7:4c:07:03:98:56:11:de:3d:
                    e5:b9
                Exponent: 65537 (0x10001)
        X509v3 extensions:
            Netscape Cert Type: 
                SSL Server
            X509v3 Subject Key Identifier: 
                CA:6A:32:03:C1:02:13:95:CA:B1:72:F7:8B:62:CF:71:C1:CD:12:FB
            X509v3 Authority Key Identifier: 
                keyid:C6:18:DA:E4:16:A1:1E:60:AE:18:00:F5:A7:DF:0A:8B:65:4D:36:95
                DirName:/CN=MYSORECA_CA/C=IN/O=CITRIX/OU=ANG/ST=KA/emailAddress=MYSORECA_CA@MYSORECA_mail.com
                serial:D5:74:54:E9:D5:CF:C9:F6

            Authority Information Access: 
                OCSP - URI:http://172.24.10.1/responderpath

    Signature Algorithm: sha256WithRSAEncryption
         02:30:0f:8c:a2:c8:3c:7e:f4:16:48:80:4c:56:f5:d3:06:ff:
         18:50:6d:7b:a5:d3:ae:b1:e1:50:e6:db:ca:65:00:f2:4e:87:
         b6:f9:9f:ba:5e:71:b8:0a:aa:23:ab:ea:1f:10:d4:a7:24:bd:
         97:be:7d:28:5b:e6:af:ea:8f:f8:6b:80:74:47:f0:40:a1:78:
         63:13:e9:ae:68:1a:47:77:c6:18:6f:18:4b:43:cb:19:d8:68:
         60:77:5a:29:62:22:79:58:18:c3:d4:b5:97:29:be:5e:74:1a:
         5a:39:26:ed:cb:ab:e9:06:c2:2a:31:f1:8e:09:67:0c:ae:9c:
         be:95:ed:db:21:74:a7:21:71:c7:1b:b4:ab:d6:0b:75:26:95:
         24:fe:ca:fc:f3:fc:43:7f:d0:49:93:b7:ee:3d:06:cc:bd:9b:
         01:f2:93:2e:e9:fa:13:95:18:e0:67:d6:60:ea:0f:aa:d3:d3:
         07:a7:8a:11:64:5c:a8:6e:70:70:a7:71:f7:36:e8:a6:d7:50:
         92:14:5e:57:21:58:8c:2d:98:dc:a7:fe:0d:01:87:ae:a0:c3:
         73:d6:78:e3:76:89:bf:c8:5d:9e:eb:70:14:10:c5:65:0e:52:
         89:86:ff:19:d1:34:7f:87:92:03:9b:06:95:fa:e9:5c:7a:d9:
         c7:04:25:80
-----BEGIN CERTIFICATE-----
MIIEmDCCA4CgAwIBAgIGCgsMDQ4mMA0GCSqGSIb3DQEBCwUAMH0xFDASBgNVBAMU
C01ZU09SRUNBX0NBMQswCQYDVQQGEwJJTjEPMA0GA1UEChMGQ0lUUklYMQwwCgYD
VQQLEwNBTkcxCzAJBgNVBAgTAktBMSwwKgYJKoZIhvcNAQkBFh1NWVNPUkVDQV9D
QUBNWVNPUkVDQV9tYWlsLmNvbTAeFw0xNjA3MDgwNDM2MzZaFw0yNjA3MDYwNDM2
MzZaMHIxCzAJBgNVBAgTAktBMQswCQYDVQQGEwJJTjEcMBoGA1UEAxQTMTI0X01Z
U09SRUNBX3NlcnZlcjEnMCUGCSqGSIb3DQEJARYYMTI0X01ZU09SRUNBQHRlc3Rf
Y2EuY29tMQ8wDQYDVQQKEwZDSVRSSVgwggEiMA0GCSqGSIb3DQEBAQUAA4IBDwAw
ggEKAoIBAQCjU6/yqjCzWLjsOVJuoXtsYOamVEdtvPsq+1nLz2Nfycb5A1Tao2L8
zx4cLTU25Vn+3PYlJ1EmEm+k8PmbKqzw+nsYr9ZFEb59gZdOKoV6kF/52IIoAnNa
ahyo423rF96zqAYqJ+OnhW4KAmWbHUVIPMu3RXO/NQjT7NB2YThMec10Mxbxqy/V
KeefFvz//6EAQxR0nUovhSlJ7FJPrY7GumTqomKnD/iWXQmz9FDR+A+NFB246QUw
B/tnLX/SQmFDRsAWjNGFUTbUfCNGMe3XZ5wlAeo5pZHbsERLiGNPRhNHI+atJeck
km4xWFJtXBezvQh916dMBwOYVhHePeW5AgMBAAGjggEnMIIBIzARBglghkgBhvhC
AQEEBAMCBkAwHQYDVR0OBBYEFMpqMgPBAhOVyrFy94tiz3HBzRL7MIGwBgNVHSME
gagwgaWAFMYY2uQWoR5grhgA9affCotlTTaVoYGBpH8wfTEUMBIGA1UEAxQLTVlT
T1JFQ0FfQ0ExCzAJBgNVBAYTAklOMQ8wDQYDVQQKEwZDSVRSSVgxDDAKBgNVBAsT
A0FORzELMAkGA1UECBMCS0ExLDAqBgkqhkiG9w0BCQEWHU1ZU09SRUNBX0NBQE1Z
U09SRUNBX21haWwuY29tggkA1XRU6dXPyfYwPAYIKwYBBQUHAQEEMDAuMCwGCCsG
AQUFBzABhiBodHRwOi8vMTcyLjI0LjEwLjEvcmVzcG9uZGVycGF0aDANBgkqhkiG
9w0BAQsFAAOCAQEAAjAPjKLIPH70FkiATFb10wb/GFBte6XTrrHhUObbymUA8k6H
tvmful5xuAqqI6vqHxDUpyS9l759KFvmr+qP+GuAdEfwQKF4YxPprmgaR3fGGG8Y
S0PLGdhoYHdaKWIieVgYw9S1lym+XnQaWjkm7cur6QbCKjHxjglnDK6cvpXt2yF0
pyFxxxu0q9YLdSaVJP7K/PP8Q3/QSZO37j0GzL2bAfKTLun6E5UY4GfWYOoPqtPT
B6eKEWRcqG5wcKdx9zboptdQkhReVyFYjC2Y3Kf+DQGHrqDDc9Z443aJv8hdnutw
FBDFZQ5SiYb/GdE0f4eSA5sGlfrpXHrZxwQlgA==
-----END CERTIFICATE-----
