Certificate:
    Data:
        Version: 3 (0x2)
        Serial Number: 11042563100201 (0xa0b0c0d0e29)
    Signature Algorithm: sha256WithRSAEncryption
        Issuer: CN=MYSORECA_CA, C=IN, O=CITRIX, OU=ANG, ST=KA/emailAddress=MYSORECA_CA@MYSORECA_mail.com
        Validity
            Not Before: Jul  8 04:36:37 2016 GMT
            Not After : Jul  6 04:36:37 2026 GMT
        Subject: ST=KA, C=IN, CN=127_MYSORECA_server/emailAddress=127_MYSORECA@test_ca.com, O=CITRIX
        Subject Public Key Info:
            Public Key Algorithm: rsaEncryption
                Public-Key: (2048 bit)
                Modulus:
                    00:bf:79:62:ce:56:38:d6:e3:12:c3:7f:e0:9d:d0:
                    7d:46:60:67:3c:f6:18:84:95:0b:8b:09:1a:f6:b4:
                    ce:70:cb:6d:98:bb:ab:60:d0:3c:7b:5a:3b:19:e8:
                    51:e1:75:c9:ba:e5:30:48:5a:97:83:e1:2b:b0:1a:
                    d9:6b:92:4d:bf:01:32:a1:46:a1:2a:89:4d:1a:9e:
                    74:63:3d:08:70:73:b9:af:fa:fc:bc:f2:4a:fd:0b:
                    6b:27:0b:21:3b:f2:67:f5:8e:d3:52:b6:3b:0a:06:
                    eb:80:3c:98:ed:b8:20:d3:b3:6c:61:53:3a:a2:19:
                    e5:e2:79:af:c3:e1:5b:e6:25:d8:64:b7:04:88:53:
                    7b:73:c4:6f:7d:98:fa:e8:d4:91:37:df:57:97:d5:
                    fc:fc:83:52:be:15:ff:99:12:5b:ab:ac:3b:dd:2b:
                    59:21:f9:57:32:2d:3a:f8:3f:e4:21:5a:47:22:8c:
                    5c:15:db:e8:0b:b6:28:ff:ef:4e:68:0d:62:43:cc:
                    82:0d:7a:c0:a5:ce:e3:06:46:8c:ce:f0:9f:d3:2e:
                    05:bb:dc:ad:2a:5a:36:6b:85:2c:76:41:cd:ad:52:
                    b5:c3:30:53:fb:b0:4e:af:32:8c:a7:d4:2a:43:08:
                    3f:8d:f5:19:7a:e8:02:5f:33:d8:0f:77:e0:12:38:
                    8d:eb
                Exponent: 65537 (0x10001)
        X509v3 extensions:
            Netscape Cert Type: 
                SSL Server
            X509v3 Subject Key Identifier: 
                4C:62:E4:ED:80:DA:0D:59:75:93:EB:A4:A7:BE:37:F1:2D:57:37:49
            X509v3 Authority Key Identifier: 
                keyid:C6:18:DA:E4:16:A1:1E:60:AE:18:00:F5:A7:DF:0A:8B:65:4D:36:95
                DirName:/CN=MYSORECA_CA/C=IN/O=CITRIX/OU=ANG/ST=KA/emailAddress=MYSORECA_CA@MYSORECA_mail.com
                serial:D5:74:54:E9:D5:CF:C9:F6

            Authority Information Access: 
                OCSP - URI:http://172.24.10.1/responderpath

    Signature Algorithm: sha256WithRSAEncryption
         7c:e8:2c:2d:5f:5a:7b:d7:07:df:e2:c8:f1:1d:b3:85:fb:7f:
         73:4f:c9:8d:b1:2b:57:63:c1:11:29:72:b3:79:5d:99:2c:9a:
         e2:32:be:1f:f1:c4:6f:29:c1:67:80:26:eb:72:14:30:37:c7:
         54:7d:68:9c:c0:1f:d6:20:66:01:6d:3a:00:b6:fe:c4:d3:a2:
         28:4f:99:49:ee:f7:0d:2b:0f:b5:d7:18:2e:22:12:21:eb:c8:
         94:10:a4:02:6d:3d:86:00:a2:e2:5b:47:19:15:f2:ca:61:86:
         e2:5f:7d:44:d0:5d:16:e7:6a:15:9d:95:ee:28:f7:9a:98:6e:
         94:ee:5a:2d:91:34:23:c1:35:7f:66:45:b1:51:d1:63:3e:35:
         3e:0c:66:37:1e:74:02:b8:6d:cd:8e:7b:53:7f:0e:96:01:9b:
         aa:81:6b:c3:c3:df:4d:3c:45:16:6e:9e:f9:a2:fd:8e:99:1b:
         b2:f0:d3:58:70:1b:ee:f8:d2:5a:58:54:83:d8:8e:c9:b3:36:
         49:fd:d8:05:40:46:22:b0:a9:d6:7f:2d:32:34:a0:00:6e:36:
         61:c3:e3:4b:5b:44:30:87:bc:0b:80:ee:1a:6f:4b:50:47:66:
         3c:1f:ac:c5:12:85:8a:a5:83:8f:77:04:22:49:b1:ac:50:0c:
         c3:ec:e1:ce
-----BEGIN CERTIFICATE-----
MIIEmDCCA4CgAwIBAgIGCgsMDQ4pMA0GCSqGSIb3DQEBCwUAMH0xFDASBgNVBAMU
C01ZU09SRUNBX0NBMQswCQYDVQQGEwJJTjEPMA0GA1UEChMGQ0lUUklYMQwwCgYD
VQQLEwNBTkcxCzAJBgNVBAgTAktBMSwwKgYJKoZIhvcNAQkBFh1NWVNPUkVDQV9D
QUBNWVNPUkVDQV9tYWlsLmNvbTAeFw0xNjA3MDgwNDM2MzdaFw0yNjA3MDYwNDM2
MzdaMHIxCzAJBgNVBAgTAktBMQswCQYDVQQGEwJJTjEcMBoGA1UEAxQTMTI3X01Z
U09SRUNBX3NlcnZlcjEnMCUGCSqGSIb3DQEJARYYMTI3X01ZU09SRUNBQHRlc3Rf
Y2EuY29tMQ8wDQYDVQQKEwZDSVRSSVgwggEiMA0GCSqGSIb3DQEBAQUAA4IBDwAw
ggEKAoIBAQC/eWLOVjjW4xLDf+Cd0H1GYGc89hiElQuLCRr2tM5wy22Yu6tg0Dx7
WjsZ6FHhdcm65TBIWpeD4SuwGtlrkk2/ATKhRqEqiU0annRjPQhwc7mv+vy88kr9
C2snCyE78mf1jtNStjsKBuuAPJjtuCDTs2xhUzqiGeXiea/D4VvmJdhktwSIU3tz
xG99mPro1JE331eX1fz8g1K+Ff+ZElurrDvdK1kh+VcyLTr4P+QhWkcijFwV2+gL
tij/705oDWJDzIINesClzuMGRozO8J/TLgW73K0qWjZrhSx2Qc2tUrXDMFP7sE6v
Moyn1CpDCD+N9Rl66AJfM9gPd+ASOI3rAgMBAAGjggEnMIIBIzARBglghkgBhvhC
AQEEBAMCBkAwHQYDVR0OBBYEFExi5O2A2g1ZdZPrpKe+N/EtVzdJMIGwBgNVHSME
gagwgaWAFMYY2uQWoR5grhgA9affCotlTTaVoYGBpH8wfTEUMBIGA1UEAxQLTVlT
T1JFQ0FfQ0ExCzAJBgNVBAYTAklOMQ8wDQYDVQQKEwZDSVRSSVgxDDAKBgNVBAsT
A0FORzELMAkGA1UECBMCS0ExLDAqBgkqhkiG9w0BCQEWHU1ZU09SRUNBX0NBQE1Z
U09SRUNBX21haWwuY29tggkA1XRU6dXPyfYwPAYIKwYBBQUHAQEEMDAuMCwGCCsG
AQUFBzABhiBodHRwOi8vMTcyLjI0LjEwLjEvcmVzcG9uZGVycGF0aDANBgkqhkiG
9w0BAQsFAAOCAQEAfOgsLV9ae9cH3+LI8R2zhft/c0/JjbErV2PBESlys3ldmSya
4jK+H/HEbynBZ4Am63IUMDfHVH1onMAf1iBmAW06ALb+xNOiKE+ZSe73DSsPtdcY
LiISIevIlBCkAm09hgCi4ltHGRXyymGG4l99RNBdFudqFZ2V7ij3mphulO5aLZE0
I8E1f2ZFsVHRYz41PgxmNx50ArhtzY57U38OlgGbqoFrw8PfTTxFFm6e+aL9jpkb
svDTWHAb7vjSWlhUg9iOybM2Sf3YBUBGIrCp1n8tMjSgAG42YcPjS1tEMIe8C4Du
Gm9LUEdmPB+sxRKFiqWDj3cEIkmxrFAMw+zhzg==
-----END CERTIFICATE-----
