Certificate:
    Data:
        Version: 3 (0x2)
        Serial Number: 11042563100202 (0xa0b0c0d0e2a)
    Signature Algorithm: sha256WithRSAEncryption
        Issuer: CN=MYSORECA_CA, C=IN, O=CITRIX, OU=ANG, ST=KA/emailAddress=MYSORECA_CA@MYSORECA_mail.com
        Validity
            Not Before: Jul  8 04:36:37 2016 GMT
            Not After : Jul  6 04:36:37 2026 GMT
        Subject: ST=KA, C=IN, CN=128_MYSORECA_server/emailAddress=128_MYSORECA@test_ca.com, O=CITRIX
        Subject Public Key Info:
            Public Key Algorithm: rsaEncryption
                Public-Key: (2048 bit)
                Modulus:
                    00:cf:29:38:c9:85:7b:a0:5c:61:6f:f9:05:72:3f:
                    ff:e1:76:19:3f:ab:d6:03:0c:b5:fa:3c:9f:f3:5b:
                    00:13:8d:d5:02:65:38:8f:45:9d:81:ae:50:ec:98:
                    d2:62:45:b5:46:86:12:1a:d0:9d:09:c1:19:99:f9:
                    6f:74:de:3b:c7:10:ad:c7:96:e7:6c:68:5e:75:7c:
                    45:f9:df:30:a7:b8:19:6e:e2:03:34:26:bc:f7:2a:
                    2c:e6:2f:46:db:5c:06:5c:3a:73:bc:4b:3b:2d:65:
                    b2:ef:f6:b9:0e:25:fc:52:21:22:bd:7d:42:54:ab:
                    53:b6:eb:2c:34:43:3d:f0:3e:21:16:3f:c3:53:f7:
                    8a:cf:37:63:57:7e:6b:f0:4b:02:d6:1e:a1:f8:93:
                    c0:95:e1:49:79:ee:68:55:6f:06:84:3e:31:cb:6f:
                    44:b4:78:69:0a:e5:5a:52:92:86:11:9d:ff:65:0b:
                    c5:76:b0:c9:c8:ef:a3:7e:7d:fc:8a:d5:20:d0:bb:
                    7a:be:3c:73:bb:e8:17:41:4f:41:86:2a:ca:f1:45:
                    a5:7b:7f:c4:2a:f2:6b:25:ed:95:01:6d:f2:7d:22:
                    58:d8:8d:17:82:11:42:f5:25:69:9a:3a:1c:c0:28:
                    54:c6:3f:34:b0:d7:f8:a1:a7:5f:96:d2:cf:bd:43:
                    1c:9f
                Exponent: 65537 (0x10001)
        X509v3 extensions:
            Netscape Cert Type: 
                SSL Server
            X509v3 Subject Key Identifier: 
                DB:2E:0F:D5:F1:A5:E6:12:0C:60:01:7E:5E:F4:E8:C9:48:DF:46:A8
            X509v3 Authority Key Identifier: 
                keyid:C6:18:DA:E4:16:A1:1E:60:AE:18:00:F5:A7:DF:0A:8B:65:4D:36:95
                DirName:/CN=MYSORECA_CA/C=IN/O=CITRIX/OU=ANG/ST=KA/emailAddress=MYSORECA_CA@MYSORECA_mail.com
                serial:D5:74:54:E9:D5:CF:C9:F6

            Authority Information Access: 
                OCSP - URI:http://172.24.10.1/responderpath

    Signature Algorithm: sha256WithRSAEncryption
         3a:7e:69:a4:7f:dc:a2:f4:d6:03:f7:46:b2:e4:40:4a:1c:bb:
         3d:3c:a8:f3:b6:69:09:16:2c:a0:b4:8e:5d:af:27:8f:f5:3d:
         7d:da:2c:a5:5d:70:92:ec:6a:38:82:1a:2d:df:74:a6:d5:00:
         9a:2d:39:19:a8:1e:05:d2:eb:3c:91:e1:60:7e:73:ac:f9:a4:
         ae:86:03:a2:22:5e:52:92:20:8f:19:74:00:b2:b0:05:19:f6:
         6e:db:c7:c7:c4:c4:79:72:f3:8f:09:00:ad:15:d7:d5:95:bf:
         9c:79:25:b9:9f:06:93:f3:67:62:92:80:28:e5:a4:bb:85:18:
         79:7e:e6:04:62:7c:db:d7:f9:ea:9e:11:e8:61:b2:97:cf:1f:
         04:dc:5c:4d:b8:94:9f:a3:9b:f4:b9:e0:ce:20:9f:c4:1e:8a:
         2c:63:af:04:a2:55:4b:b1:3a:6c:9f:5f:08:ea:0b:de:aa:df:
         cd:f2:10:a1:0d:9f:f5:33:c4:1f:5d:32:2d:8c:4f:0f:8b:59:
         1e:a2:c6:ee:45:93:1d:15:2c:7d:3c:49:07:3f:e0:9e:02:4e:
         65:e9:7d:10:f3:da:72:ef:38:36:c9:27:e2:48:72:af:24:5b:
         b0:0c:b5:91:b4:a0:18:e2:e7:64:7a:b1:95:83:36:bb:db:40:
         bd:4d:65:3c
-----BEGIN CERTIFICATE-----
MIIEmDCCA4CgAwIBAgIGCgsMDQ4qMA0GCSqGSIb3DQEBCwUAMH0xFDASBgNVBAMU
C01ZU09SRUNBX0NBMQswCQYDVQQGEwJJTjEPMA0GA1UEChMGQ0lUUklYMQwwCgYD
VQQLEwNBTkcxCzAJBgNVBAgTAktBMSwwKgYJKoZIhvcNAQkBFh1NWVNPUkVDQV9D
QUBNWVNPUkVDQV9tYWlsLmNvbTAeFw0xNjA3MDgwNDM2MzdaFw0yNjA3MDYwNDM2
MzdaMHIxCzAJBgNVBAgTAktBMQswCQYDVQQGEwJJTjEcMBoGA1UEAxQTMTI4X01Z
U09SRUNBX3NlcnZlcjEnMCUGCSqGSIb3DQEJARYYMTI4X01ZU09SRUNBQHRlc3Rf
Y2EuY29tMQ8wDQYDVQQKEwZDSVRSSVgwggEiMA0GCSqGSIb3DQEBAQUAA4IBDwAw
ggEKAoIBAQDPKTjJhXugXGFv+QVyP//hdhk/q9YDDLX6PJ/zWwATjdUCZTiPRZ2B
rlDsmNJiRbVGhhIa0J0JwRmZ+W903jvHEK3HludsaF51fEX53zCnuBlu4gM0Jrz3
KizmL0bbXAZcOnO8SzstZbLv9rkOJfxSISK9fUJUq1O26yw0Qz3wPiEWP8NT94rP
N2NXfmvwSwLWHqH4k8CV4Ul57mhVbwaEPjHLb0S0eGkK5VpSkoYRnf9lC8V2sMnI
76N+ffyK1SDQu3q+PHO76BdBT0GGKsrxRaV7f8Qq8msl7ZUBbfJ9IljYjReCEUL1
JWmaOhzAKFTGPzSw1/ihp1+W0s+9QxyfAgMBAAGjggEnMIIBIzARBglghkgBhvhC
AQEEBAMCBkAwHQYDVR0OBBYEFNsuD9XxpeYSDGABfl706MlI30aoMIGwBgNVHSME
gagwgaWAFMYY2uQWoR5grhgA9affCotlTTaVoYGBpH8wfTEUMBIGA1UEAxQLTVlT
T1JFQ0FfQ0ExCzAJBgNVBAYTAklOMQ8wDQYDVQQKEwZDSVRSSVgxDDAKBgNVBAsT
A0FORzELMAkGA1UECBMCS0ExLDAqBgkqhkiG9w0BCQEWHU1ZU09SRUNBX0NBQE1Z
U09SRUNBX21haWwuY29tggkA1XRU6dXPyfYwPAYIKwYBBQUHAQEEMDAuMCwGCCsG
AQUFBzABhiBodHRwOi8vMTcyLjI0LjEwLjEvcmVzcG9uZGVycGF0aDANBgkqhkiG
9w0BAQsFAAOCAQEAOn5ppH/covTWA/dGsuRAShy7PTyo87ZpCRYsoLSOXa8nj/U9
fdospV1wkuxqOIIaLd90ptUAmi05GageBdLrPJHhYH5zrPmkroYDoiJeUpIgjxl0
ALKwBRn2btvHx8TEeXLzjwkArRXX1ZW/nHkluZ8Gk/NnYpKAKOWku4UYeX7mBGJ8
29f56p4R6GGyl88fBNxcTbiUn6Ob9LngziCfxB6KLGOvBKJVS7E6bJ9fCOoL3qrf
zfIQoQ2f9TPEH10yLYxPD4tZHqLG7kWTHRUsfTxJBz/gngJOZel9EPPacu84Nskn
4khyryRbsAy1kbSgGOLnZHqxlYM2u9tAvU1lPA==
-----END CERTIFICATE-----
