Certificate:
    Data:
        Version: 3 (0x2)
        Serial Number: 11042563100204 (0xa0b0c0d0e2c)
    Signature Algorithm: sha256WithRSAEncryption
        Issuer: CN=MYSORECA_CA, C=IN, O=CITRIX, OU=ANG, ST=KA/emailAddress=MYSORECA_CA@MYSORECA_mail.com
        Validity
            Not Before: Jul  8 04:36:37 2016 GMT
            Not After : Jul  6 04:36:37 2026 GMT
        Subject: ST=KA, C=IN, CN=130_MYSORECA_server/emailAddress=130_MYSORECA@test_ca.com, O=CITRIX
        Subject Public Key Info:
            Public Key Algorithm: rsaEncryption
                Public-Key: (2048 bit)
                Modulus:
                    00:e8:e7:4c:74:09:9d:b9:e5:5f:be:6b:08:1c:46:
                    20:07:9e:4d:e9:93:9f:4b:d5:80:ec:bb:46:5b:72:
                    45:2f:eb:70:fc:8d:12:62:07:68:22:ea:09:92:4e:
                    db:50:39:61:b4:21:9e:7e:51:fd:8a:2a:45:35:ba:
                    55:41:09:1d:71:9f:2d:5e:75:a3:fe:28:16:bb:26:
                    f2:db:d1:da:0e:55:a6:d4:21:75:b0:a9:3c:29:cd:
                    55:7e:c9:09:c5:d0:24:64:d0:af:99:16:cb:b3:64:
                    b8:0a:24:96:0f:d3:13:75:e2:17:57:d6:86:88:7f:
                    d7:b4:4c:02:51:69:03:99:9a:7e:28:d9:cb:e1:9f:
                    26:83:da:f6:53:1e:ad:06:d4:ab:4d:0c:48:7c:10:
                    2e:9b:4c:18:25:91:b8:e1:18:43:08:b6:2b:4a:3b:
                    b0:47:fd:b1:55:52:04:98:65:10:73:6b:7b:7e:77:
                    9d:78:84:9d:50:97:54:19:04:97:7e:96:7f:2f:47:
                    db:8d:84:bd:4a:4f:7e:0a:f0:71:42:71:b2:2c:53:
                    d9:af:59:d6:bb:bc:81:6f:b1:38:89:f7:20:06:8a:
                    db:76:40:a3:a3:24:23:2f:77:4d:45:9c:a7:b9:a7:
                    1e:35:64:3e:72:ba:6e:5b:ff:b5:5d:0e:8c:82:f9:
                    69:61
                Exponent: 65537 (0x10001)
        X509v3 extensions:
            Netscape Cert Type: 
                SSL Server
            X509v3 Subject Key Identifier: 
                20:8F:8B:F3:21:41:9F:4F:7D:84:32:98:CA:84:08:A8:4E:C4:F7:18
            X509v3 Authority Key Identifier: 
                keyid:C6:18:DA:E4:16:A1:1E:60:AE:18:00:F5:A7:DF:0A:8B:65:4D:36:95
                DirName:/CN=MYSORECA_CA/C=IN/O=CITRIX/OU=ANG/ST=KA/emailAddress=MYSORECA_CA@MYSORECA_mail.com
                serial:D5:74:54:E9:D5:CF:C9:F6

            Authority Information Access: 
                OCSP - URI:http://172.24.10.1/responderpath

    Signature Algorithm: sha256WithRSAEncryption
         84:21:f9:9e:4a:9e:b8:03:13:2d:fb:cf:dd:d0:d7:e1:d3:35:
         3c:21:19:4b:16:a7:5a:18:47:cf:c5:37:22:a1:0f:26:d5:10:
         90:e3:00:65:a1:df:8b:12:b2:79:f4:77:1d:26:05:a4:49:2f:
         d7:05:83:bd:80:23:95:37:93:0d:6b:d9:96:c0:43:6a:2a:b6:
         33:5e:fb:9a:ad:ea:37:c1:0b:70:67:18:1d:e0:42:84:a5:6f:
         61:9d:68:99:99:e6:19:82:fd:d0:0f:3a:79:74:fb:b5:52:9c:
         53:26:c4:e4:ef:6e:ff:59:d4:0d:0d:24:ef:f1:93:6c:5f:7d:
         d2:6e:34:e3:27:82:3c:0d:02:c6:94:c5:3b:65:78:4b:2e:0f:
         3e:89:63:ca:8d:50:e8:15:26:c2:95:4e:54:a2:73:30:0c:9f:
         ad:8f:aa:72:8b:dc:d1:b6:33:7f:80:f5:2a:5e:d1:57:d0:a3:
         53:d6:07:b2:66:8c:36:e4:2b:ef:bf:b1:c5:fd:ee:e7:bf:8e:
         54:10:50:3f:fa:58:59:08:8a:60:0a:93:b2:17:c4:85:59:be:
         cb:dd:cd:b1:b7:69:cc:8c:ab:de:93:a0:7d:58:d8:93:f2:23:
         09:bc:14:28:f6:a2:fa:0a:72:02:37:df:d6:33:54:a3:8c:f7:
         01:de:01:e7
-----BEGIN CERTIFICATE-----
MIIEmDCCA4CgAwIBAgIGCgsMDQ4sMA0GCSqGSIb3DQEBCwUAMH0xFDASBgNVBAMU
C01ZU09SRUNBX0NBMQswCQYDVQQGEwJJTjEPMA0GA1UEChMGQ0lUUklYMQwwCgYD
VQQLEwNBTkcxCzAJBgNVBAgTAktBMSwwKgYJKoZIhvcNAQkBFh1NWVNPUkVDQV9D
QUBNWVNPUkVDQV9tYWlsLmNvbTAeFw0xNjA3MDgwNDM2MzdaFw0yNjA3MDYwNDM2
MzdaMHIxCzAJBgNVBAgTAktBMQswCQYDVQQGEwJJTjEcMBoGA1UEAxQTMTMwX01Z
U09SRUNBX3NlcnZlcjEnMCUGCSqGSIb3DQEJARYYMTMwX01ZU09SRUNBQHRlc3Rf
Y2EuY29tMQ8wDQYDVQQKEwZDSVRSSVgwggEiMA0GCSqGSIb3DQEBAQUAA4IBDwAw
ggEKAoIBAQDo50x0CZ255V++awgcRiAHnk3pk59L1YDsu0ZbckUv63D8jRJiB2gi
6gmSTttQOWG0IZ5+Uf2KKkU1ulVBCR1xny1edaP+KBa7JvLb0doOVabUIXWwqTwp
zVV+yQnF0CRk0K+ZFsuzZLgKJJYP0xN14hdX1oaIf9e0TAJRaQOZmn4o2cvhnyaD
2vZTHq0G1KtNDEh8EC6bTBglkbjhGEMItitKO7BH/bFVUgSYZRBza3t+d514hJ1Q
l1QZBJd+ln8vR9uNhL1KT34K8HFCcbIsU9mvWda7vIFvsTiJ9yAGitt2QKOjJCMv
d01FnKe5px41ZD5yum5b/7VdDoyC+WlhAgMBAAGjggEnMIIBIzARBglghkgBhvhC
AQEEBAMCBkAwHQYDVR0OBBYEFCCPi/MhQZ9PfYQymMqECKhOxPcYMIGwBgNVHSME
gagwgaWAFMYY2uQWoR5grhgA9affCotlTTaVoYGBpH8wfTEUMBIGA1UEAxQLTVlT
T1JFQ0FfQ0ExCzAJBgNVBAYTAklOMQ8wDQYDVQQKEwZDSVRSSVgxDDAKBgNVBAsT
A0FORzELMAkGA1UECBMCS0ExLDAqBgkqhkiG9w0BCQEWHU1ZU09SRUNBX0NBQE1Z
U09SRUNBX21haWwuY29tggkA1XRU6dXPyfYwPAYIKwYBBQUHAQEEMDAuMCwGCCsG
AQUFBzABhiBodHRwOi8vMTcyLjI0LjEwLjEvcmVzcG9uZGVycGF0aDANBgkqhkiG
9w0BAQsFAAOCAQEAhCH5nkqeuAMTLfvP3dDX4dM1PCEZSxanWhhHz8U3IqEPJtUQ
kOMAZaHfixKyefR3HSYFpEkv1wWDvYAjlTeTDWvZlsBDaiq2M177mq3qN8ELcGcY
HeBChKVvYZ1omZnmGYL90A86eXT7tVKcUybE5O9u/1nUDQ0k7/GTbF990m404yeC
PA0CxpTFO2V4Sy4PPoljyo1Q6BUmwpVOVKJzMAyfrY+qcovc0bYzf4D1Kl7RV9Cj
U9YHsmaMNuQr77+xxf3u57+OVBBQP/pYWQiKYAqTshfEhVm+y93NsbdpzIyr3pOg
fVjYk/IjCbwUKPai+gpyAjff1jNUo4z3Ad4B5w==
-----END CERTIFICATE-----
