Certificate:
    Data:
        Version: 3 (0x2)
        Serial Number: 11042563100205 (0xa0b0c0d0e2d)
    Signature Algorithm: sha256WithRSAEncryption
        Issuer: CN=MYSORECA_CA, C=IN, O=CITRIX, OU=ANG, ST=KA/emailAddress=MYSORECA_CA@MYSORECA_mail.com
        Validity
            Not Before: Jul  8 04:36:37 2016 GMT
            Not After : Jul  6 04:36:37 2026 GMT
        Subject: ST=KA, C=IN, CN=131_MYSORECA_server/emailAddress=131_MYSORECA@test_ca.com, O=CITRIX
        Subject Public Key Info:
            Public Key Algorithm: rsaEncryption
                Public-Key: (2048 bit)
                Modulus:
                    00:d5:02:8c:d7:a9:6c:eb:5b:5a:b3:5a:35:81:48:
                    99:d7:f6:44:0e:23:29:e1:8f:cd:be:ef:fc:e5:13:
                    54:01:74:13:1d:4d:f5:43:91:91:d6:1e:cc:72:dd:
                    34:ca:7a:48:0d:c2:95:22:f7:ed:a5:04:89:15:1f:
                    c4:82:de:8b:bd:30:86:8a:e5:0d:9b:05:45:27:13:
                    97:69:91:a1:6b:a9:d5:30:5c:23:ae:95:fb:f0:02:
                    9d:7e:c9:33:7d:b2:c1:bf:46:07:34:92:77:fc:f0:
                    3b:07:43:fe:23:a1:bb:3f:84:66:ee:bf:83:7e:7e:
                    93:b6:e8:65:10:f0:54:1e:3a:a4:0e:00:b9:e3:cd:
                    67:8a:f5:77:e1:d0:f3:c7:1b:a5:f0:59:a0:af:e8:
                    72:a7:09:ec:f0:4b:7c:b8:c7:9a:a8:84:38:ea:2e:
                    99:d5:7b:85:48:ff:4e:98:09:e5:a4:88:9b:f5:d1:
                    74:64:95:51:43:ce:02:b9:1d:e3:05:d3:af:03:9d:
                    3a:db:e6:ca:85:87:e4:2a:bb:e8:3c:f6:ba:75:7f:
                    64:c3:fc:7d:b2:14:cc:8d:71:68:81:09:6d:9c:e6:
                    4c:3c:88:37:e3:c7:cc:ef:e1:87:4c:d8:5b:d1:3a:
                    eb:76:18:d9:43:fa:0f:95:3d:c8:28:2b:ac:4d:b6:
                    98:15
                Exponent: 65537 (0x10001)
        X509v3 extensions:
            Netscape Cert Type: 
                SSL Server
            X509v3 Subject Key Identifier: 
                06:AA:66:E4:F6:1C:2B:63:22:D5:E5:E9:2D:D2:73:92:2A:F6:B1:F2
            X509v3 Authority Key Identifier: 
                keyid:C6:18:DA:E4:16:A1:1E:60:AE:18:00:F5:A7:DF:0A:8B:65:4D:36:95
                DirName:/CN=MYSORECA_CA/C=IN/O=CITRIX/OU=ANG/ST=KA/emailAddress=MYSORECA_CA@MYSORECA_mail.com
                serial:D5:74:54:E9:D5:CF:C9:F6

            Authority Information Access: 
                OCSP - URI:http://172.24.20.1/responderpath

    Signature Algorithm: sha256WithRSAEncryption
         74:eb:09:ab:a5:89:8b:49:87:3e:b9:97:22:29:cd:af:dd:1a:
         b4:53:2c:8c:de:12:55:86:24:88:5e:a4:c0:61:da:c8:e3:1a:
         3b:e3:23:e5:42:cf:62:16:7d:1f:0f:8c:35:6f:f2:b1:87:af:
         85:24:6b:50:a6:ec:69:3b:6c:d3:fc:a1:38:46:d6:8e:e7:94:
         f6:2e:bd:03:8b:a3:0c:78:cc:66:88:56:6c:2f:ce:a8:82:82:
         25:a4:25:b0:73:88:07:03:ef:39:f1:a2:78:80:49:34:62:bb:
         1a:b2:1b:d6:0a:b0:74:e2:8d:e7:13:d9:36:d9:e8:99:a9:4a:
         62:c0:56:a6:14:a4:8f:d2:17:6a:72:cb:b5:c8:d5:9e:f7:e3:
         9a:5f:07:3e:ca:23:ba:16:8f:34:c3:c7:a2:9f:c6:20:63:ed:
         c7:ff:80:15:09:5f:de:9c:ab:a5:b3:b4:74:df:d7:f6:2c:51:
         f4:fc:65:d1:4a:d1:6e:d9:78:4b:14:24:d0:45:c2:b9:29:08:
         79:a0:4f:ae:03:6e:cc:d5:12:b6:20:49:16:94:66:97:07:86:
         05:d4:81:df:6d:c2:5d:c7:c8:08:a5:c9:ee:b8:dc:e6:20:9c:
         72:f8:66:de:42:f5:39:9c:69:d9:9f:88:26:bc:7a:48:88:03:
         c5:56:0e:17
-----BEGIN CERTIFICATE-----
MIIEmDCCA4CgAwIBAgIGCgsMDQ4tMA0GCSqGSIb3DQEBCwUAMH0xFDASBgNVBAMU
C01ZU09SRUNBX0NBMQswCQYDVQQGEwJJTjEPMA0GA1UEChMGQ0lUUklYMQwwCgYD
VQQLEwNBTkcxCzAJBgNVBAgTAktBMSwwKgYJKoZIhvcNAQkBFh1NWVNPUkVDQV9D
QUBNWVNPUkVDQV9tYWlsLmNvbTAeFw0xNjA3MDgwNDM2MzdaFw0yNjA3MDYwNDM2
MzdaMHIxCzAJBgNVBAgTAktBMQswCQYDVQQGEwJJTjEcMBoGA1UEAxQTMTMxX01Z
U09SRUNBX3NlcnZlcjEnMCUGCSqGSIb3DQEJARYYMTMxX01ZU09SRUNBQHRlc3Rf
Y2EuY29tMQ8wDQYDVQQKEwZDSVRSSVgwggEiMA0GCSqGSIb3DQEBAQUAA4IBDwAw
ggEKAoIBAQDVAozXqWzrW1qzWjWBSJnX9kQOIynhj82+7/zlE1QBdBMdTfVDkZHW
Hsxy3TTKekgNwpUi9+2lBIkVH8SC3ou9MIaK5Q2bBUUnE5dpkaFrqdUwXCOulfvw
Ap1+yTN9ssG/Rgc0knf88DsHQ/4jobs/hGbuv4N+fpO26GUQ8FQeOqQOALnjzWeK
9Xfh0PPHG6XwWaCv6HKnCezwS3y4x5qohDjqLpnVe4VI/06YCeWkiJv10XRklVFD
zgK5HeMF068DnTrb5sqFh+Qqu+g89rp1f2TD/H2yFMyNcWiBCW2c5kw8iDfjx8zv
4YdM2FvROut2GNlD+g+VPcgoK6xNtpgVAgMBAAGjggEnMIIBIzARBglghkgBhvhC
AQEEBAMCBkAwHQYDVR0OBBYEFAaqZuT2HCtjItXl6S3Sc5Iq9rHyMIGwBgNVHSME
gagwgaWAFMYY2uQWoR5grhgA9affCotlTTaVoYGBpH8wfTEUMBIGA1UEAxQLTVlT
T1JFQ0FfQ0ExCzAJBgNVBAYTAklOMQ8wDQYDVQQKEwZDSVRSSVgxDDAKBgNVBAsT
A0FORzELMAkGA1UECBMCS0ExLDAqBgkqhkiG9w0BCQEWHU1ZU09SRUNBX0NBQE1Z
U09SRUNBX21haWwuY29tggkA1XRU6dXPyfYwPAYIKwYBBQUHAQEEMDAuMCwGCCsG
AQUFBzABhiBodHRwOi8vMTcyLjI0LjIwLjEvcmVzcG9uZGVycGF0aDANBgkqhkiG
9w0BAQsFAAOCAQEAdOsJq6WJi0mHPrmXIinNr90atFMsjN4SVYYkiF6kwGHayOMa
O+Mj5ULPYhZ9Hw+MNW/ysYevhSRrUKbsaTts0/yhOEbWjueU9i69A4ujDHjMZohW
bC/OqIKCJaQlsHOIBwPvOfGieIBJNGK7GrIb1gqwdOKN5xPZNtnomalKYsBWphSk
j9IXanLLtcjVnvfjml8HPsojuhaPNMPHop/GIGPtx/+AFQlf3pyrpbO0dN/X9ixR
9Pxl0UrRbtl4SxQk0EXCuSkIeaBPrgNuzNUStiBJFpRmlweGBdSB323CXcfICKXJ
7rjc5iCccvhm3kL1OZxp2Z+IJrx6SIgDxVYOFw==
-----END CERTIFICATE-----
