Certificate:
    Data:
        Version: 3 (0x2)
        Serial Number: 11042563100206 (0xa0b0c0d0e2e)
    Signature Algorithm: sha256WithRSAEncryption
        Issuer: CN=MYSORECA_CA, C=IN, O=CITRIX, OU=ANG, ST=KA/emailAddress=MYSORECA_CA@MYSORECA_mail.com
        Validity
            Not Before: Jul  8 04:36:38 2016 GMT
            Not After : Jul  6 04:36:38 2026 GMT
        Subject: ST=KA, C=IN, CN=132_MYSORECA_server/emailAddress=132_MYSORECA@test_ca.com, O=CITRIX
        Subject Public Key Info:
            Public Key Algorithm: rsaEncryption
                Public-Key: (2048 bit)
                Modulus:
                    00:9c:32:fc:93:a2:23:37:32:90:21:2d:50:b7:22:
                    e5:7a:5d:1e:c8:3f:ea:77:8c:54:97:57:60:ef:8c:
                    e3:75:91:6c:b3:d7:3c:0d:ba:25:91:93:3b:24:ea:
                    8b:2a:fc:fa:6d:29:86:6c:ba:16:a5:cc:d4:ec:44:
                    f1:46:82:7a:17:b1:d4:51:fa:5b:06:10:ad:f5:84:
                    d0:39:dd:d8:3c:c4:79:9c:b1:85:22:fd:f1:b0:ec:
                    df:06:c2:a4:7b:5c:01:b6:ba:b5:49:72:f8:45:55:
                    1e:45:f1:5c:63:fc:59:f9:1c:b2:57:8b:0b:84:80:
                    9d:17:b3:31:a1:a9:0b:0c:d4:38:8a:97:90:d9:14:
                    cc:bf:ed:33:cc:63:37:e3:73:6c:a9:15:76:a4:83:
                    d9:82:56:ca:f4:77:12:d7:f7:62:04:ac:20:67:71:
                    ba:7c:2a:cb:33:5d:28:08:1b:bb:1c:ec:5e:87:b0:
                    c2:57:47:99:06:1d:c2:28:d1:56:a4:8f:df:67:05:
                    1b:a3:b4:c3:fb:46:07:e3:b1:e7:8d:9e:2a:d4:b5:
                    7a:d2:38:ea:24:e7:0f:c3:b1:7f:84:3e:1f:5c:79:
                    2e:e2:65:52:1d:13:f4:51:ac:2c:cd:d9:a3:a1:69:
                    a6:31:c8:5b:a8:8e:8b:ac:ca:4d:6c:7a:1c:ba:8c:
                    95:e5
                Exponent: 65537 (0x10001)
        X509v3 extensions:
            Netscape Cert Type: 
                SSL Server
            X509v3 Subject Key Identifier: 
                21:A1:62:BF:85:F8:A7:D1:0A:C3:59:17:B1:0D:6D:AE:82:F5:2F:CD
            X509v3 Authority Key Identifier: 
                keyid:C6:18:DA:E4:16:A1:1E:60:AE:18:00:F5:A7:DF:0A:8B:65:4D:36:95
                DirName:/CN=MYSORECA_CA/C=IN/O=CITRIX/OU=ANG/ST=KA/emailAddress=MYSORECA_CA@MYSORECA_mail.com
                serial:D5:74:54:E9:D5:CF:C9:F6

            Authority Information Access: 
                OCSP - URI:http://172.24.20.1/responderpath

    Signature Algorithm: sha256WithRSAEncryption
         24:9d:d9:31:61:ab:52:df:51:43:4c:5b:c7:c3:67:e0:23:1e:
         8a:16:e5:19:46:5c:af:f5:bb:9f:e3:07:52:d4:78:1e:e8:51:
         7a:41:ff:83:d8:57:e7:94:72:c8:0e:68:9e:81:1e:89:1e:af:
         e5:39:62:54:63:34:6a:75:2f:da:d4:65:c7:7b:03:63:6e:30:
         c3:44:74:d5:2e:96:a8:64:c9:f1:ea:ee:11:00:1a:b2:b1:41:
         ed:12:3e:36:6f:f8:03:95:35:3b:06:47:7e:0f:06:24:45:32:
         50:4c:97:bb:b6:08:96:84:01:3f:ed:98:8a:9f:30:23:7e:b4:
         50:00:4b:11:60:9b:fc:65:07:f6:80:24:75:14:a9:42:3b:ff:
         6c:62:17:44:2c:ad:e5:58:67:ad:fa:dc:71:c0:57:96:5d:de:
         f9:4f:ba:32:bd:52:7c:a2:da:46:50:f2:68:89:c6:85:c6:8a:
         6e:35:dc:76:a9:2f:7e:25:4b:3b:d4:3c:0e:8a:54:3f:f3:00:
         76:2c:07:c4:76:74:63:80:53:9f:15:4b:af:71:6d:24:24:53:
         6a:a3:a5:19:09:a4:49:f8:b7:7e:9d:48:3b:10:48:41:22:33:
         49:a9:f0:12:2b:08:a3:3a:73:b7:9f:4d:2e:c9:f4:b9:14:12:
         2a:96:1a:7b
-----BEGIN CERTIFICATE-----
MIIEmDCCA4CgAwIBAgIGCgsMDQ4uMA0GCSqGSIb3DQEBCwUAMH0xFDASBgNVBAMU
C01ZU09SRUNBX0NBMQswCQYDVQQGEwJJTjEPMA0GA1UEChMGQ0lUUklYMQwwCgYD
VQQLEwNBTkcxCzAJBgNVBAgTAktBMSwwKgYJKoZIhvcNAQkBFh1NWVNPUkVDQV9D
QUBNWVNPUkVDQV9tYWlsLmNvbTAeFw0xNjA3MDgwNDM2MzhaFw0yNjA3MDYwNDM2
MzhaMHIxCzAJBgNVBAgTAktBMQswCQYDVQQGEwJJTjEcMBoGA1UEAxQTMTMyX01Z
U09SRUNBX3NlcnZlcjEnMCUGCSqGSIb3DQEJARYYMTMyX01ZU09SRUNBQHRlc3Rf
Y2EuY29tMQ8wDQYDVQQKEwZDSVRSSVgwggEiMA0GCSqGSIb3DQEBAQUAA4IBDwAw
ggEKAoIBAQCcMvyToiM3MpAhLVC3IuV6XR7IP+p3jFSXV2DvjON1kWyz1zwNuiWR
kzsk6osq/PptKYZsuhalzNTsRPFGgnoXsdRR+lsGEK31hNA53dg8xHmcsYUi/fGw
7N8GwqR7XAG2urVJcvhFVR5F8Vxj/Fn5HLJXiwuEgJ0XszGhqQsM1DiKl5DZFMy/
7TPMYzfjc2ypFXakg9mCVsr0dxLX92IErCBncbp8KsszXSgIG7sc7F6HsMJXR5kG
HcIo0Vakj99nBRujtMP7RgfjseeNnirUtXrSOOok5w/DsX+EPh9ceS7iZVIdE/RR
rCzN2aOhaaYxyFuojousyk1sehy6jJXlAgMBAAGjggEnMIIBIzARBglghkgBhvhC
AQEEBAMCBkAwHQYDVR0OBBYEFCGhYr+F+KfRCsNZF7ENba6C9S/NMIGwBgNVHSME
gagwgaWAFMYY2uQWoR5grhgA9affCotlTTaVoYGBpH8wfTEUMBIGA1UEAxQLTVlT
T1JFQ0FfQ0ExCzAJBgNVBAYTAklOMQ8wDQYDVQQKEwZDSVRSSVgxDDAKBgNVBAsT
A0FORzELMAkGA1UECBMCS0ExLDAqBgkqhkiG9w0BCQEWHU1ZU09SRUNBX0NBQE1Z
U09SRUNBX21haWwuY29tggkA1XRU6dXPyfYwPAYIKwYBBQUHAQEEMDAuMCwGCCsG
AQUFBzABhiBodHRwOi8vMTcyLjI0LjIwLjEvcmVzcG9uZGVycGF0aDANBgkqhkiG
9w0BAQsFAAOCAQEAJJ3ZMWGrUt9RQ0xbx8Nn4CMeihblGUZcr/W7n+MHUtR4HuhR
ekH/g9hX55RyyA5onoEeiR6v5TliVGM0anUv2tRlx3sDY24ww0R01S6WqGTJ8eru
EQAasrFB7RI+Nm/4A5U1OwZHfg8GJEUyUEyXu7YIloQBP+2Yip8wI360UABLEWCb
/GUH9oAkdRSpQjv/bGIXRCyt5VhnrfrcccBXll3e+U+6Mr1SfKLaRlDyaInGhcaK
bjXcdqkvfiVLO9Q8DopUP/MAdiwHxHZ0Y4BTnxVLr3FtJCRTaqOlGQmkSfi3fp1I
OxBIQSIzSanwEisIozpzt59NLsn0uRQSKpYaew==
-----END CERTIFICATE-----
