Certificate:
    Data:
        Version: 3 (0x2)
        Serial Number: 11042563100209 (0xa0b0c0d0e31)
    Signature Algorithm: sha256WithRSAEncryption
        Issuer: CN=MYSORECA_CA, C=IN, O=CITRIX, OU=ANG, ST=KA/emailAddress=MYSORECA_CA@MYSORECA_mail.com
        Validity
            Not Before: Jul  8 04:36:38 2016 GMT
            Not After : Jul  6 04:36:38 2026 GMT
        Subject: ST=KA, C=IN, CN=135_MYSORECA_server/emailAddress=135_MYSORECA@test_ca.com, O=CITRIX
        Subject Public Key Info:
            Public Key Algorithm: rsaEncryption
                Public-Key: (2048 bit)
                Modulus:
                    00:dc:2c:ed:c7:db:24:cf:82:0f:2f:e7:4a:bd:79:
                    ea:fc:06:a7:27:ad:b3:d8:e2:a3:5c:41:43:f3:c4:
                    36:3d:fb:69:77:b9:c0:8d:ec:e7:74:e9:b8:75:d2:
                    b0:38:28:6d:d8:e0:b4:a8:9c:13:5d:86:c2:46:7d:
                    5a:46:cf:49:ee:b6:fb:5e:3f:ad:e8:0f:12:b3:e5:
                    d5:6f:85:c8:4d:2d:de:28:9e:2f:93:ef:2d:7d:1c:
                    9f:42:b9:0b:5f:b2:e5:bb:d9:6d:1a:d1:36:8f:83:
                    63:10:c8:58:63:c2:1b:89:d0:91:c8:a0:75:5e:56:
                    a0:bb:3b:35:e6:64:d1:48:62:43:21:42:77:60:75:
                    5c:3a:8b:e3:b8:5f:b4:4e:5d:fd:6c:fa:ed:de:bb:
                    29:6d:bf:69:30:28:11:c5:3c:db:d1:77:35:c1:ed:
                    ba:5f:6b:b7:1e:74:ce:7c:1a:60:ad:c4:3c:dc:6e:
                    be:43:0d:6c:d3:ad:22:26:60:79:bb:e7:77:a8:6b:
                    0b:02:38:dc:61:f1:6d:02:2c:60:14:70:02:5a:a1:
                    d1:5e:a0:a2:c1:8b:26:13:10:ad:cf:bb:e5:38:71:
                    b3:2b:7c:87:db:52:95:29:77:3f:90:18:ff:ce:d3:
                    8d:54:2d:06:44:07:6f:a7:51:9d:e0:b5:48:a4:b4:
                    70:4d
                Exponent: 65537 (0x10001)
        X509v3 extensions:
            Netscape Cert Type: 
                SSL Server
            X509v3 Subject Key Identifier: 
                0B:89:E1:5B:FA:55:99:52:23:1D:61:18:18:76:1E:BB:AE:3F:26:7A
            X509v3 Authority Key Identifier: 
                keyid:C6:18:DA:E4:16:A1:1E:60:AE:18:00:F5:A7:DF:0A:8B:65:4D:36:95
                DirName:/CN=MYSORECA_CA/C=IN/O=CITRIX/OU=ANG/ST=KA/emailAddress=MYSORECA_CA@MYSORECA_mail.com
                serial:D5:74:54:E9:D5:CF:C9:F6

            Authority Information Access: 
                OCSP - URI:http://172.24.20.1/responderpath

    Signature Algorithm: sha256WithRSAEncryption
         14:68:7e:22:96:91:30:f1:30:40:65:e7:44:11:2e:49:7c:2b:
         41:46:7d:06:39:bf:4d:af:17:28:69:3f:e9:1b:ae:d6:61:02:
         77:87:2a:21:a3:84:ca:3c:7b:11:e5:68:24:dc:02:46:01:cd:
         01:f4:17:d1:50:35:f5:4d:e7:27:06:b8:22:b2:ca:c1:23:be:
         43:2d:a2:f6:c2:08:4c:7e:27:19:26:26:39:2d:42:bf:a3:8e:
         92:e9:40:f7:94:d4:cc:65:af:41:bf:5d:3b:71:08:24:1b:3f:
         c3:d5:a9:6b:c7:01:da:c6:cf:c8:49:5c:49:1e:96:0d:bd:54:
         ca:c2:68:a7:74:97:f9:09:df:43:a1:b4:15:74:1f:29:10:6a:
         61:30:2d:36:0b:e9:f7:63:b6:94:64:fb:18:09:55:68:cc:a4:
         30:01:6e:06:c4:b3:b9:b6:9e:cd:05:22:bb:cb:76:99:dd:19:
         6d:a2:7a:a9:5e:a1:fd:d9:68:8b:67:6e:51:19:e7:84:51:a1:
         db:95:f3:7b:21:7b:7a:84:b8:26:88:57:ce:96:2a:f1:c5:e9:
         a3:f3:2c:48:19:0a:07:12:c4:a9:1b:be:76:e8:d4:e6:a0:7c:
         e3:23:00:82:fb:8f:3f:ec:76:bc:43:ee:a6:7b:da:87:a0:a6:
         aa:2e:9e:48
-----BEGIN CERTIFICATE-----
MIIEmDCCA4CgAwIBAgIGCgsMDQ4xMA0GCSqGSIb3DQEBCwUAMH0xFDASBgNVBAMU
C01ZU09SRUNBX0NBMQswCQYDVQQGEwJJTjEPMA0GA1UEChMGQ0lUUklYMQwwCgYD
VQQLEwNBTkcxCzAJBgNVBAgTAktBMSwwKgYJKoZIhvcNAQkBFh1NWVNPUkVDQV9D
QUBNWVNPUkVDQV9tYWlsLmNvbTAeFw0xNjA3MDgwNDM2MzhaFw0yNjA3MDYwNDM2
MzhaMHIxCzAJBgNVBAgTAktBMQswCQYDVQQGEwJJTjEcMBoGA1UEAxQTMTM1X01Z
U09SRUNBX3NlcnZlcjEnMCUGCSqGSIb3DQEJARYYMTM1X01ZU09SRUNBQHRlc3Rf
Y2EuY29tMQ8wDQYDVQQKEwZDSVRSSVgwggEiMA0GCSqGSIb3DQEBAQUAA4IBDwAw
ggEKAoIBAQDcLO3H2yTPgg8v50q9eer8BqcnrbPY4qNcQUPzxDY9+2l3ucCN7Od0
6bh10rA4KG3Y4LSonBNdhsJGfVpGz0nutvteP63oDxKz5dVvhchNLd4oni+T7y19
HJ9CuQtfsuW72W0a0TaPg2MQyFhjwhuJ0JHIoHVeVqC7OzXmZNFIYkMhQndgdVw6
i+O4X7ROXf1s+u3euyltv2kwKBHFPNvRdzXB7bpfa7cedM58GmCtxDzcbr5DDWzT
rSImYHm753eoawsCONxh8W0CLGAUcAJaodFeoKLBiyYTEK3Pu+U4cbMrfIfbUpUp
dz+QGP/O041ULQZEB2+nUZ3gtUiktHBNAgMBAAGjggEnMIIBIzARBglghkgBhvhC
AQEEBAMCBkAwHQYDVR0OBBYEFAuJ4Vv6VZlSIx1hGBh2HruuPyZ6MIGwBgNVHSME
gagwgaWAFMYY2uQWoR5grhgA9affCotlTTaVoYGBpH8wfTEUMBIGA1UEAxQLTVlT
T1JFQ0FfQ0ExCzAJBgNVBAYTAklOMQ8wDQYDVQQKEwZDSVRSSVgxDDAKBgNVBAsT
A0FORzELMAkGA1UECBMCS0ExLDAqBgkqhkiG9w0BCQEWHU1ZU09SRUNBX0NBQE1Z
U09SRUNBX21haWwuY29tggkA1XRU6dXPyfYwPAYIKwYBBQUHAQEEMDAuMCwGCCsG
AQUFBzABhiBodHRwOi8vMTcyLjI0LjIwLjEvcmVzcG9uZGVycGF0aDANBgkqhkiG
9w0BAQsFAAOCAQEAFGh+IpaRMPEwQGXnRBEuSXwrQUZ9Bjm/Ta8XKGk/6Ruu1mEC
d4cqIaOEyjx7EeVoJNwCRgHNAfQX0VA19U3nJwa4IrLKwSO+Qy2i9sIITH4nGSYm
OS1Cv6OOkulA95TUzGWvQb9dO3EIJBs/w9Wpa8cB2sbPyElcSR6WDb1UysJop3SX
+QnfQ6G0FXQfKRBqYTAtNgvp92O2lGT7GAlVaMykMAFuBsSzubaezQUiu8t2md0Z
baJ6qV6h/dloi2duURnnhFGh25XzeyF7eoS4JohXzpYq8cXpo/MsSBkKBxLEqRu+
dujU5qB84yMAgvuPP+x2vEPupnvah6Cmqi6eSA==
-----END CERTIFICATE-----
