Certificate:
    Data:
        Version: 3 (0x2)
        Serial Number: 11042563100211 (0xa0b0c0d0e33)
    Signature Algorithm: sha256WithRSAEncryption
        Issuer: CN=MYSORECA_CA, C=IN, O=CITRIX, OU=ANG, ST=KA/emailAddress=MYSORECA_CA@MYSORECA_mail.com
        Validity
            Not Before: Jul  8 04:36:39 2016 GMT
            Not After : Jul  6 04:36:39 2026 GMT
        Subject: ST=KA, C=IN, CN=137_MYSORECA_server/emailAddress=137_MYSORECA@test_ca.com, O=CITRIX
        Subject Public Key Info:
            Public Key Algorithm: rsaEncryption
                Public-Key: (2048 bit)
                Modulus:
                    00:ba:1e:11:46:3e:b2:57:44:59:fd:61:b9:2e:e7:
                    26:74:67:1c:a0:12:58:05:f6:23:e5:f3:42:74:8b:
                    64:80:02:6a:b8:bd:4d:64:0b:78:d9:f5:00:e0:c4:
                    3e:db:cd:b3:46:68:f8:0a:4a:14:c0:46:93:c3:1f:
                    1d:88:88:d3:bd:69:9d:72:31:f3:c9:1e:2e:99:75:
                    a2:66:c1:51:9a:2e:49:b1:e7:64:71:db:48:30:a1:
                    f5:b1:ce:89:2d:ec:39:58:76:ff:dc:ff:94:86:46:
                    ab:23:02:83:4c:fd:2e:8f:bd:79:39:18:e2:12:69:
                    14:d2:92:ab:9c:56:af:c9:a7:9f:90:5a:e4:d6:73:
                    68:28:5b:86:f9:9b:fc:8f:d0:50:95:95:b2:70:a4:
                    bb:2f:af:fa:c4:2d:4b:9d:65:43:a2:84:05:3d:17:
                    f5:78:f7:e6:3d:13:fa:9a:44:74:e4:17:9b:49:45:
                    91:01:12:6d:2c:24:09:7f:c8:e6:65:86:1f:a5:df:
                    8e:65:fb:d6:2a:14:fb:62:8e:a7:40:04:13:f3:25:
                    dd:76:9c:9e:61:f8:eb:c9:08:80:14:fe:52:d6:bd:
                    c6:a9:49:5b:20:5a:be:a4:37:aa:60:96:de:7e:20:
                    f3:20:98:71:70:f1:d8:36:d9:8b:0c:62:e3:95:3d:
                    e3:1b
                Exponent: 65537 (0x10001)
        X509v3 extensions:
            Netscape Cert Type: 
                SSL Server
            X509v3 Subject Key Identifier: 
                BA:B7:5B:59:71:97:EE:02:4E:46:07:84:7E:3A:E9:90:EA:BB:9D:C3
            X509v3 Authority Key Identifier: 
                keyid:C6:18:DA:E4:16:A1:1E:60:AE:18:00:F5:A7:DF:0A:8B:65:4D:36:95
                DirName:/CN=MYSORECA_CA/C=IN/O=CITRIX/OU=ANG/ST=KA/emailAddress=MYSORECA_CA@MYSORECA_mail.com
                serial:D5:74:54:E9:D5:CF:C9:F6

            Authority Information Access: 
                OCSP - URI:http://172.24.20.1/responderpath

    Signature Algorithm: sha256WithRSAEncryption
         64:12:6f:90:65:18:26:01:f6:66:b1:b5:db:ce:70:af:4e:f6:
         d0:1c:2c:44:f0:64:1f:b8:06:08:5e:bd:44:7a:1a:b2:17:89:
         f0:91:10:8a:59:8f:29:be:c7:da:d6:a8:19:e8:61:02:08:6a:
         37:3f:9c:47:08:9a:80:8c:14:ed:77:f5:25:e1:d9:f3:d1:9d:
         59:c0:d1:f4:21:fc:05:61:25:db:fb:39:89:e6:b6:cb:8c:2e:
         7e:59:59:35:56:c5:17:46:11:e1:74:12:34:bd:92:ff:25:a6:
         68:4e:70:46:0e:cb:2a:e6:a7:dd:ba:42:8d:48:84:0f:53:0e:
         64:5b:3b:15:e2:e2:90:b6:bf:c6:06:57:18:7f:c5:f0:2b:71:
         a7:fb:66:01:96:46:b6:1d:67:5f:15:14:5d:2b:36:ac:ea:59:
         c1:9d:c5:a4:f0:2b:28:96:e4:92:1d:17:40:25:37:dd:30:bc:
         d9:ec:05:e9:cf:2f:03:32:3d:8e:0d:cf:00:1e:3b:b6:35:df:
         db:54:8f:d6:73:7e:68:20:e2:62:57:af:e2:00:5a:07:90:a8:
         af:4f:0f:4d:c6:84:43:49:bf:ea:1c:ab:55:26:52:8e:45:e8:
         d2:cd:43:38:81:87:30:22:93:17:cd:4e:45:4e:9d:ae:c4:b7:
         1f:e0:d2:e6
-----BEGIN CERTIFICATE-----
MIIEmDCCA4CgAwIBAgIGCgsMDQ4zMA0GCSqGSIb3DQEBCwUAMH0xFDASBgNVBAMU
C01ZU09SRUNBX0NBMQswCQYDVQQGEwJJTjEPMA0GA1UEChMGQ0lUUklYMQwwCgYD
VQQLEwNBTkcxCzAJBgNVBAgTAktBMSwwKgYJKoZIhvcNAQkBFh1NWVNPUkVDQV9D
QUBNWVNPUkVDQV9tYWlsLmNvbTAeFw0xNjA3MDgwNDM2MzlaFw0yNjA3MDYwNDM2
MzlaMHIxCzAJBgNVBAgTAktBMQswCQYDVQQGEwJJTjEcMBoGA1UEAxQTMTM3X01Z
U09SRUNBX3NlcnZlcjEnMCUGCSqGSIb3DQEJARYYMTM3X01ZU09SRUNBQHRlc3Rf
Y2EuY29tMQ8wDQYDVQQKEwZDSVRSSVgwggEiMA0GCSqGSIb3DQEBAQUAA4IBDwAw
ggEKAoIBAQC6HhFGPrJXRFn9Ybku5yZ0ZxygElgF9iPl80J0i2SAAmq4vU1kC3jZ
9QDgxD7bzbNGaPgKShTARpPDHx2IiNO9aZ1yMfPJHi6ZdaJmwVGaLkmx52Rx20gw
ofWxzokt7DlYdv/c/5SGRqsjAoNM/S6PvXk5GOISaRTSkqucVq/Jp5+QWuTWc2go
W4b5m/yP0FCVlbJwpLsvr/rELUudZUOihAU9F/V49+Y9E/qaRHTkF5tJRZEBEm0s
JAl/yOZlhh+l345l+9YqFPtijqdABBPzJd12nJ5h+OvJCIAU/lLWvcapSVsgWr6k
N6pglt5+IPMgmHFw8dg22YsMYuOVPeMbAgMBAAGjggEnMIIBIzARBglghkgBhvhC
AQEEBAMCBkAwHQYDVR0OBBYEFLq3W1lxl+4CTkYHhH466ZDqu53DMIGwBgNVHSME
gagwgaWAFMYY2uQWoR5grhgA9affCotlTTaVoYGBpH8wfTEUMBIGA1UEAxQLTVlT
T1JFQ0FfQ0ExCzAJBgNVBAYTAklOMQ8wDQYDVQQKEwZDSVRSSVgxDDAKBgNVBAsT
A0FORzELMAkGA1UECBMCS0ExLDAqBgkqhkiG9w0BCQEWHU1ZU09SRUNBX0NBQE1Z
U09SRUNBX21haWwuY29tggkA1XRU6dXPyfYwPAYIKwYBBQUHAQEEMDAuMCwGCCsG
AQUFBzABhiBodHRwOi8vMTcyLjI0LjIwLjEvcmVzcG9uZGVycGF0aDANBgkqhkiG
9w0BAQsFAAOCAQEAZBJvkGUYJgH2ZrG1285wr0720BwsRPBkH7gGCF69RHoasheJ
8JEQilmPKb7H2taoGehhAghqNz+cRwiagIwU7Xf1JeHZ89GdWcDR9CH8BWEl2/s5
iea2y4wufllZNVbFF0YR4XQSNL2S/yWmaE5wRg7LKuan3bpCjUiED1MOZFs7FeLi
kLa/xgZXGH/F8Ctxp/tmAZZGth1nXxUUXSs2rOpZwZ3FpPArKJbkkh0XQCU33TC8
2ewF6c8vAzI9jg3PAB47tjXf21SP1nN+aCDiYlev4gBaB5Cor08PTcaEQ0m/6hyr
VSZSjkXo0s1DOIGHMCKTF81ORU6drsS3H+DS5g==
-----END CERTIFICATE-----
