Certificate:
    Data:
        Version: 3 (0x2)
        Serial Number: 11042563100212 (0xa0b0c0d0e34)
    Signature Algorithm: sha256WithRSAEncryption
        Issuer: CN=MYSORECA_CA, C=IN, O=CITRIX, OU=ANG, ST=KA/emailAddress=MYSORECA_CA@MYSORECA_mail.com
        Validity
            Not Before: Jul  8 04:36:39 2016 GMT
            Not After : Jul  6 04:36:39 2026 GMT
        Subject: ST=KA, C=IN, CN=138_MYSORECA_server/emailAddress=138_MYSORECA@test_ca.com, O=CITRIX
        Subject Public Key Info:
            Public Key Algorithm: rsaEncryption
                Public-Key: (2048 bit)
                Modulus:
                    00:c1:41:2c:98:74:82:e3:8c:eb:dd:13:08:6a:cb:
                    40:6e:b9:7d:5c:ff:60:6d:f8:26:59:a0:99:43:16:
                    4b:17:96:30:4e:61:a8:07:a1:d6:6d:ff:17:4a:c9:
                    85:8d:5b:ae:e9:d8:82:24:e8:5a:e7:3d:90:cc:68:
                    d3:6d:a2:1c:60:a2:3c:a6:66:a1:05:a5:a5:d8:7e:
                    3d:01:fa:c3:f6:34:24:9e:7d:ec:9c:e6:5f:a2:d7:
                    b8:95:c4:de:c6:77:c3:a7:cc:e4:e5:7d:3d:77:d0:
                    ae:bb:43:eb:33:36:59:d2:9f:e3:d1:45:51:90:99:
                    41:38:5e:bb:88:36:15:e2:c5:51:ab:07:44:c0:d8:
                    f2:25:7d:c3:50:f7:27:4d:50:6d:17:f0:e9:20:bf:
                    52:1b:3b:d9:b0:3b:c4:c1:d4:8d:45:2f:fd:19:c3:
                    94:b3:e9:60:28:e8:e2:f1:2e:c2:0a:5e:c8:40:a8:
                    75:d0:ed:de:63:35:0d:52:c5:22:44:74:a8:43:e9:
                    67:f4:c6:22:73:bf:80:08:4b:6a:de:c2:6b:4b:ed:
                    cd:b6:72:a0:29:84:e8:cf:a1:3f:8d:14:0f:3d:06:
                    46:b5:a2:86:96:20:dd:7c:d0:9f:74:1a:b9:f1:8b:
                    6b:98:71:79:5b:38:4b:66:45:00:12:10:16:a4:c2:
                    0c:23
                Exponent: 65537 (0x10001)
        X509v3 extensions:
            Netscape Cert Type: 
                SSL Server
            X509v3 Subject Key Identifier: 
                D7:F1:A3:5E:C0:DF:45:ED:09:AB:71:6F:60:1C:CE:F8:75:58:29:A1
            X509v3 Authority Key Identifier: 
                keyid:C6:18:DA:E4:16:A1:1E:60:AE:18:00:F5:A7:DF:0A:8B:65:4D:36:95
                DirName:/CN=MYSORECA_CA/C=IN/O=CITRIX/OU=ANG/ST=KA/emailAddress=MYSORECA_CA@MYSORECA_mail.com
                serial:D5:74:54:E9:D5:CF:C9:F6

            Authority Information Access: 
                OCSP - URI:http://172.24.20.1/responderpath

    Signature Algorithm: sha256WithRSAEncryption
         93:ab:a7:7a:f3:90:fb:e2:d3:6f:27:c9:67:14:e9:9b:c0:dc:
         c2:8c:5e:07:c6:95:2c:72:56:2c:19:9a:a0:b5:4e:fb:9d:67:
         73:8e:4b:1a:06:87:43:41:30:c2:03:ed:42:f9:8a:20:40:08:
         3c:47:bd:9b:65:b2:22:2e:2b:dc:2f:1e:f6:ae:53:95:ec:bb:
         d7:be:0b:d2:25:c8:76:50:8b:9d:ff:43:a5:22:ae:3b:ae:29:
         4b:37:85:23:78:6b:ab:77:31:21:36:bf:1b:cf:96:a4:9f:50:
         ba:df:e7:5f:7d:9d:b9:93:bf:4b:d6:75:6e:15:e2:f6:ec:34:
         13:5f:e9:86:38:e5:13:b9:ac:a8:99:42:d2:82:5a:13:2e:56:
         fd:f6:bf:04:7c:e1:3b:c0:57:35:14:94:de:50:67:b9:62:22:
         fa:58:0d:5b:b0:8b:ca:c9:3d:b2:fd:3f:46:73:af:86:e9:56:
         92:15:9b:43:07:91:7f:6e:7a:dd:4c:90:9b:34:77:94:69:25:
         51:92:09:fa:3c:d7:4f:d6:f0:2c:86:65:0e:6d:82:03:77:e7:
         5a:1c:60:1b:fe:32:54:fb:33:8e:65:11:c1:9d:c7:21:19:47:
         51:00:56:22:40:6f:47:56:b1:8d:30:0a:a3:8b:1e:2e:f6:20:
         66:70:2b:76
-----BEGIN CERTIFICATE-----
MIIEmDCCA4CgAwIBAgIGCgsMDQ40MA0GCSqGSIb3DQEBCwUAMH0xFDASBgNVBAMU
C01ZU09SRUNBX0NBMQswCQYDVQQGEwJJTjEPMA0GA1UEChMGQ0lUUklYMQwwCgYD
VQQLEwNBTkcxCzAJBgNVBAgTAktBMSwwKgYJKoZIhvcNAQkBFh1NWVNPUkVDQV9D
QUBNWVNPUkVDQV9tYWlsLmNvbTAeFw0xNjA3MDgwNDM2MzlaFw0yNjA3MDYwNDM2
MzlaMHIxCzAJBgNVBAgTAktBMQswCQYDVQQGEwJJTjEcMBoGA1UEAxQTMTM4X01Z
U09SRUNBX3NlcnZlcjEnMCUGCSqGSIb3DQEJARYYMTM4X01ZU09SRUNBQHRlc3Rf
Y2EuY29tMQ8wDQYDVQQKEwZDSVRSSVgwggEiMA0GCSqGSIb3DQEBAQUAA4IBDwAw
ggEKAoIBAQDBQSyYdILjjOvdEwhqy0BuuX1c/2Bt+CZZoJlDFksXljBOYagHodZt
/xdKyYWNW67p2IIk6FrnPZDMaNNtohxgojymZqEFpaXYfj0B+sP2NCSefeyc5l+i
17iVxN7Gd8OnzOTlfT130K67Q+szNlnSn+PRRVGQmUE4XruINhXixVGrB0TA2PIl
fcNQ9ydNUG0X8Okgv1IbO9mwO8TB1I1FL/0Zw5Sz6WAo6OLxLsIKXshAqHXQ7d5j
NQ1SxSJEdKhD6Wf0xiJzv4AIS2rewmtL7c22cqAphOjPoT+NFA89Bka1ooaWIN18
0J90Grnxi2uYcXlbOEtmRQASEBakwgwjAgMBAAGjggEnMIIBIzARBglghkgBhvhC
AQEEBAMCBkAwHQYDVR0OBBYEFNfxo17A30XtCatxb2Aczvh1WCmhMIGwBgNVHSME
gagwgaWAFMYY2uQWoR5grhgA9affCotlTTaVoYGBpH8wfTEUMBIGA1UEAxQLTVlT
T1JFQ0FfQ0ExCzAJBgNVBAYTAklOMQ8wDQYDVQQKEwZDSVRSSVgxDDAKBgNVBAsT
A0FORzELMAkGA1UECBMCS0ExLDAqBgkqhkiG9w0BCQEWHU1ZU09SRUNBX0NBQE1Z
U09SRUNBX21haWwuY29tggkA1XRU6dXPyfYwPAYIKwYBBQUHAQEEMDAuMCwGCCsG
AQUFBzABhiBodHRwOi8vMTcyLjI0LjIwLjEvcmVzcG9uZGVycGF0aDANBgkqhkiG
9w0BAQsFAAOCAQEAk6unevOQ++LTbyfJZxTpm8DcwoxeB8aVLHJWLBmaoLVO+51n
c45LGgaHQ0EwwgPtQvmKIEAIPEe9m2WyIi4r3C8e9q5Tley7174L0iXIdlCLnf9D
pSKuO64pSzeFI3hrq3cxITa/G8+WpJ9Qut/nX32duZO/S9Z1bhXi9uw0E1/phjjl
E7msqJlC0oJaEy5W/fa/BHzhO8BXNRSU3lBnuWIi+lgNW7CLysk9sv0/RnOvhulW
khWbQweRf2563UyQmzR3lGklUZIJ+jzXT9bwLIZlDm2CA3fnWhxgG/4yVPszjmUR
wZ3HIRlHUQBWIkBvR1axjTAKo4seLvYgZnArdg==
-----END CERTIFICATE-----
