Certificate:
    Data:
        Version: 3 (0x2)
        Serial Number: 11042563100213 (0xa0b0c0d0e35)
    Signature Algorithm: sha256WithRSAEncryption
        Issuer: CN=MYSORECA_CA, C=IN, O=CITRIX, OU=ANG, ST=KA/emailAddress=MYSORECA_CA@MYSORECA_mail.com
        Validity
            Not Before: Jul  8 04:36:39 2016 GMT
            Not After : Jul  6 04:36:39 2026 GMT
        Subject: ST=KA, C=IN, CN=139_MYSORECA_server/emailAddress=139_MYSORECA@test_ca.com, O=CITRIX
        Subject Public Key Info:
            Public Key Algorithm: rsaEncryption
                Public-Key: (2048 bit)
                Modulus:
                    00:c3:0b:02:10:a3:e1:a9:5f:55:ff:a5:97:db:91:
                    6a:98:28:53:ff:d2:95:b3:f2:5e:dc:90:2d:b3:95:
                    16:95:5c:5c:ed:24:b4:cb:64:84:d3:61:dc:8e:c6:
                    35:b6:a2:f1:c7:00:3c:e2:a6:cc:63:2e:ae:6d:31:
                    18:9c:56:d6:6b:ff:e2:69:66:b2:8b:6b:fa:87:45:
                    0d:09:b0:19:56:47:11:b0:e2:64:ab:de:c1:a9:8b:
                    ac:d9:2e:c5:c2:9c:c5:a2:00:99:cb:6f:90:62:95:
                    f2:44:08:b0:1a:a7:68:b1:8b:bb:16:15:f1:82:0e:
                    d3:cb:f1:bf:88:98:02:f1:10:fe:cd:4e:ee:06:5a:
                    78:c4:d8:b1:f0:72:e5:55:9b:8d:77:f4:e4:b5:09:
                    52:af:d2:2d:0c:d8:ef:78:a8:2e:b3:01:48:fa:45:
                    aa:91:d4:7c:d1:4c:8c:52:e4:2a:2c:59:68:fe:fa:
                    9b:bf:50:b9:3c:46:bf:b9:a8:8a:9e:11:fe:6c:13:
                    b8:8d:54:b0:1d:e7:d8:29:cc:95:32:f7:9e:df:2c:
                    4f:0c:e3:6e:2b:3f:3d:7c:e3:73:a6:ee:62:c7:74:
                    2f:d0:ff:84:84:e4:ab:6f:8c:58:20:4c:09:ae:23:
                    99:dd:a4:18:2b:43:a0:24:8d:96:26:0e:bd:29:99:
                    d0:5b
                Exponent: 65537 (0x10001)
        X509v3 extensions:
            Netscape Cert Type: 
                SSL Server
            X509v3 Subject Key Identifier: 
                7E:E9:A9:65:DB:33:A6:D8:CA:E7:7A:63:57:A5:AB:ED:4F:C5:20:25
            X509v3 Authority Key Identifier: 
                keyid:C6:18:DA:E4:16:A1:1E:60:AE:18:00:F5:A7:DF:0A:8B:65:4D:36:95
                DirName:/CN=MYSORECA_CA/C=IN/O=CITRIX/OU=ANG/ST=KA/emailAddress=MYSORECA_CA@MYSORECA_mail.com
                serial:D5:74:54:E9:D5:CF:C9:F6

            Authority Information Access: 
                OCSP - URI:http://172.24.20.1/responderpath

    Signature Algorithm: sha256WithRSAEncryption
         8c:d1:54:e3:33:3b:4d:17:6d:78:de:5d:12:36:24:ff:c2:28:
         99:62:7c:56:f2:fd:15:d6:3b:2e:c6:70:4c:4c:78:db:d3:9d:
         f8:e6:36:a1:7c:e5:3e:2a:4f:d5:f0:1b:ec:c3:fe:5e:94:74:
         f9:44:c8:fa:26:5d:42:31:8d:8c:18:9b:0d:fa:6f:70:0d:bc:
         2d:49:f7:35:dd:7f:c5:72:3a:eb:13:eb:c1:e1:8a:f9:41:f3:
         59:19:75:99:2a:c6:e9:48:bc:04:0e:b4:ee:9d:9e:5a:e3:bc:
         77:f6:c7:0b:35:ce:f6:6e:3d:69:f4:10:03:7d:aa:05:ec:7f:
         b7:11:68:38:21:d1:8a:83:31:43:b8:b9:f5:ea:62:48:82:d4:
         d9:18:81:71:87:28:2c:59:84:fe:52:7b:1f:34:14:f7:0d:72:
         98:83:c9:10:6a:1a:a5:a1:98:72:5c:0b:47:ee:c9:e1:f9:10:
         9c:1f:34:6f:8a:45:aa:a7:24:a1:17:31:11:94:a4:5a:b8:fe:
         7b:7f:24:18:5d:cc:2a:65:2b:e1:8c:6c:7d:4d:91:a2:17:ad:
         a5:a6:e1:6d:ab:41:c0:80:5c:ae:0e:86:94:01:08:7d:bc:77:
         ac:a1:3a:96:1a:17:ec:81:18:bd:bc:67:92:76:51:bd:8f:fc:
         de:eb:a4:bf
-----BEGIN CERTIFICATE-----
MIIEmDCCA4CgAwIBAgIGCgsMDQ41MA0GCSqGSIb3DQEBCwUAMH0xFDASBgNVBAMU
C01ZU09SRUNBX0NBMQswCQYDVQQGEwJJTjEPMA0GA1UEChMGQ0lUUklYMQwwCgYD
VQQLEwNBTkcxCzAJBgNVBAgTAktBMSwwKgYJKoZIhvcNAQkBFh1NWVNPUkVDQV9D
QUBNWVNPUkVDQV9tYWlsLmNvbTAeFw0xNjA3MDgwNDM2MzlaFw0yNjA3MDYwNDM2
MzlaMHIxCzAJBgNVBAgTAktBMQswCQYDVQQGEwJJTjEcMBoGA1UEAxQTMTM5X01Z
U09SRUNBX3NlcnZlcjEnMCUGCSqGSIb3DQEJARYYMTM5X01ZU09SRUNBQHRlc3Rf
Y2EuY29tMQ8wDQYDVQQKEwZDSVRSSVgwggEiMA0GCSqGSIb3DQEBAQUAA4IBDwAw
ggEKAoIBAQDDCwIQo+GpX1X/pZfbkWqYKFP/0pWz8l7ckC2zlRaVXFztJLTLZITT
YdyOxjW2ovHHADzipsxjLq5tMRicVtZr/+JpZrKLa/qHRQ0JsBlWRxGw4mSr3sGp
i6zZLsXCnMWiAJnLb5BilfJECLAap2ixi7sWFfGCDtPL8b+ImALxEP7NTu4GWnjE
2LHwcuVVm4139OS1CVKv0i0M2O94qC6zAUj6RaqR1HzRTIxS5CosWWj++pu/ULk8
Rr+5qIqeEf5sE7iNVLAd59gpzJUy957fLE8M424rPz1843Om7mLHdC/Q/4SE5Ktv
jFggTAmuI5ndpBgrQ6AkjZYmDr0pmdBbAgMBAAGjggEnMIIBIzARBglghkgBhvhC
AQEEBAMCBkAwHQYDVR0OBBYEFH7pqWXbM6bYyud6Y1elq+1PxSAlMIGwBgNVHSME
gagwgaWAFMYY2uQWoR5grhgA9affCotlTTaVoYGBpH8wfTEUMBIGA1UEAxQLTVlT
T1JFQ0FfQ0ExCzAJBgNVBAYTAklOMQ8wDQYDVQQKEwZDSVRSSVgxDDAKBgNVBAsT
A0FORzELMAkGA1UECBMCS0ExLDAqBgkqhkiG9w0BCQEWHU1ZU09SRUNBX0NBQE1Z
U09SRUNBX21haWwuY29tggkA1XRU6dXPyfYwPAYIKwYBBQUHAQEEMDAuMCwGCCsG
AQUFBzABhiBodHRwOi8vMTcyLjI0LjIwLjEvcmVzcG9uZGVycGF0aDANBgkqhkiG
9w0BAQsFAAOCAQEAjNFU4zM7TRdteN5dEjYk/8IomWJ8VvL9FdY7LsZwTEx429Od
+OY2oXzlPipP1fAb7MP+XpR0+UTI+iZdQjGNjBibDfpvcA28LUn3Nd1/xXI66xPr
weGK+UHzWRl1mSrG6Ui8BA607p2eWuO8d/bHCzXO9m49afQQA32qBex/txFoOCHR
ioMxQ7i59epiSILU2RiBcYcoLFmE/lJ7HzQU9w1ymIPJEGoapaGYclwLR+7J4fkQ
nB80b4pFqqckoRcxEZSkWrj+e38kGF3MKmUr4YxsfU2RohetpabhbatBwIBcrg6G
lAEIfbx3rKE6lhoX7IEYvbxnknZRvY/83uukvw==
-----END CERTIFICATE-----
