Certificate:
    Data:
        Version: 3 (0x2)
        Serial Number: 11042563100214 (0xa0b0c0d0e36)
    Signature Algorithm: sha256WithRSAEncryption
        Issuer: CN=MYSORECA_CA, C=IN, O=CITRIX, OU=ANG, ST=KA/emailAddress=MYSORECA_CA@MYSORECA_mail.com
        Validity
            Not Before: Jul  8 04:36:40 2016 GMT
            Not After : Jul  6 04:36:40 2026 GMT
        Subject: ST=KA, C=IN, CN=140_MYSORECA_server/emailAddress=140_MYSORECA@test_ca.com, O=CITRIX
        Subject Public Key Info:
            Public Key Algorithm: rsaEncryption
                Public-Key: (2048 bit)
                Modulus:
                    00:b2:7e:1b:ba:ea:0e:39:03:4d:33:70:53:ee:75:
                    f1:0d:d2:93:e4:25:97:1b:42:1a:e9:26:cb:e6:bc:
                    24:6e:97:67:b7:d4:e7:fd:21:7e:6d:5c:bd:1d:e0:
                    0a:d5:26:84:bd:d0:97:47:7f:bf:a0:00:51:ed:46:
                    1c:b6:a8:a6:6e:18:64:e9:d0:e2:b4:62:d2:5a:0d:
                    c9:06:c5:bb:29:4a:6e:0d:d5:0c:7f:88:d4:e0:c2:
                    59:1c:ca:a8:9b:c6:8d:3e:b2:42:83:d7:09:06:44:
                    5b:e7:bc:96:62:a4:4d:f0:e7:ef:0b:cb:38:e9:4e:
                    72:e8:b5:9a:bd:df:f8:9c:51:41:e7:16:f6:4a:b5:
                    89:69:16:c8:0c:d5:5b:07:bb:69:f1:ab:28:c1:3c:
                    35:3a:f1:6e:6d:f1:6c:62:f8:94:cb:24:b2:24:4b:
                    87:0f:69:1a:a5:ef:e0:52:16:bd:ff:26:87:92:1c:
                    86:3a:19:a3:f2:54:a6:10:b9:10:32:80:0b:c2:78:
                    93:1b:e1:93:be:d9:a6:51:4b:00:44:9c:b5:89:6e:
                    48:5e:51:19:58:0c:bd:0c:a4:ca:0b:0b:66:fb:2b:
                    cc:4c:27:1f:9c:15:a1:6b:1f:7d:f3:3c:2c:19:f0:
                    ed:fd:10:6a:61:fe:6d:8c:a6:0c:fe:15:4c:a3:f1:
                    30:53
                Exponent: 65537 (0x10001)
        X509v3 extensions:
            Netscape Cert Type: 
                SSL Server
            X509v3 Subject Key Identifier: 
                AA:40:67:84:D4:51:2E:98:C7:14:11:EB:C9:A9:06:04:7D:A1:37:5A
            X509v3 Authority Key Identifier: 
                keyid:C6:18:DA:E4:16:A1:1E:60:AE:18:00:F5:A7:DF:0A:8B:65:4D:36:95
                DirName:/CN=MYSORECA_CA/C=IN/O=CITRIX/OU=ANG/ST=KA/emailAddress=MYSORECA_CA@MYSORECA_mail.com
                serial:D5:74:54:E9:D5:CF:C9:F6

            Authority Information Access: 
                OCSP - URI:http://172.24.20.1/responderpath

    Signature Algorithm: sha256WithRSAEncryption
         1c:65:a9:28:4b:55:24:0f:60:d1:2c:ad:5d:c0:ed:16:69:ae:
         6e:c0:7a:59:98:0a:61:ec:eb:ab:94:20:df:2b:ad:83:ee:94:
         79:88:a4:1a:55:3e:06:f9:44:e7:6a:69:9c:7e:a1:46:ed:12:
         97:32:7b:d5:a4:91:f6:3f:e2:3d:f9:30:a3:e3:8b:2d:10:72:
         8c:07:e5:b1:e4:93:a1:a8:c9:63:49:df:e2:23:12:91:c7:9c:
         1b:11:e3:95:92:22:d7:06:11:89:53:ea:bc:1a:d4:81:62:90:
         1f:da:77:e2:27:f2:56:17:ad:6e:f7:bd:f0:a4:f3:70:66:1f:
         3a:06:85:1a:29:e0:e1:6b:1f:78:5e:1e:f8:87:e0:52:8a:d0:
         e6:7e:3a:16:f4:e0:be:ff:a2:c6:42:83:fa:23:39:7b:e3:67:
         75:a7:4b:2a:90:5a:99:18:4c:39:ff:e4:bf:e3:92:7d:25:29:
         c4:6d:1c:2e:9f:69:4d:58:7c:21:7c:f0:c9:30:6b:94:8d:0f:
         a7:5b:f1:80:ec:13:59:f8:13:da:b4:ff:1f:85:35:40:2a:94:
         ca:1e:61:3a:9d:d8:3a:bf:fd:a3:a7:4c:a2:aa:97:89:d9:81:
         8b:fb:ab:96:d0:ee:00:c1:1a:97:6b:66:7f:a7:25:63:dd:79:
         bc:60:a0:42
-----BEGIN CERTIFICATE-----
MIIEmDCCA4CgAwIBAgIGCgsMDQ42MA0GCSqGSIb3DQEBCwUAMH0xFDASBgNVBAMU
C01ZU09SRUNBX0NBMQswCQYDVQQGEwJJTjEPMA0GA1UEChMGQ0lUUklYMQwwCgYD
VQQLEwNBTkcxCzAJBgNVBAgTAktBMSwwKgYJKoZIhvcNAQkBFh1NWVNPUkVDQV9D
QUBNWVNPUkVDQV9tYWlsLmNvbTAeFw0xNjA3MDgwNDM2NDBaFw0yNjA3MDYwNDM2
NDBaMHIxCzAJBgNVBAgTAktBMQswCQYDVQQGEwJJTjEcMBoGA1UEAxQTMTQwX01Z
U09SRUNBX3NlcnZlcjEnMCUGCSqGSIb3DQEJARYYMTQwX01ZU09SRUNBQHRlc3Rf
Y2EuY29tMQ8wDQYDVQQKEwZDSVRSSVgwggEiMA0GCSqGSIb3DQEBAQUAA4IBDwAw
ggEKAoIBAQCyfhu66g45A00zcFPudfEN0pPkJZcbQhrpJsvmvCRul2e31Of9IX5t
XL0d4ArVJoS90JdHf7+gAFHtRhy2qKZuGGTp0OK0YtJaDckGxbspSm4N1Qx/iNTg
wlkcyqibxo0+skKD1wkGRFvnvJZipE3w5+8LyzjpTnLotZq93/icUUHnFvZKtYlp
FsgM1VsHu2nxqyjBPDU68W5t8Wxi+JTLJLIkS4cPaRql7+BSFr3/JoeSHIY6GaPy
VKYQuRAygAvCeJMb4ZO+2aZRSwBEnLWJbkheURlYDL0MpMoLC2b7K8xMJx+cFaFr
H33zPCwZ8O39EGph/m2Mpgz+FUyj8TBTAgMBAAGjggEnMIIBIzARBglghkgBhvhC
AQEEBAMCBkAwHQYDVR0OBBYEFKpAZ4TUUS6YxxQR68mpBgR9oTdaMIGwBgNVHSME
gagwgaWAFMYY2uQWoR5grhgA9affCotlTTaVoYGBpH8wfTEUMBIGA1UEAxQLTVlT
T1JFQ0FfQ0ExCzAJBgNVBAYTAklOMQ8wDQYDVQQKEwZDSVRSSVgxDDAKBgNVBAsT
A0FORzELMAkGA1UECBMCS0ExLDAqBgkqhkiG9w0BCQEWHU1ZU09SRUNBX0NBQE1Z
U09SRUNBX21haWwuY29tggkA1XRU6dXPyfYwPAYIKwYBBQUHAQEEMDAuMCwGCCsG
AQUFBzABhiBodHRwOi8vMTcyLjI0LjIwLjEvcmVzcG9uZGVycGF0aDANBgkqhkiG
9w0BAQsFAAOCAQEAHGWpKEtVJA9g0SytXcDtFmmubsB6WZgKYezrq5Qg3yutg+6U
eYikGlU+BvlE52ppnH6hRu0SlzJ71aSR9j/iPfkwo+OLLRByjAflseSToajJY0nf
4iMSkcecGxHjlZIi1wYRiVPqvBrUgWKQH9p34ifyVhetbve98KTzcGYfOgaFGing
4WsfeF4e+IfgUorQ5n46FvTgvv+ixkKD+iM5e+NndadLKpBamRhMOf/kv+OSfSUp
xG0cLp9pTVh8IXzwyTBrlI0Pp1vxgOwTWfgT2rT/H4U1QCqUyh5hOp3YOr/9o6dM
oqqXidmBi/urltDuAMEal2tmf6clY915vGCgQg==
-----END CERTIFICATE-----
