Certificate:
    Data:
        Version: 3 (0x2)
        Serial Number: 9930082223364 (0x90807060504)
    Signature Algorithm: sha1WithRSAEncryption
        Issuer: CN=ClientRootCA, ST=KA, C=IN/emailAddress=ClientRootCA@testca.com, O=CITRIX
        Validity
            Not Before: Feb 17 10:24:24 2016 GMT
            Not After : Feb 14 10:24:24 2026 GMT
        Subject: ST=KA, C=IN, CN=LevelOneClientCA/emailAddress=LevelOnetClientCA@test_ca.com, O=CITRIX
        Subject Public Key Info:
            Public Key Algorithm: rsaEncryption
                Public-Key: (2048 bit)
                Modulus:
                    00:a3:8f:db:c1:02:8d:82:b2:19:a8:31:3c:94:df:
                    01:81:50:34:4f:0d:81:18:1d:25:81:6f:5f:ec:ab:
                    7c:37:a7:31:71:1f:60:4c:d7:4c:05:15:2a:42:3f:
                    3e:7f:74:ac:89:f2:96:fe:e6:84:c0:b1:6b:51:01:
                    6c:29:df:83:7b:46:f9:ee:08:44:78:f2:42:f7:2c:
                    e7:dc:ef:a6:fd:15:f1:8b:80:3a:f8:2a:df:06:c9:
                    bf:92:2e:2a:5f:85:2b:05:0b:9d:c5:b3:27:18:9e:
                    d2:9e:09:42:19:47:97:f1:ae:b2:6e:66:a0:ab:af:
                    a8:a6:28:9b:0a:4f:34:ca:fd:61:6a:eb:f0:bd:44:
                    64:7c:46:05:3d:d3:91:58:84:c7:0d:b0:55:12:19:
                    c8:64:6f:64:14:79:2d:84:db:ea:bf:b1:05:e3:c2:
                    e3:af:59:6a:85:f7:4e:63:97:d9:21:18:ff:38:9d:
                    09:94:32:eb:3a:d1:5c:be:ea:7b:a5:10:34:4c:bf:
                    f6:54:8d:97:ce:c1:49:ec:44:09:6e:26:cb:da:97:
                    f3:9f:87:d0:0a:60:f1:45:47:5c:09:55:04:3a:6e:
                    0a:21:f2:2c:46:51:f1:72:7f:2b:09:bf:1c:66:87:
                    d2:62:b8:17:5d:63:4f:1f:8e:ce:e0:91:be:5a:da:
                    38:e5
                Exponent: 65537 (0x10001)
        X509v3 extensions:
            X509v3 Basic Constraints: 
                CA:TRUE
            Authority Information Access: 
                CA Issuers - URI:http://server.whatever.org/cert-path

            X509v3 Subject Key Identifier: 
                6C:C6:8A:2D:AE:B3:2D:92:A9:1D:CE:DB:74:03:F1:85:9C:46:76:D4
            X509v3 Authority Key Identifier: 
                keyid:B8:79:59:C0:4A:34:0B:7A:CA:65:4E:9F:52:49:04:E0:91:B7:A0:0A
                DirName:/CN=ClientRootCA/ST=KA/C=IN/emailAddress=ClientRootCA@testca.com/O=CITRIX
                serial:B2:9C:9D:95:1C:53:EF:97

            X509v3 Certificate Policies: 
                Policy: testoid1
                Policy: 1.5.6.7.8
                Policy: 1.3.5.8
                  CPS: http://my.host.name/
                  CPS: http://my.your.name/
                  User Notice:
                    Organization: Organisation Name
                    Numbers: 1, 2, 3, 4
                    Explicit Text: Explicit Text Here

            X509v3 Policy Mappings: 
                0.10.11.12:0.1.2.3, 0.3.5.7:0.2.4.6
    Signature Algorithm: sha1WithRSAEncryption
         07:ab:02:48:09:e4:c1:a9:96:07:7b:b2:3a:20:a4:6b:6a:f2:
         67:85:6c:d3:4a:5f:c6:32:a3:21:bf:e9:8b:04:f1:fb:e0:63:
         99:ae:35:8f:08:1e:cd:34:e6:08:53:89:2c:96:79:85:d2:c9:
         76:44:ef:8e:49:a8:59:a0:5d:10:3a:35:d6:16:b6:8e:0f:07:
         6a:39:2a:b7:3d:5f:74:26:a1:c8:a0:a1:da:51:84:59:14:11:
         f8:d1:c5:5a:5f:76:2c:02:c0:3b:94:23:56:f2:b9:1c:5e:e8:
         4c:b5:a4:cf:dd:fd:99:bc:54:4c:9a:d4:69:6c:44:01:73:11:
         b8:f8:f2:e1:c6:23:65:d2:e0:74:bb:e1:e9:0e:fc:0a:e5:2c:
         1c:c5:93:67:2c:fd:57:55:b0:da:08:21:f8:70:d1:53:bb:06:
         7f:b5:66:a8:01:4e:02:bd:0b:aa:46:bd:e0:d6:3d:5b:18:5e:
         ef:0a:12:a5:55:7f:86:88:55:6b:e2:1a:3e:f7:45:e1:e3:ef:
         fc:a9:62:2c:d6:9e:65:be:fb:78:c3:79:57:f2:0e:65:60:0b:
         8e:e4:6e:d0:e0:8a:6e:d8:35:8b:9f:2d:a3:f0:50:f5:a7:0b:
         85:8f:79:7b:7b:bb:81:f3:4a:c1:5d:2c:2b:1f:8d:eb:73:5c:
         5f:bd:91:15
-----BEGIN CERTIFICATE-----
MIIFSDCCBDCgAwIBAgIGCQgHBgUEMA0GCSqGSIb3DQEBBQUAMGoxFTATBgNVBAMT
DENsaWVudFJvb3RDQTELMAkGA1UECBMCS0ExCzAJBgNVBAYTAklOMSYwJAYJKoZI
hvcNAQkBFhdDbGllbnRSb290Q0FAdGVzdGNhLmNvbTEPMA0GA1UEChMGQ0lUUklY
MB4XDTE2MDIxNzEwMjQyNFoXDTI2MDIxNDEwMjQyNFowdDELMAkGA1UECBMCS0Ex
CzAJBgNVBAYTAklOMRkwFwYDVQQDExBMZXZlbE9uZUNsaWVudENBMSwwKgYJKoZI
hvcNAQkBFh1MZXZlbE9uZXRDbGllbnRDQUB0ZXN0X2NhLmNvbTEPMA0GA1UEChMG
Q0lUUklYMIIBIjANBgkqhkiG9w0BAQEFAAOCAQ8AMIIBCgKCAQEAo4/bwQKNgrIZ
qDE8lN8BgVA0Tw2BGB0lgW9f7Kt8N6cxcR9gTNdMBRUqQj8+f3SsifKW/uaEwLFr
UQFsKd+De0b57ghEePJC9yzn3O+m/RXxi4A6+CrfBsm/ki4qX4UrBQudxbMnGJ7S
nglCGUeX8a6ybmagq6+opiibCk80yv1hauvwvURkfEYFPdORWITHDbBVEhnIZG9k
FHkthNvqv7EF48Ljr1lqhfdOY5fZIRj/OJ0JlDLrOtFcvup7pRA0TL/2VI2XzsFJ
7EQJbibL2pfzn4fQCmDxRUdcCVUEOm4KIfIsRlHxcn8rCb8cZofSYrgXXWNPH47O
4JG+Wto45QIDAQABo4IB6DCCAeQwDAYDVR0TBAUwAwEB/zBABggrBgEFBQcBAQQ0
MDIwMAYIKwYBBQUHMAKGJGh0dHA6Ly9zZXJ2ZXIud2hhdGV2ZXIub3JnL2NlcnQt
cGF0aDAdBgNVHQ4EFgQUbMaKLa6zLZKpHc7bdAPxhZxGdtQwgZwGA1UdIwSBlDCB
kYAUuHlZwEo0C3rKZU6fUkkE4JG3oAqhbqRsMGoxFTATBgNVBAMTDENsaWVudFJv
b3RDQTELMAkGA1UECBMCS0ExCzAJBgNVBAYTAklOMSYwJAYJKoZIhvcNAQkBFhdD
bGllbnRSb290Q0FAdGVzdGNhLmNvbTEPMA0GA1UEChMGQ0lUUklYggkAspydlRxT
75cwga4GA1UdIASBpjCBozAFBgMqAwQwBgYELQYHCDCBkQYDKwUIMIGJMCAGCCsG
AQUFBwIBFhRodHRwOi8vbXkuaG9zdC5uYW1lLzAgBggrBgEFBQcCARYUaHR0cDov
L215LnlvdXIubmFtZS8wQwYIKwYBBQUHAgIwNzAhFhFPcmdhbmlzYXRpb24gTmFt
ZTAMAgEBAgECAgEDAgEEGhJFeHBsaWNpdCBUZXh0IEhlcmUwIwYDVR0hBBwwgDAK
BgMKCwwGAwECAzAKBgMDBQcGAwIEBgAAMA0GCSqGSIb3DQEBBQUAA4IBAQAHqwJI
CeTBqZYHe7I6IKRravJnhWzTSl/GMqMhv+mLBPH74GOZrjWPCB7NNOYIU4kslnmF
0sl2RO+OSahZoF0QOjXWFraODwdqOSq3PV90JqHIoKHaUYRZFBH40cVaX3YsAsA7
lCNW8rkcXuhMtaTP3f2ZvFRMmtRpbEQBcxG4+PLhxiNl0uB0u+HpDvwK5SwcxZNn
LP1XVbDaCCH4cNFTuwZ/tWaoAU4CvQuqRr3g1j1bGF7vChKlVX+GiFVr4ho+90Xh
4+/8qWIs1p5lvvt4w3lX8g5lYAuO5G7Q4Ipu2DWLny2j8FD1pwuFj3l7e7uB80rB
XSwrH43rc1xfvZEV
-----END CERTIFICATE-----
