Certificate:
    Data:
        Version: 3 (0x2)
        Serial Number: 9930082223365 (0x90807060505)
    Signature Algorithm: sha1WithRSAEncryption
        Issuer: CN=ClientRootCA, ST=KA, C=IN/emailAddress=ClientRootCA@testca.com, O=CITRIX
        Validity
            Not Before: Jun 18 00:24:12 2016 GMT
            Not After : Jun 16 00:24:12 2026 GMT
        Subject: ST=KA, C=IN, CN=bad_sign_client_server/emailAddress=bad_sign_client@test_ca.com, O=CITRIX
        Subject Public Key Info:
            Public Key Algorithm: rsaEncryption
                Public-Key: (2048 bit)
                Modulus:
                    00:a3:62:f7:a6:5a:63:88:d3:0f:3b:9f:3e:1f:4a:
                    06:dd:5f:0a:98:d0:c5:ed:77:d1:85:61:f9:13:e4:
                    c3:1e:c5:db:e9:9f:5b:03:0c:26:ac:d7:f7:75:88:
                    4b:a4:39:96:d3:0d:4c:03:d1:44:da:66:de:e8:b3:
                    5a:2c:10:5b:23:fc:f7:0d:5f:8d:ca:06:35:4c:5b:
                    b7:f6:29:77:4d:35:bc:98:e7:25:a6:cf:57:e1:f7:
                    dc:d0:c3:ff:4a:69:2b:d6:65:3f:a0:5b:72:dd:de:
                    b9:3b:27:f9:2a:e4:1c:f1:94:a2:aa:d5:29:12:a5:
                    67:7e:bb:53:86:b4:f2:cd:92:4a:9d:81:70:4e:43:
                    4f:a0:50:b5:fd:64:b9:f5:6f:f4:2f:43:7f:e1:ee:
                    6e:59:04:3d:bd:ac:20:c4:13:30:ba:56:18:db:0c:
                    c7:34:e6:1a:f0:3c:be:24:33:9b:ec:be:ed:a7:a3:
                    89:94:ff:37:23:96:5d:b1:1a:90:d5:32:d9:f7:e2:
                    0a:cd:1a:0c:ad:e2:9e:34:71:72:10:e6:1f:5b:5d:
                    86:c0:36:39:af:da:6c:c3:fa:8e:01:eb:7f:2a:a2:
                    de:22:6a:6c:4b:af:11:4f:a4:1e:80:3c:66:30:76:
                    c3:5a:ca:fa:cf:cc:52:35:d2:ae:fb:fc:eb:88:03:
                    44:83
                Exponent: 65537 (0x10001)
        X509v3 extensions:
            X509v3 Basic Constraints: 
                CA:FALSE
            Authority Information Access: 
                CA Issuers - URI:http://server.whatever.org/cert-path

            X509v3 Subject Key Identifier: 
                1D:FD:0C:00:3D:22:63:E6:A6:B0:17:47:EC:70:9E:B8:C0:65:63:63
            X509v3 Authority Key Identifier: 
                keyid:B8:79:59:C0:4A:34:0B:7A:CA:65:4E:9F:52:49:04:E0:91:B7:A0:0A
                DirName:/CN=ClientRootCA/ST=KA/C=IN/emailAddress=ClientRootCA@testca.com/O=CITRIX
                serial:B2:9C:9D:95:1C:53:EF:97

            X509v3 Certificate Policies: 
                Policy: testoid1
                Policy: 1.5.6.7.8
                Policy: 1.3.5.8
                  CPS: http://my.host.name/
                  CPS: http://my.your.name/
                  User Notice:
                    Organization: Organisation Name
                    Numbers: 1, 2, 3, 4
                    Explicit Text: Explicit Text Here

            X509v3 Policy Mappings: 
                0.10.11.12:0.1.2.3, 0.3.5.7:0.2.4.6
    Signature Algorithm: sha1WithRSAEncryption
         71:37:e6:c8:f5:b4:1b:62:4b:ea:d3:2d:ce:07:e2:08:78:8e:
         54:bf:89:6b:cd:77:6e:58:59:80:1e:5a:ad:06:5b:6f:c3:e0:
         76:4b:03:62:a1:a2:c2:ac:48:03:18:b4:f3:cf:4c:2f:8b:e5:
         0f:68:92:e4:57:e4:54:ba:4e:f2:2b:d3:a6:a8:f6:cf:a2:4b:
         40:ba:bd:27:13:50:65:61:14:3d:1a:3a:61:8d:c8:c5:e0:00:
         08:66:08:12:84:82:6d:8b:61:a8:e6:e9:f7:2a:a6:bf:63:8c:
         cf:4a:da:05:d0:73:9f:bc:b1:1a:7a:95:97:fc:ec:bd:7c:9a:
         47:2b:eb:9e:cc:ae:a0:ca:f6:20:e2:cb:e5:f6:1b:c5:16:86:
         10:0c:65:2d:69:70:70:f4:0c:eb:37:e9:58:ca:3c:a5:dd:c9:
         0f:43:46:71:82:a6:62:c6:06:83:a1:46:ab:3a:2e:d4:4e:75:
         d6:3f:e8:0e:fa:ee:8c:a5:8e:3e:80:51:ca:34:43:db:eb:06:
         6e:1b:b6:64:28:c2:e5:7d:db:71:5c:79:93:51:58:af:ed:ca:
         e0:16:33:90:0b:92:6a:0f:d2:5e:78:bf:96:10:2e:5c:98:0a:
         74:5a:3d:3e:cd:e2:0a:15:65:58:b7:74:cf:65:39:84:b2:be:
         1b:c3:82:b6
-----BEGIN CERTIFICATE-----
MIIFSTCCBDGgAwIBAgIGCQgHBgUFMA0GCSqGSIb3DQEBBQUAMGoxFTATBgNVBAMT
DENsaWVudFJvb3RDQTELMAkGA1UECBMCS0ExCzAJBgNVBAYTAklOMSYwJAYJKoZI
hvcNAQkBFhdDbGllbnRSb290Q0FAdGVzdGNhLmNvbTEPMA0GA1UEChMGQ0lUUklY
MB4XDTE2MDYxODAwMjQxMloXDTI2MDYxNjAwMjQxMloweDELMAkGA1UECBMCS0Ex
CzAJBgNVBAYTAklOMR8wHQYDVQQDFBZiYWRfc2lnbl9jbGllbnRfc2VydmVyMSow
KAYJKoZIhvcNAQkBFhtiYWRfc2lnbl9jbGllbnRAdGVzdF9jYS5jb20xDzANBgNV
BAoTBkNJVFJJWDCCASIwDQYJKoZIhvcNAQEBBQADggEPADCCAQoCggEBAKNi96Za
Y4jTDzufPh9KBt1fCpjQxe130YVh+RPkwx7F2+mfWwMMJqzX93WIS6Q5ltMNTAPR
RNpm3uizWiwQWyP89w1fjcoGNUxbt/Ypd001vJjnJabPV+H33NDD/0ppK9ZlP6Bb
ct3euTsn+SrkHPGUoqrVKRKlZ367U4a08s2SSp2BcE5DT6BQtf1kufVv9C9Df+Hu
blkEPb2sIMQTMLpWGNsMxzTmGvA8viQzm+y+7aejiZT/NyOWXbEakNUy2ffiCs0a
DK3injRxchDmH1tdhsA2Oa/abMP6jgHrfyqi3iJqbEuvEU+kHoA8ZjB2w1rK+s/M
UjXSrvv864gDRIMCAwEAAaOCAeUwggHhMAkGA1UdEwQCMAAwQAYIKwYBBQUHAQEE
NDAyMDAGCCsGAQUFBzAChiRodHRwOi8vc2VydmVyLndoYXRldmVyLm9yZy9jZXJ0
LXBhdGgwHQYDVR0OBBYEFB39DAA9ImPmprAXR+xwnrjAZWNjMIGcBgNVHSMEgZQw
gZGAFLh5WcBKNAt6ymVOn1JJBOCRt6AKoW6kbDBqMRUwEwYDVQQDEwxDbGllbnRS
b290Q0ExCzAJBgNVBAgTAktBMQswCQYDVQQGEwJJTjEmMCQGCSqGSIb3DQEJARYX
Q2xpZW50Um9vdENBQHRlc3RjYS5jb20xDzANBgNVBAoTBkNJVFJJWIIJALKcnZUc
U++XMIGuBgNVHSAEgaYwgaMwBQYDKgMEMAYGBC0GBwgwgZEGAysFCDCBiTAgBggr
BgEFBQcCARYUaHR0cDovL215Lmhvc3QubmFtZS8wIAYIKwYBBQUHAgEWFGh0dHA6
Ly9teS55b3VyLm5hbWUvMEMGCCsGAQUFBwICMDcwIRYRT3JnYW5pc2F0aW9uIE5h
bWUwDAIBAQIBAgIBAwIBBBoSRXhwbGljaXQgVGV4dCBIZXJlMCMGA1UdIQQcMIAw
CgYDCgsMBgMBAgMwCgYDAwUHBgMCBAYAADANBgkqhkiG9w0BAQUFAAOCAQEAcTfm
yPW0G2JL6tMtzgfiCHiOVL+Ja813blhZgB5arQZbb8PgdksDYqGiwqxIAxi0889M
L4vlD2iS5FfkVLpO8ivTpqj2z6JLQLq9JxNQZWEUPRo6YY3IxeAACGYIEoSCbYth
qObp9yqmv2OMz0raBdBzn7yxGnqVl/zsvXyaRyvrnsyuoMr2IOLL5fYbxRaGEAxl
LWlwcPQM6zfpWMo8pd3JD0NGcYKmYsYGg6FGqzou1E511j/oDvrujKWOPoBRyjRD
2+sGbhu2ZCjC5X3bcVx5k1FYr+3K4BYzkAuSag/SXni/lhAuXJgKdFo9Ps3iChVl
WLd0z2U5hLK+G8OCtg==
-----END CERTIFICATE-----
