Certificate:
    Data:
        Version: 3 (0x2)
        Serial Number: 188900966400020 (0xabcdef000014)
    Signature Algorithm: sha384WithRSAEncryption
        Issuer: ST=KA, C=IN, CN=ThreeCA2048_server/emailAddress=ThreeCA@test_ca.com, O=CITRIX
        Validity
            Not Before: May 17 12:36:52 2017 GMT
            Not After : May 15 12:36:52 2027 GMT
        Subject: ST=KA, C=IN, CN=client2048_sha384_server/emailAddress=client@test_ca.com, O=CITRIX
        Subject Public Key Info:
            Public Key Algorithm: rsaEncryption
                Public-Key: (2048 bit)
                Modulus:
                    00:c6:37:fa:7c:7f:db:49:08:51:bc:cf:04:b4:69:
                    66:0a:8c:34:f9:19:21:2e:4d:39:54:c0:fa:5a:0e:
                    00:e8:12:5d:50:a2:6c:80:d2:37:9c:34:21:a3:a1:
                    f6:05:71:d3:8f:f4:04:1f:32:2d:a6:f0:9c:54:71:
                    10:ab:32:0c:99:24:1c:fb:a2:ec:35:00:58:ce:fe:
                    21:d7:61:1d:c9:d2:a9:59:2c:85:f4:da:05:b0:08:
                    bb:12:a9:f2:18:68:2a:b3:46:50:33:58:22:9a:36:
                    4c:b4:3a:fe:57:62:88:8d:fa:ff:64:7d:ca:b2:66:
                    e5:17:59:ec:68:e6:6b:0f:41:ae:77:d3:a8:44:e3:
                    f4:f5:25:09:7b:f4:6a:1c:ef:8f:d0:a9:a9:f2:be:
                    57:a8:ad:21:73:f2:f9:73:10:8a:b1:1b:fa:a0:ce:
                    ac:6f:5e:11:e0:fe:33:e1:a0:e6:04:8c:88:a3:f6:
                    a8:d0:2c:3b:7c:82:28:c4:09:0f:30:f1:0e:08:51:
                    fc:44:44:07:31:ea:3e:21:b6:c7:0c:9e:b5:ca:27:
                    30:99:c6:9d:d1:82:0e:90:d2:c4:2d:fc:77:28:e9:
                    a8:bb:aa:36:95:ca:67:7a:d5:43:eb:80:83:99:a2:
                    6e:c6:ee:ef:74:de:55:f9:96:0d:1b:a6:36:67:17:
                    b9:bf
                Exponent: 65537 (0x10001)
        X509v3 extensions:
            Netscape Cert Type: 
                SSL Client
            X509v3 Key Usage: 
                Digital Signature, Non Repudiation, Key Encipherment
            X509v3 Subject Alternative Name: 
                DNS:altname-1.myca.com, DNS:altname-2.myca.com, DNS:altname-3.myca.com, DNS:altname-4.myca.com, email:mail-1@myca.com, email:mail-2@myca.com
            X509v3 Subject Key Identifier: 
                1C:2D:F6:19:85:08:2E:A7:D9:18:92:FE:7F:3A:38:DC:C7:89:A0:B2
            X509v3 Authority Key Identifier: 
                keyid:70:7B:AF:2A:71:97:38:0A:09:6D:D4:91:13:F8:34:61:C1:EC:15:D7
                DirName:/ST=KA/C=IN/CN=TwoCA1024_server/emailAddress=TwoCA@test_ca.com/O=CITRIX
                serial:11:22:33:44:55

    Signature Algorithm: sha384WithRSAEncryption
         0f:c8:10:5c:fb:5b:4a:dd:c0:1d:33:3d:d4:3b:66:75:6d:87:
         e1:3a:db:6e:e9:d1:c6:e8:57:05:7b:5c:c2:dc:02:58:23:c6:
         f8:bd:09:36:27:29:2c:ac:cf:44:52:3b:40:f0:8e:26:46:42:
         32:74:9b:f0:04:ae:e4:2c:ba:f8:bf:38:8c:81:4c:7d:2d:21:
         6f:86:31:bb:72:30:aa:a8:9a:f1:b8:fa:d7:e6:43:5b:e5:4e:
         7b:a4:95:37:87:d1:73:ed:24:c5:8f:d4:06:9b:c5:68:e3:a5:
         76:5f:b8:f9:78:34:72:6a:d1:8d:6c:c2:e6:81:30:3b:2e:35:
         74:aa:52:e4:4f:4c:de:11:a3:9d:7a:76:a3:98:09:b5:ba:4f:
         d2:ab:d8:78:a2:30:68:e6:72:03:75:29:f0:79:95:51:a9:2e:
         a2:8b:5b:b2:1f:af:66:0b:91:20:fb:7d:0b:f9:ce:2a:82:91:
         08:05:66:d4:72:d9:b4:f1:25:ee:86:8d:67:98:a5:77:4e:b7:
         61:70:33:2f:d8:10:e8:67:4a:f3:0a:aa:54:76:3e:0a:3c:58:
         f9:34:a2:9c:d9:72:37:88:6a:7f:c3:ed:7d:7d:d6:f7:c0:2b:
         bd:41:4f:dd:11:73:e9:2b:fc:d0:8c:39:1e:90:f9:c6:39:e6:
         b7:93:69:c6
-----BEGIN CERTIFICATE-----
MIIEuTCCA6GgAwIBAgIHAKvN7wAAFDANBgkqhkiG9w0BAQwFADBsMQswCQYDVQQI
EwJLQTELMAkGA1UEBhMCSU4xGzAZBgNVBAMUElRocmVlQ0EyMDQ4X3NlcnZlcjEi
MCAGCSqGSIb3DQEJARYTVGhyZWVDQUB0ZXN0X2NhLmNvbTEPMA0GA1UEChMGQ0lU
UklYMB4XDTE3MDUxNzEyMzY1MloXDTI3MDUxNTEyMzY1MlowcTELMAkGA1UECBMC
S0ExCzAJBgNVBAYTAklOMSEwHwYDVQQDFBhjbGllbnQyMDQ4X3NoYTM4NF9zZXJ2
ZXIxITAfBgkqhkiG9w0BCQEWEmNsaWVudEB0ZXN0X2NhLmNvbTEPMA0GA1UEChMG
Q0lUUklYMIIBIjANBgkqhkiG9w0BAQEFAAOCAQ8AMIIBCgKCAQEAxjf6fH/bSQhR
vM8EtGlmCow0+RkhLk05VMD6Wg4A6BJdUKJsgNI3nDQho6H2BXHTj/QEHzItpvCc
VHEQqzIMmSQc+6LsNQBYzv4h12EdydKpWSyF9NoFsAi7EqnyGGgqs0ZQM1gimjZM
tDr+V2KIjfr/ZH3KsmblF1nsaOZrD0Gud9OoROP09SUJe/RqHO+P0Kmp8r5XqK0h
c/L5cxCKsRv6oM6sb14R4P4z4aDmBIyIo/ao0Cw7fIIoxAkPMPEOCFH8REQHMeo+
IbbHDJ61yicwmcad0YIOkNLELfx3KOmou6o2lcpnetVD64CDmaJuxu7vdN5V+ZYN
G6Y2Zxe5vwIDAQABo4IBWTCCAVUwEQYJYIZIAYb4QgEBBAQDAgeAMAsGA1UdDwQE
AwIF4DB7BgNVHREEdDByghJhbHRuYW1lLTEubXljYS5jb22CEmFsdG5hbWUtMi5t
eWNhLmNvbYISYWx0bmFtZS0zLm15Y2EuY29tghJhbHRuYW1lLTQubXljYS5jb22B
D21haWwtMUBteWNhLmNvbYEPbWFpbC0yQG15Y2EuY29tMB0GA1UdDgQWBBQcLfYZ
hQgup9kYkv5/Ojjcx4mgsjCBlgYDVR0jBIGOMIGLgBRwe68qcZc4Cglt1JET+DRh
wewV16FspGowaDELMAkGA1UECBMCS0ExCzAJBgNVBAYTAklOMRkwFwYDVQQDFBBU
d29DQTEwMjRfc2VydmVyMSAwHgYJKoZIhvcNAQkBFhFUd29DQUB0ZXN0X2NhLmNv
bTEPMA0GA1UEChMGQ0lUUklYggURIjNEVTANBgkqhkiG9w0BAQwFAAOCAQEAD8gQ
XPtbSt3AHTM91DtmdW2H4TrbbunRxuhXBXtcwtwCWCPG+L0JNicpLKzPRFI7QPCO
JkZCMnSb8ASu5Cy6+L84jIFMfS0hb4Yxu3Iwqqia8bj61+ZDW+VOe6SVN4fRc+0k
xY/UBpvFaOOldl+4+Xg0cmrRjWzC5oEwOy41dKpS5E9M3hGjnXp2o5gJtbpP0qvY
eKIwaOZyA3Up8HmVUakuootbsh+vZguRIPt9C/nOKoKRCAVm1HLZtPEl7oaNZ5il
d063YXAzL9gQ6GdK8wqqVHY+CjxY+TSinNlyN4hqf8PtfX3W98ArvUFP3RFz6Sv8
0Iw5HpD5xjnmt5Npxg==
-----END CERTIFICATE-----
