Certificate:
    Data:
        Version: 3 (0x2)
        Serial Number: 188900966400015 (0xabcdef00000f)
    Signature Algorithm: sha1WithRSAEncryption
        Issuer: ST=KA, C=IN, CN=ThreeCA2048_server/emailAddress=ThreeCA@test_ca.com, O=CITRIX
        Validity
            Not Before: May 17 12:36:10 2017 GMT
            Not After : May 15 12:36:10 2027 GMT
        Subject: ST=KA, C=IN, CN=client1024_sha1_server/emailAddress=client@test_ca.com, O=CITRIX
        Subject Public Key Info:
            Public Key Algorithm: rsaEncryption
                Public-Key: (1024 bit)
                Modulus:
                    00:d5:f3:42:d0:4d:60:f8:90:33:c9:5f:e6:2b:0f:
                    6b:df:1b:9f:90:e8:46:32:ab:9e:be:7b:4e:ce:3f:
                    22:99:10:be:86:be:79:05:5d:63:28:94:d2:70:4c:
                    b8:41:b8:46:bd:48:f6:2c:ba:87:fa:f1:be:39:64:
                    1a:52:a4:57:4e:fa:77:d3:64:81:57:8f:0f:1c:3a:
                    33:59:94:43:c2:75:3b:aa:62:ee:1e:26:28:19:28:
                    40:7b:e2:7b:87:5a:2f:1f:04:26:88:7d:f2:b7:36:
                    2f:21:94:2f:9e:7b:31:0c:7b:b8:17:d9:46:6d:1b:
                    b2:64:f6:5d:9a:26:27:50:8d
                Exponent: 65537 (0x10001)
        X509v3 extensions:
            Netscape Cert Type: 
                SSL Client
            X509v3 Key Usage: 
                Digital Signature, Non Repudiation, Key Encipherment
            X509v3 Subject Alternative Name: 
                DNS:altname-1.myca.com, DNS:altname-2.myca.com, DNS:altname-3.myca.com, DNS:altname-4.myca.com, email:mail-1@myca.com, email:mail-2@myca.com
            X509v3 Subject Key Identifier: 
                71:A9:05:2A:00:84:2E:A0:9A:57:E8:4A:E4:96:7C:F1:9B:71:2B:9B
            X509v3 Authority Key Identifier: 
                keyid:70:7B:AF:2A:71:97:38:0A:09:6D:D4:91:13:F8:34:61:C1:EC:15:D7
                DirName:/ST=KA/C=IN/CN=TwoCA1024_server/emailAddress=TwoCA@test_ca.com/O=CITRIX
                serial:11:22:33:44:55

    Signature Algorithm: sha1WithRSAEncryption
         96:2a:38:d3:9e:7a:64:45:eb:e3:a0:c2:18:94:dd:d6:df:2a:
         d6:5c:66:d1:db:6d:c7:d2:6a:74:c5:e9:2a:36:06:84:8b:c1:
         8c:f5:0a:f6:51:50:36:0c:9a:6c:15:a7:6b:99:f9:e8:09:61:
         45:6c:4b:43:a9:ef:7d:d7:6d:79:6d:1e:5b:65:5e:72:89:44:
         1a:df:95:46:55:b7:e1:8f:cc:85:fd:dc:6a:ad:b5:3e:25:71:
         ac:5a:07:83:5b:1e:0e:92:e2:91:6c:87:44:3f:10:b6:b8:f1:
         68:4d:93:6b:e9:70:0e:50:b3:58:3d:b2:78:0b:16:63:98:6c:
         6e:a0:3c:5c:7f:c0:6f:bf:76:e9:74:d5:a3:8d:83:94:f2:71:
         b7:47:5d:f6:a4:ef:e4:69:35:71:67:4d:59:45:d7:26:53:25:
         1f:a5:bd:40:6d:55:c7:0a:eb:79:28:d3:9e:69:94:b8:ec:a5:
         11:ae:d0:38:08:92:27:80:10:32:16:90:8e:49:2b:41:8c:6e:
         ba:84:23:6d:d0:ed:46:8f:57:27:3e:82:2b:f8:e3:5b:1b:e2:
         e4:15:e5:a5:00:68:c7:0d:39:29:95:63:04:d5:db:9b:04:64:
         c7:03:d6:22:14:7c:c9:5f:52:00:57:e2:b2:3b:08:a9:ea:2b:
         b2:e8:08:19
-----BEGIN CERTIFICATE-----
MIIEMzCCAxugAwIBAgIHAKvN7wAADzANBgkqhkiG9w0BAQUFADBsMQswCQYDVQQI
EwJLQTELMAkGA1UEBhMCSU4xGzAZBgNVBAMUElRocmVlQ0EyMDQ4X3NlcnZlcjEi
MCAGCSqGSIb3DQEJARYTVGhyZWVDQUB0ZXN0X2NhLmNvbTEPMA0GA1UEChMGQ0lU
UklYMB4XDTE3MDUxNzEyMzYxMFoXDTI3MDUxNTEyMzYxMFowbzELMAkGA1UECBMC
S0ExCzAJBgNVBAYTAklOMR8wHQYDVQQDFBZjbGllbnQxMDI0X3NoYTFfc2VydmVy
MSEwHwYJKoZIhvcNAQkBFhJjbGllbnRAdGVzdF9jYS5jb20xDzANBgNVBAoTBkNJ
VFJJWDCBnzANBgkqhkiG9w0BAQEFAAOBjQAwgYkCgYEA1fNC0E1g+JAzyV/mKw9r
3xufkOhGMquevntOzj8imRC+hr55BV1jKJTScEy4QbhGvUj2LLqH+vG+OWQaUqRX
Tvp302SBV48PHDozWZRDwnU7qmLuHiYoGShAe+J7h1ovHwQmiH3ytzYvIZQvnnsx
DHu4F9lGbRuyZPZdmiYnUI0CAwEAAaOCAVkwggFVMBEGCWCGSAGG+EIBAQQEAwIH
gDALBgNVHQ8EBAMCBeAwewYDVR0RBHQwcoISYWx0bmFtZS0xLm15Y2EuY29tghJh
bHRuYW1lLTIubXljYS5jb22CEmFsdG5hbWUtMy5teWNhLmNvbYISYWx0bmFtZS00
Lm15Y2EuY29tgQ9tYWlsLTFAbXljYS5jb22BD21haWwtMkBteWNhLmNvbTAdBgNV
HQ4EFgQUcakFKgCELqCaV+hK5JZ88ZtxK5swgZYGA1UdIwSBjjCBi4AUcHuvKnGX
OAoJbdSRE/g0YcHsFdehbKRqMGgxCzAJBgNVBAgTAktBMQswCQYDVQQGEwJJTjEZ
MBcGA1UEAxQQVHdvQ0ExMDI0X3NlcnZlcjEgMB4GCSqGSIb3DQEJARYRVHdvQ0FA
dGVzdF9jYS5jb20xDzANBgNVBAoTBkNJVFJJWIIFESIzRFUwDQYJKoZIhvcNAQEF
BQADggEBAJYqONOeemRF6+OgwhiU3dbfKtZcZtHbbcfSanTF6So2BoSLwYz1CvZR
UDYMmmwVp2uZ+egJYUVsS0Op733XbXltHltlXnKJRBrflUZVt+GPzIX93GqttT4l
caxaB4NbHg6S4pFsh0Q/ELa48WhNk2vpcA5Qs1g9sngLFmOYbG6gPFx/wG+/dul0
1aONg5TycbdHXfak7+RpNXFnTVlF1yZTJR+lvUBtVccK63ko055plLjspRGu0DgI
kieAEDIWkI5JK0GMbrqEI23Q7UaPVyc+giv441sb4uQV5aUAaMcNOSmVYwTV25sE
ZMcD1iIUfMlfUgBX4rI7CKnqK7LoCBk=
-----END CERTIFICATE-----
