Certificate:
    Data:
        Version: 3 (0x2)
        Serial Number: 188900966400019 (0xabcdef000013)
    Signature Algorithm: sha256WithRSAEncryption
        Issuer: ST=KA, C=IN, CN=ThreeCA2048_server/emailAddress=ThreeCA@test_ca.com, O=CITRIX
        Validity
            Not Before: May 17 12:36:46 2017 GMT
            Not After : May 15 12:36:46 2027 GMT
        Subject: ST=KA, C=IN, CN=client2048_sha256_server/emailAddress=client@test_ca.com, O=CITRIX
        Subject Public Key Info:
            Public Key Algorithm: rsaEncryption
                Public-Key: (2048 bit)
                Modulus:
                    00:e6:10:14:93:29:cd:9c:39:9b:19:54:ca:94:9f:
                    30:9c:45:94:df:c9:09:c6:d6:c6:bd:85:4b:dd:dd:
                    18:33:c9:0d:1c:a7:e2:44:68:98:46:5f:8a:3b:de:
                    50:01:c9:d8:f1:14:71:79:84:4d:f5:6a:f3:5c:8f:
                    ff:08:0c:ff:ab:1f:07:d1:0f:96:3f:90:e7:6f:13:
                    0c:3f:df:2c:3f:3f:e4:f4:c3:58:46:92:c3:b8:ef:
                    7d:11:54:07:eb:39:b6:dd:20:38:99:de:60:c3:2b:
                    63:cb:af:97:6b:ba:d0:e9:c1:4f:27:48:2f:01:b5:
                    d2:2d:f3:27:60:44:e8:b2:65:54:8d:1d:3f:8b:e0:
                    63:ba:e1:60:b4:01:27:89:90:86:e8:5b:c6:10:59:
                    07:c2:7a:1b:fb:8e:1d:f5:74:d7:45:7a:ac:1a:1c:
                    3a:2d:14:03:9b:b6:97:eb:58:96:7f:53:a8:9f:e4:
                    61:a2:48:b3:b1:96:fe:13:94:67:d7:2a:c1:92:95:
                    fe:76:9e:f2:6d:68:f5:4a:b4:77:05:92:eb:09:c1:
                    23:2d:4f:64:07:06:cc:9f:a5:2e:e4:b1:74:43:4f:
                    cc:c3:c4:f7:cf:94:f7:01:bd:a6:72:17:66:54:6c:
                    fa:d2:da:b4:b2:93:1a:cf:5b:7f:b4:9f:c1:98:e4:
                    a8:bb
                Exponent: 65537 (0x10001)
        X509v3 extensions:
            Netscape Cert Type: 
                SSL Client
            X509v3 Key Usage: 
                Digital Signature, Non Repudiation, Key Encipherment
            X509v3 Subject Alternative Name: 
                DNS:altname-1.myca.com, DNS:altname-2.myca.com, DNS:altname-3.myca.com, DNS:altname-4.myca.com, email:mail-1@myca.com, email:mail-2@myca.com
            X509v3 Subject Key Identifier: 
                A8:09:D4:EF:13:03:A6:2C:70:C5:F5:D3:29:56:92:61:92:1B:6A:4C
            X509v3 Authority Key Identifier: 
                keyid:70:7B:AF:2A:71:97:38:0A:09:6D:D4:91:13:F8:34:61:C1:EC:15:D7
                DirName:/ST=KA/C=IN/CN=TwoCA1024_server/emailAddress=TwoCA@test_ca.com/O=CITRIX
                serial:11:22:33:44:55

    Signature Algorithm: sha256WithRSAEncryption
         00:64:00:46:66:09:a6:90:e5:29:83:fb:53:c6:c5:c5:fe:7e:
         11:1a:3e:1b:8c:a9:6d:da:f4:97:96:a0:56:c8:fd:bb:21:1f:
         b7:bc:bf:69:8f:49:d3:50:8a:82:b1:4d:c6:b1:f2:ce:f9:14:
         9b:03:3c:a2:a2:09:fc:a5:46:4f:40:5f:3c:51:60:fe:83:8f:
         71:13:da:97:43:23:d1:a2:e9:dc:be:57:d3:15:ba:41:bd:4a:
         a3:e1:7e:b3:b5:22:9b:13:d1:4a:35:48:8e:1b:ea:8e:78:81:
         03:a0:35:12:c3:de:ff:f3:cc:24:3f:24:04:6d:b9:54:20:21:
         76:41:90:f5:d4:aa:6e:53:78:b2:27:95:cb:db:57:ba:3a:f3:
         ca:40:bf:49:eb:94:b3:c0:7e:d1:0a:e0:73:e4:47:ed:12:0f:
         5f:af:69:6b:ad:ee:cb:9b:08:eb:ea:29:d5:3b:1a:4e:02:71:
         c4:93:44:c6:3a:87:2e:13:3a:e5:6f:e7:2e:0f:b1:f1:fc:d5:
         f7:4a:8f:f7:ba:5a:d1:9b:eb:ab:b0:9e:21:58:59:be:fb:ba:
         bb:b1:69:07:7e:8d:1e:ac:e9:66:11:c8:27:a6:f9:37:b2:5a:
         eb:57:19:3c:87:e5:5a:dd:41:24:1c:f0:6d:5f:2f:b7:52:00:
         29:19:a2:e6
-----BEGIN CERTIFICATE-----
MIIEuTCCA6GgAwIBAgIHAKvN7wAAEzANBgkqhkiG9w0BAQsFADBsMQswCQYDVQQI
EwJLQTELMAkGA1UEBhMCSU4xGzAZBgNVBAMUElRocmVlQ0EyMDQ4X3NlcnZlcjEi
MCAGCSqGSIb3DQEJARYTVGhyZWVDQUB0ZXN0X2NhLmNvbTEPMA0GA1UEChMGQ0lU
UklYMB4XDTE3MDUxNzEyMzY0NloXDTI3MDUxNTEyMzY0NlowcTELMAkGA1UECBMC
S0ExCzAJBgNVBAYTAklOMSEwHwYDVQQDFBhjbGllbnQyMDQ4X3NoYTI1Nl9zZXJ2
ZXIxITAfBgkqhkiG9w0BCQEWEmNsaWVudEB0ZXN0X2NhLmNvbTEPMA0GA1UEChMG
Q0lUUklYMIIBIjANBgkqhkiG9w0BAQEFAAOCAQ8AMIIBCgKCAQEA5hAUkynNnDmb
GVTKlJ8wnEWU38kJxtbGvYVL3d0YM8kNHKfiRGiYRl+KO95QAcnY8RRxeYRN9Wrz
XI//CAz/qx8H0Q+WP5DnbxMMP98sPz/k9MNYRpLDuO99EVQH6zm23SA4md5gwytj
y6+Xa7rQ6cFPJ0gvAbXSLfMnYETosmVUjR0/i+BjuuFgtAEniZCG6FvGEFkHwnob
+44d9XTXRXqsGhw6LRQDm7aX61iWf1Oon+RhokizsZb+E5Rn1yrBkpX+dp7ybWj1
SrR3BZLrCcEjLU9kBwbMn6Uu5LF0Q0/Mw8T3z5T3Ab2mchdmVGz60tq0spMaz1t/
tJ/BmOSouwIDAQABo4IBWTCCAVUwEQYJYIZIAYb4QgEBBAQDAgeAMAsGA1UdDwQE
AwIF4DB7BgNVHREEdDByghJhbHRuYW1lLTEubXljYS5jb22CEmFsdG5hbWUtMi5t
eWNhLmNvbYISYWx0bmFtZS0zLm15Y2EuY29tghJhbHRuYW1lLTQubXljYS5jb22B
D21haWwtMUBteWNhLmNvbYEPbWFpbC0yQG15Y2EuY29tMB0GA1UdDgQWBBSoCdTv
EwOmLHDF9dMpVpJhkhtqTDCBlgYDVR0jBIGOMIGLgBRwe68qcZc4Cglt1JET+DRh
wewV16FspGowaDELMAkGA1UECBMCS0ExCzAJBgNVBAYTAklOMRkwFwYDVQQDFBBU
d29DQTEwMjRfc2VydmVyMSAwHgYJKoZIhvcNAQkBFhFUd29DQUB0ZXN0X2NhLmNv
bTEPMA0GA1UEChMGQ0lUUklYggURIjNEVTANBgkqhkiG9w0BAQsFAAOCAQEAAGQA
RmYJppDlKYP7U8bFxf5+ERo+G4ypbdr0l5agVsj9uyEft7y/aY9J01CKgrFNxrHy
zvkUmwM8oqIJ/KVGT0BfPFFg/oOPcRPal0Mj0aLp3L5X0xW6Qb1Ko+F+s7UimxPR
SjVIjhvqjniBA6A1EsPe//PMJD8kBG25VCAhdkGQ9dSqblN4sieVy9tXujrzykC/
SeuUs8B+0Qrgc+RH7RIPX69pa63uy5sI6+op1TsaTgJxxJNExjqHLhM65W/nLg+x
8fzV90qP97pa0Zvrq7CeIVhZvvu6u7FpB36NHqzpZhHIJ6b5N7Ja61cZPIflWt1B
JBzwbV8vt1IAKRmi5g==
-----END CERTIFICATE-----
