Certificate:
    Data:
        Version: 3 (0x2)
        Serial Number: 188900966400016 (0xabcdef000010)
    Signature Algorithm: sha256WithRSAEncryption
        Issuer: ST=KA, C=IN, CN=ThreeCA2048_server/emailAddress=ThreeCA@test_ca.com, O=CITRIX
        Validity
            Not Before: May 17 12:36:18 2017 GMT
            Not After : May 15 12:36:18 2027 GMT
        Subject: ST=KA, C=IN, CN=client1024_sha256_server/emailAddress=client@test_ca.com, O=CITRIX
        Subject Public Key Info:
            Public Key Algorithm: rsaEncryption
                Public-Key: (1024 bit)
                Modulus:
                    00:cf:4d:8b:53:df:ea:9e:d1:bc:88:69:e9:1b:06:
                    59:48:4f:89:98:59:60:71:16:ee:60:20:fa:56:76:
                    23:4f:c8:32:ad:24:f3:fa:1b:41:f0:84:2f:9c:47:
                    b5:41:fc:bc:b4:90:14:6f:0f:85:27:46:71:19:37:
                    24:d3:d4:65:d5:24:4c:cb:5d:29:84:77:71:8f:11:
                    dc:64:5a:74:b7:d3:22:3b:3b:be:61:f6:dd:cf:a9:
                    69:bd:9f:9d:9c:5c:79:94:f0:97:16:b8:ec:2b:09:
                    c9:0e:e3:4d:f8:96:67:c7:06:63:4c:23:8f:cd:f8:
                    81:bc:7f:0f:db:b7:15:75:d1
                Exponent: 65537 (0x10001)
        X509v3 extensions:
            Netscape Cert Type: 
                SSL Client
            X509v3 Key Usage: 
                Digital Signature, Non Repudiation, Key Encipherment
            X509v3 Subject Alternative Name: 
                DNS:altname-1.myca.com, DNS:altname-2.myca.com, DNS:altname-3.myca.com, DNS:altname-4.myca.com, email:mail-1@myca.com, email:mail-2@myca.com
            X509v3 Subject Key Identifier: 
                8F:36:21:09:16:B5:67:67:0D:94:DA:28:99:20:2F:7E:BD:3A:C8:32
            X509v3 Authority Key Identifier: 
                keyid:70:7B:AF:2A:71:97:38:0A:09:6D:D4:91:13:F8:34:61:C1:EC:15:D7
                DirName:/ST=KA/C=IN/CN=TwoCA1024_server/emailAddress=TwoCA@test_ca.com/O=CITRIX
                serial:11:22:33:44:55

    Signature Algorithm: sha256WithRSAEncryption
         5c:8b:3a:66:b9:f5:12:99:09:91:26:b6:73:80:64:3d:38:95:
         b2:ba:5e:d4:7c:48:35:2e:87:f8:a9:22:9c:5f:b5:31:e3:a2:
         35:e5:8f:89:9a:dc:15:6c:d3:ef:f4:71:75:e5:ef:91:70:0e:
         96:70:44:05:23:68:9c:04:ad:ac:c2:c6:c1:22:0d:4f:d2:10:
         1b:b7:39:ee:ba:5a:4f:08:7c:3a:3d:8b:3b:63:9e:75:23:13:
         ce:fa:37:a0:b4:e0:71:b6:7c:23:77:a9:d2:9e:18:71:ec:85:
         66:60:88:fb:32:c8:d9:80:65:e6:28:65:e6:1c:c5:46:a5:50:
         74:b2:11:ed:cb:a6:4f:b7:7c:9d:eb:39:32:ef:33:dc:ea:79:
         48:10:80:2a:2e:1a:27:b9:3b:f5:a3:87:74:e0:37:82:b7:d9:
         b4:e3:97:5c:09:63:1c:f6:a9:6a:9b:ac:01:1e:4d:f9:7b:18:
         db:6a:f6:4d:6a:31:bd:3d:04:d8:56:9a:0e:5d:61:b3:c7:70:
         27:b3:8e:e9:75:a9:e0:09:b5:25:cd:39:0c:b4:9a:10:87:67:
         59:35:5a:04:73:37:2b:73:4d:47:de:f9:36:72:b0:42:75:f6:
         19:b9:5a:1f:01:a7:69:b4:aa:8a:86:8c:1a:72:1d:ee:e3:dc:
         9d:64:82:5f
-----BEGIN CERTIFICATE-----
MIIENTCCAx2gAwIBAgIHAKvN7wAAEDANBgkqhkiG9w0BAQsFADBsMQswCQYDVQQI
EwJLQTELMAkGA1UEBhMCSU4xGzAZBgNVBAMUElRocmVlQ0EyMDQ4X3NlcnZlcjEi
MCAGCSqGSIb3DQEJARYTVGhyZWVDQUB0ZXN0X2NhLmNvbTEPMA0GA1UEChMGQ0lU
UklYMB4XDTE3MDUxNzEyMzYxOFoXDTI3MDUxNTEyMzYxOFowcTELMAkGA1UECBMC
S0ExCzAJBgNVBAYTAklOMSEwHwYDVQQDFBhjbGllbnQxMDI0X3NoYTI1Nl9zZXJ2
ZXIxITAfBgkqhkiG9w0BCQEWEmNsaWVudEB0ZXN0X2NhLmNvbTEPMA0GA1UEChMG
Q0lUUklYMIGfMA0GCSqGSIb3DQEBAQUAA4GNADCBiQKBgQDPTYtT3+qe0byIaekb
BllIT4mYWWBxFu5gIPpWdiNPyDKtJPP6G0HwhC+cR7VB/Ly0kBRvD4UnRnEZNyTT
1GXVJEzLXSmEd3GPEdxkWnS30yI7O75h9t3PqWm9n52cXHmU8JcWuOwrCckO4034
lmfHBmNMI4/N+IG8fw/btxV10QIDAQABo4IBWTCCAVUwEQYJYIZIAYb4QgEBBAQD
AgeAMAsGA1UdDwQEAwIF4DB7BgNVHREEdDByghJhbHRuYW1lLTEubXljYS5jb22C
EmFsdG5hbWUtMi5teWNhLmNvbYISYWx0bmFtZS0zLm15Y2EuY29tghJhbHRuYW1l
LTQubXljYS5jb22BD21haWwtMUBteWNhLmNvbYEPbWFpbC0yQG15Y2EuY29tMB0G
A1UdDgQWBBSPNiEJFrVnZw2U2iiZIC9+vTrIMjCBlgYDVR0jBIGOMIGLgBRwe68q
cZc4Cglt1JET+DRhwewV16FspGowaDELMAkGA1UECBMCS0ExCzAJBgNVBAYTAklO
MRkwFwYDVQQDFBBUd29DQTEwMjRfc2VydmVyMSAwHgYJKoZIhvcNAQkBFhFUd29D
QUB0ZXN0X2NhLmNvbTEPMA0GA1UEChMGQ0lUUklYggURIjNEVTANBgkqhkiG9w0B
AQsFAAOCAQEAXIs6Zrn1EpkJkSa2c4BkPTiVsrpe1HxINS6H+KkinF+1MeOiNeWP
iZrcFWzT7/RxdeXvkXAOlnBEBSNonAStrMLGwSINT9IQG7c57rpaTwh8Oj2LO2Oe
dSMTzvo3oLTgcbZ8I3ep0p4YceyFZmCI+zLI2YBl5ihl5hzFRqVQdLIR7cumT7d8
nes5Mu8z3Op5SBCAKi4aJ7k79aOHdOA3grfZtOOXXAljHPapapusAR5N+XsY22r2
TWoxvT0E2FaaDl1hs8dwJ7OO6XWp4Am1Jc05DLSaEIdnWTVaBHM3K3NNR975NnKw
QnX2GblaHwGnabSqioaMGnId7uPcnWSCXw==
-----END CERTIFICATE-----
