Certificate:
    Data:
        Version: 3 (0x2)
        Serial Number: 188900966400017 (0xabcdef000011)
    Signature Algorithm: sha384WithRSAEncryption
        Issuer: ST=KA, C=IN, CN=ThreeCA2048_server/emailAddress=ThreeCA@test_ca.com, O=CITRIX
        Validity
            Not Before: May 17 12:36:23 2017 GMT
            Not After : May 15 12:36:23 2027 GMT
        Subject: ST=KA, C=IN, CN=client1024_sha384_server/emailAddress=client@test_ca.com, O=CITRIX
        Subject Public Key Info:
            Public Key Algorithm: rsaEncryption
                Public-Key: (1024 bit)
                Modulus:
                    00:c1:d7:12:13:eb:fd:bd:a5:3f:cb:dd:7e:12:7f:
                    c2:14:4a:f9:ca:cd:2a:35:d5:12:bd:a5:43:ce:9f:
                    16:5d:0f:d4:96:6c:20:41:c1:35:dd:44:11:c7:cd:
                    01:da:f2:af:6e:b2:60:26:cb:61:69:17:15:dd:fe:
                    3f:37:43:c6:b4:93:06:fc:e2:ee:2a:b3:9b:33:6a:
                    65:56:fb:fa:4c:81:b9:e3:f3:37:54:8c:0f:f3:13:
                    11:8f:e0:75:51:49:2d:c7:7a:8c:06:3f:90:99:6d:
                    d8:08:01:ca:64:07:8d:02:ee:3b:18:b3:cb:a0:a1:
                    0c:01:57:8f:a1:f2:73:d9:21
                Exponent: 65537 (0x10001)
        X509v3 extensions:
            Netscape Cert Type: 
                SSL Client
            X509v3 Key Usage: 
                Digital Signature, Non Repudiation, Key Encipherment
            X509v3 Subject Alternative Name: 
                DNS:altname-1.myca.com, DNS:altname-2.myca.com, DNS:altname-3.myca.com, DNS:altname-4.myca.com, email:mail-1@myca.com, email:mail-2@myca.com
            X509v3 Subject Key Identifier: 
                1E:4D:F6:41:C5:B3:0A:05:B4:F8:8F:0D:02:1E:55:D1:A1:CE:58:F3
            X509v3 Authority Key Identifier: 
                keyid:70:7B:AF:2A:71:97:38:0A:09:6D:D4:91:13:F8:34:61:C1:EC:15:D7
                DirName:/ST=KA/C=IN/CN=TwoCA1024_server/emailAddress=TwoCA@test_ca.com/O=CITRIX
                serial:11:22:33:44:55

    Signature Algorithm: sha384WithRSAEncryption
         48:fb:b6:f3:e8:f3:7e:9b:ec:c9:df:fb:43:fc:02:37:c0:f6:
         d3:95:73:70:c4:1a:63:ba:1a:ae:08:ef:7d:87:c4:c8:5e:3e:
         ef:19:67:34:95:0b:08:25:a4:3a:be:ad:0d:2a:84:dd:a6:80:
         26:04:4f:b8:eb:ce:ac:8d:99:09:42:5a:0d:4c:b7:2a:ff:b7:
         b4:70:8a:51:97:5a:f2:e1:4f:07:5c:aa:88:02:2f:a6:dc:f0:
         07:c7:d3:5c:a8:8d:64:89:ca:ca:3e:bd:ce:03:92:ac:d9:03:
         31:2b:3d:2b:1e:ff:ce:70:2f:d7:21:f5:a8:ed:f3:02:f0:a2:
         21:3a:e6:77:4c:f6:e3:82:1f:e4:72:7b:84:d7:d2:89:e7:74:
         19:60:72:db:63:bb:92:aa:9c:fc:53:63:1d:53:c5:f6:5b:a8:
         3b:af:a7:f9:ab:2d:28:dc:84:f3:55:0b:bb:82:cb:29:11:a6:
         f3:94:88:1f:8d:62:ed:8d:59:b4:63:b0:d9:92:07:26:a9:07:
         18:13:30:e3:01:69:00:1f:50:a4:01:13:00:cc:eb:3d:b6:1d:
         ef:4b:75:4e:91:83:f4:ff:cd:ee:06:06:ab:d4:9c:75:6b:95:
         2a:62:20:18:fb:0a:4f:07:78:4c:d3:0e:68:99:22:b4:bf:57:
         b0:bf:c2:aa
-----BEGIN CERTIFICATE-----
MIIENTCCAx2gAwIBAgIHAKvN7wAAETANBgkqhkiG9w0BAQwFADBsMQswCQYDVQQI
EwJLQTELMAkGA1UEBhMCSU4xGzAZBgNVBAMUElRocmVlQ0EyMDQ4X3NlcnZlcjEi
MCAGCSqGSIb3DQEJARYTVGhyZWVDQUB0ZXN0X2NhLmNvbTEPMA0GA1UEChMGQ0lU
UklYMB4XDTE3MDUxNzEyMzYyM1oXDTI3MDUxNTEyMzYyM1owcTELMAkGA1UECBMC
S0ExCzAJBgNVBAYTAklOMSEwHwYDVQQDFBhjbGllbnQxMDI0X3NoYTM4NF9zZXJ2
ZXIxITAfBgkqhkiG9w0BCQEWEmNsaWVudEB0ZXN0X2NhLmNvbTEPMA0GA1UEChMG
Q0lUUklYMIGfMA0GCSqGSIb3DQEBAQUAA4GNADCBiQKBgQDB1xIT6/29pT/L3X4S
f8IUSvnKzSo11RK9pUPOnxZdD9SWbCBBwTXdRBHHzQHa8q9usmAmy2FpFxXd/j83
Q8a0kwb84u4qs5szamVW+/pMgbnj8zdUjA/zExGP4HVRSS3HeowGP5CZbdgIAcpk
B40C7jsYs8ugoQwBV4+h8nPZIQIDAQABo4IBWTCCAVUwEQYJYIZIAYb4QgEBBAQD
AgeAMAsGA1UdDwQEAwIF4DB7BgNVHREEdDByghJhbHRuYW1lLTEubXljYS5jb22C
EmFsdG5hbWUtMi5teWNhLmNvbYISYWx0bmFtZS0zLm15Y2EuY29tghJhbHRuYW1l
LTQubXljYS5jb22BD21haWwtMUBteWNhLmNvbYEPbWFpbC0yQG15Y2EuY29tMB0G
A1UdDgQWBBQeTfZBxbMKBbT4jw0CHlXRoc5Y8zCBlgYDVR0jBIGOMIGLgBRwe68q
cZc4Cglt1JET+DRhwewV16FspGowaDELMAkGA1UECBMCS0ExCzAJBgNVBAYTAklO
MRkwFwYDVQQDFBBUd29DQTEwMjRfc2VydmVyMSAwHgYJKoZIhvcNAQkBFhFUd29D
QUB0ZXN0X2NhLmNvbTEPMA0GA1UEChMGQ0lUUklYggURIjNEVTANBgkqhkiG9w0B
AQwFAAOCAQEASPu28+jzfpvsyd/7Q/wCN8D205VzcMQaY7oargjvfYfEyF4+7xln
NJULCCWkOr6tDSqE3aaAJgRPuOvOrI2ZCUJaDUy3Kv+3tHCKUZda8uFPB1yqiAIv
ptzwB8fTXKiNZInKyj69zgOSrNkDMSs9Kx7/znAv1yH1qO3zAvCiITrmd0z244If
5HJ7hNfSied0GWBy22O7kqqc/FNjHVPF9luoO6+n+astKNyE81ULu4LLKRGm85SI
H41i7Y1ZtGOw2ZIHJqkHGBMw4wFpAB9QpAETAMzrPbYd70t1TpGD9P/N7gYGq9Sc
dWuVKmIgGPsKTwd4TNMOaJkitL9XsL/Cqg==
-----END CERTIFICATE-----
