Certificate:
    Data:
        Version: 3 (0x2)
        Serial Number: 188900966400018 (0xabcdef000012)
    Signature Algorithm: sha1WithRSAEncryption
        Issuer: ST=KA, C=IN, CN=ThreeCA2048_server/emailAddress=ThreeCA@test_ca.com, O=CITRIX
        Validity
            Not Before: May 17 12:36:40 2017 GMT
            Not After : May 15 12:36:40 2027 GMT
        Subject: ST=KA, C=IN, CN=client2048_sha1_server/emailAddress=client@test_ca.com, O=CITRIX
        Subject Public Key Info:
            Public Key Algorithm: rsaEncryption
                Public-Key: (2048 bit)
                Modulus:
                    00:b8:84:b4:4b:b2:39:1b:48:6b:12:22:75:82:fd:
                    85:3c:71:18:44:3c:bf:69:93:5e:7e:88:67:e0:26:
                    f7:fe:27:6b:30:c8:07:4d:0f:64:7f:8f:82:20:f7:
                    50:82:43:49:fc:2a:0a:67:d1:f4:f0:3a:43:af:c0:
                    f7:df:13:77:83:c1:16:f1:a5:a7:89:5d:6a:0f:e0:
                    7f:62:cd:4b:2d:69:2a:d1:11:9f:12:6c:ea:8e:ca:
                    48:13:aa:14:53:bf:4a:4d:a8:d6:27:f2:9f:6f:79:
                    db:13:9f:17:d1:3f:bd:81:8f:bc:57:2d:5e:69:fe:
                    b9:b3:7f:5c:22:d7:b5:78:4d:5c:50:19:e3:78:5f:
                    a7:72:61:f4:31:70:83:fb:35:ed:86:53:80:5b:35:
                    2f:e1:c3:c0:48:35:8a:52:35:08:fa:7e:94:d2:49:
                    b8:f3:4c:a7:8b:1a:6e:a5:81:1d:c4:75:98:2c:e4:
                    77:4f:6b:bd:d9:8e:1a:03:a8:c9:6c:3e:0e:33:5c:
                    7d:cc:0c:fa:7e:0d:91:c7:38:69:c3:eb:82:2f:fa:
                    d7:1c:f3:cd:65:be:cc:c0:0e:3f:f7:0e:6f:6c:8e:
                    07:f6:63:0c:4c:a5:cb:82:40:de:b3:16:4a:7a:ac:
                    30:47:ea:15:5d:fa:b0:b7:b3:de:01:5a:75:f1:e4:
                    d9:33
                Exponent: 65537 (0x10001)
        X509v3 extensions:
            Netscape Cert Type: 
                SSL Client
            X509v3 Key Usage: 
                Digital Signature, Non Repudiation, Key Encipherment
            X509v3 Subject Alternative Name: 
                DNS:altname-1.myca.com, DNS:altname-2.myca.com, DNS:altname-3.myca.com, DNS:altname-4.myca.com, email:mail-1@myca.com, email:mail-2@myca.com
            X509v3 Subject Key Identifier: 
                22:3C:CE:E4:38:47:FB:2D:21:A2:67:90:0C:09:C3:BE:53:53:77:CC
            X509v3 Authority Key Identifier: 
                keyid:70:7B:AF:2A:71:97:38:0A:09:6D:D4:91:13:F8:34:61:C1:EC:15:D7
                DirName:/ST=KA/C=IN/CN=TwoCA1024_server/emailAddress=TwoCA@test_ca.com/O=CITRIX
                serial:11:22:33:44:55

    Signature Algorithm: sha1WithRSAEncryption
         97:fd:fc:8b:f3:27:4a:a5:7e:29:ce:bf:f6:91:23:7f:2a:5d:
         dc:64:6e:4e:0b:48:63:98:b8:90:16:ba:15:5e:32:07:50:d9:
         a2:9a:53:e0:be:94:6e:cc:ac:97:7d:06:6e:72:d9:bd:1f:6a:
         ca:c5:1a:7e:e0:4c:9f:39:e1:e1:52:1e:9f:e1:b3:8d:09:d7:
         f3:9b:9b:f8:27:ae:c3:d6:96:d5:c9:8e:5b:71:2a:8d:1f:8d:
         12:80:c7:98:b4:1d:05:3c:45:2e:0b:9d:2f:c9:37:34:1d:78:
         60:cc:55:70:c7:0f:78:46:79:a4:a4:10:6a:7b:47:76:a7:9e:
         a4:b4:2b:0e:cf:f9:aa:40:bd:d1:0e:72:37:bc:52:af:8e:cd:
         70:f4:51:28:be:28:87:fd:18:a3:38:a5:93:8a:ec:90:48:b6:
         b3:ce:b0:55:a0:6a:6b:48:a8:3f:58:b0:53:38:78:b6:d4:39:
         36:dc:71:c5:75:ff:2d:33:a8:7d:aa:cb:b4:19:1f:94:3f:d6:
         56:8c:8a:9d:68:a4:82:27:fa:ca:43:fc:7f:60:69:f4:ae:7c:
         fc:3a:95:7d:19:68:db:0c:7b:27:7d:71:4d:07:be:a1:b9:f7:
         d7:e8:2d:66:d8:9c:da:b2:96:ee:20:50:24:eb:74:25:eb:35:
         e2:d3:70:83
-----BEGIN CERTIFICATE-----
MIIEtzCCA5+gAwIBAgIHAKvN7wAAEjANBgkqhkiG9w0BAQUFADBsMQswCQYDVQQI
EwJLQTELMAkGA1UEBhMCSU4xGzAZBgNVBAMUElRocmVlQ0EyMDQ4X3NlcnZlcjEi
MCAGCSqGSIb3DQEJARYTVGhyZWVDQUB0ZXN0X2NhLmNvbTEPMA0GA1UEChMGQ0lU
UklYMB4XDTE3MDUxNzEyMzY0MFoXDTI3MDUxNTEyMzY0MFowbzELMAkGA1UECBMC
S0ExCzAJBgNVBAYTAklOMR8wHQYDVQQDFBZjbGllbnQyMDQ4X3NoYTFfc2VydmVy
MSEwHwYJKoZIhvcNAQkBFhJjbGllbnRAdGVzdF9jYS5jb20xDzANBgNVBAoTBkNJ
VFJJWDCCASIwDQYJKoZIhvcNAQEBBQADggEPADCCAQoCggEBALiEtEuyORtIaxIi
dYL9hTxxGEQ8v2mTXn6IZ+Am9/4nazDIB00PZH+PgiD3UIJDSfwqCmfR9PA6Q6/A
998Td4PBFvGlp4ldag/gf2LNSy1pKtERnxJs6o7KSBOqFFO/Sk2o1ifyn2952xOf
F9E/vYGPvFctXmn+ubN/XCLXtXhNXFAZ43hfp3Jh9DFwg/s17YZTgFs1L+HDwEg1
ilI1CPp+lNJJuPNMp4sabqWBHcR1mCzkd09rvdmOGgOoyWw+DjNcfcwM+n4Nkcc4
acPrgi/61xzzzWW+zMAOP/cOb2yOB/ZjDEyly4JA3rMWSnqsMEfqFV36sLez3gFa
dfHk2TMCAwEAAaOCAVkwggFVMBEGCWCGSAGG+EIBAQQEAwIHgDALBgNVHQ8EBAMC
BeAwewYDVR0RBHQwcoISYWx0bmFtZS0xLm15Y2EuY29tghJhbHRuYW1lLTIubXlj
YS5jb22CEmFsdG5hbWUtMy5teWNhLmNvbYISYWx0bmFtZS00Lm15Y2EuY29tgQ9t
YWlsLTFAbXljYS5jb22BD21haWwtMkBteWNhLmNvbTAdBgNVHQ4EFgQUIjzO5DhH
+y0homeQDAnDvlNTd8wwgZYGA1UdIwSBjjCBi4AUcHuvKnGXOAoJbdSRE/g0YcHs
FdehbKRqMGgxCzAJBgNVBAgTAktBMQswCQYDVQQGEwJJTjEZMBcGA1UEAxQQVHdv
Q0ExMDI0X3NlcnZlcjEgMB4GCSqGSIb3DQEJARYRVHdvQ0FAdGVzdF9jYS5jb20x
DzANBgNVBAoTBkNJVFJJWIIFESIzRFUwDQYJKoZIhvcNAQEFBQADggEBAJf9/Ivz
J0qlfinOv/aRI38qXdxkbk4LSGOYuJAWuhVeMgdQ2aKaU+C+lG7MrJd9Bm5y2b0f
asrFGn7gTJ854eFSHp/hs40J1/Obm/gnrsPWltXJjltxKo0fjRKAx5i0HQU8RS4L
nS/JNzQdeGDMVXDHD3hGeaSkEGp7R3annqS0Kw7P+apAvdEOcje8Uq+OzXD0USi+
KIf9GKM4pZOK7JBItrPOsFWgamtIqD9YsFM4eLbUOTbcccV1/y0zqH2qy7QZH5Q/
1laMip1opIIn+spD/H9gafSufPw6lX0ZaNsMeyd9cU0HvqG599foLWbYnNqylu4g
UCTrdCXrNeLTcIM=
-----END CERTIFICATE-----
