Certificate:
    Data:
        Version: 3 (0x2)
        Serial Number: 188900966400027 (0xabcdef00001b)
sha256WithRSAEncryption
        Issuer: ST=KA, C=IN, CN=ThreeCA2048_server/emailAddress=ThreeCA@test_ca.com, O=CITRIX
        Validity
            Not Before: Oct 23 17:20:41 2017 GMT
            Not After : Oct 21 17:20:41 2027 GMT
        Subject: ST=KA, C=IN, CN=one1024_sha256_server/emailAddress=one@test_ca.com, O=CITRIX
        Subject Public Key Info:
            Public Key Algorithm: rsaEncryption
                Public-Key: (1024 bit)
                Modulus:
                    00:e4:ca:42:75:21:47:83:f4:54:28:57:5e:47:97:
                    f7:3c:55:96:56:a6:74:0e:2d:a7:8e:11:bf:67:f1:
                    b4:e7:5f:ed:6b:2b:fa:c2:b1:4b:df:9b:10:b7:9d:
                    82:a4:48:0a:07:c8:95:48:6a:c6:11:9f:75:34:4e:
                    84:14:32:87:1d:4c:d5:81:ae:df:bc:2d:05:70:df:
                    0b:4e:22:59:a6:31:0d:e3:69:da:5a:36:8c:04:2a:
                    fe:fc:d1:fe:06:44:7a:dc:4e:14:fb:e5:c5:6b:0a:
                    18:ed:7d:cc:8f:ed:f6:24:87:35:57:f0:c5:ac:97:
                    83:82:9d:ac:d9:6d:19:c5:cb
                Exponent: 65537 (0x10001)
        X509v3 extensions:
            Netscape Cert Type: 
                SSL Server
            X509v3 Key Usage: 
                Digital Signature, Non Repudiation, Key Encipherment
            X509v3 Subject Alternative Name: 
                DNS:altname-1.myca.com, DNS:altname-2.myca.com, DNS:altname-3.myca.com, DNS:altname-4.myca.com, email:mail-1@myca.com, email:mail-2@myca.com
            X509v3 Subject Key Identifier: 
                EA:60:6A:0B:1D:EC:EF:B0:5C:2F:7B:72:CB:D9:2E:4F:7B:8C:BD:DA
            X509v3 Authority Key Identifier: 
                keyid:70:7B:AF:2A:71:97:38:0A:09:6D:D4:91:13:F8:34:61:C1:EC:15:D7
                DirName:/ST=KA/C=IN/CN=TwoCA1024_server/emailAddress=TwoCA@test_ca.com/O=CITRIX
                serial:11:22:33:44:55

sha256WithRSAEncryption
         1d:c6:38:b8:58:a4:26:d6:cb:63:9b:7f:4e:b4:75:e1:8c:29:
         f2:5c:c0:d4:01:2d:f3:da:2a:17:04:d2:69:9c:51:38:f9:61:
         9a:1a:03:f5:60:39:69:ec:38:e8:ac:9f:5a:17:83:40:05:ed:
         a0:bf:be:04:ef:37:6c:99:60:05:6b:d2:44:5e:d2:ea:9a:eb:
         f1:3b:dd:fa:92:f8:c2:4a:ff:af:09:81:be:d4:7b:1d:40:86:
         56:d7:19:ee:4d:b7:66:ae:02:79:ad:6b:5c:90:a5:93:fb:57:
         be:46:cb:23:04:79:7c:f1:42:4a:fb:f0:2f:33:ba:39:fb:b4:
         d7:cf:54:c2:a0:9e:de:3d:b4:31:51:c9:7b:e5:b3:a0:86:7e:
         8b:cd:d9:21:bd:f2:1e:ce:e9:c1:00:53:94:5d:37:0b:50:07:
         39:64:52:80:88:0d:ac:a6:7e:73:b7:4f:35:6a:45:47:b3:b6:
         6a:77:e9:07:57:f6:f3:64:a9:f6:6d:86:2d:fb:bd:d8:44:d5:
         62:db:24:3d:b8:49:e0:15:59:0b:d9:2e:91:9f:4e:4a:c2:39:
         78:10:6b:9f:30:8e:09:4e:83:38:bb:dd:c6:48:14:17:3c:cf:
         bd:98:0c:21:43:9f:04:66:56:c7:46:7f:06:e5:e9:ac:14:75:
         bd:82:a8:45
-----BEGIN CERTIFICATE-----
MIIELzCCAxegAwIBAgIHAKvN7wAAGzANBgkqhkiG9w0BAQsFADBsMQswCQYDVQQI
EwJLQTELMAkGA1UEBhMCSU4xGzAZBgNVBAMUElRocmVlQ0EyMDQ4X3NlcnZlcjEi
MCAGCSqGSIb3DQEJARYTVGhyZWVDQUB0ZXN0X2NhLmNvbTEPMA0GA1UEChMGQ0lU
UklYMB4XDTE3MTAyMzE3MjA0MVoXDTI3MTAyMTE3MjA0MVowazELMAkGA1UECBMC
S0ExCzAJBgNVBAYTAklOMR4wHAYDVQQDFBVvbmUxMDI0X3NoYTI1Nl9zZXJ2ZXIx
HjAcBgkqhkiG9w0BCQEWD29uZUB0ZXN0X2NhLmNvbTEPMA0GA1UEChMGQ0lUUklY
MIGfMA0GCSqGSIb3DQEBAQUAA4GNADCBiQKBgQDkykJ1IUeD9FQoV15Hl/c8VZZW
pnQOLaeOEb9n8bTnX+1rK/rCsUvfmxC3nYKkSAoHyJVIasYRn3U0ToQUMocdTNWB
rt+8LQVw3wtOIlmmMQ3jadpaNowEKv780f4GRHrcThT75cVrChjtfcyP7fYkhzVX
8MWsl4OCnazZbRnFywIDAQABo4IBWTCCAVUwEQYJYIZIAYb4QgEBBAQDAgZAMAsG
A1UdDwQEAwIF4DB7BgNVHREEdDByghJhbHRuYW1lLTEubXljYS5jb22CEmFsdG5h
bWUtMi5teWNhLmNvbYISYWx0bmFtZS0zLm15Y2EuY29tghJhbHRuYW1lLTQubXlj
YS5jb22BD21haWwtMUBteWNhLmNvbYEPbWFpbC0yQG15Y2EuY29tMB0GA1UdDgQW
BBTqYGoLHezvsFwve3LL2S5Pe4y92jCBlgYDVR0jBIGOMIGLgBRwe68qcZc4Cglt
1JET+DRhwewV16FspGowaDELMAkGA1UECBMCS0ExCzAJBgNVBAYTAklOMRkwFwYD
VQQDFBBUd29DQTEwMjRfc2VydmVyMSAwHgYJKoZIhvcNAQkBFhFUd29DQUB0ZXN0
X2NhLmNvbTEPMA0GA1UEChMGQ0lUUklYggURIjNEVTANBgkqhkiG9w0BAQsFAAOC
AQEAHcY4uFikJtbLY5t/TrR14Ywp8lzA1AEt89oqFwTSaZxROPlhmhoD9WA5aew4
6KyfWheDQAXtoL++BO83bJlgBWvSRF7S6prr8Tvd+pL4wkr/rwmBvtR7HUCGVtcZ
7k23Zq4Cea1rXJClk/tXvkbLIwR5fPFCSvvwLzO6Ofu0189UwqCe3j20MVHJe+Wz
oIZ+i83ZIb3yHs7pwQBTlF03C1AHOWRSgIgNrKZ+c7dPNWpFR7O2anfpB1f282Sp
9m2GLfu92ETVYtskPbhJ4BVZC9kukZ9OSsI5eBBrnzCOCU6DOLvdxkgUFzzPvZgM
IUOfBGZWx0Z/BuXprBR1vYKoRQ==
-----END CERTIFICATE-----
