Certificate:
    Data:
        Version: 3 (0x2)
        Serial Number: 188900966400014 (0xabcdef00000e)
    Signature Algorithm: sha256WithRSAEncryption
        Issuer: ST=KA, C=IN, CN=ThreeCA2048_server/emailAddress=ThreeCA@test_ca.com, O=CITRIX
        Validity
            Not Before: May 12 23:48:56 2017 GMT
            Not After : May 10 23:48:56 2027 GMT
        Subject: ST=KA, C=IN, CN=Server4096_sha256_server/emailAddress=Server@test_ca.com, O=CITRIX
        Subject Public Key Info:
            Public Key Algorithm: rsaEncryption
                Public-Key: (4096 bit)
                Modulus:
                    00:f3:10:2e:78:33:c9:04:e5:9c:97:bb:7a:d2:05:
                    11:63:c9:55:7d:ec:80:bb:34:c2:44:97:40:cf:7b:
                    ee:e7:68:1c:81:ad:78:5f:06:1f:9d:23:23:95:ba:
                    31:bc:6b:46:24:2d:36:73:14:e0:6a:3a:9d:62:a2:
                    62:3a:5b:2b:f1:71:44:f2:8c:6d:64:a0:e6:41:c6:
                    54:0b:8d:ee:53:a7:a0:ad:60:82:9c:06:81:23:51:
                    ce:c7:f3:c0:0c:c1:45:e9:43:c1:54:a5:06:cf:7b:
                    d7:8e:ce:b7:98:6c:88:4b:a3:3e:c3:b9:72:1e:05:
                    47:c5:50:ae:03:6d:63:3b:fe:18:c7:d3:43:c8:8a:
                    85:a5:f6:60:ce:69:99:8c:5e:8f:08:4a:24:cf:e8:
                    3b:bc:7c:81:60:3d:b9:99:33:70:f3:55:07:d0:1a:
                    73:f7:90:c7:45:47:e2:16:0a:bd:b6:58:30:78:c5:
                    e8:d2:d8:c2:fc:50:64:69:3b:51:32:b0:bc:ca:31:
                    09:71:49:c7:e8:a7:87:03:0f:4b:46:23:52:de:b1:
                    93:b4:0a:f0:a4:8d:94:e3:65:e0:9f:37:cc:f4:88:
                    d8:58:7c:e3:7e:dc:0a:76:bf:94:3a:56:84:b4:a2:
                    d6:21:1d:4d:5f:52:5b:92:b2:d1:7d:3e:38:53:91:
                    4d:b4:af:a1:ed:98:64:8f:33:cb:0c:f0:27:e7:5f:
                    da:29:8a:5d:0a:1b:69:13:c2:45:3b:03:31:9b:b8:
                    90:b9:04:a9:df:66:25:f5:1b:e8:1e:bc:d7:36:c9:
                    9d:e0:20:4d:08:26:f1:b0:55:bc:64:38:0d:8d:58:
                    00:54:2e:64:69:29:e2:b4:ec:b6:b2:40:f4:c6:3f:
                    40:98:8c:f5:5c:86:98:45:1e:fa:f3:a5:f7:ca:b4:
                    92:22:2e:3d:b8:7b:12:5b:19:66:bf:17:34:05:b7:
                    26:fc:09:99:e4:2c:cb:07:df:e0:c2:09:2e:ff:14:
                    9c:ab:dd:c7:bc:32:b7:25:84:4d:77:a1:37:5d:ad:
                    24:17:6a:90:28:d0:25:be:59:49:82:02:33:34:72:
                    d5:02:c7:6d:fa:95:04:5b:68:64:cb:c8:6a:0e:66:
                    9e:5e:00:3d:2e:13:71:12:67:42:19:f0:a4:c5:f9:
                    ea:94:4a:a4:de:09:4e:ce:b2:1b:db:3f:cc:c9:d3:
                    44:f7:1f:62:a4:5b:e1:52:2f:2e:f7:a8:24:e3:05:
                    79:b8:c3:e8:7f:ea:b5:c2:d8:11:6f:e3:8f:1e:c3:
                    0a:71:49:22:d2:3a:60:52:12:b6:a4:90:cb:4f:03:
                    76:cd:10:d5:c9:63:e3:b2:54:4c:49:12:c4:9b:d5:
                    ef:44:db
                Exponent: 65537 (0x10001)
        X509v3 extensions:
            Netscape Cert Type: 
                SSL Server
            X509v3 Key Usage: 
                Digital Signature, Non Repudiation, Key Encipherment
            X509v3 Subject Alternative Name: 
                DNS:altname-1.myca.com, DNS:altname-2.myca.com, DNS:altname-3.myca.com, DNS:altname-4.myca.com, email:mail-1@myca.com, email:mail-2@myca.com
            X509v3 Subject Key Identifier: 
                4F:41:70:68:70:40:E6:88:8C:05:6D:18:5D:9E:3C:46:7F:A2:A9:42
            X509v3 Authority Key Identifier: 
                keyid:70:7B:AF:2A:71:97:38:0A:09:6D:D4:91:13:F8:34:61:C1:EC:15:D7
                DirName:/ST=KA/C=IN/CN=TwoCA1024_server/emailAddress=TwoCA@test_ca.com/O=CITRIX
                serial:11:22:33:44:55

    Signature Algorithm: sha256WithRSAEncryption
         d2:c5:4b:72:f9:8f:86:08:df:d6:28:ac:c8:b1:2c:84:97:91:
         9e:3e:83:04:c3:79:ac:51:69:7e:37:4c:b4:0b:e6:3a:2f:ed:
         f5:ee:01:f4:7e:2e:ec:fb:d5:de:5a:3d:f0:9f:0b:9f:5b:1e:
         df:ce:0d:ff:37:73:4f:6c:53:a2:44:3e:1d:eb:a8:82:a8:b0:
         96:8b:10:05:cd:a1:39:e8:26:aa:0b:7d:54:87:e9:38:f2:23:
         4f:d7:99:18:81:19:cc:30:0b:c7:72:6a:ff:b4:b0:64:c0:b2:
         08:31:3c:f9:f1:39:10:4f:e3:da:98:ef:ba:f1:06:e6:b4:30:
         79:0e:cb:80:87:88:3e:7f:a1:e9:4c:1d:a1:e7:70:12:61:ef:
         52:d5:70:b2:10:9e:ed:86:24:96:de:b8:d2:8d:15:a2:cc:78:
         6e:42:b7:2e:d9:69:91:fa:c6:c2:9b:31:62:56:95:0e:77:33:
         5c:7c:f3:06:69:85:6a:4e:c7:f9:75:61:33:87:3c:17:6d:c8:
         db:6b:eb:04:87:53:ce:5d:c1:b7:b0:4f:16:8c:37:bf:83:30:
         01:45:c6:5e:42:0f:d6:49:bd:18:cc:2b:1c:53:13:20:5b:a2:
         7c:60:32:d4:9e:f8:81:6a:5e:df:71:0d:f6:05:19:65:09:39:
         2d:62:89:5a
-----BEGIN CERTIFICATE-----
MIIFuTCCBKGgAwIBAgIHAKvN7wAADjANBgkqhkiG9w0BAQsFADBsMQswCQYDVQQI
EwJLQTELMAkGA1UEBhMCSU4xGzAZBgNVBAMUElRocmVlQ0EyMDQ4X3NlcnZlcjEi
MCAGCSqGSIb3DQEJARYTVGhyZWVDQUB0ZXN0X2NhLmNvbTEPMA0GA1UEChMGQ0lU
UklYMB4XDTE3MDUxMjIzNDg1NloXDTI3MDUxMDIzNDg1NlowcTELMAkGA1UECBMC
S0ExCzAJBgNVBAYTAklOMSEwHwYDVQQDFBhTZXJ2ZXI0MDk2X3NoYTI1Nl9zZXJ2
ZXIxITAfBgkqhkiG9w0BCQEWElNlcnZlckB0ZXN0X2NhLmNvbTEPMA0GA1UEChMG
Q0lUUklYMIICIjANBgkqhkiG9w0BAQEFAAOCAg8AMIICCgKCAgEA8xAueDPJBOWc
l7t60gURY8lVfeyAuzTCRJdAz3vu52gcga14XwYfnSMjlboxvGtGJC02cxTgajqd
YqJiOlsr8XFE8oxtZKDmQcZUC43uU6egrWCCnAaBI1HOx/PADMFF6UPBVKUGz3vX
js63mGyIS6M+w7lyHgVHxVCuA21jO/4Yx9NDyIqFpfZgzmmZjF6PCEokz+g7vHyB
YD25mTNw81UH0Bpz95DHRUfiFgq9tlgweMXo0tjC/FBkaTtRMrC8yjEJcUnH6KeH
Aw9LRiNS3rGTtArwpI2U42XgnzfM9IjYWHzjftwKdr+UOlaEtKLWIR1NX1JbkrLR
fT44U5FNtK+h7ZhkjzPLDPAn51/aKYpdChtpE8JFOwMxm7iQuQSp32Yl9RvoHrzX
Nsmd4CBNCCbxsFW8ZDgNjVgAVC5kaSnitOy2skD0xj9AmIz1XIaYRR7686X3yrSS
Ii49uHsSWxlmvxc0Bbcm/AmZ5CzLB9/gwgku/xScq93HvDK3JYRNd6E3Xa0kF2qQ
KNAlvllJggIzNHLVAsdt+pUEW2hky8hqDmaeXgA9LhNxEmdCGfCkxfnqlEqk3glO
zrIb2z/MydNE9x9ipFvhUi8u96gk4wV5uMPof+q1wtgRb+OPHsMKcUki0jpgUhK2
pJDLTwN2zRDVyWPjslRMSRLEm9XvRNsCAwEAAaOCAVkwggFVMBEGCWCGSAGG+EIB
AQQEAwIGQDALBgNVHQ8EBAMCBeAwewYDVR0RBHQwcoISYWx0bmFtZS0xLm15Y2Eu
Y29tghJhbHRuYW1lLTIubXljYS5jb22CEmFsdG5hbWUtMy5teWNhLmNvbYISYWx0
bmFtZS00Lm15Y2EuY29tgQ9tYWlsLTFAbXljYS5jb22BD21haWwtMkBteWNhLmNv
bTAdBgNVHQ4EFgQUT0FwaHBA5oiMBW0YXZ48Rn+iqUIwgZYGA1UdIwSBjjCBi4AU
cHuvKnGXOAoJbdSRE/g0YcHsFdehbKRqMGgxCzAJBgNVBAgTAktBMQswCQYDVQQG
EwJJTjEZMBcGA1UEAxQQVHdvQ0ExMDI0X3NlcnZlcjEgMB4GCSqGSIb3DQEJARYR
VHdvQ0FAdGVzdF9jYS5jb20xDzANBgNVBAoTBkNJVFJJWIIFESIzRFUwDQYJKoZI
hvcNAQELBQADggEBANLFS3L5j4YI39YorMixLISXkZ4+gwTDeaxRaX43TLQL5jov
7fXuAfR+Luz71d5aPfCfC59bHt/ODf83c09sU6JEPh3rqIKosJaLEAXNoTnoJqoL
fVSH6TjyI0/XmRiBGcwwC8dyav+0sGTAsggxPPnxORBP49qY77rxBua0MHkOy4CH
iD5/oelMHaHncBJh71LVcLIQnu2GJJbeuNKNFaLMeG5Cty7ZaZH6xsKbMWJWlQ53
M1x88wZphWpOx/l1YTOHPBdtyNtr6wSHU85dwbewTxaMN7+DMAFFxl5CD9ZJvRjM
KxxTEyBbonxgMtSe+IFqXt9xDfYFGWUJOS1iiVo=
-----END CERTIFICATE-----
