Certificate:
    Data:
        Version: 3 (0x2)
        Serial Number: 188900966400012 (0xabcdef00000c)
    Signature Algorithm: sha384WithRSAEncryption
        Issuer: ST=KA, C=IN, CN=ThreeCA2048_server/emailAddress=ThreeCA@test_ca.com, O=CITRIX
        Validity
            Not Before: May 12 23:48:39 2017 GMT
            Not After : May 10 23:48:39 2027 GMT
        Subject: ST=KA, C=IN, CN=Server4096_sha384_server/emailAddress=Server@test_ca.com, O=CITRIX
        Subject Public Key Info:
            Public Key Algorithm: rsaEncryption
                Public-Key: (4096 bit)
                Modulus:
                    00:c5:98:52:cc:87:f0:3f:5d:70:55:1a:2a:f8:f5:
                    e4:6f:e6:0c:80:1d:62:bc:01:b0:dd:ce:79:dc:32:
                    3c:5d:7b:9b:28:4b:83:f7:13:4b:a7:cb:56:75:96:
                    ea:47:3f:65:8c:07:37:05:6d:ff:68:c2:0b:c3:c8:
                    87:fc:c0:35:8c:6b:f8:91:bc:0c:be:13:b2:b9:fb:
                    11:16:9a:ec:ef:9d:58:76:54:12:58:5c:88:28:e5:
                    8d:cb:63:27:9d:3d:51:fa:17:99:5d:89:54:64:99:
                    26:66:f8:02:95:a3:9a:7b:48:70:ab:40:dd:9a:f3:
                    2d:76:16:73:4f:6f:73:50:83:b7:43:1f:93:7d:01:
                    b6:da:8d:44:d4:f4:60:28:16:df:45:1c:f3:7f:7c:
                    9a:95:7e:93:8c:f7:64:a3:49:60:41:6a:21:64:d5:
                    e6:67:87:c1:b8:d4:72:44:e6:cc:67:95:fc:b9:ff:
                    4b:6b:ca:e6:bd:2d:ec:06:5e:51:31:dd:a9:c9:fa:
                    38:17:c6:20:8f:4e:d8:39:35:0f:39:cc:3c:30:76:
                    e2:89:7f:4c:77:38:80:46:19:4c:21:96:47:93:7d:
                    bd:b8:05:30:b0:af:e6:40:ab:48:9c:a5:f3:c1:b7:
                    af:a0:24:37:52:c4:2a:49:de:30:f0:20:e3:50:f8:
                    ca:da:5d:28:61:4f:16:6c:0d:a0:99:83:f8:7a:f0:
                    fe:6e:a3:11:c4:78:29:4b:65:54:0a:84:33:f3:f3:
                    7f:61:7d:29:e2:72:a4:24:47:4e:43:65:96:24:d3:
                    ba:09:98:84:2e:16:9a:d8:3f:9c:0b:26:d4:33:a8:
                    6c:55:f8:e5:39:92:54:cf:45:56:81:ff:70:b3:5b:
                    cc:7e:97:30:f6:96:3b:3b:32:d9:64:ba:01:4b:ce:
                    4b:b2:d6:bd:1e:f5:d1:b4:ff:76:87:b1:76:7f:38:
                    55:ff:bd:b4:d8:43:be:6f:d0:16:8e:a6:e3:f1:2b:
                    55:5c:70:4e:8f:02:0a:4a:1a:b1:0e:9d:bd:f5:9f:
                    79:af:c6:c2:2f:11:f1:83:85:b3:0e:14:f0:ad:08:
                    27:43:44:c9:99:69:7f:27:52:05:83:20:31:cb:61:
                    16:85:83:f4:68:e4:8a:86:7e:c4:44:5a:3a:8a:2f:
                    d5:98:40:25:d7:56:cf:42:2c:cc:64:7b:4e:fd:3a:
                    f4:8f:f5:f8:9b:32:7a:b3:51:a2:89:7a:60:89:86:
                    73:62:35:48:1d:06:a2:9a:09:e7:95:71:ca:bd:f0:
                    cc:71:e3:3f:fa:fa:74:dc:c8:fd:45:f8:58:99:1c:
                    31:cb:7d:77:6c:79:a3:ea:d6:3f:1d:02:f1:0e:ff:
                    85:6e:45
                Exponent: 65537 (0x10001)
        X509v3 extensions:
            Netscape Cert Type: 
                SSL Server
            X509v3 Key Usage: 
                Digital Signature, Non Repudiation, Key Encipherment
            X509v3 Subject Alternative Name: 
                DNS:altname-1.myca.com, DNS:altname-2.myca.com, DNS:altname-3.myca.com, DNS:altname-4.myca.com, email:mail-1@myca.com, email:mail-2@myca.com
            X509v3 Subject Key Identifier: 
                9C:54:D2:60:7E:EA:06:A8:18:FD:8D:4E:D8:60:18:0E:09:B0:59:BF
            X509v3 Authority Key Identifier: 
                keyid:70:7B:AF:2A:71:97:38:0A:09:6D:D4:91:13:F8:34:61:C1:EC:15:D7
                DirName:/ST=KA/C=IN/CN=TwoCA1024_server/emailAddress=TwoCA@test_ca.com/O=CITRIX
                serial:11:22:33:44:55

    Signature Algorithm: sha384WithRSAEncryption
         b8:cc:15:ff:98:7b:ae:99:61:cf:68:10:56:78:56:12:15:aa:
         6d:95:20:81:23:75:1c:01:65:02:4f:66:58:92:73:d7:2a:01:
         e4:25:d8:0e:83:79:58:9d:24:54:b0:3f:b2:1d:ee:1e:9a:f8:
         84:dd:61:a8:43:7d:13:8a:fd:91:48:24:bd:2a:fc:83:d3:34:
         74:fc:d3:21:ee:26:d5:c0:87:0a:d1:9a:11:48:fd:ce:4c:dd:
         0e:cd:c3:ea:8f:44:81:b9:9d:c7:c3:00:e4:36:69:0c:be:39:
         6f:ad:8e:35:eb:b0:a2:53:55:53:33:af:51:22:d7:40:8c:9d:
         9a:48:1d:65:1b:a7:48:1f:1f:58:8b:13:e3:e7:2e:a5:41:20:
         35:95:2b:0a:78:64:b3:32:51:af:0b:22:9a:5c:de:e8:c9:1c:
         53:72:d5:30:f2:65:75:6e:78:f0:04:59:a6:64:7d:b8:13:05:
         bf:1e:32:23:b6:17:d6:92:a9:e8:d3:85:9d:f9:ff:e1:05:6a:
         77:e2:a5:d5:47:f9:2f:7f:b6:6f:61:c8:51:0a:43:53:0f:22:
         c5:7f:44:a5:36:fe:5e:85:d2:96:51:cf:bb:64:25:89:24:2c:
         cc:1a:24:63:65:65:18:f1:be:b2:b3:b1:cd:96:d5:b4:78:c7:
         51:aa:24:3a
-----BEGIN CERTIFICATE-----
MIIFuTCCBKGgAwIBAgIHAKvN7wAADDANBgkqhkiG9w0BAQwFADBsMQswCQYDVQQI
EwJLQTELMAkGA1UEBhMCSU4xGzAZBgNVBAMUElRocmVlQ0EyMDQ4X3NlcnZlcjEi
MCAGCSqGSIb3DQEJARYTVGhyZWVDQUB0ZXN0X2NhLmNvbTEPMA0GA1UEChMGQ0lU
UklYMB4XDTE3MDUxMjIzNDgzOVoXDTI3MDUxMDIzNDgzOVowcTELMAkGA1UECBMC
S0ExCzAJBgNVBAYTAklOMSEwHwYDVQQDFBhTZXJ2ZXI0MDk2X3NoYTM4NF9zZXJ2
ZXIxITAfBgkqhkiG9w0BCQEWElNlcnZlckB0ZXN0X2NhLmNvbTEPMA0GA1UEChMG
Q0lUUklYMIICIjANBgkqhkiG9w0BAQEFAAOCAg8AMIICCgKCAgEAxZhSzIfwP11w
VRoq+PXkb+YMgB1ivAGw3c553DI8XXubKEuD9xNLp8tWdZbqRz9ljAc3BW3/aMIL
w8iH/MA1jGv4kbwMvhOyufsRFprs751YdlQSWFyIKOWNy2MnnT1R+heZXYlUZJkm
ZvgClaOae0hwq0DdmvMtdhZzT29zUIO3Qx+TfQG22o1E1PRgKBbfRRzzf3yalX6T
jPdko0lgQWohZNXmZ4fBuNRyRObMZ5X8uf9La8rmvS3sBl5RMd2pyfo4F8Ygj07Y
OTUPOcw8MHbiiX9MdziARhlMIZZHk329uAUwsK/mQKtInKXzwbevoCQ3UsQqSd4w
8CDjUPjK2l0oYU8WbA2gmYP4evD+bqMRxHgpS2VUCoQz8/N/YX0p4nKkJEdOQ2WW
JNO6CZiELhaa2D+cCybUM6hsVfjlOZJUz0VWgf9ws1vMfpcw9pY7OzLZZLoBS85L
sta9HvXRtP92h7F2fzhV/7202EO+b9AWjqbj8StVXHBOjwIKShqxDp299Z95r8bC
LxHxg4WzDhTwrQgnQ0TJmWl/J1IFgyAxy2EWhYP0aOSKhn7ERFo6ii/VmEAl11bP
QizMZHtO/Tr0j/X4mzJ6s1GiiXpgiYZzYjVIHQaimgnnlXHKvfDMceM/+vp03Mj9
RfhYmRwxy313bHmj6tY/HQLxDv+FbkUCAwEAAaOCAVkwggFVMBEGCWCGSAGG+EIB
AQQEAwIGQDALBgNVHQ8EBAMCBeAwewYDVR0RBHQwcoISYWx0bmFtZS0xLm15Y2Eu
Y29tghJhbHRuYW1lLTIubXljYS5jb22CEmFsdG5hbWUtMy5teWNhLmNvbYISYWx0
bmFtZS00Lm15Y2EuY29tgQ9tYWlsLTFAbXljYS5jb22BD21haWwtMkBteWNhLmNv
bTAdBgNVHQ4EFgQUnFTSYH7qBqgY/Y1O2GAYDgmwWb8wgZYGA1UdIwSBjjCBi4AU
cHuvKnGXOAoJbdSRE/g0YcHsFdehbKRqMGgxCzAJBgNVBAgTAktBMQswCQYDVQQG
EwJJTjEZMBcGA1UEAxQQVHdvQ0ExMDI0X3NlcnZlcjEgMB4GCSqGSIb3DQEJARYR
VHdvQ0FAdGVzdF9jYS5jb20xDzANBgNVBAoTBkNJVFJJWIIFESIzRFUwDQYJKoZI
hvcNAQEMBQADggEBALjMFf+Ye66ZYc9oEFZ4VhIVqm2VIIEjdRwBZQJPZliSc9cq
AeQl2A6DeVidJFSwP7Id7h6a+ITdYahDfROK/ZFIJL0q/IPTNHT80yHuJtXAhwrR
mhFI/c5M3Q7Nw+qPRIG5ncfDAOQ2aQy+OW+tjjXrsKJTVVMzr1Ei10CMnZpIHWUb
p0gfH1iLE+PnLqVBIDWVKwp4ZLMyUa8LIppc3ujJHFNy1TDyZXVuePAEWaZkfbgT
Bb8eMiO2F9aSqejThZ35/+EFanfipdVH+S9/tm9hyFEKQ1MPIsV/RKU2/l6F0pZR
z7tkJYkkLMwaJGNlZRjxvrKzsc2W1bR4x1GqJDo=
-----END CERTIFICATE-----
