Certificate:
    Data:
        Version: 3 (0x2)
        Serial Number: 188900966400013 (0xabcdef00000d)
    Signature Algorithm: sha1WithRSAEncryption
        Issuer: ST=KA, C=IN, CN=ThreeCA2048_server/emailAddress=ThreeCA@test_ca.com, O=CITRIX
        Validity
            Not Before: May 12 23:48:48 2017 GMT
            Not After : May 10 23:48:48 2027 GMT
        Subject: ST=KA, C=IN, CN=Server4096_sha1_server/emailAddress=Server@test_ca.com, O=CITRIX
        Subject Public Key Info:
            Public Key Algorithm: rsaEncryption
                Public-Key: (4096 bit)
                Modulus:
                    00:f0:03:df:7a:60:33:99:c2:d6:17:6a:6b:4d:a9:
                    8e:24:92:90:47:50:49:03:5f:43:63:5e:db:79:96:
                    60:82:8a:98:3e:c9:a4:b7:a9:67:f5:99:20:25:c2:
                    f6:69:76:f4:b3:34:83:6f:e5:19:74:6a:66:9f:95:
                    07:95:72:23:fe:18:dd:68:a9:d4:c6:95:16:56:72:
                    75:db:2b:87:84:7b:24:dc:aa:5f:1f:ce:dc:88:65:
                    26:92:88:3b:12:fa:d8:b8:bd:5c:c7:59:86:c2:7a:
                    4d:35:a7:11:5d:5a:a2:28:80:cd:92:a2:95:c6:e8:
                    b5:0f:67:63:0b:1a:4f:c5:aa:b4:58:f7:10:6e:53:
                    ce:37:4e:82:81:bc:73:b6:05:3f:ce:33:e5:fc:fb:
                    c1:5e:f5:68:3e:29:14:ef:e6:a2:fe:86:7a:01:df:
                    49:b1:31:55:14:ab:6b:67:76:53:16:f8:4a:bb:3f:
                    85:25:c2:ff:09:ad:13:a6:5a:08:77:e4:f9:10:f6:
                    73:1a:50:a5:66:83:70:d6:b4:1a:ac:93:50:68:02:
                    0d:ba:84:5a:f8:2b:31:da:c6:a7:28:79:5c:62:e1:
                    be:c7:24:3a:42:88:71:b6:ba:7a:25:ec:fb:1f:61:
                    d9:ca:57:16:5a:45:10:d7:14:9e:5e:50:40:e3:40:
                    53:a8:cb:25:1b:87:ab:7d:67:ec:42:de:27:4b:e7:
                    a8:28:65:f6:66:18:b8:9e:b2:65:c3:76:a1:a0:e9:
                    97:ca:d8:02:04:8c:23:cb:4a:6f:00:86:c2:ac:f1:
                    f7:0b:be:4b:d2:aa:9a:57:96:75:36:e5:0b:16:ef:
                    19:fd:63:92:f4:36:85:de:d7:23:f5:9e:d8:47:80:
                    b0:e0:bd:14:27:52:21:e2:6d:d0:e0:74:df:fe:fd:
                    e4:45:46:3a:36:f1:cf:c3:8f:fa:f4:5d:af:40:f7:
                    52:c0:5e:af:5a:72:18:ed:bb:0a:d6:bc:cb:63:82:
                    aa:b4:9d:66:c6:df:ce:e3:18:f8:35:ad:39:0d:1b:
                    9e:29:4c:98:ca:0d:5c:8d:e9:d1:cc:c5:ec:bc:c6:
                    a8:a8:67:4a:e4:11:4b:ae:02:f0:5a:eb:d2:53:1d:
                    8e:e5:24:a7:2c:30:fd:82:cd:61:68:9a:db:4d:0d:
                    65:a3:fb:db:57:d7:20:df:fe:2d:5d:32:0a:7e:ef:
                    f9:d6:89:e3:81:6f:2d:27:08:7a:6e:a3:fa:44:67:
                    bc:79:f6:4a:7e:28:14:6a:86:52:ee:0c:0a:9b:46:
                    24:50:95:67:aa:8a:82:2b:68:f6:b3:b5:55:d6:38:
                    d9:46:d3:5a:cc:3e:ba:10:1c:80:24:e9:07:e8:9f:
                    91:0e:f7
                Exponent: 65537 (0x10001)
        X509v3 extensions:
            Netscape Cert Type: 
                SSL Server
            X509v3 Key Usage: 
                Digital Signature, Non Repudiation, Key Encipherment
            X509v3 Subject Alternative Name: 
                DNS:altname-1.myca.com, DNS:altname-2.myca.com, DNS:altname-3.myca.com, DNS:altname-4.myca.com, email:mail-1@myca.com, email:mail-2@myca.com
            X509v3 Subject Key Identifier: 
                CA:83:5D:52:C4:45:BF:D3:B1:80:A4:13:D8:8E:D6:7F:AB:38:CF:F4
            X509v3 Authority Key Identifier: 
                keyid:70:7B:AF:2A:71:97:38:0A:09:6D:D4:91:13:F8:34:61:C1:EC:15:D7
                DirName:/ST=KA/C=IN/CN=TwoCA1024_server/emailAddress=TwoCA@test_ca.com/O=CITRIX
                serial:11:22:33:44:55

    Signature Algorithm: sha1WithRSAEncryption
         ae:83:90:d8:6d:3b:65:aa:1d:a8:67:d5:01:13:7f:40:2f:0c:
         4e:cf:95:4f:f6:45:bd:65:b8:a0:c5:ab:1e:41:9b:95:d4:30:
         f9:37:f6:70:e9:50:ca:11:41:5e:56:13:c0:d6:66:fd:48:38:
         ef:12:43:9c:77:e8:34:61:8e:1c:f4:8f:05:ab:bd:1a:1d:e9:
         ad:56:b8:88:d0:e3:a2:d4:45:ba:a7:d4:67:a9:9f:14:38:f6:
         b6:bf:8b:2d:99:de:72:76:06:1c:0d:09:b8:77:34:c5:47:75:
         b2:a8:5c:38:76:b7:bf:e0:be:04:66:e5:70:3d:5d:fd:b9:49:
         9e:41:51:d3:62:e5:bc:75:06:5f:7e:c8:17:b3:48:61:52:9f:
         4c:49:2b:e2:4c:04:c0:c5:af:9e:3f:1d:4e:3b:8d:d3:b4:53:
         ff:8a:2d:80:d6:4d:81:4e:b6:fa:47:1c:ae:99:2c:1b:52:92:
         96:a0:fe:32:cf:6b:9f:6e:34:00:55:92:d7:ee:61:c1:00:52:
         d7:d9:8d:01:17:c4:97:bc:e9:b9:cc:d1:76:4c:21:51:89:6d:
         d3:c5:6a:9a:db:a3:ec:86:c2:ba:54:8e:47:7d:76:a0:2a:fa:
         5c:4b:42:f9:4a:98:9c:31:5f:d5:ea:f5:d0:86:b4:ed:3c:2b:
         05:a4:02:c8
-----BEGIN CERTIFICATE-----
MIIFtzCCBJ+gAwIBAgIHAKvN7wAADTANBgkqhkiG9w0BAQUFADBsMQswCQYDVQQI
EwJLQTELMAkGA1UEBhMCSU4xGzAZBgNVBAMUElRocmVlQ0EyMDQ4X3NlcnZlcjEi
MCAGCSqGSIb3DQEJARYTVGhyZWVDQUB0ZXN0X2NhLmNvbTEPMA0GA1UEChMGQ0lU
UklYMB4XDTE3MDUxMjIzNDg0OFoXDTI3MDUxMDIzNDg0OFowbzELMAkGA1UECBMC
S0ExCzAJBgNVBAYTAklOMR8wHQYDVQQDFBZTZXJ2ZXI0MDk2X3NoYTFfc2VydmVy
MSEwHwYJKoZIhvcNAQkBFhJTZXJ2ZXJAdGVzdF9jYS5jb20xDzANBgNVBAoTBkNJ
VFJJWDCCAiIwDQYJKoZIhvcNAQEBBQADggIPADCCAgoCggIBAPAD33pgM5nC1hdq
a02pjiSSkEdQSQNfQ2Ne23mWYIKKmD7JpLepZ/WZICXC9ml29LM0g2/lGXRqZp+V
B5VyI/4Y3Wip1MaVFlZyddsrh4R7JNyqXx/O3IhlJpKIOxL62Li9XMdZhsJ6TTWn
EV1aoiiAzZKilcbotQ9nYwsaT8WqtFj3EG5TzjdOgoG8c7YFP84z5fz7wV71aD4p
FO/mov6GegHfSbExVRSra2d2Uxb4Srs/hSXC/wmtE6ZaCHfk+RD2cxpQpWaDcNa0
GqyTUGgCDbqEWvgrMdrGpyh5XGLhvsckOkKIcba6eiXs+x9h2cpXFlpFENcUnl5Q
QONAU6jLJRuHq31n7ELeJ0vnqChl9mYYuJ6yZcN2oaDpl8rYAgSMI8tKbwCGwqzx
9wu+S9KqmleWdTblCxbvGf1jkvQ2hd7XI/We2EeAsOC9FCdSIeJt0OB03/795EVG
Ojbxz8OP+vRdr0D3UsBer1pyGO27Cta8y2OCqrSdZsbfzuMY+DWtOQ0bnilMmMoN
XI3p0czF7LzGqKhnSuQRS64C8Frr0lMdjuUkpyww/YLNYWia200NZaP721fXIN/+
LV0yCn7v+daJ44FvLScIem6j+kRnvHn2Sn4oFGqGUu4MCptGJFCVZ6qKgito9rO1
VdY42UbTWsw+uhAcgCTpB+ifkQ73AgMBAAGjggFZMIIBVTARBglghkgBhvhCAQEE
BAMCBkAwCwYDVR0PBAQDAgXgMHsGA1UdEQR0MHKCEmFsdG5hbWUtMS5teWNhLmNv
bYISYWx0bmFtZS0yLm15Y2EuY29tghJhbHRuYW1lLTMubXljYS5jb22CEmFsdG5h
bWUtNC5teWNhLmNvbYEPbWFpbC0xQG15Y2EuY29tgQ9tYWlsLTJAbXljYS5jb20w
HQYDVR0OBBYEFMqDXVLERb/TsYCkE9iO1n+rOM/0MIGWBgNVHSMEgY4wgYuAFHB7
rypxlzgKCW3UkRP4NGHB7BXXoWykajBoMQswCQYDVQQIEwJLQTELMAkGA1UEBhMC
SU4xGTAXBgNVBAMUEFR3b0NBMTAyNF9zZXJ2ZXIxIDAeBgkqhkiG9w0BCQEWEVR3
b0NBQHRlc3RfY2EuY29tMQ8wDQYDVQQKEwZDSVRSSViCBREiM0RVMA0GCSqGSIb3
DQEBBQUAA4IBAQCug5DYbTtlqh2oZ9UBE39ALwxOz5VP9kW9ZbigxaseQZuV1DD5
N/Zw6VDKEUFeVhPA1mb9SDjvEkOcd+g0YY4c9I8Fq70aHemtVriI0OOi1EW6p9Rn
qZ8UOPa2v4stmd5ydgYcDQm4dzTFR3WyqFw4dre/4L4EZuVwPV39uUmeQVHTYuW8
dQZffsgXs0hhUp9MSSviTATAxa+ePx1OO43TtFP/ii2A1k2BTrb6RxyumSwbUpKW
oP4yz2ufbjQAVZLX7mHBAFLX2Y0BF8SXvOm5zNF2TCFRiW3TxWqa26PshsK6VI5H
fXagKvpcS0L5SpicMV/V6vXQhrTtPCsFpALI
-----END CERTIFICATE-----
