Certificate:
    Data:
        Version: 3 (0x2)
        Serial Number: 188900966400028 (0xabcdef00001c)
sha256WithRSAEncryption
        Issuer: ST=KA, C=IN, CN=ThreeCA2048_server/emailAddress=ThreeCA@test_ca.com, O=CITRIX
        Validity
            Not Before: Oct 23 17:26:43 2017 GMT
            Not After : Oct 21 17:26:43 2027 GMT
        Subject: ST=KA, C=IN, CN=two1024_sha256_server/emailAddress=two@test_ca.com, O=CITRIX
        Subject Public Key Info:
            Public Key Algorithm: rsaEncryption
                Public-Key: (1024 bit)
                Modulus:
                    00:d5:96:88:29:17:58:64:0c:9d:3d:53:0d:91:94:
                    ed:d2:b4:6e:c6:bd:d8:7a:68:c3:d2:c4:6a:b1:02:
                    e4:0a:f9:e2:a3:ef:38:c0:a5:e7:78:52:93:53:e3:
                    55:0a:de:40:aa:d8:0a:8f:88:36:ec:9b:b6:4d:d7:
                    12:5b:4b:90:69:a6:e1:42:63:14:96:b1:2c:c1:2c:
                    9a:9a:22:e8:1a:47:b1:67:ed:82:7c:99:25:4a:02:
                    03:d2:93:b2:59:27:15:a6:0c:51:4a:db:df:e6:76:
                    78:d6:21:2a:0f:49:3c:9e:34:87:e2:ec:4b:c9:db:
                    d5:eb:6f:7f:73:ac:c0:a2:5b
                Exponent: 65537 (0x10001)
        X509v3 extensions:
            Netscape Cert Type: 
                SSL Server
            X509v3 Key Usage: 
                Digital Signature, Non Repudiation, Key Encipherment
            X509v3 Subject Alternative Name: 
                DNS:altname-1.myca.com, DNS:altname-2.myca.com, DNS:altname-3.myca.com, DNS:altname-4.myca.com, email:mail-1@myca.com, email:mail-2@myca.com
            X509v3 Subject Key Identifier: 
                AB:DD:0A:DE:E3:7A:58:37:DF:BF:78:C2:AC:CD:70:B5:DE:14:DB:EE
            X509v3 Authority Key Identifier: 
                keyid:70:7B:AF:2A:71:97:38:0A:09:6D:D4:91:13:F8:34:61:C1:EC:15:D7
                DirName:/ST=KA/C=IN/CN=TwoCA1024_server/emailAddress=TwoCA@test_ca.com/O=CITRIX
                serial:11:22:33:44:55

sha256WithRSAEncryption
         35:9c:b0:d6:d9:13:af:a1:6d:e6:5e:58:ca:4a:1c:80:1a:d5:
         a8:fd:36:39:0f:32:ff:fc:2b:13:61:21:d0:01:b9:49:53:b3:
         6c:1a:56:e5:72:88:fa:c0:12:5f:33:18:07:5e:87:6a:e4:b0:
         e0:92:64:73:42:ef:1e:24:30:c7:74:ac:4e:c8:6e:1e:77:0d:
         99:50:50:50:86:bc:70:fc:72:67:c5:5a:e2:4b:57:8a:fa:44:
         43:2a:e9:73:cd:f8:2d:0f:fd:ec:ca:f4:e3:0a:3e:28:0e:aa:
         9c:56:3e:65:8b:79:b0:52:97:f7:6a:43:2f:e9:a3:34:23:d7:
         eb:a9:15:2c:31:10:6b:be:1d:27:c9:14:72:14:c8:e1:68:1e:
         4f:1b:f9:50:96:a7:c5:5f:12:dd:45:23:10:be:ab:74:f5:01:
         63:e0:f1:fc:64:85:52:90:6e:1c:c6:1b:4d:62:a4:72:b3:22:
         b6:b8:7a:c2:f1:09:39:83:4f:2b:42:9c:e4:1f:98:7f:77:77:
         40:18:86:b0:0a:73:10:96:08:d3:2c:0f:85:b0:f8:5e:51:43:
         43:7d:08:ba:e7:4c:3c:8f:ba:8e:4a:81:21:53:80:44:95:e3:
         0d:fd:dd:6a:c3:15:7f:fe:45:24:7c:4d:e5:22:09:97:4a:de:
         a3:9e:0a:7f
-----BEGIN CERTIFICATE-----
MIIELzCCAxegAwIBAgIHAKvN7wAAHDANBgkqhkiG9w0BAQsFADBsMQswCQYDVQQI
EwJLQTELMAkGA1UEBhMCSU4xGzAZBgNVBAMUElRocmVlQ0EyMDQ4X3NlcnZlcjEi
MCAGCSqGSIb3DQEJARYTVGhyZWVDQUB0ZXN0X2NhLmNvbTEPMA0GA1UEChMGQ0lU
UklYMB4XDTE3MTAyMzE3MjY0M1oXDTI3MTAyMTE3MjY0M1owazELMAkGA1UECBMC
S0ExCzAJBgNVBAYTAklOMR4wHAYDVQQDFBV0d28xMDI0X3NoYTI1Nl9zZXJ2ZXIx
HjAcBgkqhkiG9w0BCQEWD3R3b0B0ZXN0X2NhLmNvbTEPMA0GA1UEChMGQ0lUUklY
MIGfMA0GCSqGSIb3DQEBAQUAA4GNADCBiQKBgQDVlogpF1hkDJ09Uw2RlO3StG7G
vdh6aMPSxGqxAuQK+eKj7zjAped4UpNT41UK3kCq2AqPiDbsm7ZN1xJbS5BppuFC
YxSWsSzBLJqaIugaR7Fn7YJ8mSVKAgPSk7JZJxWmDFFK29/mdnjWISoPSTyeNIfi
7EvJ29Xrb39zrMCiWwIDAQABo4IBWTCCAVUwEQYJYIZIAYb4QgEBBAQDAgZAMAsG
A1UdDwQEAwIF4DB7BgNVHREEdDByghJhbHRuYW1lLTEubXljYS5jb22CEmFsdG5h
bWUtMi5teWNhLmNvbYISYWx0bmFtZS0zLm15Y2EuY29tghJhbHRuYW1lLTQubXlj
YS5jb22BD21haWwtMUBteWNhLmNvbYEPbWFpbC0yQG15Y2EuY29tMB0GA1UdDgQW
BBSr3Qre43pYN9+/eMKszXC13hTb7jCBlgYDVR0jBIGOMIGLgBRwe68qcZc4Cglt
1JET+DRhwewV16FspGowaDELMAkGA1UECBMCS0ExCzAJBgNVBAYTAklOMRkwFwYD
VQQDFBBUd29DQTEwMjRfc2VydmVyMSAwHgYJKoZIhvcNAQkBFhFUd29DQUB0ZXN0
X2NhLmNvbTEPMA0GA1UEChMGQ0lUUklYggURIjNEVTANBgkqhkiG9w0BAQsFAAOC
AQEANZyw1tkTr6Ft5l5YykocgBrVqP02OQ8y//wrE2Eh0AG5SVOzbBpW5XKI+sAS
XzMYB16HauSw4JJkc0LvHiQwx3SsTshuHncNmVBQUIa8cPxyZ8Va4ktXivpEQyrp
c834LQ/97Mr04wo+KA6qnFY+ZYt5sFKX92pDL+mjNCPX66kVLDEQa74dJ8kUchTI
4WgeTxv5UJanxV8S3UUjEL6rdPUBY+Dx/GSFUpBuHMYbTWKkcrMitrh6wvEJOYNP
K0Kc5B+Yf3d3QBiGsApzEJYI0ywPhbD4XlFDQ30IuudMPI+6jkqBIVOARJXjDf3d
asMVf/5FJHxN5SIJl0reo54Kfw==
-----END CERTIFICATE-----
