Certificate:
    Data:
        Version: 3 (0x2)
        Serial Number: 11042563100209 (0xa0b0c0d0e31)
    Signature Algorithm: sha256WithRSAEncryption
        Issuer: CN=DELHICA_CA, C=IN, O=CITRIX, OU=ANG, ST=KA/emailAddress=DELHICA_CA@DELHICA_mail.com
        Validity
            Not Before: Jul  8 04:34:30 2016 GMT
            Not After : Jul  6 04:34:30 2026 GMT
        Subject: ST=KA, C=IN, CN=135_DELHICA_server/emailAddress=135_DELHICA@test_ca.com, O=CITRIX
        Subject Public Key Info:
            Public Key Algorithm: rsaEncryption
                Public-Key: (2048 bit)
                Modulus:
                    00:bf:b3:a0:ba:f3:4e:6c:de:00:6b:c8:04:03:9d:
                    0c:e3:9f:be:6d:da:9e:c9:46:46:f7:56:ad:1e:70:
                    12:6d:be:ed:ed:99:11:e8:ba:fa:67:43:39:12:10:
                    6d:5e:2b:b6:a9:44:2e:f9:f5:36:7c:05:a2:90:bc:
                    08:01:46:46:71:69:53:4f:15:a4:77:20:4f:0f:79:
                    8a:b2:f3:a8:bf:3a:ad:b7:2a:25:75:5c:3d:d9:04:
                    16:9b:ef:fe:d0:a6:26:03:4e:c7:45:4c:41:57:24:
                    ec:8d:39:79:b2:b8:60:2d:22:26:58:74:72:d4:59:
                    1b:ba:40:72:46:5d:38:81:32:24:24:ca:13:75:d8:
                    2f:4b:1f:11:ce:b9:f7:2b:ed:68:e9:11:51:5f:70:
                    44:64:2d:8c:2d:67:50:dc:20:5a:48:d9:0a:73:c2:
                    c2:20:6c:37:5c:82:d0:e4:45:0f:64:db:c5:26:ad:
                    fc:e1:a7:1f:5e:a2:28:aa:70:c2:8b:81:90:58:b7:
                    a4:20:63:4e:22:36:40:4d:94:ff:6a:56:ea:21:85:
                    f6:78:64:00:84:3f:a2:ac:24:de:dd:1a:33:d5:c2:
                    7d:4c:59:a8:55:1f:44:d0:82:f6:84:8d:a5:75:8f:
                    30:f3:16:41:52:dc:a5:7a:cd:56:75:91:ec:31:45:
                    8f:2b
                Exponent: 65537 (0x10001)
        X509v3 extensions:
            Netscape Cert Type: 
                SSL Server
            X509v3 Subject Key Identifier: 
                D8:37:E6:7D:C3:A3:B4:21:EE:7E:73:92:A4:6E:CB:E8:2B:06:85:BA
            X509v3 Authority Key Identifier: 
                keyid:D7:37:52:01:DC:2C:7A:57:85:CA:30:39:30:F0:D5:5D:5A:31:03:02
                DirName:/CN=DELHICA_CA/C=IN/O=CITRIX/OU=ANG/ST=KA/emailAddress=DELHICA_CA@DELHICA_mail.com
                serial:94:59:DC:51:4E:A5:13:27

            Authority Information Access: 
                OCSP - URI:http://172.20.20.1/responderpath

    Signature Algorithm: sha256WithRSAEncryption
         d7:04:8f:ea:c3:92:20:4a:b6:9a:2a:ef:cf:9c:ed:7c:04:ec:
         11:aa:9b:15:85:dd:81:53:d3:57:29:98:9c:d8:03:f0:91:a2:
         dd:23:6a:ba:f3:07:0b:17:66:51:52:55:bc:9d:a9:59:f3:e4:
         cf:12:4f:52:43:68:fb:57:00:b3:cf:83:56:49:60:09:35:65:
         5d:42:13:a7:4e:3b:0d:a2:8a:f2:fe:38:3b:1e:8c:9f:54:df:
         39:ab:0d:49:46:16:14:86:b5:66:5c:bd:55:42:73:26:25:31:
         26:74:7d:ee:84:13:c7:25:b3:ce:81:a9:59:18:92:64:f2:64:
         d4:7e:2f:8f:e1:bf:d4:77:ce:94:8a:80:0f:8a:e9:64:0d:65:
         ca:e8:19:e8:37:68:34:97:13:3e:48:83:62:16:99:6e:6c:0a:
         2d:aa:bc:13:c1:43:32:87:b6:da:88:ad:20:14:b3:73:34:7c:
         1d:76:4d:cb:a8:87:31:b3:7b:07:29:c1:6a:20:eb:52:20:00:
         16:0d:54:13:0e:19:01:d1:a6:62:4a:5b:4c:b5:2f:49:bc:f1:
         a3:6d:40:c7:5b:fb:3c:3a:fe:6c:14:18:d1:ae:07:7c:f2:fb:
         20:4c:6a:43:7a:f1:44:d5:f2:e2:e1:47:7e:df:a8:1f:92:81:
         fe:80:e1:20
-----BEGIN CERTIFICATE-----
MIIEjzCCA3egAwIBAgIGCgsMDQ4xMA0GCSqGSIb3DQEBCwUAMHoxEzARBgNVBAMU
CkRFTEhJQ0FfQ0ExCzAJBgNVBAYTAklOMQ8wDQYDVQQKEwZDSVRSSVgxDDAKBgNV
BAsTA0FORzELMAkGA1UECBMCS0ExKjAoBgkqhkiG9w0BCQEWG0RFTEhJQ0FfQ0FA
REVMSElDQV9tYWlsLmNvbTAeFw0xNjA3MDgwNDM0MzBaFw0yNjA3MDYwNDM0MzBa
MHAxCzAJBgNVBAgTAktBMQswCQYDVQQGEwJJTjEbMBkGA1UEAxQSMTM1X0RFTEhJ
Q0Ffc2VydmVyMSYwJAYJKoZIhvcNAQkBFhcxMzVfREVMSElDQUB0ZXN0X2NhLmNv
bTEPMA0GA1UEChMGQ0lUUklYMIIBIjANBgkqhkiG9w0BAQEFAAOCAQ8AMIIBCgKC
AQEAv7OguvNObN4Aa8gEA50M45++bdqeyUZG91atHnASbb7t7ZkR6Lr6Z0M5EhBt
Xiu2qUQu+fU2fAWikLwIAUZGcWlTTxWkdyBPD3mKsvOovzqttyoldVw92QQWm+/+
0KYmA07HRUxBVyTsjTl5srhgLSImWHRy1FkbukByRl04gTIkJMoTddgvSx8Rzrn3
K+1o6RFRX3BEZC2MLWdQ3CBaSNkKc8LCIGw3XILQ5EUPZNvFJq384acfXqIoqnDC
i4GQWLekIGNOIjZATZT/albqIYX2eGQAhD+irCTe3Roz1cJ9TFmoVR9E0IL2hI2l
dY8w8xZBUtyles1WdZHsMUWPKwIDAQABo4IBIzCCAR8wEQYJYIZIAYb4QgEBBAQD
AgZAMB0GA1UdDgQWBBTYN+Z9w6O0Ie5+c5KkbsvoKwaFujCBrAYDVR0jBIGkMIGh
gBTXN1IB3Cx6V4XKMDkw8NVdWjEDAqF+pHwwejETMBEGA1UEAxQKREVMSElDQV9D
QTELMAkGA1UEBhMCSU4xDzANBgNVBAoTBkNJVFJJWDEMMAoGA1UECxMDQU5HMQsw
CQYDVQQIEwJLQTEqMCgGCSqGSIb3DQEJARYbREVMSElDQV9DQUBERUxISUNBX21h
aWwuY29tggkAlFncUU6lEycwPAYIKwYBBQUHAQEEMDAuMCwGCCsGAQUFBzABhiBo
dHRwOi8vMTcyLjIwLjIwLjEvcmVzcG9uZGVycGF0aDANBgkqhkiG9w0BAQsFAAOC
AQEA1wSP6sOSIEq2mirvz5ztfATsEaqbFYXdgVPTVymYnNgD8JGi3SNquvMHCxdm
UVJVvJ2pWfPkzxJPUkNo+1cAs8+DVklgCTVlXUITp047DaKK8v44Ox6Mn1TfOasN
SUYWFIa1Zly9VUJzJiUxJnR97oQTxyWzzoGpWRiSZPJk1H4vj+G/1HfOlIqAD4rp
ZA1lyugZ6DdoNJcTPkiDYhaZbmwKLaq8E8FDMoe22oitIBSzczR8HXZNy6iHMbN7
BynBaiDrUiAAFg1UEw4ZAdGmYkpbTLUvSbzxo21Ax1v7PDr+bBQY0a4HfPL7IExq
Q3rxRNXy4uFHft+oH5KB/oDhIA==
-----END CERTIFICATE-----
