Certificate:
    Data:
        Version: 3 (0x2)
        Serial Number: 11042563100235 (0xa0b0c0d0e4b)
    Signature Algorithm: sha256WithRSAEncryption
        Issuer: CN=DELHICA_CA, C=IN, O=CITRIX, OU=ANG, ST=KA/emailAddress=DELHICA_CA@DELHICA_mail.com
        Validity
            Not Before: Aug 23 10:50:42 2017 GMT
            Not After : Aug 21 10:50:42 2027 GMT
        Subject: ST=KA, C=IN, CN=delhi_21_client/emailAddress=delhi_21@test_ca.com, O=CITRIX
        Subject Public Key Info:
            Public Key Algorithm: rsaEncryption
                Public-Key: (2048 bit)
                Modulus:
                    00:b8:d7:32:9c:29:9d:5c:d6:49:b8:d3:69:2e:34:
                    e7:cc:e7:b3:71:61:75:1b:7f:0a:31:77:10:b0:7a:
                    ce:af:23:52:5d:1b:ee:11:c8:d9:25:a9:09:f7:4d:
                    f2:7b:86:99:81:0c:06:80:1e:ea:23:62:4e:e6:69:
                    9a:57:74:76:c3:09:4d:97:2a:0d:eb:0e:f2:c0:1a:
                    e3:2c:28:b3:5e:fd:d2:ca:48:57:0f:91:2d:43:fe:
                    ec:74:b1:c1:07:ee:5d:81:59:41:17:f0:60:b3:21:
                    82:d4:91:ca:19:a4:86:ef:47:7a:10:a5:40:2d:1e:
                    2b:73:fb:b1:a1:67:00:0a:e4:2c:bf:b8:2d:cb:11:
                    c3:01:bc:71:42:52:f1:58:d0:2a:55:ae:52:de:ab:
                    2d:0c:b2:ee:e7:44:d9:40:5d:ce:3b:d2:d5:12:aa:
                    7e:23:51:35:57:3a:98:87:8c:df:da:f3:ea:7a:f4:
                    ab:81:9a:0e:67:88:3c:ca:a4:2a:5b:a2:cf:20:d0:
                    f8:2a:8f:ba:d8:f8:42:cd:a7:2a:1d:f4:8f:e4:aa:
                    40:a8:3a:65:58:33:9d:f4:58:17:66:c0:88:6b:d6:
                    7d:32:d3:b3:b8:95:6d:34:0f:54:d1:f1:1c:74:f0:
                    45:69:96:ef:0e:04:ea:92:9c:1b:0b:89:53:25:ce:
                    f5:3d
                Exponent: 65537 (0x10001)
        X509v3 extensions:
            Netscape Cert Type: 
                SSL Server
            X509v3 Subject Key Identifier: 
                C3:1E:97:C6:7E:86:43:3E:B8:81:DC:9A:B6:70:1C:FF:FB:4D:E2:D5
            X509v3 Authority Key Identifier: 
                keyid:D7:37:52:01:DC:2C:7A:57:85:CA:30:39:30:F0:D5:5D:5A:31:03:02
                DirName:/CN=DELHICA_CA/C=IN/O=CITRIX/OU=ANG/ST=KA/emailAddress=DELHICA_CA@DELHICA_mail.com
                serial:94:59:DC:51:4E:A5:13:27

            Authority Information Access: 
                OCSP - URI:http://172.20.20.1/responderpath

    Signature Algorithm: sha256WithRSAEncryption
         b9:2c:d9:bd:9f:1e:16:e3:66:b7:f7:89:9b:a8:3b:c3:aa:64:
         c4:5d:0d:0d:be:fb:be:b4:eb:e3:df:7b:00:1e:f8:de:a0:6d:
         1a:4a:f5:cc:3e:67:61:de:85:aa:50:cd:0c:7f:f1:4b:46:11:
         2b:26:5a:ef:74:0d:47:f2:e6:8b:0a:88:8f:38:ce:94:4f:1d:
         74:41:b3:78:f3:76:7e:e0:fe:e8:20:f2:9f:5a:87:09:f7:94:
         11:61:fb:d6:1e:95:8e:aa:dd:e8:ca:12:83:1c:23:c2:d8:06:
         c8:20:04:c3:29:25:79:d9:9c:5d:f5:b4:01:6e:65:5b:15:80:
         58:ac:b9:02:5e:df:8a:e7:57:28:9e:9e:d0:f9:e2:c7:90:4d:
         80:af:41:4d:5a:b8:a3:b8:ef:f2:ff:c6:95:77:c0:3d:0e:d5:
         25:33:73:4d:f9:9f:b6:7d:80:bc:c1:b7:98:4c:cb:df:87:e1:
         3c:1d:26:ae:b6:08:9d:67:08:02:49:50:8b:47:47:53:14:1d:
         b9:d2:a9:a0:fa:9f:33:59:f0:b8:1d:b8:13:1b:f6:31:4e:0e:
         e7:b8:c3:56:d9:34:76:58:0d:f3:d1:02:d9:78:c5:c5:e5:4d:
         d9:e4:03:f9:6d:e8:b3:ce:7b:ad:f4:f4:b7:ff:dd:30:0e:27:
         b1:9c:39:3e
-----BEGIN CERTIFICATE-----
MIIEiTCCA3GgAwIBAgIGCgsMDQ5LMA0GCSqGSIb3DQEBCwUAMHoxEzARBgNVBAMU
CkRFTEhJQ0FfQ0ExCzAJBgNVBAYTAklOMQ8wDQYDVQQKEwZDSVRSSVgxDDAKBgNV
BAsTA0FORzELMAkGA1UECBMCS0ExKjAoBgkqhkiG9w0BCQEWG0RFTEhJQ0FfQ0FA
REVMSElDQV9tYWlsLmNvbTAeFw0xNzA4MjMxMDUwNDJaFw0yNzA4MjExMDUwNDJa
MGoxCzAJBgNVBAgTAktBMQswCQYDVQQGEwJJTjEYMBYGA1UEAxQPZGVsaGlfMjFf
Y2xpZW50MSMwIQYJKoZIhvcNAQkBFhRkZWxoaV8yMUB0ZXN0X2NhLmNvbTEPMA0G
A1UEChMGQ0lUUklYMIIBIjANBgkqhkiG9w0BAQEFAAOCAQ8AMIIBCgKCAQEAuNcy
nCmdXNZJuNNpLjTnzOezcWF1G38KMXcQsHrOryNSXRvuEcjZJakJ903ye4aZgQwG
gB7qI2JO5mmaV3R2wwlNlyoN6w7ywBrjLCizXv3SykhXD5EtQ/7sdLHBB+5dgVlB
F/BgsyGC1JHKGaSG70d6EKVALR4rc/uxoWcACuQsv7gtyxHDAbxxQlLxWNAqVa5S
3qstDLLu50TZQF3OO9LVEqp+I1E1VzqYh4zf2vPqevSrgZoOZ4g8yqQqW6LPIND4
Ko+62PhCzacqHfSP5KpAqDplWDOd9FgXZsCIa9Z9MtOzuJVtNA9U0fEcdPBFaZbv
DgTqkpwbC4lTJc71PQIDAQABo4IBIzCCAR8wEQYJYIZIAYb4QgEBBAQDAgZAMB0G
A1UdDgQWBBTDHpfGfoZDPriB3Jq2cBz/+03i1TCBrAYDVR0jBIGkMIGhgBTXN1IB
3Cx6V4XKMDkw8NVdWjEDAqF+pHwwejETMBEGA1UEAxQKREVMSElDQV9DQTELMAkG
A1UEBhMCSU4xDzANBgNVBAoTBkNJVFJJWDEMMAoGA1UECxMDQU5HMQswCQYDVQQI
EwJLQTEqMCgGCSqGSIb3DQEJARYbREVMSElDQV9DQUBERUxISUNBX21haWwuY29t
ggkAlFncUU6lEycwPAYIKwYBBQUHAQEEMDAuMCwGCCsGAQUFBzABhiBodHRwOi8v
MTcyLjIwLjIwLjEvcmVzcG9uZGVycGF0aDANBgkqhkiG9w0BAQsFAAOCAQEAuSzZ
vZ8eFuNmt/eJm6g7w6pkxF0NDb77vrTr4997AB743qBtGkr1zD5nYd6FqlDNDH/x
S0YRKyZa73QNR/LmiwqIjzjOlE8ddEGzePN2fuD+6CDyn1qHCfeUEWH71h6Vjqrd
6MoSgxwjwtgGyCAEwykledmcXfW0AW5lWxWAWKy5Al7fiudXKJ6e0Pnix5BNgK9B
TVq4o7jv8v/GlXfAPQ7VJTNzTfmftn2AvMG3mEzL34fhPB0mrrYInWcIAklQi0dH
UxQdudKpoPqfM1nwuB24Exv2MU4O57jDVtk0dlgN89EC2XjFxeVN2eQD+W3os857
rfT0t//dMA4nsZw5Pg==
-----END CERTIFICATE-----
