Certificate:
    Data:
        Version: 3 (0x2)
        Serial Number: 11042563100236 (0xa0b0c0d0e4c)
    Signature Algorithm: sha256WithRSAEncryption
        Issuer: CN=DELHICA_CA, C=IN, O=CITRIX, OU=ANG, ST=KA/emailAddress=DELHICA_CA@DELHICA_mail.com
        Validity
            Not Before: Aug 23 10:50:43 2017 GMT
            Not After : Aug 21 10:50:43 2027 GMT
        Subject: ST=KA, C=IN, CN=delhi_22_client/emailAddress=delhi_22@test_ca.com, O=CITRIX
        Subject Public Key Info:
            Public Key Algorithm: rsaEncryption
                Public-Key: (2048 bit)
                Modulus:
                    00:ba:6e:b9:44:29:75:ea:8d:53:99:27:65:a9:11:
                    26:8e:b6:1f:35:a3:5d:00:1d:a5:fd:d1:bd:a8:2d:
                    4c:30:65:65:05:55:6f:63:40:00:9d:58:3e:50:66:
                    08:41:77:b8:e7:3e:79:ee:bd:18:bd:65:90:6f:fb:
                    ef:7d:df:ce:96:e8:2d:18:da:92:73:fc:68:50:9f:
                    d3:a3:78:ea:af:12:4d:3d:6f:e9:7e:31:63:c3:ed:
                    23:52:a4:b6:47:e9:05:51:e7:26:ef:ad:3d:ab:1e:
                    8c:9d:1a:d8:14:12:05:f1:76:69:b0:ec:d0:bf:16:
                    59:f1:14:7a:89:da:50:2c:32:6e:00:30:35:b3:dc:
                    38:1e:e6:81:64:28:af:88:ae:b4:c4:95:92:84:9c:
                    1a:60:2b:a5:d1:50:37:81:5b:11:7b:22:9f:1d:67:
                    7d:03:b2:16:f2:03:5d:c8:b2:50:fa:61:a4:08:4f:
                    10:2c:72:a7:b9:1a:4f:1e:c6:53:53:8d:f9:fb:fc:
                    41:c9:bd:5e:c2:78:71:5b:de:77:0f:e5:a5:4f:14:
                    6d:34:66:d6:76:6a:90:d1:c1:d5:73:55:fd:1e:43:
                    56:68:fe:36:be:1c:0f:3d:e6:2e:c2:f9:9b:0f:87:
                    7b:0b:ff:de:f5:69:df:20:da:21:08:4b:e9:ae:ab:
                    1a:f1
                Exponent: 65537 (0x10001)
        X509v3 extensions:
            Netscape Cert Type: 
                SSL Server
            X509v3 Subject Key Identifier: 
                6F:F9:1C:12:28:22:9E:81:F0:C3:80:7B:BB:8E:88:36:91:CF:5D:6D
            X509v3 Authority Key Identifier: 
                keyid:D7:37:52:01:DC:2C:7A:57:85:CA:30:39:30:F0:D5:5D:5A:31:03:02
                DirName:/CN=DELHICA_CA/C=IN/O=CITRIX/OU=ANG/ST=KA/emailAddress=DELHICA_CA@DELHICA_mail.com
                serial:94:59:DC:51:4E:A5:13:27

            Authority Information Access: 
                OCSP - URI:http://172.20.20.1/responderpath

    Signature Algorithm: sha256WithRSAEncryption
         04:57:d4:64:af:06:2f:e5:93:94:6f:b0:d3:53:f9:21:20:84:
         f2:e2:29:e9:ad:1a:48:79:93:97:61:24:36:b4:f1:9e:53:80:
         b6:db:b4:23:d7:a6:c8:cd:ba:7e:36:d8:da:a7:5a:fe:ed:b2:
         29:d9:3c:1b:af:d0:69:b5:fc:77:f6:c0:0c:ce:36:42:dc:09:
         40:cb:e8:58:dd:30:ff:3e:60:c2:d8:2a:9f:73:b1:f9:e1:f0:
         49:50:3d:48:4d:10:bf:bd:ff:47:b9:2f:6c:09:bb:ed:a4:79:
         a9:68:3c:b8:59:53:2c:5b:e9:3a:4e:cb:59:0f:c1:dc:2d:48:
         39:f2:d8:af:f9:6e:68:1e:63:47:5a:01:bb:85:6b:7d:18:34:
         0e:fa:8b:bd:50:b8:cc:ce:74:b9:25:58:11:03:f4:88:92:6b:
         6b:d5:86:9c:54:e6:73:de:c6:12:63:60:83:68:a4:84:f9:23:
         8b:93:ad:1b:f2:ea:49:05:4b:80:56:6a:26:f9:e2:3c:54:a6:
         6e:7b:bb:96:76:28:aa:d1:cc:e4:93:7b:59:42:02:4d:ab:18:
         81:33:cc:bd:16:f5:cc:22:e5:51:66:36:b1:04:28:4e:6a:a8:
         60:cc:4b:c9:ab:a1:69:26:dc:52:79:09:c3:7a:e3:ec:60:e5:
         70:26:01:4e
-----BEGIN CERTIFICATE-----
MIIEiTCCA3GgAwIBAgIGCgsMDQ5MMA0GCSqGSIb3DQEBCwUAMHoxEzARBgNVBAMU
CkRFTEhJQ0FfQ0ExCzAJBgNVBAYTAklOMQ8wDQYDVQQKEwZDSVRSSVgxDDAKBgNV
BAsTA0FORzELMAkGA1UECBMCS0ExKjAoBgkqhkiG9w0BCQEWG0RFTEhJQ0FfQ0FA
REVMSElDQV9tYWlsLmNvbTAeFw0xNzA4MjMxMDUwNDNaFw0yNzA4MjExMDUwNDNa
MGoxCzAJBgNVBAgTAktBMQswCQYDVQQGEwJJTjEYMBYGA1UEAxQPZGVsaGlfMjJf
Y2xpZW50MSMwIQYJKoZIhvcNAQkBFhRkZWxoaV8yMkB0ZXN0X2NhLmNvbTEPMA0G
A1UEChMGQ0lUUklYMIIBIjANBgkqhkiG9w0BAQEFAAOCAQ8AMIIBCgKCAQEAum65
RCl16o1TmSdlqREmjrYfNaNdAB2l/dG9qC1MMGVlBVVvY0AAnVg+UGYIQXe45z55
7r0YvWWQb/vvfd/OlugtGNqSc/xoUJ/To3jqrxJNPW/pfjFjw+0jUqS2R+kFUecm
7609qx6MnRrYFBIF8XZpsOzQvxZZ8RR6idpQLDJuADA1s9w4HuaBZCiviK60xJWS
hJwaYCul0VA3gVsReyKfHWd9A7IW8gNdyLJQ+mGkCE8QLHKnuRpPHsZTU435+/xB
yb1ewnhxW953D+WlTxRtNGbWdmqQ0cHVc1X9HkNWaP42vhwPPeYuwvmbD4d7C//e
9WnfINohCEvprqsa8QIDAQABo4IBIzCCAR8wEQYJYIZIAYb4QgEBBAQDAgZAMB0G
A1UdDgQWBBRv+RwSKCKegfDDgHu7jog2kc9dbTCBrAYDVR0jBIGkMIGhgBTXN1IB
3Cx6V4XKMDkw8NVdWjEDAqF+pHwwejETMBEGA1UEAxQKREVMSElDQV9DQTELMAkG
A1UEBhMCSU4xDzANBgNVBAoTBkNJVFJJWDEMMAoGA1UECxMDQU5HMQswCQYDVQQI
EwJLQTEqMCgGCSqGSIb3DQEJARYbREVMSElDQV9DQUBERUxISUNBX21haWwuY29t
ggkAlFncUU6lEycwPAYIKwYBBQUHAQEEMDAuMCwGCCsGAQUFBzABhiBodHRwOi8v
MTcyLjIwLjIwLjEvcmVzcG9uZGVycGF0aDANBgkqhkiG9w0BAQsFAAOCAQEABFfU
ZK8GL+WTlG+w01P5ISCE8uIp6a0aSHmTl2EkNrTxnlOAttu0I9emyM26fjbY2qda
/u2yKdk8G6/QabX8d/bADM42QtwJQMvoWN0w/z5gwtgqn3Ox+eHwSVA9SE0Qv73/
R7kvbAm77aR5qWg8uFlTLFvpOk7LWQ/B3C1IOfLYr/luaB5jR1oBu4VrfRg0DvqL
vVC4zM50uSVYEQP0iJJra9WGnFTmc97GEmNgg2ikhPkji5OtG/LqSQVLgFZqJvni
PFSmbnu7lnYoqtHM5JN7WUICTasYgTPMvRb1zCLlUWY2sQQoTmqoYMxLyauhaSbc
UnkJw3rj7GDlcCYBTg==
-----END CERTIFICATE-----
