Certificate:
    Data:
        Version: 3 (0x2)
        Serial Number: 11042563100206 (0xa0b0c0d0e2e)
    Signature Algorithm: sha256WithRSAEncryption
        Issuer: CN=DELHICA_CA, C=IN, O=CITRIX, OU=ANG, ST=KA/emailAddress=DELHICA_CA@DELHICA_mail.com
        Validity
            Not Before: Jul  8 04:34:30 2016 GMT
            Not After : Jul  6 04:34:30 2026 GMT
        Subject: ST=KA, C=IN, CN=132_DELHICA_server/emailAddress=132_DELHICA@test_ca.com, O=CITRIX
        Subject Public Key Info:
            Public Key Algorithm: rsaEncryption
                Public-Key: (2048 bit)
                Modulus:
                    00:a1:d6:a1:21:d7:d8:2e:c8:7b:7b:df:16:d0:4b:
                    e0:8f:66:f3:bf:78:ab:27:db:9e:29:70:50:07:20:
                    08:ea:c0:52:83:3c:f3:3f:91:e2:b6:ac:20:a9:db:
                    c8:59:31:07:0b:2c:71:02:5a:5d:fb:bd:c8:8f:65:
                    f2:ee:c9:09:5c:53:b6:0f:1e:c7:0e:6c:b1:59:ef:
                    52:39:fb:40:0a:d7:38:f5:b7:ba:89:30:fb:31:8e:
                    ee:a8:e1:b4:5f:43:f0:5b:a4:02:7c:2b:2d:c7:9f:
                    ee:5d:34:60:b0:00:e0:4b:72:85:5f:87:34:de:a6:
                    2e:06:9e:cf:dc:56:a4:dc:c7:41:43:4f:cf:5f:0a:
                    6f:2e:eb:7d:0e:37:bb:7a:bb:d3:67:f2:6c:1f:b6:
                    2d:d7:a1:02:98:6d:0c:21:ec:f8:2c:c2:68:77:56:
                    af:17:5c:20:1f:bc:ba:95:55:a1:9b:55:5f:aa:1a:
                    ea:4b:27:26:a4:b7:ec:0e:9d:d3:86:8a:a8:2e:74:
                    ca:b1:01:a6:10:3f:b9:cd:cd:e2:56:2d:14:7a:fe:
                    e4:60:5c:60:ad:e9:d2:c0:9e:ea:17:db:a7:15:74:
                    c7:c9:a9:73:7f:af:05:c5:02:e5:03:85:df:97:23:
                    62:25:bb:d9:60:42:b7:c6:dc:41:3c:ef:6c:c7:66:
                    36:43
                Exponent: 65537 (0x10001)
        X509v3 extensions:
            Netscape Cert Type: 
                SSL Server
            X509v3 Subject Key Identifier: 
                91:25:AB:79:58:1D:5D:3D:3A:B5:3A:BD:D1:43:4B:C8:33:2A:98:2F
            X509v3 Authority Key Identifier: 
                keyid:D7:37:52:01:DC:2C:7A:57:85:CA:30:39:30:F0:D5:5D:5A:31:03:02
                DirName:/CN=DELHICA_CA/C=IN/O=CITRIX/OU=ANG/ST=KA/emailAddress=DELHICA_CA@DELHICA_mail.com
                serial:94:59:DC:51:4E:A5:13:27

            Authority Information Access: 
                OCSP - URI:http://172.20.20.1/responderpath

    Signature Algorithm: sha256WithRSAEncryption
         69:48:0d:83:8e:bb:14:5c:26:c1:11:6d:1b:5f:e6:00:08:ac:
         92:95:5c:cc:8b:b8:c5:c1:3e:a0:64:61:ab:24:61:e5:76:70:
         8e:a6:b1:9c:9b:68:c8:7e:0d:9d:85:dc:b8:84:47:92:13:16:
         42:ed:ce:a5:b3:7b:bc:1a:73:81:b3:86:8d:d7:92:06:54:79:
         c0:df:8f:e0:7c:39:82:0a:35:54:f6:3c:01:8d:c4:46:e0:72:
         27:63:20:74:75:08:fa:ed:dc:f8:c1:30:5d:bb:9c:15:02:e3:
         26:a0:e0:4f:c2:de:fb:78:c6:3f:41:63:be:8f:2e:b5:ef:fe:
         13:80:c0:e5:48:90:fb:68:bb:da:96:3e:4a:d4:42:38:45:0a:
         fa:75:4b:cb:4a:04:85:f8:31:61:05:b9:91:84:e4:38:ce:6f:
         38:62:53:c9:fb:ed:e5:18:29:f7:98:5c:55:f8:ab:a2:16:78:
         16:98:79:2b:41:f3:75:a8:d3:a4:71:93:76:84:6d:b8:e7:0e:
         59:7c:b4:dd:f3:f7:0f:a3:ad:ae:39:ad:b7:21:c0:a1:36:66:
         03:10:ec:4b:5d:b4:d2:02:a9:51:32:61:25:1f:54:27:28:60:
         d6:b5:78:a2:01:d7:82:e8:cf:28:f8:2f:33:db:22:7e:5c:39:
         a5:2d:a1:82
-----BEGIN CERTIFICATE-----
MIIEjzCCA3egAwIBAgIGCgsMDQ4uMA0GCSqGSIb3DQEBCwUAMHoxEzARBgNVBAMU
CkRFTEhJQ0FfQ0ExCzAJBgNVBAYTAklOMQ8wDQYDVQQKEwZDSVRSSVgxDDAKBgNV
BAsTA0FORzELMAkGA1UECBMCS0ExKjAoBgkqhkiG9w0BCQEWG0RFTEhJQ0FfQ0FA
REVMSElDQV9tYWlsLmNvbTAeFw0xNjA3MDgwNDM0MzBaFw0yNjA3MDYwNDM0MzBa
MHAxCzAJBgNVBAgTAktBMQswCQYDVQQGEwJJTjEbMBkGA1UEAxQSMTMyX0RFTEhJ
Q0Ffc2VydmVyMSYwJAYJKoZIhvcNAQkBFhcxMzJfREVMSElDQUB0ZXN0X2NhLmNv
bTEPMA0GA1UEChMGQ0lUUklYMIIBIjANBgkqhkiG9w0BAQEFAAOCAQ8AMIIBCgKC
AQEAodahIdfYLsh7e98W0Evgj2bzv3irJ9ueKXBQByAI6sBSgzzzP5HitqwgqdvI
WTEHCyxxAlpd+73Ij2Xy7skJXFO2Dx7HDmyxWe9SOftACtc49be6iTD7MY7uqOG0
X0PwW6QCfCstx5/uXTRgsADgS3KFX4c03qYuBp7P3Fak3MdBQ0/PXwpvLut9Dje7
ervTZ/JsH7Yt16ECmG0MIez4LMJod1avF1wgH7y6lVWhm1VfqhrqSycmpLfsDp3T
hoqoLnTKsQGmED+5zc3iVi0Uev7kYFxgrenSwJ7qF9unFXTHyalzf68FxQLlA4Xf
lyNiJbvZYEK3xtxBPO9sx2Y2QwIDAQABo4IBIzCCAR8wEQYJYIZIAYb4QgEBBAQD
AgZAMB0GA1UdDgQWBBSRJat5WB1dPTq1Or3RQ0vIMyqYLzCBrAYDVR0jBIGkMIGh
gBTXN1IB3Cx6V4XKMDkw8NVdWjEDAqF+pHwwejETMBEGA1UEAxQKREVMSElDQV9D
QTELMAkGA1UEBhMCSU4xDzANBgNVBAoTBkNJVFJJWDEMMAoGA1UECxMDQU5HMQsw
CQYDVQQIEwJLQTEqMCgGCSqGSIb3DQEJARYbREVMSElDQV9DQUBERUxISUNBX21h
aWwuY29tggkAlFncUU6lEycwPAYIKwYBBQUHAQEEMDAuMCwGCCsGAQUFBzABhiBo
dHRwOi8vMTcyLjIwLjIwLjEvcmVzcG9uZGVycGF0aDANBgkqhkiG9w0BAQsFAAOC
AQEAaUgNg467FFwmwRFtG1/mAAiskpVczIu4xcE+oGRhqyRh5XZwjqaxnJtoyH4N
nYXcuIRHkhMWQu3OpbN7vBpzgbOGjdeSBlR5wN+P4Hw5ggo1VPY8AY3ERuByJ2Mg
dHUI+u3c+MEwXbucFQLjJqDgT8Le+3jGP0Fjvo8ute/+E4DA5UiQ+2i72pY+StRC
OEUK+nVLy0oEhfgxYQW5kYTkOM5vOGJTyfvt5Rgp95hcVfirohZ4Fph5K0HzdajT
pHGTdoRtuOcOWXy03fP3D6OtrjmttyHAoTZmAxDsS1200gKpUTJhJR9UJyhg1rV4
ogHXgujPKPgvM9siflw5pS2hgg==
-----END CERTIFICATE-----
