Certificate:
    Data:
        Version: 3 (0x2)
        Serial Number: 11042563100259 (0xa0b0c0d0e63)
    Signature Algorithm: sha256WithRSAEncryption
        Issuer: CN=DELHICA_CA, C=IN, O=CITRIX, OU=ANG, ST=KA/emailAddress=DELHICA_CA@DELHICA_mail.com
        Validity
            Not Before: Aug 23 10:51:00 2017 GMT
            Not After : Aug 21 10:51:00 2027 GMT
        Subject: ST=KA, C=IN, CN=delhi_45_client/emailAddress=delhi_45@test_ca.com, O=CITRIX
        Subject Public Key Info:
            Public Key Algorithm: rsaEncryption
                Public-Key: (2048 bit)
                Modulus:
                    00:ba:f5:76:b4:8f:3e:73:ba:fc:8a:c6:9e:5f:62:
                    27:51:35:bb:96:fa:67:bc:9e:9b:63:6d:af:8a:e0:
                    d5:e9:59:0d:f6:9e:ef:d3:5b:f2:71:5b:ea:8b:42:
                    f1:a3:7f:e1:33:38:34:45:c9:db:a2:86:f1:59:7f:
                    f0:07:11:07:f0:ed:31:98:ff:49:52:dc:a9:fa:66:
                    1c:ef:70:52:37:0a:96:f1:ca:0a:15:83:8d:3d:65:
                    af:cb:ee:34:cd:79:b3:b1:b6:ce:07:0e:49:49:28:
                    7e:ce:4c:e4:9a:3c:c4:e3:5f:cc:b8:21:52:f1:ea:
                    ba:2b:8f:bd:33:a1:3b:e3:19:0c:7b:71:2f:39:6d:
                    32:c4:51:c7:56:f3:dc:0e:2a:38:ab:69:62:58:06:
                    25:26:3b:35:ae:4d:28:95:73:61:ed:0d:31:a1:45:
                    fb:b4:5d:d1:24:f7:0f:67:d0:34:96:97:3a:f3:0d:
                    41:d5:02:47:34:9f:10:42:68:2f:40:9c:0d:6d:af:
                    88:55:0c:5b:4e:78:0a:cd:04:00:18:a2:d8:a1:9d:
                    34:e0:8f:ec:26:4e:f4:24:37:6d:b7:e2:55:a3:de:
                    db:01:56:3a:6f:75:af:87:30:23:8b:12:e7:46:a3:
                    ef:32:70:ba:31:e8:71:00:7b:46:02:df:86:ce:db:
                    8b:a7
                Exponent: 65537 (0x10001)
        X509v3 extensions:
            Netscape Cert Type: 
                SSL Server
            X509v3 Subject Key Identifier: 
                7E:52:22:1B:30:FA:0E:D9:7C:71:CF:79:B0:80:0F:9F:00:3F:22:D2
            X509v3 Authority Key Identifier: 
                keyid:D7:37:52:01:DC:2C:7A:57:85:CA:30:39:30:F0:D5:5D:5A:31:03:02
                DirName:/CN=DELHICA_CA/C=IN/O=CITRIX/OU=ANG/ST=KA/emailAddress=DELHICA_CA@DELHICA_mail.com
                serial:94:59:DC:51:4E:A5:13:27

            Authority Information Access: 
                OCSP - URI:http://172.20.20.1/responderpath

    Signature Algorithm: sha256WithRSAEncryption
         12:07:09:de:71:16:c0:a0:22:99:30:ef:7f:16:77:6b:42:f9:
         60:41:3e:7b:e7:7d:97:39:51:20:3d:2b:bc:b2:98:6f:a1:15:
         9a:4b:28:cb:40:5c:f6:61:ef:a3:67:56:5f:09:a7:82:2b:5a:
         c9:5f:ef:93:8f:c3:29:15:25:c5:b2:e9:e0:12:56:31:f4:76:
         6c:f4:39:2b:11:f9:0c:20:dd:30:42:dc:a7:ab:fe:d6:e4:a2:
         0f:58:56:e1:df:05:6a:b2:16:a1:35:aa:d4:16:94:ce:be:b6:
         42:d4:df:35:35:be:cf:cc:6b:b6:d2:bd:52:22:f4:ae:5d:0f:
         08:c7:6c:36:98:d8:62:0d:ed:75:5c:25:1a:8e:cd:48:f8:1d:
         e6:98:88:c4:96:0a:e3:96:55:f4:9c:d8:18:fe:89:9d:a3:bc:
         91:54:f8:1b:a8:d2:a6:2e:97:e5:72:98:71:11:a0:8f:fc:95:
         55:45:e0:39:ec:a1:60:b1:82:e5:b5:37:05:73:9f:97:27:49:
         74:7e:38:8d:7e:83:fe:1d:e2:8a:b4:6c:42:4c:e2:38:8b:ca:
         23:6c:d2:e6:7a:2f:2d:44:01:ef:4c:e3:46:26:75:91:83:05:
         67:cf:43:f0:db:57:f4:64:dc:33:70:21:5b:76:00:91:82:2a:
         2c:a4:5d:28
-----BEGIN CERTIFICATE-----
MIIEiTCCA3GgAwIBAgIGCgsMDQ5jMA0GCSqGSIb3DQEBCwUAMHoxEzARBgNVBAMU
CkRFTEhJQ0FfQ0ExCzAJBgNVBAYTAklOMQ8wDQYDVQQKEwZDSVRSSVgxDDAKBgNV
BAsTA0FORzELMAkGA1UECBMCS0ExKjAoBgkqhkiG9w0BCQEWG0RFTEhJQ0FfQ0FA
REVMSElDQV9tYWlsLmNvbTAeFw0xNzA4MjMxMDUxMDBaFw0yNzA4MjExMDUxMDBa
MGoxCzAJBgNVBAgTAktBMQswCQYDVQQGEwJJTjEYMBYGA1UEAxQPZGVsaGlfNDVf
Y2xpZW50MSMwIQYJKoZIhvcNAQkBFhRkZWxoaV80NUB0ZXN0X2NhLmNvbTEPMA0G
A1UEChMGQ0lUUklYMIIBIjANBgkqhkiG9w0BAQEFAAOCAQ8AMIIBCgKCAQEAuvV2
tI8+c7r8isaeX2InUTW7lvpnvJ6bY22viuDV6VkN9p7v01vycVvqi0Lxo3/hMzg0
RcnboobxWX/wBxEH8O0xmP9JUtyp+mYc73BSNwqW8coKFYONPWWvy+40zXmzsbbO
Bw5JSSh+zkzkmjzE41/MuCFS8eq6K4+9M6E74xkMe3EvOW0yxFHHVvPcDio4q2li
WAYlJjs1rk0olXNh7Q0xoUX7tF3RJPcPZ9A0lpc68w1B1QJHNJ8QQmgvQJwNba+I
VQxbTngKzQQAGKLYoZ004I/sJk70JDdtt+JVo97bAVY6b3WvhzAjixLnRqPvMnC6
MehxAHtGAt+GztuLpwIDAQABo4IBIzCCAR8wEQYJYIZIAYb4QgEBBAQDAgZAMB0G
A1UdDgQWBBR+UiIbMPoO2Xxxz3mwgA+fAD8i0jCBrAYDVR0jBIGkMIGhgBTXN1IB
3Cx6V4XKMDkw8NVdWjEDAqF+pHwwejETMBEGA1UEAxQKREVMSElDQV9DQTELMAkG
A1UEBhMCSU4xDzANBgNVBAoTBkNJVFJJWDEMMAoGA1UECxMDQU5HMQswCQYDVQQI
EwJLQTEqMCgGCSqGSIb3DQEJARYbREVMSElDQV9DQUBERUxISUNBX21haWwuY29t
ggkAlFncUU6lEycwPAYIKwYBBQUHAQEEMDAuMCwGCCsGAQUFBzABhiBodHRwOi8v
MTcyLjIwLjIwLjEvcmVzcG9uZGVycGF0aDANBgkqhkiG9w0BAQsFAAOCAQEAEgcJ
3nEWwKAimTDvfxZ3a0L5YEE+e+d9lzlRID0rvLKYb6EVmksoy0Bc9mHvo2dWXwmn
gitayV/vk4/DKRUlxbLp4BJWMfR2bPQ5KxH5DCDdMELcp6v+1uSiD1hW4d8FarIW
oTWq1BaUzr62QtTfNTW+z8xrttK9UiL0rl0PCMdsNpjYYg3tdVwlGo7NSPgd5piI
xJYK45ZV9JzYGP6JnaO8kVT4G6jSpi6X5XKYcRGgj/yVVUXgOeyhYLGC5bU3BXOf
lydJdH44jX6D/h3iirRsQkziOIvKI2zS5novLUQB70zjRiZ1kYMFZ89D8NtX9GTc
M3AhW3YAkYIqLKRdKA==
-----END CERTIFICATE-----
