Certificate:
    Data:
        Version: 3 (0x2)
        Serial Number: 11042563100243 (0xa0b0c0d0e53)
    Signature Algorithm: sha256WithRSAEncryption
        Issuer: CN=DELHICA_CA, C=IN, O=CITRIX, OU=ANG, ST=KA/emailAddress=DELHICA_CA@DELHICA_mail.com
        Validity
            Not Before: Aug 23 10:50:47 2017 GMT
            Not After : Aug 21 10:50:47 2027 GMT
        Subject: ST=KA, C=IN, CN=delhi_29_client/emailAddress=delhi_29@test_ca.com, O=CITRIX
        Subject Public Key Info:
            Public Key Algorithm: rsaEncryption
                Public-Key: (2048 bit)
                Modulus:
                    00:ee:bd:47:5a:58:95:05:00:eb:f5:c8:76:61:60:
                    6d:73:f7:cd:58:40:c7:84:43:53:f3:8c:5c:ae:6c:
                    5b:69:9b:7a:6b:33:4a:c8:be:bc:f4:9a:f0:e0:2b:
                    48:2c:73:e7:dc:92:04:9f:a3:e7:81:26:52:cf:e3:
                    a6:57:e0:65:24:a9:15:8e:73:a0:01:26:b8:a9:4e:
                    99:20:bf:f9:1c:9e:42:7a:bf:ce:ea:89:c4:b9:c1:
                    ba:98:54:54:a6:0f:37:14:13:ca:ab:a8:82:ec:f2:
                    93:f3:00:3f:5a:71:bc:c9:f7:9b:89:e9:01:72:80:
                    97:84:38:ed:e2:8c:a6:32:16:dd:62:c1:1a:fd:0a:
                    3c:14:56:cb:bb:0d:e9:01:26:84:69:59:53:19:41:
                    c9:26:29:26:ae:f0:13:36:59:e7:2f:8c:b5:50:c2:
                    30:c8:dd:b9:d3:15:d7:fb:48:cb:2e:a6:3d:aa:30:
                    50:d3:49:3c:93:bd:f9:e9:03:89:e3:1a:b5:7c:68:
                    19:76:6a:d2:29:04:86:8b:f7:6a:17:d9:8d:e6:6e:
                    3a:f0:b2:d8:cc:95:ae:5a:e1:81:32:10:61:7d:91:
                    ec:36:cd:ba:b4:11:bc:ec:22:f2:85:28:f5:b1:f1:
                    eb:d1:17:03:95:61:b9:2e:23:35:51:8f:8b:00:6b:
                    6f:4d
                Exponent: 65537 (0x10001)
        X509v3 extensions:
            Netscape Cert Type: 
                SSL Server
            X509v3 Subject Key Identifier: 
                20:27:C7:81:EA:17:4C:4F:1D:95:D0:FF:26:FD:A6:36:6C:C9:43:F9
            X509v3 Authority Key Identifier: 
                keyid:D7:37:52:01:DC:2C:7A:57:85:CA:30:39:30:F0:D5:5D:5A:31:03:02
                DirName:/CN=DELHICA_CA/C=IN/O=CITRIX/OU=ANG/ST=KA/emailAddress=DELHICA_CA@DELHICA_mail.com
                serial:94:59:DC:51:4E:A5:13:27

            Authority Information Access: 
                OCSP - URI:http://172.20.20.1/responderpath

    Signature Algorithm: sha256WithRSAEncryption
         9e:f5:5c:f9:d2:68:86:d8:18:52:75:3c:a4:88:17:4c:37:26:
         55:1b:22:80:04:20:33:48:72:cb:b2:98:3f:9e:56:5e:4c:2a:
         49:25:00:7c:5a:b4:72:0c:5c:c0:49:1f:d0:5b:f4:df:68:5e:
         04:48:3d:3d:33:2a:57:5b:68:cd:88:e8:d4:3b:82:24:ec:4c:
         3d:70:e4:50:d6:cc:4a:a3:0d:13:a4:5d:25:9b:3f:b7:df:4e:
         cf:fa:8f:23:da:e6:8d:64:47:15:91:f2:d9:be:2a:d3:f7:08:
         34:88:d3:55:c0:64:7f:1f:8f:fb:c5:d5:69:c9:bf:c1:aa:b5:
         d7:ce:37:e5:b7:28:a5:b9:b9:ac:0e:82:2a:e6:e0:00:2d:89:
         e4:bb:57:d3:13:57:52:6b:18:69:3b:d2:9f:49:98:a1:d0:79:
         92:13:c4:f8:61:25:cb:b5:69:9a:8d:4e:a2:46:39:65:b4:88:
         96:db:ac:2f:3d:94:c5:3c:38:6b:0d:f0:9d:4c:02:74:48:2e:
         f7:6d:af:47:1e:96:3d:43:a4:ea:06:6a:e2:b0:a2:e2:eb:77:
         67:f8:89:26:74:27:2e:c9:d4:d4:91:4e:29:f7:b1:47:53:25:
         51:97:9b:5a:34:25:f7:25:64:44:9f:a9:4f:44:3b:ce:ad:d6:
         d9:08:04:df
-----BEGIN CERTIFICATE-----
MIIEiTCCA3GgAwIBAgIGCgsMDQ5TMA0GCSqGSIb3DQEBCwUAMHoxEzARBgNVBAMU
CkRFTEhJQ0FfQ0ExCzAJBgNVBAYTAklOMQ8wDQYDVQQKEwZDSVRSSVgxDDAKBgNV
BAsTA0FORzELMAkGA1UECBMCS0ExKjAoBgkqhkiG9w0BCQEWG0RFTEhJQ0FfQ0FA
REVMSElDQV9tYWlsLmNvbTAeFw0xNzA4MjMxMDUwNDdaFw0yNzA4MjExMDUwNDda
MGoxCzAJBgNVBAgTAktBMQswCQYDVQQGEwJJTjEYMBYGA1UEAxQPZGVsaGlfMjlf
Y2xpZW50MSMwIQYJKoZIhvcNAQkBFhRkZWxoaV8yOUB0ZXN0X2NhLmNvbTEPMA0G
A1UEChMGQ0lUUklYMIIBIjANBgkqhkiG9w0BAQEFAAOCAQ8AMIIBCgKCAQEA7r1H
WliVBQDr9ch2YWBtc/fNWEDHhENT84xcrmxbaZt6azNKyL689Jrw4CtILHPn3JIE
n6PngSZSz+OmV+BlJKkVjnOgASa4qU6ZIL/5HJ5Cer/O6onEucG6mFRUpg83FBPK
q6iC7PKT8wA/WnG8yfebiekBcoCXhDjt4oymMhbdYsEa/Qo8FFbLuw3pASaEaVlT
GUHJJikmrvATNlnnL4y1UMIwyN250xXX+0jLLqY9qjBQ00k8k7356QOJ4xq1fGgZ
dmrSKQSGi/dqF9mN5m468LLYzJWuWuGBMhBhfZHsNs26tBG87CLyhSj1sfHr0RcD
lWG5LiM1UY+LAGtvTQIDAQABo4IBIzCCAR8wEQYJYIZIAYb4QgEBBAQDAgZAMB0G
A1UdDgQWBBQgJ8eB6hdMTx2V0P8m/aY2bMlD+TCBrAYDVR0jBIGkMIGhgBTXN1IB
3Cx6V4XKMDkw8NVdWjEDAqF+pHwwejETMBEGA1UEAxQKREVMSElDQV9DQTELMAkG
A1UEBhMCSU4xDzANBgNVBAoTBkNJVFJJWDEMMAoGA1UECxMDQU5HMQswCQYDVQQI
EwJLQTEqMCgGCSqGSIb3DQEJARYbREVMSElDQV9DQUBERUxISUNBX21haWwuY29t
ggkAlFncUU6lEycwPAYIKwYBBQUHAQEEMDAuMCwGCCsGAQUFBzABhiBodHRwOi8v
MTcyLjIwLjIwLjEvcmVzcG9uZGVycGF0aDANBgkqhkiG9w0BAQsFAAOCAQEAnvVc
+dJohtgYUnU8pIgXTDcmVRsigAQgM0hyy7KYP55WXkwqSSUAfFq0cgxcwEkf0Fv0
32heBEg9PTMqV1tozYjo1DuCJOxMPXDkUNbMSqMNE6RdJZs/t99Oz/qPI9rmjWRH
FZHy2b4q0/cINIjTVcBkfx+P+8XVacm/waq118435bcopbm5rA6CKubgAC2J5LtX
0xNXUmsYaTvSn0mYodB5khPE+GEly7Vpmo1OokY5ZbSIltusLz2UxTw4aw3wnUwC
dEgu922vRx6WPUOk6gZq4rCi4ut3Z/iJJnQnLsnU1JFOKfexR1MlUZebWjQl9yVk
RJ+pT0Q7zq3W2QgE3w==
-----END CERTIFICATE-----
