Certificate:
    Data:
        Version: 3 (0x2)
        Serial Number: 11042563100222 (0xa0b0c0d0e3e)
    Signature Algorithm: sha256WithRSAEncryption
        Issuer: CN=DELHICA_CA, C=IN, O=CITRIX, OU=ANG, ST=KA/emailAddress=DELHICA_CA@DELHICA_mail.com
        Validity
            Not Before: Aug 23 10:50:34 2017 GMT
            Not After : Aug 21 10:50:34 2027 GMT
        Subject: ST=KA, C=IN, CN=delhi_8_client/emailAddress=delhi_8@test_ca.com, O=CITRIX
        Subject Public Key Info:
            Public Key Algorithm: rsaEncryption
                Public-Key: (2048 bit)
                Modulus:
                    00:c3:10:79:28:61:8b:0f:90:ca:a6:de:ea:fb:77:
                    d4:26:44:2b:82:8c:54:2c:ea:4b:ba:b2:be:67:a4:
                    d3:89:a7:5d:a2:26:ae:9e:75:b0:33:c2:fc:70:c9:
                    02:a8:44:be:14:9d:f6:0a:1c:58:0b:94:38:43:a1:
                    47:a5:da:61:3a:83:ae:fa:bf:ab:ca:84:88:30:39:
                    55:4f:83:98:0a:0a:cf:25:65:13:7d:7a:c1:79:d1:
                    45:ec:c9:b5:0b:6c:ab:ac:69:d1:80:3f:f3:ec:cc:
                    1b:78:d6:34:f0:8a:78:d1:ca:5b:85:eb:dc:66:c7:
                    49:b5:05:e4:c8:11:1b:89:9e:3c:44:19:e6:3a:de:
                    41:ea:0b:80:04:c1:6c:c7:04:05:75:31:48:c5:56:
                    b1:e6:e2:33:c6:11:ac:ff:ab:f1:17:9a:9f:51:ce:
                    bb:58:41:0b:b5:98:bc:8a:47:b4:d9:74:eb:3b:2a:
                    81:50:d0:ef:ca:36:3b:82:b8:2b:c1:bd:28:42:b6:
                    86:0b:fd:47:9a:91:27:72:02:57:0b:24:4a:12:bf:
                    78:bb:46:93:25:8d:d4:68:49:4f:43:b3:5e:7f:cb:
                    cf:e3:77:a2:d7:88:20:75:03:80:e7:ee:43:47:ee:
                    b1:12:1d:d1:ce:58:b1:fb:97:55:f7:15:d6:59:ea:
                    88:ff
                Exponent: 65537 (0x10001)
        X509v3 extensions:
            Netscape Cert Type: 
                SSL Server
            X509v3 Subject Key Identifier: 
                B9:B0:6B:5E:FA:80:11:D9:2D:93:F6:3E:38:BD:D1:2A:80:3B:DF:A3
            X509v3 Authority Key Identifier: 
                keyid:D7:37:52:01:DC:2C:7A:57:85:CA:30:39:30:F0:D5:5D:5A:31:03:02
                DirName:/CN=DELHICA_CA/C=IN/O=CITRIX/OU=ANG/ST=KA/emailAddress=DELHICA_CA@DELHICA_mail.com
                serial:94:59:DC:51:4E:A5:13:27

            Authority Information Access: 
                OCSP - URI:http://172.20.20.1/responderpath

    Signature Algorithm: sha256WithRSAEncryption
         7b:22:bd:24:e8:4b:9e:f7:64:8e:49:f2:4b:43:2f:75:24:e7:
         0d:41:60:80:43:65:fa:f9:4f:6c:b5:3c:7a:b1:15:fe:a6:95:
         d6:93:10:fc:00:95:f9:10:b0:37:d1:c3:f7:c3:ad:fc:40:15:
         60:11:47:79:fa:78:b8:e3:7c:9b:57:40:d7:a8:a6:94:ee:17:
         cb:fe:05:a3:8a:db:8b:99:2b:4b:fe:4b:43:ca:3f:da:ce:9b:
         34:57:0a:8a:00:66:0c:ef:c0:be:7f:06:e2:eb:42:b1:37:2f:
         2e:b8:58:c2:90:f8:13:88:66:5b:ef:c5:5c:3d:42:3a:18:37:
         68:cf:3d:5c:5c:ac:5c:68:30:b0:1e:51:d5:f2:28:fc:d9:89:
         6e:2c:fb:d4:a5:5d:6a:a0:39:82:6a:b0:94:f8:4e:f1:12:47:
         a1:d5:79:a7:ff:75:7f:10:23:75:09:b8:03:18:ab:c0:57:5d:
         56:1a:32:4f:53:01:3f:cb:b5:77:74:4e:c7:f4:b3:24:4f:98:
         54:26:ac:6f:29:32:1e:7d:eb:cf:41:90:e3:fa:24:d0:de:74:
         48:9e:a1:34:65:c8:59:93:87:09:3d:c2:82:99:cc:22:26:c6:
         1a:01:c7:3c:50:97:16:8f:62:1d:21:a9:2d:d7:fb:c6:9f:80:
         ff:de:96:0a
-----BEGIN CERTIFICATE-----
MIIEhzCCA2+gAwIBAgIGCgsMDQ4+MA0GCSqGSIb3DQEBCwUAMHoxEzARBgNVBAMU
CkRFTEhJQ0FfQ0ExCzAJBgNVBAYTAklOMQ8wDQYDVQQKEwZDSVRSSVgxDDAKBgNV
BAsTA0FORzELMAkGA1UECBMCS0ExKjAoBgkqhkiG9w0BCQEWG0RFTEhJQ0FfQ0FA
REVMSElDQV9tYWlsLmNvbTAeFw0xNzA4MjMxMDUwMzRaFw0yNzA4MjExMDUwMzRa
MGgxCzAJBgNVBAgTAktBMQswCQYDVQQGEwJJTjEXMBUGA1UEAxQOZGVsaGlfOF9j
bGllbnQxIjAgBgkqhkiG9w0BCQEWE2RlbGhpXzhAdGVzdF9jYS5jb20xDzANBgNV
BAoTBkNJVFJJWDCCASIwDQYJKoZIhvcNAQEBBQADggEPADCCAQoCggEBAMMQeShh
iw+Qyqbe6vt31CZEK4KMVCzqS7qyvmek04mnXaImrp51sDPC/HDJAqhEvhSd9goc
WAuUOEOhR6XaYTqDrvq/q8qEiDA5VU+DmAoKzyVlE316wXnRRezJtQtsq6xp0YA/
8+zMG3jWNPCKeNHKW4Xr3GbHSbUF5MgRG4mePEQZ5jreQeoLgATBbMcEBXUxSMVW
sebiM8YRrP+r8Rean1HOu1hBC7WYvIpHtNl06zsqgVDQ78o2O4K4K8G9KEK2hgv9
R5qRJ3ICVwskShK/eLtGkyWN1GhJT0OzXn/Lz+N3oteIIHUDgOfuQ0fusRId0c5Y
sfuXVfcV1lnqiP8CAwEAAaOCASMwggEfMBEGCWCGSAGG+EIBAQQEAwIGQDAdBgNV
HQ4EFgQUubBrXvqAEdktk/Y+OL3RKoA736MwgawGA1UdIwSBpDCBoYAU1zdSAdws
eleFyjA5MPDVXVoxAwKhfqR8MHoxEzARBgNVBAMUCkRFTEhJQ0FfQ0ExCzAJBgNV
BAYTAklOMQ8wDQYDVQQKEwZDSVRSSVgxDDAKBgNVBAsTA0FORzELMAkGA1UECBMC
S0ExKjAoBgkqhkiG9w0BCQEWG0RFTEhJQ0FfQ0FAREVMSElDQV9tYWlsLmNvbYIJ
AJRZ3FFOpRMnMDwGCCsGAQUFBwEBBDAwLjAsBggrBgEFBQcwAYYgaHR0cDovLzE3
Mi4yMC4yMC4xL3Jlc3BvbmRlcnBhdGgwDQYJKoZIhvcNAQELBQADggEBAHsivSTo
S573ZI5J8ktDL3Uk5w1BYIBDZfr5T2y1PHqxFf6mldaTEPwAlfkQsDfRw/fDrfxA
FWARR3n6eLjjfJtXQNeoppTuF8v+BaOK24uZK0v+S0PKP9rOmzRXCooAZgzvwL5/
BuLrQrE3Ly64WMKQ+BOIZlvvxVw9QjoYN2jPPVxcrFxoMLAeUdXyKPzZiW4s+9Sl
XWqgOYJqsJT4TvESR6HVeaf/dX8QI3UJuAMYq8BXXVYaMk9TAT/LtXd0Tsf0syRP
mFQmrG8pMh59689BkOP6JNDedEieoTRlyFmThwk9woKZzCImxhoBxzxQlxaPYh0h
qS3X+8afgP/elgo=
-----END CERTIFICATE-----
