Certificate:
    Data:
        Version: 3 (0x2)
        Serial Number: 11042563100219 (0xa0b0c0d0e3b)
    Signature Algorithm: sha256WithRSAEncryption
        Issuer: CN=DELHICA_CA, C=IN, O=CITRIX, OU=ANG, ST=KA/emailAddress=DELHICA_CA@DELHICA_mail.com
        Validity
            Not Before: Aug 23 10:50:33 2017 GMT
            Not After : Aug 21 10:50:33 2027 GMT
        Subject: ST=KA, C=IN, CN=delhi_5_client/emailAddress=delhi_5@test_ca.com, O=CITRIX
        Subject Public Key Info:
            Public Key Algorithm: rsaEncryption
                Public-Key: (2048 bit)
                Modulus:
                    00:b1:fb:fc:52:e1:71:c1:e6:9e:a0:c8:a5:43:67:
                    6d:7b:99:30:55:4e:09:24:f6:13:27:3c:96:f9:3f:
                    59:6d:f7:e2:e1:b6:8d:aa:c9:15:55:46:67:24:cb:
                    cb:86:38:a7:3a:29:ca:ab:a1:72:6b:b6:59:22:a8:
                    ae:f0:fb:67:88:c1:47:b9:f2:48:d6:a0:16:69:c3:
                    20:e7:47:b6:ad:e4:9e:ba:68:bd:c3:7b:d8:ba:f6:
                    37:6b:19:3a:b0:ae:eb:22:09:b9:d6:e7:e2:bb:4d:
                    74:0f:33:18:bd:93:b2:91:8c:66:db:3f:c6:3a:c5:
                    ff:73:2c:f1:70:6b:aa:f8:24:00:e8:26:30:54:91:
                    ce:6b:96:e7:44:c9:d1:b2:3e:76:25:ff:9a:48:7f:
                    e4:b6:d9:80:42:e6:cc:0d:64:81:6b:2c:1b:b9:91:
                    1c:6f:2f:dd:e4:2d:67:e4:5b:88:ed:71:3e:a6:15:
                    cc:bb:80:28:1a:af:17:01:ce:b0:4f:1e:f4:cc:02:
                    ce:7e:4e:04:04:e0:94:94:42:52:2b:f4:5e:ae:55:
                    3d:e9:d8:48:74:6f:dd:07:f6:3a:90:c1:01:3d:97:
                    58:65:67:0f:22:6b:93:1d:b7:c5:87:fb:51:d7:8f:
                    f2:02:33:59:ae:66:d5:2b:03:7e:ca:e5:cc:e5:db:
                    71:ad
                Exponent: 65537 (0x10001)
        X509v3 extensions:
            Netscape Cert Type: 
                SSL Server
            X509v3 Subject Key Identifier: 
                7F:38:6D:3B:7B:25:62:EA:1B:93:32:09:A5:B2:A2:FD:FE:A5:98:5A
            X509v3 Authority Key Identifier: 
                keyid:D7:37:52:01:DC:2C:7A:57:85:CA:30:39:30:F0:D5:5D:5A:31:03:02
                DirName:/CN=DELHICA_CA/C=IN/O=CITRIX/OU=ANG/ST=KA/emailAddress=DELHICA_CA@DELHICA_mail.com
                serial:94:59:DC:51:4E:A5:13:27

            Authority Information Access: 
                OCSP - URI:http://172.20.20.1/responderpath

    Signature Algorithm: sha256WithRSAEncryption
         0d:e4:be:a2:ce:27:50:48:b3:44:41:23:5c:6d:ab:22:32:fd:
         81:6e:70:d5:86:e0:8d:33:3a:3e:bd:bf:ee:c2:2d:dc:75:39:
         fc:93:6b:d2:a3:37:cf:d8:a5:03:5d:6d:2e:f5:3d:33:4e:bb:
         05:8f:49:d1:82:12:6a:2c:9f:c9:fb:4e:2e:13:d1:7d:b4:31:
         7d:6f:e6:1a:aa:fb:03:79:e1:e6:bc:9c:34:09:f5:7e:7d:65:
         5f:21:7f:da:5d:ed:45:1c:f4:58:59:c8:43:79:1f:47:38:d1:
         48:08:f8:f3:46:fb:74:51:00:d3:56:28:7b:11:3f:db:38:4b:
         61:c2:e0:05:5b:64:4a:b2:72:54:af:48:c1:64:90:ea:e0:6d:
         6c:c8:04:34:d3:0d:d1:71:2b:46:60:aa:3e:b6:4d:97:4d:82:
         6c:b1:a0:bd:c0:98:70:9b:21:43:ad:e1:b2:ef:b5:ab:76:f6:
         5a:91:77:cb:0b:e8:0e:8c:18:f2:06:a6:ef:eb:75:38:2c:38:
         81:5b:c7:b3:67:72:08:90:84:2d:0b:2b:cb:7f:76:f5:e0:16:
         1f:cf:09:d6:50:76:a9:27:67:c3:01:84:3d:36:7e:ac:d2:15:
         d8:c4:af:53:bd:1d:be:09:27:bb:19:a1:0b:73:93:db:51:6a:
         9e:a1:8f:62
-----BEGIN CERTIFICATE-----
MIIEhzCCA2+gAwIBAgIGCgsMDQ47MA0GCSqGSIb3DQEBCwUAMHoxEzARBgNVBAMU
CkRFTEhJQ0FfQ0ExCzAJBgNVBAYTAklOMQ8wDQYDVQQKEwZDSVRSSVgxDDAKBgNV
BAsTA0FORzELMAkGA1UECBMCS0ExKjAoBgkqhkiG9w0BCQEWG0RFTEhJQ0FfQ0FA
REVMSElDQV9tYWlsLmNvbTAeFw0xNzA4MjMxMDUwMzNaFw0yNzA4MjExMDUwMzNa
MGgxCzAJBgNVBAgTAktBMQswCQYDVQQGEwJJTjEXMBUGA1UEAxQOZGVsaGlfNV9j
bGllbnQxIjAgBgkqhkiG9w0BCQEWE2RlbGhpXzVAdGVzdF9jYS5jb20xDzANBgNV
BAoTBkNJVFJJWDCCASIwDQYJKoZIhvcNAQEBBQADggEPADCCAQoCggEBALH7/FLh
ccHmnqDIpUNnbXuZMFVOCST2Eyc8lvk/WW334uG2jarJFVVGZyTLy4Y4pzopyquh
cmu2WSKorvD7Z4jBR7nySNagFmnDIOdHtq3knrpovcN72Lr2N2sZOrCu6yIJudbn
4rtNdA8zGL2TspGMZts/xjrF/3Ms8XBrqvgkAOgmMFSRzmuW50TJ0bI+diX/mkh/
5LbZgELmzA1kgWssG7mRHG8v3eQtZ+RbiO1xPqYVzLuAKBqvFwHOsE8e9MwCzn5O
BATglJRCUiv0Xq5VPenYSHRv3Qf2OpDBAT2XWGVnDyJrkx23xYf7UdeP8gIzWa5m
1SsDfsrlzOXbca0CAwEAAaOCASMwggEfMBEGCWCGSAGG+EIBAQQEAwIGQDAdBgNV
HQ4EFgQUfzhtO3slYuobkzIJpbKi/f6lmFowgawGA1UdIwSBpDCBoYAU1zdSAdws
eleFyjA5MPDVXVoxAwKhfqR8MHoxEzARBgNVBAMUCkRFTEhJQ0FfQ0ExCzAJBgNV
BAYTAklOMQ8wDQYDVQQKEwZDSVRSSVgxDDAKBgNVBAsTA0FORzELMAkGA1UECBMC
S0ExKjAoBgkqhkiG9w0BCQEWG0RFTEhJQ0FfQ0FAREVMSElDQV9tYWlsLmNvbYIJ
AJRZ3FFOpRMnMDwGCCsGAQUFBwEBBDAwLjAsBggrBgEFBQcwAYYgaHR0cDovLzE3
Mi4yMC4yMC4xL3Jlc3BvbmRlcnBhdGgwDQYJKoZIhvcNAQELBQADggEBAA3kvqLO
J1BIs0RBI1xtqyIy/YFucNWG4I0zOj69v+7CLdx1OfyTa9KjN8/YpQNdbS71PTNO
uwWPSdGCEmosn8n7Ti4T0X20MX1v5hqq+wN54ea8nDQJ9X59ZV8hf9pd7UUc9FhZ
yEN5H0c40UgI+PNG+3RRANNWKHsRP9s4S2HC4AVbZEqyclSvSMFkkOrgbWzIBDTT
DdFxK0Zgqj62TZdNgmyxoL3AmHCbIUOt4bLvtat29lqRd8sL6A6MGPIGpu/rdTgs
OIFbx7NncgiQhC0LK8t/dvXgFh/PCdZQdqknZ8MBhD02fqzSFdjEr1O9Hb4JJ7sZ
oQtzk9tRap6hj2I=
-----END CERTIFICATE-----
