Certificate:
    Data:
        Version: 3 (0x2)
        Serial Number: 11042563100250 (0xa0b0c0d0e5a)
    Signature Algorithm: sha256WithRSAEncryption
        Issuer: CN=DELHICA_CA, C=IN, O=CITRIX, OU=ANG, ST=KA/emailAddress=DELHICA_CA@DELHICA_mail.com
        Validity
            Not Before: Aug 23 10:50:53 2017 GMT
            Not After : Aug 21 10:50:53 2027 GMT
        Subject: ST=KA, C=IN, CN=delhi_36_client/emailAddress=delhi_36@test_ca.com, O=CITRIX
        Subject Public Key Info:
            Public Key Algorithm: rsaEncryption
                Public-Key: (2048 bit)
                Modulus:
                    00:c5:3c:cb:0d:81:21:e6:9f:e6:89:99:7c:70:10:
                    c0:84:30:5a:55:e4:46:61:3c:ba:d2:be:83:43:4f:
                    f3:3b:ca:46:27:8e:01:6c:d3:3b:22:d1:32:ea:f9:
                    5f:3f:45:ac:63:fa:c9:3a:88:10:59:e5:d6:58:8f:
                    ff:ab:97:ad:35:b0:bc:23:01:96:c8:ac:b2:5d:44:
                    f4:e5:ba:04:9f:6b:53:0b:60:a1:aa:48:a4:63:91:
                    6a:07:29:0c:72:6b:ec:66:c6:e8:17:42:e6:d5:77:
                    32:f0:40:3c:ef:17:03:9c:23:b2:03:97:e7:24:58:
                    33:37:db:ef:07:cd:8c:b3:82:ba:d6:4b:31:7e:f6:
                    6b:66:67:45:46:3e:75:ce:e7:9d:8c:28:3d:3a:e2:
                    47:1a:33:eb:ca:53:2b:4d:db:79:1d:62:c8:83:49:
                    88:10:3e:8a:48:24:b0:23:6d:e3:35:19:75:00:a5:
                    0c:e2:56:41:22:f9:22:4f:31:c9:ff:6f:c9:7b:2e:
                    89:0a:ca:a6:3a:f5:1a:09:db:85:6c:b7:8f:fc:12:
                    c9:3a:8c:48:9f:b7:a9:86:53:ae:94:94:f5:21:db:
                    57:43:2e:0f:c3:31:84:01:0b:93:1e:71:68:8f:f9:
                    7c:9a:7a:a6:bb:b6:34:2f:1c:94:d4:a8:68:ed:e7:
                    4a:dd
                Exponent: 65537 (0x10001)
        X509v3 extensions:
            Netscape Cert Type: 
                SSL Server
            X509v3 Subject Key Identifier: 
                2E:97:85:C5:2D:6E:23:01:EF:2B:B7:DD:78:0A:BF:27:65:EB:F9:DD
            X509v3 Authority Key Identifier: 
                keyid:D7:37:52:01:DC:2C:7A:57:85:CA:30:39:30:F0:D5:5D:5A:31:03:02
                DirName:/CN=DELHICA_CA/C=IN/O=CITRIX/OU=ANG/ST=KA/emailAddress=DELHICA_CA@DELHICA_mail.com
                serial:94:59:DC:51:4E:A5:13:27

            Authority Information Access: 
                OCSP - URI:http://172.20.20.1/responderpath

    Signature Algorithm: sha256WithRSAEncryption
         6e:4d:03:fe:b0:ee:53:c8:cf:6f:1a:c6:be:64:cb:86:1a:60:
         a7:8b:cc:dd:f2:f2:15:37:82:e0:82:bb:30:76:b1:ba:07:5c:
         74:a2:24:b3:0e:ab:69:01:58:41:f2:11:34:a2:87:33:ca:3c:
         07:84:8d:6c:f8:3d:1e:33:a3:16:8c:aa:d4:ea:46:28:93:39:
         ce:07:88:83:56:69:96:c0:07:77:bf:d5:f8:a4:4f:90:5d:b0:
         d5:2d:8a:08:ea:28:c9:1e:e4:2e:dc:e5:67:f2:38:59:f4:df:
         00:f4:62:15:d3:0e:2e:b8:3b:bf:1a:c5:8c:33:b1:53:15:02:
         0b:8f:62:b2:c5:00:6a:55:bd:c4:04:c8:cc:d2:96:28:05:89:
         c8:b1:32:f8:a5:19:7a:af:a6:3c:75:e2:08:c7:5a:eb:6a:7b:
         33:e1:70:38:74:fc:f6:a8:2f:08:55:a1:42:b5:cc:7a:ad:cc:
         54:09:d4:d4:03:96:b1:94:c9:bb:fd:59:b5:b4:d9:8f:fe:dc:
         38:f8:54:a3:cd:fa:89:c3:93:df:85:6e:d8:95:00:72:8e:da:
         9c:9f:4e:34:e8:66:35:d5:74:b4:51:04:03:f8:03:b0:97:f3:
         1c:bf:ab:9b:fd:39:93:0c:96:7e:7c:da:7a:b3:2c:e6:89:27:
         2f:c4:77:a2
-----BEGIN CERTIFICATE-----
MIIEiTCCA3GgAwIBAgIGCgsMDQ5aMA0GCSqGSIb3DQEBCwUAMHoxEzARBgNVBAMU
CkRFTEhJQ0FfQ0ExCzAJBgNVBAYTAklOMQ8wDQYDVQQKEwZDSVRSSVgxDDAKBgNV
BAsTA0FORzELMAkGA1UECBMCS0ExKjAoBgkqhkiG9w0BCQEWG0RFTEhJQ0FfQ0FA
REVMSElDQV9tYWlsLmNvbTAeFw0xNzA4MjMxMDUwNTNaFw0yNzA4MjExMDUwNTNa
MGoxCzAJBgNVBAgTAktBMQswCQYDVQQGEwJJTjEYMBYGA1UEAxQPZGVsaGlfMzZf
Y2xpZW50MSMwIQYJKoZIhvcNAQkBFhRkZWxoaV8zNkB0ZXN0X2NhLmNvbTEPMA0G
A1UEChMGQ0lUUklYMIIBIjANBgkqhkiG9w0BAQEFAAOCAQ8AMIIBCgKCAQEAxTzL
DYEh5p/miZl8cBDAhDBaVeRGYTy60r6DQ0/zO8pGJ44BbNM7ItEy6vlfP0WsY/rJ
OogQWeXWWI//q5etNbC8IwGWyKyyXUT05boEn2tTC2ChqkikY5FqBykMcmvsZsbo
F0Lm1Xcy8EA87xcDnCOyA5fnJFgzN9vvB82Ms4K61ksxfvZrZmdFRj51zuedjCg9
OuJHGjPrylMrTdt5HWLIg0mIED6KSCSwI23jNRl1AKUM4lZBIvkiTzHJ/2/Jey6J
CsqmOvUaCduFbLeP/BLJOoxIn7ephlOulJT1IdtXQy4PwzGEAQuTHnFoj/l8mnqm
u7Y0LxyU1Kho7edK3QIDAQABo4IBIzCCAR8wEQYJYIZIAYb4QgEBBAQDAgZAMB0G
A1UdDgQWBBQul4XFLW4jAe8rt914Cr8nZev53TCBrAYDVR0jBIGkMIGhgBTXN1IB
3Cx6V4XKMDkw8NVdWjEDAqF+pHwwejETMBEGA1UEAxQKREVMSElDQV9DQTELMAkG
A1UEBhMCSU4xDzANBgNVBAoTBkNJVFJJWDEMMAoGA1UECxMDQU5HMQswCQYDVQQI
EwJLQTEqMCgGCSqGSIb3DQEJARYbREVMSElDQV9DQUBERUxISUNBX21haWwuY29t
ggkAlFncUU6lEycwPAYIKwYBBQUHAQEEMDAuMCwGCCsGAQUFBzABhiBodHRwOi8v
MTcyLjIwLjIwLjEvcmVzcG9uZGVycGF0aDANBgkqhkiG9w0BAQsFAAOCAQEAbk0D
/rDuU8jPbxrGvmTLhhpgp4vM3fLyFTeC4IK7MHaxugdcdKIksw6raQFYQfIRNKKH
M8o8B4SNbPg9HjOjFoyq1OpGKJM5zgeIg1ZplsAHd7/V+KRPkF2w1S2KCOooyR7k
LtzlZ/I4WfTfAPRiFdMOLrg7vxrFjDOxUxUCC49issUAalW9xATIzNKWKAWJyLEy
+KUZeq+mPHXiCMda62p7M+FwOHT89qgvCFWhQrXMeq3MVAnU1AOWsZTJu/1ZtbTZ
j/7cOPhUo836icOT34Vu2JUAco7anJ9ONOhmNdV0tFEEA/gDsJfzHL+rm/05kwyW
fnzaerMs5oknL8R3og==
-----END CERTIFICATE-----
