Certificate:
    Data:
        Version: 3 (0x2)
        Serial Number: 11042563100228 (0xa0b0c0d0e44)
    Signature Algorithm: sha256WithRSAEncryption
        Issuer: CN=DELHICA_CA, C=IN, O=CITRIX, OU=ANG, ST=KA/emailAddress=DELHICA_CA@DELHICA_mail.com
        Validity
            Not Before: Aug 23 10:50:38 2017 GMT
            Not After : Aug 21 10:50:38 2027 GMT
        Subject: ST=KA, C=IN, CN=delhi_14_client/emailAddress=delhi_14@test_ca.com, O=CITRIX
        Subject Public Key Info:
            Public Key Algorithm: rsaEncryption
                Public-Key: (2048 bit)
                Modulus:
                    00:b5:ef:c6:99:05:03:3c:a7:7e:f4:c1:32:b1:6c:
                    15:49:cf:b4:b9:94:bb:87:32:51:f1:32:4b:04:a3:
                    be:73:37:9d:a4:47:35:9b:9c:6b:a2:1c:00:23:a9:
                    39:5e:aa:96:d4:d6:bd:ba:88:e3:25:ad:df:49:17:
                    7b:83:d4:6f:5c:57:b5:f0:39:8e:a9:10:1e:a5:bc:
                    4e:6b:d6:0f:c7:2c:e6:62:51:cd:83:b8:c9:00:42:
                    18:fa:73:03:95:9b:9b:da:cb:04:7a:96:57:84:14:
                    7b:7f:68:3c:9a:98:ac:8b:97:67:84:76:49:36:d5:
                    5f:de:05:85:e1:ec:99:ea:7e:6a:63:bf:2e:bd:16:
                    31:27:98:1d:aa:b6:a6:d9:18:0a:5e:81:6c:f0:6c:
                    ad:4f:fb:4f:00:32:2d:a8:c1:ae:41:31:7d:7b:8e:
                    5f:b1:9d:9e:3b:d0:39:bd:cc:7e:27:cb:a1:b4:65:
                    6c:70:17:8d:8a:ff:79:49:40:14:a0:24:47:0b:37:
                    6f:9f:d0:3c:ca:e0:1f:f2:51:6b:81:75:63:6a:ee:
                    17:71:ac:11:17:ee:8b:f8:3b:98:ec:ec:12:ea:06:
                    df:12:45:d1:a0:56:c9:a4:d5:5e:56:ed:86:54:e1:
                    20:9b:a2:de:bb:60:f1:f2:17:bf:96:3e:43:56:7e:
                    1a:45
                Exponent: 65537 (0x10001)
        X509v3 extensions:
            Netscape Cert Type: 
                SSL Server
            X509v3 Subject Key Identifier: 
                6A:C0:0F:CF:8C:A3:83:F3:A7:F8:48:08:11:23:A5:F2:BD:F3:FC:DF
            X509v3 Authority Key Identifier: 
                keyid:D7:37:52:01:DC:2C:7A:57:85:CA:30:39:30:F0:D5:5D:5A:31:03:02
                DirName:/CN=DELHICA_CA/C=IN/O=CITRIX/OU=ANG/ST=KA/emailAddress=DELHICA_CA@DELHICA_mail.com
                serial:94:59:DC:51:4E:A5:13:27

            Authority Information Access: 
                OCSP - URI:http://172.20.20.1/responderpath

    Signature Algorithm: sha256WithRSAEncryption
         d5:39:87:de:04:cf:65:a7:86:cd:e2:0e:a6:18:69:e7:cd:53:
         7e:23:08:1f:cf:c2:ef:3d:0c:bd:b9:26:8a:af:c3:fb:81:93:
         cf:4a:f4:d3:77:51:a0:ef:a1:86:e9:35:cc:00:5c:88:ce:71:
         0f:e1:13:f8:95:bf:b2:70:20:70:c3:2c:03:65:13:c4:3f:df:
         f6:2f:ae:6d:b2:18:3d:9d:05:23:a8:3c:e2:64:42:38:a2:cd:
         9b:a7:f4:99:5b:d5:e3:62:3d:e4:07:92:f8:f8:66:28:4a:7b:
         c4:aa:f1:c3:6d:99:7e:a5:99:3a:04:80:2a:27:27:06:c1:db:
         87:26:30:14:7a:41:0b:c1:d8:4d:7d:f5:b3:ab:98:8d:65:a3:
         b4:8f:45:20:72:96:63:65:0c:ff:c0:b9:b8:18:b6:62:ca:6b:
         6e:2e:17:c4:f5:4d:0a:f1:6c:4c:ce:9f:17:45:dc:59:17:3a:
         aa:e1:44:48:87:f0:91:bc:44:bb:12:65:11:e9:2b:29:d3:08:
         93:f5:fd:e3:77:17:31:56:6b:ab:fd:85:eb:fe:90:c1:65:d2:
         dd:6f:5a:37:e1:da:ca:61:27:c8:b1:f6:5a:83:37:c4:78:78:
         7b:c5:a7:a3:c6:d3:08:0f:0b:2f:ed:ce:77:cf:05:c9:06:13:
         d1:d1:ab:32
-----BEGIN CERTIFICATE-----
MIIEiTCCA3GgAwIBAgIGCgsMDQ5EMA0GCSqGSIb3DQEBCwUAMHoxEzARBgNVBAMU
CkRFTEhJQ0FfQ0ExCzAJBgNVBAYTAklOMQ8wDQYDVQQKEwZDSVRSSVgxDDAKBgNV
BAsTA0FORzELMAkGA1UECBMCS0ExKjAoBgkqhkiG9w0BCQEWG0RFTEhJQ0FfQ0FA
REVMSElDQV9tYWlsLmNvbTAeFw0xNzA4MjMxMDUwMzhaFw0yNzA4MjExMDUwMzha
MGoxCzAJBgNVBAgTAktBMQswCQYDVQQGEwJJTjEYMBYGA1UEAxQPZGVsaGlfMTRf
Y2xpZW50MSMwIQYJKoZIhvcNAQkBFhRkZWxoaV8xNEB0ZXN0X2NhLmNvbTEPMA0G
A1UEChMGQ0lUUklYMIIBIjANBgkqhkiG9w0BAQEFAAOCAQ8AMIIBCgKCAQEAte/G
mQUDPKd+9MEysWwVSc+0uZS7hzJR8TJLBKO+czedpEc1m5xrohwAI6k5XqqW1Na9
uojjJa3fSRd7g9RvXFe18DmOqRAepbxOa9YPxyzmYlHNg7jJAEIY+nMDlZub2ssE
epZXhBR7f2g8mpisi5dnhHZJNtVf3gWF4eyZ6n5qY78uvRYxJ5gdqram2RgKXoFs
8GytT/tPADItqMGuQTF9e45fsZ2eO9A5vcx+J8uhtGVscBeNiv95SUAUoCRHCzdv
n9A8yuAf8lFrgXVjau4XcawRF+6L+DuY7OwS6gbfEkXRoFbJpNVeVu2GVOEgm6Le
u2Dx8he/lj5DVn4aRQIDAQABo4IBIzCCAR8wEQYJYIZIAYb4QgEBBAQDAgZAMB0G
A1UdDgQWBBRqwA/PjKOD86f4SAgRI6XyvfP83zCBrAYDVR0jBIGkMIGhgBTXN1IB
3Cx6V4XKMDkw8NVdWjEDAqF+pHwwejETMBEGA1UEAxQKREVMSElDQV9DQTELMAkG
A1UEBhMCSU4xDzANBgNVBAoTBkNJVFJJWDEMMAoGA1UECxMDQU5HMQswCQYDVQQI
EwJLQTEqMCgGCSqGSIb3DQEJARYbREVMSElDQV9DQUBERUxISUNBX21haWwuY29t
ggkAlFncUU6lEycwPAYIKwYBBQUHAQEEMDAuMCwGCCsGAQUFBzABhiBodHRwOi8v
MTcyLjIwLjIwLjEvcmVzcG9uZGVycGF0aDANBgkqhkiG9w0BAQsFAAOCAQEA1TmH
3gTPZaeGzeIOphhp581TfiMIH8/C7z0Mvbkmiq/D+4GTz0r003dRoO+hhuk1zABc
iM5xD+ET+JW/snAgcMMsA2UTxD/f9i+ubbIYPZ0FI6g84mRCOKLNm6f0mVvV42I9
5AeS+PhmKEp7xKrxw22ZfqWZOgSAKicnBsHbhyYwFHpBC8HYTX31s6uYjWWjtI9F
IHKWY2UM/8C5uBi2Ysprbi4XxPVNCvFsTM6fF0XcWRc6quFESIfwkbxEuxJlEekr
KdMIk/X943cXMVZrq/2F6/6QwWXS3W9aN+HaymEnyLH2WoM3xHh4e8Wno8bTCA8L
L+3Od88FyQYT0dGrMg==
-----END CERTIFICATE-----
