Certificate:
    Data:
        Version: 3 (0x2)
        Serial Number: 11042563100241 (0xa0b0c0d0e51)
    Signature Algorithm: sha256WithRSAEncryption
        Issuer: CN=DELHICA_CA, C=IN, O=CITRIX, OU=ANG, ST=KA/emailAddress=DELHICA_CA@DELHICA_mail.com
        Validity
            Not Before: Aug 23 10:50:46 2017 GMT
            Not After : Aug 21 10:50:46 2027 GMT
        Subject: ST=KA, C=IN, CN=delhi_27_client/emailAddress=delhi_27@test_ca.com, O=CITRIX
        Subject Public Key Info:
            Public Key Algorithm: rsaEncryption
                Public-Key: (2048 bit)
                Modulus:
                    00:c6:d7:c3:51:16:0c:75:61:cd:42:ee:74:8b:eb:
                    4d:8a:bb:c0:f6:36:e7:7b:79:97:41:bd:0b:3c:0e:
                    07:43:e0:cb:f8:94:d7:de:60:57:e2:ec:65:04:70:
                    b9:8b:9c:a9:53:70:5f:7e:59:aa:ce:53:4f:d3:22:
                    88:35:18:e7:36:57:2f:db:b1:37:8b:87:9d:b7:72:
                    80:47:c2:73:61:0a:da:af:ab:18:d1:e6:7d:f4:35:
                    7c:1c:3f:9c:ec:85:53:ff:f1:e3:9a:e9:9b:13:ef:
                    e6:49:0e:11:82:03:f8:35:79:9c:10:6c:c1:6f:88:
                    f8:25:f5:8e:5b:f8:7b:e4:6f:2c:15:0e:9c:48:cc:
                    04:c7:7c:ed:86:83:c4:55:85:4c:00:e7:26:f6:46:
                    42:0f:58:b3:84:b3:c0:07:4b:49:1a:bf:25:46:e3:
                    ff:f6:78:f7:d7:71:e9:a9:57:97:de:a3:61:2c:48:
                    d0:59:19:d4:9d:47:6f:80:b6:c5:59:92:98:7d:e7:
                    80:42:0b:8a:6d:25:d6:13:12:86:2f:6f:ce:70:44:
                    ab:23:b5:d2:73:f1:c2:7b:9d:35:24:bc:4f:17:be:
                    68:43:d3:c4:0f:71:a9:83:c8:be:77:5f:36:81:eb:
                    52:49:c9:aa:b4:0b:2f:bc:c8:b6:c8:55:16:83:6b:
                    85:39
                Exponent: 65537 (0x10001)
        X509v3 extensions:
            Netscape Cert Type: 
                SSL Server
            X509v3 Subject Key Identifier: 
                BB:60:A5:78:25:6C:AE:16:80:85:71:E8:90:D4:26:B7:6D:00:C0:1C
            X509v3 Authority Key Identifier: 
                keyid:D7:37:52:01:DC:2C:7A:57:85:CA:30:39:30:F0:D5:5D:5A:31:03:02
                DirName:/CN=DELHICA_CA/C=IN/O=CITRIX/OU=ANG/ST=KA/emailAddress=DELHICA_CA@DELHICA_mail.com
                serial:94:59:DC:51:4E:A5:13:27

            Authority Information Access: 
                OCSP - URI:http://172.20.20.1/responderpath

    Signature Algorithm: sha256WithRSAEncryption
         15:ac:7d:6c:47:18:bb:80:97:ac:9a:70:bf:ad:9c:6a:bf:71:
         6f:a3:2c:38:90:ad:e5:53:8c:dc:10:40:2b:51:66:ee:d7:2f:
         16:13:d2:97:22:63:d8:1d:a3:e2:d7:5b:71:c4:a3:92:0a:09:
         e3:16:d0:2e:1e:7c:97:0f:61:af:d6:8f:89:f9:b2:1f:0b:e6:
         31:bd:1a:76:f6:d0:4d:7a:4b:a9:47:28:4f:30:2f:7a:03:56:
         a2:10:e4:71:d4:59:36:b1:5f:54:9c:7f:f8:88:30:b6:d6:10:
         de:3d:cc:20:51:f1:8e:24:e3:c3:5a:ad:96:34:1e:ae:09:19:
         85:16:6a:b8:4a:be:fa:f4:b1:f1:46:49:5c:e3:94:18:ff:66:
         0c:ce:b0:5f:3d:48:b9:ef:b2:ef:48:1b:53:1c:dc:32:fd:04:
         1c:ef:88:f6:b2:bd:44:13:05:f8:65:b5:dc:79:c4:96:d6:d5:
         ab:ee:76:31:3a:12:c2:65:7a:ca:af:15:7b:4c:e6:8b:3b:33:
         55:1a:76:2a:fe:a7:1c:e5:68:35:9e:ec:24:f0:c6:51:34:d0:
         48:40:e5:64:4c:69:4b:07:ef:99:f4:b8:74:e1:c9:e7:70:d0:
         24:e5:6e:d3:b4:96:96:8e:4a:a3:4e:26:c0:04:d7:6a:97:c7:
         03:22:df:61
-----BEGIN CERTIFICATE-----
MIIEiTCCA3GgAwIBAgIGCgsMDQ5RMA0GCSqGSIb3DQEBCwUAMHoxEzARBgNVBAMU
CkRFTEhJQ0FfQ0ExCzAJBgNVBAYTAklOMQ8wDQYDVQQKEwZDSVRSSVgxDDAKBgNV
BAsTA0FORzELMAkGA1UECBMCS0ExKjAoBgkqhkiG9w0BCQEWG0RFTEhJQ0FfQ0FA
REVMSElDQV9tYWlsLmNvbTAeFw0xNzA4MjMxMDUwNDZaFw0yNzA4MjExMDUwNDZa
MGoxCzAJBgNVBAgTAktBMQswCQYDVQQGEwJJTjEYMBYGA1UEAxQPZGVsaGlfMjdf
Y2xpZW50MSMwIQYJKoZIhvcNAQkBFhRkZWxoaV8yN0B0ZXN0X2NhLmNvbTEPMA0G
A1UEChMGQ0lUUklYMIIBIjANBgkqhkiG9w0BAQEFAAOCAQ8AMIIBCgKCAQEAxtfD
URYMdWHNQu50i+tNirvA9jbne3mXQb0LPA4HQ+DL+JTX3mBX4uxlBHC5i5ypU3Bf
flmqzlNP0yKINRjnNlcv27E3i4edt3KAR8JzYQrar6sY0eZ99DV8HD+c7IVT//Hj
mumbE+/mSQ4RggP4NXmcEGzBb4j4JfWOW/h75G8sFQ6cSMwEx3zthoPEVYVMAOcm
9kZCD1izhLPAB0tJGr8lRuP/9nj313HpqVeX3qNhLEjQWRnUnUdvgLbFWZKYfeeA
QguKbSXWExKGL2/OcESrI7XSc/HCe501JLxPF75oQ9PED3Gpg8i+d182getSScmq
tAsvvMi2yFUWg2uFOQIDAQABo4IBIzCCAR8wEQYJYIZIAYb4QgEBBAQDAgZAMB0G
A1UdDgQWBBS7YKV4JWyuFoCFceiQ1Ca3bQDAHDCBrAYDVR0jBIGkMIGhgBTXN1IB
3Cx6V4XKMDkw8NVdWjEDAqF+pHwwejETMBEGA1UEAxQKREVMSElDQV9DQTELMAkG
A1UEBhMCSU4xDzANBgNVBAoTBkNJVFJJWDEMMAoGA1UECxMDQU5HMQswCQYDVQQI
EwJLQTEqMCgGCSqGSIb3DQEJARYbREVMSElDQV9DQUBERUxISUNBX21haWwuY29t
ggkAlFncUU6lEycwPAYIKwYBBQUHAQEEMDAuMCwGCCsGAQUFBzABhiBodHRwOi8v
MTcyLjIwLjIwLjEvcmVzcG9uZGVycGF0aDANBgkqhkiG9w0BAQsFAAOCAQEAFax9
bEcYu4CXrJpwv62car9xb6MsOJCt5VOM3BBAK1Fm7tcvFhPSlyJj2B2j4tdbccSj
kgoJ4xbQLh58lw9hr9aPifmyHwvmMb0advbQTXpLqUcoTzAvegNWohDkcdRZNrFf
VJx/+IgwttYQ3j3MIFHxjiTjw1qtljQergkZhRZquEq++vSx8UZJXOOUGP9mDM6w
Xz1Iue+y70gbUxzcMv0EHO+I9rK9RBMF+GW13HnEltbVq+52MToSwmV6yq8Ve0zm
izszVRp2Kv6nHOVoNZ7sJPDGUTTQSEDlZExpSwfvmfS4dOHJ53DQJOVu07SWlo5K
o04mwATXapfHAyLfYQ==
-----END CERTIFICATE-----
