Certificate:
    Data:
        Version: 3 (0x2)
        Serial Number: 11042563100187 (0xa0b0c0d0e1b)
    Signature Algorithm: sha256WithRSAEncryption
        Issuer: CN=DELHICA_CA, C=IN, O=CITRIX, OU=ANG, ST=KA/emailAddress=DELHICA_CA@DELHICA_mail.com
        Validity
            Not Before: Jul  8 04:34:25 2016 GMT
            Not After : Jul  6 04:34:25 2026 GMT
        Subject: ST=KA, C=IN, CN=113_DELHICA_server/emailAddress=113_DELHICA@test_ca.com, O=CITRIX
        Subject Public Key Info:
            Public Key Algorithm: rsaEncryption
                Public-Key: (2048 bit)
                Modulus:
                    00:b7:c4:48:95:c1:46:9c:93:90:7a:27:a6:59:bc:
                    0c:e3:3f:94:28:3b:24:5e:ec:2d:27:c3:95:3d:75:
                    69:cf:0b:be:f5:44:58:b0:a9:4e:21:56:70:48:40:
                    28:91:58:0c:9a:29:6c:9e:d8:22:83:c3:ec:4b:db:
                    90:7c:2f:88:41:e1:ed:bc:63:3f:e1:98:99:6e:d9:
                    b8:02:0d:3e:f7:28:56:2d:94:02:f9:06:6b:72:00:
                    8d:40:2a:e4:92:c9:d5:a3:85:ad:8d:10:01:c4:cb:
                    a6:37:90:f2:c8:22:d2:73:46:ac:fb:73:e9:9a:15:
                    04:c7:2e:b1:c9:0a:78:9f:90:bd:90:e9:01:09:a0:
                    4e:44:d1:ec:0e:a8:99:7c:b3:20:f9:bd:ab:3e:a4:
                    56:3c:0e:5a:7d:d1:01:7a:31:e7:d9:76:57:8f:30:
                    4f:b2:ed:41:0f:ef:0c:2f:f0:3d:ad:4d:fb:f1:fb:
                    45:5a:b0:02:c0:29:9e:2d:ac:c4:ad:50:51:e9:84:
                    81:99:73:4d:69:60:1d:48:16:2a:c8:83:fe:19:91:
                    2d:73:2d:f8:17:61:f9:67:70:30:07:4d:8f:87:6c:
                    71:c5:62:3d:59:f1:99:62:dd:ac:fb:44:ca:92:71:
                    c0:e8:9e:9b:de:c4:d3:e0:c7:ef:18:ec:5c:09:86:
                    48:d9
                Exponent: 65537 (0x10001)
        X509v3 extensions:
            Netscape Cert Type: 
                SSL Server
            X509v3 Subject Key Identifier: 
                FF:FD:0E:11:85:CF:CC:01:8A:8F:EB:5D:A6:19:FC:52:E5:E9:5D:57
            X509v3 Authority Key Identifier: 
                keyid:D7:37:52:01:DC:2C:7A:57:85:CA:30:39:30:F0:D5:5D:5A:31:03:02
                DirName:/CN=DELHICA_CA/C=IN/O=CITRIX/OU=ANG/ST=KA/emailAddress=DELHICA_CA@DELHICA_mail.com
                serial:94:59:DC:51:4E:A5:13:27

            Authority Information Access: 
                OCSP - URI:http://DELHICA_two.ocsptest.com/responderpath

    Signature Algorithm: sha256WithRSAEncryption
         d5:ff:6c:91:c2:3b:75:31:bc:34:cd:f2:f3:b7:6f:ad:6f:5f:
         63:1a:d2:1f:ca:1c:0c:e3:2d:b9:e6:9d:fd:c9:9c:56:23:f6:
         67:97:ac:54:f3:dc:d1:d3:42:95:1a:8f:7c:7c:44:20:86:fa:
         85:00:66:26:c8:27:d0:4f:3e:2a:b2:82:69:69:e3:4e:ea:c1:
         91:df:b9:45:6a:d4:f9:b9:29:98:ca:87:c4:89:5b:43:d8:dd:
         53:b7:33:6e:a9:43:00:51:cf:80:dd:47:1f:1e:1a:81:e1:d7:
         1c:ae:9a:c6:4a:57:50:e8:1e:79:9a:10:ae:fc:a5:63:7d:25:
         48:d6:1a:aa:24:1b:8f:96:a0:39:45:79:b7:7f:35:ac:67:14:
         5a:41:fa:c9:20:2a:37:a6:36:c5:23:99:64:b9:9c:ef:88:c8:
         01:53:1f:66:a6:ee:16:a4:b3:60:44:c4:3e:33:d9:ce:48:b0:
         bf:bd:75:b5:44:dc:0b:ad:7f:ea:85:1b:b8:65:e1:ba:6b:15:
         9c:01:64:cd:91:33:bc:1e:41:f1:60:db:5d:8f:0a:2e:e1:73:
         1d:90:4e:73:59:b8:9d:a3:13:c4:1f:dc:05:dd:f3:0e:fb:bf:
         ac:c7:c4:70:0f:7a:6b:f1:50:cc:f0:60:b1:6f:1c:93:02:71:
         8b:09:73:ad
-----BEGIN CERTIFICATE-----
MIIEnDCCA4SgAwIBAgIGCgsMDQ4bMA0GCSqGSIb3DQEBCwUAMHoxEzARBgNVBAMU
CkRFTEhJQ0FfQ0ExCzAJBgNVBAYTAklOMQ8wDQYDVQQKEwZDSVRSSVgxDDAKBgNV
BAsTA0FORzELMAkGA1UECBMCS0ExKjAoBgkqhkiG9w0BCQEWG0RFTEhJQ0FfQ0FA
REVMSElDQV9tYWlsLmNvbTAeFw0xNjA3MDgwNDM0MjVaFw0yNjA3MDYwNDM0MjVa
MHAxCzAJBgNVBAgTAktBMQswCQYDVQQGEwJJTjEbMBkGA1UEAxQSMTEzX0RFTEhJ
Q0Ffc2VydmVyMSYwJAYJKoZIhvcNAQkBFhcxMTNfREVMSElDQUB0ZXN0X2NhLmNv
bTEPMA0GA1UEChMGQ0lUUklYMIIBIjANBgkqhkiG9w0BAQEFAAOCAQ8AMIIBCgKC
AQEAt8RIlcFGnJOQeiemWbwM4z+UKDskXuwtJ8OVPXVpzwu+9URYsKlOIVZwSEAo
kVgMmilsntgig8PsS9uQfC+IQeHtvGM/4ZiZbtm4Ag0+9yhWLZQC+QZrcgCNQCrk
ksnVo4WtjRABxMumN5DyyCLSc0as+3PpmhUExy6xyQp4n5C9kOkBCaBORNHsDqiZ
fLMg+b2rPqRWPA5afdEBejHn2XZXjzBPsu1BD+8ML/A9rU378ftFWrACwCmeLazE
rVBR6YSBmXNNaWAdSBYqyIP+GZEtcy34F2H5Z3AwB02Ph2xxxWI9WfGZYt2s+0TK
knHA6J6b3sTT4MfvGOxcCYZI2QIDAQABo4IBMDCCASwwEQYJYIZIAYb4QgEBBAQD
AgZAMB0GA1UdDgQWBBT//Q4Rhc/MAYqP612mGfxS5eldVzCBrAYDVR0jBIGkMIGh
gBTXN1IB3Cx6V4XKMDkw8NVdWjEDAqF+pHwwejETMBEGA1UEAxQKREVMSElDQV9D
QTELMAkGA1UEBhMCSU4xDzANBgNVBAoTBkNJVFJJWDEMMAoGA1UECxMDQU5HMQsw
CQYDVQQIEwJLQTEqMCgGCSqGSIb3DQEJARYbREVMSElDQV9DQUBERUxISUNBX21h
aWwuY29tggkAlFncUU6lEycwSQYIKwYBBQUHAQEEPTA7MDkGCCsGAQUFBzABhi1o
dHRwOi8vREVMSElDQV90d28ub2NzcHRlc3QuY29tL3Jlc3BvbmRlcnBhdGgwDQYJ
KoZIhvcNAQELBQADggEBANX/bJHCO3UxvDTN8vO3b61vX2Ma0h/KHAzjLbnmnf3J
nFYj9meXrFTz3NHTQpUaj3x8RCCG+oUAZibIJ9BPPiqygmlp407qwZHfuUVq1Pm5
KZjKh8SJW0PY3VO3M26pQwBRz4DdRx8eGoHh1xyumsZKV1DoHnmaEK78pWN9JUjW
GqokG4+WoDlFebd/NaxnFFpB+skgKjemNsUjmWS5nO+IyAFTH2am7haks2BExD4z
2c5IsL+9dbVE3Autf+qFG7hl4bprFZwBZM2RM7weQfFg212PCi7hcx2QTnNZuJ2j
E8Qf3AXd8w77v6zHxHAPemvxUMzwYLFvHJMCcYsJc60=
-----END CERTIFICATE-----
