Certificate:
    Data:
        Version: 3 (0x2)
        Serial Number: 11042563100218 (0xa0b0c0d0e3a)
    Signature Algorithm: sha256WithRSAEncryption
        Issuer: CN=DELHICA_CA, C=IN, O=CITRIX, OU=ANG, ST=KA/emailAddress=DELHICA_CA@DELHICA_mail.com
        Validity
            Not Before: Aug 23 10:50:32 2017 GMT
            Not After : Aug 21 10:50:32 2027 GMT
        Subject: ST=KA, C=IN, CN=delhi_4_client/emailAddress=delhi_4@test_ca.com, O=CITRIX
        Subject Public Key Info:
            Public Key Algorithm: rsaEncryption
                Public-Key: (2048 bit)
                Modulus:
                    00:ee:57:59:f2:4b:39:06:21:7e:53:3e:46:6d:c4:
                    8b:5e:98:00:fe:1f:40:70:41:68:a7:2a:f4:8b:fe:
                    d1:5f:d7:60:e1:e7:a1:12:82:60:23:00:f4:4b:ab:
                    a1:5d:3f:46:8f:ee:66:26:ef:4d:7f:c7:af:ec:3e:
                    bb:e7:a8:1c:70:48:13:8d:e3:10:e5:b5:98:35:b7:
                    28:10:55:16:e5:e9:e2:9e:e7:eb:10:3c:1a:2a:28:
                    f7:ad:66:62:e5:d1:cd:f9:08:b2:17:62:e2:51:a2:
                    ab:3d:09:76:36:2c:6c:d1:3f:6b:10:bc:c2:6c:03:
                    8a:d9:fe:cc:80:48:d3:ec:b0:93:36:a0:5f:31:e7:
                    b1:45:d0:79:77:25:09:f6:39:f4:79:60:f9:7a:88:
                    b1:db:54:cc:08:4e:56:70:24:64:68:61:6f:07:51:
                    04:c5:f2:1f:3b:a7:c4:a0:2f:87:01:18:99:f6:98:
                    f1:6a:7e:ca:9d:f5:18:5b:8b:93:f7:2d:f7:9f:80:
                    e3:dd:da:74:76:03:eb:e3:d0:62:c3:b1:c4:3d:38:
                    aa:7d:60:22:e4:7b:ef:5b:50:89:55:01:4f:ca:36:
                    a3:6b:92:43:00:b8:d0:ef:6e:e3:30:d5:fa:e9:48:
                    76:cb:44:28:02:93:f4:c8:63:ce:7b:e5:dd:06:4e:
                    98:45
                Exponent: 65537 (0x10001)
        X509v3 extensions:
            Netscape Cert Type: 
                SSL Server
            X509v3 Subject Key Identifier: 
                18:73:C6:B0:60:BF:FD:81:BC:7B:A6:1F:72:F4:41:F7:34:0E:1E:AF
            X509v3 Authority Key Identifier: 
                keyid:D7:37:52:01:DC:2C:7A:57:85:CA:30:39:30:F0:D5:5D:5A:31:03:02
                DirName:/CN=DELHICA_CA/C=IN/O=CITRIX/OU=ANG/ST=KA/emailAddress=DELHICA_CA@DELHICA_mail.com
                serial:94:59:DC:51:4E:A5:13:27

            Authority Information Access: 
                OCSP - URI:http://172.20.20.1/responderpath

    Signature Algorithm: sha256WithRSAEncryption
         08:1f:bf:e7:3d:9f:51:4c:83:1e:e3:17:61:cb:08:2d:cf:49:
         27:e2:36:34:f6:d0:a8:4e:86:00:f0:fe:7d:9c:ee:92:9a:58:
         1b:7b:29:16:56:f1:f4:13:9a:38:05:a4:e3:6f:3a:63:e9:11:
         82:bc:f3:7d:c7:11:e1:7d:2f:ce:b9:8b:e0:92:68:f0:d4:8a:
         70:80:f8:b6:0d:2e:b0:bc:91:33:f0:3b:d0:9f:68:ac:6f:84:
         cd:a6:88:6a:b1:32:4b:0d:2a:f1:a9:cc:cc:ee:4a:18:c4:f7:
         51:94:65:04:a3:25:55:e1:af:f3:9a:45:6b:ba:77:46:c1:ca:
         4e:e9:0d:1c:43:a5:47:8a:c3:63:97:79:d5:36:ee:fb:a8:57:
         ce:5d:24:6a:ea:17:9c:fb:3f:fa:a1:06:12:3d:99:6f:01:70:
         de:31:a9:83:54:8c:fb:df:92:30:25:0a:d8:55:a6:05:f2:f3:
         1c:c8:ed:aa:eb:b9:79:0b:35:cb:24:03:a8:ee:cc:66:f4:7b:
         3e:49:63:3c:f5:b3:c6:22:ea:f4:e7:dc:36:62:9b:46:d3:b1:
         14:d6:2d:ac:98:0b:b2:3c:26:af:a9:09:7a:71:40:30:ca:ba:
         b4:a3:20:44:07:86:48:c6:0a:fb:c8:93:d9:93:95:d5:f8:5f:
         ed:87:3f:18
-----BEGIN CERTIFICATE-----
MIIEhzCCA2+gAwIBAgIGCgsMDQ46MA0GCSqGSIb3DQEBCwUAMHoxEzARBgNVBAMU
CkRFTEhJQ0FfQ0ExCzAJBgNVBAYTAklOMQ8wDQYDVQQKEwZDSVRSSVgxDDAKBgNV
BAsTA0FORzELMAkGA1UECBMCS0ExKjAoBgkqhkiG9w0BCQEWG0RFTEhJQ0FfQ0FA
REVMSElDQV9tYWlsLmNvbTAeFw0xNzA4MjMxMDUwMzJaFw0yNzA4MjExMDUwMzJa
MGgxCzAJBgNVBAgTAktBMQswCQYDVQQGEwJJTjEXMBUGA1UEAxQOZGVsaGlfNF9j
bGllbnQxIjAgBgkqhkiG9w0BCQEWE2RlbGhpXzRAdGVzdF9jYS5jb20xDzANBgNV
BAoTBkNJVFJJWDCCASIwDQYJKoZIhvcNAQEBBQADggEPADCCAQoCggEBAO5XWfJL
OQYhflM+Rm3Ei16YAP4fQHBBaKcq9Iv+0V/XYOHnoRKCYCMA9EuroV0/Ro/uZibv
TX/Hr+w+u+eoHHBIE43jEOW1mDW3KBBVFuXp4p7n6xA8Gioo961mYuXRzfkIshdi
4lGiqz0JdjYsbNE/axC8wmwDitn+zIBI0+ywkzagXzHnsUXQeXclCfY59Hlg+XqI
sdtUzAhOVnAkZGhhbwdRBMXyHzunxKAvhwEYmfaY8Wp+yp31GFuLk/ct95+A493a
dHYD6+PQYsOxxD04qn1gIuR771tQiVUBT8o2o2uSQwC40O9u4zDV+ulIdstEKAKT
9Mhjznvl3QZOmEUCAwEAAaOCASMwggEfMBEGCWCGSAGG+EIBAQQEAwIGQDAdBgNV
HQ4EFgQUGHPGsGC//YG8e6YfcvRB9zQOHq8wgawGA1UdIwSBpDCBoYAU1zdSAdws
eleFyjA5MPDVXVoxAwKhfqR8MHoxEzARBgNVBAMUCkRFTEhJQ0FfQ0ExCzAJBgNV
BAYTAklOMQ8wDQYDVQQKEwZDSVRSSVgxDDAKBgNVBAsTA0FORzELMAkGA1UECBMC
S0ExKjAoBgkqhkiG9w0BCQEWG0RFTEhJQ0FfQ0FAREVMSElDQV9tYWlsLmNvbYIJ
AJRZ3FFOpRMnMDwGCCsGAQUFBwEBBDAwLjAsBggrBgEFBQcwAYYgaHR0cDovLzE3
Mi4yMC4yMC4xL3Jlc3BvbmRlcnBhdGgwDQYJKoZIhvcNAQELBQADggEBAAgfv+c9
n1FMgx7jF2HLCC3PSSfiNjT20KhOhgDw/n2c7pKaWBt7KRZW8fQTmjgFpONvOmPp
EYK8833HEeF9L865i+CSaPDUinCA+LYNLrC8kTPwO9CfaKxvhM2miGqxMksNKvGp
zMzuShjE91GUZQSjJVXhr/OaRWu6d0bByk7pDRxDpUeKw2OXedU27vuoV85dJGrq
F5z7P/qhBhI9mW8BcN4xqYNUjPvfkjAlCthVpgXy8xzI7arruXkLNcskA6juzGb0
ez5JYzz1s8Yi6vTn3DZim0bTsRTWLayYC7I8Jq+pCXpxQDDKurSjIEQHhkjGCvvI
k9mTldX4X+2HPxg=
-----END CERTIFICATE-----
