Certificate:
    Data:
        Version: 3 (0x2)
        Serial Number: 11042563100191 (0xa0b0c0d0e1f)
    Signature Algorithm: sha256WithRSAEncryption
        Issuer: CN=DELHICA_CA, C=IN, O=CITRIX, OU=ANG, ST=KA/emailAddress=DELHICA_CA@DELHICA_mail.com
        Validity
            Not Before: Jul  8 04:34:26 2016 GMT
            Not After : Jul  6 04:34:26 2026 GMT
        Subject: ST=KA, C=IN, CN=117_DELHICA_server/emailAddress=117_DELHICA@test_ca.com, O=CITRIX
        Subject Public Key Info:
            Public Key Algorithm: rsaEncryption
                Public-Key: (2048 bit)
                Modulus:
                    00:ad:56:c5:88:68:bb:ec:ce:c1:62:4b:8b:fa:93:
                    fb:2b:f0:34:ac:0c:7b:9b:6a:df:23:60:26:c5:19:
                    12:cd:7f:ac:86:40:11:8d:79:ae:2f:22:21:e7:7f:
                    0f:b9:6d:37:09:0a:3a:d9:47:7a:d8:26:a5:da:fc:
                    36:40:5c:38:92:6f:8e:8b:76:4c:e1:42:6e:ed:77:
                    12:4f:85:7a:02:8e:90:b8:f8:f3:4e:f0:f3:e4:64:
                    28:4f:02:d9:2e:1b:a4:07:6c:ee:3f:30:97:af:f1:
                    ef:b7:59:ae:35:34:30:58:d6:a2:3c:44:e7:63:c1:
                    95:d7:e3:c6:54:21:8c:fe:71:2f:1b:ae:ce:7c:75:
                    92:e8:38:b5:9b:03:f6:81:fb:c4:db:27:f9:45:c4:
                    a2:69:d0:0b:8b:fe:3a:72:5e:6a:19:bc:13:e1:24:
                    5f:df:f4:d6:ea:86:44:50:de:a1:03:79:16:fc:ed:
                    eb:d8:68:7d:62:45:32:e0:f6:8b:a5:ef:fb:83:24:
                    0b:a4:58:53:b7:d4:7e:f4:9f:7f:da:85:98:4e:41:
                    8a:2f:1e:b7:eb:5c:92:df:9e:1f:ed:2e:de:5c:00:
                    4e:1f:d9:9f:23:6c:85:ae:14:9f:23:f7:d5:c3:e7:
                    54:7b:b8:5a:58:53:65:c8:f3:b1:8e:2f:48:47:d9:
                    65:ed
                Exponent: 65537 (0x10001)
        X509v3 extensions:
            Netscape Cert Type: 
                SSL Server
            X509v3 Subject Key Identifier: 
                99:45:42:19:7C:45:05:69:7C:13:74:9E:21:35:15:CC:52:55:49:29
            X509v3 Authority Key Identifier: 
                keyid:D7:37:52:01:DC:2C:7A:57:85:CA:30:39:30:F0:D5:5D:5A:31:03:02
                DirName:/CN=DELHICA_CA/C=IN/O=CITRIX/OU=ANG/ST=KA/emailAddress=DELHICA_CA@DELHICA_mail.com
                serial:94:59:DC:51:4E:A5:13:27

            Authority Information Access: 
                OCSP - URI:http://DELHICA_two.ocsptest.com/responderpath

    Signature Algorithm: sha256WithRSAEncryption
         a5:a3:d3:5e:83:24:2e:e2:e5:87:72:69:c2:10:0d:a3:c2:04:
         47:80:37:d3:b8:3a:78:3e:c0:15:9f:92:8f:ec:df:3c:9f:68:
         c2:b9:0f:5a:c1:15:8e:ff:cf:59:92:12:6f:5c:bf:a7:d9:1a:
         f2:bb:60:d5:29:0c:14:63:e2:2b:e6:7e:b7:4b:19:06:bf:46:
         75:34:14:14:92:01:d8:bf:48:de:eb:1e:e6:ca:53:4b:62:66:
         cb:3b:ca:a4:2f:8c:1d:fd:60:d3:11:71:68:cb:f6:fc:d4:ab:
         fd:28:8b:cf:6c:d3:c0:e0:f2:24:cb:a9:fb:b4:9c:0a:f7:9f:
         1d:7b:9a:94:17:12:05:b5:ae:fd:39:e8:1c:3c:a8:1f:47:fd:
         34:29:8f:b4:db:29:d0:b1:5c:8a:05:4b:c1:85:d0:21:38:d7:
         f3:3d:04:0c:e4:d2:0e:02:33:8b:43:9a:cb:9b:1d:95:9a:07:
         97:97:c0:22:3d:02:15:d6:3f:51:5d:38:31:e8:3a:90:56:e1:
         8d:c1:3f:c1:aa:2c:9e:ed:5c:84:56:1e:42:58:7f:00:0d:6b:
         e4:25:2e:c1:93:a4:05:83:ed:aa:db:a1:e4:59:9d:3b:85:ea:
         0a:f6:36:2a:c6:39:71:db:bc:65:bd:2c:cc:4d:a7:2d:75:b7:
         24:ac:8c:b5
-----BEGIN CERTIFICATE-----
MIIEnDCCA4SgAwIBAgIGCgsMDQ4fMA0GCSqGSIb3DQEBCwUAMHoxEzARBgNVBAMU
CkRFTEhJQ0FfQ0ExCzAJBgNVBAYTAklOMQ8wDQYDVQQKEwZDSVRSSVgxDDAKBgNV
BAsTA0FORzELMAkGA1UECBMCS0ExKjAoBgkqhkiG9w0BCQEWG0RFTEhJQ0FfQ0FA
REVMSElDQV9tYWlsLmNvbTAeFw0xNjA3MDgwNDM0MjZaFw0yNjA3MDYwNDM0MjZa
MHAxCzAJBgNVBAgTAktBMQswCQYDVQQGEwJJTjEbMBkGA1UEAxQSMTE3X0RFTEhJ
Q0Ffc2VydmVyMSYwJAYJKoZIhvcNAQkBFhcxMTdfREVMSElDQUB0ZXN0X2NhLmNv
bTEPMA0GA1UEChMGQ0lUUklYMIIBIjANBgkqhkiG9w0BAQEFAAOCAQ8AMIIBCgKC
AQEArVbFiGi77M7BYkuL+pP7K/A0rAx7m2rfI2AmxRkSzX+shkARjXmuLyIh538P
uW03CQo62Ud62Cal2vw2QFw4km+Oi3ZM4UJu7XcST4V6Ao6QuPjzTvDz5GQoTwLZ
LhukB2zuPzCXr/Hvt1muNTQwWNaiPETnY8GV1+PGVCGM/nEvG67OfHWS6Di1mwP2
gfvE2yf5RcSiadALi/46cl5qGbwT4SRf3/TW6oZEUN6hA3kW/O3r2Gh9YkUy4PaL
pe/7gyQLpFhTt9R+9J9/2oWYTkGKLx6361yS354f7S7eXABOH9mfI2yFrhSfI/fV
w+dUe7haWFNlyPOxji9IR9ll7QIDAQABo4IBMDCCASwwEQYJYIZIAYb4QgEBBAQD
AgZAMB0GA1UdDgQWBBSZRUIZfEUFaXwTdJ4hNRXMUlVJKTCBrAYDVR0jBIGkMIGh
gBTXN1IB3Cx6V4XKMDkw8NVdWjEDAqF+pHwwejETMBEGA1UEAxQKREVMSElDQV9D
QTELMAkGA1UEBhMCSU4xDzANBgNVBAoTBkNJVFJJWDEMMAoGA1UECxMDQU5HMQsw
CQYDVQQIEwJLQTEqMCgGCSqGSIb3DQEJARYbREVMSElDQV9DQUBERUxISUNBX21h
aWwuY29tggkAlFncUU6lEycwSQYIKwYBBQUHAQEEPTA7MDkGCCsGAQUFBzABhi1o
dHRwOi8vREVMSElDQV90d28ub2NzcHRlc3QuY29tL3Jlc3BvbmRlcnBhdGgwDQYJ
KoZIhvcNAQELBQADggEBAKWj016DJC7i5YdyacIQDaPCBEeAN9O4Ong+wBWfko/s
3zyfaMK5D1rBFY7/z1mSEm9cv6fZGvK7YNUpDBRj4ivmfrdLGQa/RnU0FBSSAdi/
SN7rHubKU0tiZss7yqQvjB39YNMRcWjL9vzUq/0oi89s08Dg8iTLqfu0nAr3nx17
mpQXEgW1rv056Bw8qB9H/TQpj7TbKdCxXIoFS8GF0CE41/M9BAzk0g4CM4tDmsub
HZWaB5eXwCI9AhXWP1FdODHoOpBW4Y3BP8GqLJ7tXIRWHkJYfwANa+QlLsGTpAWD
7arboeRZnTuF6gr2NirGOXHbvGW9LMxNpy11tySsjLU=
-----END CERTIFICATE-----
