Certificate:
    Data:
        Version: 3 (0x2)
        Serial Number: 11042563100253 (0xa0b0c0d0e5d)
    Signature Algorithm: sha256WithRSAEncryption
        Issuer: CN=DELHICA_CA, C=IN, O=CITRIX, OU=ANG, ST=KA/emailAddress=DELHICA_CA@DELHICA_mail.com
        Validity
            Not Before: Aug 23 10:50:56 2017 GMT
            Not After : Aug 21 10:50:56 2027 GMT
        Subject: ST=KA, C=IN, CN=delhi_39_client/emailAddress=delhi_39@test_ca.com, O=CITRIX
        Subject Public Key Info:
            Public Key Algorithm: rsaEncryption
                Public-Key: (2048 bit)
                Modulus:
                    00:bc:a6:53:7b:3e:22:a8:90:13:a2:52:43:8f:35:
                    35:32:0d:60:97:0d:fb:d6:f6:a1:63:8a:50:d4:ee:
                    88:0f:08:af:ef:fd:dc:19:19:21:8c:9e:2c:94:c2:
                    83:e1:13:59:45:b8:4a:4e:fb:8b:fb:19:b5:f0:3c:
                    20:d7:22:33:5f:73:02:1f:b5:19:92:f8:ed:5d:ea:
                    ef:9c:24:60:b3:b9:01:55:3f:ac:b5:ec:2e:55:18:
                    a2:c5:eb:d9:0c:fe:11:8c:0f:8b:86:40:ce:db:c6:
                    2f:3f:a5:44:c9:df:0c:e6:13:40:49:ba:f2:19:3e:
                    f6:5b:5f:39:5c:ae:cf:d8:53:b0:cc:05:2d:c3:6d:
                    97:39:cd:05:e0:ad:64:b2:bf:31:a4:a6:61:ba:a5:
                    4a:4a:73:36:29:d9:9e:70:e0:60:5f:f6:4b:c8:54:
                    f7:db:8c:19:9f:3f:09:f2:18:73:e6:c8:bb:fa:f5:
                    27:34:62:6e:7c:43:25:d2:cd:49:fe:5c:4a:de:d5:
                    4a:9b:8b:0c:e4:14:47:90:13:4b:34:42:d9:a3:0a:
                    53:b4:15:20:ae:7d:62:80:4b:57:b4:15:17:41:0d:
                    4e:5d:6b:7d:84:68:ed:bb:48:0e:9d:d7:fb:4e:73:
                    52:db:8e:45:d9:36:b0:cf:20:84:1d:ab:87:61:1e:
                    8d:63
                Exponent: 65537 (0x10001)
        X509v3 extensions:
            Netscape Cert Type: 
                SSL Server
            X509v3 Subject Key Identifier: 
                62:6F:52:BF:79:A6:1F:B2:07:B8:39:A9:00:D4:14:17:F9:5C:34:69
            X509v3 Authority Key Identifier: 
                keyid:D7:37:52:01:DC:2C:7A:57:85:CA:30:39:30:F0:D5:5D:5A:31:03:02
                DirName:/CN=DELHICA_CA/C=IN/O=CITRIX/OU=ANG/ST=KA/emailAddress=DELHICA_CA@DELHICA_mail.com
                serial:94:59:DC:51:4E:A5:13:27

            Authority Information Access: 
                OCSP - URI:http://172.20.20.1/responderpath

    Signature Algorithm: sha256WithRSAEncryption
         5b:25:3d:14:82:25:ea:2f:73:db:f3:cc:42:61:ae:e4:b3:f2:
         20:79:00:6b:91:a2:3f:f1:01:87:f2:ee:28:58:1e:7f:85:22:
         05:20:ba:7e:5d:85:4c:75:27:7c:69:f3:01:fa:a4:d5:32:29:
         56:9e:00:eb:77:5a:1e:5d:b7:5a:9a:70:a4:ed:90:ce:7c:ad:
         71:63:e3:fe:04:71:46:b7:14:94:4e:cd:50:37:23:29:1a:05:
         d3:31:34:4e:09:02:41:f3:a8:b0:90:8b:43:98:f1:2c:02:ee:
         ec:27:92:d1:83:75:a3:d9:5c:73:cd:4c:3c:4d:a6:4d:6f:51:
         36:f9:d6:c2:4f:9c:76:7f:3b:55:fd:09:78:a2:73:ab:27:92:
         ce:e6:08:21:6f:18:2a:69:4e:55:14:ff:f6:56:d6:19:03:aa:
         2d:85:28:d5:18:0b:41:8b:36:d4:0e:dd:8a:7b:0e:5e:4c:66:
         9a:f3:0d:bc:22:ba:ec:54:a1:b5:f0:e9:b4:f4:d3:25:a0:d3:
         59:8e:b3:11:f5:6c:34:ba:76:30:6b:5c:62:9b:7e:5c:4d:62:
         e2:77:19:85:0d:4b:aa:0d:58:90:b6:63:8c:f5:ef:4d:18:9a:
         a7:97:71:b8:05:19:36:af:ee:df:df:be:02:84:07:59:be:77:
         1c:2d:e7:fd
-----BEGIN CERTIFICATE-----
MIIEiTCCA3GgAwIBAgIGCgsMDQ5dMA0GCSqGSIb3DQEBCwUAMHoxEzARBgNVBAMU
CkRFTEhJQ0FfQ0ExCzAJBgNVBAYTAklOMQ8wDQYDVQQKEwZDSVRSSVgxDDAKBgNV
BAsTA0FORzELMAkGA1UECBMCS0ExKjAoBgkqhkiG9w0BCQEWG0RFTEhJQ0FfQ0FA
REVMSElDQV9tYWlsLmNvbTAeFw0xNzA4MjMxMDUwNTZaFw0yNzA4MjExMDUwNTZa
MGoxCzAJBgNVBAgTAktBMQswCQYDVQQGEwJJTjEYMBYGA1UEAxQPZGVsaGlfMzlf
Y2xpZW50MSMwIQYJKoZIhvcNAQkBFhRkZWxoaV8zOUB0ZXN0X2NhLmNvbTEPMA0G
A1UEChMGQ0lUUklYMIIBIjANBgkqhkiG9w0BAQEFAAOCAQ8AMIIBCgKCAQEAvKZT
ez4iqJATolJDjzU1Mg1glw371vahY4pQ1O6IDwiv7/3cGRkhjJ4slMKD4RNZRbhK
TvuL+xm18Dwg1yIzX3MCH7UZkvjtXervnCRgs7kBVT+stewuVRiixevZDP4RjA+L
hkDO28YvP6VEyd8M5hNASbryGT72W185XK7P2FOwzAUtw22XOc0F4K1ksr8xpKZh
uqVKSnM2KdmecOBgX/ZLyFT324wZnz8J8hhz5si7+vUnNGJufEMl0s1J/lxK3tVK
m4sM5BRHkBNLNELZowpTtBUgrn1igEtXtBUXQQ1OXWt9hGjtu0gOndf7TnNS245F
2TawzyCEHauHYR6NYwIDAQABo4IBIzCCAR8wEQYJYIZIAYb4QgEBBAQDAgZAMB0G
A1UdDgQWBBRib1K/eaYfsge4OakA1BQX+Vw0aTCBrAYDVR0jBIGkMIGhgBTXN1IB
3Cx6V4XKMDkw8NVdWjEDAqF+pHwwejETMBEGA1UEAxQKREVMSElDQV9DQTELMAkG
A1UEBhMCSU4xDzANBgNVBAoTBkNJVFJJWDEMMAoGA1UECxMDQU5HMQswCQYDVQQI
EwJLQTEqMCgGCSqGSIb3DQEJARYbREVMSElDQV9DQUBERUxISUNBX21haWwuY29t
ggkAlFncUU6lEycwPAYIKwYBBQUHAQEEMDAuMCwGCCsGAQUFBzABhiBodHRwOi8v
MTcyLjIwLjIwLjEvcmVzcG9uZGVycGF0aDANBgkqhkiG9w0BAQsFAAOCAQEAWyU9
FIIl6i9z2/PMQmGu5LPyIHkAa5GiP/EBh/LuKFgef4UiBSC6fl2FTHUnfGnzAfqk
1TIpVp4A63daHl23WppwpO2QznytcWPj/gRxRrcUlE7NUDcjKRoF0zE0TgkCQfOo
sJCLQ5jxLALu7CeS0YN1o9lcc81MPE2mTW9RNvnWwk+cdn87Vf0JeKJzqyeSzuYI
IW8YKmlOVRT/9lbWGQOqLYUo1RgLQYs21A7dinsOXkxmmvMNvCK67FShtfDptPTT
JaDTWY6zEfVsNLp2MGtcYpt+XE1i4ncZhQ1Lqg1YkLZjjPXvTRiap5dxuAUZNq/u
39++AoQHWb53HC3n/Q==
-----END CERTIFICATE-----
