Certificate:
    Data:
        Version: 3 (0x2)
        Serial Number: 11042563100207 (0xa0b0c0d0e2f)
    Signature Algorithm: sha256WithRSAEncryption
        Issuer: CN=DELHICA_CA, C=IN, O=CITRIX, OU=ANG, ST=KA/emailAddress=DELHICA_CA@DELHICA_mail.com
        Validity
            Not Before: Jul  8 04:34:30 2016 GMT
            Not After : Jul  6 04:34:30 2026 GMT
        Subject: ST=KA, C=IN, CN=133_DELHICA_server/emailAddress=133_DELHICA@test_ca.com, O=CITRIX
        Subject Public Key Info:
            Public Key Algorithm: rsaEncryption
                Public-Key: (2048 bit)
                Modulus:
                    00:b2:94:49:c5:f6:df:bb:3c:29:06:6a:b9:19:9f:
                    03:2d:64:57:b0:4e:90:11:ba:11:fc:30:8f:0c:f2:
                    fc:34:de:35:8c:10:b2:31:18:88:0b:64:c3:72:83:
                    05:87:92:4d:cd:bd:ed:da:18:55:b8:d3:9a:ed:be:
                    ae:43:53:1f:a5:3b:7a:41:a3:e7:2d:40:a4:9b:51:
                    45:26:fd:06:1d:5c:53:4a:1b:8e:99:7e:36:bf:fa:
                    da:0f:9c:f9:9c:62:be:4d:f4:ae:e3:18:ee:ea:65:
                    bd:2a:48:dc:b7:b9:c8:94:7d:77:6e:4e:66:13:b5:
                    aa:0a:50:cc:d6:db:5b:37:0b:0b:42:18:1b:31:59:
                    85:aa:1e:02:d3:ef:b4:f8:0a:27:74:ed:2b:09:03:
                    6a:8d:50:c0:69:30:4f:42:a5:ce:66:64:1c:0c:e5:
                    e4:bc:7f:b2:00:79:71:85:0f:83:f3:94:0a:f9:c2:
                    3c:6d:6d:9e:07:9f:9d:58:5b:98:c1:b4:e3:3f:31:
                    ee:c3:8f:ed:87:6c:dc:3a:46:fe:ac:b4:f2:9f:5f:
                    1c:40:e2:9c:92:94:44:83:10:5f:27:ce:11:c5:3a:
                    b6:fd:96:40:c4:4d:e4:f8:eb:ae:6b:47:9e:f4:f5:
                    f8:7a:ee:1c:ad:65:41:fd:04:4f:f2:3b:ea:b8:62:
                    0e:fd
                Exponent: 65537 (0x10001)
        X509v3 extensions:
            Netscape Cert Type: 
                SSL Server
            X509v3 Subject Key Identifier: 
                6D:4E:8D:18:49:9F:4F:0C:3F:A1:51:D6:75:43:E0:52:61:B9:FA:2E
            X509v3 Authority Key Identifier: 
                keyid:D7:37:52:01:DC:2C:7A:57:85:CA:30:39:30:F0:D5:5D:5A:31:03:02
                DirName:/CN=DELHICA_CA/C=IN/O=CITRIX/OU=ANG/ST=KA/emailAddress=DELHICA_CA@DELHICA_mail.com
                serial:94:59:DC:51:4E:A5:13:27

            Authority Information Access: 
                OCSP - URI:http://172.20.20.1/responderpath

    Signature Algorithm: sha256WithRSAEncryption
         15:11:3e:e8:a3:46:3c:f8:1d:d2:4c:f8:c2:71:dc:f2:4d:2f:
         fd:d1:d0:9a:3b:77:a3:27:81:7b:9a:74:c3:23:c3:b7:bb:a6:
         3c:cc:3b:e2:50:b8:3b:9f:7c:94:00:ea:38:7b:c0:4c:56:ac:
         4f:35:ee:49:b5:12:99:11:1f:38:5a:6d:53:be:fe:dd:12:54:
         a6:5d:8e:23:3f:be:8d:90:71:4a:f2:b8:9e:c7:12:af:ac:a3:
         84:70:d6:d9:14:c3:de:8d:82:3d:4e:36:d5:44:72:2b:ae:81:
         b0:fd:6a:78:44:61:38:fb:88:c7:3d:14:14:98:d3:7b:23:dd:
         87:dc:89:bd:9a:d9:3d:f9:47:05:f4:b8:98:26:95:7d:d1:77:
         52:42:f6:e6:d2:58:e5:db:9d:1a:a7:4d:bd:84:2c:58:70:e4:
         41:c2:fa:2d:cd:85:49:c5:f0:71:5b:7c:cf:f9:8d:e6:14:7f:
         a6:7b:e0:b0:e4:a6:5c:5a:e2:45:cb:44:da:12:c0:a0:1c:7d:
         d0:67:c3:4c:f4:ae:53:ea:d3:65:6e:f3:ed:63:22:e2:1a:39:
         79:dc:29:7f:74:7d:54:6d:ef:75:52:17:27:8b:47:1a:1c:c7:
         15:0f:e1:20:42:bf:2b:bf:85:af:aa:d7:e0:50:6a:a0:cd:bd:
         40:92:f2:66
-----BEGIN CERTIFICATE-----
MIIEjzCCA3egAwIBAgIGCgsMDQ4vMA0GCSqGSIb3DQEBCwUAMHoxEzARBgNVBAMU
CkRFTEhJQ0FfQ0ExCzAJBgNVBAYTAklOMQ8wDQYDVQQKEwZDSVRSSVgxDDAKBgNV
BAsTA0FORzELMAkGA1UECBMCS0ExKjAoBgkqhkiG9w0BCQEWG0RFTEhJQ0FfQ0FA
REVMSElDQV9tYWlsLmNvbTAeFw0xNjA3MDgwNDM0MzBaFw0yNjA3MDYwNDM0MzBa
MHAxCzAJBgNVBAgTAktBMQswCQYDVQQGEwJJTjEbMBkGA1UEAxQSMTMzX0RFTEhJ
Q0Ffc2VydmVyMSYwJAYJKoZIhvcNAQkBFhcxMzNfREVMSElDQUB0ZXN0X2NhLmNv
bTEPMA0GA1UEChMGQ0lUUklYMIIBIjANBgkqhkiG9w0BAQEFAAOCAQ8AMIIBCgKC
AQEAspRJxfbfuzwpBmq5GZ8DLWRXsE6QEboR/DCPDPL8NN41jBCyMRiIC2TDcoMF
h5JNzb3t2hhVuNOa7b6uQ1MfpTt6QaPnLUCkm1FFJv0GHVxTShuOmX42v/raD5z5
nGK+TfSu4xju6mW9Kkjct7nIlH13bk5mE7WqClDM1ttbNwsLQhgbMVmFqh4C0++0
+AondO0rCQNqjVDAaTBPQqXOZmQcDOXkvH+yAHlxhQ+D85QK+cI8bW2eB5+dWFuY
wbTjPzHuw4/th2zcOkb+rLTyn18cQOKckpREgxBfJ84RxTq2/ZZAxE3k+Ouua0ee
9PX4eu4crWVB/QRP8jvquGIO/QIDAQABo4IBIzCCAR8wEQYJYIZIAYb4QgEBBAQD
AgZAMB0GA1UdDgQWBBRtTo0YSZ9PDD+hUdZ1Q+BSYbn6LjCBrAYDVR0jBIGkMIGh
gBTXN1IB3Cx6V4XKMDkw8NVdWjEDAqF+pHwwejETMBEGA1UEAxQKREVMSElDQV9D
QTELMAkGA1UEBhMCSU4xDzANBgNVBAoTBkNJVFJJWDEMMAoGA1UECxMDQU5HMQsw
CQYDVQQIEwJLQTEqMCgGCSqGSIb3DQEJARYbREVMSElDQV9DQUBERUxISUNBX21h
aWwuY29tggkAlFncUU6lEycwPAYIKwYBBQUHAQEEMDAuMCwGCCsGAQUFBzABhiBo
dHRwOi8vMTcyLjIwLjIwLjEvcmVzcG9uZGVycGF0aDANBgkqhkiG9w0BAQsFAAOC
AQEAFRE+6KNGPPgd0kz4wnHc8k0v/dHQmjt3oyeBe5p0wyPDt7umPMw74lC4O598
lADqOHvATFasTzXuSbUSmREfOFptU77+3RJUpl2OIz++jZBxSvK4nscSr6yjhHDW
2RTD3o2CPU421URyK66BsP1qeERhOPuIxz0UFJjTeyPdh9yJvZrZPflHBfS4mCaV
fdF3UkL25tJY5dudGqdNvYQsWHDkQcL6Lc2FScXwcVt8z/mN5hR/pnvgsOSmXFri
RctE2hLAoBx90GfDTPSuU+rTZW7z7WMi4ho5edwpf3R9VG3vdVIXJ4tHGhzHFQ/h
IEK/K7+Fr6rX4FBqoM29QJLyZg==
-----END CERTIFICATE-----
