Certificate:
    Data:
        Version: 3 (0x2)
        Serial Number: 11042563100248 (0xa0b0c0d0e58)
    Signature Algorithm: sha256WithRSAEncryption
        Issuer: CN=DELHICA_CA, C=IN, O=CITRIX, OU=ANG, ST=KA/emailAddress=DELHICA_CA@DELHICA_mail.com
        Validity
            Not Before: Aug 23 10:50:51 2017 GMT
            Not After : Aug 21 10:50:51 2027 GMT
        Subject: ST=KA, C=IN, CN=delhi_34_client/emailAddress=delhi_34@test_ca.com, O=CITRIX
        Subject Public Key Info:
            Public Key Algorithm: rsaEncryption
                Public-Key: (2048 bit)
                Modulus:
                    00:bb:39:5f:5d:b4:6c:6d:3c:ca:bb:bd:bc:a4:99:
                    8c:71:62:c5:68:a3:ed:26:60:be:63:0a:92:29:56:
                    80:8b:5f:2f:83:10:fb:3f:84:f2:5c:f7:eb:6d:6e:
                    23:0a:f8:cc:0a:3f:a9:36:a6:cd:a6:6a:51:08:d0:
                    97:eb:a7:db:3f:8e:d6:0d:c9:4e:b0:30:92:5f:55:
                    fb:d7:2d:1f:6c:8d:ec:98:1e:43:a1:52:72:9e:ec:
                    70:d8:35:3b:f9:d7:20:05:0f:24:f2:ca:ba:6f:d1:
                    e3:d6:c3:7b:10:de:44:2b:82:ff:3c:bc:fc:4d:3a:
                    ad:d6:d8:f5:eb:b7:e2:67:08:f3:5b:53:00:09:e3:
                    fd:5a:7e:45:86:18:13:d2:2b:8f:dc:9e:f9:df:9d:
                    d7:f7:b5:6d:20:20:28:64:de:d1:0c:92:ef:94:d0:
                    6b:10:41:44:ff:7d:ea:e8:0e:8d:c6:b7:45:c7:50:
                    78:cd:b3:cb:29:86:c0:9d:35:49:ad:71:e4:f9:6a:
                    4a:d3:a9:27:40:47:54:3b:28:62:ee:87:8f:15:b2:
                    88:21:5f:55:4f:82:5c:3b:74:86:70:15:6e:dc:b1:
                    d2:9d:e4:31:4a:ac:59:d1:49:8f:f3:fa:f9:35:96:
                    10:37:ad:23:6a:8a:c6:22:d9:ca:f5:52:86:65:8e:
                    9e:c3
                Exponent: 65537 (0x10001)
        X509v3 extensions:
            Netscape Cert Type: 
                SSL Server
            X509v3 Subject Key Identifier: 
                35:15:9D:B0:CB:4A:44:51:96:10:46:F4:41:1A:86:CA:56:18:F5:45
            X509v3 Authority Key Identifier: 
                keyid:D7:37:52:01:DC:2C:7A:57:85:CA:30:39:30:F0:D5:5D:5A:31:03:02
                DirName:/CN=DELHICA_CA/C=IN/O=CITRIX/OU=ANG/ST=KA/emailAddress=DELHICA_CA@DELHICA_mail.com
                serial:94:59:DC:51:4E:A5:13:27

            Authority Information Access: 
                OCSP - URI:http://172.20.20.1/responderpath

    Signature Algorithm: sha256WithRSAEncryption
         01:a3:ae:b0:7a:65:04:d7:52:c0:b4:ba:de:71:63:01:5a:b9:
         7e:9f:21:87:e4:92:42:d8:28:d9:0b:7e:3e:ee:46:ae:cc:4f:
         1f:73:1e:ed:38:4f:3c:14:47:fc:89:2c:68:e5:ed:3b:62:75:
         50:5e:7c:88:b7:93:b0:37:4a:88:a8:0c:63:3b:97:34:77:3f:
         4b:46:89:75:73:fc:f9:18:75:ac:34:40:55:a2:ae:af:a3:28:
         ff:97:61:c1:bc:0d:ea:fd:00:64:98:68:b4:da:5c:7d:94:1c:
         b5:a2:18:a2:bb:79:0b:65:78:17:3e:ad:53:eb:05:c8:07:d0:
         c3:23:0a:d7:5b:a5:a4:32:0a:8b:66:db:6a:76:42:7d:6c:c8:
         97:07:dd:a0:9a:3f:ad:bc:7f:26:47:08:a3:85:b0:42:e6:2b:
         d3:e9:b1:f5:55:30:48:12:c0:76:e7:6b:1b:83:07:50:b9:07:
         e1:21:cc:dd:a9:17:28:76:f9:d6:68:80:23:c6:72:07:86:68:
         b8:dd:d3:e9:b5:18:22:95:ae:13:be:02:e1:12:bb:a5:39:ef:
         c6:b3:02:a6:30:0b:35:0b:8c:90:ff:e7:66:d2:18:3e:c7:8a:
         19:fa:e1:db:db:8e:33:80:74:ff:b2:65:7d:75:a0:d4:fd:b3:
         53:e5:8f:84
-----BEGIN CERTIFICATE-----
MIIEiTCCA3GgAwIBAgIGCgsMDQ5YMA0GCSqGSIb3DQEBCwUAMHoxEzARBgNVBAMU
CkRFTEhJQ0FfQ0ExCzAJBgNVBAYTAklOMQ8wDQYDVQQKEwZDSVRSSVgxDDAKBgNV
BAsTA0FORzELMAkGA1UECBMCS0ExKjAoBgkqhkiG9w0BCQEWG0RFTEhJQ0FfQ0FA
REVMSElDQV9tYWlsLmNvbTAeFw0xNzA4MjMxMDUwNTFaFw0yNzA4MjExMDUwNTFa
MGoxCzAJBgNVBAgTAktBMQswCQYDVQQGEwJJTjEYMBYGA1UEAxQPZGVsaGlfMzRf
Y2xpZW50MSMwIQYJKoZIhvcNAQkBFhRkZWxoaV8zNEB0ZXN0X2NhLmNvbTEPMA0G
A1UEChMGQ0lUUklYMIIBIjANBgkqhkiG9w0BAQEFAAOCAQ8AMIIBCgKCAQEAuzlf
XbRsbTzKu728pJmMcWLFaKPtJmC+YwqSKVaAi18vgxD7P4TyXPfrbW4jCvjMCj+p
NqbNpmpRCNCX66fbP47WDclOsDCSX1X71y0fbI3smB5DoVJynuxw2DU7+dcgBQ8k
8sq6b9Hj1sN7EN5EK4L/PLz8TTqt1tj167fiZwjzW1MACeP9Wn5FhhgT0iuP3J75
353X97VtICAoZN7RDJLvlNBrEEFE/33q6A6NxrdFx1B4zbPLKYbAnTVJrXHk+WpK
06knQEdUOyhi7oePFbKIIV9VT4JcO3SGcBVu3LHSneQxSqxZ0UmP8/r5NZYQN60j
aorGItnK9VKGZY6ewwIDAQABo4IBIzCCAR8wEQYJYIZIAYb4QgEBBAQDAgZAMB0G
A1UdDgQWBBQ1FZ2wy0pEUZYQRvRBGobKVhj1RTCBrAYDVR0jBIGkMIGhgBTXN1IB
3Cx6V4XKMDkw8NVdWjEDAqF+pHwwejETMBEGA1UEAxQKREVMSElDQV9DQTELMAkG
A1UEBhMCSU4xDzANBgNVBAoTBkNJVFJJWDEMMAoGA1UECxMDQU5HMQswCQYDVQQI
EwJLQTEqMCgGCSqGSIb3DQEJARYbREVMSElDQV9DQUBERUxISUNBX21haWwuY29t
ggkAlFncUU6lEycwPAYIKwYBBQUHAQEEMDAuMCwGCCsGAQUFBzABhiBodHRwOi8v
MTcyLjIwLjIwLjEvcmVzcG9uZGVycGF0aDANBgkqhkiG9w0BAQsFAAOCAQEAAaOu
sHplBNdSwLS63nFjAVq5fp8hh+SSQtgo2Qt+Pu5GrsxPH3Me7ThPPBRH/IksaOXt
O2J1UF58iLeTsDdKiKgMYzuXNHc/S0aJdXP8+Rh1rDRAVaKur6Mo/5dhwbwN6v0A
ZJhotNpcfZQctaIYort5C2V4Fz6tU+sFyAfQwyMK11ulpDIKi2bbanZCfWzIlwfd
oJo/rbx/JkcIo4WwQuYr0+mx9VUwSBLAdudrG4MHULkH4SHM3akXKHb51miAI8Zy
B4ZouN3T6bUYIpWuE74C4RK7pTnvxrMCpjALNQuMkP/nZtIYPseKGfrh29uOM4B0
/7JlfXWg1P2zU+WPhA==
-----END CERTIFICATE-----
