Certificate:
    Data:
        Version: 3 (0x2)
        Serial Number: 11042563100237 (0xa0b0c0d0e4d)
    Signature Algorithm: sha256WithRSAEncryption
        Issuer: CN=DELHICA_CA, C=IN, O=CITRIX, OU=ANG, ST=KA/emailAddress=DELHICA_CA@DELHICA_mail.com
        Validity
            Not Before: Aug 23 10:50:43 2017 GMT
            Not After : Aug 21 10:50:43 2027 GMT
        Subject: ST=KA, C=IN, CN=delhi_23_client/emailAddress=delhi_23@test_ca.com, O=CITRIX
        Subject Public Key Info:
            Public Key Algorithm: rsaEncryption
                Public-Key: (2048 bit)
                Modulus:
                    00:cc:a2:2c:24:6c:3d:82:5d:e8:49:24:d1:8f:0d:
                    20:d8:78:b9:8c:4d:ea:47:fb:8a:85:84:da:8f:e7:
                    f7:8c:4f:37:71:36:71:33:31:9c:d7:a5:55:22:5e:
                    80:44:4f:f6:db:ea:33:ee:e6:18:c7:75:67:64:82:
                    0a:a1:01:89:11:5d:a7:55:e6:7c:fe:00:16:c1:ab:
                    a2:02:59:d0:69:c6:67:6f:91:66:45:72:9f:c7:43:
                    a4:bf:ec:8c:49:71:15:54:a0:a7:d1:ca:7a:15:58:
                    54:71:26:84:1c:57:79:64:bc:8b:ec:de:12:cf:4b:
                    7c:c4:aa:ea:82:a7:a6:59:bf:a4:eb:e1:d2:d6:d4:
                    c2:fe:c4:72:34:2c:7f:e1:db:8c:c8:71:bb:0f:f2:
                    1a:89:28:cd:a9:cf:75:80:bf:6e:91:b1:6e:c4:0a:
                    46:80:bc:b8:96:29:a4:e4:33:01:79:8c:b3:18:74:
                    61:70:97:23:29:5e:59:8b:08:3b:71:34:5a:db:ee:
                    4a:73:eb:7b:4a:6e:9e:b8:3c:f1:1f:30:2e:93:3d:
                    c7:1a:14:00:31:ec:28:09:c4:a5:a0:ce:55:90:53:
                    10:36:f3:f1:25:13:79:d8:02:f8:1b:aa:2b:19:27:
                    ae:56:a4:e4:fe:1f:14:9a:27:db:7f:11:45:72:61:
                    63:65
                Exponent: 65537 (0x10001)
        X509v3 extensions:
            Netscape Cert Type: 
                SSL Server
            X509v3 Subject Key Identifier: 
                E6:C8:64:9A:3E:DB:DB:C9:2B:C5:1E:1E:60:58:04:48:41:24:88:40
            X509v3 Authority Key Identifier: 
                keyid:D7:37:52:01:DC:2C:7A:57:85:CA:30:39:30:F0:D5:5D:5A:31:03:02
                DirName:/CN=DELHICA_CA/C=IN/O=CITRIX/OU=ANG/ST=KA/emailAddress=DELHICA_CA@DELHICA_mail.com
                serial:94:59:DC:51:4E:A5:13:27

            Authority Information Access: 
                OCSP - URI:http://172.20.20.1/responderpath

    Signature Algorithm: sha256WithRSAEncryption
         b3:15:c4:21:ba:26:e8:28:3d:f7:03:fd:49:ae:0e:f9:40:d6:
         7b:92:aa:8b:12:55:16:80:58:9f:53:85:f4:57:eb:a1:7a:86:
         2b:76:9d:a3:98:d7:d8:5d:68:d2:a5:cb:fa:6e:3d:5c:07:c0:
         bb:8d:b8:9d:33:a2:fd:cc:88:45:28:1f:fb:06:23:08:13:ac:
         1e:52:82:a6:51:cf:91:73:86:33:c7:83:43:f4:18:83:03:ba:
         6a:73:a3:72:9a:82:99:00:1a:de:a3:6b:5c:55:8f:c3:b9:84:
         39:3b:ea:b0:5d:3e:0f:35:f4:a7:0f:dc:8e:67:58:4f:6e:83:
         21:ac:8b:55:8f:5e:1a:d9:ce:dd:4a:c4:1c:0d:49:56:74:31:
         5f:99:18:ca:5c:f5:61:a3:a0:dc:d9:86:0b:6e:b1:94:5e:66:
         15:e3:db:c7:8a:64:fe:2e:97:43:74:41:72:11:b7:74:3a:b2:
         16:95:de:d0:3e:c5:3c:ec:0d:30:e2:81:f2:55:19:a4:88:e1:
         62:6b:fa:6f:14:8e:90:d4:e0:7a:38:2c:ac:84:5e:a5:59:d5:
         18:ac:1d:a0:3d:81:29:10:f6:fb:bd:8a:4d:ad:77:1f:53:33:
         62:47:8b:79:57:33:e8:f3:15:ff:b9:ff:4f:3c:77:2b:b8:29:
         9c:7f:cf:46
-----BEGIN CERTIFICATE-----
MIIEiTCCA3GgAwIBAgIGCgsMDQ5NMA0GCSqGSIb3DQEBCwUAMHoxEzARBgNVBAMU
CkRFTEhJQ0FfQ0ExCzAJBgNVBAYTAklOMQ8wDQYDVQQKEwZDSVRSSVgxDDAKBgNV
BAsTA0FORzELMAkGA1UECBMCS0ExKjAoBgkqhkiG9w0BCQEWG0RFTEhJQ0FfQ0FA
REVMSElDQV9tYWlsLmNvbTAeFw0xNzA4MjMxMDUwNDNaFw0yNzA4MjExMDUwNDNa
MGoxCzAJBgNVBAgTAktBMQswCQYDVQQGEwJJTjEYMBYGA1UEAxQPZGVsaGlfMjNf
Y2xpZW50MSMwIQYJKoZIhvcNAQkBFhRkZWxoaV8yM0B0ZXN0X2NhLmNvbTEPMA0G
A1UEChMGQ0lUUklYMIIBIjANBgkqhkiG9w0BAQEFAAOCAQ8AMIIBCgKCAQEAzKIs
JGw9gl3oSSTRjw0g2Hi5jE3qR/uKhYTaj+f3jE83cTZxMzGc16VVIl6ARE/22+oz
7uYYx3VnZIIKoQGJEV2nVeZ8/gAWwauiAlnQacZnb5FmRXKfx0Okv+yMSXEVVKCn
0cp6FVhUcSaEHFd5ZLyL7N4Sz0t8xKrqgqemWb+k6+HS1tTC/sRyNCx/4duMyHG7
D/IaiSjNqc91gL9ukbFuxApGgLy4limk5DMBeYyzGHRhcJcjKV5Ziwg7cTRa2+5K
c+t7Sm6euDzxHzAukz3HGhQAMewoCcSloM5VkFMQNvPxJRN52AL4G6orGSeuVqTk
/h8UmifbfxFFcmFjZQIDAQABo4IBIzCCAR8wEQYJYIZIAYb4QgEBBAQDAgZAMB0G
A1UdDgQWBBTmyGSaPtvbySvFHh5gWARIQSSIQDCBrAYDVR0jBIGkMIGhgBTXN1IB
3Cx6V4XKMDkw8NVdWjEDAqF+pHwwejETMBEGA1UEAxQKREVMSElDQV9DQTELMAkG
A1UEBhMCSU4xDzANBgNVBAoTBkNJVFJJWDEMMAoGA1UECxMDQU5HMQswCQYDVQQI
EwJLQTEqMCgGCSqGSIb3DQEJARYbREVMSElDQV9DQUBERUxISUNBX21haWwuY29t
ggkAlFncUU6lEycwPAYIKwYBBQUHAQEEMDAuMCwGCCsGAQUFBzABhiBodHRwOi8v
MTcyLjIwLjIwLjEvcmVzcG9uZGVycGF0aDANBgkqhkiG9w0BAQsFAAOCAQEAsxXE
Ibom6Cg99wP9Sa4O+UDWe5KqixJVFoBYn1OF9FfroXqGK3ado5jX2F1o0qXL+m49
XAfAu424nTOi/cyIRSgf+wYjCBOsHlKCplHPkXOGM8eDQ/QYgwO6anOjcpqCmQAa
3qNrXFWPw7mEOTvqsF0+DzX0pw/cjmdYT26DIayLVY9eGtnO3UrEHA1JVnQxX5kY
ylz1YaOg3NmGC26xlF5mFePbx4pk/i6XQ3RBchG3dDqyFpXe0D7FPOwNMOKB8lUZ
pIjhYmv6bxSOkNTgejgsrIRepVnVGKwdoD2BKRD2+72KTa13H1MzYkeLeVcz6PMV
/7n/Tzx3K7gpnH/PRg==
-----END CERTIFICATE-----
