Certificate:
    Data:
        Version: 3 (0x2)
        Serial Number: 11042563100260 (0xa0b0c0d0e64)
    Signature Algorithm: sha256WithRSAEncryption
        Issuer: CN=DELHICA_CA, C=IN, O=CITRIX, OU=ANG, ST=KA/emailAddress=DELHICA_CA@DELHICA_mail.com
        Validity
            Not Before: Aug 23 10:51:00 2017 GMT
            Not After : Aug 21 10:51:00 2027 GMT
        Subject: ST=KA, C=IN, CN=delhi_46_client/emailAddress=delhi_46@test_ca.com, O=CITRIX
        Subject Public Key Info:
            Public Key Algorithm: rsaEncryption
                Public-Key: (2048 bit)
                Modulus:
                    00:bf:b7:85:a1:08:86:9d:ec:a1:3c:30:5f:f9:39:
                    d5:ca:02:7c:e1:36:26:54:1b:f1:e3:ac:3a:04:ea:
                    3f:cb:e3:3f:3e:22:cd:b6:3d:58:e9:da:60:d8:de:
                    f5:c1:e1:59:52:6f:cc:47:24:66:0e:38:26:f7:df:
                    9d:e6:d4:cf:b0:1e:9b:bf:a1:02:5e:53:73:83:91:
                    69:dd:39:71:4b:f5:c4:d4:c9:0e:40:f0:af:e2:77:
                    52:ff:c7:f2:5f:3f:eb:9d:08:d1:b2:1a:4d:01:14:
                    f0:93:1f:98:b2:ac:85:72:1c:ef:08:17:d2:2e:96:
                    dc:e5:c2:36:5b:b8:7a:05:2d:fe:87:0e:9b:54:f8:
                    bb:d3:55:c9:99:2e:1a:20:15:a7:7f:6f:1e:8b:f3:
                    e1:d3:50:33:05:a0:70:62:bd:d7:ae:e9:97:14:98:
                    f0:1e:c0:3e:1d:c9:72:57:78:e0:14:87:55:05:c4:
                    8d:af:c8:7a:bf:37:01:d6:a6:7a:41:df:d5:61:c4:
                    81:ee:26:bb:82:38:24:18:b1:1c:b6:f4:a4:fe:0c:
                    91:8c:43:51:35:4e:b8:cd:0e:87:c4:9f:9d:25:31:
                    20:b5:d3:d1:7e:b3:cc:24:61:53:c9:85:04:9b:03:
                    38:1d:a3:4e:d7:55:77:6c:90:7a:bd:a2:cd:4e:3c:
                    e6:d7
                Exponent: 65537 (0x10001)
        X509v3 extensions:
            Netscape Cert Type: 
                SSL Server
            X509v3 Subject Key Identifier: 
                F6:77:70:3F:9B:0E:70:9D:B2:D7:E8:78:89:3A:B6:4A:8A:19:5E:40
            X509v3 Authority Key Identifier: 
                keyid:D7:37:52:01:DC:2C:7A:57:85:CA:30:39:30:F0:D5:5D:5A:31:03:02
                DirName:/CN=DELHICA_CA/C=IN/O=CITRIX/OU=ANG/ST=KA/emailAddress=DELHICA_CA@DELHICA_mail.com
                serial:94:59:DC:51:4E:A5:13:27

            Authority Information Access: 
                OCSP - URI:http://172.20.20.1/responderpath

    Signature Algorithm: sha256WithRSAEncryption
         72:4d:8e:cf:2a:9d:d1:53:62:2e:e9:a1:c6:60:2a:5c:9f:30:
         e1:ca:84:9e:5a:36:87:6d:bc:6d:85:1a:6c:60:a4:c1:3d:b4:
         75:53:52:d2:dd:58:d7:3e:3e:0d:68:54:ea:4b:16:91:16:73:
         68:89:22:30:d0:ed:7a:03:48:5f:5d:39:b7:0f:03:54:0e:8e:
         1b:21:2e:ca:a4:e8:54:19:c0:26:19:ff:1b:b9:ab:3c:da:fc:
         5b:07:08:f6:a2:5b:e9:46:1a:b3:9a:68:5c:d8:e6:b8:e0:3f:
         1e:e9:1b:9c:c6:10:30:cd:5d:dc:35:04:53:30:41:78:22:cb:
         68:07:df:25:8a:6e:22:b5:43:59:d6:22:9f:08:3f:0f:98:fd:
         69:81:96:71:49:e6:f2:8c:c3:a0:92:6a:e0:cd:17:56:ea:cc:
         f8:a0:23:97:6e:dc:25:f7:04:3d:6d:3a:1e:f4:60:87:34:1c:
         00:22:55:af:74:dc:90:d7:ed:01:3b:39:b9:87:e7:4b:52:9e:
         c2:2c:01:32:b1:ed:30:b3:61:00:24:ed:96:bc:31:7c:2d:13:
         43:b8:c1:13:2f:2f:13:1e:50:91:86:19:2e:87:d5:21:77:9e:
         90:2d:05:27:7e:b2:9c:20:93:53:6e:9a:0a:88:9d:27:e7:8f:
         71:0f:73:fb
-----BEGIN CERTIFICATE-----
MIIEiTCCA3GgAwIBAgIGCgsMDQ5kMA0GCSqGSIb3DQEBCwUAMHoxEzARBgNVBAMU
CkRFTEhJQ0FfQ0ExCzAJBgNVBAYTAklOMQ8wDQYDVQQKEwZDSVRSSVgxDDAKBgNV
BAsTA0FORzELMAkGA1UECBMCS0ExKjAoBgkqhkiG9w0BCQEWG0RFTEhJQ0FfQ0FA
REVMSElDQV9tYWlsLmNvbTAeFw0xNzA4MjMxMDUxMDBaFw0yNzA4MjExMDUxMDBa
MGoxCzAJBgNVBAgTAktBMQswCQYDVQQGEwJJTjEYMBYGA1UEAxQPZGVsaGlfNDZf
Y2xpZW50MSMwIQYJKoZIhvcNAQkBFhRkZWxoaV80NkB0ZXN0X2NhLmNvbTEPMA0G
A1UEChMGQ0lUUklYMIIBIjANBgkqhkiG9w0BAQEFAAOCAQ8AMIIBCgKCAQEAv7eF
oQiGneyhPDBf+TnVygJ84TYmVBvx46w6BOo/y+M/PiLNtj1Y6dpg2N71weFZUm/M
RyRmDjgm99+d5tTPsB6bv6ECXlNzg5Fp3TlxS/XE1MkOQPCv4ndS/8fyXz/rnQjR
shpNARTwkx+YsqyFchzvCBfSLpbc5cI2W7h6BS3+hw6bVPi701XJmS4aIBWnf28e
i/Ph01AzBaBwYr3XrumXFJjwHsA+HclyV3jgFIdVBcSNr8h6vzcB1qZ6Qd/VYcSB
7ia7gjgkGLEctvSk/gyRjENRNU64zQ6HxJ+dJTEgtdPRfrPMJGFTyYUEmwM4HaNO
11V3bJB6vaLNTjzm1wIDAQABo4IBIzCCAR8wEQYJYIZIAYb4QgEBBAQDAgZAMB0G
A1UdDgQWBBT2d3A/mw5wnbLX6HiJOrZKihleQDCBrAYDVR0jBIGkMIGhgBTXN1IB
3Cx6V4XKMDkw8NVdWjEDAqF+pHwwejETMBEGA1UEAxQKREVMSElDQV9DQTELMAkG
A1UEBhMCSU4xDzANBgNVBAoTBkNJVFJJWDEMMAoGA1UECxMDQU5HMQswCQYDVQQI
EwJLQTEqMCgGCSqGSIb3DQEJARYbREVMSElDQV9DQUBERUxISUNBX21haWwuY29t
ggkAlFncUU6lEycwPAYIKwYBBQUHAQEEMDAuMCwGCCsGAQUFBzABhiBodHRwOi8v
MTcyLjIwLjIwLjEvcmVzcG9uZGVycGF0aDANBgkqhkiG9w0BAQsFAAOCAQEAck2O
zyqd0VNiLumhxmAqXJ8w4cqEnlo2h228bYUabGCkwT20dVNS0t1Y1z4+DWhU6ksW
kRZzaIkiMNDtegNIX105tw8DVA6OGyEuyqToVBnAJhn/G7mrPNr8WwcI9qJb6UYa
s5poXNjmuOA/HukbnMYQMM1d3DUEUzBBeCLLaAffJYpuIrVDWdYinwg/D5j9aYGW
cUnm8ozDoJJq4M0XVurM+KAjl27cJfcEPW06HvRghzQcACJVr3TckNftATs5uYfn
S1KewiwBMrHtMLNhACTtlrwxfC0TQ7jBEy8vEx5QkYYZLofVIXeekC0FJ36ynCCT
U26aCoidJ+ePcQ9z+w==
-----END CERTIFICATE-----
