Certificate:
    Data:
        Version: 3 (0x2)
        Serial Number: 11042563100263 (0xa0b0c0d0e67)
    Signature Algorithm: sha256WithRSAEncryption
        Issuer: CN=DELHICA_CA, C=IN, O=CITRIX, OU=ANG, ST=KA/emailAddress=DELHICA_CA@DELHICA_mail.com
        Validity
            Not Before: Aug 23 10:51:02 2017 GMT
            Not After : Aug 21 10:51:02 2027 GMT
        Subject: ST=KA, C=IN, CN=delhi_49_client/emailAddress=delhi_49@test_ca.com, O=CITRIX
        Subject Public Key Info:
            Public Key Algorithm: rsaEncryption
                Public-Key: (2048 bit)
                Modulus:
                    00:c8:03:a3:fa:76:be:f3:55:e5:6a:96:25:a4:4a:
                    92:0d:4f:76:08:e7:04:c6:aa:94:fd:40:e7:af:d4:
                    ee:5b:5a:d7:e3:25:12:5c:01:bf:55:a1:0b:78:80:
                    16:d3:5c:f2:4f:5b:31:c9:1d:3b:63:48:3d:0d:2d:
                    04:fe:fc:b5:51:81:a2:a5:d6:a3:16:d5:0a:c1:c1:
                    9a:af:ee:2b:b2:85:aa:ef:56:32:1d:15:83:d3:e1:
                    3d:bc:39:e0:bb:ad:df:51:c1:ab:f1:54:cf:ef:11:
                    b6:99:83:3a:60:51:58:77:e1:6d:eb:ec:de:e3:ef:
                    06:ba:6e:2d:05:e4:b7:6e:cf:b0:27:36:cc:61:e9:
                    42:25:50:c1:bd:0c:ee:47:ec:5a:ba:6a:3f:61:20:
                    c2:4a:9c:05:9c:99:05:1e:65:96:a4:f2:ce:34:c3:
                    4c:15:ff:68:79:46:9e:2a:96:0b:a1:1d:fb:e5:f7:
                    97:7c:17:a0:48:4c:57:d7:67:fe:d5:8f:b7:bf:f0:
                    30:ea:5a:68:a0:25:1a:83:d8:25:fa:6d:3a:3f:c1:
                    03:c4:bf:a9:29:88:ae:eb:b2:60:51:1c:2d:48:3d:
                    80:04:3d:f1:5c:f3:c5:a7:30:cd:85:a9:2d:a8:aa:
                    e1:be:8b:f5:72:ad:1b:5f:68:7a:ac:5a:e6:9f:d1:
                    90:0b
                Exponent: 65537 (0x10001)
        X509v3 extensions:
            Netscape Cert Type: 
                SSL Server
            X509v3 Subject Key Identifier: 
                25:79:72:4D:14:C1:54:16:84:47:F5:68:4C:13:1E:78:AA:2B:9C:EF
            X509v3 Authority Key Identifier: 
                keyid:D7:37:52:01:DC:2C:7A:57:85:CA:30:39:30:F0:D5:5D:5A:31:03:02
                DirName:/CN=DELHICA_CA/C=IN/O=CITRIX/OU=ANG/ST=KA/emailAddress=DELHICA_CA@DELHICA_mail.com
                serial:94:59:DC:51:4E:A5:13:27

            Authority Information Access: 
                OCSP - URI:http://172.20.20.1/responderpath

    Signature Algorithm: sha256WithRSAEncryption
         d8:ec:1f:c2:c7:21:ab:25:8d:40:7f:04:20:c4:39:6c:f1:d7:
         a9:71:b4:fa:90:68:b9:03:09:1a:6e:42:7a:92:c5:ae:8d:ef:
         03:60:42:e4:6a:91:ab:30:e4:91:59:eb:fe:b2:c3:f4:0b:57:
         30:81:f1:e3:4a:04:8d:b3:ed:f7:08:31:dc:06:84:72:b2:ac:
         a9:9b:3f:f5:48:81:a6:8a:aa:26:50:0f:51:0b:82:db:ee:46:
         c4:c3:bb:e1:e9:8c:f8:53:7f:81:37:5b:78:dc:70:6e:ba:21:
         83:c5:97:6d:f2:bb:cc:31:1f:6c:82:22:58:ff:91:ac:3e:78:
         ab:42:38:11:06:3a:84:28:1d:04:f0:15:f4:06:8c:4d:db:af:
         06:06:c2:19:e9:c9:b4:e1:8b:95:db:c5:7e:a7:f3:86:16:3d:
         45:5b:15:15:dd:93:c7:5a:85:0d:e2:35:3b:cb:a3:9e:71:69:
         d3:43:84:31:7c:f5:a8:93:ec:ff:71:9e:a1:49:58:e2:67:7a:
         68:8f:6e:e0:bd:6c:10:fe:16:aa:07:2e:95:3e:2d:25:61:db:
         64:c8:c5:94:7f:2b:38:b9:83:de:b8:8b:5e:07:83:55:50:9c:
         92:22:83:6b:49:a5:75:6f:de:8c:bc:64:8f:3a:c4:f3:12:ca:
         d7:6a:03:35
-----BEGIN CERTIFICATE-----
MIIEiTCCA3GgAwIBAgIGCgsMDQ5nMA0GCSqGSIb3DQEBCwUAMHoxEzARBgNVBAMU
CkRFTEhJQ0FfQ0ExCzAJBgNVBAYTAklOMQ8wDQYDVQQKEwZDSVRSSVgxDDAKBgNV
BAsTA0FORzELMAkGA1UECBMCS0ExKjAoBgkqhkiG9w0BCQEWG0RFTEhJQ0FfQ0FA
REVMSElDQV9tYWlsLmNvbTAeFw0xNzA4MjMxMDUxMDJaFw0yNzA4MjExMDUxMDJa
MGoxCzAJBgNVBAgTAktBMQswCQYDVQQGEwJJTjEYMBYGA1UEAxQPZGVsaGlfNDlf
Y2xpZW50MSMwIQYJKoZIhvcNAQkBFhRkZWxoaV80OUB0ZXN0X2NhLmNvbTEPMA0G
A1UEChMGQ0lUUklYMIIBIjANBgkqhkiG9w0BAQEFAAOCAQ8AMIIBCgKCAQEAyAOj
+na+81XlapYlpEqSDU92COcExqqU/UDnr9TuW1rX4yUSXAG/VaELeIAW01zyT1sx
yR07Y0g9DS0E/vy1UYGipdajFtUKwcGar+4rsoWq71YyHRWD0+E9vDngu63fUcGr
8VTP7xG2mYM6YFFYd+Ft6+ze4+8Gum4tBeS3bs+wJzbMYelCJVDBvQzuR+xaumo/
YSDCSpwFnJkFHmWWpPLONMNMFf9oeUaeKpYLoR375feXfBegSExX12f+1Y+3v/Aw
6lpooCUag9gl+m06P8EDxL+pKYiu67JgURwtSD2ABD3xXPPFpzDNhaktqKrhvov1
cq0bX2h6rFrmn9GQCwIDAQABo4IBIzCCAR8wEQYJYIZIAYb4QgEBBAQDAgZAMB0G
A1UdDgQWBBQleXJNFMFUFoRH9WhMEx54qiuc7zCBrAYDVR0jBIGkMIGhgBTXN1IB
3Cx6V4XKMDkw8NVdWjEDAqF+pHwwejETMBEGA1UEAxQKREVMSElDQV9DQTELMAkG
A1UEBhMCSU4xDzANBgNVBAoTBkNJVFJJWDEMMAoGA1UECxMDQU5HMQswCQYDVQQI
EwJLQTEqMCgGCSqGSIb3DQEJARYbREVMSElDQV9DQUBERUxISUNBX21haWwuY29t
ggkAlFncUU6lEycwPAYIKwYBBQUHAQEEMDAuMCwGCCsGAQUFBzABhiBodHRwOi8v
MTcyLjIwLjIwLjEvcmVzcG9uZGVycGF0aDANBgkqhkiG9w0BAQsFAAOCAQEA2Owf
wschqyWNQH8EIMQ5bPHXqXG0+pBouQMJGm5CepLFro3vA2BC5GqRqzDkkVnr/rLD
9AtXMIHx40oEjbPt9wgx3AaEcrKsqZs/9UiBpoqqJlAPUQuC2+5GxMO74emM+FN/
gTdbeNxwbrohg8WXbfK7zDEfbIIiWP+RrD54q0I4EQY6hCgdBPAV9AaMTduvBgbC
GenJtOGLldvFfqfzhhY9RVsVFd2Tx1qFDeI1O8ujnnFp00OEMXz1qJPs/3GeoUlY
4md6aI9u4L1sEP4WqgculT4tJWHbZMjFlH8rOLmD3riLXgeDVVCckiKDa0mldW/e
jLxkjzrE8xLK12oDNQ==
-----END CERTIFICATE-----
