Certificate:
    Data:
        Version: 3 (0x2)
        Serial Number: 11042563100256 (0xa0b0c0d0e60)
    Signature Algorithm: sha256WithRSAEncryption
        Issuer: CN=DELHICA_CA, C=IN, O=CITRIX, OU=ANG, ST=KA/emailAddress=DELHICA_CA@DELHICA_mail.com
        Validity
            Not Before: Aug 23 10:50:58 2017 GMT
            Not After : Aug 21 10:50:58 2027 GMT
        Subject: ST=KA, C=IN, CN=delhi_42_client/emailAddress=delhi_42@test_ca.com, O=CITRIX
        Subject Public Key Info:
            Public Key Algorithm: rsaEncryption
                Public-Key: (2048 bit)
                Modulus:
                    00:cf:00:1c:94:ec:5b:19:e9:5f:13:85:61:06:d1:
                    2d:a6:1c:b0:96:23:38:36:59:3f:11:3c:fd:47:66:
                    a4:40:57:b3:51:23:b0:a5:42:02:a9:41:12:23:0b:
                    f8:29:2e:8a:e9:3b:05:1c:34:a4:02:d0:34:04:0c:
                    b1:65:b1:82:18:50:a2:f2:48:7e:ea:7d:05:50:9e:
                    5b:80:af:5c:06:68:bd:a8:7d:5f:71:17:05:2f:c7:
                    2c:07:fc:a5:16:cf:9c:c6:b8:90:05:e9:13:14:0b:
                    c3:11:4d:60:56:85:55:b5:ee:cc:bf:9f:22:57:60:
                    09:f0:4c:14:4a:2d:b1:5e:92:35:1c:04:3a:a2:01:
                    1a:d7:c7:b3:1b:18:eb:13:84:4a:81:87:d7:97:d8:
                    8b:86:b3:68:8a:45:57:4e:6a:10:7a:3d:bc:ec:c3:
                    8a:82:58:e1:66:04:75:19:da:d3:73:16:25:ee:1c:
                    fb:6c:74:9f:a2:51:e8:cb:10:9b:27:c9:8f:4f:f3:
                    9b:0a:b9:9e:5c:88:7f:51:72:33:09:fa:bb:ea:55:
                    87:a1:10:7b:b7:27:04:9a:ae:be:d8:29:89:c0:03:
                    49:97:90:d8:d5:1c:3c:5b:de:4a:5a:98:58:ff:c7:
                    b5:de:57:b8:ef:b5:7f:24:73:cb:92:87:17:27:24:
                    70:59
                Exponent: 65537 (0x10001)
        X509v3 extensions:
            Netscape Cert Type: 
                SSL Server
            X509v3 Subject Key Identifier: 
                15:65:2A:57:DB:EC:4A:12:2C:1E:DB:8E:64:5A:B7:AD:9C:E7:4E:AE
            X509v3 Authority Key Identifier: 
                keyid:D7:37:52:01:DC:2C:7A:57:85:CA:30:39:30:F0:D5:5D:5A:31:03:02
                DirName:/CN=DELHICA_CA/C=IN/O=CITRIX/OU=ANG/ST=KA/emailAddress=DELHICA_CA@DELHICA_mail.com
                serial:94:59:DC:51:4E:A5:13:27

            Authority Information Access: 
                OCSP - URI:http://172.20.20.1/responderpath

    Signature Algorithm: sha256WithRSAEncryption
         ba:b7:ed:b5:44:1c:4e:45:be:db:e3:14:c3:25:37:da:4b:40:
         94:67:47:92:fd:65:9c:8e:e4:4a:6c:b5:ff:74:37:c8:7d:1f:
         18:bd:aa:b1:b2:e3:ad:11:1b:0b:95:c1:29:d8:c7:92:57:33:
         78:61:1b:6a:16:eb:99:a5:e7:da:19:d3:92:5f:ec:e5:a1:8f:
         07:2b:2a:b6:73:00:9b:8b:82:f2:ce:ea:8a:bb:ce:79:1b:01:
         b1:6f:61:68:78:4a:c7:a3:97:6c:58:9b:a5:4f:12:a2:91:a6:
         bc:1e:af:99:75:2a:a9:bb:a7:19:46:76:1d:ff:f2:60:df:c8:
         78:21:1a:bc:91:87:ec:2c:42:bd:a3:74:d2:4d:16:cd:07:de:
         5c:67:c0:b3:d0:8c:a3:7e:78:64:7e:a8:13:f2:29:8b:89:49:
         8b:82:7b:0b:d4:30:44:7e:f6:29:5b:72:a0:2e:a0:ba:2a:95:
         68:b2:f4:01:24:64:21:96:e1:32:64:33:88:e5:8c:15:49:ed:
         f5:79:10:69:db:3a:71:cb:fd:15:45:dd:52:d8:36:c7:45:48:
         1e:a5:f3:9f:69:80:e0:b3:c8:ea:98:59:43:79:5d:61:ac:2e:
         86:57:b6:1a:16:77:51:f9:c1:da:48:22:dc:09:8b:a2:52:94:
         97:f2:2e:32
-----BEGIN CERTIFICATE-----
MIIEiTCCA3GgAwIBAgIGCgsMDQ5gMA0GCSqGSIb3DQEBCwUAMHoxEzARBgNVBAMU
CkRFTEhJQ0FfQ0ExCzAJBgNVBAYTAklOMQ8wDQYDVQQKEwZDSVRSSVgxDDAKBgNV
BAsTA0FORzELMAkGA1UECBMCS0ExKjAoBgkqhkiG9w0BCQEWG0RFTEhJQ0FfQ0FA
REVMSElDQV9tYWlsLmNvbTAeFw0xNzA4MjMxMDUwNThaFw0yNzA4MjExMDUwNTha
MGoxCzAJBgNVBAgTAktBMQswCQYDVQQGEwJJTjEYMBYGA1UEAxQPZGVsaGlfNDJf
Y2xpZW50MSMwIQYJKoZIhvcNAQkBFhRkZWxoaV80MkB0ZXN0X2NhLmNvbTEPMA0G
A1UEChMGQ0lUUklYMIIBIjANBgkqhkiG9w0BAQEFAAOCAQ8AMIIBCgKCAQEAzwAc
lOxbGelfE4VhBtEtphywliM4Nlk/ETz9R2akQFezUSOwpUICqUESIwv4KS6K6TsF
HDSkAtA0BAyxZbGCGFCi8kh+6n0FUJ5bgK9cBmi9qH1fcRcFL8csB/ylFs+cxriQ
BekTFAvDEU1gVoVVte7Mv58iV2AJ8EwUSi2xXpI1HAQ6ogEa18ezGxjrE4RKgYfX
l9iLhrNoikVXTmoQej287MOKgljhZgR1GdrTcxYl7hz7bHSfolHoyxCbJ8mPT/Ob
CrmeXIh/UXIzCfq76lWHoRB7tycEmq6+2CmJwANJl5DY1Rw8W95KWphY/8e13le4
77V/JHPLkocXJyRwWQIDAQABo4IBIzCCAR8wEQYJYIZIAYb4QgEBBAQDAgZAMB0G
A1UdDgQWBBQVZSpX2+xKEiwe245kWretnOdOrjCBrAYDVR0jBIGkMIGhgBTXN1IB
3Cx6V4XKMDkw8NVdWjEDAqF+pHwwejETMBEGA1UEAxQKREVMSElDQV9DQTELMAkG
A1UEBhMCSU4xDzANBgNVBAoTBkNJVFJJWDEMMAoGA1UECxMDQU5HMQswCQYDVQQI
EwJLQTEqMCgGCSqGSIb3DQEJARYbREVMSElDQV9DQUBERUxISUNBX21haWwuY29t
ggkAlFncUU6lEycwPAYIKwYBBQUHAQEEMDAuMCwGCCsGAQUFBzABhiBodHRwOi8v
MTcyLjIwLjIwLjEvcmVzcG9uZGVycGF0aDANBgkqhkiG9w0BAQsFAAOCAQEAurft
tUQcTkW+2+MUwyU32ktAlGdHkv1lnI7kSmy1/3Q3yH0fGL2qsbLjrREbC5XBKdjH
klczeGEbahbrmaXn2hnTkl/s5aGPBysqtnMAm4uC8s7qirvOeRsBsW9haHhKx6OX
bFibpU8SopGmvB6vmXUqqbunGUZ2Hf/yYN/IeCEavJGH7CxCvaN00k0WzQfeXGfA
s9CMo354ZH6oE/Ipi4lJi4J7C9QwRH72KVtyoC6guiqVaLL0ASRkIZbhMmQziOWM
FUnt9XkQads6ccv9FUXdUtg2x0VIHqXzn2mA4LPI6phZQ3ldYawuhle2GhZ3UfnB
2kgi3AmLolKUl/IuMg==
-----END CERTIFICATE-----
