Certificate:
    Data:
        Version: 3 (0x2)
        Serial Number: 11042563100245 (0xa0b0c0d0e55)
    Signature Algorithm: sha256WithRSAEncryption
        Issuer: CN=DELHICA_CA, C=IN, O=CITRIX, OU=ANG, ST=KA/emailAddress=DELHICA_CA@DELHICA_mail.com
        Validity
            Not Before: Aug 23 10:50:49 2017 GMT
            Not After : Aug 21 10:50:49 2027 GMT
        Subject: ST=KA, C=IN, CN=delhi_31_client/emailAddress=delhi_31@test_ca.com, O=CITRIX
        Subject Public Key Info:
            Public Key Algorithm: rsaEncryption
                Public-Key: (2048 bit)
                Modulus:
                    00:b7:78:f5:32:bc:ad:ff:aa:19:cf:8f:93:35:24:
                    b9:6b:61:f4:88:5b:e4:33:94:68:92:99:26:9c:82:
                    55:c8:dd:72:5d:6d:ea:05:24:38:31:8f:66:a2:ac:
                    aa:2f:e3:d6:94:08:6c:c6:63:b3:19:77:46:d5:20:
                    12:a8:f9:34:78:31:65:68:94:b0:a2:50:1c:f7:cf:
                    dc:03:26:f9:37:cc:17:15:e1:75:0f:dc:38:28:6d:
                    ed:8d:e1:71:d4:39:5d:84:26:02:c7:5b:10:44:f0:
                    22:df:c7:b0:3d:f2:10:b7:19:ee:a7:e1:10:ae:28:
                    ad:af:7e:cf:98:25:34:95:5e:e3:0d:32:1d:1b:4d:
                    80:75:c0:d6:96:cf:a5:d8:ba:e0:d7:93:a0:e9:a5:
                    f1:fb:f2:54:8a:9c:a3:ff:5c:76:09:09:26:50:7f:
                    0c:71:97:08:c4:68:14:04:f3:be:57:64:6c:40:0e:
                    84:87:26:b1:15:67:cc:fa:6b:ae:4f:18:47:4d:29:
                    7c:da:7a:50:73:28:dc:52:f3:00:06:39:85:96:ad:
                    42:22:ef:e1:8b:55:70:db:a1:2a:b2:f5:4d:a3:3b:
                    28:de:51:da:83:c3:b0:23:ac:81:e7:28:12:a4:8d:
                    92:29:45:41:46:ce:f4:79:3d:6d:78:ee:60:f0:33:
                    7f:bf
                Exponent: 65537 (0x10001)
        X509v3 extensions:
            Netscape Cert Type: 
                SSL Server
            X509v3 Subject Key Identifier: 
                71:D6:BE:13:B1:84:A2:3A:A3:96:C9:E4:7C:F9:84:40:2D:8E:51:D7
            X509v3 Authority Key Identifier: 
                keyid:D7:37:52:01:DC:2C:7A:57:85:CA:30:39:30:F0:D5:5D:5A:31:03:02
                DirName:/CN=DELHICA_CA/C=IN/O=CITRIX/OU=ANG/ST=KA/emailAddress=DELHICA_CA@DELHICA_mail.com
                serial:94:59:DC:51:4E:A5:13:27

            Authority Information Access: 
                OCSP - URI:http://172.20.20.1/responderpath

    Signature Algorithm: sha256WithRSAEncryption
         42:f7:57:2f:07:e5:a6:98:a6:c3:03:f9:a8:5a:da:04:85:3a:
         15:83:63:82:5c:04:f6:37:03:b9:59:af:21:48:b9:af:23:ee:
         18:46:07:89:b0:8b:d7:ff:73:2a:24:f8:89:60:d6:b8:a0:44:
         2b:14:41:65:54:c7:1b:a9:ba:9d:98:d5:0e:d5:91:16:56:db:
         15:a1:ac:03:a2:10:14:ab:f6:99:d7:a7:6c:2f:bf:44:cb:1d:
         97:86:c5:80:ed:55:d4:8e:d9:f9:1f:30:34:00:fc:15:10:0b:
         17:f8:b3:79:5d:8c:b7:cb:ed:5f:74:26:2b:86:a7:87:0c:4a:
         25:70:86:80:87:7f:00:23:2a:1c:71:ba:df:6d:fa:5c:f5:c1:
         d3:dc:a8:44:08:54:03:49:c0:66:70:ff:ee:10:a7:ed:27:ea:
         92:60:f7:74:fc:17:07:50:c5:40:ac:13:4b:f6:9f:37:73:f4:
         24:1d:58:20:3a:36:f3:69:f7:1c:0e:27:22:9e:e3:d2:f6:12:
         db:67:3c:dd:25:59:04:15:8b:1f:2e:e7:aa:77:54:af:08:e6:
         82:a7:d2:dd:09:5b:31:79:a4:a2:a1:5a:a0:4b:aa:45:78:29:
         b0:a2:bf:38:5e:2b:e9:c3:76:8b:cd:e3:81:fe:d7:20:2e:29:
         1a:1d:2c:62
-----BEGIN CERTIFICATE-----
MIIEiTCCA3GgAwIBAgIGCgsMDQ5VMA0GCSqGSIb3DQEBCwUAMHoxEzARBgNVBAMU
CkRFTEhJQ0FfQ0ExCzAJBgNVBAYTAklOMQ8wDQYDVQQKEwZDSVRSSVgxDDAKBgNV
BAsTA0FORzELMAkGA1UECBMCS0ExKjAoBgkqhkiG9w0BCQEWG0RFTEhJQ0FfQ0FA
REVMSElDQV9tYWlsLmNvbTAeFw0xNzA4MjMxMDUwNDlaFw0yNzA4MjExMDUwNDla
MGoxCzAJBgNVBAgTAktBMQswCQYDVQQGEwJJTjEYMBYGA1UEAxQPZGVsaGlfMzFf
Y2xpZW50MSMwIQYJKoZIhvcNAQkBFhRkZWxoaV8zMUB0ZXN0X2NhLmNvbTEPMA0G
A1UEChMGQ0lUUklYMIIBIjANBgkqhkiG9w0BAQEFAAOCAQ8AMIIBCgKCAQEAt3j1
Mryt/6oZz4+TNSS5a2H0iFvkM5RokpkmnIJVyN1yXW3qBSQ4MY9moqyqL+PWlAhs
xmOzGXdG1SASqPk0eDFlaJSwolAc98/cAyb5N8wXFeF1D9w4KG3tjeFx1DldhCYC
x1sQRPAi38ewPfIQtxnup+EQriitr37PmCU0lV7jDTIdG02AdcDWls+l2Lrg15Og
6aXx+/JUipyj/1x2CQkmUH8McZcIxGgUBPO+V2RsQA6EhyaxFWfM+muuTxhHTSl8
2npQcyjcUvMABjmFlq1CIu/hi1Vw26EqsvVNozso3lHag8OwI6yB5ygSpI2SKUVB
Rs70eT1teO5g8DN/vwIDAQABo4IBIzCCAR8wEQYJYIZIAYb4QgEBBAQDAgZAMB0G
A1UdDgQWBBRx1r4TsYSiOqOWyeR8+YRALY5R1zCBrAYDVR0jBIGkMIGhgBTXN1IB
3Cx6V4XKMDkw8NVdWjEDAqF+pHwwejETMBEGA1UEAxQKREVMSElDQV9DQTELMAkG
A1UEBhMCSU4xDzANBgNVBAoTBkNJVFJJWDEMMAoGA1UECxMDQU5HMQswCQYDVQQI
EwJLQTEqMCgGCSqGSIb3DQEJARYbREVMSElDQV9DQUBERUxISUNBX21haWwuY29t
ggkAlFncUU6lEycwPAYIKwYBBQUHAQEEMDAuMCwGCCsGAQUFBzABhiBodHRwOi8v
MTcyLjIwLjIwLjEvcmVzcG9uZGVycGF0aDANBgkqhkiG9w0BAQsFAAOCAQEAQvdX
LwflppimwwP5qFraBIU6FYNjglwE9jcDuVmvIUi5ryPuGEYHibCL1/9zKiT4iWDW
uKBEKxRBZVTHG6m6nZjVDtWRFlbbFaGsA6IQFKv2mdenbC+/RMsdl4bFgO1V1I7Z
+R8wNAD8FRALF/izeV2Mt8vtX3QmK4anhwxKJXCGgId/ACMqHHG63236XPXB09yo
RAhUA0nAZnD/7hCn7SfqkmD3dPwXB1DFQKwTS/afN3P0JB1YIDo282n3HA4nIp7j
0vYS22c83SVZBBWLHy7nqndUrwjmgqfS3QlbMXmkoqFaoEuqRXgpsKK/OF4r6cN2
i83jgf7XIC4pGh0sYg==
-----END CERTIFICATE-----
