Certificate:
    Data:
        Version: 3 (0x2)
        Serial Number: 11042563100240 (0xa0b0c0d0e50)
    Signature Algorithm: sha256WithRSAEncryption
        Issuer: CN=DELHICA_CA, C=IN, O=CITRIX, OU=ANG, ST=KA/emailAddress=DELHICA_CA@DELHICA_mail.com
        Validity
            Not Before: Aug 23 10:50:45 2017 GMT
            Not After : Aug 21 10:50:45 2027 GMT
        Subject: ST=KA, C=IN, CN=delhi_26_client/emailAddress=delhi_26@test_ca.com, O=CITRIX
        Subject Public Key Info:
            Public Key Algorithm: rsaEncryption
                Public-Key: (2048 bit)
                Modulus:
                    00:d2:56:3b:94:be:a8:74:a7:eb:e1:f9:18:ef:ba:
                    9c:a8:50:70:f5:53:2b:b1:12:3e:20:4c:16:99:93:
                    07:f8:91:32:d1:2a:7e:a3:f1:cf:f5:2c:3e:65:e4:
                    a6:51:5c:e4:fc:79:07:83:8a:41:9c:72:fe:fd:be:
                    22:68:9a:7e:16:26:31:7c:c7:c2:c5:00:50:ad:04:
                    a8:71:d6:35:3a:7e:e9:fd:a2:41:09:df:24:29:3f:
                    43:34:18:ff:59:b9:09:8b:e7:f4:a4:53:22:2d:ed:
                    80:5b:a2:80:ae:da:7c:df:10:62:a8:c9:5e:f3:d4:
                    01:e3:43:a0:2d:cc:58:a8:e3:5f:d4:03:bb:39:62:
                    ef:4b:97:9b:a4:15:36:1e:6b:44:51:ce:48:a5:40:
                    d6:d5:09:c5:c8:d8:b0:03:a3:ba:dd:66:ed:56:90:
                    c6:7a:cd:d9:8b:00:a4:2d:f3:33:dc:08:d1:23:10:
                    2b:b9:25:5a:f1:5f:01:b1:a0:64:28:97:ce:c2:df:
                    fd:b0:f7:94:5d:aa:e4:29:2a:20:8e:51:86:dc:f9:
                    9b:b8:b9:1c:fd:6a:bf:87:20:dc:43:ba:8a:b2:99:
                    bb:d8:96:87:03:62:50:71:39:ca:4b:cc:b1:4c:2c:
                    23:8a:21:d6:29:35:36:0f:bc:18:3e:79:2d:08:f3:
                    f9:63
                Exponent: 65537 (0x10001)
        X509v3 extensions:
            Netscape Cert Type: 
                SSL Server
            X509v3 Subject Key Identifier: 
                46:D3:46:8C:95:39:72:40:73:CA:37:93:FD:6B:46:39:BE:5C:8A:4C
            X509v3 Authority Key Identifier: 
                keyid:D7:37:52:01:DC:2C:7A:57:85:CA:30:39:30:F0:D5:5D:5A:31:03:02
                DirName:/CN=DELHICA_CA/C=IN/O=CITRIX/OU=ANG/ST=KA/emailAddress=DELHICA_CA@DELHICA_mail.com
                serial:94:59:DC:51:4E:A5:13:27

            Authority Information Access: 
                OCSP - URI:http://172.20.20.1/responderpath

    Signature Algorithm: sha256WithRSAEncryption
         8f:cc:7b:fb:e0:d6:51:65:5e:ca:fd:8d:58:cb:2b:7a:ab:7a:
         4a:12:f4:df:df:6a:46:19:bd:e8:16:4a:79:67:c4:7c:3e:64:
         47:6e:f8:b5:42:3a:c1:09:43:cc:b3:05:e7:54:6b:7b:5d:12:
         ab:fb:68:56:b3:f7:bd:1f:73:27:20:d5:a6:7d:f9:e9:27:d7:
         9e:92:41:02:b3:c0:a3:33:a7:a3:80:c5:0c:11:1f:4f:51:43:
         63:7a:19:a2:e7:0f:29:7d:f6:b8:bd:31:79:ff:91:c4:e0:c8:
         a5:1e:32:16:64:22:4f:6c:e9:5e:49:41:b2:93:d3:76:91:98:
         7d:a5:50:4d:4a:8f:36:62:96:b2:4b:40:01:ec:80:ca:7d:87:
         c2:72:e9:32:5c:f7:06:1d:d6:51:83:56:5a:8e:ed:04:3c:dc:
         69:3a:58:c1:0f:fe:06:61:a5:45:57:e1:ff:57:12:6e:af:a7:
         be:56:78:63:5b:17:7d:41:06:9d:5c:39:2e:34:d1:79:e5:6f:
         2c:97:1e:e2:46:71:85:70:35:7f:2c:53:dd:88:1c:15:b7:8d:
         b0:30:0f:2f:6b:5b:52:ac:37:d6:eb:c4:32:63:80:39:81:0e:
         7b:16:7a:db:16:b1:00:23:45:f3:22:d5:0c:64:56:07:a3:4c:
         f6:55:4a:e5
-----BEGIN CERTIFICATE-----
MIIEiTCCA3GgAwIBAgIGCgsMDQ5QMA0GCSqGSIb3DQEBCwUAMHoxEzARBgNVBAMU
CkRFTEhJQ0FfQ0ExCzAJBgNVBAYTAklOMQ8wDQYDVQQKEwZDSVRSSVgxDDAKBgNV
BAsTA0FORzELMAkGA1UECBMCS0ExKjAoBgkqhkiG9w0BCQEWG0RFTEhJQ0FfQ0FA
REVMSElDQV9tYWlsLmNvbTAeFw0xNzA4MjMxMDUwNDVaFw0yNzA4MjExMDUwNDVa
MGoxCzAJBgNVBAgTAktBMQswCQYDVQQGEwJJTjEYMBYGA1UEAxQPZGVsaGlfMjZf
Y2xpZW50MSMwIQYJKoZIhvcNAQkBFhRkZWxoaV8yNkB0ZXN0X2NhLmNvbTEPMA0G
A1UEChMGQ0lUUklYMIIBIjANBgkqhkiG9w0BAQEFAAOCAQ8AMIIBCgKCAQEA0lY7
lL6odKfr4fkY77qcqFBw9VMrsRI+IEwWmZMH+JEy0Sp+o/HP9Sw+ZeSmUVzk/HkH
g4pBnHL+/b4iaJp+FiYxfMfCxQBQrQSocdY1On7p/aJBCd8kKT9DNBj/WbkJi+f0
pFMiLe2AW6KArtp83xBiqMle89QB40OgLcxYqONf1AO7OWLvS5ebpBU2HmtEUc5I
pUDW1QnFyNiwA6O63WbtVpDGes3ZiwCkLfMz3AjRIxAruSVa8V8BsaBkKJfOwt/9
sPeUXarkKSogjlGG3PmbuLkc/Wq/hyDcQ7qKspm72JaHA2JQcTnKS8yxTCwjiiHW
KTU2D7wYPnktCPP5YwIDAQABo4IBIzCCAR8wEQYJYIZIAYb4QgEBBAQDAgZAMB0G
A1UdDgQWBBRG00aMlTlyQHPKN5P9a0Y5vlyKTDCBrAYDVR0jBIGkMIGhgBTXN1IB
3Cx6V4XKMDkw8NVdWjEDAqF+pHwwejETMBEGA1UEAxQKREVMSElDQV9DQTELMAkG
A1UEBhMCSU4xDzANBgNVBAoTBkNJVFJJWDEMMAoGA1UECxMDQU5HMQswCQYDVQQI
EwJLQTEqMCgGCSqGSIb3DQEJARYbREVMSElDQV9DQUBERUxISUNBX21haWwuY29t
ggkAlFncUU6lEycwPAYIKwYBBQUHAQEEMDAuMCwGCCsGAQUFBzABhiBodHRwOi8v
MTcyLjIwLjIwLjEvcmVzcG9uZGVycGF0aDANBgkqhkiG9w0BAQsFAAOCAQEAj8x7
++DWUWVeyv2NWMsreqt6ShL0399qRhm96BZKeWfEfD5kR274tUI6wQlDzLMF51Rr
e10Sq/toVrP3vR9zJyDVpn356SfXnpJBArPAozOno4DFDBEfT1FDY3oZoucPKX32
uL0xef+RxODIpR4yFmQiT2zpXklBspPTdpGYfaVQTUqPNmKWsktAAeyAyn2HwnLp
Mlz3Bh3WUYNWWo7tBDzcaTpYwQ/+BmGlRVfh/1cSbq+nvlZ4Y1sXfUEGnVw5LjTR
eeVvLJce4kZxhXA1fyxT3YgcFbeNsDAPL2tbUqw31uvEMmOAOYEOexZ62xaxACNF
8yLVDGRWB6NM9lVK5Q==
-----END CERTIFICATE-----
