Certificate:
    Data:
        Version: 3 (0x2)
        Serial Number: 11042563100255 (0xa0b0c0d0e5f)
    Signature Algorithm: sha256WithRSAEncryption
        Issuer: CN=DELHICA_CA, C=IN, O=CITRIX, OU=ANG, ST=KA/emailAddress=DELHICA_CA@DELHICA_mail.com
        Validity
            Not Before: Aug 23 10:50:56 2017 GMT
            Not After : Aug 21 10:50:56 2027 GMT
        Subject: ST=KA, C=IN, CN=delhi_41_client/emailAddress=delhi_41@test_ca.com, O=CITRIX
        Subject Public Key Info:
            Public Key Algorithm: rsaEncryption
                Public-Key: (2048 bit)
                Modulus:
                    00:e2:83:0d:e0:2c:ce:92:d5:03:7f:69:fc:d0:fc:
                    16:6c:39:83:0d:dd:4f:81:fb:93:39:82:17:a2:7f:
                    0f:22:a6:b4:62:c8:07:da:dd:7d:fa:d2:9a:1f:fa:
                    bc:1b:93:a8:97:61:c7:30:c0:ea:3c:2d:cc:5d:21:
                    0d:7d:41:19:b4:b4:b3:b5:28:68:dc:b8:19:3a:82:
                    a9:cc:0b:6a:9a:21:8a:79:f3:34:59:ef:ba:fd:a1:
                    d8:6b:a4:33:8d:d3:c7:c1:3e:09:31:b4:a2:3a:94:
                    a1:25:45:c7:9c:65:f2:2c:2f:b5:81:55:a9:1a:a3:
                    ca:07:63:40:1f:3e:fe:16:04:bf:7a:ec:f7:be:92:
                    82:4b:c1:f7:72:6a:1b:2c:ea:25:09:ca:4f:81:99:
                    10:f8:98:7c:16:d0:1f:9c:9d:44:df:3d:1c:e3:92:
                    5f:d6:fb:7a:7d:3c:41:b0:1a:03:02:24:7d:64:f9:
                    7e:35:99:e5:53:8d:5f:d4:4e:a7:3f:e5:60:70:e8:
                    95:b3:02:3b:30:3c:f5:79:07:86:14:3a:20:50:31:
                    0c:02:70:f3:f1:3c:d6:6f:ed:ae:a1:cf:37:81:1e:
                    2c:c3:e3:be:3a:d9:5a:eb:77:53:24:33:f6:49:da:
                    91:3a:14:87:a0:78:c7:05:64:95:e1:09:4d:2f:fc:
                    de:55
                Exponent: 65537 (0x10001)
        X509v3 extensions:
            Netscape Cert Type: 
                SSL Server
            X509v3 Subject Key Identifier: 
                2B:66:46:04:B3:5E:5D:77:CF:12:36:8F:CF:F5:56:6E:E3:D7:75:3F
            X509v3 Authority Key Identifier: 
                keyid:D7:37:52:01:DC:2C:7A:57:85:CA:30:39:30:F0:D5:5D:5A:31:03:02
                DirName:/CN=DELHICA_CA/C=IN/O=CITRIX/OU=ANG/ST=KA/emailAddress=DELHICA_CA@DELHICA_mail.com
                serial:94:59:DC:51:4E:A5:13:27

            Authority Information Access: 
                OCSP - URI:http://172.20.20.1/responderpath

    Signature Algorithm: sha256WithRSAEncryption
         35:53:8d:d0:5a:5e:5c:a6:cd:c9:ff:af:6a:de:f7:90:07:a2:
         b5:91:f6:57:42:37:a7:53:ef:5a:5a:84:25:cf:96:58:a5:92:
         6f:ff:20:dd:7f:2e:06:f2:5a:f3:02:dd:2e:4c:80:2f:b7:c6:
         ce:5a:c1:06:cc:b9:13:a9:1d:39:83:14:ec:9b:42:87:c7:bd:
         57:30:02:92:36:b6:22:ce:6a:91:6f:fe:d9:57:6d:87:44:f1:
         a3:59:0b:e3:94:9a:d5:2b:7d:e5:06:b2:7b:8a:be:7d:75:60:
         4f:18:6b:8f:8d:a1:a8:e5:8c:ad:af:49:c3:c2:c0:59:b0:db:
         f2:31:d1:4f:84:1a:f0:6e:76:56:ca:5d:88:fb:2e:ff:93:d5:
         90:05:dd:dc:6b:16:c7:1d:77:c1:17:8b:a9:1e:19:f9:5c:fe:
         76:70:c2:55:82:df:3b:3c:9f:78:fb:93:ba:1c:b4:62:57:ca:
         dc:7d:63:d1:5d:34:e4:39:4b:01:0e:d7:59:1f:1b:b2:d6:ed:
         1b:25:48:33:d6:1e:33:64:3d:b6:e0:82:5d:f3:98:cf:e7:28:
         c3:d5:f3:fe:1d:f9:84:0a:19:59:ae:9e:1f:a0:6f:ad:66:de:
         a6:94:63:96:1f:23:68:4b:9a:55:ec:aa:85:f2:f6:c1:71:52:
         db:b6:38:06
-----BEGIN CERTIFICATE-----
MIIEiTCCA3GgAwIBAgIGCgsMDQ5fMA0GCSqGSIb3DQEBCwUAMHoxEzARBgNVBAMU
CkRFTEhJQ0FfQ0ExCzAJBgNVBAYTAklOMQ8wDQYDVQQKEwZDSVRSSVgxDDAKBgNV
BAsTA0FORzELMAkGA1UECBMCS0ExKjAoBgkqhkiG9w0BCQEWG0RFTEhJQ0FfQ0FA
REVMSElDQV9tYWlsLmNvbTAeFw0xNzA4MjMxMDUwNTZaFw0yNzA4MjExMDUwNTZa
MGoxCzAJBgNVBAgTAktBMQswCQYDVQQGEwJJTjEYMBYGA1UEAxQPZGVsaGlfNDFf
Y2xpZW50MSMwIQYJKoZIhvcNAQkBFhRkZWxoaV80MUB0ZXN0X2NhLmNvbTEPMA0G
A1UEChMGQ0lUUklYMIIBIjANBgkqhkiG9w0BAQEFAAOCAQ8AMIIBCgKCAQEA4oMN
4CzOktUDf2n80PwWbDmDDd1PgfuTOYIXon8PIqa0YsgH2t19+tKaH/q8G5Ool2HH
MMDqPC3MXSENfUEZtLSztSho3LgZOoKpzAtqmiGKefM0We+6/aHYa6QzjdPHwT4J
MbSiOpShJUXHnGXyLC+1gVWpGqPKB2NAHz7+FgS/euz3vpKCS8H3cmobLOolCcpP
gZkQ+Jh8FtAfnJ1E3z0c45Jf1vt6fTxBsBoDAiR9ZPl+NZnlU41f1E6nP+VgcOiV
swI7MDz1eQeGFDogUDEMAnDz8TzWb+2uoc83gR4sw+O+Otla63dTJDP2SdqROhSH
oHjHBWSV4QlNL/zeVQIDAQABo4IBIzCCAR8wEQYJYIZIAYb4QgEBBAQDAgZAMB0G
A1UdDgQWBBQrZkYEs15dd88SNo/P9VZu49d1PzCBrAYDVR0jBIGkMIGhgBTXN1IB
3Cx6V4XKMDkw8NVdWjEDAqF+pHwwejETMBEGA1UEAxQKREVMSElDQV9DQTELMAkG
A1UEBhMCSU4xDzANBgNVBAoTBkNJVFJJWDEMMAoGA1UECxMDQU5HMQswCQYDVQQI
EwJLQTEqMCgGCSqGSIb3DQEJARYbREVMSElDQV9DQUBERUxISUNBX21haWwuY29t
ggkAlFncUU6lEycwPAYIKwYBBQUHAQEEMDAuMCwGCCsGAQUFBzABhiBodHRwOi8v
MTcyLjIwLjIwLjEvcmVzcG9uZGVycGF0aDANBgkqhkiG9w0BAQsFAAOCAQEANVON
0FpeXKbNyf+vat73kAeitZH2V0I3p1PvWlqEJc+WWKWSb/8g3X8uBvJa8wLdLkyA
L7fGzlrBBsy5E6kdOYMU7JtCh8e9VzACkja2Is5qkW/+2Vdth0Txo1kL45Sa1St9
5Qaye4q+fXVgTxhrj42hqOWMra9Jw8LAWbDb8jHRT4Qa8G52VspdiPsu/5PVkAXd
3GsWxx13wReLqR4Z+Vz+dnDCVYLfOzyfePuTuhy0YlfK3H1j0V005DlLAQ7XWR8b
stbtGyVIM9YeM2Q9tuCCXfOYz+cow9Xz/h35hAoZWa6eH6BvrWbeppRjlh8jaEua
VeyqhfL2wXFS27Y4Bg==
-----END CERTIFICATE-----
