Certificate:
    Data:
        Version: 3 (0x2)
        Serial Number: 11042563100227 (0xa0b0c0d0e43)
    Signature Algorithm: sha256WithRSAEncryption
        Issuer: CN=DELHICA_CA, C=IN, O=CITRIX, OU=ANG, ST=KA/emailAddress=DELHICA_CA@DELHICA_mail.com
        Validity
            Not Before: Aug 23 10:50:37 2017 GMT
            Not After : Aug 21 10:50:37 2027 GMT
        Subject: ST=KA, C=IN, CN=delhi_13_client/emailAddress=delhi_13@test_ca.com, O=CITRIX
        Subject Public Key Info:
            Public Key Algorithm: rsaEncryption
                Public-Key: (2048 bit)
                Modulus:
                    00:b2:2b:d5:81:8b:07:48:0a:1b:33:f8:2a:fe:4b:
                    b8:e4:d6:3c:d9:f1:aa:30:90:b9:ab:68:58:86:cf:
                    7d:33:16:72:cc:0d:69:b4:b5:74:43:d0:45:45:dd:
                    64:1f:7b:ac:fc:2d:bb:73:12:79:27:f3:ab:65:63:
                    42:ef:37:c0:74:30:b0:95:ba:b2:41:f9:07:7a:35:
                    f6:ba:54:60:29:be:8b:52:de:ea:0f:d5:7c:d0:bb:
                    56:e3:5b:d4:57:41:99:1a:d9:78:a7:66:ef:ae:0f:
                    d6:b3:50:cc:7b:81:ac:7f:4e:76:a1:9d:37:04:2f:
                    b0:92:60:d0:6f:b5:21:8a:4d:8c:39:a6:a3:2e:05:
                    93:84:9e:78:4e:c0:3b:ca:61:69:5d:b5:d9:1a:6f:
                    87:2d:9b:82:1c:ba:ed:4b:0e:e3:8b:c0:32:03:95:
                    5d:d7:94:0f:6d:3e:8c:88:4f:89:f5:3f:0f:a9:63:
                    b3:02:0f:63:8a:5d:83:1d:f3:e3:cf:bd:cb:62:f7:
                    9c:06:f8:72:48:4b:a8:70:47:fc:15:ee:21:c9:43:
                    69:2b:e9:21:27:19:04:83:98:8f:d4:98:b7:6a:91:
                    4d:90:34:c5:94:f2:c4:bc:f9:9d:6c:36:03:e4:a9:
                    99:8d:1e:5a:26:b6:e7:b6:84:dc:26:6f:dc:08:30:
                    58:9b
                Exponent: 65537 (0x10001)
        X509v3 extensions:
            Netscape Cert Type: 
                SSL Server
            X509v3 Subject Key Identifier: 
                91:13:27:79:B1:67:B7:68:80:EA:84:E5:22:D8:EC:7D:4D:6F:3E:C9
            X509v3 Authority Key Identifier: 
                keyid:D7:37:52:01:DC:2C:7A:57:85:CA:30:39:30:F0:D5:5D:5A:31:03:02
                DirName:/CN=DELHICA_CA/C=IN/O=CITRIX/OU=ANG/ST=KA/emailAddress=DELHICA_CA@DELHICA_mail.com
                serial:94:59:DC:51:4E:A5:13:27

            Authority Information Access: 
                OCSP - URI:http://172.20.20.1/responderpath

    Signature Algorithm: sha256WithRSAEncryption
         8f:a0:18:bd:02:c8:0f:03:f1:2e:ed:69:8c:5c:0a:a5:48:36:
         3f:93:99:c6:68:3f:86:18:f7:67:bf:8f:04:24:df:6b:3d:ef:
         16:9b:0a:99:d8:5d:b9:cc:4d:e5:09:c0:e4:66:73:90:12:24:
         df:35:28:c1:0b:f7:17:a6:b6:08:6b:f7:00:2e:ca:92:ef:e4:
         90:23:59:c9:92:05:24:39:66:2c:c1:9c:1e:b3:cf:86:f9:40:
         10:62:82:e0:1f:37:8a:68:00:9b:12:e6:56:90:b0:35:64:4f:
         2f:7c:20:29:63:37:f3:76:22:51:99:52:1b:b3:a7:ed:20:de:
         fa:36:b9:6c:51:be:79:10:5e:8f:18:fd:ee:a4:c2:1e:98:13:
         ef:b5:96:a2:33:84:eb:df:b9:ff:b3:6c:99:99:15:8a:86:bc:
         c6:3a:88:5c:77:e1:20:e8:80:56:2f:88:2e:46:54:90:6c:36:
         ed:75:53:2b:6d:72:9d:e0:ba:a0:1a:8f:3c:94:fc:97:c2:83:
         16:7a:d9:97:79:69:1a:56:8e:7b:fa:f2:37:51:e1:ab:7e:36:
         46:0c:28:2c:3b:df:0d:fe:dd:68:59:e4:67:c8:fd:9d:dd:02:
         47:ee:07:19:82:b6:40:63:84:61:5f:cb:4a:ca:39:dd:ec:b9:
         88:d1:b5:e2
-----BEGIN CERTIFICATE-----
MIIEiTCCA3GgAwIBAgIGCgsMDQ5DMA0GCSqGSIb3DQEBCwUAMHoxEzARBgNVBAMU
CkRFTEhJQ0FfQ0ExCzAJBgNVBAYTAklOMQ8wDQYDVQQKEwZDSVRSSVgxDDAKBgNV
BAsTA0FORzELMAkGA1UECBMCS0ExKjAoBgkqhkiG9w0BCQEWG0RFTEhJQ0FfQ0FA
REVMSElDQV9tYWlsLmNvbTAeFw0xNzA4MjMxMDUwMzdaFw0yNzA4MjExMDUwMzda
MGoxCzAJBgNVBAgTAktBMQswCQYDVQQGEwJJTjEYMBYGA1UEAxQPZGVsaGlfMTNf
Y2xpZW50MSMwIQYJKoZIhvcNAQkBFhRkZWxoaV8xM0B0ZXN0X2NhLmNvbTEPMA0G
A1UEChMGQ0lUUklYMIIBIjANBgkqhkiG9w0BAQEFAAOCAQ8AMIIBCgKCAQEAsivV
gYsHSAobM/gq/ku45NY82fGqMJC5q2hYhs99MxZyzA1ptLV0Q9BFRd1kH3us/C27
cxJ5J/OrZWNC7zfAdDCwlbqyQfkHejX2ulRgKb6LUt7qD9V80LtW41vUV0GZGtl4
p2bvrg/Ws1DMe4Gsf052oZ03BC+wkmDQb7Uhik2MOaajLgWThJ54TsA7ymFpXbXZ
Gm+HLZuCHLrtSw7ji8AyA5Vd15QPbT6MiE+J9T8PqWOzAg9jil2DHfPjz73LYvec
BvhySEuocEf8Fe4hyUNpK+khJxkEg5iP1Ji3apFNkDTFlPLEvPmdbDYD5KmZjR5a
JrbntoTcJm/cCDBYmwIDAQABo4IBIzCCAR8wEQYJYIZIAYb4QgEBBAQDAgZAMB0G
A1UdDgQWBBSREyd5sWe3aIDqhOUi2Ox9TW8+yTCBrAYDVR0jBIGkMIGhgBTXN1IB
3Cx6V4XKMDkw8NVdWjEDAqF+pHwwejETMBEGA1UEAxQKREVMSElDQV9DQTELMAkG
A1UEBhMCSU4xDzANBgNVBAoTBkNJVFJJWDEMMAoGA1UECxMDQU5HMQswCQYDVQQI
EwJLQTEqMCgGCSqGSIb3DQEJARYbREVMSElDQV9DQUBERUxISUNBX21haWwuY29t
ggkAlFncUU6lEycwPAYIKwYBBQUHAQEEMDAuMCwGCCsGAQUFBzABhiBodHRwOi8v
MTcyLjIwLjIwLjEvcmVzcG9uZGVycGF0aDANBgkqhkiG9w0BAQsFAAOCAQEAj6AY
vQLIDwPxLu1pjFwKpUg2P5OZxmg/hhj3Z7+PBCTfaz3vFpsKmdhducxN5QnA5GZz
kBIk3zUowQv3F6a2CGv3AC7Kku/kkCNZyZIFJDlmLMGcHrPPhvlAEGKC4B83imgA
mxLmVpCwNWRPL3wgKWM383YiUZlSG7On7SDe+ja5bFG+eRBejxj97qTCHpgT77WW
ojOE69+5/7NsmZkVioa8xjqIXHfhIOiAVi+ILkZUkGw27XVTK21yneC6oBqPPJT8
l8KDFnrZl3lpGlaOe/ryN1Hhq342RgwoLDvfDf7daFnkZ8j9nd0CR+4HGYK2QGOE
YV/LSso53ey5iNG14g==
-----END CERTIFICATE-----
