Certificate:
    Data:
        Version: 3 (0x2)
        Serial Number: 11042563100179 (0xa0b0c0d0e13)
    Signature Algorithm: sha256WithRSAEncryption
        Issuer: CN=DELHICA_CA, C=IN, O=CITRIX, OU=ANG, ST=KA/emailAddress=DELHICA_CA@DELHICA_mail.com
        Validity
            Not Before: Jul  8 04:34:22 2016 GMT
            Not After : Jul  6 04:34:22 2026 GMT
        Subject: ST=KA, C=IN, CN=105_DELHICA_server/emailAddress=105_DELHICA@test_ca.com, O=CITRIX
        Subject Public Key Info:
            Public Key Algorithm: rsaEncryption
                Public-Key: (2048 bit)
                Modulus:
                    00:a9:16:fd:0e:93:2e:b1:01:65:6a:80:dc:29:4c:
                    09:4a:38:f5:0f:39:59:0d:3f:37:90:c1:84:89:b9:
                    c3:a4:1a:ed:37:16:8c:9b:5e:cb:73:8c:94:cf:ec:
                    42:32:dc:3b:55:8b:fe:72:8a:a2:92:5e:2d:4b:47:
                    16:cd:16:38:5b:a5:76:5e:12:20:5b:95:00:f1:12:
                    9d:1b:3a:57:51:c2:2d:54:01:e7:5e:44:a8:2a:8f:
                    a2:21:44:f4:a4:c0:36:66:38:8d:00:86:64:b4:90:
                    22:78:76:a4:ae:3e:b2:01:b9:d7:62:3a:47:43:c0:
                    1d:da:7e:4f:92:b5:fc:82:3c:c4:eb:06:39:b2:81:
                    49:c4:9d:77:f0:d2:df:61:28:fa:e0:80:1c:2d:d1:
                    03:80:f5:f8:62:0c:4d:b9:9f:16:ea:3b:bb:81:f8:
                    3f:e3:32:3b:a7:a2:ed:c9:4b:c9:f4:ac:50:93:98:
                    d3:9a:c9:a0:58:77:cd:81:75:1d:18:47:1f:20:2d:
                    cd:00:ca:81:55:b2:ba:99:63:08:2c:8d:38:df:c8:
                    55:82:be:0a:72:9e:64:d9:37:6f:aa:29:d4:bf:2d:
                    c8:d0:a7:8c:30:c5:af:3e:80:10:78:33:1d:0d:c1:
                    c3:8b:69:8b:bf:30:62:a6:78:e8:93:1a:fe:00:03:
                    47:2d
                Exponent: 65537 (0x10001)
        X509v3 extensions:
            Netscape Cert Type: 
                SSL Server
            X509v3 Subject Key Identifier: 
                E3:AE:AB:98:DB:10:A9:54:20:53:E3:7E:0F:E8:8C:8A:FD:02:6B:66
            X509v3 Authority Key Identifier: 
                keyid:D7:37:52:01:DC:2C:7A:57:85:CA:30:39:30:F0:D5:5D:5A:31:03:02
                DirName:/CN=DELHICA_CA/C=IN/O=CITRIX/OU=ANG/ST=KA/emailAddress=DELHICA_CA@DELHICA_mail.com
                serial:94:59:DC:51:4E:A5:13:27

            Authority Information Access: 
                OCSP - URI:http://DELHICA_one.ocsptest.com/responderpath

    Signature Algorithm: sha256WithRSAEncryption
         11:2a:ea:40:0f:22:90:c6:cc:09:f2:3e:f4:82:6a:e0:76:35:
         da:d5:65:25:0e:09:7d:39:bf:92:73:f7:0d:af:13:69:ad:c3:
         6e:b1:0a:6b:05:1f:0c:67:57:b0:0e:30:64:d4:e6:2f:f2:71:
         49:0e:97:81:1c:0b:33:88:f1:0c:97:a2:ed:23:97:6f:14:93:
         16:5f:c8:23:87:0e:90:5a:da:2b:ac:84:1b:33:2b:86:4e:84:
         35:18:26:1b:3f:0d:2e:ca:26:f4:29:51:72:fe:3b:43:4c:18:
         45:92:f8:37:80:eb:c4:af:f5:0b:7e:19:ab:33:b6:81:11:1c:
         ad:44:8a:b8:7c:47:b8:c5:f1:9d:a9:e6:62:03:68:b5:e5:5d:
         f5:1c:a6:9d:fb:4c:1a:1c:5c:03:01:41:e7:db:d1:80:7e:b9:
         2d:4d:bc:be:d9:8f:85:d5:49:dc:e8:f3:ef:99:b1:b3:3b:4c:
         6b:a3:a8:71:5d:1e:e5:93:6d:3b:e0:14:42:b7:b6:2e:e5:f2:
         a3:70:34:f2:d9:4e:ff:c4:b3:0a:a3:7b:66:a7:f2:3b:93:8c:
         01:2d:6d:b9:1d:ce:2a:87:14:58:eb:c2:73:b5:96:9c:4e:ae:
         55:b9:d1:5b:59:c0:db:23:4f:50:c1:33:42:b0:dd:8e:fc:e5:
         c6:82:4f:47
-----BEGIN CERTIFICATE-----
MIIEnDCCA4SgAwIBAgIGCgsMDQ4TMA0GCSqGSIb3DQEBCwUAMHoxEzARBgNVBAMU
CkRFTEhJQ0FfQ0ExCzAJBgNVBAYTAklOMQ8wDQYDVQQKEwZDSVRSSVgxDDAKBgNV
BAsTA0FORzELMAkGA1UECBMCS0ExKjAoBgkqhkiG9w0BCQEWG0RFTEhJQ0FfQ0FA
REVMSElDQV9tYWlsLmNvbTAeFw0xNjA3MDgwNDM0MjJaFw0yNjA3MDYwNDM0MjJa
MHAxCzAJBgNVBAgTAktBMQswCQYDVQQGEwJJTjEbMBkGA1UEAxQSMTA1X0RFTEhJ
Q0Ffc2VydmVyMSYwJAYJKoZIhvcNAQkBFhcxMDVfREVMSElDQUB0ZXN0X2NhLmNv
bTEPMA0GA1UEChMGQ0lUUklYMIIBIjANBgkqhkiG9w0BAQEFAAOCAQ8AMIIBCgKC
AQEAqRb9DpMusQFlaoDcKUwJSjj1DzlZDT83kMGEibnDpBrtNxaMm17Lc4yUz+xC
Mtw7VYv+coqikl4tS0cWzRY4W6V2XhIgW5UA8RKdGzpXUcItVAHnXkSoKo+iIUT0
pMA2ZjiNAIZktJAieHakrj6yAbnXYjpHQ8Ad2n5PkrX8gjzE6wY5soFJxJ138NLf
YSj64IAcLdEDgPX4YgxNuZ8W6ju7gfg/4zI7p6LtyUvJ9KxQk5jTmsmgWHfNgXUd
GEcfIC3NAMqBVbK6mWMILI0438hVgr4Kcp5k2TdvqinUvy3I0KeMMMWvPoAQeDMd
DcHDi2mLvzBipnjokxr+AANHLQIDAQABo4IBMDCCASwwEQYJYIZIAYb4QgEBBAQD
AgZAMB0GA1UdDgQWBBTjrquY2xCpVCBT434P6IyK/QJrZjCBrAYDVR0jBIGkMIGh
gBTXN1IB3Cx6V4XKMDkw8NVdWjEDAqF+pHwwejETMBEGA1UEAxQKREVMSElDQV9D
QTELMAkGA1UEBhMCSU4xDzANBgNVBAoTBkNJVFJJWDEMMAoGA1UECxMDQU5HMQsw
CQYDVQQIEwJLQTEqMCgGCSqGSIb3DQEJARYbREVMSElDQV9DQUBERUxISUNBX21h
aWwuY29tggkAlFncUU6lEycwSQYIKwYBBQUHAQEEPTA7MDkGCCsGAQUFBzABhi1o
dHRwOi8vREVMSElDQV9vbmUub2NzcHRlc3QuY29tL3Jlc3BvbmRlcnBhdGgwDQYJ
KoZIhvcNAQELBQADggEBABEq6kAPIpDGzAnyPvSCauB2NdrVZSUOCX05v5Jz9w2v
E2mtw26xCmsFHwxnV7AOMGTU5i/ycUkOl4EcCzOI8QyXou0jl28UkxZfyCOHDpBa
2iushBszK4ZOhDUYJhs/DS7KJvQpUXL+O0NMGEWS+DeA68Sv9Qt+GasztoERHK1E
irh8R7jF8Z2p5mIDaLXlXfUcpp37TBocXAMBQefb0YB+uS1NvL7Zj4XVSdzo8++Z
sbM7TGujqHFdHuWTbTvgFEK3ti7l8qNwNPLZTv/Eswqje2an8juTjAEtbbkdziqH
FFjrwnO1lpxOrlW50VtZwNsjT1DBM0Kw3Y785caCT0c=
-----END CERTIFICATE-----
