Certificate:
    Data:
        Version: 3 (0x2)
        Serial Number: 11042563100217 (0xa0b0c0d0e39)
    Signature Algorithm: sha256WithRSAEncryption
        Issuer: CN=DELHICA_CA, C=IN, O=CITRIX, OU=ANG, ST=KA/emailAddress=DELHICA_CA@DELHICA_mail.com
        Validity
            Not Before: Aug 23 10:50:32 2017 GMT
            Not After : Aug 21 10:50:32 2027 GMT
        Subject: ST=KA, C=IN, CN=delhi_3_client/emailAddress=delhi_3@test_ca.com, O=CITRIX
        Subject Public Key Info:
            Public Key Algorithm: rsaEncryption
                Public-Key: (2048 bit)
                Modulus:
                    00:c7:bb:b0:f3:9a:b0:6a:63:bd:d8:f5:70:01:3d:
                    34:93:ab:b3:82:f3:1d:c4:b3:40:40:eb:ac:93:e1:
                    c6:2d:18:3a:c5:c0:2c:eb:47:87:45:6d:d2:5f:d8:
                    74:e1:62:bb:45:75:43:10:f8:bd:b7:44:14:c4:d9:
                    cf:d4:12:8e:13:9e:d2:3c:ed:cf:37:f1:fb:f3:11:
                    23:e1:41:07:f3:18:1a:03:3c:e8:64:21:df:35:de:
                    8c:52:be:e8:84:35:01:77:50:11:f8:b9:eb:c2:d7:
                    8b:d6:bd:98:af:d6:71:aa:3d:10:19:cd:98:d2:c5:
                    1b:f7:3f:58:24:d3:45:6c:1d:f9:64:00:23:50:8e:
                    71:84:2b:fc:17:a3:99:38:92:28:03:ac:0f:7d:7a:
                    6c:65:88:5c:68:01:9d:26:08:3f:41:82:74:bc:24:
                    cd:26:45:e5:98:30:3d:cf:9c:44:11:91:07:fd:f2:
                    0d:75:34:2a:94:bc:d3:15:ac:6d:80:23:1a:0a:26:
                    d6:83:c0:ec:8b:c3:0a:61:91:06:75:e6:cd:16:e5:
                    1a:3f:db:47:cb:44:e5:6b:91:87:3a:93:db:d1:40:
                    ef:14:02:fb:27:30:4c:a9:77:cd:67:5c:05:d4:55:
                    c0:fa:f4:48:d1:f3:7b:5b:9c:ba:48:06:ea:e5:09:
                    6d:bb
                Exponent: 65537 (0x10001)
        X509v3 extensions:
            Netscape Cert Type: 
                SSL Server
            X509v3 Subject Key Identifier: 
                2D:29:B1:9C:93:E1:96:FE:80:50:06:67:35:8B:5E:45:1B:13:15:83
            X509v3 Authority Key Identifier: 
                keyid:D7:37:52:01:DC:2C:7A:57:85:CA:30:39:30:F0:D5:5D:5A:31:03:02
                DirName:/CN=DELHICA_CA/C=IN/O=CITRIX/OU=ANG/ST=KA/emailAddress=DELHICA_CA@DELHICA_mail.com
                serial:94:59:DC:51:4E:A5:13:27

            Authority Information Access: 
                OCSP - URI:http://172.20.20.1/responderpath

    Signature Algorithm: sha256WithRSAEncryption
         bf:85:80:c8:2e:9d:0b:f3:76:16:d8:0e:eb:44:65:96:fd:f8:
         c8:be:03:8d:3f:5a:ce:0f:13:fe:24:91:b6:f9:03:56:20:0b:
         b9:24:13:72:4c:ff:59:36:ec:88:9d:c0:b6:3d:98:87:7a:36:
         16:b9:69:76:00:c4:0d:78:99:f8:a6:13:6f:b3:90:29:42:7f:
         ee:35:65:03:76:f1:91:58:21:f0:3a:53:57:8a:d3:22:ba:84:
         65:18:52:d8:77:9d:b3:06:73:0a:4d:8d:ab:97:a4:fc:e9:82:
         f5:de:46:bd:0b:48:ba:50:7e:39:7d:35:6c:19:25:6b:82:46:
         c6:72:d9:36:69:d0:b5:9f:ba:ed:88:3b:73:16:1f:cd:bf:26:
         7c:67:f5:fc:92:de:ec:3e:69:f0:2c:1f:4c:3d:40:cc:8d:a8:
         a2:9e:e1:d5:2f:52:48:d7:92:fb:d0:cf:3d:d6:ed:ea:d1:59:
         e1:c8:6e:db:18:c1:f8:5f:bd:f5:24:e7:88:b0:cc:de:63:83:
         92:4e:8a:15:5a:e9:0a:cb:de:3c:b3:3a:81:8b:76:f6:ae:9b:
         41:ca:59:11:ae:8c:af:0f:32:10:cb:19:d7:1e:e6:60:56:78:
         f9:14:d8:ea:d9:d2:8f:d7:bd:62:8b:0b:0c:9e:24:b9:16:ed:
         e3:75:19:03
-----BEGIN CERTIFICATE-----
MIIEhzCCA2+gAwIBAgIGCgsMDQ45MA0GCSqGSIb3DQEBCwUAMHoxEzARBgNVBAMU
CkRFTEhJQ0FfQ0ExCzAJBgNVBAYTAklOMQ8wDQYDVQQKEwZDSVRSSVgxDDAKBgNV
BAsTA0FORzELMAkGA1UECBMCS0ExKjAoBgkqhkiG9w0BCQEWG0RFTEhJQ0FfQ0FA
REVMSElDQV9tYWlsLmNvbTAeFw0xNzA4MjMxMDUwMzJaFw0yNzA4MjExMDUwMzJa
MGgxCzAJBgNVBAgTAktBMQswCQYDVQQGEwJJTjEXMBUGA1UEAxQOZGVsaGlfM19j
bGllbnQxIjAgBgkqhkiG9w0BCQEWE2RlbGhpXzNAdGVzdF9jYS5jb20xDzANBgNV
BAoTBkNJVFJJWDCCASIwDQYJKoZIhvcNAQEBBQADggEPADCCAQoCggEBAMe7sPOa
sGpjvdj1cAE9NJOrs4LzHcSzQEDrrJPhxi0YOsXALOtHh0Vt0l/YdOFiu0V1QxD4
vbdEFMTZz9QSjhOe0jztzzfx+/MRI+FBB/MYGgM86GQh3zXejFK+6IQ1AXdQEfi5
68LXi9a9mK/Wcao9EBnNmNLFG/c/WCTTRWwd+WQAI1COcYQr/BejmTiSKAOsD316
bGWIXGgBnSYIP0GCdLwkzSZF5ZgwPc+cRBGRB/3yDXU0KpS80xWsbYAjGgom1oPA
7IvDCmGRBnXmzRblGj/bR8tE5WuRhzqT29FA7xQC+ycwTKl3zWdcBdRVwPr0SNHz
e1ucukgG6uUJbbsCAwEAAaOCASMwggEfMBEGCWCGSAGG+EIBAQQEAwIGQDAdBgNV
HQ4EFgQULSmxnJPhlv6AUAZnNYteRRsTFYMwgawGA1UdIwSBpDCBoYAU1zdSAdws
eleFyjA5MPDVXVoxAwKhfqR8MHoxEzARBgNVBAMUCkRFTEhJQ0FfQ0ExCzAJBgNV
BAYTAklOMQ8wDQYDVQQKEwZDSVRSSVgxDDAKBgNVBAsTA0FORzELMAkGA1UECBMC
S0ExKjAoBgkqhkiG9w0BCQEWG0RFTEhJQ0FfQ0FAREVMSElDQV9tYWlsLmNvbYIJ
AJRZ3FFOpRMnMDwGCCsGAQUFBwEBBDAwLjAsBggrBgEFBQcwAYYgaHR0cDovLzE3
Mi4yMC4yMC4xL3Jlc3BvbmRlcnBhdGgwDQYJKoZIhvcNAQELBQADggEBAL+FgMgu
nQvzdhbYDutEZZb9+Mi+A40/Ws4PE/4kkbb5A1YgC7kkE3JM/1k27IidwLY9mId6
Nha5aXYAxA14mfimE2+zkClCf+41ZQN28ZFYIfA6U1eK0yK6hGUYUth3nbMGcwpN
jauXpPzpgvXeRr0LSLpQfjl9NWwZJWuCRsZy2TZp0LWfuu2IO3MWH82/Jnxn9fyS
3uw+afAsH0w9QMyNqKKe4dUvUkjXkvvQzz3W7erRWeHIbtsYwfhfvfUk54iwzN5j
g5JOihVa6QrL3jyzOoGLdvaum0HKWRGujK8PMhDLGdce5mBWePkU2OrZ0o/XvWKL
CwyeJLkW7eN1GQM=
-----END CERTIFICATE-----
