Certificate:
    Data:
        Version: 3 (0x2)
        Serial Number: 11042563100176 (0xa0b0c0d0e10)
    Signature Algorithm: sha256WithRSAEncryption
        Issuer: CN=DELHICA_CA, C=IN, O=CITRIX, OU=ANG, ST=KA/emailAddress=DELHICA_CA@DELHICA_mail.com
        Validity
            Not Before: Jul  8 04:34:22 2016 GMT
            Not After : Jul  6 04:34:22 2026 GMT
        Subject: ST=KA, C=IN, CN=102_DELHICA_server/emailAddress=102_DELHICA@test_ca.com, O=CITRIX
        Subject Public Key Info:
            Public Key Algorithm: rsaEncryption
                Public-Key: (2048 bit)
                Modulus:
                    00:b9:0e:c3:17:18:63:8b:13:c2:6c:7f:55:1e:b9:
                    f7:b5:4b:69:e9:3d:4b:d6:56:73:72:c7:8a:17:a1:
                    c2:18:ad:fd:a5:6d:22:81:ac:8b:f7:d7:1e:4e:0d:
                    5f:fb:3d:65:0d:7b:42:a3:d5:67:1b:35:18:06:7a:
                    20:71:47:9e:b5:7a:30:c3:74:15:bf:53:9c:09:d3:
                    42:72:f9:95:95:65:58:a5:dd:70:3a:e8:cd:e6:30:
                    b3:f4:78:d8:1b:f0:e1:5f:81:48:69:84:e6:2a:2a:
                    4c:93:b8:a1:75:9f:37:8c:de:b8:ed:e3:85:53:97:
                    31:80:40:04:56:26:af:db:0a:bd:37:89:75:50:b1:
                    cd:49:5a:b1:f1:f9:13:bb:74:7f:7b:3e:e3:01:16:
                    b9:5f:b6:19:48:4e:71:81:98:26:79:bf:36:bb:b6:
                    22:24:23:b1:a1:a6:28:c8:c0:e7:d8:67:4d:61:15:
                    ba:1c:79:47:ec:95:a9:6c:ca:88:e8:68:c3:30:34:
                    eb:4c:68:4f:dc:c5:73:0c:0e:0b:02:2c:3c:2b:70:
                    62:a3:25:9c:71:18:c7:31:08:35:c7:5d:71:c6:6c:
                    7d:01:b9:bb:c2:13:19:da:bf:ae:8b:5e:20:09:29:
                    49:2f:43:64:64:b2:e3:d0:f0:33:63:b7:41:58:d2:
                    56:6d
                Exponent: 65537 (0x10001)
        X509v3 extensions:
            Netscape Cert Type: 
                SSL Server
            X509v3 Subject Key Identifier: 
                3E:99:EB:62:96:02:F2:B2:96:19:CF:6A:54:1E:F4:1E:88:B2:47:2D
            X509v3 Authority Key Identifier: 
                keyid:D7:37:52:01:DC:2C:7A:57:85:CA:30:39:30:F0:D5:5D:5A:31:03:02
                DirName:/CN=DELHICA_CA/C=IN/O=CITRIX/OU=ANG/ST=KA/emailAddress=DELHICA_CA@DELHICA_mail.com
                serial:94:59:DC:51:4E:A5:13:27

            Authority Information Access: 
                OCSP - URI:http://DELHICA_one.ocsptest.com/responderpath

    Signature Algorithm: sha256WithRSAEncryption
         28:05:61:66:4f:b9:cd:36:92:7c:de:56:1d:81:aa:b3:d5:6c:
         d3:70:b0:aa:ab:3d:c6:ac:06:e8:75:9d:b0:a3:6c:76:4f:85:
         0c:d6:a1:2b:05:37:7c:65:fb:90:a8:db:b0:4e:97:a5:b9:45:
         86:02:31:b4:78:de:d0:c1:fc:ea:7f:0f:df:02:e7:19:f6:2c:
         cc:e6:c4:a6:ef:82:94:37:a0:b8:13:0e:d5:2e:74:38:25:97:
         85:bf:04:6b:cf:20:e6:2b:e3:14:b9:a3:a5:30:8b:c5:10:32:
         56:96:94:e3:73:d9:b3:4b:c7:aa:87:3c:e3:4a:65:0b:09:c5:
         8d:9f:22:21:d1:7a:d0:9e:b5:1d:92:4b:5e:91:e8:db:1c:7d:
         41:b2:22:08:c6:38:f4:47:c3:71:85:5b:66:47:4e:19:fe:41:
         1d:0e:42:d8:c4:7c:1d:a9:c9:cc:7f:8d:2d:3e:7d:ce:7e:73:
         64:87:6a:8b:30:d2:57:69:9e:18:02:3a:df:7c:fd:b0:05:de:
         eb:6a:29:a1:6f:b1:21:61:11:85:b2:cb:3f:34:f1:4f:f4:5b:
         02:cc:d2:8e:1a:36:4e:e0:e9:9a:82:a0:8d:06:cc:6e:3f:a5:
         9b:5e:50:18:c3:89:9e:44:9d:cf:56:51:6a:56:c8:e3:b5:17:
         9a:f8:0a:e5
-----BEGIN CERTIFICATE-----
MIIEnDCCA4SgAwIBAgIGCgsMDQ4QMA0GCSqGSIb3DQEBCwUAMHoxEzARBgNVBAMU
CkRFTEhJQ0FfQ0ExCzAJBgNVBAYTAklOMQ8wDQYDVQQKEwZDSVRSSVgxDDAKBgNV
BAsTA0FORzELMAkGA1UECBMCS0ExKjAoBgkqhkiG9w0BCQEWG0RFTEhJQ0FfQ0FA
REVMSElDQV9tYWlsLmNvbTAeFw0xNjA3MDgwNDM0MjJaFw0yNjA3MDYwNDM0MjJa
MHAxCzAJBgNVBAgTAktBMQswCQYDVQQGEwJJTjEbMBkGA1UEAxQSMTAyX0RFTEhJ
Q0Ffc2VydmVyMSYwJAYJKoZIhvcNAQkBFhcxMDJfREVMSElDQUB0ZXN0X2NhLmNv
bTEPMA0GA1UEChMGQ0lUUklYMIIBIjANBgkqhkiG9w0BAQEFAAOCAQ8AMIIBCgKC
AQEAuQ7DFxhjixPCbH9VHrn3tUtp6T1L1lZzcseKF6HCGK39pW0igayL99ceTg1f
+z1lDXtCo9VnGzUYBnogcUeetXoww3QVv1OcCdNCcvmVlWVYpd1wOujN5jCz9HjY
G/DhX4FIaYTmKipMk7ihdZ83jN647eOFU5cxgEAEViav2wq9N4l1ULHNSVqx8fkT
u3R/ez7jARa5X7YZSE5xgZgmeb82u7YiJCOxoaYoyMDn2GdNYRW6HHlH7JWpbMqI
6GjDMDTrTGhP3MVzDA4LAiw8K3BioyWccRjHMQg1x11xxmx9Abm7whMZ2r+ui14g
CSlJL0NkZLLj0PAzY7dBWNJWbQIDAQABo4IBMDCCASwwEQYJYIZIAYb4QgEBBAQD
AgZAMB0GA1UdDgQWBBQ+metilgLyspYZz2pUHvQeiLJHLTCBrAYDVR0jBIGkMIGh
gBTXN1IB3Cx6V4XKMDkw8NVdWjEDAqF+pHwwejETMBEGA1UEAxQKREVMSElDQV9D
QTELMAkGA1UEBhMCSU4xDzANBgNVBAoTBkNJVFJJWDEMMAoGA1UECxMDQU5HMQsw
CQYDVQQIEwJLQTEqMCgGCSqGSIb3DQEJARYbREVMSElDQV9DQUBERUxISUNBX21h
aWwuY29tggkAlFncUU6lEycwSQYIKwYBBQUHAQEEPTA7MDkGCCsGAQUFBzABhi1o
dHRwOi8vREVMSElDQV9vbmUub2NzcHRlc3QuY29tL3Jlc3BvbmRlcnBhdGgwDQYJ
KoZIhvcNAQELBQADggEBACgFYWZPuc02knzeVh2BqrPVbNNwsKqrPcasBuh1nbCj
bHZPhQzWoSsFN3xl+5Co27BOl6W5RYYCMbR43tDB/Op/D98C5xn2LMzmxKbvgpQ3
oLgTDtUudDgll4W/BGvPIOYr4xS5o6Uwi8UQMlaWlONz2bNLx6qHPONKZQsJxY2f
IiHRetCetR2SS16R6NscfUGyIgjGOPRHw3GFW2ZHThn+QR0OQtjEfB2pycx/jS0+
fc5+c2SHaosw0ldpnhgCOt98/bAF3utqKaFvsSFhEYWyyz808U/0WwLM0o4aNk7g
6ZqCoI0GzG4/pZteUBjDiZ5Enc9WUWpWyOO1F5r4CuU=
-----END CERTIFICATE-----
