Certificate:
    Data:
        Version: 3 (0x2)
        Serial Number: 11042563100262 (0xa0b0c0d0e66)
    Signature Algorithm: sha256WithRSAEncryption
        Issuer: CN=DELHICA_CA, C=IN, O=CITRIX, OU=ANG, ST=KA/emailAddress=DELHICA_CA@DELHICA_mail.com
        Validity
            Not Before: Aug 23 10:51:02 2017 GMT
            Not After : Aug 21 10:51:02 2027 GMT
        Subject: ST=KA, C=IN, CN=delhi_48_client/emailAddress=delhi_48@test_ca.com, O=CITRIX
        Subject Public Key Info:
            Public Key Algorithm: rsaEncryption
                Public-Key: (2048 bit)
                Modulus:
                    00:a1:a1:d0:69:45:3e:74:7f:e6:74:15:02:6e:dc:
                    fc:53:7a:d3:55:c8:8e:7e:03:4e:0c:ec:80:2e:64:
                    57:ca:32:ff:be:e8:5d:08:4d:db:14:d7:94:5d:fd:
                    33:06:87:e6:b3:92:f4:64:6b:1a:47:32:f3:97:8e:
                    48:90:d7:bf:15:f4:66:0f:ec:b6:db:fd:49:31:5f:
                    a6:87:b8:c8:3e:62:ac:3e:f0:f0:fb:58:03:14:7d:
                    04:14:36:6f:c3:91:42:24:85:b1:11:a5:f7:80:46:
                    c1:64:00:a7:3f:c1:47:31:87:ca:2b:f2:62:b8:9e:
                    2b:0a:1a:e3:43:d3:48:f5:dc:4d:35:77:7a:5e:8e:
                    06:f3:b0:ec:a7:52:f8:19:4a:2e:cf:4d:f2:2c:58:
                    7b:fb:49:60:7b:ef:0b:18:92:b4:de:1b:17:90:b3:
                    ec:87:b1:71:b9:68:36:57:43:31:47:d4:c3:45:39:
                    7c:aa:50:97:ac:e3:67:10:48:36:e0:f6:99:cb:30:
                    35:30:fc:0f:99:e2:1d:84:96:e6:4c:f1:6c:bc:8b:
                    0c:ed:3e:ef:8e:ab:b5:41:d4:50:1b:d9:41:bc:32:
                    8c:eb:5b:12:32:0d:39:c7:d3:e1:68:2a:c2:41:67:
                    80:47:82:7c:2f:50:cb:f5:26:ed:86:a2:2f:d5:6c:
                    b8:a1
                Exponent: 65537 (0x10001)
        X509v3 extensions:
            Netscape Cert Type: 
                SSL Server
            X509v3 Subject Key Identifier: 
                25:BA:6A:B0:73:4B:02:E7:36:A1:B0:CE:A3:11:3F:5D:26:FE:B3:65
            X509v3 Authority Key Identifier: 
                keyid:D7:37:52:01:DC:2C:7A:57:85:CA:30:39:30:F0:D5:5D:5A:31:03:02
                DirName:/CN=DELHICA_CA/C=IN/O=CITRIX/OU=ANG/ST=KA/emailAddress=DELHICA_CA@DELHICA_mail.com
                serial:94:59:DC:51:4E:A5:13:27

            Authority Information Access: 
                OCSP - URI:http://172.20.20.1/responderpath

    Signature Algorithm: sha256WithRSAEncryption
         89:42:aa:bb:85:f3:4b:b7:30:c0:67:a8:ea:24:57:0e:de:24:
         7c:b0:07:31:14:23:b1:95:02:4b:87:ca:ca:e7:53:5a:b9:c6:
         22:b1:ed:cf:e6:ab:0c:b2:c8:b8:f4:66:7a:9e:c6:cc:ce:05:
         3d:1e:c0:64:e0:1a:19:5b:8c:7b:62:05:d0:38:70:31:c5:03:
         77:64:e3:a2:19:ae:a1:7a:73:44:4c:60:f9:80:21:78:42:7b:
         a7:36:61:89:d3:e7:fd:b2:29:37:1f:f8:55:4d:30:51:9e:20:
         9c:31:7f:17:b8:02:b3:84:be:39:a4:b2:dd:21:e6:c9:83:46:
         f9:92:a2:dc:d4:3b:7f:2d:1a:18:6f:1f:2c:2b:13:94:8b:2c:
         1f:14:36:10:4d:31:f7:e8:7a:65:c0:91:52:a4:fc:bf:f8:d3:
         89:ce:af:8c:db:6a:81:8a:97:9b:4e:b1:ca:4f:81:e5:b3:fc:
         77:9f:b3:82:25:e1:38:d9:68:68:ad:df:18:fb:c7:dd:7a:eb:
         26:8a:8f:0b:81:c6:26:0b:0b:8e:c1:77:bd:37:a5:e1:af:0f:
         9d:46:f5:6c:7c:ba:93:03:b1:d3:a7:ad:e1:db:35:f1:47:1b:
         1f:52:b3:d4:b4:95:c4:74:42:8c:a4:86:c8:f9:f1:b5:78:d4:
         62:db:f7:0b
-----BEGIN CERTIFICATE-----
MIIEiTCCA3GgAwIBAgIGCgsMDQ5mMA0GCSqGSIb3DQEBCwUAMHoxEzARBgNVBAMU
CkRFTEhJQ0FfQ0ExCzAJBgNVBAYTAklOMQ8wDQYDVQQKEwZDSVRSSVgxDDAKBgNV
BAsTA0FORzELMAkGA1UECBMCS0ExKjAoBgkqhkiG9w0BCQEWG0RFTEhJQ0FfQ0FA
REVMSElDQV9tYWlsLmNvbTAeFw0xNzA4MjMxMDUxMDJaFw0yNzA4MjExMDUxMDJa
MGoxCzAJBgNVBAgTAktBMQswCQYDVQQGEwJJTjEYMBYGA1UEAxQPZGVsaGlfNDhf
Y2xpZW50MSMwIQYJKoZIhvcNAQkBFhRkZWxoaV80OEB0ZXN0X2NhLmNvbTEPMA0G
A1UEChMGQ0lUUklYMIIBIjANBgkqhkiG9w0BAQEFAAOCAQ8AMIIBCgKCAQEAoaHQ
aUU+dH/mdBUCbtz8U3rTVciOfgNODOyALmRXyjL/vuhdCE3bFNeUXf0zBofms5L0
ZGsaRzLzl45IkNe/FfRmD+y22/1JMV+mh7jIPmKsPvDw+1gDFH0EFDZvw5FCJIWx
EaX3gEbBZACnP8FHMYfKK/JiuJ4rChrjQ9NI9dxNNXd6Xo4G87Dsp1L4GUouz03y
LFh7+0lge+8LGJK03hsXkLPsh7FxuWg2V0MxR9TDRTl8qlCXrONnEEg24PaZyzA1
MPwPmeIdhJbmTPFsvIsM7T7vjqu1QdRQG9lBvDKM61sSMg05x9PhaCrCQWeAR4J8
L1DL9SbthqIv1Wy4oQIDAQABo4IBIzCCAR8wEQYJYIZIAYb4QgEBBAQDAgZAMB0G
A1UdDgQWBBQlumqwc0sC5zahsM6jET9dJv6zZTCBrAYDVR0jBIGkMIGhgBTXN1IB
3Cx6V4XKMDkw8NVdWjEDAqF+pHwwejETMBEGA1UEAxQKREVMSElDQV9DQTELMAkG
A1UEBhMCSU4xDzANBgNVBAoTBkNJVFJJWDEMMAoGA1UECxMDQU5HMQswCQYDVQQI
EwJLQTEqMCgGCSqGSIb3DQEJARYbREVMSElDQV9DQUBERUxISUNBX21haWwuY29t
ggkAlFncUU6lEycwPAYIKwYBBQUHAQEEMDAuMCwGCCsGAQUFBzABhiBodHRwOi8v
MTcyLjIwLjIwLjEvcmVzcG9uZGVycGF0aDANBgkqhkiG9w0BAQsFAAOCAQEAiUKq
u4XzS7cwwGeo6iRXDt4kfLAHMRQjsZUCS4fKyudTWrnGIrHtz+arDLLIuPRmep7G
zM4FPR7AZOAaGVuMe2IF0DhwMcUDd2TjohmuoXpzRExg+YAheEJ7pzZhidPn/bIp
Nx/4VU0wUZ4gnDF/F7gCs4S+OaSy3SHmyYNG+ZKi3NQ7fy0aGG8fLCsTlIssHxQ2
EE0x9+h6ZcCRUqT8v/jTic6vjNtqgYqXm06xyk+B5bP8d5+zgiXhONloaK3fGPvH
3XrrJoqPC4HGJgsLjsF3vTel4a8PnUb1bHy6kwOx06et4ds18UcbH1Kz1LSVxHRC
jKSGyPnxtXjUYtv3Cw==
-----END CERTIFICATE-----
