Certificate:
    Data:
        Version: 3 (0x2)
        Serial Number: 11042563100223 (0xa0b0c0d0e3f)
    Signature Algorithm: sha256WithRSAEncryption
        Issuer: CN=DELHICA_CA, C=IN, O=CITRIX, OU=ANG, ST=KA/emailAddress=DELHICA_CA@DELHICA_mail.com
        Validity
            Not Before: Aug 23 10:50:35 2017 GMT
            Not After : Aug 21 10:50:35 2027 GMT
        Subject: ST=KA, C=IN, CN=delhi_9_client/emailAddress=delhi_9@test_ca.com, O=CITRIX
        Subject Public Key Info:
            Public Key Algorithm: rsaEncryption
                Public-Key: (2048 bit)
                Modulus:
                    00:94:52:0d:4b:4a:c1:31:54:e2:1f:6c:95:8d:83:
                    69:ce:8b:af:1d:9a:54:47:43:da:88:75:d8:3a:62:
                    e6:0e:b4:9f:74:ff:ad:e2:f9:9b:14:51:5c:e1:25:
                    80:d3:4f:0e:3c:6a:1e:8a:d4:3e:b3:45:e5:22:3e:
                    40:88:14:bb:9b:3e:f1:1f:2c:79:6e:a4:f6:7d:3e:
                    c6:34:7e:13:d8:0a:b1:85:bd:e0:ca:fb:e6:7c:24:
                    5a:45:44:aa:6c:c4:4d:34:62:cd:c7:2c:f7:d3:22:
                    ff:6a:50:25:4f:bb:71:47:ad:2e:a7:6e:3c:de:7c:
                    48:09:cf:d8:5e:96:5e:08:e8:5f:57:f3:ad:33:d2:
                    ec:e3:00:ce:8b:4b:6f:7b:38:e8:a5:0e:b1:4d:1a:
                    19:fe:1e:61:59:fb:a4:9e:94:f9:a5:95:51:2a:07:
                    84:f3:78:8b:29:06:d3:21:ec:02:37:ba:41:24:9b:
                    86:b4:b8:21:19:05:07:62:c3:59:25:d3:60:f5:b6:
                    e4:0a:32:67:ec:57:d1:a0:63:51:27:b5:d7:a3:57:
                    2e:99:c5:ce:4a:54:e4:b0:bd:4e:2d:5a:f4:3b:80:
                    f6:4e:69:ca:47:8f:66:c6:e2:56:81:30:f6:3e:f7:
                    92:93:20:ad:f8:d9:31:7d:4a:d3:e1:e5:85:76:d3:
                    c1:11
                Exponent: 65537 (0x10001)
        X509v3 extensions:
            Netscape Cert Type: 
                SSL Server
            X509v3 Subject Key Identifier: 
                3D:48:F9:2B:FF:E8:0D:E3:05:94:86:93:1C:FA:06:D2:9F:E7:1F:84
            X509v3 Authority Key Identifier: 
                keyid:D7:37:52:01:DC:2C:7A:57:85:CA:30:39:30:F0:D5:5D:5A:31:03:02
                DirName:/CN=DELHICA_CA/C=IN/O=CITRIX/OU=ANG/ST=KA/emailAddress=DELHICA_CA@DELHICA_mail.com
                serial:94:59:DC:51:4E:A5:13:27

            Authority Information Access: 
                OCSP - URI:http://172.20.20.1/responderpath

    Signature Algorithm: sha256WithRSAEncryption
         38:e5:aa:64:83:1a:32:67:5d:6d:9d:53:55:eb:c0:c2:51:09:
         50:6b:d8:87:ce:82:0d:c7:9b:3e:00:bb:fa:7a:a3:87:01:a2:
         2e:d8:9d:73:60:07:b8:4e:b2:6b:85:6b:f8:93:46:9c:38:72:
         d1:d4:5f:84:ba:06:0b:53:5b:37:f4:7b:3c:e5:38:2e:f4:d4:
         05:2d:e5:15:4a:84:be:68:a3:3a:bc:ed:69:eb:04:32:44:b2:
         cb:4d:64:9b:d0:4d:9f:d3:f2:27:d4:86:e2:13:7d:43:e6:81:
         3a:0c:1b:b9:84:25:85:79:af:51:f9:ba:8b:a9:8f:a5:e1:c0:
         b7:48:10:cd:ba:f9:3f:45:a2:4c:bf:4e:fd:b1:40:5d:61:bf:
         c7:4e:7e:73:c7:30:fc:b7:b2:52:ec:c8:17:5b:7f:5b:38:1a:
         9d:dd:bb:7a:92:1f:fd:7f:40:22:ca:8d:08:de:bd:32:11:53:
         30:51:ca:fb:b8:b9:42:ab:e3:35:e9:53:e9:e8:c3:ce:66:95:
         5d:5d:35:33:9c:80:69:2d:4b:cf:20:d6:b4:7e:8b:e5:aa:4a:
         a7:43:20:1e:4c:05:73:07:cf:b5:39:bc:5c:21:0f:b2:71:b3:
         70:8a:e4:62:e6:09:72:fe:ea:48:ff:ca:a1:78:dd:ab:b0:60:
         19:20:46:5b
-----BEGIN CERTIFICATE-----
MIIEhzCCA2+gAwIBAgIGCgsMDQ4/MA0GCSqGSIb3DQEBCwUAMHoxEzARBgNVBAMU
CkRFTEhJQ0FfQ0ExCzAJBgNVBAYTAklOMQ8wDQYDVQQKEwZDSVRSSVgxDDAKBgNV
BAsTA0FORzELMAkGA1UECBMCS0ExKjAoBgkqhkiG9w0BCQEWG0RFTEhJQ0FfQ0FA
REVMSElDQV9tYWlsLmNvbTAeFw0xNzA4MjMxMDUwMzVaFw0yNzA4MjExMDUwMzVa
MGgxCzAJBgNVBAgTAktBMQswCQYDVQQGEwJJTjEXMBUGA1UEAxQOZGVsaGlfOV9j
bGllbnQxIjAgBgkqhkiG9w0BCQEWE2RlbGhpXzlAdGVzdF9jYS5jb20xDzANBgNV
BAoTBkNJVFJJWDCCASIwDQYJKoZIhvcNAQEBBQADggEPADCCAQoCggEBAJRSDUtK
wTFU4h9slY2Dac6Lrx2aVEdD2oh12Dpi5g60n3T/reL5mxRRXOElgNNPDjxqHorU
PrNF5SI+QIgUu5s+8R8seW6k9n0+xjR+E9gKsYW94Mr75nwkWkVEqmzETTRizccs
99Mi/2pQJU+7cUetLqduPN58SAnP2F6WXgjoX1fzrTPS7OMAzotLb3s46KUOsU0a
Gf4eYVn7pJ6U+aWVUSoHhPN4iykG0yHsAje6QSSbhrS4IRkFB2LDWSXTYPW25Aoy
Z+xX0aBjUSe116NXLpnFzkpU5LC9Ti1a9DuA9k5pykePZsbiVoEw9j73kpMgrfjZ
MX1K0+HlhXbTwRECAwEAAaOCASMwggEfMBEGCWCGSAGG+EIBAQQEAwIGQDAdBgNV
HQ4EFgQUPUj5K//oDeMFlIaTHPoG0p/nH4QwgawGA1UdIwSBpDCBoYAU1zdSAdws
eleFyjA5MPDVXVoxAwKhfqR8MHoxEzARBgNVBAMUCkRFTEhJQ0FfQ0ExCzAJBgNV
BAYTAklOMQ8wDQYDVQQKEwZDSVRSSVgxDDAKBgNVBAsTA0FORzELMAkGA1UECBMC
S0ExKjAoBgkqhkiG9w0BCQEWG0RFTEhJQ0FfQ0FAREVMSElDQV9tYWlsLmNvbYIJ
AJRZ3FFOpRMnMDwGCCsGAQUFBwEBBDAwLjAsBggrBgEFBQcwAYYgaHR0cDovLzE3
Mi4yMC4yMC4xL3Jlc3BvbmRlcnBhdGgwDQYJKoZIhvcNAQELBQADggEBADjlqmSD
GjJnXW2dU1XrwMJRCVBr2IfOgg3Hmz4Au/p6o4cBoi7YnXNgB7hOsmuFa/iTRpw4
ctHUX4S6BgtTWzf0ezzlOC701AUt5RVKhL5oozq87WnrBDJEsstNZJvQTZ/T8ifU
huITfUPmgToMG7mEJYV5r1H5uoupj6XhwLdIEM26+T9Foky/Tv2xQF1hv8dOfnPH
MPy3slLsyBdbf1s4Gp3du3qSH/1/QCLKjQjevTIRUzBRyvu4uUKr4zXpU+now85m
lV1dNTOcgGktS88g1rR+i+WqSqdDIB5MBXMHz7U5vFwhD7Jxs3CK5GLmCXL+6kj/
yqF43auwYBkgRls=
-----END CERTIFICATE-----
