Certificate:
    Data:
        Version: 3 (0x2)
        Serial Number: 11042563100239 (0xa0b0c0d0e4f)
    Signature Algorithm: sha256WithRSAEncryption
        Issuer: CN=DELHICA_CA, C=IN, O=CITRIX, OU=ANG, ST=KA/emailAddress=DELHICA_CA@DELHICA_mail.com
        Validity
            Not Before: Aug 23 10:50:44 2017 GMT
            Not After : Aug 21 10:50:44 2027 GMT
        Subject: ST=KA, C=IN, CN=delhi_25_client/emailAddress=delhi_25@test_ca.com, O=CITRIX
        Subject Public Key Info:
            Public Key Algorithm: rsaEncryption
                Public-Key: (2048 bit)
                Modulus:
                    00:c3:8c:88:cb:d5:87:35:38:1f:68:23:8e:25:37:
                    3b:48:f0:94:f0:fc:6a:7e:2d:31:44:cb:75:56:f0:
                    4f:74:0a:96:c1:25:6f:6c:da:66:c2:ce:f2:81:7c:
                    67:26:2f:0b:16:79:03:98:d9:16:a7:24:72:ae:d5:
                    80:d9:eb:a5:48:11:05:aa:a8:6e:54:e5:ce:d2:19:
                    de:00:89:72:6f:ee:3a:93:14:36:3c:7f:c7:4d:8e:
                    af:c8:e6:f8:cb:bc:14:a2:81:ad:02:88:c8:dd:d2:
                    a5:54:75:95:0f:5a:18:50:64:29:c6:84:0a:ad:7a:
                    30:f8:96:b0:21:8b:fa:dc:26:16:9f:04:81:15:97:
                    a5:44:d2:ab:76:eb:b5:1a:b6:39:a3:05:54:53:df:
                    08:1f:18:66:0c:71:ce:73:d4:3a:28:0d:3f:b6:cc:
                    82:66:da:3e:3d:bf:01:e1:ab:b6:ec:24:6f:e0:21:
                    7e:cc:06:47:19:65:24:9b:19:81:06:1e:dc:96:64:
                    8a:a1:a3:ee:1a:6d:c1:0b:ec:20:6d:b9:24:6a:38:
                    5c:c0:1a:16:10:ae:56:4c:af:9c:ce:14:42:9f:e3:
                    cf:65:67:4d:34:b7:e7:79:f8:a3:6c:fb:3c:24:b5:
                    92:f5:67:30:26:71:d7:d1:5b:3b:1a:cd:75:3d:19:
                    71:73
                Exponent: 65537 (0x10001)
        X509v3 extensions:
            Netscape Cert Type: 
                SSL Server
            X509v3 Subject Key Identifier: 
                B7:D5:18:DD:2A:EF:98:E6:D7:24:9D:A0:93:EB:B8:92:5D:7E:01:3D
            X509v3 Authority Key Identifier: 
                keyid:D7:37:52:01:DC:2C:7A:57:85:CA:30:39:30:F0:D5:5D:5A:31:03:02
                DirName:/CN=DELHICA_CA/C=IN/O=CITRIX/OU=ANG/ST=KA/emailAddress=DELHICA_CA@DELHICA_mail.com
                serial:94:59:DC:51:4E:A5:13:27

            Authority Information Access: 
                OCSP - URI:http://172.20.20.1/responderpath

    Signature Algorithm: sha256WithRSAEncryption
         1c:2b:16:5c:8b:11:28:ba:e4:8e:ed:ea:2b:1b:41:e9:d6:7a:
         76:a1:6b:06:a5:46:94:26:c4:b0:e3:ee:d2:5e:71:fd:eb:7a:
         df:a3:97:c9:3a:19:0e:62:bb:12:32:c3:68:fb:00:ad:c9:cf:
         3f:c6:10:2d:42:00:c5:79:a2:5d:44:02:19:1e:fd:0c:f0:e9:
         31:c3:b9:fc:7b:40:9a:2e:49:98:11:7f:d5:cd:07:28:2e:36:
         7a:00:0c:e3:c2:98:b7:6b:7f:57:c5:d5:2b:28:73:84:03:a2:
         ef:da:38:4f:2c:32:78:bd:c9:7c:d2:62:07:40:f5:a0:6e:9a:
         12:c8:06:ca:76:b5:25:fb:b8:fc:e4:e9:2a:ae:3a:82:89:b7:
         20:88:a5:e4:1d:b0:4e:d4:52:34:16:63:30:b1:87:b9:f0:54:
         66:54:f4:57:ff:81:0b:38:af:66:94:fe:ca:42:05:b8:76:6a:
         34:53:2c:ca:53:5f:4d:5a:5c:64:6c:fa:f8:ec:e4:10:8c:a7:
         69:4c:55:b4:12:cd:76:01:3c:66:cf:2e:fd:a7:a9:02:c5:08:
         f5:7d:6d:43:c6:39:48:1d:9e:c2:05:e0:ab:f1:c8:f9:8c:bb:
         bf:56:67:72:06:32:b8:fc:c2:33:42:91:f9:2c:f0:26:f4:70:
         75:d7:76:cb
-----BEGIN CERTIFICATE-----
MIIEiTCCA3GgAwIBAgIGCgsMDQ5PMA0GCSqGSIb3DQEBCwUAMHoxEzARBgNVBAMU
CkRFTEhJQ0FfQ0ExCzAJBgNVBAYTAklOMQ8wDQYDVQQKEwZDSVRSSVgxDDAKBgNV
BAsTA0FORzELMAkGA1UECBMCS0ExKjAoBgkqhkiG9w0BCQEWG0RFTEhJQ0FfQ0FA
REVMSElDQV9tYWlsLmNvbTAeFw0xNzA4MjMxMDUwNDRaFw0yNzA4MjExMDUwNDRa
MGoxCzAJBgNVBAgTAktBMQswCQYDVQQGEwJJTjEYMBYGA1UEAxQPZGVsaGlfMjVf
Y2xpZW50MSMwIQYJKoZIhvcNAQkBFhRkZWxoaV8yNUB0ZXN0X2NhLmNvbTEPMA0G
A1UEChMGQ0lUUklYMIIBIjANBgkqhkiG9w0BAQEFAAOCAQ8AMIIBCgKCAQEAw4yI
y9WHNTgfaCOOJTc7SPCU8Pxqfi0xRMt1VvBPdAqWwSVvbNpmws7ygXxnJi8LFnkD
mNkWpyRyrtWA2eulSBEFqqhuVOXO0hneAIlyb+46kxQ2PH/HTY6vyOb4y7wUooGt
AojI3dKlVHWVD1oYUGQpxoQKrXow+JawIYv63CYWnwSBFZelRNKrduu1GrY5owVU
U98IHxhmDHHOc9Q6KA0/tsyCZto+Pb8B4au27CRv4CF+zAZHGWUkmxmBBh7clmSK
oaPuGm3BC+wgbbkkajhcwBoWEK5WTK+czhRCn+PPZWdNNLfnefijbPs8JLWS9Wcw
JnHX0Vs7Gs11PRlxcwIDAQABo4IBIzCCAR8wEQYJYIZIAYb4QgEBBAQDAgZAMB0G
A1UdDgQWBBS31RjdKu+Y5tcknaCT67iSXX4BPTCBrAYDVR0jBIGkMIGhgBTXN1IB
3Cx6V4XKMDkw8NVdWjEDAqF+pHwwejETMBEGA1UEAxQKREVMSElDQV9DQTELMAkG
A1UEBhMCSU4xDzANBgNVBAoTBkNJVFJJWDEMMAoGA1UECxMDQU5HMQswCQYDVQQI
EwJLQTEqMCgGCSqGSIb3DQEJARYbREVMSElDQV9DQUBERUxISUNBX21haWwuY29t
ggkAlFncUU6lEycwPAYIKwYBBQUHAQEEMDAuMCwGCCsGAQUFBzABhiBodHRwOi8v
MTcyLjIwLjIwLjEvcmVzcG9uZGVycGF0aDANBgkqhkiG9w0BAQsFAAOCAQEAHCsW
XIsRKLrkju3qKxtB6dZ6dqFrBqVGlCbEsOPu0l5x/et636OXyToZDmK7EjLDaPsA
rcnPP8YQLUIAxXmiXUQCGR79DPDpMcO5/HtAmi5JmBF/1c0HKC42egAM48KYt2t/
V8XVKyhzhAOi79o4TywyeL3JfNJiB0D1oG6aEsgGyna1Jfu4/OTpKq46gom3IIil
5B2wTtRSNBZjMLGHufBUZlT0V/+BCzivZpT+ykIFuHZqNFMsylNfTVpcZGz6+Ozk
EIynaUxVtBLNdgE8Zs8u/aepAsUI9X1tQ8Y5SB2ewgXgq/HI+Yy7v1ZncgYyuPzC
M0KR+SzwJvRwddd2yw==
-----END CERTIFICATE-----
