Certificate:
    Data:
        Version: 3 (0x2)
        Serial Number: 11042563100249 (0xa0b0c0d0e59)
    Signature Algorithm: sha256WithRSAEncryption
        Issuer: CN=DELHICA_CA, C=IN, O=CITRIX, OU=ANG, ST=KA/emailAddress=DELHICA_CA@DELHICA_mail.com
        Validity
            Not Before: Aug 23 10:50:52 2017 GMT
            Not After : Aug 21 10:50:52 2027 GMT
        Subject: ST=KA, C=IN, CN=delhi_35_client/emailAddress=delhi_35@test_ca.com, O=CITRIX
        Subject Public Key Info:
            Public Key Algorithm: rsaEncryption
                Public-Key: (2048 bit)
                Modulus:
                    00:ab:2e:10:16:60:6a:70:45:9d:9b:20:1d:c6:ea:
                    92:0a:2c:4e:51:50:ff:49:cb:01:2e:ad:d4:46:39:
                    25:60:ae:f3:6d:23:12:f0:5d:7c:a8:9d:22:17:4d:
                    db:59:80:59:7d:ee:87:e7:07:d9:4b:2a:a8:1b:8c:
                    0b:a6:50:5a:c0:8a:3f:2f:61:05:f0:5d:49:7d:21:
                    1e:41:1a:3f:ce:d0:71:f1:59:5e:18:e8:36:e7:08:
                    c9:e0:18:0b:ba:12:78:e6:11:e8:c5:7e:20:d4:3a:
                    50:df:62:82:c5:f0:f3:11:0c:8d:86:77:1b:72:96:
                    50:d4:f0:ba:38:5c:2b:1d:32:e6:e5:f1:78:c6:cc:
                    47:28:05:3d:4f:b1:94:b3:77:04:14:97:27:d6:7e:
                    c7:b0:43:ca:b5:cf:a2:a5:0f:66:d4:64:ee:64:6a:
                    94:25:22:7f:65:9a:47:03:26:d7:72:54:4b:ca:49:
                    f7:b4:06:61:55:1d:40:5a:5e:7e:4c:f6:c4:86:c2:
                    6d:41:67:a4:a3:86:f9:b5:4d:57:b6:d2:85:98:6e:
                    c7:71:6b:aa:b4:34:ef:40:da:c1:2f:9a:87:1c:81:
                    4f:2f:36:e7:fa:c0:71:19:8a:05:a4:7e:66:a0:e7:
                    de:12:59:b0:ed:94:f0:04:d7:91:3b:70:57:97:b9:
                    24:f3
                Exponent: 65537 (0x10001)
        X509v3 extensions:
            Netscape Cert Type: 
                SSL Server
            X509v3 Subject Key Identifier: 
                9C:EE:BB:5A:4C:08:79:27:41:78:D7:66:E5:98:4F:BC:1A:CE:59:89
            X509v3 Authority Key Identifier: 
                keyid:D7:37:52:01:DC:2C:7A:57:85:CA:30:39:30:F0:D5:5D:5A:31:03:02
                DirName:/CN=DELHICA_CA/C=IN/O=CITRIX/OU=ANG/ST=KA/emailAddress=DELHICA_CA@DELHICA_mail.com
                serial:94:59:DC:51:4E:A5:13:27

            Authority Information Access: 
                OCSP - URI:http://172.20.20.1/responderpath

    Signature Algorithm: sha256WithRSAEncryption
         8d:89:a4:e5:a6:7e:e5:cd:4f:08:96:18:17:ef:01:b9:8d:24:
         15:e7:93:3a:b5:3d:86:4e:a9:c1:01:4f:f4:62:02:fd:1f:4b:
         79:14:86:be:38:50:da:37:93:f5:d1:0e:ca:21:64:1f:72:d4:
         c5:35:9f:9e:15:be:68:98:fc:5f:8d:d2:f2:7b:7d:fe:bd:ce:
         67:b3:56:42:b4:f1:16:b2:69:8b:92:b7:e9:11:bd:1a:d9:af:
         18:01:8d:ee:be:03:5a:84:47:c6:8e:24:b7:40:de:6f:dd:9a:
         bf:c2:74:4e:aa:59:30:2f:81:c2:3f:f5:3c:fb:bd:ca:23:49:
         22:b8:1e:68:20:53:91:db:08:6f:ca:d6:b3:e0:80:18:a7:e4:
         7e:9e:bc:7f:e2:f3:e1:37:91:e8:6b:1e:9e:8f:4e:de:e8:62:
         70:ee:5c:35:01:6f:c5:5a:dc:cf:63:84:8e:f1:8f:f6:a8:da:
         0e:d7:bb:13:ba:a0:bd:08:5d:cd:a8:0a:78:85:f4:ac:1d:21:
         fd:70:6f:fe:3d:4b:a0:23:be:5f:e7:49:b0:e1:8d:99:ee:8a:
         08:52:c6:93:f1:cd:2c:46:21:ea:b8:95:86:5b:0f:88:cb:5a:
         b9:7c:5f:3a:d5:e9:63:de:88:e9:24:72:e1:75:b0:f1:b5:40:
         f3:f3:8a:07
-----BEGIN CERTIFICATE-----
MIIEiTCCA3GgAwIBAgIGCgsMDQ5ZMA0GCSqGSIb3DQEBCwUAMHoxEzARBgNVBAMU
CkRFTEhJQ0FfQ0ExCzAJBgNVBAYTAklOMQ8wDQYDVQQKEwZDSVRSSVgxDDAKBgNV
BAsTA0FORzELMAkGA1UECBMCS0ExKjAoBgkqhkiG9w0BCQEWG0RFTEhJQ0FfQ0FA
REVMSElDQV9tYWlsLmNvbTAeFw0xNzA4MjMxMDUwNTJaFw0yNzA4MjExMDUwNTJa
MGoxCzAJBgNVBAgTAktBMQswCQYDVQQGEwJJTjEYMBYGA1UEAxQPZGVsaGlfMzVf
Y2xpZW50MSMwIQYJKoZIhvcNAQkBFhRkZWxoaV8zNUB0ZXN0X2NhLmNvbTEPMA0G
A1UEChMGQ0lUUklYMIIBIjANBgkqhkiG9w0BAQEFAAOCAQ8AMIIBCgKCAQEAqy4Q
FmBqcEWdmyAdxuqSCixOUVD/ScsBLq3URjklYK7zbSMS8F18qJ0iF03bWYBZfe6H
5wfZSyqoG4wLplBawIo/L2EF8F1JfSEeQRo/ztBx8VleGOg25wjJ4BgLuhJ45hHo
xX4g1DpQ32KCxfDzEQyNhncbcpZQ1PC6OFwrHTLm5fF4xsxHKAU9T7GUs3cEFJcn
1n7HsEPKtc+ipQ9m1GTuZGqUJSJ/ZZpHAybXclRLykn3tAZhVR1AWl5+TPbEhsJt
QWeko4b5tU1XttKFmG7HcWuqtDTvQNrBL5qHHIFPLzbn+sBxGYoFpH5moOfeElmw
7ZTwBNeRO3BXl7kk8wIDAQABo4IBIzCCAR8wEQYJYIZIAYb4QgEBBAQDAgZAMB0G
A1UdDgQWBBSc7rtaTAh5J0F412blmE+8Gs5ZiTCBrAYDVR0jBIGkMIGhgBTXN1IB
3Cx6V4XKMDkw8NVdWjEDAqF+pHwwejETMBEGA1UEAxQKREVMSElDQV9DQTELMAkG
A1UEBhMCSU4xDzANBgNVBAoTBkNJVFJJWDEMMAoGA1UECxMDQU5HMQswCQYDVQQI
EwJLQTEqMCgGCSqGSIb3DQEJARYbREVMSElDQV9DQUBERUxISUNBX21haWwuY29t
ggkAlFncUU6lEycwPAYIKwYBBQUHAQEEMDAuMCwGCCsGAQUFBzABhiBodHRwOi8v
MTcyLjIwLjIwLjEvcmVzcG9uZGVycGF0aDANBgkqhkiG9w0BAQsFAAOCAQEAjYmk
5aZ+5c1PCJYYF+8BuY0kFeeTOrU9hk6pwQFP9GIC/R9LeRSGvjhQ2jeT9dEOyiFk
H3LUxTWfnhW+aJj8X43S8nt9/r3OZ7NWQrTxFrJpi5K36RG9GtmvGAGN7r4DWoRH
xo4kt0Deb92av8J0TqpZMC+Bwj/1PPu9yiNJIrgeaCBTkdsIb8rWs+CAGKfkfp68
f+Lz4TeR6Gseno9O3uhicO5cNQFvxVrcz2OEjvGP9qjaDte7E7qgvQhdzagKeIX0
rB0h/XBv/j1LoCO+X+dJsOGNme6KCFLGk/HNLEYh6riVhlsPiMtauXxfOtXpY96I
6SRy4XWw8bVA8/OKBw==
-----END CERTIFICATE-----
