Certificate:
    Data:
        Version: 3 (0x2)
        Serial Number: 11042563100175 (0xa0b0c0d0e0f)
    Signature Algorithm: sha256WithRSAEncryption
        Issuer: CN=DELHICA_CA, C=IN, O=CITRIX, OU=ANG, ST=KA/emailAddress=DELHICA_CA@DELHICA_mail.com
        Validity
            Not Before: Jul  8 04:34:21 2016 GMT
            Not After : Jul  6 04:34:21 2026 GMT
        Subject: ST=KA, C=IN, CN=101_DELHICA_server/emailAddress=101_DELHICA@test_ca.com, O=CITRIX
        Subject Public Key Info:
            Public Key Algorithm: rsaEncryption
                Public-Key: (2048 bit)
                Modulus:
                    00:b1:73:bb:c6:05:1d:28:03:1f:c5:9e:cb:c0:f5:
                    00:c4:72:75:53:e0:d0:58:e3:e6:89:dd:cb:80:3b:
                    1d:5e:21:29:f8:2f:2b:eb:ba:47:1a:57:f3:80:d5:
                    02:ba:71:d8:f3:df:fa:d1:80:db:a2:9e:d8:47:27:
                    cd:75:bb:b4:13:5e:83:ae:18:64:33:22:09:18:84:
                    80:d8:dd:73:5e:7f:c4:d0:28:5f:b9:cf:e4:67:01:
                    d8:af:9d:ce:88:be:89:b8:b5:88:99:88:ca:85:99:
                    8b:dc:fd:6b:b6:ab:15:07:7b:a9:30:be:1e:bd:d8:
                    05:4e:4c:64:8e:0a:bb:fc:57:12:35:4d:14:7b:ef:
                    81:e3:fb:46:aa:f9:3f:83:60:1b:61:be:87:8b:3b:
                    b9:62:44:dd:51:fe:e6:36:ca:3f:60:97:f5:8c:5e:
                    7f:e5:e2:34:88:c0:ae:6d:10:db:06:a3:17:eb:b7:
                    b8:6c:6c:ce:09:09:23:2f:37:5a:88:37:63:cc:d7:
                    a2:20:3e:99:30:04:e4:a4:ff:6a:7e:8b:0e:da:6b:
                    72:36:20:71:ce:a3:1c:7c:5e:91:af:09:9a:6b:b1:
                    d2:84:2a:59:75:fb:29:f5:ac:5e:a3:53:87:3c:71:
                    e2:fa:e3:71:c8:18:73:98:ea:64:3f:39:dc:2e:14:
                    96:ef
                Exponent: 65537 (0x10001)
        X509v3 extensions:
            Netscape Cert Type: 
                SSL Server
            X509v3 Subject Key Identifier: 
                DE:FE:57:78:32:D4:2D:00:4D:01:4F:8B:12:DD:55:A3:8D:51:BE:BD
            X509v3 Authority Key Identifier: 
                keyid:D7:37:52:01:DC:2C:7A:57:85:CA:30:39:30:F0:D5:5D:5A:31:03:02
                DirName:/CN=DELHICA_CA/C=IN/O=CITRIX/OU=ANG/ST=KA/emailAddress=DELHICA_CA@DELHICA_mail.com
                serial:94:59:DC:51:4E:A5:13:27

            Authority Information Access: 
                OCSP - URI:http://DELHICA_one.ocsptest.com/responderpath

    Signature Algorithm: sha256WithRSAEncryption
         1b:3e:df:67:d5:29:46:48:15:a5:f4:b0:79:f4:cd:f3:97:7f:
         bb:a9:17:10:08:01:d5:1e:dd:b5:5e:1d:e1:18:8c:90:d0:40:
         63:9c:d9:ef:25:fe:6f:5b:76:ff:92:20:59:c4:e3:89:87:40:
         a7:92:0d:bb:63:b5:ba:e3:b6:09:71:54:6e:c2:9b:33:6a:b7:
         38:27:44:89:7c:e5:ce:af:c0:61:1b:96:3c:c6:b8:87:0a:8b:
         6d:22:16:62:2b:66:6f:31:04:00:00:3f:6e:51:c1:d1:d2:38:
         2f:42:a4:4f:6d:10:ee:e7:ca:13:cd:d7:fb:a1:ff:6b:a7:e4:
         43:a3:9e:5b:c9:91:ad:e5:cd:3c:f3:32:3d:e3:28:a9:06:54:
         81:51:0c:68:d9:ec:df:65:a2:f2:c3:09:73:bf:b0:35:f7:87:
         11:21:88:f4:be:61:f7:3d:65:55:df:8e:2d:2f:5c:36:18:44:
         14:53:77:e4:b1:96:e4:27:07:2d:2c:f8:1a:82:d7:c4:7a:e7:
         ec:1d:4a:36:58:fe:c8:d9:75:31:b1:90:31:89:13:68:0c:c2:
         13:3a:f4:2b:a1:71:6b:9d:6c:64:8a:01:b9:6e:b1:ae:3a:cf:
         41:ee:92:37:01:9e:e4:50:1c:b9:39:36:42:c7:d1:1c:b2:e9:
         a3:82:7e:4a
-----BEGIN CERTIFICATE-----
MIIEnDCCA4SgAwIBAgIGCgsMDQ4PMA0GCSqGSIb3DQEBCwUAMHoxEzARBgNVBAMU
CkRFTEhJQ0FfQ0ExCzAJBgNVBAYTAklOMQ8wDQYDVQQKEwZDSVRSSVgxDDAKBgNV
BAsTA0FORzELMAkGA1UECBMCS0ExKjAoBgkqhkiG9w0BCQEWG0RFTEhJQ0FfQ0FA
REVMSElDQV9tYWlsLmNvbTAeFw0xNjA3MDgwNDM0MjFaFw0yNjA3MDYwNDM0MjFa
MHAxCzAJBgNVBAgTAktBMQswCQYDVQQGEwJJTjEbMBkGA1UEAxQSMTAxX0RFTEhJ
Q0Ffc2VydmVyMSYwJAYJKoZIhvcNAQkBFhcxMDFfREVMSElDQUB0ZXN0X2NhLmNv
bTEPMA0GA1UEChMGQ0lUUklYMIIBIjANBgkqhkiG9w0BAQEFAAOCAQ8AMIIBCgKC
AQEAsXO7xgUdKAMfxZ7LwPUAxHJ1U+DQWOPmid3LgDsdXiEp+C8r67pHGlfzgNUC
unHY89/60YDbop7YRyfNdbu0E16DrhhkMyIJGISA2N1zXn/E0Chfuc/kZwHYr53O
iL6JuLWImYjKhZmL3P1rtqsVB3upML4evdgFTkxkjgq7/FcSNU0Ue++B4/tGqvk/
g2AbYb6Hizu5YkTdUf7mNso/YJf1jF5/5eI0iMCubRDbBqMX67e4bGzOCQkjLzda
iDdjzNeiID6ZMATkpP9qfosO2mtyNiBxzqMcfF6Rrwmaa7HShCpZdfsp9axeo1OH
PHHi+uNxyBhzmOpkPzncLhSW7wIDAQABo4IBMDCCASwwEQYJYIZIAYb4QgEBBAQD
AgZAMB0GA1UdDgQWBBTe/ld4MtQtAE0BT4sS3VWjjVG+vTCBrAYDVR0jBIGkMIGh
gBTXN1IB3Cx6V4XKMDkw8NVdWjEDAqF+pHwwejETMBEGA1UEAxQKREVMSElDQV9D
QTELMAkGA1UEBhMCSU4xDzANBgNVBAoTBkNJVFJJWDEMMAoGA1UECxMDQU5HMQsw
CQYDVQQIEwJLQTEqMCgGCSqGSIb3DQEJARYbREVMSElDQV9DQUBERUxISUNBX21h
aWwuY29tggkAlFncUU6lEycwSQYIKwYBBQUHAQEEPTA7MDkGCCsGAQUFBzABhi1o
dHRwOi8vREVMSElDQV9vbmUub2NzcHRlc3QuY29tL3Jlc3BvbmRlcnBhdGgwDQYJ
KoZIhvcNAQELBQADggEBABs+32fVKUZIFaX0sHn0zfOXf7upFxAIAdUe3bVeHeEY
jJDQQGOc2e8l/m9bdv+SIFnE44mHQKeSDbtjtbrjtglxVG7CmzNqtzgnRIl85c6v
wGEbljzGuIcKi20iFmIrZm8xBAAAP25RwdHSOC9CpE9tEO7nyhPN1/uh/2un5EOj
nlvJka3lzTzzMj3jKKkGVIFRDGjZ7N9lovLDCXO/sDX3hxEhiPS+Yfc9ZVXfji0v
XDYYRBRTd+SxluQnBy0s+BqC18R65+wdSjZY/sjZdTGxkDGJE2gMwhM69CuhcWud
bGSKAblusa46z0HukjcBnuRQHLk5NkLH0Ryy6aOCfko=
-----END CERTIFICATE-----
