Certificate:
    Data:
        Version: 3 (0x2)
        Serial Number: 11042563100177 (0xa0b0c0d0e11)
    Signature Algorithm: sha256WithRSAEncryption
        Issuer: CN=DELHICA_CA, C=IN, O=CITRIX, OU=ANG, ST=KA/emailAddress=DELHICA_CA@DELHICA_mail.com
        Validity
            Not Before: Jul  8 04:34:22 2016 GMT
            Not After : Jul  6 04:34:22 2026 GMT
        Subject: ST=KA, C=IN, CN=103_DELHICA_server/emailAddress=103_DELHICA@test_ca.com, O=CITRIX
        Subject Public Key Info:
            Public Key Algorithm: rsaEncryption
                Public-Key: (2048 bit)
                Modulus:
                    00:cc:32:55:80:17:af:9c:b0:e9:bb:8f:aa:39:7e:
                    43:c1:06:84:65:42:a3:47:c6:fc:c1:9e:7f:0b:7b:
                    96:3e:7a:88:a7:b4:22:c7:19:17:3f:47:a4:99:4d:
                    2c:2d:fa:bf:64:7c:d0:d2:b3:b7:fa:7d:c5:15:14:
                    63:12:7b:bd:f4:f1:aa:a9:b6:de:cf:c0:c7:4e:ee:
                    bc:be:9c:da:bc:2a:b6:75:10:6a:e7:63:d6:1e:f4:
                    fc:27:a7:86:30:83:78:66:5e:74:cf:33:44:be:8d:
                    5c:d4:2e:84:5a:11:7e:62:d7:16:99:61:da:b9:35:
                    57:3d:ad:b6:8d:2c:77:38:88:ca:f4:2b:7e:fd:7d:
                    c9:b7:8e:d7:3b:29:ac:b8:8d:b7:9d:b1:2f:14:8c:
                    90:57:ee:6b:8b:d1:c0:84:27:49:fa:33:c4:1e:00:
                    5b:c2:6a:61:af:5f:67:3e:f5:30:06:c3:d1:75:40:
                    c4:d0:b9:3a:da:ed:b0:8c:5f:18:25:f8:33:74:7a:
                    b8:b6:c3:05:8a:03:1d:79:b8:3a:f2:bc:90:b0:99:
                    1b:a4:6e:58:36:2d:68:cd:8b:29:2e:40:5d:4c:68:
                    95:3e:98:5b:4e:90:30:35:ed:22:4c:4a:ac:96:53:
                    ad:d4:30:fb:eb:88:6e:2b:4f:38:38:83:7b:34:a0:
                    24:6f
                Exponent: 65537 (0x10001)
        X509v3 extensions:
            Netscape Cert Type: 
                SSL Server
            X509v3 Subject Key Identifier: 
                55:13:DB:2C:D9:CF:A1:6D:CC:98:0F:A1:6A:87:70:C1:61:63:1E:15
            X509v3 Authority Key Identifier: 
                keyid:D7:37:52:01:DC:2C:7A:57:85:CA:30:39:30:F0:D5:5D:5A:31:03:02
                DirName:/CN=DELHICA_CA/C=IN/O=CITRIX/OU=ANG/ST=KA/emailAddress=DELHICA_CA@DELHICA_mail.com
                serial:94:59:DC:51:4E:A5:13:27

            Authority Information Access: 
                OCSP - URI:http://DELHICA_one.ocsptest.com/responderpath

    Signature Algorithm: sha256WithRSAEncryption
         55:68:ec:e8:52:ce:42:58:d1:1b:bf:c2:bf:14:5b:89:ef:d8:
         94:60:df:eb:8c:d9:36:23:57:c4:44:05:db:31:d4:3a:80:5e:
         22:30:e2:ca:0d:2d:a0:2f:61:83:ac:4f:4e:0e:da:c8:cc:07:
         fd:8a:7d:27:80:00:8c:df:b4:5c:39:2b:7a:cb:b8:7d:eb:c9:
         02:fc:b0:7a:37:93:d7:41:1a:66:57:a0:8f:b8:6f:d8:2d:54:
         96:5d:67:43:a4:1d:26:64:a5:2a:80:3e:77:4c:06:4e:bb:ea:
         4c:d7:32:02:53:34:a7:13:0a:7f:a8:69:b6:79:21:15:7e:6f:
         ad:03:bc:0f:62:94:ac:f4:dc:df:43:5b:3b:2a:8b:11:1f:62:
         2e:b5:94:0e:90:a8:04:1d:fc:a2:61:be:ac:71:05:01:f8:9e:
         f9:f0:2f:48:7f:66:90:b3:ad:24:56:3c:fa:a7:62:92:f5:25:
         a5:a3:09:aa:49:db:ec:88:a9:1b:1a:71:28:d9:37:d3:dc:9c:
         2b:69:e7:0f:cb:9e:83:39:12:71:21:55:3a:0c:4a:74:c0:d5:
         38:c4:7f:ae:30:69:b0:57:74:1f:bd:6e:ce:ca:39:d0:fc:ff:
         d5:5b:11:10:f5:e5:52:7a:2f:6b:e1:2c:9e:78:43:7b:34:ce:
         74:cf:a0:89
-----BEGIN CERTIFICATE-----
MIIEnDCCA4SgAwIBAgIGCgsMDQ4RMA0GCSqGSIb3DQEBCwUAMHoxEzARBgNVBAMU
CkRFTEhJQ0FfQ0ExCzAJBgNVBAYTAklOMQ8wDQYDVQQKEwZDSVRSSVgxDDAKBgNV
BAsTA0FORzELMAkGA1UECBMCS0ExKjAoBgkqhkiG9w0BCQEWG0RFTEhJQ0FfQ0FA
REVMSElDQV9tYWlsLmNvbTAeFw0xNjA3MDgwNDM0MjJaFw0yNjA3MDYwNDM0MjJa
MHAxCzAJBgNVBAgTAktBMQswCQYDVQQGEwJJTjEbMBkGA1UEAxQSMTAzX0RFTEhJ
Q0Ffc2VydmVyMSYwJAYJKoZIhvcNAQkBFhcxMDNfREVMSElDQUB0ZXN0X2NhLmNv
bTEPMA0GA1UEChMGQ0lUUklYMIIBIjANBgkqhkiG9w0BAQEFAAOCAQ8AMIIBCgKC
AQEAzDJVgBevnLDpu4+qOX5DwQaEZUKjR8b8wZ5/C3uWPnqIp7QixxkXP0ekmU0s
Lfq/ZHzQ0rO3+n3FFRRjEnu99PGqqbbez8DHTu68vpzavCq2dRBq52PWHvT8J6eG
MIN4Zl50zzNEvo1c1C6EWhF+YtcWmWHauTVXPa22jSx3OIjK9Ct+/X3Jt47XOyms
uI23nbEvFIyQV+5ri9HAhCdJ+jPEHgBbwmphr19nPvUwBsPRdUDE0Lk62u2wjF8Y
JfgzdHq4tsMFigMdebg68ryQsJkbpG5YNi1ozYspLkBdTGiVPphbTpAwNe0iTEqs
llOt1DD764huK084OIN7NKAkbwIDAQABo4IBMDCCASwwEQYJYIZIAYb4QgEBBAQD
AgZAMB0GA1UdDgQWBBRVE9ss2c+hbcyYD6Fqh3DBYWMeFTCBrAYDVR0jBIGkMIGh
gBTXN1IB3Cx6V4XKMDkw8NVdWjEDAqF+pHwwejETMBEGA1UEAxQKREVMSElDQV9D
QTELMAkGA1UEBhMCSU4xDzANBgNVBAoTBkNJVFJJWDEMMAoGA1UECxMDQU5HMQsw
CQYDVQQIEwJLQTEqMCgGCSqGSIb3DQEJARYbREVMSElDQV9DQUBERUxISUNBX21h
aWwuY29tggkAlFncUU6lEycwSQYIKwYBBQUHAQEEPTA7MDkGCCsGAQUFBzABhi1o
dHRwOi8vREVMSElDQV9vbmUub2NzcHRlc3QuY29tL3Jlc3BvbmRlcnBhdGgwDQYJ
KoZIhvcNAQELBQADggEBAFVo7OhSzkJY0Ru/wr8UW4nv2JRg3+uM2TYjV8REBdsx
1DqAXiIw4soNLaAvYYOsT04O2sjMB/2KfSeAAIzftFw5K3rLuH3ryQL8sHo3k9dB
GmZXoI+4b9gtVJZdZ0OkHSZkpSqAPndMBk676kzXMgJTNKcTCn+oabZ5IRV+b60D
vA9ilKz03N9DWzsqixEfYi61lA6QqAQd/KJhvqxxBQH4nvnwL0h/ZpCzrSRWPPqn
YpL1JaWjCapJ2+yIqRsacSjZN9PcnCtp5w/LnoM5EnEhVToMSnTA1TjEf64wabBX
dB+9bs7KOdD8/9VbERD15VJ6L2vhLJ54Q3s0znTPoIk=
-----END CERTIFICATE-----
