Certificate:
    Data:
        Version: 3 (0x2)
        Serial Number: 11042563100178 (0xa0b0c0d0e12)
    Signature Algorithm: sha256WithRSAEncryption
        Issuer: CN=DELHICA_CA, C=IN, O=CITRIX, OU=ANG, ST=KA/emailAddress=DELHICA_CA@DELHICA_mail.com
        Validity
            Not Before: Jul  8 04:34:22 2016 GMT
            Not After : Jul  6 04:34:22 2026 GMT
        Subject: ST=KA, C=IN, CN=104_DELHICA_server/emailAddress=104_DELHICA@test_ca.com, O=CITRIX
        Subject Public Key Info:
            Public Key Algorithm: rsaEncryption
                Public-Key: (2048 bit)
                Modulus:
                    00:d2:52:31:7f:71:42:00:f7:68:3e:8e:b5:8f:8d:
                    aa:18:4e:1a:7c:66:81:98:6f:53:4e:c8:eb:a2:4a:
                    a4:4e:dd:1d:5b:06:2b:3a:18:72:1c:8e:97:27:60:
                    19:96:e8:a3:d6:43:ea:c9:06:43:3e:be:54:b2:89:
                    9e:71:33:c4:b7:d9:0e:7a:de:5d:02:0d:91:85:38:
                    1b:1d:b5:55:2f:86:8f:40:26:e4:2a:00:68:4c:82:
                    97:d8:f2:ff:e7:69:d4:56:74:fd:34:dd:73:51:59:
                    e8:e4:8b:ff:05:47:27:35:0c:24:53:a5:0d:49:9d:
                    03:ba:7c:33:ba:90:cd:16:aa:ef:e8:e3:4e:b7:1d:
                    f5:7e:f1:3d:05:88:a8:55:f4:72:dd:4d:79:15:ed:
                    72:98:f5:be:5c:82:ef:0a:02:81:ee:42:55:3f:29:
                    d6:31:1f:fd:ee:9b:08:4c:6d:a0:6d:4c:04:35:27:
                    85:42:7c:5d:70:c9:b8:14:f3:50:65:53:66:b2:ef:
                    36:22:1f:de:9a:c6:1b:00:ca:dd:d3:43:33:49:48:
                    27:da:a1:9c:53:11:4d:1d:ed:7d:ae:4c:25:49:0e:
                    35:9f:3b:94:05:16:5d:a4:bd:fd:db:e6:3b:80:01:
                    83:cb:ff:87:a2:bd:98:55:3a:f1:c8:2e:7f:36:f9:
                    fd:57
                Exponent: 65537 (0x10001)
        X509v3 extensions:
            Netscape Cert Type: 
                SSL Server
            X509v3 Subject Key Identifier: 
                4F:CC:8A:35:99:3E:00:DC:8C:AF:50:18:4F:03:EA:BD:B5:98:49:41
            X509v3 Authority Key Identifier: 
                keyid:D7:37:52:01:DC:2C:7A:57:85:CA:30:39:30:F0:D5:5D:5A:31:03:02
                DirName:/CN=DELHICA_CA/C=IN/O=CITRIX/OU=ANG/ST=KA/emailAddress=DELHICA_CA@DELHICA_mail.com
                serial:94:59:DC:51:4E:A5:13:27

            Authority Information Access: 
                OCSP - URI:http://DELHICA_one.ocsptest.com/responderpath

    Signature Algorithm: sha256WithRSAEncryption
         80:d7:d1:62:9f:85:17:a4:19:0d:1a:9e:1e:55:0f:57:ff:e0:
         99:32:bf:ff:14:76:69:46:44:0b:50:b1:f6:4c:fd:27:a5:f1:
         61:aa:f7:00:26:cb:cb:78:3a:8e:90:82:a1:73:de:83:42:ef:
         6b:2d:5c:0e:f4:b0:08:20:f8:7d:ac:6f:b3:6d:0a:18:6e:fc:
         fc:ce:35:0f:3f:70:55:37:65:93:d7:78:99:72:b7:a0:10:14:
         73:c2:2f:5d:79:65:9a:ad:58:c9:ee:2f:af:94:4b:5f:f6:43:
         28:c1:08:48:a9:8b:b2:e4:be:64:b4:40:1d:a6:b4:a0:26:a4:
         d3:d9:11:25:c4:14:ef:62:13:2c:35:6a:93:ef:b9:9f:20:56:
         f3:fc:a8:f9:c2:2c:b3:35:0f:f4:26:bb:90:12:d2:ae:98:8e:
         65:2e:c3:db:b9:da:33:d0:de:eb:9e:85:d8:7d:3a:66:10:eb:
         9e:d7:15:84:82:e6:2d:04:71:0b:6f:70:8a:ff:dc:cd:2d:ea:
         53:4d:da:35:33:23:35:f9:f4:19:58:68:2e:f7:5a:d1:08:da:
         cf:33:ef:15:ac:45:93:cf:68:23:5f:e7:11:91:e4:16:50:1b:
         39:c8:d8:3a:b5:9c:e8:d2:26:96:fc:1a:10:f6:33:0e:d1:44:
         d8:7e:72:95
-----BEGIN CERTIFICATE-----
MIIEnDCCA4SgAwIBAgIGCgsMDQ4SMA0GCSqGSIb3DQEBCwUAMHoxEzARBgNVBAMU
CkRFTEhJQ0FfQ0ExCzAJBgNVBAYTAklOMQ8wDQYDVQQKEwZDSVRSSVgxDDAKBgNV
BAsTA0FORzELMAkGA1UECBMCS0ExKjAoBgkqhkiG9w0BCQEWG0RFTEhJQ0FfQ0FA
REVMSElDQV9tYWlsLmNvbTAeFw0xNjA3MDgwNDM0MjJaFw0yNjA3MDYwNDM0MjJa
MHAxCzAJBgNVBAgTAktBMQswCQYDVQQGEwJJTjEbMBkGA1UEAxQSMTA0X0RFTEhJ
Q0Ffc2VydmVyMSYwJAYJKoZIhvcNAQkBFhcxMDRfREVMSElDQUB0ZXN0X2NhLmNv
bTEPMA0GA1UEChMGQ0lUUklYMIIBIjANBgkqhkiG9w0BAQEFAAOCAQ8AMIIBCgKC
AQEA0lIxf3FCAPdoPo61j42qGE4afGaBmG9TTsjrokqkTt0dWwYrOhhyHI6XJ2AZ
luij1kPqyQZDPr5UsomecTPEt9kOet5dAg2RhTgbHbVVL4aPQCbkKgBoTIKX2PL/
52nUVnT9NN1zUVno5Iv/BUcnNQwkU6UNSZ0DunwzupDNFqrv6ONOtx31fvE9BYio
VfRy3U15Fe1ymPW+XILvCgKB7kJVPynWMR/97psITG2gbUwENSeFQnxdcMm4FPNQ
ZVNmsu82Ih/emsYbAMrd00MzSUgn2qGcUxFNHe19rkwlSQ41nzuUBRZdpL392+Y7
gAGDy/+Hor2YVTrxyC5/Nvn9VwIDAQABo4IBMDCCASwwEQYJYIZIAYb4QgEBBAQD
AgZAMB0GA1UdDgQWBBRPzIo1mT4A3IyvUBhPA+q9tZhJQTCBrAYDVR0jBIGkMIGh
gBTXN1IB3Cx6V4XKMDkw8NVdWjEDAqF+pHwwejETMBEGA1UEAxQKREVMSElDQV9D
QTELMAkGA1UEBhMCSU4xDzANBgNVBAoTBkNJVFJJWDEMMAoGA1UECxMDQU5HMQsw
CQYDVQQIEwJLQTEqMCgGCSqGSIb3DQEJARYbREVMSElDQV9DQUBERUxISUNBX21h
aWwuY29tggkAlFncUU6lEycwSQYIKwYBBQUHAQEEPTA7MDkGCCsGAQUFBzABhi1o
dHRwOi8vREVMSElDQV9vbmUub2NzcHRlc3QuY29tL3Jlc3BvbmRlcnBhdGgwDQYJ
KoZIhvcNAQELBQADggEBAIDX0WKfhRekGQ0anh5VD1f/4Jkyv/8UdmlGRAtQsfZM
/Sel8WGq9wAmy8t4Oo6QgqFz3oNC72stXA70sAgg+H2sb7NtChhu/PzONQ8/cFU3
ZZPXeJlyt6AQFHPCL115ZZqtWMnuL6+US1/2QyjBCEipi7LkvmS0QB2mtKAmpNPZ
ESXEFO9iEyw1apPvuZ8gVvP8qPnCLLM1D/Qmu5AS0q6YjmUuw9u52jPQ3uuehdh9
OmYQ657XFYSC5i0EcQtvcIr/3M0t6lNN2jUzIzX59BlYaC73WtEI2s8z7xWsRZPP
aCNf5xGR5BZQGznI2Dq1nOjSJpb8GhD2Mw7RRNh+cpU=
-----END CERTIFICATE-----
