Certificate:
    Data:
        Version: 3 (0x2)
        Serial Number: 11042563100192 (0xa0b0c0d0e20)
    Signature Algorithm: sha256WithRSAEncryption
        Issuer: CN=DELHICA_CA, C=IN, O=CITRIX, OU=ANG, ST=KA/emailAddress=DELHICA_CA@DELHICA_mail.com
        Validity
            Not Before: Jul  8 04:34:26 2016 GMT
            Not After : Jul  6 04:34:26 2026 GMT
        Subject: ST=KA, C=IN, CN=118_DELHICA_server/emailAddress=118_DELHICA@test_ca.com, O=CITRIX
        Subject Public Key Info:
            Public Key Algorithm: rsaEncryption
                Public-Key: (2048 bit)
                Modulus:
                    00:c9:c0:cd:3a:9a:b0:f4:a2:04:1a:d3:32:49:82:
                    4a:36:d2:d8:fb:2a:09:dd:dc:87:7e:a2:5f:de:93:
                    7c:32:1b:9e:89:3d:46:e4:78:b3:8a:b0:fb:44:27:
                    be:40:3a:c9:03:92:ed:6d:4f:41:bc:e1:5b:85:44:
                    08:2c:ea:e9:77:71:50:0d:96:9f:90:be:f9:03:5b:
                    ad:e9:82:2f:90:64:18:12:ba:f4:1e:6d:88:b9:47:
                    55:93:54:a7:a4:6b:40:fc:8e:fd:7e:81:40:1f:71:
                    5e:df:d0:9b:61:ff:56:a4:2c:22:c6:96:31:d0:e0:
                    30:69:1a:23:98:da:cc:df:d0:ba:d0:7e:f9:2a:d9:
                    cd:af:a3:56:d2:c1:6d:11:9f:33:d2:be:b2:4d:af:
                    3f:95:ea:36:94:b7:fa:51:69:f3:30:f3:33:a0:dd:
                    7a:30:13:d0:8f:f6:d8:f5:75:33:f1:9a:7b:a8:a7:
                    ab:37:d4:79:c7:37:23:39:0d:f8:12:85:12:94:f2:
                    b3:9b:48:47:6e:dc:6c:90:6f:30:1c:f8:c7:11:6a:
                    53:61:c3:63:16:ab:c8:a8:38:38:b0:26:42:32:a1:
                    b6:4c:a2:98:29:7e:76:1e:72:6c:31:81:b5:8e:2c:
                    e5:72:ab:38:41:9b:9b:4e:ea:b9:e2:d4:f4:11:a8:
                    0b:8f
                Exponent: 65537 (0x10001)
        X509v3 extensions:
            Netscape Cert Type: 
                SSL Server
            X509v3 Subject Key Identifier: 
                49:A3:2B:98:6C:7F:D5:3F:63:49:25:32:F5:AA:A6:D2:C1:1E:47:22
            X509v3 Authority Key Identifier: 
                keyid:D7:37:52:01:DC:2C:7A:57:85:CA:30:39:30:F0:D5:5D:5A:31:03:02
                DirName:/CN=DELHICA_CA/C=IN/O=CITRIX/OU=ANG/ST=KA/emailAddress=DELHICA_CA@DELHICA_mail.com
                serial:94:59:DC:51:4E:A5:13:27

            Authority Information Access: 
                OCSP - URI:http://DELHICA_two.ocsptest.com/responderpath

    Signature Algorithm: sha256WithRSAEncryption
         8e:62:58:2f:d8:b9:62:11:a1:1f:ca:14:62:45:2e:87:7e:53:
         ce:b2:b7:1a:58:9a:15:07:35:07:75:a8:15:d3:4d:e6:75:94:
         1b:a9:4d:88:18:35:7a:cb:a5:89:ed:07:44:d5:21:4c:61:a8:
         24:d7:2d:80:90:cc:cb:70:62:e1:23:8f:09:a4:8b:e0:a1:22:
         a4:56:c2:83:15:3d:1e:a7:93:a8:bc:6c:40:40:a1:c5:a5:e5:
         50:1d:e3:10:55:3d:e9:0c:20:04:90:7d:a0:91:0b:6c:26:45:
         b7:b5:38:f7:9a:ad:cd:fe:30:83:6a:16:24:ea:bc:a0:68:d7:
         ed:81:a8:63:5e:54:34:66:1c:0b:fb:cc:e8:58:f3:d6:80:26:
         6d:e1:ae:49:2d:c1:48:98:07:03:03:ee:01:32:ec:1e:a2:82:
         73:c4:a5:c8:7f:dc:f2:eb:14:1f:42:7a:64:c3:5e:c3:bb:58:
         4f:13:c0:8a:8f:27:a9:b5:56:0e:f3:25:a0:44:58:18:b3:1a:
         02:ef:7d:03:4a:af:ab:65:96:d3:0b:39:4d:f1:5d:1a:77:c3:
         87:33:2c:6a:d0:05:7b:2b:f4:41:1d:0e:94:07:8d:b4:a0:ba:
         34:27:a6:b1:d9:5d:4f:b8:05:01:44:66:8a:71:e7:19:07:42:
         b9:c8:cf:57
-----BEGIN CERTIFICATE-----
MIIEnDCCA4SgAwIBAgIGCgsMDQ4gMA0GCSqGSIb3DQEBCwUAMHoxEzARBgNVBAMU
CkRFTEhJQ0FfQ0ExCzAJBgNVBAYTAklOMQ8wDQYDVQQKEwZDSVRSSVgxDDAKBgNV
BAsTA0FORzELMAkGA1UECBMCS0ExKjAoBgkqhkiG9w0BCQEWG0RFTEhJQ0FfQ0FA
REVMSElDQV9tYWlsLmNvbTAeFw0xNjA3MDgwNDM0MjZaFw0yNjA3MDYwNDM0MjZa
MHAxCzAJBgNVBAgTAktBMQswCQYDVQQGEwJJTjEbMBkGA1UEAxQSMTE4X0RFTEhJ
Q0Ffc2VydmVyMSYwJAYJKoZIhvcNAQkBFhcxMThfREVMSElDQUB0ZXN0X2NhLmNv
bTEPMA0GA1UEChMGQ0lUUklYMIIBIjANBgkqhkiG9w0BAQEFAAOCAQ8AMIIBCgKC
AQEAycDNOpqw9KIEGtMySYJKNtLY+yoJ3dyHfqJf3pN8MhueiT1G5HizirD7RCe+
QDrJA5LtbU9BvOFbhUQILOrpd3FQDZafkL75A1ut6YIvkGQYErr0Hm2IuUdVk1Sn
pGtA/I79foFAH3Fe39CbYf9WpCwixpYx0OAwaRojmNrM39C60H75KtnNr6NW0sFt
EZ8z0r6yTa8/leo2lLf6UWnzMPMzoN16MBPQj/bY9XUz8Zp7qKerN9R5xzcjOQ34
EoUSlPKzm0hHbtxskG8wHPjHEWpTYcNjFqvIqDg4sCZCMqG2TKKYKX52HnJsMYG1
jizlcqs4QZubTuq54tT0EagLjwIDAQABo4IBMDCCASwwEQYJYIZIAYb4QgEBBAQD
AgZAMB0GA1UdDgQWBBRJoyuYbH/VP2NJJTL1qqbSwR5HIjCBrAYDVR0jBIGkMIGh
gBTXN1IB3Cx6V4XKMDkw8NVdWjEDAqF+pHwwejETMBEGA1UEAxQKREVMSElDQV9D
QTELMAkGA1UEBhMCSU4xDzANBgNVBAoTBkNJVFJJWDEMMAoGA1UECxMDQU5HMQsw
CQYDVQQIEwJLQTEqMCgGCSqGSIb3DQEJARYbREVMSElDQV9DQUBERUxISUNBX21h
aWwuY29tggkAlFncUU6lEycwSQYIKwYBBQUHAQEEPTA7MDkGCCsGAQUFBzABhi1o
dHRwOi8vREVMSElDQV90d28ub2NzcHRlc3QuY29tL3Jlc3BvbmRlcnBhdGgwDQYJ
KoZIhvcNAQELBQADggEBAI5iWC/YuWIRoR/KFGJFLod+U86ytxpYmhUHNQd1qBXT
TeZ1lBupTYgYNXrLpYntB0TVIUxhqCTXLYCQzMtwYuEjjwmki+ChIqRWwoMVPR6n
k6i8bEBAocWl5VAd4xBVPekMIASQfaCRC2wmRbe1OPearc3+MINqFiTqvKBo1+2B
qGNeVDRmHAv7zOhY89aAJm3hrkktwUiYBwMD7gEy7B6ignPEpch/3PLrFB9CemTD
XsO7WE8TwIqPJ6m1Vg7zJaBEWBizGgLvfQNKr6tlltMLOU3xXRp3w4czLGrQBXsr
9EEdDpQHjbSgujQnprHZXU+4BQFEZopx5xkHQrnIz1c=
-----END CERTIFICATE-----
