Certificate:
    Data:
        Version: 3 (0x2)
        Serial Number: 11042563100193 (0xa0b0c0d0e21)
    Signature Algorithm: sha256WithRSAEncryption
        Issuer: CN=DELHICA_CA, C=IN, O=CITRIX, OU=ANG, ST=KA/emailAddress=DELHICA_CA@DELHICA_mail.com
        Validity
            Not Before: Jul  8 04:34:26 2016 GMT
            Not After : Jul  6 04:34:26 2026 GMT
        Subject: ST=KA, C=IN, CN=119_DELHICA_server/emailAddress=119_DELHICA@test_ca.com, O=CITRIX
        Subject Public Key Info:
            Public Key Algorithm: rsaEncryption
                Public-Key: (2048 bit)
                Modulus:
                    00:a7:bb:f9:b9:09:ef:93:19:85:d3:3e:97:91:48:
                    9a:0b:ba:44:29:db:b4:4a:81:06:85:0b:38:10:db:
                    88:c2:e0:cc:38:ca:c7:d8:30:81:d1:12:9d:dd:e7:
                    92:a3:12:19:aa:3e:6a:6a:3f:69:9c:3a:43:ce:45:
                    30:af:18:4f:48:b6:65:63:62:e4:23:f8:b9:ca:a0:
                    25:54:d3:c0:ed:4f:58:e1:36:38:47:c1:6d:2e:f8:
                    5c:bf:77:96:57:03:e8:b9:d1:e9:99:be:16:5b:42:
                    b5:72:f4:4c:6e:b8:2b:f8:e9:91:cd:bc:ee:18:58:
                    bc:d5:b0:5d:be:58:47:2b:ec:15:3a:55:d3:28:65:
                    e4:46:d0:11:6f:dd:35:4d:e9:1c:b0:94:44:d3:f3:
                    20:fb:5e:79:50:02:b1:2c:fb:55:a2:4a:b2:71:7a:
                    88:ea:d1:c6:b5:fa:f8:52:19:0f:40:ae:ad:d2:06:
                    65:60:c4:48:9e:a6:df:e6:6f:32:18:df:38:fc:17:
                    1c:63:6e:a6:1c:3e:fd:f0:ea:d6:72:4d:db:e3:c8:
                    61:a7:bd:3b:b5:9b:83:a4:25:6c:f7:1d:8a:9e:85:
                    9f:b4:0f:49:a2:b0:64:61:ae:5e:b8:c3:87:23:7c:
                    0a:37:6a:0d:0d:8e:00:43:6a:83:44:1d:81:78:96:
                    d8:b9
                Exponent: 65537 (0x10001)
        X509v3 extensions:
            Netscape Cert Type: 
                SSL Server
            X509v3 Subject Key Identifier: 
                0F:7A:6B:16:24:CC:13:1F:F6:E3:50:C5:D5:1B:62:04:DB:02:7A:A0
            X509v3 Authority Key Identifier: 
                keyid:D7:37:52:01:DC:2C:7A:57:85:CA:30:39:30:F0:D5:5D:5A:31:03:02
                DirName:/CN=DELHICA_CA/C=IN/O=CITRIX/OU=ANG/ST=KA/emailAddress=DELHICA_CA@DELHICA_mail.com
                serial:94:59:DC:51:4E:A5:13:27

            Authority Information Access: 
                OCSP - URI:http://DELHICA_two.ocsptest.com/responderpath

    Signature Algorithm: sha256WithRSAEncryption
         42:47:6f:f3:f7:0b:5c:1d:34:60:4e:2c:fc:f7:2f:40:3e:5f:
         91:ca:79:b5:31:20:dc:c4:f4:b5:5c:f1:c7:9d:13:0d:db:d9:
         8e:5b:79:2e:02:87:db:be:6f:24:73:5b:75:db:4d:a1:3a:59:
         31:10:31:43:78:36:8a:03:dc:98:2d:df:4c:d7:cd:c1:00:fb:
         68:d5:38:ea:5f:21:3a:9a:9e:31:61:84:f8:ee:56:3e:06:c5:
         84:18:62:c0:89:ea:aa:04:b8:92:05:c5:b3:86:5d:85:10:df:
         ce:61:fd:0e:99:ef:5d:5c:73:7b:62:68:92:95:c3:a4:c7:66:
         2e:99:9c:99:d6:f7:b1:33:1f:26:06:ce:95:32:85:4d:0a:d5:
         25:6d:c9:5d:bb:ad:51:de:5c:d3:44:45:04:5c:d8:44:fd:e6:
         e6:b2:cc:cc:8d:39:23:df:cd:d0:21:c8:ed:50:0c:71:f7:79:
         2b:5a:a1:69:ba:ac:19:57:89:c0:12:74:09:20:36:7c:87:79:
         19:b4:9a:d7:0f:0d:57:bc:6e:b1:52:cf:04:41:a5:82:7c:b8:
         9e:9a:36:33:ff:a6:17:98:6a:91:88:a9:50:13:e1:08:9d:c5:
         de:7e:65:08:83:69:02:e7:9b:db:38:fb:0c:c3:47:d8:13:34:
         6a:91:42:57
-----BEGIN CERTIFICATE-----
MIIEnDCCA4SgAwIBAgIGCgsMDQ4hMA0GCSqGSIb3DQEBCwUAMHoxEzARBgNVBAMU
CkRFTEhJQ0FfQ0ExCzAJBgNVBAYTAklOMQ8wDQYDVQQKEwZDSVRSSVgxDDAKBgNV
BAsTA0FORzELMAkGA1UECBMCS0ExKjAoBgkqhkiG9w0BCQEWG0RFTEhJQ0FfQ0FA
REVMSElDQV9tYWlsLmNvbTAeFw0xNjA3MDgwNDM0MjZaFw0yNjA3MDYwNDM0MjZa
MHAxCzAJBgNVBAgTAktBMQswCQYDVQQGEwJJTjEbMBkGA1UEAxQSMTE5X0RFTEhJ
Q0Ffc2VydmVyMSYwJAYJKoZIhvcNAQkBFhcxMTlfREVMSElDQUB0ZXN0X2NhLmNv
bTEPMA0GA1UEChMGQ0lUUklYMIIBIjANBgkqhkiG9w0BAQEFAAOCAQ8AMIIBCgKC
AQEAp7v5uQnvkxmF0z6XkUiaC7pEKdu0SoEGhQs4ENuIwuDMOMrH2DCB0RKd3eeS
oxIZqj5qaj9pnDpDzkUwrxhPSLZlY2LkI/i5yqAlVNPA7U9Y4TY4R8FtLvhcv3eW
VwPoudHpmb4WW0K1cvRMbrgr+OmRzbzuGFi81bBdvlhHK+wVOlXTKGXkRtARb901
TekcsJRE0/Mg+155UAKxLPtVokqycXqI6tHGtfr4UhkPQK6t0gZlYMRInqbf5m8y
GN84/BccY26mHD798OrWck3b48hhp707tZuDpCVs9x2KnoWftA9JorBkYa5euMOH
I3wKN2oNDY4AQ2qDRB2BeJbYuQIDAQABo4IBMDCCASwwEQYJYIZIAYb4QgEBBAQD
AgZAMB0GA1UdDgQWBBQPemsWJMwTH/bjUMXVG2IE2wJ6oDCBrAYDVR0jBIGkMIGh
gBTXN1IB3Cx6V4XKMDkw8NVdWjEDAqF+pHwwejETMBEGA1UEAxQKREVMSElDQV9D
QTELMAkGA1UEBhMCSU4xDzANBgNVBAoTBkNJVFJJWDEMMAoGA1UECxMDQU5HMQsw
CQYDVQQIEwJLQTEqMCgGCSqGSIb3DQEJARYbREVMSElDQV9DQUBERUxISUNBX21h
aWwuY29tggkAlFncUU6lEycwSQYIKwYBBQUHAQEEPTA7MDkGCCsGAQUFBzABhi1o
dHRwOi8vREVMSElDQV90d28ub2NzcHRlc3QuY29tL3Jlc3BvbmRlcnBhdGgwDQYJ
KoZIhvcNAQELBQADggEBAEJHb/P3C1wdNGBOLPz3L0A+X5HKebUxINzE9LVc8ced
Ew3b2Y5beS4Ch9u+byRzW3XbTaE6WTEQMUN4NooD3Jgt30zXzcEA+2jVOOpfITqa
njFhhPjuVj4GxYQYYsCJ6qoEuJIFxbOGXYUQ385h/Q6Z711cc3tiaJKVw6THZi6Z
nJnW97EzHyYGzpUyhU0K1SVtyV27rVHeXNNERQRc2ET95uayzMyNOSPfzdAhyO1Q
DHH3eStaoWm6rBlXicASdAkgNnyHeRm0mtcPDVe8brFSzwRBpYJ8uJ6aNjP/pheY
apGIqVAT4Qidxd5+ZQiDaQLnm9s4+wzDR9gTNGqRQlc=
-----END CERTIFICATE-----
