Certificate:
    Data:
        Version: 3 (0x2)
        Serial Number: 11042563100201 (0xa0b0c0d0e29)
    Signature Algorithm: sha256WithRSAEncryption
        Issuer: CN=DELHICA_CA, C=IN, O=CITRIX, OU=ANG, ST=KA/emailAddress=DELHICA_CA@DELHICA_mail.com
        Validity
            Not Before: Jul  8 04:34:29 2016 GMT
            Not After : Jul  6 04:34:29 2026 GMT
        Subject: ST=KA, C=IN, CN=127_DELHICA_server/emailAddress=127_DELHICA@test_ca.com, O=CITRIX
        Subject Public Key Info:
            Public Key Algorithm: rsaEncryption
                Public-Key: (2048 bit)
                Modulus:
                    00:c0:27:61:f7:c6:3b:3d:3c:f3:b6:ff:e2:f7:b2:
                    5c:28:63:07:d4:2a:d6:d1:fc:17:e6:4a:2b:ff:62:
                    60:45:56:8e:c2:5a:22:4d:b1:7d:a2:7d:6e:d6:e6:
                    6e:23:6f:5b:c8:e9:fe:4c:27:30:93:df:49:87:05:
                    75:a5:00:43:df:3a:6c:3b:de:d3:5d:1f:53:83:79:
                    38:f2:6b:05:4f:86:3c:a0:12:b7:69:9f:88:16:c5:
                    40:89:66:c8:1d:37:ab:d0:32:0c:72:c2:ac:3b:fe:
                    af:ef:ff:ec:05:00:b2:81:3b:5d:0f:fa:57:bb:c0:
                    3e:26:37:e0:42:87:4e:b0:61:2d:7b:e8:9b:55:83:
                    1b:d3:12:47:83:d7:62:ec:84:ab:f2:55:e4:c4:b0:
                    d0:79:c6:f7:5d:28:99:1a:02:1e:08:c2:ef:00:e0:
                    eb:cc:f9:53:e3:2a:3c:ea:c3:cd:38:52:4c:47:4a:
                    2e:77:ce:d7:66:18:10:0b:24:d8:23:14:41:74:8c:
                    3e:0f:7d:22:42:6e:f4:8c:56:38:a3:8f:79:3c:ce:
                    53:e1:07:b6:06:fc:9f:a3:30:78:c7:78:96:af:10:
                    52:9d:c3:23:87:42:37:46:ad:cc:2f:73:68:81:6b:
                    fc:09:f1:31:b1:d7:94:c2:6b:ba:74:7b:e9:48:ea:
                    a7:79
                Exponent: 65537 (0x10001)
        X509v3 extensions:
            Netscape Cert Type: 
                SSL Server
            X509v3 Subject Key Identifier: 
                83:E7:CE:79:8D:71:93:34:0F:50:E0:03:7B:A9:72:9F:71:48:C1:AF
            X509v3 Authority Key Identifier: 
                keyid:D7:37:52:01:DC:2C:7A:57:85:CA:30:39:30:F0:D5:5D:5A:31:03:02
                DirName:/CN=DELHICA_CA/C=IN/O=CITRIX/OU=ANG/ST=KA/emailAddress=DELHICA_CA@DELHICA_mail.com
                serial:94:59:DC:51:4E:A5:13:27

            Authority Information Access: 
                OCSP - URI:http://172.20.10.1/responderpath

    Signature Algorithm: sha256WithRSAEncryption
         3c:8f:8d:3f:95:a7:9b:2e:2f:b6:75:46:61:3d:6b:53:06:5e:
         ba:cc:f0:60:92:b4:85:df:3d:52:59:59:29:64:81:19:c5:42:
         75:14:d2:aa:ef:f4:39:10:91:e3:1d:d4:6d:e7:47:9e:49:8a:
         e8:f8:fc:21:9a:6c:d8:6a:50:f8:f5:e1:fb:95:2e:6f:22:7a:
         62:34:37:aa:f5:c8:64:1b:8e:25:59:42:12:56:d6:88:e3:c2:
         ce:28:25:ba:2b:87:1d:c6:6e:12:8a:24:ca:c2:43:65:4d:6e:
         28:44:00:2d:ec:ad:72:08:f2:2d:bc:23:f4:5f:4c:0f:fe:be:
         35:4a:23:cd:73:78:38:a7:ff:ab:74:6d:f2:b0:55:a9:a6:fc:
         86:56:f8:0e:31:bb:cd:8b:bd:48:73:c8:6e:db:bd:41:7e:73:
         5c:e4:d3:54:ad:ad:dd:b4:71:1e:0f:dc:bc:af:a4:ef:1a:19:
         a7:3d:93:9b:5a:9b:a5:39:e0:2f:c3:db:61:89:5f:6d:63:27:
         1c:d6:a5:2c:63:42:f2:b3:86:82:af:3e:a2:0f:0d:42:c2:a4:
         1d:b6:4d:5e:54:39:19:3b:3b:73:62:e1:fe:64:fe:82:3f:24:
         0e:14:76:93:de:75:f0:7f:be:19:d8:ce:36:c8:d8:1b:53:0a:
         73:02:20:c7
-----BEGIN CERTIFICATE-----
MIIEjzCCA3egAwIBAgIGCgsMDQ4pMA0GCSqGSIb3DQEBCwUAMHoxEzARBgNVBAMU
CkRFTEhJQ0FfQ0ExCzAJBgNVBAYTAklOMQ8wDQYDVQQKEwZDSVRSSVgxDDAKBgNV
BAsTA0FORzELMAkGA1UECBMCS0ExKjAoBgkqhkiG9w0BCQEWG0RFTEhJQ0FfQ0FA
REVMSElDQV9tYWlsLmNvbTAeFw0xNjA3MDgwNDM0MjlaFw0yNjA3MDYwNDM0Mjla
MHAxCzAJBgNVBAgTAktBMQswCQYDVQQGEwJJTjEbMBkGA1UEAxQSMTI3X0RFTEhJ
Q0Ffc2VydmVyMSYwJAYJKoZIhvcNAQkBFhcxMjdfREVMSElDQUB0ZXN0X2NhLmNv
bTEPMA0GA1UEChMGQ0lUUklYMIIBIjANBgkqhkiG9w0BAQEFAAOCAQ8AMIIBCgKC
AQEAwCdh98Y7PTzztv/i97JcKGMH1CrW0fwX5kor/2JgRVaOwloiTbF9on1u1uZu
I29byOn+TCcwk99JhwV1pQBD3zpsO97TXR9Tg3k48msFT4Y8oBK3aZ+IFsVAiWbI
HTer0DIMcsKsO/6v7//sBQCygTtdD/pXu8A+JjfgQodOsGEte+ibVYMb0xJHg9di
7ISr8lXkxLDQecb3XSiZGgIeCMLvAODrzPlT4yo86sPNOFJMR0oud87XZhgQCyTY
IxRBdIw+D30iQm70jFY4o495PM5T4Qe2BvyfozB4x3iWrxBSncMjh0I3Rq3ML3No
gWv8CfExsdeUwmu6dHvpSOqneQIDAQABo4IBIzCCAR8wEQYJYIZIAYb4QgEBBAQD
AgZAMB0GA1UdDgQWBBSD5855jXGTNA9Q4AN7qXKfcUjBrzCBrAYDVR0jBIGkMIGh
gBTXN1IB3Cx6V4XKMDkw8NVdWjEDAqF+pHwwejETMBEGA1UEAxQKREVMSElDQV9D
QTELMAkGA1UEBhMCSU4xDzANBgNVBAoTBkNJVFJJWDEMMAoGA1UECxMDQU5HMQsw
CQYDVQQIEwJLQTEqMCgGCSqGSIb3DQEJARYbREVMSElDQV9DQUBERUxISUNBX21h
aWwuY29tggkAlFncUU6lEycwPAYIKwYBBQUHAQEEMDAuMCwGCCsGAQUFBzABhiBo
dHRwOi8vMTcyLjIwLjEwLjEvcmVzcG9uZGVycGF0aDANBgkqhkiG9w0BAQsFAAOC
AQEAPI+NP5Wnmy4vtnVGYT1rUwZeuszwYJK0hd89UllZKWSBGcVCdRTSqu/0ORCR
4x3UbedHnkmK6Pj8IZps2GpQ+PXh+5UubyJ6YjQ3qvXIZBuOJVlCElbWiOPCzigl
uiuHHcZuEookysJDZU1uKEQALeytcgjyLbwj9F9MD/6+NUojzXN4OKf/q3Rt8rBV
qab8hlb4DjG7zYu9SHPIbtu9QX5zXOTTVK2t3bRxHg/cvK+k7xoZpz2Tm1qbpTng
L8PbYYlfbWMnHNalLGNC8rOGgq8+og8NQsKkHbZNXlQ5GTs7c2Lh/mT+gj8kDhR2
k9518H++GdjONsjYG1MKcwIgxw==
-----END CERTIFICATE-----
