Certificate:
    Data:
        Version: 3 (0x2)
        Serial Number: 11042563100208 (0xa0b0c0d0e30)
    Signature Algorithm: sha256WithRSAEncryption
        Issuer: CN=DELHICA_CA, C=IN, O=CITRIX, OU=ANG, ST=KA/emailAddress=DELHICA_CA@DELHICA_mail.com
        Validity
            Not Before: Jul  8 04:34:30 2016 GMT
            Not After : Jul  6 04:34:30 2026 GMT
        Subject: ST=KA, C=IN, CN=134_DELHICA_server/emailAddress=134_DELHICA@test_ca.com, O=CITRIX
        Subject Public Key Info:
            Public Key Algorithm: rsaEncryption
                Public-Key: (2048 bit)
                Modulus:
                    00:b3:23:ae:3f:58:56:c6:df:7f:fa:b2:3a:9a:c4:
                    b2:1e:06:24:87:fe:61:9d:ac:81:f1:12:c5:92:ea:
                    f4:99:d5:19:19:81:a5:94:49:31:3c:36:58:7d:3e:
                    9f:ab:91:3d:76:bf:b1:0e:ca:27:00:72:a3:fd:2c:
                    ce:71:19:0a:04:96:14:c6:ea:8a:94:dd:f7:83:89:
                    99:e5:a5:81:64:22:07:67:c1:b1:98:4e:b7:39:4d:
                    2f:1c:c2:7c:05:10:ae:ff:ac:67:f3:70:7a:c6:53:
                    e6:1f:5e:95:13:07:26:53:91:90:a6:dc:bb:0b:e0:
                    34:c4:ee:a3:75:9b:06:b0:ed:b0:92:91:9e:e2:4b:
                    d9:25:8e:b8:ce:38:40:e9:43:d5:d0:01:f7:2c:f5:
                    92:42:44:bb:4c:95:33:d9:43:e8:e9:c7:7a:3d:74:
                    c8:2c:b1:bd:0a:1c:ee:7d:27:bd:24:49:ee:eb:8a:
                    67:47:a1:bb:a5:b6:53:bd:16:1d:78:c9:73:fc:c8:
                    b9:d7:80:2b:b1:1f:46:67:4e:99:ce:c6:02:05:db:
                    b6:08:9a:c2:64:82:9d:c3:34:49:75:d7:a2:9f:83:
                    3e:bc:66:81:e0:c4:0c:53:45:70:0d:ea:62:12:07:
                    52:c9:2f:be:e1:3d:d0:b2:8e:64:83:80:57:a5:74:
                    f1:37
                Exponent: 65537 (0x10001)
        X509v3 extensions:
            Netscape Cert Type: 
                SSL Server
            X509v3 Subject Key Identifier: 
                9E:61:EE:53:39:68:67:BA:E3:32:3E:C2:5D:BF:B7:8D:82:B5:E2:21
            X509v3 Authority Key Identifier: 
                keyid:D7:37:52:01:DC:2C:7A:57:85:CA:30:39:30:F0:D5:5D:5A:31:03:02
                DirName:/CN=DELHICA_CA/C=IN/O=CITRIX/OU=ANG/ST=KA/emailAddress=DELHICA_CA@DELHICA_mail.com
                serial:94:59:DC:51:4E:A5:13:27

            Authority Information Access: 
                OCSP - URI:http://172.20.20.1/responderpath

    Signature Algorithm: sha256WithRSAEncryption
         93:f8:bb:04:32:12:92:1c:70:07:68:a4:31:61:51:48:f7:3b:
         2f:28:99:0a:78:fb:1d:b4:04:b3:71:f6:9a:e3:4f:a5:36:82:
         69:7e:41:1b:27:51:2e:70:76:9f:07:6a:fb:2a:f9:02:1b:04:
         00:c0:36:29:64:fc:59:3e:3a:fa:1e:80:a6:d8:34:b8:80:ff:
         d0:fc:17:03:12:e4:1f:a2:70:df:4b:12:c5:7a:30:e6:2e:f4:
         05:45:17:99:5f:6a:31:8b:40:b7:f0:f9:ba:6e:43:bd:2e:58:
         71:8e:5e:89:66:a5:bd:42:cf:09:a7:62:06:ff:a8:17:f3:56:
         fe:39:fa:75:08:e0:6e:4a:c8:00:36:ff:8c:71:44:0f:e8:57:
         da:ca:ab:94:ad:5d:ed:3b:a4:37:15:40:2f:d0:4a:10:f7:c2:
         2d:0d:d9:81:17:4e:13:a8:f2:c5:d2:f8:58:37:20:d0:36:39:
         71:0f:b7:62:9a:f9:c6:56:92:2d:49:43:d2:62:4b:fe:a1:ca:
         22:81:07:14:3b:4e:b0:30:a3:cc:6f:26:74:42:2e:04:1b:35:
         65:db:ad:af:cf:46:b3:db:ad:e4:2a:3d:93:90:0f:bc:4f:8d:
         07:3b:41:60:7a:b0:3a:fa:d5:39:e7:96:97:91:a3:a1:e7:25:
         3e:b4:93:00
-----BEGIN CERTIFICATE-----
MIIEjzCCA3egAwIBAgIGCgsMDQ4wMA0GCSqGSIb3DQEBCwUAMHoxEzARBgNVBAMU
CkRFTEhJQ0FfQ0ExCzAJBgNVBAYTAklOMQ8wDQYDVQQKEwZDSVRSSVgxDDAKBgNV
BAsTA0FORzELMAkGA1UECBMCS0ExKjAoBgkqhkiG9w0BCQEWG0RFTEhJQ0FfQ0FA
REVMSElDQV9tYWlsLmNvbTAeFw0xNjA3MDgwNDM0MzBaFw0yNjA3MDYwNDM0MzBa
MHAxCzAJBgNVBAgTAktBMQswCQYDVQQGEwJJTjEbMBkGA1UEAxQSMTM0X0RFTEhJ
Q0Ffc2VydmVyMSYwJAYJKoZIhvcNAQkBFhcxMzRfREVMSElDQUB0ZXN0X2NhLmNv
bTEPMA0GA1UEChMGQ0lUUklYMIIBIjANBgkqhkiG9w0BAQEFAAOCAQ8AMIIBCgKC
AQEAsyOuP1hWxt9/+rI6msSyHgYkh/5hnayB8RLFkur0mdUZGYGllEkxPDZYfT6f
q5E9dr+xDsonAHKj/SzOcRkKBJYUxuqKlN33g4mZ5aWBZCIHZ8GxmE63OU0vHMJ8
BRCu/6xn83B6xlPmH16VEwcmU5GQpty7C+A0xO6jdZsGsO2wkpGe4kvZJY64zjhA
6UPV0AH3LPWSQkS7TJUz2UPo6cd6PXTILLG9ChzufSe9JEnu64pnR6G7pbZTvRYd
eMlz/Mi514ArsR9GZ06ZzsYCBdu2CJrCZIKdwzRJddein4M+vGaB4MQMU0VwDepi
EgdSyS++4T3Qso5kg4BXpXTxNwIDAQABo4IBIzCCAR8wEQYJYIZIAYb4QgEBBAQD
AgZAMB0GA1UdDgQWBBSeYe5TOWhnuuMyPsJdv7eNgrXiITCBrAYDVR0jBIGkMIGh
gBTXN1IB3Cx6V4XKMDkw8NVdWjEDAqF+pHwwejETMBEGA1UEAxQKREVMSElDQV9D
QTELMAkGA1UEBhMCSU4xDzANBgNVBAoTBkNJVFJJWDEMMAoGA1UECxMDQU5HMQsw
CQYDVQQIEwJLQTEqMCgGCSqGSIb3DQEJARYbREVMSElDQV9DQUBERUxISUNBX21h
aWwuY29tggkAlFncUU6lEycwPAYIKwYBBQUHAQEEMDAuMCwGCCsGAQUFBzABhiBo
dHRwOi8vMTcyLjIwLjIwLjEvcmVzcG9uZGVycGF0aDANBgkqhkiG9w0BAQsFAAOC
AQEAk/i7BDISkhxwB2ikMWFRSPc7LyiZCnj7HbQEs3H2muNPpTaCaX5BGydRLnB2
nwdq+yr5AhsEAMA2KWT8WT46+h6Aptg0uID/0PwXAxLkH6Jw30sSxXow5i70BUUX
mV9qMYtAt/D5um5DvS5YcY5eiWalvULPCadiBv+oF/NW/jn6dQjgbkrIADb/jHFE
D+hX2sqrlK1d7TukNxVAL9BKEPfCLQ3ZgRdOE6jyxdL4WDcg0DY5cQ+3Ypr5xlaS
LUlD0mJL/qHKIoEHFDtOsDCjzG8mdEIuBBs1Zdutr89Gs9ut5Co9k5APvE+NBztB
YHqwOvrVOeeWl5GjoeclPrSTAA==
-----END CERTIFICATE-----
