Certificate:
    Data:
        Version: 3 (0x2)
        Serial Number: 11042563100210 (0xa0b0c0d0e32)
    Signature Algorithm: sha256WithRSAEncryption
        Issuer: CN=DELHICA_CA, C=IN, O=CITRIX, OU=ANG, ST=KA/emailAddress=DELHICA_CA@DELHICA_mail.com
        Validity
            Not Before: Jul  8 04:34:31 2016 GMT
            Not After : Jul  6 04:34:31 2026 GMT
        Subject: ST=KA, C=IN, CN=136_DELHICA_server/emailAddress=136_DELHICA@test_ca.com, O=CITRIX
        Subject Public Key Info:
            Public Key Algorithm: rsaEncryption
                Public-Key: (2048 bit)
                Modulus:
                    00:bc:dd:84:e3:89:0d:b6:83:28:e9:da:da:e7:06:
                    b9:f5:66:45:6f:39:12:f9:6d:08:c4:1d:c4:fe:5c:
                    49:e1:c9:48:b4:6e:24:aa:39:78:38:e6:41:ce:63:
                    aa:fa:a4:93:5f:4c:7f:57:2f:70:27:7f:3d:2f:9d:
                    49:8e:1a:a0:4c:31:ec:2a:07:b5:55:98:05:8e:bc:
                    20:16:96:c0:25:0a:72:a5:b3:a8:88:af:5f:09:14:
                    c5:19:f9:9b:7f:9e:1a:e1:2a:d5:a5:e6:1f:b2:16:
                    0b:da:49:fd:7f:e9:19:2f:55:4b:e7:52:44:d1:b1:
                    2f:ec:82:03:bd:06:7f:8f:1c:9d:51:8d:25:20:69:
                    e1:9e:a1:1d:72:72:a4:20:21:3f:d3:45:57:0e:c3:
                    6e:6d:32:54:a5:2b:71:82:47:ba:e3:4c:bd:7e:ac:
                    4c:31:e6:bb:88:81:e7:fc:88:ac:f1:3e:f1:7d:2a:
                    1b:fd:c9:10:49:03:f2:a1:15:ca:59:e7:77:a4:c4:
                    60:dc:ed:c1:75:48:1f:48:0c:25:65:7d:61:95:5d:
                    c6:c8:ef:d6:59:7b:e3:5e:c9:90:cd:a1:3d:46:b0:
                    3f:6e:cf:38:04:e5:81:2b:63:e3:7e:82:79:c1:5a:
                    f8:6d:e5:c8:ac:76:e8:c2:de:43:00:56:f7:ca:71:
                    40:b7
                Exponent: 65537 (0x10001)
        X509v3 extensions:
            Netscape Cert Type: 
                SSL Server
            X509v3 Subject Key Identifier: 
                07:D2:9D:BA:51:15:30:40:34:49:5A:EC:98:D2:DD:07:3D:54:E0:8B
            X509v3 Authority Key Identifier: 
                keyid:D7:37:52:01:DC:2C:7A:57:85:CA:30:39:30:F0:D5:5D:5A:31:03:02
                DirName:/CN=DELHICA_CA/C=IN/O=CITRIX/OU=ANG/ST=KA/emailAddress=DELHICA_CA@DELHICA_mail.com
                serial:94:59:DC:51:4E:A5:13:27

            Authority Information Access: 
                OCSP - URI:http://172.20.20.1/responderpath

    Signature Algorithm: sha256WithRSAEncryption
         47:39:e1:ba:5b:4f:52:3d:04:84:a4:6b:9f:03:5f:bb:41:5a:
         57:3a:01:96:0d:3a:a8:98:a0:62:31:a5:90:6d:ca:94:c4:14:
         63:9d:4b:38:c1:7a:76:bc:40:55:69:c6:cb:1e:6a:90:ba:f5:
         78:6c:de:22:95:48:01:12:78:8d:9a:cb:7c:ac:74:bb:4c:e2:
         5d:7b:da:13:9f:15:de:f3:4a:0c:7d:67:d6:ad:ed:47:d6:16:
         11:d9:f3:0a:70:68:40:b4:57:a2:d0:90:12:9b:5c:77:47:d7:
         1f:1e:12:af:f7:1f:39:13:46:b1:61:fa:cd:08:b3:bd:20:42:
         f4:53:45:c9:14:e3:79:bc:9c:2f:62:27:2b:c5:d6:d1:da:57:
         de:c5:0b:80:01:92:7a:1b:ec:26:2e:fe:42:19:17:60:98:5a:
         fb:11:f7:6d:cb:30:58:a5:c9:f7:0e:c0:12:29:16:1d:2d:17:
         4f:d9:5b:f5:72:4b:31:c1:91:7e:b1:76:ef:d8:71:c8:e6:c8:
         9e:56:c2:62:e3:b3:d4:44:98:e9:37:56:2b:27:4f:45:f6:36:
         e6:bb:7c:18:58:43:20:99:e2:33:c1:c9:47:91:03:fe:cc:40:
         5f:65:a7:bf:94:23:08:b5:c5:0d:84:1a:2a:a9:4a:7e:93:65:
         86:c7:b2:b6
-----BEGIN CERTIFICATE-----
MIIEjzCCA3egAwIBAgIGCgsMDQ4yMA0GCSqGSIb3DQEBCwUAMHoxEzARBgNVBAMU
CkRFTEhJQ0FfQ0ExCzAJBgNVBAYTAklOMQ8wDQYDVQQKEwZDSVRSSVgxDDAKBgNV
BAsTA0FORzELMAkGA1UECBMCS0ExKjAoBgkqhkiG9w0BCQEWG0RFTEhJQ0FfQ0FA
REVMSElDQV9tYWlsLmNvbTAeFw0xNjA3MDgwNDM0MzFaFw0yNjA3MDYwNDM0MzFa
MHAxCzAJBgNVBAgTAktBMQswCQYDVQQGEwJJTjEbMBkGA1UEAxQSMTM2X0RFTEhJ
Q0Ffc2VydmVyMSYwJAYJKoZIhvcNAQkBFhcxMzZfREVMSElDQUB0ZXN0X2NhLmNv
bTEPMA0GA1UEChMGQ0lUUklYMIIBIjANBgkqhkiG9w0BAQEFAAOCAQ8AMIIBCgKC
AQEAvN2E44kNtoMo6dra5wa59WZFbzkS+W0IxB3E/lxJ4clItG4kqjl4OOZBzmOq
+qSTX0x/Vy9wJ389L51JjhqgTDHsKge1VZgFjrwgFpbAJQpypbOoiK9fCRTFGfmb
f54a4SrVpeYfshYL2kn9f+kZL1VL51JE0bEv7IIDvQZ/jxydUY0lIGnhnqEdcnKk
ICE/00VXDsNubTJUpStxgke640y9fqxMMea7iIHn/Iis8T7xfSob/ckQSQPyoRXK
Wed3pMRg3O3BdUgfSAwlZX1hlV3GyO/WWXvjXsmQzaE9RrA/bs84BOWBK2PjfoJ5
wVr4beXIrHbowt5DAFb3ynFAtwIDAQABo4IBIzCCAR8wEQYJYIZIAYb4QgEBBAQD
AgZAMB0GA1UdDgQWBBQH0p26URUwQDRJWuyY0t0HPVTgizCBrAYDVR0jBIGkMIGh
gBTXN1IB3Cx6V4XKMDkw8NVdWjEDAqF+pHwwejETMBEGA1UEAxQKREVMSElDQV9D
QTELMAkGA1UEBhMCSU4xDzANBgNVBAoTBkNJVFJJWDEMMAoGA1UECxMDQU5HMQsw
CQYDVQQIEwJLQTEqMCgGCSqGSIb3DQEJARYbREVMSElDQV9DQUBERUxISUNBX21h
aWwuY29tggkAlFncUU6lEycwPAYIKwYBBQUHAQEEMDAuMCwGCCsGAQUFBzABhiBo
dHRwOi8vMTcyLjIwLjIwLjEvcmVzcG9uZGVycGF0aDANBgkqhkiG9w0BAQsFAAOC
AQEARznhultPUj0EhKRrnwNfu0FaVzoBlg06qJigYjGlkG3KlMQUY51LOMF6drxA
VWnGyx5qkLr1eGzeIpVIARJ4jZrLfKx0u0ziXXvaE58V3vNKDH1n1q3tR9YWEdnz
CnBoQLRXotCQEptcd0fXHx4Sr/cfORNGsWH6zQizvSBC9FNFyRTjebycL2InK8XW
0dpX3sULgAGSehvsJi7+QhkXYJha+xH3bcswWKXJ9w7AEikWHS0XT9lb9XJLMcGR
frF279hxyObInlbCYuOz1ESY6TdWKydPRfY25rt8GFhDIJniM8HJR5ED/sxAX2Wn
v5QjCLXFDYQaKqlKfpNlhseytg==
-----END CERTIFICATE-----
