Certificate:
    Data:
        Version: 3 (0x2)
        Serial Number: 11042563100213 (0xa0b0c0d0e35)
    Signature Algorithm: sha256WithRSAEncryption
        Issuer: CN=DELHICA_CA, C=IN, O=CITRIX, OU=ANG, ST=KA/emailAddress=DELHICA_CA@DELHICA_mail.com
        Validity
            Not Before: Jul  8 04:34:31 2016 GMT
            Not After : Jul  6 04:34:31 2026 GMT
        Subject: ST=KA, C=IN, CN=139_DELHICA_server/emailAddress=139_DELHICA@test_ca.com, O=CITRIX
        Subject Public Key Info:
            Public Key Algorithm: rsaEncryption
                Public-Key: (2048 bit)
                Modulus:
                    00:e2:f6:83:66:4b:09:73:04:0d:52:e4:bd:56:fe:
                    43:28:da:91:a3:6a:38:9d:92:a8:6d:da:4a:9b:13:
                    df:32:b1:7e:76:57:6e:a8:5b:49:24:43:18:5d:a4:
                    06:81:13:2f:0b:74:d8:4c:79:11:73:1c:de:f5:12:
                    ca:10:e6:2c:ed:1b:80:18:07:1b:28:20:33:4f:78:
                    d5:25:00:6a:27:53:92:95:42:e3:8c:20:ef:d0:58:
                    f9:9d:90:d1:33:65:87:3f:d0:41:82:72:9f:93:84:
                    aa:b4:8e:b3:c7:d4:32:42:ce:cb:e7:0e:06:e9:35:
                    c9:80:79:4c:e5:f2:a0:ee:c8:f9:85:9f:b8:ce:d5:
                    e2:92:d6:a1:c9:3c:e8:bf:bf:44:60:12:be:45:dd:
                    e9:5e:91:49:04:fe:33:43:23:77:67:6a:3c:25:89:
                    4d:22:c9:08:78:76:8b:a8:fa:71:56:55:3c:1d:3f:
                    bb:a7:29:2a:6f:8d:cc:a3:e4:b6:8a:b4:d5:f3:a9:
                    47:e9:20:76:07:cf:34:42:a3:8c:b0:a0:b1:4a:22:
                    8a:06:9c:b8:ad:0b:4f:25:94:e2:53:aa:61:ba:ee:
                    80:45:82:e5:b4:8b:2b:ce:56:25:84:de:fd:c3:81:
                    fa:fb:f1:3f:4c:e6:51:d1:e6:c6:8c:21:9f:db:13:
                    1a:35
                Exponent: 65537 (0x10001)
        X509v3 extensions:
            Netscape Cert Type: 
                SSL Server
            X509v3 Subject Key Identifier: 
                E5:9C:97:BB:9A:77:B7:FB:4B:B6:7C:76:92:F1:DD:66:36:AC:8E:55
            X509v3 Authority Key Identifier: 
                keyid:D7:37:52:01:DC:2C:7A:57:85:CA:30:39:30:F0:D5:5D:5A:31:03:02
                DirName:/CN=DELHICA_CA/C=IN/O=CITRIX/OU=ANG/ST=KA/emailAddress=DELHICA_CA@DELHICA_mail.com
                serial:94:59:DC:51:4E:A5:13:27

            Authority Information Access: 
                OCSP - URI:http://172.20.20.1/responderpath

    Signature Algorithm: sha256WithRSAEncryption
         d5:ff:c6:8c:9c:66:0d:cd:8b:a8:d1:b4:79:63:69:56:ab:e4:
         be:15:23:ab:24:35:26:db:0e:6f:fa:84:32:b1:63:d4:18:1b:
         6d:e5:c0:e9:1a:be:65:7b:b7:df:60:fb:a4:3a:99:75:b6:c8:
         de:6a:0a:86:0d:c7:35:44:21:8d:9c:98:8e:60:e6:0b:5e:f8:
         b0:b9:6c:0c:a9:ba:ce:ee:ea:23:18:d6:44:3d:17:7e:5c:a7:
         07:59:26:31:d5:43:19:2a:4a:5e:bd:8b:c7:48:19:4c:ae:e8:
         5c:56:88:0c:c4:ee:ad:7a:92:a3:4d:46:65:25:5d:ef:12:55:
         ef:b2:63:16:3b:08:6d:6c:32:4e:85:6a:08:35:40:e5:30:ef:
         56:1b:bf:63:9a:f7:3a:57:9c:f7:f1:03:7c:b7:12:ea:7c:30:
         7f:b0:fa:66:3b:53:14:d3:99:36:4b:3d:98:6e:04:c3:2e:f3:
         af:df:d1:89:cc:78:bf:b2:a5:7c:a9:db:9e:09:db:9c:61:47:
         d3:1d:9e:18:70:c6:3a:84:8f:a0:2b:33:47:e3:99:02:e9:37:
         97:38:a0:ec:65:f3:14:45:a1:d8:60:79:0f:ff:c2:39:45:c7:
         6d:60:86:0b:ad:56:3b:05:5e:48:30:23:20:84:d7:22:b8:0e:
         a8:57:f7:9b
-----BEGIN CERTIFICATE-----
MIIEjzCCA3egAwIBAgIGCgsMDQ41MA0GCSqGSIb3DQEBCwUAMHoxEzARBgNVBAMU
CkRFTEhJQ0FfQ0ExCzAJBgNVBAYTAklOMQ8wDQYDVQQKEwZDSVRSSVgxDDAKBgNV
BAsTA0FORzELMAkGA1UECBMCS0ExKjAoBgkqhkiG9w0BCQEWG0RFTEhJQ0FfQ0FA
REVMSElDQV9tYWlsLmNvbTAeFw0xNjA3MDgwNDM0MzFaFw0yNjA3MDYwNDM0MzFa
MHAxCzAJBgNVBAgTAktBMQswCQYDVQQGEwJJTjEbMBkGA1UEAxQSMTM5X0RFTEhJ
Q0Ffc2VydmVyMSYwJAYJKoZIhvcNAQkBFhcxMzlfREVMSElDQUB0ZXN0X2NhLmNv
bTEPMA0GA1UEChMGQ0lUUklYMIIBIjANBgkqhkiG9w0BAQEFAAOCAQ8AMIIBCgKC
AQEA4vaDZksJcwQNUuS9Vv5DKNqRo2o4nZKobdpKmxPfMrF+dlduqFtJJEMYXaQG
gRMvC3TYTHkRcxze9RLKEOYs7RuAGAcbKCAzT3jVJQBqJ1OSlULjjCDv0Fj5nZDR
M2WHP9BBgnKfk4SqtI6zx9QyQs7L5w4G6TXJgHlM5fKg7sj5hZ+4ztXiktahyTzo
v79EYBK+Rd3pXpFJBP4zQyN3Z2o8JYlNIskIeHaLqPpxVlU8HT+7pykqb43Mo+S2
irTV86lH6SB2B880QqOMsKCxSiKKBpy4rQtPJZTiU6phuu6ARYLltIsrzlYlhN79
w4H6+/E/TOZR0ebGjCGf2xMaNQIDAQABo4IBIzCCAR8wEQYJYIZIAYb4QgEBBAQD
AgZAMB0GA1UdDgQWBBTlnJe7mne3+0u2fHaS8d1mNqyOVTCBrAYDVR0jBIGkMIGh
gBTXN1IB3Cx6V4XKMDkw8NVdWjEDAqF+pHwwejETMBEGA1UEAxQKREVMSElDQV9D
QTELMAkGA1UEBhMCSU4xDzANBgNVBAoTBkNJVFJJWDEMMAoGA1UECxMDQU5HMQsw
CQYDVQQIEwJLQTEqMCgGCSqGSIb3DQEJARYbREVMSElDQV9DQUBERUxISUNBX21h
aWwuY29tggkAlFncUU6lEycwPAYIKwYBBQUHAQEEMDAuMCwGCCsGAQUFBzABhiBo
dHRwOi8vMTcyLjIwLjIwLjEvcmVzcG9uZGVycGF0aDANBgkqhkiG9w0BAQsFAAOC
AQEA1f/GjJxmDc2LqNG0eWNpVqvkvhUjqyQ1JtsOb/qEMrFj1BgbbeXA6Rq+ZXu3
32D7pDqZdbbI3moKhg3HNUQhjZyYjmDmC174sLlsDKm6zu7qIxjWRD0XflynB1km
MdVDGSpKXr2Lx0gZTK7oXFaIDMTurXqSo01GZSVd7xJV77JjFjsIbWwyToVqCDVA
5TDvVhu/Y5r3Olec9/EDfLcS6nwwf7D6ZjtTFNOZNks9mG4Ewy7zr9/Ricx4v7Kl
fKnbngnbnGFH0x2eGHDGOoSPoCszR+OZAuk3lzig7GXzFEWh2GB5D//COUXHbWCG
C61WOwVeSDAjIITXIrgOqFf3mw==
-----END CERTIFICATE-----
