Certificate:
    Data:
        Version: 3 (0x2)
        Serial Number: 11042563100214 (0xa0b0c0d0e36)
    Signature Algorithm: sha256WithRSAEncryption
        Issuer: CN=DELHICA_CA, C=IN, O=CITRIX, OU=ANG, ST=KA/emailAddress=DELHICA_CA@DELHICA_mail.com
        Validity
            Not Before: Jul  8 04:34:32 2016 GMT
            Not After : Jul  6 04:34:32 2026 GMT
        Subject: ST=KA, C=IN, CN=140_DELHICA_server/emailAddress=140_DELHICA@test_ca.com, O=CITRIX
        Subject Public Key Info:
            Public Key Algorithm: rsaEncryption
                Public-Key: (2048 bit)
                Modulus:
                    00:ba:a2:fe:45:38:0a:ed:fd:81:94:ea:40:fb:fc:
                    54:e7:9a:c9:78:46:ba:76:df:84:0b:51:73:ee:96:
                    13:3a:c6:2b:a1:51:a9:a9:bf:d8:ca:93:6d:af:54:
                    08:4e:b8:c4:4b:da:54:1f:69:88:c5:51:98:80:fc:
                    33:cd:6e:34:b2:9b:c1:61:d2:26:1a:15:f5:92:72:
                    63:68:d2:69:f5:73:9c:3a:a1:88:00:d3:45:85:82:
                    d6:28:08:96:a2:50:96:9f:50:14:48:80:66:f5:79:
                    57:9d:55:7b:de:3f:92:a1:f9:79:69:02:04:b6:41:
                    c7:fd:b0:c0:5f:fd:ba:45:c5:3d:46:ad:8d:76:71:
                    4a:2e:5c:d4:ab:d4:c2:cf:a8:35:61:05:b5:8c:97:
                    0a:89:03:b2:bb:bc:f9:2c:1e:a8:71:b8:86:a2:27:
                    45:2a:b8:8f:de:dd:ef:ab:9d:8f:61:e3:fe:31:63:
                    bc:01:9d:75:d9:89:f1:91:23:ea:a6:f7:c8:2a:4a:
                    4e:c3:3f:61:27:2d:a2:99:a4:3e:e5:a4:70:ad:d1:
                    07:16:77:23:08:50:0e:ab:e5:b4:41:48:e8:93:ed:
                    23:59:22:79:45:ff:bd:73:e7:f1:69:22:4c:3b:67:
                    30:28:3e:ef:8f:1e:49:3c:e7:39:94:21:4d:04:ce:
                    69:ab
                Exponent: 65537 (0x10001)
        X509v3 extensions:
            Netscape Cert Type: 
                SSL Server
            X509v3 Subject Key Identifier: 
                D8:04:7A:9E:6C:4A:E7:DF:79:C9:76:26:92:38:5A:C1:0A:4D:48:52
            X509v3 Authority Key Identifier: 
                keyid:D7:37:52:01:DC:2C:7A:57:85:CA:30:39:30:F0:D5:5D:5A:31:03:02
                DirName:/CN=DELHICA_CA/C=IN/O=CITRIX/OU=ANG/ST=KA/emailAddress=DELHICA_CA@DELHICA_mail.com
                serial:94:59:DC:51:4E:A5:13:27

            Authority Information Access: 
                OCSP - URI:http://172.20.20.1/responderpath

    Signature Algorithm: sha256WithRSAEncryption
         3e:79:56:5c:b7:0e:16:b5:c4:96:fb:96:e2:90:f7:c9:e6:8c:
         fe:41:7d:c7:8e:ab:8f:9c:99:34:4a:d4:9e:a9:6e:5e:0a:ae:
         77:f3:2c:44:43:72:6f:13:33:be:a1:7c:a1:9d:87:f0:d2:2a:
         98:ff:3a:68:12:2e:dd:23:4c:c2:d6:dc:ae:7e:e0:4d:96:6d:
         8c:a5:e2:7b:d2:d5:6f:ea:a2:ee:78:39:58:8a:ff:70:97:e5:
         18:8c:01:54:e1:dc:8c:d5:d3:e8:9f:75:cb:97:72:4c:30:0f:
         80:fc:62:4a:e0:d3:9d:4d:b9:d8:c4:fb:35:ff:ff:4e:ed:99:
         97:8c:7c:bb:a4:0d:90:7a:07:dc:97:b5:21:6d:b4:80:91:40:
         08:d9:c2:31:8c:d7:13:3a:43:e0:be:de:af:d0:5d:8b:c8:ab:
         e6:83:d3:7f:96:8b:24:de:8f:16:14:a1:61:32:d8:1f:4c:ea:
         de:fa:35:6a:f8:1e:6c:67:ed:b8:fe:57:8f:d4:d7:16:ba:a8:
         e6:21:80:fb:fb:d0:32:fc:04:f0:85:32:c1:64:0e:fd:b6:8c:
         4c:c4:c5:0b:e9:c9:3d:d8:ba:5a:8e:4c:27:19:90:d9:b2:69:
         08:b9:9b:26:b3:0d:86:42:41:20:9a:83:17:00:4a:8a:af:88:
         1b:31:78:c8
-----BEGIN CERTIFICATE-----
MIIEjzCCA3egAwIBAgIGCgsMDQ42MA0GCSqGSIb3DQEBCwUAMHoxEzARBgNVBAMU
CkRFTEhJQ0FfQ0ExCzAJBgNVBAYTAklOMQ8wDQYDVQQKEwZDSVRSSVgxDDAKBgNV
BAsTA0FORzELMAkGA1UECBMCS0ExKjAoBgkqhkiG9w0BCQEWG0RFTEhJQ0FfQ0FA
REVMSElDQV9tYWlsLmNvbTAeFw0xNjA3MDgwNDM0MzJaFw0yNjA3MDYwNDM0MzJa
MHAxCzAJBgNVBAgTAktBMQswCQYDVQQGEwJJTjEbMBkGA1UEAxQSMTQwX0RFTEhJ
Q0Ffc2VydmVyMSYwJAYJKoZIhvcNAQkBFhcxNDBfREVMSElDQUB0ZXN0X2NhLmNv
bTEPMA0GA1UEChMGQ0lUUklYMIIBIjANBgkqhkiG9w0BAQEFAAOCAQ8AMIIBCgKC
AQEAuqL+RTgK7f2BlOpA+/xU55rJeEa6dt+EC1Fz7pYTOsYroVGpqb/YypNtr1QI
TrjES9pUH2mIxVGYgPwzzW40spvBYdImGhX1knJjaNJp9XOcOqGIANNFhYLWKAiW
olCWn1AUSIBm9XlXnVV73j+Sofl5aQIEtkHH/bDAX/26RcU9Rq2NdnFKLlzUq9TC
z6g1YQW1jJcKiQOyu7z5LB6ocbiGoidFKriP3t3vq52PYeP+MWO8AZ112YnxkSPq
pvfIKkpOwz9hJy2imaQ+5aRwrdEHFncjCFAOq+W0QUjok+0jWSJ5Rf+9c+fxaSJM
O2cwKD7vjx5JPOc5lCFNBM5pqwIDAQABo4IBIzCCAR8wEQYJYIZIAYb4QgEBBAQD
AgZAMB0GA1UdDgQWBBTYBHqebErn33nJdiaSOFrBCk1IUjCBrAYDVR0jBIGkMIGh
gBTXN1IB3Cx6V4XKMDkw8NVdWjEDAqF+pHwwejETMBEGA1UEAxQKREVMSElDQV9D
QTELMAkGA1UEBhMCSU4xDzANBgNVBAoTBkNJVFJJWDEMMAoGA1UECxMDQU5HMQsw
CQYDVQQIEwJLQTEqMCgGCSqGSIb3DQEJARYbREVMSElDQV9DQUBERUxISUNBX21h
aWwuY29tggkAlFncUU6lEycwPAYIKwYBBQUHAQEEMDAuMCwGCCsGAQUFBzABhiBo
dHRwOi8vMTcyLjIwLjIwLjEvcmVzcG9uZGVycGF0aDANBgkqhkiG9w0BAQsFAAOC
AQEAPnlWXLcOFrXElvuW4pD3yeaM/kF9x46rj5yZNErUnqluXgqud/MsRENybxMz
vqF8oZ2H8NIqmP86aBIu3SNMwtbcrn7gTZZtjKXie9LVb+qi7ng5WIr/cJflGIwB
VOHcjNXT6J91y5dyTDAPgPxiSuDTnU252MT7Nf//Tu2Zl4x8u6QNkHoH3Je1IW20
gJFACNnCMYzXEzpD4L7er9Bdi8ir5oPTf5aLJN6PFhShYTLYH0zq3vo1avgebGft
uP5Xj9TXFrqo5iGA+/vQMvwE8IUywWQO/baMTMTFC+nJPdi6Wo5MJxmQ2bJpCLmb
JrMNhkJBIJqDFwBKiq+IGzF4yA==
-----END CERTIFICATE-----
