Certificate:
    Data:
        Version: 3 (0x2)
        Serial Number: 11042563100244 (0xa0b0c0d0e54)
    Signature Algorithm: sha256WithRSAEncryption
        Issuer: CN=DELHICA_CA, C=IN, O=CITRIX, OU=ANG, ST=KA/emailAddress=DELHICA_CA@DELHICA_mail.com
        Validity
            Not Before: Aug 23 10:50:47 2017 GMT
            Not After : Aug 21 10:50:47 2027 GMT
        Subject: ST=KA, C=IN, CN=delhi_30_client/emailAddress=delhi_30@test_ca.com, O=CITRIX
        Subject Public Key Info:
            Public Key Algorithm: rsaEncryption
                Public-Key: (2048 bit)
                Modulus:
                    00:9e:ff:c0:52:1e:a3:da:5f:ad:a8:1e:0f:2a:8c:
                    ea:4b:f0:d1:02:3b:46:58:24:0c:32:39:9c:b1:ae:
                    9f:c2:02:4d:98:ca:f8:69:7d:67:a6:1f:07:e2:9b:
                    45:d8:30:50:c2:4d:c0:aa:42:13:fe:b2:a1:21:49:
                    00:2d:31:9c:47:37:01:a3:76:af:ff:49:14:6f:ca:
                    6c:66:54:82:c7:90:8c:cf:8e:58:36:64:6a:01:78:
                    f2:9b:bd:a9:e9:6a:61:d1:e8:f4:f0:fa:d4:2c:e3:
                    10:8f:b6:bd:b5:a9:6f:38:f3:9c:96:f0:8d:85:61:
                    c4:11:aa:98:c8:c5:94:a6:37:fd:f3:4c:f2:2b:33:
                    0d:f3:80:7f:c3:92:36:6a:32:ce:9d:7a:19:aa:b3:
                    e6:f8:9d:48:3d:cb:56:b6:ac:53:95:03:b4:43:2f:
                    e5:a0:d7:aa:7a:80:3f:97:32:9b:db:79:8d:f9:93:
                    a4:65:1b:7d:6c:15:1d:d8:80:58:b4:ad:36:29:26:
                    04:04:28:13:1f:c9:5c:c7:cf:1f:a9:73:81:e8:e3:
                    45:ca:84:82:b6:27:9b:a7:2f:1e:a3:dd:e4:91:c2:
                    76:dd:34:6e:d5:19:96:1f:e1:dd:e7:3e:d9:33:ed:
                    8d:b4:6b:7f:8b:6f:dc:30:10:47:99:22:f7:f8:df:
                    39:81
                Exponent: 65537 (0x10001)
        X509v3 extensions:
            Netscape Cert Type: 
                SSL Server
            X509v3 Subject Key Identifier: 
                28:3C:D1:F8:E9:F3:46:6D:ED:89:24:47:EC:59:D5:6F:09:A8:43:35
            X509v3 Authority Key Identifier: 
                keyid:D7:37:52:01:DC:2C:7A:57:85:CA:30:39:30:F0:D5:5D:5A:31:03:02
                DirName:/CN=DELHICA_CA/C=IN/O=CITRIX/OU=ANG/ST=KA/emailAddress=DELHICA_CA@DELHICA_mail.com
                serial:94:59:DC:51:4E:A5:13:27

            Authority Information Access: 
                OCSP - URI:http://172.20.20.1/responderpath

    Signature Algorithm: sha256WithRSAEncryption
         e6:56:d3:96:7b:66:9d:06:f1:61:18:3d:f2:5f:f3:c3:73:d8:
         78:64:da:df:ac:79:94:71:fe:06:07:97:bb:f5:01:84:8e:ce:
         68:78:4d:dc:8f:35:03:31:1a:d5:b0:0b:27:1d:35:c4:42:e3:
         87:bc:5f:b3:38:6d:05:1c:a3:86:7f:07:24:ba:e8:1a:54:87:
         91:7d:8f:ea:3e:da:22:fe:2a:c6:29:48:b1:6b:95:25:54:f4:
         c8:6c:1a:3b:11:7a:53:1f:95:fa:08:2a:22:2e:07:27:ac:4b:
         3e:94:91:12:7b:61:80:12:a4:37:65:33:fe:dc:6d:05:c6:81:
         91:f2:3f:e4:d1:79:b1:ff:86:f0:01:25:9f:78:25:53:d4:13:
         ee:31:e3:f1:cf:a3:76:f1:4d:34:50:50:a0:20:a8:3e:58:4d:
         6e:12:b0:34:24:4b:5e:28:7e:e6:45:69:06:30:ac:2b:0d:4f:
         cc:04:57:40:1e:cf:9a:77:e1:e2:8a:68:b8:0c:30:8f:7a:5a:
         a9:f6:30:b4:98:a2:03:19:4f:23:8f:c5:24:a1:bd:03:bc:8a:
         49:0c:10:23:c5:21:ec:bc:25:28:f2:3a:91:58:a5:34:07:2d:
         58:4e:a3:67:f9:d0:0d:66:81:39:00:62:a3:da:83:12:20:43:
         eb:e8:ed:35
-----BEGIN CERTIFICATE-----
MIIEiTCCA3GgAwIBAgIGCgsMDQ5UMA0GCSqGSIb3DQEBCwUAMHoxEzARBgNVBAMU
CkRFTEhJQ0FfQ0ExCzAJBgNVBAYTAklOMQ8wDQYDVQQKEwZDSVRSSVgxDDAKBgNV
BAsTA0FORzELMAkGA1UECBMCS0ExKjAoBgkqhkiG9w0BCQEWG0RFTEhJQ0FfQ0FA
REVMSElDQV9tYWlsLmNvbTAeFw0xNzA4MjMxMDUwNDdaFw0yNzA4MjExMDUwNDda
MGoxCzAJBgNVBAgTAktBMQswCQYDVQQGEwJJTjEYMBYGA1UEAxQPZGVsaGlfMzBf
Y2xpZW50MSMwIQYJKoZIhvcNAQkBFhRkZWxoaV8zMEB0ZXN0X2NhLmNvbTEPMA0G
A1UEChMGQ0lUUklYMIIBIjANBgkqhkiG9w0BAQEFAAOCAQ8AMIIBCgKCAQEAnv/A
Uh6j2l+tqB4PKozqS/DRAjtGWCQMMjmcsa6fwgJNmMr4aX1nph8H4ptF2DBQwk3A
qkIT/rKhIUkALTGcRzcBo3av/0kUb8psZlSCx5CMz45YNmRqAXjym72p6Wph0ej0
8PrULOMQj7a9talvOPOclvCNhWHEEaqYyMWUpjf980zyKzMN84B/w5I2ajLOnXoZ
qrPm+J1IPctWtqxTlQO0Qy/loNeqeoA/lzKb23mN+ZOkZRt9bBUd2IBYtK02KSYE
BCgTH8lcx88fqXOB6ONFyoSCtiebpy8eo93kkcJ23TRu1RmWH+Hd5z7ZM+2NtGt/
i2/cMBBHmSL3+N85gQIDAQABo4IBIzCCAR8wEQYJYIZIAYb4QgEBBAQDAgZAMB0G
A1UdDgQWBBQoPNH46fNGbe2JJEfsWdVvCahDNTCBrAYDVR0jBIGkMIGhgBTXN1IB
3Cx6V4XKMDkw8NVdWjEDAqF+pHwwejETMBEGA1UEAxQKREVMSElDQV9DQTELMAkG
A1UEBhMCSU4xDzANBgNVBAoTBkNJVFJJWDEMMAoGA1UECxMDQU5HMQswCQYDVQQI
EwJLQTEqMCgGCSqGSIb3DQEJARYbREVMSElDQV9DQUBERUxISUNBX21haWwuY29t
ggkAlFncUU6lEycwPAYIKwYBBQUHAQEEMDAuMCwGCCsGAQUFBzABhiBodHRwOi8v
MTcyLjIwLjIwLjEvcmVzcG9uZGVycGF0aDANBgkqhkiG9w0BAQsFAAOCAQEA5lbT
lntmnQbxYRg98l/zw3PYeGTa36x5lHH+BgeXu/UBhI7OaHhN3I81AzEa1bALJx01
xELjh7xfszhtBRyjhn8HJLroGlSHkX2P6j7aIv4qxilIsWuVJVT0yGwaOxF6Ux+V
+ggqIi4HJ6xLPpSREnthgBKkN2Uz/txtBcaBkfI/5NF5sf+G8AEln3glU9QT7jHj
8c+jdvFNNFBQoCCoPlhNbhKwNCRLXih+5kVpBjCsKw1PzARXQB7Pmnfh4opouAww
j3paqfYwtJiiAxlPI4/FJKG9A7yKSQwQI8Uh7LwlKPI6kVilNActWE6jZ/nQDWaB
OQBio9qDEiBD6+jtNQ==
-----END CERTIFICATE-----
