Certificate:
    Data:
        Version: 3 (0x2)
        Serial Number: 11042563100233 (0xa0b0c0d0e49)
    Signature Algorithm: sha256WithRSAEncryption
        Issuer: CN=DELHICA_CA, C=IN, O=CITRIX, OU=ANG, ST=KA/emailAddress=DELHICA_CA@DELHICA_mail.com
        Validity
            Not Before: Aug 23 10:50:41 2017 GMT
            Not After : Aug 21 10:50:41 2027 GMT
        Subject: ST=KA, C=IN, CN=delhi_19_client/emailAddress=delhi_19@test_ca.com, O=CITRIX
        Subject Public Key Info:
            Public Key Algorithm: rsaEncryption
                Public-Key: (2048 bit)
                Modulus:
                    00:9f:50:56:5a:18:06:a5:65:61:57:d7:ce:62:e3:
                    3e:e9:0e:5d:72:61:60:6d:ec:6b:7b:42:ea:73:4b:
                    85:bc:98:f7:ac:ea:b6:94:3c:94:ec:8a:65:2d:42:
                    a8:77:c6:20:fa:99:4c:c9:e0:f2:14:68:ad:28:0d:
                    fd:00:4f:83:9e:43:64:38:92:8a:ec:05:47:d2:69:
                    cc:fe:24:74:91:bb:ac:11:8c:ef:62:12:0b:44:b6:
                    7a:1a:56:95:03:9e:22:62:b4:ca:7f:34:69:37:2c:
                    47:bd:60:45:4a:92:10:66:c5:73:61:da:ab:16:be:
                    c6:8f:8a:40:5b:93:72:cf:2b:a8:ff:2f:05:8b:a3:
                    27:e0:de:d1:45:04:f2:18:bf:c4:63:37:b8:0f:b1:
                    61:a6:c8:5c:b2:14:e7:1c:82:18:09:89:45:ae:75:
                    85:e4:bb:da:e1:ad:a8:8a:94:3e:80:42:01:9d:65:
                    4d:f1:50:f4:15:52:c1:7b:8e:c8:c9:f7:52:b3:dc:
                    13:74:a5:17:64:a0:16:39:4b:ed:5a:ca:6b:bb:86:
                    0d:3b:34:f3:e9:b8:7c:d8:66:01:d0:1e:51:9a:68:
                    f6:0a:46:79:11:f8:d4:10:82:11:ab:65:1a:cd:0c:
                    fc:ce:b6:16:38:ca:a8:2f:cc:29:56:a1:43:6c:30:
                    62:ab
                Exponent: 65537 (0x10001)
        X509v3 extensions:
            Netscape Cert Type: 
                SSL Server
            X509v3 Subject Key Identifier: 
                C0:07:A0:44:AA:82:C0:9C:D8:97:62:C9:A7:0F:D6:07:7A:08:6C:50
            X509v3 Authority Key Identifier: 
                keyid:D7:37:52:01:DC:2C:7A:57:85:CA:30:39:30:F0:D5:5D:5A:31:03:02
                DirName:/CN=DELHICA_CA/C=IN/O=CITRIX/OU=ANG/ST=KA/emailAddress=DELHICA_CA@DELHICA_mail.com
                serial:94:59:DC:51:4E:A5:13:27

            Authority Information Access: 
                OCSP - URI:http://172.20.20.1/responderpath

    Signature Algorithm: sha256WithRSAEncryption
         0e:b9:8e:67:6a:34:87:b3:15:78:ac:2f:7d:a4:3b:f3:18:c3:
         7e:e6:a7:b6:e6:27:f0:84:7d:fe:25:a3:3f:96:91:ed:82:01:
         13:c6:93:4b:05:c2:b6:3e:c6:11:57:8b:a5:9a:43:f1:69:64:
         14:1a:2b:d3:f0:c6:fe:f3:d4:fb:c5:33:9d:5a:e9:ae:8b:e9:
         6f:40:70:1c:c4:34:22:f4:2e:e0:ce:de:f1:f0:1f:f1:d4:95:
         ab:9b:6a:1e:26:73:b4:cb:eb:ed:71:f7:55:af:23:69:1c:6c:
         24:62:f7:a4:7f:17:8a:f2:3f:33:3e:81:fc:46:17:29:83:da:
         0a:d4:92:04:8a:e5:27:80:bf:04:8c:33:6c:a6:b8:dc:b0:ad:
         21:22:af:a7:fa:53:0b:a4:6c:b4:72:8d:32:22:fb:82:1b:bc:
         5c:13:fe:65:37:54:68:1e:51:9f:ce:95:d4:f2:a1:87:42:3f:
         be:bd:5d:65:b9:d1:19:c5:e1:30:1e:2d:c5:38:2e:84:c9:30:
         27:84:02:bb:12:60:d0:39:71:d4:c6:9b:95:be:f2:32:76:14:
         55:fa:a2:8b:27:38:03:0e:bf:e7:49:d7:9e:ab:f1:2c:d6:ef:
         2c:d6:c4:bf:b5:a9:ef:ac:28:d4:4f:d8:5d:9c:57:aa:25:ec:
         74:0f:db:78
-----BEGIN CERTIFICATE-----
MIIEiTCCA3GgAwIBAgIGCgsMDQ5JMA0GCSqGSIb3DQEBCwUAMHoxEzARBgNVBAMU
CkRFTEhJQ0FfQ0ExCzAJBgNVBAYTAklOMQ8wDQYDVQQKEwZDSVRSSVgxDDAKBgNV
BAsTA0FORzELMAkGA1UECBMCS0ExKjAoBgkqhkiG9w0BCQEWG0RFTEhJQ0FfQ0FA
REVMSElDQV9tYWlsLmNvbTAeFw0xNzA4MjMxMDUwNDFaFw0yNzA4MjExMDUwNDFa
MGoxCzAJBgNVBAgTAktBMQswCQYDVQQGEwJJTjEYMBYGA1UEAxQPZGVsaGlfMTlf
Y2xpZW50MSMwIQYJKoZIhvcNAQkBFhRkZWxoaV8xOUB0ZXN0X2NhLmNvbTEPMA0G
A1UEChMGQ0lUUklYMIIBIjANBgkqhkiG9w0BAQEFAAOCAQ8AMIIBCgKCAQEAn1BW
WhgGpWVhV9fOYuM+6Q5dcmFgbexre0Lqc0uFvJj3rOq2lDyU7IplLUKod8Yg+plM
yeDyFGitKA39AE+DnkNkOJKK7AVH0mnM/iR0kbusEYzvYhILRLZ6GlaVA54iYrTK
fzRpNyxHvWBFSpIQZsVzYdqrFr7Gj4pAW5Nyzyuo/y8Fi6Mn4N7RRQTyGL/EYze4
D7FhpshcshTnHIIYCYlFrnWF5Lva4a2oipQ+gEIBnWVN8VD0FVLBe47IyfdSs9wT
dKUXZKAWOUvtWspru4YNOzTz6bh82GYB0B5Rmmj2CkZ5EfjUEIIRq2UazQz8zrYW
OMqoL8wpVqFDbDBiqwIDAQABo4IBIzCCAR8wEQYJYIZIAYb4QgEBBAQDAgZAMB0G
A1UdDgQWBBTAB6BEqoLAnNiXYsmnD9YHeghsUDCBrAYDVR0jBIGkMIGhgBTXN1IB
3Cx6V4XKMDkw8NVdWjEDAqF+pHwwejETMBEGA1UEAxQKREVMSElDQV9DQTELMAkG
A1UEBhMCSU4xDzANBgNVBAoTBkNJVFJJWDEMMAoGA1UECxMDQU5HMQswCQYDVQQI
EwJLQTEqMCgGCSqGSIb3DQEJARYbREVMSElDQV9DQUBERUxISUNBX21haWwuY29t
ggkAlFncUU6lEycwPAYIKwYBBQUHAQEEMDAuMCwGCCsGAQUFBzABhiBodHRwOi8v
MTcyLjIwLjIwLjEvcmVzcG9uZGVycGF0aDANBgkqhkiG9w0BAQsFAAOCAQEADrmO
Z2o0h7MVeKwvfaQ78xjDfuantuYn8IR9/iWjP5aR7YIBE8aTSwXCtj7GEVeLpZpD
8WlkFBor0/DG/vPU+8UznVrprovpb0BwHMQ0IvQu4M7e8fAf8dSVq5tqHiZztMvr
7XH3Va8jaRxsJGL3pH8XivI/Mz6B/EYXKYPaCtSSBIrlJ4C/BIwzbKa43LCtISKv
p/pTC6RstHKNMiL7ghu8XBP+ZTdUaB5Rn86V1PKhh0I/vr1dZbnRGcXhMB4txTgu
hMkwJ4QCuxJg0Dlx1Mablb7yMnYUVfqiiyc4Aw6/50nXnqvxLNbvLNbEv7Wp76wo
1E/YXZxXqiXsdA/beA==
-----END CERTIFICATE-----
