Certificate:
    Data:
        Version: 3 (0x2)
        Serial Number: 11042563100224 (0xa0b0c0d0e40)
    Signature Algorithm: sha256WithRSAEncryption
        Issuer: CN=DELHICA_CA, C=IN, O=CITRIX, OU=ANG, ST=KA/emailAddress=DELHICA_CA@DELHICA_mail.com
        Validity
            Not Before: Aug 23 10:50:35 2017 GMT
            Not After : Aug 21 10:50:35 2027 GMT
        Subject: ST=KA, C=IN, CN=delhi_10_client/emailAddress=delhi_10@test_ca.com, O=CITRIX
        Subject Public Key Info:
            Public Key Algorithm: rsaEncryption
                Public-Key: (2048 bit)
                Modulus:
                    00:dc:82:ab:6a:0a:a7:c4:b8:b5:3a:f5:9a:c0:a4:
                    23:67:c7:ce:7c:96:5b:fa:51:87:ee:88:75:6e:3b:
                    41:3a:f0:52:95:ea:60:1c:4a:5b:b8:1e:e5:4d:99:
                    56:0a:84:72:aa:a5:7d:3e:e3:be:d8:3d:b8:63:da:
                    1a:5c:49:9c:cf:71:f1:d5:f4:e7:3e:a6:df:c6:a1:
                    cc:0b:cf:60:85:fa:a4:3a:ef:0f:ef:54:00:e8:5e:
                    60:db:21:52:c8:6c:c1:ae:f0:72:75:82:28:ba:51:
                    88:44:7e:f6:18:c2:e2:38:fd:ab:f3:81:89:65:f2:
                    c8:56:30:e4:e2:ce:66:51:1a:e3:10:70:7b:d3:bb:
                    d0:6d:85:41:96:b3:3b:f3:b6:98:ac:78:e7:1b:19:
                    01:db:d7:31:21:a3:e2:e3:43:02:4f:4a:21:4b:f2:
                    d4:de:82:e3:a1:77:29:a8:ca:9b:d7:1f:04:96:8d:
                    4c:6e:bb:70:e7:32:25:79:2d:e6:a2:29:e3:0b:f5:
                    d7:75:2f:3d:ad:e7:17:b1:29:63:c4:c2:14:9c:7d:
                    0d:ec:88:ff:eb:60:bd:03:c6:ac:cc:8f:ee:58:d3:
                    87:94:9a:02:96:1c:b5:54:5b:d4:6f:15:3e:87:b5:
                    f7:b3:79:54:08:ba:d0:00:99:f6:d8:6e:4c:bd:e2:
                    e3:a9
                Exponent: 65537 (0x10001)
        X509v3 extensions:
            Netscape Cert Type: 
                SSL Server
            X509v3 Subject Key Identifier: 
                5A:33:5D:A3:3D:C3:3F:F9:42:A0:86:00:0E:FD:6D:94:7A:5E:BD:CD
            X509v3 Authority Key Identifier: 
                keyid:D7:37:52:01:DC:2C:7A:57:85:CA:30:39:30:F0:D5:5D:5A:31:03:02
                DirName:/CN=DELHICA_CA/C=IN/O=CITRIX/OU=ANG/ST=KA/emailAddress=DELHICA_CA@DELHICA_mail.com
                serial:94:59:DC:51:4E:A5:13:27

            Authority Information Access: 
                OCSP - URI:http://172.20.20.1/responderpath

    Signature Algorithm: sha256WithRSAEncryption
         0e:7e:88:08:c6:e1:81:33:0e:b6:26:8a:40:e6:58:88:5e:9b:
         88:c4:a0:46:92:45:c7:8e:55:f9:fc:db:8d:93:6d:c2:69:10:
         eb:3c:c0:d2:84:32:a4:f7:73:b8:06:c1:62:45:4e:59:3c:b7:
         46:40:ad:2a:d4:6e:dd:a9:fa:60:06:a0:9e:30:f0:87:8e:c6:
         f7:5c:d2:53:83:1f:93:83:a7:b0:49:27:cb:67:1d:ca:5b:89:
         fb:4e:76:5e:36:51:df:4f:1f:ec:af:d4:68:83:68:82:86:cc:
         23:26:da:ac:8e:5d:58:a9:cf:73:4e:2a:8c:8d:16:41:4e:7d:
         f8:5b:b1:c4:6f:a7:15:f0:0b:86:71:f7:bc:dc:69:4d:ad:0e:
         c9:e9:bd:0f:d8:65:ae:a8:77:39:b2:90:cd:24:58:28:be:b6:
         d3:82:25:99:9c:69:a1:cd:a8:af:09:05:1b:a0:d6:14:38:c4:
         91:69:1a:13:ad:b5:41:38:55:63:5e:07:bb:8b:6e:82:b2:e9:
         e0:d3:1e:fc:88:ac:65:61:bd:30:9e:52:5d:80:36:74:44:21:
         23:b6:fd:2b:26:51:6d:2e:f4:66:00:00:7e:a5:de:0b:2b:89:
         15:19:e9:32:94:8c:b6:dc:2f:6d:bc:e4:b7:35:50:21:0d:81:
         0d:e5:0c:9a
-----BEGIN CERTIFICATE-----
MIIEiTCCA3GgAwIBAgIGCgsMDQ5AMA0GCSqGSIb3DQEBCwUAMHoxEzARBgNVBAMU
CkRFTEhJQ0FfQ0ExCzAJBgNVBAYTAklOMQ8wDQYDVQQKEwZDSVRSSVgxDDAKBgNV
BAsTA0FORzELMAkGA1UECBMCS0ExKjAoBgkqhkiG9w0BCQEWG0RFTEhJQ0FfQ0FA
REVMSElDQV9tYWlsLmNvbTAeFw0xNzA4MjMxMDUwMzVaFw0yNzA4MjExMDUwMzVa
MGoxCzAJBgNVBAgTAktBMQswCQYDVQQGEwJJTjEYMBYGA1UEAxQPZGVsaGlfMTBf
Y2xpZW50MSMwIQYJKoZIhvcNAQkBFhRkZWxoaV8xMEB0ZXN0X2NhLmNvbTEPMA0G
A1UEChMGQ0lUUklYMIIBIjANBgkqhkiG9w0BAQEFAAOCAQ8AMIIBCgKCAQEA3IKr
agqnxLi1OvWawKQjZ8fOfJZb+lGH7oh1bjtBOvBSlepgHEpbuB7lTZlWCoRyqqV9
PuO+2D24Y9oaXEmcz3Hx1fTnPqbfxqHMC89ghfqkOu8P71QA6F5g2yFSyGzBrvBy
dYIoulGIRH72GMLiOP2r84GJZfLIVjDk4s5mURrjEHB707vQbYVBlrM787aYrHjn
GxkB29cxIaPi40MCT0ohS/LU3oLjoXcpqMqb1x8Elo1Mbrtw5zIleS3moinjC/XX
dS89recXsSljxMIUnH0N7Ij/62C9A8aszI/uWNOHlJoClhy1VFvUbxU+h7X3s3lU
CLrQAJn22G5MveLjqQIDAQABo4IBIzCCAR8wEQYJYIZIAYb4QgEBBAQDAgZAMB0G
A1UdDgQWBBRaM12jPcM/+UKghgAO/W2Uel69zTCBrAYDVR0jBIGkMIGhgBTXN1IB
3Cx6V4XKMDkw8NVdWjEDAqF+pHwwejETMBEGA1UEAxQKREVMSElDQV9DQTELMAkG
A1UEBhMCSU4xDzANBgNVBAoTBkNJVFJJWDEMMAoGA1UECxMDQU5HMQswCQYDVQQI
EwJLQTEqMCgGCSqGSIb3DQEJARYbREVMSElDQV9DQUBERUxISUNBX21haWwuY29t
ggkAlFncUU6lEycwPAYIKwYBBQUHAQEEMDAuMCwGCCsGAQUFBzABhiBodHRwOi8v
MTcyLjIwLjIwLjEvcmVzcG9uZGVycGF0aDANBgkqhkiG9w0BAQsFAAOCAQEADn6I
CMbhgTMOtiaKQOZYiF6biMSgRpJFx45V+fzbjZNtwmkQ6zzA0oQypPdzuAbBYkVO
WTy3RkCtKtRu3an6YAagnjDwh47G91zSU4Mfk4OnsEkny2cdyluJ+052XjZR308f
7K/UaINogobMIybarI5dWKnPc04qjI0WQU59+FuxxG+nFfALhnH3vNxpTa0Oyem9
D9hlrqh3ObKQzSRYKL6204IlmZxpoc2orwkFG6DWFDjEkWkaE621QThVY14Hu4tu
grLp4NMe/IisZWG9MJ5SXYA2dEQhI7b9KyZRbS70ZgAAfqXeCyuJFRnpMpSMttwv
bbzktzVQIQ2BDeUMmg==
-----END CERTIFICATE-----
