Certificate:
    Data:
        Version: 3 (0x2)
        Serial Number: 11042563100220 (0xa0b0c0d0e3c)
    Signature Algorithm: sha256WithRSAEncryption
        Issuer: CN=DELHICA_CA, C=IN, O=CITRIX, OU=ANG, ST=KA/emailAddress=DELHICA_CA@DELHICA_mail.com
        Validity
            Not Before: Aug 23 10:50:33 2017 GMT
            Not After : Aug 21 10:50:33 2027 GMT
        Subject: ST=KA, C=IN, CN=delhi_6_client/emailAddress=delhi_6@test_ca.com, O=CITRIX
        Subject Public Key Info:
            Public Key Algorithm: rsaEncryption
                Public-Key: (2048 bit)
                Modulus:
                    00:b6:ee:57:ad:f4:f8:b2:da:0a:ef:b6:f5:d9:9d:
                    bf:72:cf:19:0e:0d:2e:a3:7e:5c:56:0d:5b:4b:ca:
                    22:6d:19:ca:aa:b3:ca:14:02:40:ca:da:7c:9b:1c:
                    ef:08:a7:71:b5:33:a4:30:c4:c6:e5:fa:74:0e:09:
                    70:ad:6d:54:45:2d:45:6e:16:56:c5:59:0c:81:16:
                    d1:ca:dc:2c:f2:1b:25:ae:b1:e6:63:2c:64:61:a9:
                    6c:04:5f:95:c6:42:2c:07:9b:66:6b:09:f7:73:a8:
                    5c:c9:6f:26:a1:bd:42:8c:16:17:45:0e:7f:64:39:
                    d0:3c:4a:f1:ba:71:2c:dd:af:2b:f7:ab:29:33:c2:
                    e0:b9:8e:a5:4d:8d:f5:f5:53:69:10:d1:8f:02:8b:
                    fe:e0:a1:b2:f5:18:c0:8b:d5:7d:06:72:56:c5:1e:
                    40:fa:f8:d1:37:72:2b:7b:54:48:93:12:59:41:31:
                    1e:46:b2:9d:82:0d:c3:48:f1:e5:1b:f5:06:6f:c8:
                    53:69:e3:45:74:41:19:80:b1:de:3e:b7:dc:64:45:
                    23:c3:bb:7b:38:8e:ec:77:16:03:ad:87:ee:ce:7c:
                    89:af:49:9b:87:1c:1e:71:b3:70:47:09:12:16:11:
                    c6:e3:c1:cd:d3:ea:dc:3a:da:87:c1:01:57:0c:ec:
                    d5:df
                Exponent: 65537 (0x10001)
        X509v3 extensions:
            Netscape Cert Type: 
                SSL Server
            X509v3 Subject Key Identifier: 
                29:51:AF:02:E0:0D:F6:99:A6:F6:50:7E:02:96:DD:81:9D:A3:9E:93
            X509v3 Authority Key Identifier: 
                keyid:D7:37:52:01:DC:2C:7A:57:85:CA:30:39:30:F0:D5:5D:5A:31:03:02
                DirName:/CN=DELHICA_CA/C=IN/O=CITRIX/OU=ANG/ST=KA/emailAddress=DELHICA_CA@DELHICA_mail.com
                serial:94:59:DC:51:4E:A5:13:27

            Authority Information Access: 
                OCSP - URI:http://172.20.20.1/responderpath

    Signature Algorithm: sha256WithRSAEncryption
         86:c7:6f:58:73:ae:3d:06:d4:22:34:03:13:69:cd:ba:87:61:
         70:54:12:59:55:9a:a2:52:f3:8d:d2:0a:ea:29:f4:5f:7d:f3:
         ce:bc:d1:67:4a:a8:e6:8b:c7:ea:61:20:24:61:42:28:c1:64:
         08:b8:f5:b2:b0:39:e2:85:dc:29:a8:9e:14:73:5b:0c:9f:af:
         32:f1:85:9d:f5:4c:88:99:df:91:38:e9:50:ff:69:25:2e:cf:
         05:90:1f:ba:84:00:a5:00:ad:0b:26:43:fa:80:e8:65:fe:b2:
         b6:8e:36:4e:70:14:05:76:ee:cf:6f:1e:4d:6b:32:c5:5e:1e:
         82:4b:94:ea:ae:68:ce:78:dc:06:4a:64:41:06:52:0f:9b:ac:
         d5:e4:dc:a7:bd:d7:f9:c6:42:06:4a:af:68:09:e0:6c:03:83:
         0e:ac:55:8b:85:07:bc:48:f1:05:6d:03:6e:59:06:7e:cb:34:
         d5:44:90:05:b3:dc:aa:ee:3e:30:dc:07:b3:a4:37:62:f0:12:
         d2:6b:47:4c:9e:9f:33:61:f1:d6:73:76:e3:bd:06:b9:f4:23:
         4c:64:c1:2f:20:06:d4:01:32:34:e9:46:d4:54:9b:d0:bc:4b:
         d6:f1:04:e2:d4:93:37:13:cc:14:8c:dc:bd:e0:53:4f:02:7a:
         20:b9:60:de
-----BEGIN CERTIFICATE-----
MIIEhzCCA2+gAwIBAgIGCgsMDQ48MA0GCSqGSIb3DQEBCwUAMHoxEzARBgNVBAMU
CkRFTEhJQ0FfQ0ExCzAJBgNVBAYTAklOMQ8wDQYDVQQKEwZDSVRSSVgxDDAKBgNV
BAsTA0FORzELMAkGA1UECBMCS0ExKjAoBgkqhkiG9w0BCQEWG0RFTEhJQ0FfQ0FA
REVMSElDQV9tYWlsLmNvbTAeFw0xNzA4MjMxMDUwMzNaFw0yNzA4MjExMDUwMzNa
MGgxCzAJBgNVBAgTAktBMQswCQYDVQQGEwJJTjEXMBUGA1UEAxQOZGVsaGlfNl9j
bGllbnQxIjAgBgkqhkiG9w0BCQEWE2RlbGhpXzZAdGVzdF9jYS5jb20xDzANBgNV
BAoTBkNJVFJJWDCCASIwDQYJKoZIhvcNAQEBBQADggEPADCCAQoCggEBALbuV630
+LLaCu+29dmdv3LPGQ4NLqN+XFYNW0vKIm0ZyqqzyhQCQMrafJsc7wincbUzpDDE
xuX6dA4JcK1tVEUtRW4WVsVZDIEW0crcLPIbJa6x5mMsZGGpbARflcZCLAebZmsJ
93OoXMlvJqG9QowWF0UOf2Q50DxK8bpxLN2vK/erKTPC4LmOpU2N9fVTaRDRjwKL
/uChsvUYwIvVfQZyVsUeQPr40TdyK3tUSJMSWUExHkaynYINw0jx5Rv1Bm/IU2nj
RXRBGYCx3j633GRFI8O7eziO7HcWA62H7s58ia9Jm4ccHnGzcEcJEhYRxuPBzdPq
3Drah8EBVwzs1d8CAwEAAaOCASMwggEfMBEGCWCGSAGG+EIBAQQEAwIGQDAdBgNV
HQ4EFgQUKVGvAuAN9pmm9lB+ApbdgZ2jnpMwgawGA1UdIwSBpDCBoYAU1zdSAdws
eleFyjA5MPDVXVoxAwKhfqR8MHoxEzARBgNVBAMUCkRFTEhJQ0FfQ0ExCzAJBgNV
BAYTAklOMQ8wDQYDVQQKEwZDSVRSSVgxDDAKBgNVBAsTA0FORzELMAkGA1UECBMC
S0ExKjAoBgkqhkiG9w0BCQEWG0RFTEhJQ0FfQ0FAREVMSElDQV9tYWlsLmNvbYIJ
AJRZ3FFOpRMnMDwGCCsGAQUFBwEBBDAwLjAsBggrBgEFBQcwAYYgaHR0cDovLzE3
Mi4yMC4yMC4xL3Jlc3BvbmRlcnBhdGgwDQYJKoZIhvcNAQELBQADggEBAIbHb1hz
rj0G1CI0AxNpzbqHYXBUEllVmqJS843SCuop9F9988680WdKqOaLx+phICRhQijB
ZAi49bKwOeKF3CmonhRzWwyfrzLxhZ31TIiZ35E46VD/aSUuzwWQH7qEAKUArQsm
Q/qA6GX+sraONk5wFAV27s9vHk1rMsVeHoJLlOquaM543AZKZEEGUg+brNXk3Ke9
1/nGQgZKr2gJ4GwDgw6sVYuFB7xI8QVtA25ZBn7LNNVEkAWz3KruPjDcB7OkN2Lw
EtJrR0yenzNh8dZzduO9Brn0I0xkwS8gBtQBMjTpRtRUm9C8S9bxBOLUkzcTzBSM
3L3gU08CeiC5YN4=
-----END CERTIFICATE-----
