Certificate:
    Data:
        Version: 3 (0x2)
        Serial Number: 11042563100258 (0xa0b0c0d0e62)
    Signature Algorithm: sha256WithRSAEncryption
        Issuer: CN=DELHICA_CA, C=IN, O=CITRIX, OU=ANG, ST=KA/emailAddress=DELHICA_CA@DELHICA_mail.com
        Validity
            Not Before: Aug 23 10:50:59 2017 GMT
            Not After : Aug 21 10:50:59 2027 GMT
        Subject: ST=KA, C=IN, CN=delhi_44_client/emailAddress=delhi_44@test_ca.com, O=CITRIX
        Subject Public Key Info:
            Public Key Algorithm: rsaEncryption
                Public-Key: (2048 bit)
                Modulus:
                    00:d4:46:fd:82:73:cc:e6:d4:c2:77:e4:00:0e:1d:
                    e6:e5:7c:73:a8:e4:d6:d8:b7:b4:cb:a2:ab:e2:6a:
                    fb:5a:3b:4f:9f:e2:7e:ff:4c:76:ab:9b:23:d1:1f:
                    5a:87:ff:64:33:aa:68:05:be:67:69:cd:94:3b:a6:
                    e8:19:44:ac:d4:66:58:17:d1:b7:5e:8c:77:c2:0d:
                    3c:a0:7d:d2:be:16:f5:e2:7f:bc:87:b5:7b:bf:3d:
                    f0:b9:8c:e2:ee:3c:47:85:c8:f6:07:2c:02:d9:88:
                    a0:10:ab:95:60:00:7f:27:fe:ad:0d:5f:17:41:c6:
                    d7:af:d4:dd:f1:8e:a5:18:08:61:32:6b:85:f3:87:
                    bc:b5:11:d0:28:39:3f:8a:4e:3e:34:37:07:d1:5b:
                    16:a3:cb:4e:c0:a9:e6:0c:25:39:38:5f:82:c7:c0:
                    dd:4f:9c:ab:6d:60:75:ba:67:33:aa:7b:ad:1d:ed:
                    1e:24:5b:6d:e0:45:89:dc:e0:2c:91:f1:b7:f1:97:
                    99:5d:5a:44:85:98:5e:61:c1:f6:38:44:89:eb:d2:
                    2e:dc:f9:0d:0a:5f:45:fd:bb:4d:99:b4:c2:df:d5:
                    33:fb:63:ea:2b:16:8e:8d:97:da:3f:62:ec:2c:e4:
                    7a:b5:b2:b9:6b:b0:66:6e:39:8a:97:70:3c:c3:e3:
                    7b:7b
                Exponent: 65537 (0x10001)
        X509v3 extensions:
            Netscape Cert Type: 
                SSL Server
            X509v3 Subject Key Identifier: 
                D0:EB:9E:96:54:04:5D:55:90:8A:B4:27:5F:14:AB:AB:00:63:E0:AF
            X509v3 Authority Key Identifier: 
                keyid:D7:37:52:01:DC:2C:7A:57:85:CA:30:39:30:F0:D5:5D:5A:31:03:02
                DirName:/CN=DELHICA_CA/C=IN/O=CITRIX/OU=ANG/ST=KA/emailAddress=DELHICA_CA@DELHICA_mail.com
                serial:94:59:DC:51:4E:A5:13:27

            Authority Information Access: 
                OCSP - URI:http://172.20.20.1/responderpath

    Signature Algorithm: sha256WithRSAEncryption
         7e:71:2f:b5:33:d5:5b:80:d1:13:16:03:3b:f1:77:80:bf:29:
         fd:08:ac:08:1f:1e:a2:3b:bf:3c:b4:76:9d:fc:0a:47:12:33:
         c9:4a:f1:61:e7:0b:1d:ef:32:b5:7a:7e:17:88:16:12:9d:5f:
         e0:bd:0e:8d:a5:a7:6d:70:02:6c:5c:e9:1a:f9:42:3a:d1:8d:
         69:60:a8:b6:66:58:62:d8:23:3b:d3:3b:08:ae:88:b5:98:c0:
         3f:64:ef:e3:e9:fc:7b:be:49:e0:00:f1:9b:17:a6:8d:32:a0:
         8f:ab:77:87:bc:31:e4:bd:eb:a1:60:09:42:83:44:42:50:ae:
         92:73:f7:75:cb:7b:f3:e6:a4:f7:ba:86:63:7b:f4:5f:8e:68:
         a7:9c:24:28:d2:e5:2d:20:f3:dd:1f:13:0a:f8:3a:3d:ff:c9:
         87:7a:3b:69:55:c1:40:88:0d:ec:ab:c7:4c:df:0a:8b:ae:2f:
         f4:79:5e:bc:91:4c:fc:79:5c:ef:11:11:c5:ed:05:0a:6f:ed:
         1d:f6:de:4c:c0:78:7b:71:f4:97:08:9a:58:2f:2c:9c:9f:90:
         aa:93:3a:18:9e:30:6b:c3:f5:70:c3:67:12:c6:53:7a:20:33:
         14:2c:e4:8c:5f:77:f8:38:12:43:28:f5:67:32:4a:57:b0:11:
         ed:98:ef:83
-----BEGIN CERTIFICATE-----
MIIEiTCCA3GgAwIBAgIGCgsMDQ5iMA0GCSqGSIb3DQEBCwUAMHoxEzARBgNVBAMU
CkRFTEhJQ0FfQ0ExCzAJBgNVBAYTAklOMQ8wDQYDVQQKEwZDSVRSSVgxDDAKBgNV
BAsTA0FORzELMAkGA1UECBMCS0ExKjAoBgkqhkiG9w0BCQEWG0RFTEhJQ0FfQ0FA
REVMSElDQV9tYWlsLmNvbTAeFw0xNzA4MjMxMDUwNTlaFw0yNzA4MjExMDUwNTla
MGoxCzAJBgNVBAgTAktBMQswCQYDVQQGEwJJTjEYMBYGA1UEAxQPZGVsaGlfNDRf
Y2xpZW50MSMwIQYJKoZIhvcNAQkBFhRkZWxoaV80NEB0ZXN0X2NhLmNvbTEPMA0G
A1UEChMGQ0lUUklYMIIBIjANBgkqhkiG9w0BAQEFAAOCAQ8AMIIBCgKCAQEA1Eb9
gnPM5tTCd+QADh3m5XxzqOTW2Le0y6Kr4mr7WjtPn+J+/0x2q5sj0R9ah/9kM6po
Bb5nac2UO6boGUSs1GZYF9G3Xox3wg08oH3Svhb14n+8h7V7vz3wuYzi7jxHhcj2
BywC2YigEKuVYAB/J/6tDV8XQcbXr9Td8Y6lGAhhMmuF84e8tRHQKDk/ik4+NDcH
0VsWo8tOwKnmDCU5OF+Cx8DdT5yrbWB1umczqnutHe0eJFtt4EWJ3OAskfG38ZeZ
XVpEhZheYcH2OESJ69Iu3PkNCl9F/btNmbTC39Uz+2PqKxaOjZfaP2LsLOR6tbK5
a7BmbjmKl3A8w+N7ewIDAQABo4IBIzCCAR8wEQYJYIZIAYb4QgEBBAQDAgZAMB0G
A1UdDgQWBBTQ656WVARdVZCKtCdfFKurAGPgrzCBrAYDVR0jBIGkMIGhgBTXN1IB
3Cx6V4XKMDkw8NVdWjEDAqF+pHwwejETMBEGA1UEAxQKREVMSElDQV9DQTELMAkG
A1UEBhMCSU4xDzANBgNVBAoTBkNJVFJJWDEMMAoGA1UECxMDQU5HMQswCQYDVQQI
EwJLQTEqMCgGCSqGSIb3DQEJARYbREVMSElDQV9DQUBERUxISUNBX21haWwuY29t
ggkAlFncUU6lEycwPAYIKwYBBQUHAQEEMDAuMCwGCCsGAQUFBzABhiBodHRwOi8v
MTcyLjIwLjIwLjEvcmVzcG9uZGVycGF0aDANBgkqhkiG9w0BAQsFAAOCAQEAfnEv
tTPVW4DRExYDO/F3gL8p/QisCB8eoju/PLR2nfwKRxIzyUrxYecLHe8ytXp+F4gW
Ep1f4L0OjaWnbXACbFzpGvlCOtGNaWCotmZYYtgjO9M7CK6ItZjAP2Tv4+n8e75J
4ADxmxemjTKgj6t3h7wx5L3roWAJQoNEQlCuknP3dct78+ak97qGY3v0X45op5wk
KNLlLSDz3R8TCvg6Pf/Jh3o7aVXBQIgN7KvHTN8Ki64v9HlevJFM/Hlc7xERxe0F
Cm/tHfbeTMB4e3H0lwiaWC8snJ+QqpM6GJ4wa8P1cMNnEsZTeiAzFCzkjF93+DgS
Qyj1ZzJKV7AR7Zjvgw==
-----END CERTIFICATE-----
