Certificate:
    Data:
        Version: 3 (0x2)
        Serial Number: 11042563100230 (0xa0b0c0d0e46)
    Signature Algorithm: sha256WithRSAEncryption
        Issuer: CN=DELHICA_CA, C=IN, O=CITRIX, OU=ANG, ST=KA/emailAddress=DELHICA_CA@DELHICA_mail.com
        Validity
            Not Before: Aug 23 10:50:40 2017 GMT
            Not After : Aug 21 10:50:40 2027 GMT
        Subject: ST=KA, C=IN, CN=delhi_16_client/emailAddress=delhi_16@test_ca.com, O=CITRIX
        Subject Public Key Info:
            Public Key Algorithm: rsaEncryption
                Public-Key: (2048 bit)
                Modulus:
                    00:c4:f8:5b:5e:53:99:22:ef:7d:1d:41:4e:10:aa:
                    d8:7e:a0:28:4d:67:88:19:95:9f:43:1e:4c:30:b1:
                    77:09:e6:64:9d:34:37:17:6e:13:02:04:7d:4d:40:
                    a0:f0:47:07:c4:2a:20:2d:eb:4e:bc:08:13:ae:67:
                    70:46:b7:a1:59:58:12:a7:b5:fe:6a:27:c4:ae:56:
                    a1:43:61:cf:b2:ef:43:9a:0e:02:8f:ad:4d:0c:43:
                    17:02:2d:e2:23:02:45:e5:13:2f:b9:98:50:d3:89:
                    e8:cf:ef:98:52:c2:75:58:94:d7:72:65:9f:ca:a1:
                    2f:7f:bd:1e:b3:a5:2f:76:e0:5b:f2:f8:e7:58:10:
                    43:0c:9e:07:66:b7:84:e3:90:a6:1c:cf:2e:44:59:
                    49:53:16:2e:ad:84:42:80:2d:7e:04:65:8f:46:5f:
                    b0:96:fc:37:bf:81:24:d3:ac:69:ca:53:90:6e:f0:
                    67:64:f8:05:e0:76:a0:fa:5a:f7:cf:8c:8b:45:c3:
                    03:2a:b9:ed:38:5d:65:56:77:e4:1b:03:f0:81:dc:
                    b9:bb:93:2e:47:25:4f:2b:79:51:05:d8:5e:11:d4:
                    9e:25:e8:b3:f1:f9:bf:76:c5:95:6d:92:62:6f:33:
                    e6:9d:3d:43:fa:ac:d0:4c:3c:fd:1d:7e:54:45:13:
                    8f:2b
                Exponent: 65537 (0x10001)
        X509v3 extensions:
            Netscape Cert Type: 
                SSL Server
            X509v3 Subject Key Identifier: 
                B2:DD:E1:39:F3:57:0C:A9:04:83:65:F5:26:15:90:1B:3B:AC:7E:FD
            X509v3 Authority Key Identifier: 
                keyid:D7:37:52:01:DC:2C:7A:57:85:CA:30:39:30:F0:D5:5D:5A:31:03:02
                DirName:/CN=DELHICA_CA/C=IN/O=CITRIX/OU=ANG/ST=KA/emailAddress=DELHICA_CA@DELHICA_mail.com
                serial:94:59:DC:51:4E:A5:13:27

            Authority Information Access: 
                OCSP - URI:http://172.20.20.1/responderpath

    Signature Algorithm: sha256WithRSAEncryption
         02:cb:09:95:bb:48:30:29:00:f1:f0:b9:43:f0:b3:55:0e:17:
         ce:2a:20:44:91:aa:47:c3:08:f4:41:de:61:9c:3e:b2:ac:ef:
         f1:9e:05:1e:24:2b:bf:27:39:a8:e7:68:74:54:b5:e0:69:c0:
         88:53:7a:d1:2b:e7:13:91:f3:5c:ec:7f:f3:15:b5:fd:57:42:
         d5:36:d2:78:e8:64:a5:ef:2d:f2:aa:f1:7d:a4:3d:44:15:77:
         d8:cc:87:81:80:08:7a:a9:e2:63:79:66:d0:c1:40:b0:57:79:
         b1:ce:34:0b:d4:a0:63:39:83:c2:0c:ed:83:3d:a2:bf:df:fc:
         fd:e4:b9:99:df:57:73:35:50:c1:59:5e:e1:9f:f0:a2:fa:98:
         50:6d:45:1a:60:4c:f5:21:c0:97:69:05:3c:95:76:f6:35:d5:
         99:5d:5f:b5:3f:20:d0:db:9c:9b:40:f6:d7:36:30:71:87:dc:
         42:fe:a1:f8:5b:ad:32:09:4c:24:c3:20:69:6c:c8:bf:57:0c:
         44:28:b8:b3:2d:c6:04:4b:cd:d1:8e:aa:2c:83:32:e8:a3:71:
         54:84:57:78:cb:9c:cf:64:42:ad:8a:97:4c:b6:07:2d:31:4f:
         00:34:07:c3:93:ef:67:61:c6:dd:d3:0b:4a:98:8f:ec:4a:e7:
         cd:34:8c:48
-----BEGIN CERTIFICATE-----
MIIEiTCCA3GgAwIBAgIGCgsMDQ5GMA0GCSqGSIb3DQEBCwUAMHoxEzARBgNVBAMU
CkRFTEhJQ0FfQ0ExCzAJBgNVBAYTAklOMQ8wDQYDVQQKEwZDSVRSSVgxDDAKBgNV
BAsTA0FORzELMAkGA1UECBMCS0ExKjAoBgkqhkiG9w0BCQEWG0RFTEhJQ0FfQ0FA
REVMSElDQV9tYWlsLmNvbTAeFw0xNzA4MjMxMDUwNDBaFw0yNzA4MjExMDUwNDBa
MGoxCzAJBgNVBAgTAktBMQswCQYDVQQGEwJJTjEYMBYGA1UEAxQPZGVsaGlfMTZf
Y2xpZW50MSMwIQYJKoZIhvcNAQkBFhRkZWxoaV8xNkB0ZXN0X2NhLmNvbTEPMA0G
A1UEChMGQ0lUUklYMIIBIjANBgkqhkiG9w0BAQEFAAOCAQ8AMIIBCgKCAQEAxPhb
XlOZIu99HUFOEKrYfqAoTWeIGZWfQx5MMLF3CeZknTQ3F24TAgR9TUCg8EcHxCog
LetOvAgTrmdwRrehWVgSp7X+aifErlahQ2HPsu9Dmg4Cj61NDEMXAi3iIwJF5RMv
uZhQ04noz++YUsJ1WJTXcmWfyqEvf70es6UvduBb8vjnWBBDDJ4HZreE45CmHM8u
RFlJUxYurYRCgC1+BGWPRl+wlvw3v4Ek06xpylOQbvBnZPgF4Hag+lr3z4yLRcMD
KrntOF1lVnfkGwPwgdy5u5MuRyVPK3lRBdheEdSeJeiz8fm/dsWVbZJibzPmnT1D
+qzQTDz9HX5URROPKwIDAQABo4IBIzCCAR8wEQYJYIZIAYb4QgEBBAQDAgZAMB0G
A1UdDgQWBBSy3eE581cMqQSDZfUmFZAbO6x+/TCBrAYDVR0jBIGkMIGhgBTXN1IB
3Cx6V4XKMDkw8NVdWjEDAqF+pHwwejETMBEGA1UEAxQKREVMSElDQV9DQTELMAkG
A1UEBhMCSU4xDzANBgNVBAoTBkNJVFJJWDEMMAoGA1UECxMDQU5HMQswCQYDVQQI
EwJLQTEqMCgGCSqGSIb3DQEJARYbREVMSElDQV9DQUBERUxISUNBX21haWwuY29t
ggkAlFncUU6lEycwPAYIKwYBBQUHAQEEMDAuMCwGCCsGAQUFBzABhiBodHRwOi8v
MTcyLjIwLjIwLjEvcmVzcG9uZGVycGF0aDANBgkqhkiG9w0BAQsFAAOCAQEAAssJ
lbtIMCkA8fC5Q/CzVQ4XziogRJGqR8MI9EHeYZw+sqzv8Z4FHiQrvyc5qOdodFS1
4GnAiFN60SvnE5HzXOx/8xW1/VdC1TbSeOhkpe8t8qrxfaQ9RBV32MyHgYAIeqni
Y3lm0MFAsFd5sc40C9SgYzmDwgztgz2iv9/8/eS5md9XczVQwVle4Z/wovqYUG1F
GmBM9SHAl2kFPJV29jXVmV1ftT8g0Nucm0D21zYwcYfcQv6h+FutMglMJMMgaWzI
v1cMRCi4sy3GBEvN0Y6qLIMy6KNxVIRXeMucz2RCrYqXTLYHLTFPADQHw5PvZ2HG
3dMLSpiP7ErnzTSMSA==
-----END CERTIFICATE-----
