Certificate:
    Data:
        Version: 3 (0x2)
        Serial Number: 11042563100226 (0xa0b0c0d0e42)
    Signature Algorithm: sha256WithRSAEncryption
        Issuer: CN=DELHICA_CA, C=IN, O=CITRIX, OU=ANG, ST=KA/emailAddress=DELHICA_CA@DELHICA_mail.com
        Validity
            Not Before: Aug 23 10:50:36 2017 GMT
            Not After : Aug 21 10:50:36 2027 GMT
        Subject: ST=KA, C=IN, CN=delhi_12_client/emailAddress=delhi_12@test_ca.com, O=CITRIX
        Subject Public Key Info:
            Public Key Algorithm: rsaEncryption
                Public-Key: (2048 bit)
                Modulus:
                    00:d5:ec:3a:29:e8:2b:b2:90:78:d0:6a:7e:f3:d5:
                    19:fd:d7:71:82:33:72:2b:e8:e9:cd:f4:77:34:52:
                    39:1e:b8:ae:97:48:b2:05:2d:15:e9:95:36:94:2c:
                    b3:b5:36:e5:91:5e:a6:cd:85:45:5a:62:3f:1f:1f:
                    c2:0d:86:19:a6:68:d4:5f:c4:28:4b:db:08:df:78:
                    c0:ff:43:0b:4d:a9:80:3b:dd:75:8a:66:07:84:0b:
                    6b:44:3d:89:ac:51:e9:ff:e5:1d:83:88:65:9f:49:
                    08:55:8f:da:3b:a1:76:d8:91:03:95:3c:b8:e6:75:
                    c8:ff:91:b5:ef:51:33:42:04:01:48:b9:98:c5:d3:
                    f2:89:ee:af:ec:59:d3:12:85:18:ad:7b:f1:4a:96:
                    2b:ca:28:91:b2:6c:a8:58:cc:db:34:36:36:3b:65:
                    85:7f:6c:38:24:c1:94:ab:12:88:bf:fd:d0:c9:a7:
                    82:99:5a:d2:a6:1c:17:61:2f:bf:7d:ef:13:a9:fe:
                    83:f8:19:05:64:95:0c:29:33:3b:4f:32:a9:79:e5:
                    bd:5b:1b:2a:7c:cf:6a:75:45:ba:87:9d:55:dd:cc:
                    f2:ab:77:09:9d:61:7b:23:08:28:39:a9:cf:54:f9:
                    6e:cf:0f:22:95:05:9e:11:f1:0f:5a:b5:8b:bd:a5:
                    03:79
                Exponent: 65537 (0x10001)
        X509v3 extensions:
            Netscape Cert Type: 
                SSL Server
            X509v3 Subject Key Identifier: 
                EB:A3:18:57:1C:CF:15:A8:1F:AC:03:42:30:E0:52:9F:69:DE:69:99
            X509v3 Authority Key Identifier: 
                keyid:D7:37:52:01:DC:2C:7A:57:85:CA:30:39:30:F0:D5:5D:5A:31:03:02
                DirName:/CN=DELHICA_CA/C=IN/O=CITRIX/OU=ANG/ST=KA/emailAddress=DELHICA_CA@DELHICA_mail.com
                serial:94:59:DC:51:4E:A5:13:27

            Authority Information Access: 
                OCSP - URI:http://172.20.20.1/responderpath

    Signature Algorithm: sha256WithRSAEncryption
         83:85:60:22:ec:b2:4f:e1:e7:17:bc:bc:ec:82:65:d3:5f:ee:
         b9:56:2b:3a:8b:ba:55:3b:bd:bc:32:18:51:0c:12:5f:3e:3e:
         84:c0:75:32:c3:9f:f5:34:33:9e:3a:19:eb:04:c4:b1:69:f0:
         f0:aa:19:03:3f:be:98:70:81:a4:e6:7b:6b:8e:b9:4c:c4:52:
         e1:e6:66:bd:96:85:6c:d9:65:7c:b1:d7:61:8a:cf:1b:e4:b2:
         60:b4:8b:33:20:b3:82:9d:18:03:07:a4:a4:a7:cc:aa:6e:c1:
         1a:a6:b7:57:82:b6:04:cc:e7:ac:63:69:10:2f:65:08:e9:fd:
         04:22:d6:2f:3b:18:b8:48:de:ce:77:88:25:c7:ab:bd:5c:35:
         81:02:fb:6e:21:e5:14:e1:4b:cc:49:96:9d:9b:75:60:dc:82:
         bd:af:6e:36:65:88:4b:4b:3c:92:39:28:0e:96:7c:f3:93:6a:
         2c:62:9b:40:fd:e0:53:76:ab:1b:af:2f:b8:c7:03:f7:3f:63:
         a4:ad:fc:8a:5b:32:ab:49:38:a4:2f:bb:e9:7b:d8:10:51:db:
         c5:68:6b:15:f6:d2:0d:75:d3:6a:50:73:7e:9f:18:17:e1:db:
         36:a1:8c:fa:e2:60:3a:1e:49:f2:45:37:be:de:01:db:d0:6b:
         3c:53:82:9c
-----BEGIN CERTIFICATE-----
MIIEiTCCA3GgAwIBAgIGCgsMDQ5CMA0GCSqGSIb3DQEBCwUAMHoxEzARBgNVBAMU
CkRFTEhJQ0FfQ0ExCzAJBgNVBAYTAklOMQ8wDQYDVQQKEwZDSVRSSVgxDDAKBgNV
BAsTA0FORzELMAkGA1UECBMCS0ExKjAoBgkqhkiG9w0BCQEWG0RFTEhJQ0FfQ0FA
REVMSElDQV9tYWlsLmNvbTAeFw0xNzA4MjMxMDUwMzZaFw0yNzA4MjExMDUwMzZa
MGoxCzAJBgNVBAgTAktBMQswCQYDVQQGEwJJTjEYMBYGA1UEAxQPZGVsaGlfMTJf
Y2xpZW50MSMwIQYJKoZIhvcNAQkBFhRkZWxoaV8xMkB0ZXN0X2NhLmNvbTEPMA0G
A1UEChMGQ0lUUklYMIIBIjANBgkqhkiG9w0BAQEFAAOCAQ8AMIIBCgKCAQEA1ew6
KegrspB40Gp+89UZ/ddxgjNyK+jpzfR3NFI5Hriul0iyBS0V6ZU2lCyztTblkV6m
zYVFWmI/Hx/CDYYZpmjUX8QoS9sI33jA/0MLTamAO911imYHhAtrRD2JrFHp/+Ud
g4hln0kIVY/aO6F22JEDlTy45nXI/5G171EzQgQBSLmYxdPyie6v7FnTEoUYrXvx
SpYryiiRsmyoWMzbNDY2O2WFf2w4JMGUqxKIv/3QyaeCmVrSphwXYS+/fe8Tqf6D
+BkFZJUMKTM7TzKpeeW9WxsqfM9qdUW6h51V3czyq3cJnWF7IwgoOanPVPluzw8i
lQWeEfEPWrWLvaUDeQIDAQABo4IBIzCCAR8wEQYJYIZIAYb4QgEBBAQDAgZAMB0G
A1UdDgQWBBTroxhXHM8VqB+sA0Iw4FKfad5pmTCBrAYDVR0jBIGkMIGhgBTXN1IB
3Cx6V4XKMDkw8NVdWjEDAqF+pHwwejETMBEGA1UEAxQKREVMSElDQV9DQTELMAkG
A1UEBhMCSU4xDzANBgNVBAoTBkNJVFJJWDEMMAoGA1UECxMDQU5HMQswCQYDVQQI
EwJLQTEqMCgGCSqGSIb3DQEJARYbREVMSElDQV9DQUBERUxISUNBX21haWwuY29t
ggkAlFncUU6lEycwPAYIKwYBBQUHAQEEMDAuMCwGCCsGAQUFBzABhiBodHRwOi8v
MTcyLjIwLjIwLjEvcmVzcG9uZGVycGF0aDANBgkqhkiG9w0BAQsFAAOCAQEAg4Vg
IuyyT+HnF7y87IJl01/uuVYrOou6VTu9vDIYUQwSXz4+hMB1MsOf9TQznjoZ6wTE
sWnw8KoZAz++mHCBpOZ7a465TMRS4eZmvZaFbNllfLHXYYrPG+SyYLSLMyCzgp0Y
AwekpKfMqm7BGqa3V4K2BMznrGNpEC9lCOn9BCLWLzsYuEjezneIJcervVw1gQL7
biHlFOFLzEmWnZt1YNyCva9uNmWIS0s8kjkoDpZ885NqLGKbQP3gU3arG68vuMcD
9z9jpK38ilsyq0k4pC+76XvYEFHbxWhrFfbSDXXTalBzfp8YF+HbNqGM+uJgOh5J
8kU3vt4B29BrPFOCnA==
-----END CERTIFICATE-----
