Certificate:
    Data:
        Version: 3 (0x2)
        Serial Number: 11042563100232 (0xa0b0c0d0e48)
    Signature Algorithm: sha256WithRSAEncryption
        Issuer: CN=DELHICA_CA, C=IN, O=CITRIX, OU=ANG, ST=KA/emailAddress=DELHICA_CA@DELHICA_mail.com
        Validity
            Not Before: Aug 23 10:50:41 2017 GMT
            Not After : Aug 21 10:50:41 2027 GMT
        Subject: ST=KA, C=IN, CN=delhi_18_client/emailAddress=delhi_18@test_ca.com, O=CITRIX
        Subject Public Key Info:
            Public Key Algorithm: rsaEncryption
                Public-Key: (2048 bit)
                Modulus:
                    00:a6:30:02:60:08:17:3e:e7:c3:09:e6:cc:8e:ec:
                    f7:44:51:08:d6:1b:54:9f:29:a8:cb:7c:8a:89:c0:
                    eb:f6:20:e0:2a:09:83:ba:2e:58:f4:02:51:8e:1b:
                    8d:ba:5f:25:f8:0b:21:fc:ce:07:8d:96:35:3b:74:
                    c3:71:1e:c8:0f:56:54:47:61:07:94:2a:f9:49:b4:
                    54:7d:fe:73:37:6f:90:02:fe:b5:68:95:27:42:64:
                    75:ee:8d:bf:84:75:b7:80:16:03:9f:c0:b0:d3:e1:
                    d7:6a:3a:b2:6e:09:a5:0e:67:09:b0:25:36:ce:2c:
                    f5:99:7b:fc:e8:fa:8e:10:59:91:8c:57:1d:34:3f:
                    da:c5:42:8e:fc:52:6c:78:d4:c5:a5:60:6a:24:5a:
                    f2:db:c6:b5:dd:66:6e:bd:61:06:c0:57:a8:5d:fb:
                    ed:6b:0b:81:b5:05:61:f1:83:69:1f:27:09:e2:79:
                    f5:a1:31:b2:a3:d0:68:63:a9:61:aa:8f:8c:75:85:
                    91:42:54:67:28:d7:35:99:c3:af:28:e9:71:6b:3e:
                    8e:ae:a5:45:85:2c:17:de:33:76:8d:47:30:c2:e3:
                    31:ba:af:da:87:97:ec:3d:6e:48:37:cd:34:c5:af:
                    b1:c0:78:8b:cc:61:73:60:6e:49:5a:72:19:71:fa:
                    e3:a1
                Exponent: 65537 (0x10001)
        X509v3 extensions:
            Netscape Cert Type: 
                SSL Server
            X509v3 Subject Key Identifier: 
                F6:DA:2E:93:F9:A9:6D:32:7F:B0:89:64:82:A5:66:D6:56:2A:0A:4E
            X509v3 Authority Key Identifier: 
                keyid:D7:37:52:01:DC:2C:7A:57:85:CA:30:39:30:F0:D5:5D:5A:31:03:02
                DirName:/CN=DELHICA_CA/C=IN/O=CITRIX/OU=ANG/ST=KA/emailAddress=DELHICA_CA@DELHICA_mail.com
                serial:94:59:DC:51:4E:A5:13:27

            Authority Information Access: 
                OCSP - URI:http://172.20.20.1/responderpath

    Signature Algorithm: sha256WithRSAEncryption
         d4:a1:02:7f:86:f0:6c:0b:ea:28:15:95:5c:50:b8:61:7c:88:
         43:33:a8:de:d0:63:be:7a:41:f1:ec:d9:e9:b5:68:92:c5:c0:
         5f:ac:7e:a0:14:d6:f6:bd:c0:b7:22:2f:12:63:3d:5b:b8:9a:
         72:7e:fd:62:b0:8a:0e:8f:15:31:e0:94:cb:32:82:02:3b:4c:
         9d:f9:02:c4:9b:85:67:ea:ec:67:92:a0:21:c7:d9:dc:c3:25:
         da:4f:50:12:93:35:bc:9d:42:b9:4f:65:2d:de:7c:55:e8:29:
         30:c1:40:f8:04:ea:3c:e9:b8:d3:32:20:c2:18:97:1f:56:05:
         5c:3a:d3:31:cb:d1:be:bf:95:b0:f3:0c:cf:2e:9d:1f:d6:ae:
         a2:27:03:64:70:74:7c:9c:bd:12:46:68:c9:66:e8:36:66:84:
         fa:6d:ad:66:19:2b:c7:4d:d8:8b:a7:c4:5f:4d:b9:cd:fb:c5:
         9a:4c:a8:9a:fe:0c:71:26:81:ce:74:fe:f8:6c:55:ea:de:5e:
         b7:ed:db:4e:13:bb:86:b4:15:b7:3e:f3:22:30:91:d6:99:07:
         64:da:d6:75:5b:16:09:67:10:b5:61:54:0c:f2:63:c6:2a:25:
         55:be:9f:b7:73:02:46:92:65:75:ac:70:70:3d:43:6b:8b:2e:
         21:2e:df:cf
-----BEGIN CERTIFICATE-----
MIIEiTCCA3GgAwIBAgIGCgsMDQ5IMA0GCSqGSIb3DQEBCwUAMHoxEzARBgNVBAMU
CkRFTEhJQ0FfQ0ExCzAJBgNVBAYTAklOMQ8wDQYDVQQKEwZDSVRSSVgxDDAKBgNV
BAsTA0FORzELMAkGA1UECBMCS0ExKjAoBgkqhkiG9w0BCQEWG0RFTEhJQ0FfQ0FA
REVMSElDQV9tYWlsLmNvbTAeFw0xNzA4MjMxMDUwNDFaFw0yNzA4MjExMDUwNDFa
MGoxCzAJBgNVBAgTAktBMQswCQYDVQQGEwJJTjEYMBYGA1UEAxQPZGVsaGlfMThf
Y2xpZW50MSMwIQYJKoZIhvcNAQkBFhRkZWxoaV8xOEB0ZXN0X2NhLmNvbTEPMA0G
A1UEChMGQ0lUUklYMIIBIjANBgkqhkiG9w0BAQEFAAOCAQ8AMIIBCgKCAQEApjAC
YAgXPufDCebMjuz3RFEI1htUnymoy3yKicDr9iDgKgmDui5Y9AJRjhuNul8l+Ash
/M4HjZY1O3TDcR7ID1ZUR2EHlCr5SbRUff5zN2+QAv61aJUnQmR17o2/hHW3gBYD
n8Cw0+HXajqybgmlDmcJsCU2ziz1mXv86PqOEFmRjFcdND/axUKO/FJseNTFpWBq
JFry28a13WZuvWEGwFeoXfvtawuBtQVh8YNpHycJ4nn1oTGyo9BoY6lhqo+MdYWR
QlRnKNc1mcOvKOlxaz6OrqVFhSwX3jN2jUcwwuMxuq/ah5fsPW5IN800xa+xwHiL
zGFzYG5JWnIZcfrjoQIDAQABo4IBIzCCAR8wEQYJYIZIAYb4QgEBBAQDAgZAMB0G
A1UdDgQWBBT22i6T+altMn+wiWSCpWbWVioKTjCBrAYDVR0jBIGkMIGhgBTXN1IB
3Cx6V4XKMDkw8NVdWjEDAqF+pHwwejETMBEGA1UEAxQKREVMSElDQV9DQTELMAkG
A1UEBhMCSU4xDzANBgNVBAoTBkNJVFJJWDEMMAoGA1UECxMDQU5HMQswCQYDVQQI
EwJLQTEqMCgGCSqGSIb3DQEJARYbREVMSElDQV9DQUBERUxISUNBX21haWwuY29t
ggkAlFncUU6lEycwPAYIKwYBBQUHAQEEMDAuMCwGCCsGAQUFBzABhiBodHRwOi8v
MTcyLjIwLjIwLjEvcmVzcG9uZGVycGF0aDANBgkqhkiG9w0BAQsFAAOCAQEA1KEC
f4bwbAvqKBWVXFC4YXyIQzOo3tBjvnpB8ezZ6bVoksXAX6x+oBTW9r3AtyIvEmM9
W7iacn79YrCKDo8VMeCUyzKCAjtMnfkCxJuFZ+rsZ5KgIcfZ3MMl2k9QEpM1vJ1C
uU9lLd58VegpMMFA+ATqPOm40zIgwhiXH1YFXDrTMcvRvr+VsPMMzy6dH9auoicD
ZHB0fJy9EkZoyWboNmaE+m2tZhkrx03Yi6fEX025zfvFmkyomv4McSaBznT++GxV
6t5et+3bThO7hrQVtz7zIjCR1pkHZNrWdVsWCWcQtWFUDPJjxiolVb6ft3MCRpJl
daxwcD1Da4suIS7fzw==
-----END CERTIFICATE-----
