Certificate:
    Data:
        Version: 3 (0x2)
        Serial Number: 11042563100216 (0xa0b0c0d0e38)
    Signature Algorithm: sha256WithRSAEncryption
        Issuer: CN=DELHICA_CA, C=IN, O=CITRIX, OU=ANG, ST=KA/emailAddress=DELHICA_CA@DELHICA_mail.com
        Validity
            Not Before: Aug 23 10:50:31 2017 GMT
            Not After : Aug 21 10:50:31 2027 GMT
        Subject: ST=KA, C=IN, CN=delhi_2_client/emailAddress=delhi_2@test_ca.com, O=CITRIX
        Subject Public Key Info:
            Public Key Algorithm: rsaEncryption
                Public-Key: (2048 bit)
                Modulus:
                    00:bb:4c:24:2e:4a:e9:3b:71:6e:cc:cb:85:36:b6:
                    66:84:31:20:cb:da:61:73:76:10:8b:33:19:9d:f5:
                    a8:cf:19:9f:60:b2:06:06:67:77:60:9f:c8:77:aa:
                    b1:2e:0f:e3:15:7d:a5:4a:96:30:f4:26:f0:f2:8d:
                    17:90:65:44:9a:2c:4e:b7:91:62:60:5f:2c:af:c3:
                    24:1e:65:71:40:63:37:f8:c0:f3:60:6a:30:76:09:
                    0e:42:5d:a7:9c:74:95:8f:03:f8:c1:7b:cc:9f:1c:
                    cf:c2:21:d3:64:c8:94:8e:44:71:7a:3f:f4:6b:aa:
                    09:5e:55:8a:e3:2f:3b:1c:48:d5:bd:d3:85:3f:61:
                    b3:54:f7:62:e6:86:4e:78:24:6c:d8:e1:b6:ca:c8:
                    32:e0:ce:24:06:18:3e:f3:09:f1:27:be:8e:e0:b3:
                    c3:06:cd:b4:e8:f4:cd:c6:4f:c8:6e:56:79:a1:97:
                    2f:f6:f0:d9:c4:cd:c6:b1:41:02:0a:27:48:77:ad:
                    a7:55:0d:ec:73:86:63:49:84:a9:a0:5f:00:5d:c1:
                    d7:45:66:6c:1a:d8:9d:15:24:65:e9:74:40:35:66:
                    10:1d:6e:99:c5:9a:34:0d:90:31:35:e8:09:20:a3:
                    d8:bf:f1:df:3c:46:8c:6b:79:6e:42:29:da:6f:3c:
                    ce:f5
                Exponent: 65537 (0x10001)
        X509v3 extensions:
            Netscape Cert Type: 
                SSL Server
            X509v3 Subject Key Identifier: 
                01:DA:A8:42:B4:28:C0:B6:6B:71:E7:31:12:A5:20:95:EC:03:B5:AD
            X509v3 Authority Key Identifier: 
                keyid:D7:37:52:01:DC:2C:7A:57:85:CA:30:39:30:F0:D5:5D:5A:31:03:02
                DirName:/CN=DELHICA_CA/C=IN/O=CITRIX/OU=ANG/ST=KA/emailAddress=DELHICA_CA@DELHICA_mail.com
                serial:94:59:DC:51:4E:A5:13:27

            Authority Information Access: 
                OCSP - URI:http://172.20.20.1/responderpath

    Signature Algorithm: sha256WithRSAEncryption
         3c:f5:7f:7f:82:e4:74:e7:fa:86:3d:fa:a4:b5:63:9d:4d:7d:
         5d:e4:32:ec:9a:06:8e:e9:b4:76:f2:92:c4:4f:f5:07:f4:c1:
         ca:30:ad:cb:8d:75:35:e5:e1:f9:3c:99:91:c5:1e:ab:95:1a:
         f5:4f:f0:a4:46:80:d6:f7:c4:59:70:87:f0:09:03:7f:59:c7:
         c9:f9:4b:93:46:0f:3c:c9:2f:84:01:24:ec:e2:de:46:f2:f9:
         ce:c5:17:2c:ec:5f:61:75:34:9e:ad:27:9e:3e:9f:23:ea:be:
         b4:cd:e8:e3:4d:12:ed:30:85:67:27:50:35:e1:eb:1b:d3:06:
         6c:87:42:7d:8b:ec:0b:05:61:7b:84:c6:f5:88:99:7f:c2:eb:
         51:72:9b:0e:d6:ee:30:07:53:bd:62:1e:c6:1a:00:67:eb:89:
         2d:c3:5c:7c:93:f8:c3:db:7f:6f:cc:8b:71:f2:31:48:31:1d:
         2a:fd:fd:0c:d5:91:ed:4c:39:87:93:12:1e:9c:61:95:7e:84:
         7e:61:61:91:64:c9:f2:e4:7f:c6:12:31:ce:4b:ee:15:8f:ed:
         33:c6:cb:e2:4b:7d:a5:f7:a2:d0:15:d8:ed:9f:90:fc:a9:ac:
         2a:43:ca:ca:aa:09:3f:37:4a:da:5d:ae:14:61:60:90:89:27:
         c4:19:ea:c3
-----BEGIN CERTIFICATE-----
MIIEhzCCA2+gAwIBAgIGCgsMDQ44MA0GCSqGSIb3DQEBCwUAMHoxEzARBgNVBAMU
CkRFTEhJQ0FfQ0ExCzAJBgNVBAYTAklOMQ8wDQYDVQQKEwZDSVRSSVgxDDAKBgNV
BAsTA0FORzELMAkGA1UECBMCS0ExKjAoBgkqhkiG9w0BCQEWG0RFTEhJQ0FfQ0FA
REVMSElDQV9tYWlsLmNvbTAeFw0xNzA4MjMxMDUwMzFaFw0yNzA4MjExMDUwMzFa
MGgxCzAJBgNVBAgTAktBMQswCQYDVQQGEwJJTjEXMBUGA1UEAxQOZGVsaGlfMl9j
bGllbnQxIjAgBgkqhkiG9w0BCQEWE2RlbGhpXzJAdGVzdF9jYS5jb20xDzANBgNV
BAoTBkNJVFJJWDCCASIwDQYJKoZIhvcNAQEBBQADggEPADCCAQoCggEBALtMJC5K
6TtxbszLhTa2ZoQxIMvaYXN2EIszGZ31qM8Zn2CyBgZnd2CfyHeqsS4P4xV9pUqW
MPQm8PKNF5BlRJosTreRYmBfLK/DJB5lcUBjN/jA82BqMHYJDkJdp5x0lY8D+MF7
zJ8cz8Ih02TIlI5EcXo/9GuqCV5ViuMvOxxI1b3ThT9hs1T3YuaGTngkbNjhtsrI
MuDOJAYYPvMJ8Se+juCzwwbNtOj0zcZPyG5WeaGXL/bw2cTNxrFBAgonSHetp1UN
7HOGY0mEqaBfAF3B10VmbBrYnRUkZel0QDVmEB1umcWaNA2QMTXoCSCj2L/x3zxG
jGt5bkIp2m88zvUCAwEAAaOCASMwggEfMBEGCWCGSAGG+EIBAQQEAwIGQDAdBgNV
HQ4EFgQUAdqoQrQowLZrcecxEqUglewDta0wgawGA1UdIwSBpDCBoYAU1zdSAdws
eleFyjA5MPDVXVoxAwKhfqR8MHoxEzARBgNVBAMUCkRFTEhJQ0FfQ0ExCzAJBgNV
BAYTAklOMQ8wDQYDVQQKEwZDSVRSSVgxDDAKBgNVBAsTA0FORzELMAkGA1UECBMC
S0ExKjAoBgkqhkiG9w0BCQEWG0RFTEhJQ0FfQ0FAREVMSElDQV9tYWlsLmNvbYIJ
AJRZ3FFOpRMnMDwGCCsGAQUFBwEBBDAwLjAsBggrBgEFBQcwAYYgaHR0cDovLzE3
Mi4yMC4yMC4xL3Jlc3BvbmRlcnBhdGgwDQYJKoZIhvcNAQELBQADggEBADz1f3+C
5HTn+oY9+qS1Y51NfV3kMuyaBo7ptHbyksRP9Qf0wcowrcuNdTXl4fk8mZHFHquV
GvVP8KRGgNb3xFlwh/AJA39Zx8n5S5NGDzzJL4QBJOzi3kby+c7FFyzsX2F1NJ6t
J54+nyPqvrTN6ONNEu0whWcnUDXh6xvTBmyHQn2L7AsFYXuExvWImX/C61Fymw7W
7jAHU71iHsYaAGfriS3DXHyT+MPbf2/Mi3HyMUgxHSr9/QzVke1MOYeTEh6cYZV+
hH5hYZFkyfLkf8YSMc5L7hWP7TPGy+JLfaX3otAV2O2fkPyprCpDysqqCT83Stpd
rhRhYJCJJ8QZ6sM=
-----END CERTIFICATE-----
