Certificate:
    Data:
        Version: 3 (0x2)
        Serial Number: 11042563100254 (0xa0b0c0d0e5e)
    Signature Algorithm: sha256WithRSAEncryption
        Issuer: CN=DELHICA_CA, C=IN, O=CITRIX, OU=ANG, ST=KA/emailAddress=DELHICA_CA@DELHICA_mail.com
        Validity
            Not Before: Aug 23 10:50:56 2017 GMT
            Not After : Aug 21 10:50:56 2027 GMT
        Subject: ST=KA, C=IN, CN=delhi_40_client/emailAddress=delhi_40@test_ca.com, O=CITRIX
        Subject Public Key Info:
            Public Key Algorithm: rsaEncryption
                Public-Key: (2048 bit)
                Modulus:
                    00:a8:4f:5d:19:54:b0:b3:a1:ba:78:55:ff:3c:26:
                    cf:b0:22:0e:bb:eb:26:b7:4d:75:97:f7:27:95:11:
                    56:01:8d:a3:a2:d2:1c:a0:3e:65:2f:ae:3f:02:27:
                    ce:60:d7:b3:d0:9e:29:58:8b:9d:57:23:12:8b:97:
                    b0:9f:78:29:69:16:05:d6:56:b5:1d:94:0c:01:fc:
                    90:89:8f:0a:bc:4e:25:df:4e:a6:ab:02:f8:05:21:
                    7e:58:3f:2b:20:78:75:77:85:0c:a6:d4:e8:91:f5:
                    5b:17:bd:58:67:a3:cf:3a:37:9a:cf:dd:cf:8b:c0:
                    e5:ba:9e:b7:8c:53:0f:5d:e4:a8:82:f1:9d:4c:84:
                    48:2a:60:ec:17:59:81:b9:4a:0a:23:f0:18:c9:27:
                    99:98:e5:8b:d0:71:c1:ba:aa:56:b5:bf:1f:43:37:
                    51:ff:34:89:94:a2:88:14:af:46:6e:a8:42:f5:8a:
                    84:e7:07:5a:d0:c0:3e:40:a1:9d:76:03:36:08:ee:
                    38:b2:fb:bc:1e:8d:8a:c7:f2:7b:ef:ce:21:b5:5d:
                    7d:f9:86:c2:c1:8b:c7:bc:26:26:4e:d8:e4:7e:2b:
                    59:81:ef:e4:68:70:fc:92:ac:54:b7:c0:c8:dd:47:
                    b5:27:ff:96:23:0f:04:a5:a7:5e:8a:bf:24:ba:0d:
                    f1:77
                Exponent: 65537 (0x10001)
        X509v3 extensions:
            Netscape Cert Type: 
                SSL Server
            X509v3 Subject Key Identifier: 
                C1:2E:6E:40:2B:86:08:DD:2A:F3:F0:A3:75:7E:D9:DD:03:6A:F1:33
            X509v3 Authority Key Identifier: 
                keyid:D7:37:52:01:DC:2C:7A:57:85:CA:30:39:30:F0:D5:5D:5A:31:03:02
                DirName:/CN=DELHICA_CA/C=IN/O=CITRIX/OU=ANG/ST=KA/emailAddress=DELHICA_CA@DELHICA_mail.com
                serial:94:59:DC:51:4E:A5:13:27

            Authority Information Access: 
                OCSP - URI:http://172.20.20.1/responderpath

    Signature Algorithm: sha256WithRSAEncryption
         d0:17:00:e8:cf:28:df:88:c8:3d:23:d2:93:50:11:25:0c:c2:
         88:77:7c:dc:c0:5a:b1:17:a2:6a:4d:70:d3:8d:11:f5:90:5b:
         23:e7:72:56:ba:77:6e:60:c0:ee:8f:fd:52:9f:e0:7b:5e:88:
         06:6c:e2:38:7b:e4:cd:21:fd:03:53:c1:7a:a3:28:c5:8e:1d:
         52:12:d6:cf:7c:0c:9c:c5:47:02:c3:f2:ee:c5:25:eb:fc:84:
         39:fa:32:ec:3f:74:65:79:22:2d:25:43:da:0b:9d:5d:df:36:
         4a:29:c4:2c:a3:ed:df:32:e1:c3:a0:7a:7f:99:1a:96:9b:ab:
         b9:c4:d5:2a:3a:c9:39:ad:33:52:ca:64:2f:e7:b3:0a:5e:53:
         8d:99:b7:be:ea:2a:20:20:a4:31:34:a1:21:b8:2a:a3:70:55:
         8f:dc:6a:e2:3b:c7:fc:3c:9b:08:a9:67:47:48:f7:d7:be:4d:
         03:74:be:9c:c4:67:e5:b4:e3:8c:0e:c3:da:0f:4b:d8:88:71:
         55:3f:07:51:c2:43:74:7c:bd:8a:ad:98:45:22:01:cc:12:75:
         a1:e7:23:f3:55:e8:0f:65:a7:85:23:75:7d:6c:b2:7f:b4:28:
         0c:53:c4:65:5d:30:3d:18:a6:aa:ed:0e:f5:7e:8d:ea:d3:50:
         7e:a7:db:b4
-----BEGIN CERTIFICATE-----
MIIEiTCCA3GgAwIBAgIGCgsMDQ5eMA0GCSqGSIb3DQEBCwUAMHoxEzARBgNVBAMU
CkRFTEhJQ0FfQ0ExCzAJBgNVBAYTAklOMQ8wDQYDVQQKEwZDSVRSSVgxDDAKBgNV
BAsTA0FORzELMAkGA1UECBMCS0ExKjAoBgkqhkiG9w0BCQEWG0RFTEhJQ0FfQ0FA
REVMSElDQV9tYWlsLmNvbTAeFw0xNzA4MjMxMDUwNTZaFw0yNzA4MjExMDUwNTZa
MGoxCzAJBgNVBAgTAktBMQswCQYDVQQGEwJJTjEYMBYGA1UEAxQPZGVsaGlfNDBf
Y2xpZW50MSMwIQYJKoZIhvcNAQkBFhRkZWxoaV80MEB0ZXN0X2NhLmNvbTEPMA0G
A1UEChMGQ0lUUklYMIIBIjANBgkqhkiG9w0BAQEFAAOCAQ8AMIIBCgKCAQEAqE9d
GVSws6G6eFX/PCbPsCIOu+smt011l/cnlRFWAY2jotIcoD5lL64/AifOYNez0J4p
WIudVyMSi5ewn3gpaRYF1la1HZQMAfyQiY8KvE4l306mqwL4BSF+WD8rIHh1d4UM
ptTokfVbF71YZ6PPOjeaz93Pi8Dlup63jFMPXeSogvGdTIRIKmDsF1mBuUoKI/AY
ySeZmOWL0HHBuqpWtb8fQzdR/zSJlKKIFK9GbqhC9YqE5wda0MA+QKGddgM2CO44
svu8Ho2Kx/J7784htV19+YbCwYvHvCYmTtjkfitZge/kaHD8kqxUt8DI3Ue1J/+W
Iw8Epadeir8kug3xdwIDAQABo4IBIzCCAR8wEQYJYIZIAYb4QgEBBAQDAgZAMB0G
A1UdDgQWBBTBLm5AK4YI3Srz8KN1ftndA2rxMzCBrAYDVR0jBIGkMIGhgBTXN1IB
3Cx6V4XKMDkw8NVdWjEDAqF+pHwwejETMBEGA1UEAxQKREVMSElDQV9DQTELMAkG
A1UEBhMCSU4xDzANBgNVBAoTBkNJVFJJWDEMMAoGA1UECxMDQU5HMQswCQYDVQQI
EwJLQTEqMCgGCSqGSIb3DQEJARYbREVMSElDQV9DQUBERUxISUNBX21haWwuY29t
ggkAlFncUU6lEycwPAYIKwYBBQUHAQEEMDAuMCwGCCsGAQUFBzABhiBodHRwOi8v
MTcyLjIwLjIwLjEvcmVzcG9uZGVycGF0aDANBgkqhkiG9w0BAQsFAAOCAQEA0BcA
6M8o34jIPSPSk1ARJQzCiHd83MBasReiak1w040R9ZBbI+dyVrp3bmDA7o/9Up/g
e16IBmziOHvkzSH9A1PBeqMoxY4dUhLWz3wMnMVHAsPy7sUl6/yEOfoy7D90ZXki
LSVD2gudXd82SinELKPt3zLhw6B6f5kalpurucTVKjrJOa0zUspkL+ezCl5TjZm3
vuoqICCkMTShIbgqo3BVj9xq4jvH/DybCKlnR0j3175NA3S+nMRn5bTjjA7D2g9L
2IhxVT8HUcJDdHy9iq2YRSIBzBJ1oecj81XoD2WnhSN1fWyyf7QoDFPEZV0wPRim
qu0O9X6N6tNQfqfbtA==
-----END CERTIFICATE-----
