Certificate:
    Data:
        Version: 3 (0x2)
        Serial Number: 11042563100251 (0xa0b0c0d0e5b)
    Signature Algorithm: sha256WithRSAEncryption
        Issuer: CN=DELHICA_CA, C=IN, O=CITRIX, OU=ANG, ST=KA/emailAddress=DELHICA_CA@DELHICA_mail.com
        Validity
            Not Before: Aug 23 10:50:54 2017 GMT
            Not After : Aug 21 10:50:54 2027 GMT
        Subject: ST=KA, C=IN, CN=delhi_37_client/emailAddress=delhi_37@test_ca.com, O=CITRIX
        Subject Public Key Info:
            Public Key Algorithm: rsaEncryption
                Public-Key: (2048 bit)
                Modulus:
                    00:d8:8d:65:95:a6:57:b1:8b:05:72:43:d3:dc:85:
                    49:3d:e3:47:68:ff:f1:3d:2d:e7:63:e0:9c:97:6b:
                    d5:27:0e:3d:57:55:0c:fd:64:08:2a:8a:ee:c4:61:
                    51:96:36:fe:c7:7e:39:71:d6:b3:86:4c:50:1e:5a:
                    09:d3:cc:4a:b1:31:cf:e3:2b:63:f9:73:9f:92:c0:
                    a5:c8:fe:a6:03:e7:56:66:67:ff:e4:e3:38:c4:a7:
                    d4:7c:df:6d:25:b3:42:c5:bb:d2:1d:68:5b:c7:05:
                    ab:d7:d9:6b:11:98:04:aa:ce:d1:39:64:67:07:3b:
                    97:1a:2a:80:20:e0:2e:73:a7:41:1f:0e:ab:26:31:
                    ab:62:b7:cc:40:32:c3:b1:7c:d1:9c:a5:1d:0b:29:
                    3e:20:cb:81:fb:0a:3b:f2:58:5c:01:90:6d:d7:a6:
                    90:1f:aa:31:b8:5a:bc:fd:4b:ae:22:9d:e4:c8:e0:
                    be:a7:26:63:3a:ac:df:b8:2e:21:f1:0e:99:ca:d3:
                    70:57:50:e2:12:7d:26:61:2c:d9:6b:12:82:d0:3c:
                    fe:06:cb:8a:b4:91:b5:92:bd:a1:be:34:e0:68:74:
                    fc:f0:40:f0:fe:1f:a1:03:48:3a:45:17:e6:b0:3a:
                    79:45:1b:95:f3:f7:48:71:21:59:67:10:bf:4a:70:
                    3a:81
                Exponent: 65537 (0x10001)
        X509v3 extensions:
            Netscape Cert Type: 
                SSL Server
            X509v3 Subject Key Identifier: 
                AF:A9:D1:C2:C6:18:FD:C7:D5:CD:82:23:73:17:22:7D:BF:60:2A:65
            X509v3 Authority Key Identifier: 
                keyid:D7:37:52:01:DC:2C:7A:57:85:CA:30:39:30:F0:D5:5D:5A:31:03:02
                DirName:/CN=DELHICA_CA/C=IN/O=CITRIX/OU=ANG/ST=KA/emailAddress=DELHICA_CA@DELHICA_mail.com
                serial:94:59:DC:51:4E:A5:13:27

            Authority Information Access: 
                OCSP - URI:http://172.20.20.1/responderpath

    Signature Algorithm: sha256WithRSAEncryption
         0e:7f:1c:06:b7:8b:be:f6:66:c4:f3:ee:c6:fc:9c:32:4b:58:
         01:87:0d:5f:0d:fc:44:8b:03:28:d2:3e:76:64:ac:6b:00:22:
         d7:c8:4a:3c:d5:2c:78:28:14:c2:06:a6:8f:a6:e8:a1:1b:cb:
         e8:97:fe:e0:a6:3b:c4:9a:fb:da:08:51:e2:9b:34:ac:d4:a5:
         b3:69:98:2a:1a:cb:05:09:91:aa:ca:8f:cb:3b:c4:84:57:27:
         b3:d1:dd:12:27:0d:01:c3:24:79:19:95:2b:64:8c:70:03:3d:
         86:24:f1:a4:82:15:bb:e4:77:89:82:85:0c:f8:05:e2:4e:13:
         89:67:17:2b:b1:8e:df:aa:72:14:07:07:73:ef:d1:c0:6a:f5:
         e0:e2:ee:e9:71:c7:60:c2:6a:be:82:eb:bb:b8:18:91:1b:09:
         2f:0f:cd:93:25:89:ba:65:53:26:11:63:ef:33:13:e6:f7:d5:
         4e:dd:40:72:af:f9:54:53:1e:04:2a:b6:61:e7:35:1c:0d:aa:
         4e:27:87:93:2e:f1:1d:46:62:ba:c4:88:6c:9d:8a:f5:96:d4:
         0c:b9:73:8e:e8:f2:0e:48:7f:aa:e1:3c:69:e7:1d:bc:31:86:
         95:e0:b3:c8:10:51:5b:57:71:e3:2b:b6:d4:79:ee:b6:eb:10:
         27:28:25:8f
-----BEGIN CERTIFICATE-----
MIIEiTCCA3GgAwIBAgIGCgsMDQ5bMA0GCSqGSIb3DQEBCwUAMHoxEzARBgNVBAMU
CkRFTEhJQ0FfQ0ExCzAJBgNVBAYTAklOMQ8wDQYDVQQKEwZDSVRSSVgxDDAKBgNV
BAsTA0FORzELMAkGA1UECBMCS0ExKjAoBgkqhkiG9w0BCQEWG0RFTEhJQ0FfQ0FA
REVMSElDQV9tYWlsLmNvbTAeFw0xNzA4MjMxMDUwNTRaFw0yNzA4MjExMDUwNTRa
MGoxCzAJBgNVBAgTAktBMQswCQYDVQQGEwJJTjEYMBYGA1UEAxQPZGVsaGlfMzdf
Y2xpZW50MSMwIQYJKoZIhvcNAQkBFhRkZWxoaV8zN0B0ZXN0X2NhLmNvbTEPMA0G
A1UEChMGQ0lUUklYMIIBIjANBgkqhkiG9w0BAQEFAAOCAQ8AMIIBCgKCAQEA2I1l
laZXsYsFckPT3IVJPeNHaP/xPS3nY+Ccl2vVJw49V1UM/WQIKoruxGFRljb+x345
cdazhkxQHloJ08xKsTHP4ytj+XOfksClyP6mA+dWZmf/5OM4xKfUfN9tJbNCxbvS
HWhbxwWr19lrEZgEqs7ROWRnBzuXGiqAIOAuc6dBHw6rJjGrYrfMQDLDsXzRnKUd
Cyk+IMuB+wo78lhcAZBt16aQH6oxuFq8/UuuIp3kyOC+pyZjOqzfuC4h8Q6ZytNw
V1DiEn0mYSzZaxKC0Dz+BsuKtJG1kr2hvjTgaHT88EDw/h+hA0g6RRfmsDp5RRuV
8/dIcSFZZxC/SnA6gQIDAQABo4IBIzCCAR8wEQYJYIZIAYb4QgEBBAQDAgZAMB0G
A1UdDgQWBBSvqdHCxhj9x9XNgiNzFyJ9v2AqZTCBrAYDVR0jBIGkMIGhgBTXN1IB
3Cx6V4XKMDkw8NVdWjEDAqF+pHwwejETMBEGA1UEAxQKREVMSElDQV9DQTELMAkG
A1UEBhMCSU4xDzANBgNVBAoTBkNJVFJJWDEMMAoGA1UECxMDQU5HMQswCQYDVQQI
EwJLQTEqMCgGCSqGSIb3DQEJARYbREVMSElDQV9DQUBERUxISUNBX21haWwuY29t
ggkAlFncUU6lEycwPAYIKwYBBQUHAQEEMDAuMCwGCCsGAQUFBzABhiBodHRwOi8v
MTcyLjIwLjIwLjEvcmVzcG9uZGVycGF0aDANBgkqhkiG9w0BAQsFAAOCAQEADn8c
BreLvvZmxPPuxvycMktYAYcNXw38RIsDKNI+dmSsawAi18hKPNUseCgUwgamj6bo
oRvL6Jf+4KY7xJr72ghR4ps0rNSls2mYKhrLBQmRqsqPyzvEhFcns9HdEicNAcMk
eRmVK2SMcAM9hiTxpIIVu+R3iYKFDPgF4k4TiWcXK7GO36pyFAcHc+/RwGr14OLu
6XHHYMJqvoLru7gYkRsJLw/NkyWJumVTJhFj7zMT5vfVTt1Acq/5VFMeBCq2Yec1
HA2qTieHky7xHUZiusSIbJ2K9ZbUDLlzjujyDkh/quE8aecdvDGGleCzyBBRW1dx
4yu21HnutusQJygljw==
-----END CERTIFICATE-----
