Certificate:
    Data:
        Version: 3 (0x2)
        Serial Number: 11042563100215 (0xa0b0c0d0e37)
    Signature Algorithm: sha256WithRSAEncryption
        Issuer: CN=DELHICA_CA, C=IN, O=CITRIX, OU=ANG, ST=KA/emailAddress=DELHICA_CA@DELHICA_mail.com
        Validity
            Not Before: Aug 23 10:50:31 2017 GMT
            Not After : Aug 21 10:50:31 2027 GMT
        Subject: ST=KA, C=IN, CN=delhi_1_client/emailAddress=delhi_1@test_ca.com, O=CITRIX
        Subject Public Key Info:
            Public Key Algorithm: rsaEncryption
                Public-Key: (2048 bit)
                Modulus:
                    00:9b:7e:c1:bf:08:66:b1:a7:87:6d:8d:58:f5:51:
                    d4:5c:d1:54:e8:ee:84:f9:9e:99:c9:df:ea:49:0b:
                    b5:76:99:2d:ae:0e:09:6b:8b:2f:39:38:26:a8:47:
                    29:8a:d9:12:5d:cb:2a:d8:5e:c4:49:78:64:6b:d3:
                    c5:ab:cb:89:95:e7:26:e1:d3:c6:b2:0e:9c:57:29:
                    ba:45:fb:8c:72:df:dd:78:48:79:2b:fe:32:7d:7d:
                    93:55:8f:58:aa:e6:5d:33:4b:58:5f:98:33:13:80:
                    9c:1c:e0:5b:a2:39:e4:d7:41:4d:8f:3c:39:e3:1e:
                    b7:a3:49:eb:17:4d:f2:8a:1f:34:25:8b:f6:66:0e:
                    82:cb:cb:6c:ae:c6:09:d7:f4:9d:19:54:d3:61:1a:
                    b7:fc:cb:2b:72:7e:d2:32:0d:08:c1:64:2e:e4:35:
                    1b:42:7f:df:16:ac:38:27:6d:a6:46:5a:3e:de:8d:
                    4a:21:d9:9e:f6:32:6e:c5:04:53:73:cd:d4:ad:34:
                    3e:64:23:8f:4e:30:67:cb:a0:fd:73:a7:76:d3:5c:
                    e5:a2:eb:8b:e9:28:0c:da:d7:01:cf:d9:9c:20:3f:
                    8d:b3:1e:cb:ee:bb:01:1c:7d:ef:f1:e5:86:5a:97:
                    83:89:32:8d:01:34:7b:25:f8:03:93:b0:42:41:af:
                    7a:ff
                Exponent: 65537 (0x10001)
        X509v3 extensions:
            Netscape Cert Type: 
                SSL Server
            X509v3 Subject Key Identifier: 
                B7:8F:E1:5E:93:7D:1D:52:04:5D:B8:71:A0:B8:AF:A9:04:F5:E6:A9
            X509v3 Authority Key Identifier: 
                keyid:D7:37:52:01:DC:2C:7A:57:85:CA:30:39:30:F0:D5:5D:5A:31:03:02
                DirName:/CN=DELHICA_CA/C=IN/O=CITRIX/OU=ANG/ST=KA/emailAddress=DELHICA_CA@DELHICA_mail.com
                serial:94:59:DC:51:4E:A5:13:27

            Authority Information Access: 
                OCSP - URI:http://172.20.20.1/responderpath

    Signature Algorithm: sha256WithRSAEncryption
         0c:ae:08:23:ca:31:ea:64:76:d3:f6:84:6d:a8:93:1c:1d:0f:
         ab:5f:8b:c0:67:5e:b9:93:77:e6:33:04:fd:98:f6:b4:32:7a:
         5c:6b:51:1d:05:eb:01:66:9f:67:91:51:43:03:28:60:68:19:
         ec:9d:cd:12:d7:e5:81:e7:f3:77:d9:32:6b:70:08:13:ff:89:
         b9:ac:1b:8f:1f:25:86:8c:6d:2a:a0:12:25:b9:8e:28:48:53:
         e1:b8:5b:12:48:22:f8:3b:11:1c:29:c8:31:65:eb:6b:ab:4c:
         1f:fd:f5:72:2e:e5:6e:93:fa:f1:cd:d0:01:62:f6:55:0d:67:
         22:76:39:d8:53:4b:b5:17:f4:ac:97:d5:2d:39:d7:17:df:d2:
         ad:99:69:15:04:c1:76:c9:b8:73:34:57:47:99:b1:02:22:52:
         aa:0c:e6:35:74:25:7d:d2:26:fe:cf:e0:db:99:79:f8:1e:2e:
         38:e0:6c:33:9d:8f:58:31:6b:40:57:b9:b7:31:9c:88:f4:50:
         93:89:be:4d:2a:5c:b6:60:8e:ec:20:d3:75:0f:f4:02:cc:1f:
         4e:14:2d:08:48:b0:ca:e3:d1:f0:cf:78:df:12:4f:66:35:93:
         00:24:f4:35:74:2f:a4:f2:fb:9e:69:76:6f:54:87:49:a2:4f:
         8b:90:81:cd
-----BEGIN CERTIFICATE-----
MIIEhzCCA2+gAwIBAgIGCgsMDQ43MA0GCSqGSIb3DQEBCwUAMHoxEzARBgNVBAMU
CkRFTEhJQ0FfQ0ExCzAJBgNVBAYTAklOMQ8wDQYDVQQKEwZDSVRSSVgxDDAKBgNV
BAsTA0FORzELMAkGA1UECBMCS0ExKjAoBgkqhkiG9w0BCQEWG0RFTEhJQ0FfQ0FA
REVMSElDQV9tYWlsLmNvbTAeFw0xNzA4MjMxMDUwMzFaFw0yNzA4MjExMDUwMzFa
MGgxCzAJBgNVBAgTAktBMQswCQYDVQQGEwJJTjEXMBUGA1UEAxQOZGVsaGlfMV9j
bGllbnQxIjAgBgkqhkiG9w0BCQEWE2RlbGhpXzFAdGVzdF9jYS5jb20xDzANBgNV
BAoTBkNJVFJJWDCCASIwDQYJKoZIhvcNAQEBBQADggEPADCCAQoCggEBAJt+wb8I
ZrGnh22NWPVR1FzRVOjuhPmemcnf6kkLtXaZLa4OCWuLLzk4JqhHKYrZEl3LKthe
xEl4ZGvTxavLiZXnJuHTxrIOnFcpukX7jHLf3XhIeSv+Mn19k1WPWKrmXTNLWF+Y
MxOAnBzgW6I55NdBTY88OeMet6NJ6xdN8oofNCWL9mYOgsvLbK7GCdf0nRlU02Ea
t/zLK3J+0jINCMFkLuQ1G0J/3xasOCdtpkZaPt6NSiHZnvYybsUEU3PN1K00PmQj
j04wZ8ug/XOndtNc5aLri+koDNrXAc/ZnCA/jbMey+67ARx97/HlhlqXg4kyjQE0
eyX4A5OwQkGvev8CAwEAAaOCASMwggEfMBEGCWCGSAGG+EIBAQQEAwIGQDAdBgNV
HQ4EFgQUt4/hXpN9HVIEXbhxoLivqQT15qkwgawGA1UdIwSBpDCBoYAU1zdSAdws
eleFyjA5MPDVXVoxAwKhfqR8MHoxEzARBgNVBAMUCkRFTEhJQ0FfQ0ExCzAJBgNV
BAYTAklOMQ8wDQYDVQQKEwZDSVRSSVgxDDAKBgNVBAsTA0FORzELMAkGA1UECBMC
S0ExKjAoBgkqhkiG9w0BCQEWG0RFTEhJQ0FfQ0FAREVMSElDQV9tYWlsLmNvbYIJ
AJRZ3FFOpRMnMDwGCCsGAQUFBwEBBDAwLjAsBggrBgEFBQcwAYYgaHR0cDovLzE3
Mi4yMC4yMC4xL3Jlc3BvbmRlcnBhdGgwDQYJKoZIhvcNAQELBQADggEBAAyuCCPK
MepkdtP2hG2okxwdD6tfi8BnXrmTd+YzBP2Y9rQyelxrUR0F6wFmn2eRUUMDKGBo
GeydzRLX5YHn83fZMmtwCBP/ibmsG48fJYaMbSqgEiW5jihIU+G4WxJIIvg7ERwp
yDFl62urTB/99XIu5W6T+vHN0AFi9lUNZyJ2OdhTS7UX9KyX1S051xff0q2ZaRUE
wXbJuHM0V0eZsQIiUqoM5jV0JX3SJv7P4NuZefgeLjjgbDOdj1gxa0BXubcxnIj0
UJOJvk0qXLZgjuwg03UP9ALMH04ULQhIsMrj0fDPeN8ST2Y1kwAk9DV0L6Ty+55p
dm9Uh0miT4uQgc0=
-----END CERTIFICATE-----
