Certificate:
    Data:
        Version: 3 (0x2)
        Serial Number: 11042563100238 (0xa0b0c0d0e4e)
    Signature Algorithm: sha256WithRSAEncryption
        Issuer: CN=DELHICA_CA, C=IN, O=CITRIX, OU=ANG, ST=KA/emailAddress=DELHICA_CA@DELHICA_mail.com
        Validity
            Not Before: Aug 23 10:50:44 2017 GMT
            Not After : Aug 21 10:50:44 2027 GMT
        Subject: ST=KA, C=IN, CN=delhi_24_client/emailAddress=delhi_24@test_ca.com, O=CITRIX
        Subject Public Key Info:
            Public Key Algorithm: rsaEncryption
                Public-Key: (2048 bit)
                Modulus:
                    00:bf:f3:48:4c:ce:85:1c:f2:7a:0c:bb:6a:2d:f0:
                    8c:25:f6:28:bb:0d:c0:a4:d4:a0:2b:f9:50:d8:0d:
                    47:b8:69:8d:6c:47:3c:6d:cd:45:88:0f:be:d2:af:
                    bd:36:de:e0:6e:37:a8:fa:bc:d9:2b:2c:cf:11:5e:
                    3c:51:23:75:71:36:a3:36:d9:64:0f:fb:62:27:38:
                    51:bc:8f:a1:4f:dd:10:eb:dc:5a:74:8b:b3:10:90:
                    b6:70:13:49:9e:90:42:b5:ea:5f:a6:6e:02:cd:62:
                    01:25:ae:91:fe:38:52:f8:98:95:41:50:1b:38:b2:
                    88:bd:31:4a:11:0d:f9:18:2f:7b:a6:6b:97:ff:36:
                    60:4f:eb:56:be:f2:f8:42:15:98:80:9d:7e:74:66:
                    b3:d0:b1:49:69:ee:9a:4f:4f:25:62:45:db:cf:86:
                    62:db:90:ee:78:9d:1c:91:4c:1d:f6:87:cc:f4:ce:
                    0d:69:b9:7a:b2:b8:dc:fe:e1:f3:c7:8a:8e:f2:09:
                    cd:e5:81:e2:ae:f1:5f:6c:78:0b:4f:3d:fd:3a:77:
                    6f:94:28:8b:77:d8:64:78:26:25:32:5d:9d:70:5d:
                    ab:35:92:93:45:bd:d3:1f:f3:84:1d:17:f8:3a:37:
                    76:14:01:aa:9f:fd:4d:c6:d7:93:5e:63:4b:04:e1:
                    e3:1b
                Exponent: 65537 (0x10001)
        X509v3 extensions:
            Netscape Cert Type: 
                SSL Server
            X509v3 Subject Key Identifier: 
                7C:84:F4:8F:A2:93:FB:C5:69:D3:E2:94:20:BE:92:60:8A:77:B7:E9
            X509v3 Authority Key Identifier: 
                keyid:D7:37:52:01:DC:2C:7A:57:85:CA:30:39:30:F0:D5:5D:5A:31:03:02
                DirName:/CN=DELHICA_CA/C=IN/O=CITRIX/OU=ANG/ST=KA/emailAddress=DELHICA_CA@DELHICA_mail.com
                serial:94:59:DC:51:4E:A5:13:27

            Authority Information Access: 
                OCSP - URI:http://172.20.20.1/responderpath

    Signature Algorithm: sha256WithRSAEncryption
         e7:43:48:4b:2e:89:2e:21:22:a9:ed:f6:43:ab:2e:08:f8:a7:
         d7:2d:d1:40:1a:d0:1e:4b:fe:c7:bd:63:0c:3a:0f:db:cc:59:
         68:47:dc:ac:7e:87:d4:c7:5d:87:67:89:76:e6:36:bc:c7:30:
         9e:7f:7e:1b:65:28:81:66:4b:f7:ad:91:65:42:72:c1:0d:c6:
         62:04:88:7d:00:39:19:4c:1a:5e:2d:c5:ca:8e:a9:64:40:27:
         48:47:1d:70:fb:3f:30:14:0c:c4:04:1a:4d:a0:c8:5f:81:e0:
         d1:1c:54:e4:a3:88:37:21:90:34:83:5c:8d:65:d6:86:4e:35:
         78:95:24:01:ae:9b:80:9e:06:25:32:a1:c7:86:c6:d5:e3:08:
         e9:1e:44:6c:9f:a8:7c:e0:53:bb:2f:49:5d:f7:87:54:35:ea:
         7c:49:f0:78:85:e7:bf:b8:89:c7:94:4c:64:6e:f6:f4:4c:dc:
         a1:5b:8b:5e:4a:f6:d7:20:87:86:6c:4d:a6:80:9c:17:a0:3e:
         7b:a7:4f:26:b5:97:00:a4:01:82:b5:24:3d:0a:c7:fe:78:f3:
         f8:9c:19:a9:e0:ce:c1:db:92:32:61:85:66:e2:25:d4:e7:2f:
         f9:b3:a1:66:aa:a2:05:55:79:12:64:90:d9:e0:83:8d:24:88:
         80:e1:e0:e8
-----BEGIN CERTIFICATE-----
MIIEiTCCA3GgAwIBAgIGCgsMDQ5OMA0GCSqGSIb3DQEBCwUAMHoxEzARBgNVBAMU
CkRFTEhJQ0FfQ0ExCzAJBgNVBAYTAklOMQ8wDQYDVQQKEwZDSVRSSVgxDDAKBgNV
BAsTA0FORzELMAkGA1UECBMCS0ExKjAoBgkqhkiG9w0BCQEWG0RFTEhJQ0FfQ0FA
REVMSElDQV9tYWlsLmNvbTAeFw0xNzA4MjMxMDUwNDRaFw0yNzA4MjExMDUwNDRa
MGoxCzAJBgNVBAgTAktBMQswCQYDVQQGEwJJTjEYMBYGA1UEAxQPZGVsaGlfMjRf
Y2xpZW50MSMwIQYJKoZIhvcNAQkBFhRkZWxoaV8yNEB0ZXN0X2NhLmNvbTEPMA0G
A1UEChMGQ0lUUklYMIIBIjANBgkqhkiG9w0BAQEFAAOCAQ8AMIIBCgKCAQEAv/NI
TM6FHPJ6DLtqLfCMJfYouw3ApNSgK/lQ2A1HuGmNbEc8bc1FiA++0q+9Nt7gbjeo
+rzZKyzPEV48USN1cTajNtlkD/tiJzhRvI+hT90Q69xadIuzEJC2cBNJnpBCtepf
pm4CzWIBJa6R/jhS+JiVQVAbOLKIvTFKEQ35GC97pmuX/zZgT+tWvvL4QhWYgJ1+
dGaz0LFJae6aT08lYkXbz4Zi25DueJ0ckUwd9ofM9M4Nabl6srjc/uHzx4qO8gnN
5YHirvFfbHgLTz39OndvlCiLd9hkeCYlMl2dcF2rNZKTRb3TH/OEHRf4Ojd2FAGq
n/1NxteTXmNLBOHjGwIDAQABo4IBIzCCAR8wEQYJYIZIAYb4QgEBBAQDAgZAMB0G
A1UdDgQWBBR8hPSPopP7xWnT4pQgvpJgine36TCBrAYDVR0jBIGkMIGhgBTXN1IB
3Cx6V4XKMDkw8NVdWjEDAqF+pHwwejETMBEGA1UEAxQKREVMSElDQV9DQTELMAkG
A1UEBhMCSU4xDzANBgNVBAoTBkNJVFJJWDEMMAoGA1UECxMDQU5HMQswCQYDVQQI
EwJLQTEqMCgGCSqGSIb3DQEJARYbREVMSElDQV9DQUBERUxISUNBX21haWwuY29t
ggkAlFncUU6lEycwPAYIKwYBBQUHAQEEMDAuMCwGCCsGAQUFBzABhiBodHRwOi8v
MTcyLjIwLjIwLjEvcmVzcG9uZGVycGF0aDANBgkqhkiG9w0BAQsFAAOCAQEA50NI
Sy6JLiEiqe32Q6suCPin1y3RQBrQHkv+x71jDDoP28xZaEfcrH6H1Mddh2eJduY2
vMcwnn9+G2UogWZL962RZUJywQ3GYgSIfQA5GUwaXi3Fyo6pZEAnSEcdcPs/MBQM
xAQaTaDIX4Hg0RxU5KOINyGQNINcjWXWhk41eJUkAa6bgJ4GJTKhx4bG1eMI6R5E
bJ+ofOBTuy9JXfeHVDXqfEnweIXnv7iJx5RMZG729EzcoVuLXkr21yCHhmxNpoCc
F6A+e6dPJrWXAKQBgrUkPQrH/njz+JwZqeDOwduSMmGFZuIl1Ocv+bOhZqqiBVV5
EmSQ2eCDjSSIgOHg6A==
-----END CERTIFICATE-----
