Certificate:
    Data:
        Version: 3 (0x2)
        Serial Number: 11042563100231 (0xa0b0c0d0e47)
    Signature Algorithm: sha256WithRSAEncryption
        Issuer: CN=DELHICA_CA, C=IN, O=CITRIX, OU=ANG, ST=KA/emailAddress=DELHICA_CA@DELHICA_mail.com
        Validity
            Not Before: Aug 23 10:50:40 2017 GMT
            Not After : Aug 21 10:50:40 2027 GMT
        Subject: ST=KA, C=IN, CN=delhi_17_client/emailAddress=delhi_17@test_ca.com, O=CITRIX
        Subject Public Key Info:
            Public Key Algorithm: rsaEncryption
                Public-Key: (2048 bit)
                Modulus:
                    00:c0:ba:68:06:97:7e:52:ad:f5:a9:9f:eb:91:22:
                    6a:94:89:e1:df:3e:25:4a:a6:19:e1:ee:41:1e:c4:
                    89:ef:61:65:23:0c:31:ce:17:53:ea:48:43:dd:ec:
                    2b:db:b2:9f:e2:a0:59:f6:01:a8:65:39:81:69:08:
                    12:ef:aa:95:8c:0b:8b:3b:ce:b0:87:1a:f7:9d:b6:
                    c8:19:5e:9a:95:59:95:96:7c:e0:c5:2f:61:ba:40:
                    84:a7:c6:d3:b2:62:66:b6:0a:e3:31:99:8a:4e:fe:
                    17:94:a2:37:61:c2:d9:ad:48:60:1e:ad:da:31:09:
                    14:e6:95:3d:08:ee:39:d9:43:9d:3a:05:2b:c8:10:
                    ee:48:b5:83:04:82:d2:5c:12:a2:05:67:56:45:95:
                    fa:7c:fb:ed:e1:42:08:91:32:77:c7:31:80:8d:66:
                    20:07:fb:e9:db:37:ba:fe:8c:d7:66:59:68:72:f9:
                    cb:55:24:60:6c:95:fb:cb:86:b0:fd:3a:d6:e0:81:
                    66:6f:3a:70:69:48:b7:97:6b:97:8a:92:c6:13:7a:
                    d4:62:b2:65:4e:05:2c:ea:35:59:6f:d0:ad:9e:4d:
                    d8:d8:32:d8:17:59:6a:48:2c:1c:d2:b3:cc:fd:4f:
                    41:7e:12:ac:c0:39:22:af:11:7a:f1:c0:ae:fc:9c:
                    40:37
                Exponent: 65537 (0x10001)
        X509v3 extensions:
            Netscape Cert Type: 
                SSL Server
            X509v3 Subject Key Identifier: 
                B6:24:11:19:3B:72:F7:B4:A7:AA:C1:6E:73:1F:0D:21:FB:1D:2C:43
            X509v3 Authority Key Identifier: 
                keyid:D7:37:52:01:DC:2C:7A:57:85:CA:30:39:30:F0:D5:5D:5A:31:03:02
                DirName:/CN=DELHICA_CA/C=IN/O=CITRIX/OU=ANG/ST=KA/emailAddress=DELHICA_CA@DELHICA_mail.com
                serial:94:59:DC:51:4E:A5:13:27

            Authority Information Access: 
                OCSP - URI:http://172.20.20.1/responderpath

    Signature Algorithm: sha256WithRSAEncryption
         cc:ab:3a:5d:b2:b7:c9:27:ff:21:30:a2:31:8b:28:ac:d5:87:
         be:b6:79:22:ff:17:00:3d:71:07:14:8a:35:76:31:13:5e:39:
         3a:b4:4a:2e:d5:13:4a:d8:f5:fd:cb:26:ca:30:0c:dc:ee:49:
         0d:1f:6b:0a:41:35:11:36:cf:d7:4a:42:02:39:7c:42:3b:25:
         a5:d5:5f:8e:a1:8c:65:98:09:ed:72:e4:4d:7e:7c:e2:e0:1c:
         8b:e6:b9:f9:ce:c9:46:e7:64:6b:f6:1b:4f:0f:54:3f:9e:eb:
         7a:35:05:84:5e:b0:9b:23:b7:57:00:f6:f3:03:41:72:ab:0e:
         f5:bf:50:e4:0f:67:71:55:b7:1b:c8:41:f7:d4:f4:fe:ee:91:
         26:25:d3:a2:ae:0c:1e:85:a9:51:1a:9a:51:49:9d:71:f2:64:
         2e:97:a7:3f:c3:80:6e:a9:7c:35:11:e5:88:40:1d:9a:46:02:
         77:64:d3:9d:49:1e:4e:5f:f3:1b:06:99:3d:d7:a8:ce:85:00:
         a3:5e:3c:e1:9f:ad:76:84:b8:be:82:97:2d:2d:8d:f7:e1:8d:
         c4:91:8e:6b:a6:99:af:27:7d:38:ac:ce:3d:8c:b3:c2:16:5c:
         76:45:40:ab:df:22:f0:7f:8e:50:c9:9e:17:a3:8b:89:82:a5:
         7f:47:6c:50
-----BEGIN CERTIFICATE-----
MIIEiTCCA3GgAwIBAgIGCgsMDQ5HMA0GCSqGSIb3DQEBCwUAMHoxEzARBgNVBAMU
CkRFTEhJQ0FfQ0ExCzAJBgNVBAYTAklOMQ8wDQYDVQQKEwZDSVRSSVgxDDAKBgNV
BAsTA0FORzELMAkGA1UECBMCS0ExKjAoBgkqhkiG9w0BCQEWG0RFTEhJQ0FfQ0FA
REVMSElDQV9tYWlsLmNvbTAeFw0xNzA4MjMxMDUwNDBaFw0yNzA4MjExMDUwNDBa
MGoxCzAJBgNVBAgTAktBMQswCQYDVQQGEwJJTjEYMBYGA1UEAxQPZGVsaGlfMTdf
Y2xpZW50MSMwIQYJKoZIhvcNAQkBFhRkZWxoaV8xN0B0ZXN0X2NhLmNvbTEPMA0G
A1UEChMGQ0lUUklYMIIBIjANBgkqhkiG9w0BAQEFAAOCAQ8AMIIBCgKCAQEAwLpo
Bpd+Uq31qZ/rkSJqlInh3z4lSqYZ4e5BHsSJ72FlIwwxzhdT6khD3ewr27Kf4qBZ
9gGoZTmBaQgS76qVjAuLO86whxr3nbbIGV6alVmVlnzgxS9hukCEp8bTsmJmtgrj
MZmKTv4XlKI3YcLZrUhgHq3aMQkU5pU9CO452UOdOgUryBDuSLWDBILSXBKiBWdW
RZX6fPvt4UIIkTJ3xzGAjWYgB/vp2ze6/ozXZllocvnLVSRgbJX7y4aw/TrW4IFm
bzpwaUi3l2uXipLGE3rUYrJlTgUs6jVZb9Ctnk3Y2DLYF1lqSCwc0rPM/U9BfhKs
wDkirxF68cCu/JxANwIDAQABo4IBIzCCAR8wEQYJYIZIAYb4QgEBBAQDAgZAMB0G
A1UdDgQWBBS2JBEZO3L3tKeqwW5zHw0h+x0sQzCBrAYDVR0jBIGkMIGhgBTXN1IB
3Cx6V4XKMDkw8NVdWjEDAqF+pHwwejETMBEGA1UEAxQKREVMSElDQV9DQTELMAkG
A1UEBhMCSU4xDzANBgNVBAoTBkNJVFJJWDEMMAoGA1UECxMDQU5HMQswCQYDVQQI
EwJLQTEqMCgGCSqGSIb3DQEJARYbREVMSElDQV9DQUBERUxISUNBX21haWwuY29t
ggkAlFncUU6lEycwPAYIKwYBBQUHAQEEMDAuMCwGCCsGAQUFBzABhiBodHRwOi8v
MTcyLjIwLjIwLjEvcmVzcG9uZGVycGF0aDANBgkqhkiG9w0BAQsFAAOCAQEAzKs6
XbK3ySf/ITCiMYsorNWHvrZ5Iv8XAD1xBxSKNXYxE145OrRKLtUTStj1/csmyjAM
3O5JDR9rCkE1ETbP10pCAjl8QjslpdVfjqGMZZgJ7XLkTX584uAci+a5+c7JRudk
a/YbTw9UP57rejUFhF6wmyO3VwD28wNBcqsO9b9Q5A9ncVW3G8hB99T0/u6RJiXT
oq4MHoWpURqaUUmdcfJkLpenP8OAbql8NRHliEAdmkYCd2TTnUkeTl/zGwaZPdeo
zoUAo1484Z+tdoS4voKXLS2N9+GNxJGOa6aZryd9OKzOPYyzwhZcdkVAq98i8H+O
UMmeF6OLiYKlf0dsUA==
-----END CERTIFICATE-----
