Certificate:
    Data:
        Version: 3 (0x2)
        Serial Number: 11042563100229 (0xa0b0c0d0e45)
    Signature Algorithm: sha256WithRSAEncryption
        Issuer: CN=DELHICA_CA, C=IN, O=CITRIX, OU=ANG, ST=KA/emailAddress=DELHICA_CA@DELHICA_mail.com
        Validity
            Not Before: Aug 23 10:50:39 2017 GMT
            Not After : Aug 21 10:50:39 2027 GMT
        Subject: ST=KA, C=IN, CN=delhi_15_client/emailAddress=delhi_15@test_ca.com, O=CITRIX
        Subject Public Key Info:
            Public Key Algorithm: rsaEncryption
                Public-Key: (2048 bit)
                Modulus:
                    00:f7:f7:ad:a5:cd:9d:a0:1d:6b:68:15:40:35:59:
                    29:c0:c7:ef:a9:eb:e3:2f:20:52:cf:ae:d6:ed:54:
                    85:01:ed:4f:e1:61:eb:a5:e7:49:77:61:d6:95:16:
                    14:3c:85:c9:04:e6:b4:c1:e0:9b:d9:ea:4c:c8:bb:
                    fb:d2:ea:34:95:87:b6:6d:0e:45:98:9f:1c:d9:c9:
                    53:08:84:dc:4a:54:a2:37:f5:52:16:fc:6d:d0:d5:
                    9b:8c:16:d0:8a:8d:aa:d5:d9:5e:f6:b8:15:43:3a:
                    9c:46:23:4e:6e:73:80:10:e7:bf:0d:38:1d:ff:2c:
                    af:02:1d:b7:ce:87:87:ea:2d:5b:5c:6c:3d:40:04:
                    26:cf:d5:6f:ab:b8:ab:87:26:27:e0:44:b5:7e:54:
                    0b:b7:fe:1a:b6:6b:2d:69:da:ec:47:48:d4:66:9f:
                    07:18:22:1e:e3:07:d0:e9:94:6e:6f:b7:11:38:7d:
                    e3:18:aa:4f:28:9e:10:21:53:5b:8c:e9:d1:74:57:
                    0c:66:a6:d9:97:5d:54:65:28:74:03:8c:d5:fe:6a:
                    a8:12:65:c0:40:55:28:c2:70:1b:4f:f6:c1:76:9f:
                    ca:a7:7e:3b:93:73:1a:0e:1c:b6:4e:e3:c1:1c:44:
                    25:f4:9f:09:82:4b:32:c0:d4:08:06:0e:7f:3a:eb:
                    7a:2b
                Exponent: 65537 (0x10001)
        X509v3 extensions:
            Netscape Cert Type: 
                SSL Server
            X509v3 Subject Key Identifier: 
                1F:07:2A:D3:8C:25:B6:22:28:34:29:BB:B6:E3:F5:55:00:0C:FC:86
            X509v3 Authority Key Identifier: 
                keyid:D7:37:52:01:DC:2C:7A:57:85:CA:30:39:30:F0:D5:5D:5A:31:03:02
                DirName:/CN=DELHICA_CA/C=IN/O=CITRIX/OU=ANG/ST=KA/emailAddress=DELHICA_CA@DELHICA_mail.com
                serial:94:59:DC:51:4E:A5:13:27

            Authority Information Access: 
                OCSP - URI:http://172.20.20.1/responderpath

    Signature Algorithm: sha256WithRSAEncryption
         61:17:ba:13:e9:ac:70:6b:f3:4f:48:8e:34:f4:2b:f9:6a:3d:
         52:fc:c9:ac:db:0f:0e:06:05:02:38:ef:ba:40:d6:fa:8a:a5:
         4f:11:bb:99:e1:3b:5d:96:df:c9:8a:11:4e:76:7c:c7:34:4f:
         80:68:c2:ff:47:93:81:50:e8:b3:e8:8e:19:2f:eb:e2:26:31:
         4a:62:6b:d1:f5:7c:66:4f:bd:88:39:8c:8b:a8:85:3a:b0:03:
         92:32:74:f5:2f:5d:da:8f:5f:c1:fe:1a:a7:8c:d3:f5:af:d3:
         3f:3f:97:4b:7e:93:ba:06:23:ce:fa:55:1c:c6:8d:78:68:67:
         b7:c8:ae:d5:cd:3d:f8:13:3e:7d:32:64:d8:cf:4d:c0:59:f5:
         7a:0a:a6:ea:54:8e:44:69:d3:10:25:e1:f6:d7:2b:30:6f:7e:
         ac:da:19:76:b4:91:0e:27:14:0a:6d:2d:5f:f6:39:ee:6b:a5:
         f7:4a:3d:8d:ef:a7:c7:52:fa:ec:42:0b:97:de:a8:81:47:71:
         cf:20:28:6c:d6:eb:08:1c:3a:2b:8c:f8:f9:57:77:7d:7b:63:
         07:15:76:1a:8d:e3:2d:5d:91:25:b3:39:71:82:e7:df:a9:b8:
         fe:19:62:1d:85:ec:fb:da:19:ce:b5:6e:ca:6f:fb:43:18:22:
         94:cf:b3:ad
-----BEGIN CERTIFICATE-----
MIIEiTCCA3GgAwIBAgIGCgsMDQ5FMA0GCSqGSIb3DQEBCwUAMHoxEzARBgNVBAMU
CkRFTEhJQ0FfQ0ExCzAJBgNVBAYTAklOMQ8wDQYDVQQKEwZDSVRSSVgxDDAKBgNV
BAsTA0FORzELMAkGA1UECBMCS0ExKjAoBgkqhkiG9w0BCQEWG0RFTEhJQ0FfQ0FA
REVMSElDQV9tYWlsLmNvbTAeFw0xNzA4MjMxMDUwMzlaFw0yNzA4MjExMDUwMzla
MGoxCzAJBgNVBAgTAktBMQswCQYDVQQGEwJJTjEYMBYGA1UEAxQPZGVsaGlfMTVf
Y2xpZW50MSMwIQYJKoZIhvcNAQkBFhRkZWxoaV8xNUB0ZXN0X2NhLmNvbTEPMA0G
A1UEChMGQ0lUUklYMIIBIjANBgkqhkiG9w0BAQEFAAOCAQ8AMIIBCgKCAQEA9/et
pc2doB1raBVANVkpwMfvqevjLyBSz67W7VSFAe1P4WHrpedJd2HWlRYUPIXJBOa0
weCb2epMyLv70uo0lYe2bQ5FmJ8c2clTCITcSlSiN/VSFvxt0NWbjBbQio2q1dle
9rgVQzqcRiNObnOAEOe/DTgd/yyvAh23zoeH6i1bXGw9QAQmz9Vvq7irhyYn4ES1
flQLt/4atmstadrsR0jUZp8HGCIe4wfQ6ZRub7cROH3jGKpPKJ4QIVNbjOnRdFcM
ZqbZl11UZSh0A4zV/mqoEmXAQFUownAbT/bBdp/Kp347k3MaDhy2TuPBHEQl9J8J
gksywNQIBg5/Out6KwIDAQABo4IBIzCCAR8wEQYJYIZIAYb4QgEBBAQDAgZAMB0G
A1UdDgQWBBQfByrTjCW2Iig0Kbu24/VVAAz8hjCBrAYDVR0jBIGkMIGhgBTXN1IB
3Cx6V4XKMDkw8NVdWjEDAqF+pHwwejETMBEGA1UEAxQKREVMSElDQV9DQTELMAkG
A1UEBhMCSU4xDzANBgNVBAoTBkNJVFJJWDEMMAoGA1UECxMDQU5HMQswCQYDVQQI
EwJLQTEqMCgGCSqGSIb3DQEJARYbREVMSElDQV9DQUBERUxISUNBX21haWwuY29t
ggkAlFncUU6lEycwPAYIKwYBBQUHAQEEMDAuMCwGCCsGAQUFBzABhiBodHRwOi8v
MTcyLjIwLjIwLjEvcmVzcG9uZGVycGF0aDANBgkqhkiG9w0BAQsFAAOCAQEAYRe6
E+mscGvzT0iONPQr+Wo9UvzJrNsPDgYFAjjvukDW+oqlTxG7meE7XZbfyYoRTnZ8
xzRPgGjC/0eTgVDos+iOGS/r4iYxSmJr0fV8Zk+9iDmMi6iFOrADkjJ09S9d2o9f
wf4ap4zT9a/TPz+XS36TugYjzvpVHMaNeGhnt8iu1c09+BM+fTJk2M9NwFn1egqm
6lSORGnTECXh9tcrMG9+rNoZdrSRDicUCm0tX/Y57mul90o9je+nx1L67EILl96o
gUdxzyAobNbrCBw6K4z4+Vd3fXtjBxV2Go3jLV2RJbM5cYLn36m4/hliHYXs+9oZ
zrVuym/7QxgilM+zrQ==
-----END CERTIFICATE-----
