Certificate:
    Data:
        Version: 3 (0x2)
        Serial Number: 11042563100247 (0xa0b0c0d0e57)
    Signature Algorithm: sha256WithRSAEncryption
        Issuer: CN=DELHICA_CA, C=IN, O=CITRIX, OU=ANG, ST=KA/emailAddress=DELHICA_CA@DELHICA_mail.com
        Validity
            Not Before: Aug 23 10:50:50 2017 GMT
            Not After : Aug 21 10:50:50 2027 GMT
        Subject: ST=KA, C=IN, CN=delhi_33_client/emailAddress=delhi_33@test_ca.com, O=CITRIX
        Subject Public Key Info:
            Public Key Algorithm: rsaEncryption
                Public-Key: (2048 bit)
                Modulus:
                    00:e8:f0:07:b0:28:04:18:cc:8e:99:1f:94:83:62:
                    9d:d6:af:11:e6:47:20:77:23:34:0d:91:39:18:b5:
                    51:63:cf:16:7e:65:a7:d5:ed:b9:69:4b:08:c7:c9:
                    1f:57:c2:da:b4:ad:d9:78:89:66:5c:d8:f2:0f:8e:
                    31:e3:e5:27:6c:14:1d:cd:54:f3:c2:a8:dc:2d:c1:
                    0b:5e:8f:00:1f:35:f0:9d:44:a3:36:a8:ff:fc:18:
                    db:e3:e0:a1:23:39:07:8c:40:14:5a:68:6d:07:7d:
                    72:c0:9d:fb:49:a6:4a:07:7c:d5:3d:df:6a:79:9a:
                    6a:7b:95:45:e6:6d:b7:ed:50:b6:f4:2f:8b:e5:18:
                    2b:ba:a2:c4:35:38:b8:1c:4c:fa:57:26:5c:52:76:
                    09:52:af:d3:89:2b:66:c1:d0:fa:5a:e1:f5:78:e1:
                    3a:3f:8f:71:ac:a7:64:15:ec:80:00:25:a1:a5:aa:
                    d7:5e:aa:04:59:14:f2:06:fe:43:b3:16:e9:a8:df:
                    a5:cf:1f:66:82:8b:d4:90:12:bb:db:3f:9c:7d:e6:
                    be:d8:02:5c:90:f3:00:fa:4c:dc:ec:b0:49:76:80:
                    44:f9:3e:08:e0:9b:24:87:cb:5c:cb:54:e0:b3:0c:
                    22:51:df:a6:29:30:67:67:d2:f0:e9:ed:48:2a:ea:
                    87:f1
                Exponent: 65537 (0x10001)
        X509v3 extensions:
            Netscape Cert Type: 
                SSL Server
            X509v3 Subject Key Identifier: 
                03:D2:81:58:B8:DE:EB:F0:54:F9:B0:03:D8:AB:69:A1:E1:D3:1E:C1
            X509v3 Authority Key Identifier: 
                keyid:D7:37:52:01:DC:2C:7A:57:85:CA:30:39:30:F0:D5:5D:5A:31:03:02
                DirName:/CN=DELHICA_CA/C=IN/O=CITRIX/OU=ANG/ST=KA/emailAddress=DELHICA_CA@DELHICA_mail.com
                serial:94:59:DC:51:4E:A5:13:27

            Authority Information Access: 
                OCSP - URI:http://172.20.20.1/responderpath

    Signature Algorithm: sha256WithRSAEncryption
         ba:d2:de:38:b5:b4:4e:9d:67:54:36:7f:32:c9:40:c9:4a:0a:
         de:0a:f8:e1:03:b4:97:df:48:1d:45:dd:0b:7b:a5:31:44:3f:
         b4:05:ec:cc:a2:35:10:3f:e8:91:9a:58:ad:d1:b0:ea:ae:1b:
         59:f5:e6:66:77:1a:e2:76:b3:7a:ef:7d:4f:19:52:18:96:02:
         05:9e:ea:7c:50:ab:16:3d:d5:c5:ba:51:3f:7d:05:8a:7a:27:
         eb:5c:f7:41:2f:2c:2e:de:df:cf:2d:a6:9f:7c:21:ad:39:84:
         73:e2:e5:72:7a:53:1f:38:54:48:52:75:a3:4f:96:47:4c:59:
         a6:ec:ee:43:51:fe:9f:d3:14:f8:20:18:fe:4d:93:bc:6a:91:
         47:c4:06:37:26:51:54:67:51:bd:de:84:56:d4:19:aa:f1:d0:
         98:49:8d:5c:cb:04:8f:bd:f0:cd:ef:b6:06:9f:b5:71:ca:0a:
         23:e9:66:e5:7b:73:8d:70:bc:62:96:28:e1:bd:d5:0f:83:79:
         c3:3a:2b:43:c0:a2:82:3d:fa:86:06:6b:09:3b:dc:bd:f9:73:
         b4:71:cb:9d:8a:25:6f:cd:7a:1e:59:94:4c:f4:1d:42:06:46:
         60:7d:fd:63:15:8d:3d:ce:b1:de:fd:44:fd:2d:99:c2:a6:a2:
         64:02:25:17
-----BEGIN CERTIFICATE-----
MIIEiTCCA3GgAwIBAgIGCgsMDQ5XMA0GCSqGSIb3DQEBCwUAMHoxEzARBgNVBAMU
CkRFTEhJQ0FfQ0ExCzAJBgNVBAYTAklOMQ8wDQYDVQQKEwZDSVRSSVgxDDAKBgNV
BAsTA0FORzELMAkGA1UECBMCS0ExKjAoBgkqhkiG9w0BCQEWG0RFTEhJQ0FfQ0FA
REVMSElDQV9tYWlsLmNvbTAeFw0xNzA4MjMxMDUwNTBaFw0yNzA4MjExMDUwNTBa
MGoxCzAJBgNVBAgTAktBMQswCQYDVQQGEwJJTjEYMBYGA1UEAxQPZGVsaGlfMzNf
Y2xpZW50MSMwIQYJKoZIhvcNAQkBFhRkZWxoaV8zM0B0ZXN0X2NhLmNvbTEPMA0G
A1UEChMGQ0lUUklYMIIBIjANBgkqhkiG9w0BAQEFAAOCAQ8AMIIBCgKCAQEA6PAH
sCgEGMyOmR+Ug2Kd1q8R5kcgdyM0DZE5GLVRY88WfmWn1e25aUsIx8kfV8LatK3Z
eIlmXNjyD44x4+UnbBQdzVTzwqjcLcELXo8AHzXwnUSjNqj//Bjb4+ChIzkHjEAU
WmhtB31ywJ37SaZKB3zVPd9qeZpqe5VF5m237VC29C+L5RgruqLENTi4HEz6VyZc
UnYJUq/TiStmwdD6WuH1eOE6P49xrKdkFeyAACWhparXXqoEWRTyBv5DsxbpqN+l
zx9mgovUkBK72z+cfea+2AJckPMA+kzc7LBJdoBE+T4I4Jskh8tcy1TgswwiUd+m
KTBnZ9Lw6e1IKuqH8QIDAQABo4IBIzCCAR8wEQYJYIZIAYb4QgEBBAQDAgZAMB0G
A1UdDgQWBBQD0oFYuN7r8FT5sAPYq2mh4dMewTCBrAYDVR0jBIGkMIGhgBTXN1IB
3Cx6V4XKMDkw8NVdWjEDAqF+pHwwejETMBEGA1UEAxQKREVMSElDQV9DQTELMAkG
A1UEBhMCSU4xDzANBgNVBAoTBkNJVFJJWDEMMAoGA1UECxMDQU5HMQswCQYDVQQI
EwJLQTEqMCgGCSqGSIb3DQEJARYbREVMSElDQV9DQUBERUxISUNBX21haWwuY29t
ggkAlFncUU6lEycwPAYIKwYBBQUHAQEEMDAuMCwGCCsGAQUFBzABhiBodHRwOi8v
MTcyLjIwLjIwLjEvcmVzcG9uZGVycGF0aDANBgkqhkiG9w0BAQsFAAOCAQEAutLe
OLW0Tp1nVDZ/MslAyUoK3gr44QO0l99IHUXdC3ulMUQ/tAXszKI1ED/okZpYrdGw
6q4bWfXmZnca4nazeu99TxlSGJYCBZ7qfFCrFj3VxbpRP30Finon61z3QS8sLt7f
zy2mn3whrTmEc+LlcnpTHzhUSFJ1o0+WR0xZpuzuQ1H+n9MU+CAY/k2TvGqRR8QG
NyZRVGdRvd6EVtQZqvHQmEmNXMsEj73wze+2Bp+1ccoKI+lm5XtzjXC8YpYo4b3V
D4N5wzorQ8Cigj36hgZrCTvcvflztHHLnYolb816HlmUTPQdQgZGYH39YxWNPc6x
3v1E/S2ZwqaiZAIlFw==
-----END CERTIFICATE-----
