Certificate:
    Data:
        Version: 3 (0x2)
        Serial Number: 11042563100221 (0xa0b0c0d0e3d)
    Signature Algorithm: sha256WithRSAEncryption
        Issuer: CN=DELHICA_CA, C=IN, O=CITRIX, OU=ANG, ST=KA/emailAddress=DELHICA_CA@DELHICA_mail.com
        Validity
            Not Before: Aug 23 10:50:34 2017 GMT
            Not After : Aug 21 10:50:34 2027 GMT
        Subject: ST=KA, C=IN, CN=delhi_7_client/emailAddress=delhi_7@test_ca.com, O=CITRIX
        Subject Public Key Info:
            Public Key Algorithm: rsaEncryption
                Public-Key: (2048 bit)
                Modulus:
                    00:e4:a5:7d:ed:44:3e:fd:7a:da:59:e7:a9:40:79:
                    08:79:36:63:ad:90:3f:08:6c:ea:5b:4a:ee:96:25:
                    fa:bb:e5:eb:65:3e:9b:66:fb:d1:ec:f6:d5:d9:00:
                    6c:27:e8:33:fc:62:1d:d0:ab:9e:37:aa:eb:7f:e7:
                    cb:3f:e8:93:7e:20:05:17:98:be:7c:8b:61:32:ca:
                    76:d5:78:ac:3a:14:56:7b:b2:03:91:40:4a:92:55:
                    94:2c:08:96:26:1e:00:4a:c3:23:1f:ba:24:cc:3b:
                    a2:67:e2:f6:f2:ba:81:3d:ef:56:cb:00:d6:fe:50:
                    14:0a:e5:d9:3e:79:d5:8e:1f:81:62:c6:48:08:1f:
                    0d:ae:1d:24:dc:95:b2:2c:96:4b:ff:34:b5:c6:42:
                    b9:77:60:19:6e:71:d7:61:45:22:9f:53:d3:2f:0f:
                    34:f1:53:cb:32:2a:5d:86:4a:52:d0:c6:5b:fe:d6:
                    27:68:bf:13:21:05:dd:0c:b7:66:03:9f:c5:2d:ed:
                    e2:b3:b7:f0:ed:83:5a:5c:27:24:4b:52:1d:1f:0e:
                    fd:08:bc:31:37:6b:54:52:aa:46:47:b0:2b:88:08:
                    38:18:df:49:2f:c8:10:cd:80:0d:1e:5e:81:20:0e:
                    a0:0a:a5:e9:20:30:d9:6d:51:97:94:c3:17:5f:5c:
                    c6:0f
                Exponent: 65537 (0x10001)
        X509v3 extensions:
            Netscape Cert Type: 
                SSL Server
            X509v3 Subject Key Identifier: 
                80:F0:ED:1D:25:3B:5E:63:0F:AB:49:80:46:DE:E1:03:67:DF:E5:1E
            X509v3 Authority Key Identifier: 
                keyid:D7:37:52:01:DC:2C:7A:57:85:CA:30:39:30:F0:D5:5D:5A:31:03:02
                DirName:/CN=DELHICA_CA/C=IN/O=CITRIX/OU=ANG/ST=KA/emailAddress=DELHICA_CA@DELHICA_mail.com
                serial:94:59:DC:51:4E:A5:13:27

            Authority Information Access: 
                OCSP - URI:http://172.20.20.1/responderpath

    Signature Algorithm: sha256WithRSAEncryption
         24:b7:a3:df:02:d1:3d:8b:fd:5e:dc:24:6c:8a:83:89:b8:75:
         d2:ed:50:b5:ef:45:e2:7d:dc:59:89:b0:3d:03:cd:b3:80:4b:
         2f:ea:9d:52:fa:21:8f:98:42:09:97:7b:3c:9e:d5:73:5a:61:
         87:4a:f5:dd:e4:bc:36:f0:3e:44:1f:92:5e:47:86:66:45:54:
         a4:61:73:9f:aa:79:9c:00:b9:dd:79:47:a0:16:98:a1:78:0d:
         f6:43:a8:5e:cb:8c:a9:71:1b:87:42:f6:65:05:f1:a0:75:10:
         97:b9:af:51:b5:1c:2b:4a:28:80:2d:7a:b1:d5:5c:d4:b8:1a:
         7a:31:ab:5e:f2:23:dc:2b:e2:f8:cb:86:16:f1:9a:27:87:13:
         db:78:e1:4d:1d:28:0b:cc:a2:b3:dd:f6:0c:73:3e:02:3a:dc:
         84:9c:2a:11:59:93:4d:f1:e0:b5:10:da:9c:62:60:cb:86:bb:
         d1:9a:12:51:c5:74:cc:25:8a:70:dc:04:81:f6:d8:ae:1c:b3:
         bc:90:c6:28:3d:86:d2:08:ad:de:54:eb:73:4d:ba:24:dc:97:
         e1:8b:71:c9:17:74:a3:1b:e8:fb:c0:6a:9c:ac:5a:3e:4a:d4:
         d8:05:03:93:83:c6:71:1f:ad:55:3a:8a:42:a2:37:fc:c7:29:
         d4:f2:81:05
-----BEGIN CERTIFICATE-----
MIIEhzCCA2+gAwIBAgIGCgsMDQ49MA0GCSqGSIb3DQEBCwUAMHoxEzARBgNVBAMU
CkRFTEhJQ0FfQ0ExCzAJBgNVBAYTAklOMQ8wDQYDVQQKEwZDSVRSSVgxDDAKBgNV
BAsTA0FORzELMAkGA1UECBMCS0ExKjAoBgkqhkiG9w0BCQEWG0RFTEhJQ0FfQ0FA
REVMSElDQV9tYWlsLmNvbTAeFw0xNzA4MjMxMDUwMzRaFw0yNzA4MjExMDUwMzRa
MGgxCzAJBgNVBAgTAktBMQswCQYDVQQGEwJJTjEXMBUGA1UEAxQOZGVsaGlfN19j
bGllbnQxIjAgBgkqhkiG9w0BCQEWE2RlbGhpXzdAdGVzdF9jYS5jb20xDzANBgNV
BAoTBkNJVFJJWDCCASIwDQYJKoZIhvcNAQEBBQADggEPADCCAQoCggEBAOSlfe1E
Pv162lnnqUB5CHk2Y62QPwhs6ltK7pYl+rvl62U+m2b70ez21dkAbCfoM/xiHdCr
njeq63/nyz/ok34gBReYvnyLYTLKdtV4rDoUVnuyA5FASpJVlCwIliYeAErDIx+6
JMw7omfi9vK6gT3vVssA1v5QFArl2T551Y4fgWLGSAgfDa4dJNyVsiyWS/80tcZC
uXdgGW5x12FFIp9T0y8PNPFTyzIqXYZKUtDGW/7WJ2i/EyEF3Qy3ZgOfxS3t4rO3
8O2DWlwnJEtSHR8O/Qi8MTdrVFKqRkewK4gIOBjfSS/IEM2ADR5egSAOoAql6SAw
2W1Rl5TDF19cxg8CAwEAAaOCASMwggEfMBEGCWCGSAGG+EIBAQQEAwIGQDAdBgNV
HQ4EFgQUgPDtHSU7XmMPq0mARt7hA2ff5R4wgawGA1UdIwSBpDCBoYAU1zdSAdws
eleFyjA5MPDVXVoxAwKhfqR8MHoxEzARBgNVBAMUCkRFTEhJQ0FfQ0ExCzAJBgNV
BAYTAklOMQ8wDQYDVQQKEwZDSVRSSVgxDDAKBgNVBAsTA0FORzELMAkGA1UECBMC
S0ExKjAoBgkqhkiG9w0BCQEWG0RFTEhJQ0FfQ0FAREVMSElDQV9tYWlsLmNvbYIJ
AJRZ3FFOpRMnMDwGCCsGAQUFBwEBBDAwLjAsBggrBgEFBQcwAYYgaHR0cDovLzE3
Mi4yMC4yMC4xL3Jlc3BvbmRlcnBhdGgwDQYJKoZIhvcNAQELBQADggEBACS3o98C
0T2L/V7cJGyKg4m4ddLtULXvReJ93FmJsD0DzbOASy/qnVL6IY+YQgmXezye1XNa
YYdK9d3kvDbwPkQfkl5HhmZFVKRhc5+qeZwAud15R6AWmKF4DfZDqF7LjKlxG4dC
9mUF8aB1EJe5r1G1HCtKKIAterHVXNS4Gnoxq17yI9wr4vjLhhbxmieHE9t44U0d
KAvMorPd9gxzPgI63IScKhFZk03x4LUQ2pxiYMuGu9GaElHFdMwlinDcBIH22K4c
s7yQxig9htIIrd5U63NNuiTcl+GLcckXdKMb6PvAapysWj5K1NgFA5ODxnEfrVU6
ikKiN/zHKdTygQU=
-----END CERTIFICATE-----
