Certificate:
    Data:
        Version: 3 (0x2)
        Serial Number: 11042563100225 (0xa0b0c0d0e41)
    Signature Algorithm: sha256WithRSAEncryption
        Issuer: CN=DELHICA_CA, C=IN, O=CITRIX, OU=ANG, ST=KA/emailAddress=DELHICA_CA@DELHICA_mail.com
        Validity
            Not Before: Aug 23 10:50:36 2017 GMT
            Not After : Aug 21 10:50:36 2027 GMT
        Subject: ST=KA, C=IN, CN=delhi_11_client/emailAddress=delhi_11@test_ca.com, O=CITRIX
        Subject Public Key Info:
            Public Key Algorithm: rsaEncryption
                Public-Key: (2048 bit)
                Modulus:
                    00:b5:83:02:a1:2b:b1:22:f4:c7:67:d8:84:30:9e:
                    75:3a:2c:f8:94:14:3c:8a:98:81:20:63:ec:e7:9d:
                    28:09:a5:2c:dd:9e:e0:9f:6f:d1:59:68:c3:11:ac:
                    68:d9:ee:3d:87:89:70:78:ab:3d:16:1a:1b:16:c1:
                    48:a7:91:47:01:18:9e:b6:76:9d:9b:23:74:96:a9:
                    aa:bb:45:c6:2f:08:8d:f8:01:4e:a7:fd:d0:13:84:
                    20:38:0d:ce:20:b9:d6:d4:93:1e:08:8b:71:8b:02:
                    3a:33:43:28:11:5e:6c:49:4c:1d:e0:d9:68:8f:5b:
                    b3:85:28:14:e3:30:9f:9d:f1:92:56:d0:72:09:20:
                    b8:36:5f:e2:ab:4a:05:45:ac:8d:da:61:82:f7:61:
                    70:f7:af:2e:d5:9f:98:2b:83:7c:35:d1:f7:7f:65:
                    a8:82:56:10:02:01:23:13:5d:6f:39:b0:c0:b2:1b:
                    f1:2b:37:7b:da:09:49:8a:bf:93:e6:a2:f7:a0:cb:
                    ff:2e:7e:9d:c1:dd:86:20:bf:47:af:56:5c:eb:b9:
                    30:03:1e:28:e8:c3:e1:f6:12:54:e5:13:63:16:23:
                    34:3f:37:1f:d9:0f:52:94:60:be:2f:59:4e:b0:fb:
                    3b:4d:4d:ef:54:39:a8:7c:54:6a:d9:fb:da:f5:17:
                    1d:31
                Exponent: 65537 (0x10001)
        X509v3 extensions:
            Netscape Cert Type: 
                SSL Server
            X509v3 Subject Key Identifier: 
                47:DD:98:31:4E:FD:C5:1B:29:7D:94:F7:60:D5:6C:15:B2:10:D3:50
            X509v3 Authority Key Identifier: 
                keyid:D7:37:52:01:DC:2C:7A:57:85:CA:30:39:30:F0:D5:5D:5A:31:03:02
                DirName:/CN=DELHICA_CA/C=IN/O=CITRIX/OU=ANG/ST=KA/emailAddress=DELHICA_CA@DELHICA_mail.com
                serial:94:59:DC:51:4E:A5:13:27

            Authority Information Access: 
                OCSP - URI:http://172.20.20.1/responderpath

    Signature Algorithm: sha256WithRSAEncryption
         e5:f3:3f:c2:ab:3b:07:75:1c:2c:ed:2d:12:9e:09:df:98:e5:
         de:84:98:da:e2:92:fc:9a:6c:42:3c:d7:1e:d0:ee:fd:38:31:
         51:82:d1:ab:3f:c3:01:8d:46:00:b6:41:ab:f6:1d:3a:92:c2:
         60:4f:0c:e1:4a:2d:fe:07:c3:31:19:35:ea:43:04:0e:f9:43:
         af:c5:39:47:7f:f5:29:eb:e5:23:b5:ed:6f:34:ba:78:4b:37:
         a3:04:6c:70:dd:0b:c4:a0:75:f2:48:48:f7:2c:c8:cf:e1:15:
         64:24:d8:99:4d:0b:57:c6:f4:d6:a1:99:f7:3a:1c:24:23:29:
         f0:7d:52:b1:d9:2d:a8:1d:17:d1:9b:40:f9:86:85:94:44:18:
         d0:be:02:73:34:06:32:74:af:da:ce:b5:24:5f:fc:22:2a:79:
         67:84:fc:66:d7:7e:63:7c:95:23:33:70:74:aa:30:6a:7f:17:
         a9:13:a6:9d:53:c2:20:d2:5d:91:24:fb:6d:b8:aa:3e:74:2b:
         7a:ad:08:c7:15:16:ae:bd:a8:06:31:06:c8:10:11:ce:4a:6c:
         22:ae:15:8e:8a:40:0f:10:b6:a4:e4:12:d4:ac:32:90:66:2c:
         13:06:54:9d:5d:18:7f:fe:28:b0:80:b1:70:df:74:af:20:11:
         2b:7a:b4:85
-----BEGIN CERTIFICATE-----
MIIEiTCCA3GgAwIBAgIGCgsMDQ5BMA0GCSqGSIb3DQEBCwUAMHoxEzARBgNVBAMU
CkRFTEhJQ0FfQ0ExCzAJBgNVBAYTAklOMQ8wDQYDVQQKEwZDSVRSSVgxDDAKBgNV
BAsTA0FORzELMAkGA1UECBMCS0ExKjAoBgkqhkiG9w0BCQEWG0RFTEhJQ0FfQ0FA
REVMSElDQV9tYWlsLmNvbTAeFw0xNzA4MjMxMDUwMzZaFw0yNzA4MjExMDUwMzZa
MGoxCzAJBgNVBAgTAktBMQswCQYDVQQGEwJJTjEYMBYGA1UEAxQPZGVsaGlfMTFf
Y2xpZW50MSMwIQYJKoZIhvcNAQkBFhRkZWxoaV8xMUB0ZXN0X2NhLmNvbTEPMA0G
A1UEChMGQ0lUUklYMIIBIjANBgkqhkiG9w0BAQEFAAOCAQ8AMIIBCgKCAQEAtYMC
oSuxIvTHZ9iEMJ51Oiz4lBQ8ipiBIGPs550oCaUs3Z7gn2/RWWjDEaxo2e49h4lw
eKs9FhobFsFIp5FHARietnadmyN0lqmqu0XGLwiN+AFOp/3QE4QgOA3OILnW1JMe
CItxiwI6M0MoEV5sSUwd4Nloj1uzhSgU4zCfnfGSVtByCSC4Nl/iq0oFRayN2mGC
92Fw968u1Z+YK4N8NdH3f2WoglYQAgEjE11vObDAshvxKzd72glJir+T5qL3oMv/
Ln6dwd2GIL9Hr1Zc67kwAx4o6MPh9hJU5RNjFiM0Pzcf2Q9SlGC+L1lOsPs7TU3v
VDmofFRq2fva9RcdMQIDAQABo4IBIzCCAR8wEQYJYIZIAYb4QgEBBAQDAgZAMB0G
A1UdDgQWBBRH3ZgxTv3FGyl9lPdg1WwVshDTUDCBrAYDVR0jBIGkMIGhgBTXN1IB
3Cx6V4XKMDkw8NVdWjEDAqF+pHwwejETMBEGA1UEAxQKREVMSElDQV9DQTELMAkG
A1UEBhMCSU4xDzANBgNVBAoTBkNJVFJJWDEMMAoGA1UECxMDQU5HMQswCQYDVQQI
EwJLQTEqMCgGCSqGSIb3DQEJARYbREVMSElDQV9DQUBERUxISUNBX21haWwuY29t
ggkAlFncUU6lEycwPAYIKwYBBQUHAQEEMDAuMCwGCCsGAQUFBzABhiBodHRwOi8v
MTcyLjIwLjIwLjEvcmVzcG9uZGVycGF0aDANBgkqhkiG9w0BAQsFAAOCAQEA5fM/
wqs7B3UcLO0tEp4J35jl3oSY2uKS/JpsQjzXHtDu/TgxUYLRqz/DAY1GALZBq/Yd
OpLCYE8M4Uot/gfDMRk16kMEDvlDr8U5R3/1KevlI7XtbzS6eEs3owRscN0LxKB1
8khI9yzIz+EVZCTYmU0LV8b01qGZ9zocJCMp8H1SsdktqB0X0ZtA+YaFlEQY0L4C
czQGMnSv2s61JF/8Iip5Z4T8Ztd+Y3yVIzNwdKowan8XqROmnVPCINJdkST7bbiq
PnQreq0IxxUWrr2oBjEGyBARzkpsIq4VjopADxC2pOQS1KwykGYsEwZUnV0Yf/4o
sICxcN90ryARK3q0hQ==
-----END CERTIFICATE-----
