Certificate:
    Data:
        Version: 3 (0x2)
        Serial Number: 11042563100261 (0xa0b0c0d0e65)
    Signature Algorithm: sha256WithRSAEncryption
        Issuer: CN=DELHICA_CA, C=IN, O=CITRIX, OU=ANG, ST=KA/emailAddress=DELHICA_CA@DELHICA_mail.com
        Validity
            Not Before: Aug 23 10:51:01 2017 GMT
            Not After : Aug 21 10:51:01 2027 GMT
        Subject: ST=KA, C=IN, CN=delhi_47_client/emailAddress=delhi_47@test_ca.com, O=CITRIX
        Subject Public Key Info:
            Public Key Algorithm: rsaEncryption
                Public-Key: (2048 bit)
                Modulus:
                    00:a8:6d:b1:0a:74:6e:fa:70:97:de:79:f3:22:18:
                    fa:6d:42:15:e7:ec:f8:06:fd:df:cf:ec:5c:8f:96:
                    84:fc:73:2a:cf:32:a3:79:df:da:cc:97:aa:68:e7:
                    e5:7d:37:96:89:26:17:c7:49:fb:06:39:92:26:0f:
                    2f:74:22:1d:d4:7a:e4:7f:8b:9a:5b:d7:17:65:b9:
                    87:6f:14:57:fa:b0:f7:49:6b:10:af:5a:13:24:69:
                    fc:7a:63:52:7a:69:98:72:7c:58:e0:6d:ac:51:4d:
                    03:31:57:90:f9:72:38:7d:28:eb:14:e5:c7:9d:4f:
                    95:29:7a:aa:52:92:33:95:2f:07:1f:8f:76:32:25:
                    14:98:12:e0:42:92:28:61:21:81:24:1f:b5:60:19:
                    c1:22:61:6e:3c:66:98:53:06:0e:14:88:0f:ef:15:
                    a2:84:ef:a8:9e:e7:6c:e4:d5:e7:5b:50:90:23:ec:
                    ea:5f:d7:f6:b3:e7:40:e0:de:5f:01:f3:05:40:fa:
                    a2:8f:b9:d4:84:11:60:98:7e:1f:c3:c6:74:ec:3c:
                    2a:4c:a6:5c:c2:c9:18:dd:73:10:6a:c5:07:38:47:
                    54:39:11:cf:36:9f:a0:6a:3e:4a:29:26:23:d4:f5:
                    0c:4c:01:87:69:1d:49:25:96:eb:a5:ec:9b:31:c8:
                    d6:df
                Exponent: 65537 (0x10001)
        X509v3 extensions:
            Netscape Cert Type: 
                SSL Server
            X509v3 Subject Key Identifier: 
                6E:F8:03:D3:80:41:75:01:70:57:21:5A:E8:8A:19:69:25:34:63:34
            X509v3 Authority Key Identifier: 
                keyid:D7:37:52:01:DC:2C:7A:57:85:CA:30:39:30:F0:D5:5D:5A:31:03:02
                DirName:/CN=DELHICA_CA/C=IN/O=CITRIX/OU=ANG/ST=KA/emailAddress=DELHICA_CA@DELHICA_mail.com
                serial:94:59:DC:51:4E:A5:13:27

            Authority Information Access: 
                OCSP - URI:http://172.20.20.1/responderpath

    Signature Algorithm: sha256WithRSAEncryption
         78:67:1c:8c:52:54:39:65:1d:d3:20:d6:54:ed:91:34:30:4d:
         80:48:79:37:dd:7e:25:8d:b9:c9:44:39:a4:b5:fc:2b:4d:95:
         c4:28:14:49:8a:3f:03:48:67:46:72:5d:e4:94:72:c6:c1:20:
         a5:35:4c:9d:4e:b9:23:8d:ad:16:d0:e0:8d:f5:cd:f0:e1:70:
         66:84:3e:2a:6e:69:b6:be:83:d1:47:5f:9d:ff:0c:aa:84:d7:
         bd:01:b0:86:ee:c1:46:34:6c:68:34:c3:ca:c4:7f:ba:71:05:
         2d:2f:d2:30:fb:1b:8a:44:97:30:46:ec:86:3c:70:31:5f:82:
         8b:a7:8d:d9:57:47:42:43:a9:28:5e:83:5f:e6:d4:83:c2:36:
         c2:8e:66:6b:b3:f2:b8:7c:cf:e7:d4:d6:29:0c:aa:ee:16:f1:
         60:c4:29:6e:2a:2c:2a:9c:58:4a:3c:b6:2c:d3:a5:12:93:95:
         76:d2:86:c1:f1:c6:9c:43:75:34:a0:39:f0:92:70:e2:ad:5e:
         d7:a9:05:68:1d:b3:49:80:3e:3e:6a:01:a6:6f:50:3f:13:ac:
         76:3a:5b:70:44:e1:5b:1d:d9:0c:01:93:3c:22:b7:32:ee:66:
         5b:28:1a:63:b1:e6:6b:56:17:15:88:41:25:9a:ae:0f:04:69:
         ad:fc:79:1f
-----BEGIN CERTIFICATE-----
MIIEiTCCA3GgAwIBAgIGCgsMDQ5lMA0GCSqGSIb3DQEBCwUAMHoxEzARBgNVBAMU
CkRFTEhJQ0FfQ0ExCzAJBgNVBAYTAklOMQ8wDQYDVQQKEwZDSVRSSVgxDDAKBgNV
BAsTA0FORzELMAkGA1UECBMCS0ExKjAoBgkqhkiG9w0BCQEWG0RFTEhJQ0FfQ0FA
REVMSElDQV9tYWlsLmNvbTAeFw0xNzA4MjMxMDUxMDFaFw0yNzA4MjExMDUxMDFa
MGoxCzAJBgNVBAgTAktBMQswCQYDVQQGEwJJTjEYMBYGA1UEAxQPZGVsaGlfNDdf
Y2xpZW50MSMwIQYJKoZIhvcNAQkBFhRkZWxoaV80N0B0ZXN0X2NhLmNvbTEPMA0G
A1UEChMGQ0lUUklYMIIBIjANBgkqhkiG9w0BAQEFAAOCAQ8AMIIBCgKCAQEAqG2x
CnRu+nCX3nnzIhj6bUIV5+z4Bv3fz+xcj5aE/HMqzzKjed/azJeqaOflfTeWiSYX
x0n7BjmSJg8vdCId1Hrkf4uaW9cXZbmHbxRX+rD3SWsQr1oTJGn8emNSemmYcnxY
4G2sUU0DMVeQ+XI4fSjrFOXHnU+VKXqqUpIzlS8HH492MiUUmBLgQpIoYSGBJB+1
YBnBImFuPGaYUwYOFIgP7xWihO+onuds5NXnW1CQI+zqX9f2s+dA4N5fAfMFQPqi
j7nUhBFgmH4fw8Z07DwqTKZcwskY3XMQasUHOEdUORHPNp+gaj5KKSYj1PUMTAGH
aR1JJZbrpeybMcjW3wIDAQABo4IBIzCCAR8wEQYJYIZIAYb4QgEBBAQDAgZAMB0G
A1UdDgQWBBRu+APTgEF1AXBXIVroihlpJTRjNDCBrAYDVR0jBIGkMIGhgBTXN1IB
3Cx6V4XKMDkw8NVdWjEDAqF+pHwwejETMBEGA1UEAxQKREVMSElDQV9DQTELMAkG
A1UEBhMCSU4xDzANBgNVBAoTBkNJVFJJWDEMMAoGA1UECxMDQU5HMQswCQYDVQQI
EwJLQTEqMCgGCSqGSIb3DQEJARYbREVMSElDQV9DQUBERUxISUNBX21haWwuY29t
ggkAlFncUU6lEycwPAYIKwYBBQUHAQEEMDAuMCwGCCsGAQUFBzABhiBodHRwOi8v
MTcyLjIwLjIwLjEvcmVzcG9uZGVycGF0aDANBgkqhkiG9w0BAQsFAAOCAQEAeGcc
jFJUOWUd0yDWVO2RNDBNgEh5N91+JY25yUQ5pLX8K02VxCgUSYo/A0hnRnJd5JRy
xsEgpTVMnU65I42tFtDgjfXN8OFwZoQ+Km5ptr6D0Udfnf8MqoTXvQGwhu7BRjRs
aDTDysR/unEFLS/SMPsbikSXMEbshjxwMV+Ci6eN2VdHQkOpKF6DX+bUg8I2wo5m
a7PyuHzP59TWKQyq7hbxYMQpbiosKpxYSjy2LNOlEpOVdtKGwfHGnEN1NKA58JJw
4q1e16kFaB2zSYA+PmoBpm9QPxOsdjpbcEThWx3ZDAGTPCK3Mu5mWygaY7Hma1YX
FYhBJZquDwRprfx5Hw==
-----END CERTIFICATE-----
