Certificate:
    Data:
        Version: 3 (0x2)
        Serial Number: 11042563100257 (0xa0b0c0d0e61)
    Signature Algorithm: sha256WithRSAEncryption
        Issuer: CN=DELHICA_CA, C=IN, O=CITRIX, OU=ANG, ST=KA/emailAddress=DELHICA_CA@DELHICA_mail.com
        Validity
            Not Before: Aug 23 10:50:58 2017 GMT
            Not After : Aug 21 10:50:58 2027 GMT
        Subject: ST=KA, C=IN, CN=delhi_43_client/emailAddress=delhi_43@test_ca.com, O=CITRIX
        Subject Public Key Info:
            Public Key Algorithm: rsaEncryption
                Public-Key: (2048 bit)
                Modulus:
                    00:db:c0:81:c1:e4:cc:ef:1a:ad:91:a4:c7:e9:41:
                    90:9d:97:51:62:9e:15:b0:9c:41:bd:0d:b0:ad:8e:
                    65:14:25:b4:68:b1:a5:54:91:c5:b5:06:e8:a5:cb:
                    f3:f2:0d:3a:cd:9d:6b:bc:4e:e7:d1:dd:c2:77:8f:
                    79:2f:00:9c:48:4a:e3:5f:2a:f1:ae:25:4c:e8:e0:
                    a9:98:48:73:e4:3f:2a:fc:da:09:8f:eb:0f:c0:09:
                    bb:ed:c3:6b:e3:38:2d:28:fd:03:c3:f9:f0:0e:6f:
                    73:21:32:82:d3:d0:31:bf:4e:40:8b:5b:85:e8:8e:
                    ba:57:89:b9:e9:87:c2:71:3d:13:a8:40:50:89:95:
                    00:1e:4f:dc:34:90:b9:80:f5:ca:5f:f1:4b:f0:f3:
                    56:e1:60:e1:42:17:8d:b4:88:93:54:37:73:bf:44:
                    ba:a6:f2:d9:19:66:99:69:b9:b8:e8:38:dd:26:10:
                    fc:9f:3a:c2:20:ce:51:a0:34:ed:f7:29:15:a2:e0:
                    b4:5a:ca:91:98:34:fc:51:6a:8c:77:e4:49:26:e1:
                    50:d8:60:0e:01:65:97:33:04:82:89:69:45:ef:c7:
                    25:df:ec:df:4a:45:a9:67:c1:bb:0e:d9:44:28:d1:
                    52:79:04:f8:b5:54:ea:9b:c3:c2:f1:7e:6e:2e:49:
                    a7:55
                Exponent: 65537 (0x10001)
        X509v3 extensions:
            Netscape Cert Type: 
                SSL Server
            X509v3 Subject Key Identifier: 
                F8:58:66:29:E6:89:18:44:D7:77:0E:A6:0E:02:E5:A6:E9:22:E0:72
            X509v3 Authority Key Identifier: 
                keyid:D7:37:52:01:DC:2C:7A:57:85:CA:30:39:30:F0:D5:5D:5A:31:03:02
                DirName:/CN=DELHICA_CA/C=IN/O=CITRIX/OU=ANG/ST=KA/emailAddress=DELHICA_CA@DELHICA_mail.com
                serial:94:59:DC:51:4E:A5:13:27

            Authority Information Access: 
                OCSP - URI:http://172.20.20.1/responderpath

    Signature Algorithm: sha256WithRSAEncryption
         56:39:ba:8e:ed:cd:92:a9:b7:47:8f:60:7c:bf:f7:df:30:a1:
         c8:e8:b2:02:f9:66:f5:4c:0c:96:b9:17:40:a1:90:2f:ad:67:
         9b:82:a9:33:7f:a6:52:a4:cf:20:07:29:3c:b1:23:d2:b6:55:
         54:1d:c3:49:64:63:4d:0c:f1:df:6f:e8:68:60:ff:e5:8a:2b:
         31:02:82:65:2b:44:c0:21:70:1a:6e:b1:1c:b1:9b:0d:61:7b:
         48:db:b6:a0:d4:44:5b:9f:6d:c8:33:d4:bb:aa:83:54:a2:87:
         d4:47:23:6e:ce:08:25:2b:67:61:4c:51:d7:b5:44:f2:2b:4f:
         5d:41:0b:82:56:51:eb:ac:3e:9c:94:bb:8a:93:da:c9:0d:7b:
         82:20:a2:dc:df:12:b9:a4:dd:b9:00:31:f4:50:bb:12:99:8f:
         aa:18:cd:bb:02:4c:5e:c3:0d:55:6c:93:03:0b:6e:6f:da:b4:
         22:19:6b:1f:58:cb:00:e3:04:08:f9:e6:23:fd:b4:3e:87:8c:
         11:e8:4a:ca:5d:97:29:67:22:0b:42:a0:38:a7:21:bc:39:2e:
         ce:30:6a:75:a1:4c:6e:1e:12:cb:97:42:b7:e0:6e:2b:93:36:
         12:a1:9d:bd:9c:f6:04:ab:99:e6:b9:e0:c7:3c:a0:02:65:cf:
         fd:21:df:b7
-----BEGIN CERTIFICATE-----
MIIEiTCCA3GgAwIBAgIGCgsMDQ5hMA0GCSqGSIb3DQEBCwUAMHoxEzARBgNVBAMU
CkRFTEhJQ0FfQ0ExCzAJBgNVBAYTAklOMQ8wDQYDVQQKEwZDSVRSSVgxDDAKBgNV
BAsTA0FORzELMAkGA1UECBMCS0ExKjAoBgkqhkiG9w0BCQEWG0RFTEhJQ0FfQ0FA
REVMSElDQV9tYWlsLmNvbTAeFw0xNzA4MjMxMDUwNThaFw0yNzA4MjExMDUwNTha
MGoxCzAJBgNVBAgTAktBMQswCQYDVQQGEwJJTjEYMBYGA1UEAxQPZGVsaGlfNDNf
Y2xpZW50MSMwIQYJKoZIhvcNAQkBFhRkZWxoaV80M0B0ZXN0X2NhLmNvbTEPMA0G
A1UEChMGQ0lUUklYMIIBIjANBgkqhkiG9w0BAQEFAAOCAQ8AMIIBCgKCAQEA28CB
weTM7xqtkaTH6UGQnZdRYp4VsJxBvQ2wrY5lFCW0aLGlVJHFtQbopcvz8g06zZ1r
vE7n0d3Cd495LwCcSErjXyrxriVM6OCpmEhz5D8q/NoJj+sPwAm77cNr4zgtKP0D
w/nwDm9zITKC09Axv05Ai1uF6I66V4m56YfCcT0TqEBQiZUAHk/cNJC5gPXKX/FL
8PNW4WDhQheNtIiTVDdzv0S6pvLZGWaZabm46DjdJhD8nzrCIM5RoDTt9ykVouC0
WsqRmDT8UWqMd+RJJuFQ2GAOAWWXMwSCiWlF78cl3+zfSkWpZ8G7DtlEKNFSeQT4
tVTqm8PC8X5uLkmnVQIDAQABo4IBIzCCAR8wEQYJYIZIAYb4QgEBBAQDAgZAMB0G
A1UdDgQWBBT4WGYp5okYRNd3DqYOAuWm6SLgcjCBrAYDVR0jBIGkMIGhgBTXN1IB
3Cx6V4XKMDkw8NVdWjEDAqF+pHwwejETMBEGA1UEAxQKREVMSElDQV9DQTELMAkG
A1UEBhMCSU4xDzANBgNVBAoTBkNJVFJJWDEMMAoGA1UECxMDQU5HMQswCQYDVQQI
EwJLQTEqMCgGCSqGSIb3DQEJARYbREVMSElDQV9DQUBERUxISUNBX21haWwuY29t
ggkAlFncUU6lEycwPAYIKwYBBQUHAQEEMDAuMCwGCCsGAQUFBzABhiBodHRwOi8v
MTcyLjIwLjIwLjEvcmVzcG9uZGVycGF0aDANBgkqhkiG9w0BAQsFAAOCAQEAVjm6
ju3Nkqm3R49gfL/33zChyOiyAvlm9UwMlrkXQKGQL61nm4KpM3+mUqTPIAcpPLEj
0rZVVB3DSWRjTQzx32/oaGD/5YorMQKCZStEwCFwGm6xHLGbDWF7SNu2oNREW59t
yDPUu6qDVKKH1Ecjbs4IJStnYUxR17VE8itPXUELglZR66w+nJS7ipPayQ17giCi
3N8SuaTduQAx9FC7EpmPqhjNuwJMXsMNVWyTAwtub9q0IhlrH1jLAOMECPnmI/20
PoeMEehKyl2XKWciC0KgOKchvDkuzjBqdaFMbh4Sy5dCt+BuK5M2EqGdvZz2BKuZ
5rngxzygAmXP/SHftw==
-----END CERTIFICATE-----
