Certificate:
    Data:
        Version: 3 (0x2)
        Serial Number: 11042563100246 (0xa0b0c0d0e56)
    Signature Algorithm: sha256WithRSAEncryption
        Issuer: CN=DELHICA_CA, C=IN, O=CITRIX, OU=ANG, ST=KA/emailAddress=DELHICA_CA@DELHICA_mail.com
        Validity
            Not Before: Aug 23 10:50:49 2017 GMT
            Not After : Aug 21 10:50:49 2027 GMT
        Subject: ST=KA, C=IN, CN=delhi_32_client/emailAddress=delhi_32@test_ca.com, O=CITRIX
        Subject Public Key Info:
            Public Key Algorithm: rsaEncryption
                Public-Key: (2048 bit)
                Modulus:
                    00:c0:b7:da:b3:c5:58:f7:b6:06:11:40:6d:48:62:
                    33:49:1c:93:5c:ff:6b:11:b2:27:51:67:ba:ec:84:
                    a2:75:9f:f0:f2:0e:3f:8d:65:d1:d1:4f:44:aa:ff:
                    5d:9f:d2:d2:2e:69:08:75:4c:e0:c4:d6:94:40:5f:
                    78:53:6d:1b:50:97:e4:a3:95:c0:a4:5d:bd:8a:ed:
                    4f:93:91:f1:63:36:ee:c2:95:b0:08:79:5e:d9:30:
                    34:46:b6:65:39:04:93:9b:c6:4c:6e:98:a2:cf:1a:
                    53:8b:e4:9e:23:99:a8:29:57:78:ae:00:71:c8:cf:
                    9d:4c:ec:95:64:1c:b7:ac:15:40:cc:33:28:08:c6:
                    ac:eb:3c:02:c2:3c:74:89:61:9d:06:87:a6:04:0c:
                    be:e8:63:7f:5f:9b:88:49:fe:54:10:64:75:f4:c3:
                    9d:b6:cb:09:55:7d:0d:44:a0:ca:d7:64:a1:14:18:
                    49:cc:b2:a1:87:4e:1f:e0:63:e2:9c:93:30:ae:1b:
                    8b:82:00:31:6c:87:92:dc:5f:df:11:28:e8:77:d8:
                    a4:89:3d:42:5a:c3:41:4f:d5:b0:6f:e6:78:76:a1:
                    59:01:1e:a4:e1:1e:ab:c9:cb:12:e3:8b:01:41:b7:
                    8d:c8:9b:dd:01:cd:fd:a2:42:a6:7a:73:32:41:5d:
                    48:a1
                Exponent: 65537 (0x10001)
        X509v3 extensions:
            Netscape Cert Type: 
                SSL Server
            X509v3 Subject Key Identifier: 
                92:BA:50:57:8C:E6:57:0C:BC:3B:66:27:E8:48:CC:1A:6F:E0:EF:7F
            X509v3 Authority Key Identifier: 
                keyid:D7:37:52:01:DC:2C:7A:57:85:CA:30:39:30:F0:D5:5D:5A:31:03:02
                DirName:/CN=DELHICA_CA/C=IN/O=CITRIX/OU=ANG/ST=KA/emailAddress=DELHICA_CA@DELHICA_mail.com
                serial:94:59:DC:51:4E:A5:13:27

            Authority Information Access: 
                OCSP - URI:http://172.20.20.1/responderpath

    Signature Algorithm: sha256WithRSAEncryption
         e1:9f:34:76:ad:85:d4:0f:60:5e:b7:63:a8:a4:da:f7:7d:9b:
         87:36:2d:53:21:aa:24:30:d7:90:2b:b4:3b:c1:14:e9:69:6f:
         a5:75:5f:0b:44:b0:41:fa:52:65:90:eb:9c:ae:28:54:02:52:
         68:ea:7d:eb:5e:d9:d5:f9:6c:57:b8:ba:ef:fb:c6:3a:89:e5:
         f9:93:5e:bd:00:50:c9:66:47:3f:51:26:bd:eb:03:29:b3:a5:
         dc:74:4f:8b:6b:3b:cf:b1:03:32:e8:6d:72:3c:34:0e:7e:dd:
         a3:5d:57:ab:8e:06:2d:41:07:dd:94:32:ec:d2:e6:f3:33:02:
         5a:14:8b:0d:2b:1b:2c:0e:c8:1a:41:ad:66:c1:50:6e:5b:7e:
         ab:78:79:d2:d0:43:23:49:de:13:cb:03:7b:b5:d7:9e:67:8e:
         02:db:11:05:c0:c3:95:c6:79:e4:3f:d8:7e:b2:8a:9a:de:f5:
         f0:e0:c2:da:f9:c4:2a:f5:ae:0a:95:0d:cd:93:fc:2e:48:b5:
         3c:eb:88:df:21:6f:c4:ca:ab:ed:36:ae:d8:de:81:99:ee:06:
         a5:9a:76:2b:39:25:3c:b3:b6:9c:3c:3b:37:f9:d9:68:b9:90:
         34:f9:3e:4f:19:2f:ab:89:98:18:49:85:ff:07:40:08:55:07:
         33:6c:d5:09
-----BEGIN CERTIFICATE-----
MIIEiTCCA3GgAwIBAgIGCgsMDQ5WMA0GCSqGSIb3DQEBCwUAMHoxEzARBgNVBAMU
CkRFTEhJQ0FfQ0ExCzAJBgNVBAYTAklOMQ8wDQYDVQQKEwZDSVRSSVgxDDAKBgNV
BAsTA0FORzELMAkGA1UECBMCS0ExKjAoBgkqhkiG9w0BCQEWG0RFTEhJQ0FfQ0FA
REVMSElDQV9tYWlsLmNvbTAeFw0xNzA4MjMxMDUwNDlaFw0yNzA4MjExMDUwNDla
MGoxCzAJBgNVBAgTAktBMQswCQYDVQQGEwJJTjEYMBYGA1UEAxQPZGVsaGlfMzJf
Y2xpZW50MSMwIQYJKoZIhvcNAQkBFhRkZWxoaV8zMkB0ZXN0X2NhLmNvbTEPMA0G
A1UEChMGQ0lUUklYMIIBIjANBgkqhkiG9w0BAQEFAAOCAQ8AMIIBCgKCAQEAwLfa
s8VY97YGEUBtSGIzSRyTXP9rEbInUWe67ISidZ/w8g4/jWXR0U9Eqv9dn9LSLmkI
dUzgxNaUQF94U20bUJfko5XApF29iu1Pk5HxYzbuwpWwCHle2TA0RrZlOQSTm8ZM
bpiizxpTi+SeI5moKVd4rgBxyM+dTOyVZBy3rBVAzDMoCMas6zwCwjx0iWGdBoem
BAy+6GN/X5uISf5UEGR19MOdtssJVX0NRKDK12ShFBhJzLKhh04f4GPinJMwrhuL
ggAxbIeS3F/fESjod9ikiT1CWsNBT9Wwb+Z4dqFZAR6k4R6rycsS44sBQbeNyJvd
Ac39okKmenMyQV1IoQIDAQABo4IBIzCCAR8wEQYJYIZIAYb4QgEBBAQDAgZAMB0G
A1UdDgQWBBSSulBXjOZXDLw7ZifoSMwab+DvfzCBrAYDVR0jBIGkMIGhgBTXN1IB
3Cx6V4XKMDkw8NVdWjEDAqF+pHwwejETMBEGA1UEAxQKREVMSElDQV9DQTELMAkG
A1UEBhMCSU4xDzANBgNVBAoTBkNJVFJJWDEMMAoGA1UECxMDQU5HMQswCQYDVQQI
EwJLQTEqMCgGCSqGSIb3DQEJARYbREVMSElDQV9DQUBERUxISUNBX21haWwuY29t
ggkAlFncUU6lEycwPAYIKwYBBQUHAQEEMDAuMCwGCCsGAQUFBzABhiBodHRwOi8v
MTcyLjIwLjIwLjEvcmVzcG9uZGVycGF0aDANBgkqhkiG9w0BAQsFAAOCAQEA4Z80
dq2F1A9gXrdjqKTa932bhzYtUyGqJDDXkCu0O8EU6WlvpXVfC0SwQfpSZZDrnK4o
VAJSaOp9617Z1flsV7i67/vGOonl+ZNevQBQyWZHP1EmvesDKbOl3HRPi2s7z7ED
Muhtcjw0Dn7do11Xq44GLUEH3ZQy7NLm8zMCWhSLDSsbLA7IGkGtZsFQblt+q3h5
0tBDI0neE8sDe7XXnmeOAtsRBcDDlcZ55D/YfrKKmt718ODC2vnEKvWuCpUNzZP8
Lki1POuI3yFvxMqr7Tau2N6Bme4GpZp2KzklPLO2nDw7N/nZaLmQNPk+Txkvq4mY
GEmF/wdACFUHM2zVCQ==
-----END CERTIFICATE-----
