Certificate:
    Data:
        Version: 3 (0x2)
        Serial Number: 11042563100234 (0xa0b0c0d0e4a)
    Signature Algorithm: sha256WithRSAEncryption
        Issuer: CN=DELHICA_CA, C=IN, O=CITRIX, OU=ANG, ST=KA/emailAddress=DELHICA_CA@DELHICA_mail.com
        Validity
            Not Before: Aug 23 10:50:42 2017 GMT
            Not After : Aug 21 10:50:42 2027 GMT
        Subject: ST=KA, C=IN, CN=delhi_20_client/emailAddress=delhi_20@test_ca.com, O=CITRIX
        Subject Public Key Info:
            Public Key Algorithm: rsaEncryption
                Public-Key: (2048 bit)
                Modulus:
                    00:ca:95:c7:c6:91:82:2f:f5:a6:c5:fb:97:d1:68:
                    c2:9e:f2:56:cb:35:39:5b:69:88:99:aa:42:6b:44:
                    34:d5:ad:83:86:53:0e:e6:6d:51:99:54:cd:02:aa:
                    75:3f:40:93:0e:a4:5d:31:43:eb:c2:ca:33:71:e4:
                    6d:18:1e:4f:22:54:8d:93:68:43:ed:71:c3:70:b1:
                    eb:32:b4:48:20:63:45:a2:59:0b:bf:f5:de:d6:96:
                    88:66:4b:1d:cd:1f:9a:32:b8:97:42:fc:e7:22:54:
                    87:24:62:5c:e0:4b:a5:3b:71:e0:31:c2:fe:76:1d:
                    05:33:7b:43:14:dd:a3:c4:02:75:b1:f2:2d:7a:da:
                    da:6b:1e:bb:74:a0:3a:3e:5b:e4:2c:99:1d:0d:4b:
                    0e:d9:45:2e:73:4d:6c:a9:19:b2:ac:60:b6:29:d1:
                    f5:7f:37:77:67:88:70:d9:2c:c2:18:c3:da:1e:ab:
                    53:62:68:f1:2f:5a:c1:60:50:4e:0e:a8:4c:75:02:
                    be:20:71:ac:c9:f6:a6:78:2b:6b:ca:6d:1b:ce:a6:
                    88:ca:9d:7f:75:f2:3f:1e:63:64:f1:53:ab:d7:dc:
                    9b:2f:33:37:21:7e:2f:86:8f:5f:dc:81:e0:e8:3d:
                    9d:a3:cd:d5:c7:43:1b:b7:7b:85:c1:c0:b1:78:91:
                    46:8d
                Exponent: 65537 (0x10001)
        X509v3 extensions:
            Netscape Cert Type: 
                SSL Server
            X509v3 Subject Key Identifier: 
                5E:DB:5D:06:51:35:BD:17:90:2F:F1:1C:AA:64:56:09:AE:79:3D:27
            X509v3 Authority Key Identifier: 
                keyid:D7:37:52:01:DC:2C:7A:57:85:CA:30:39:30:F0:D5:5D:5A:31:03:02
                DirName:/CN=DELHICA_CA/C=IN/O=CITRIX/OU=ANG/ST=KA/emailAddress=DELHICA_CA@DELHICA_mail.com
                serial:94:59:DC:51:4E:A5:13:27

            Authority Information Access: 
                OCSP - URI:http://172.20.20.1/responderpath

    Signature Algorithm: sha256WithRSAEncryption
         43:e2:cf:16:28:ea:f2:bc:0f:38:f3:89:51:92:38:8b:b3:55:
         5e:66:c0:c7:fc:0d:0e:28:ef:65:6b:a6:b5:95:e4:ea:6b:35:
         7e:b0:9b:38:ed:d4:1a:50:9f:bc:e8:c8:e3:0a:1c:95:85:15:
         29:d2:f8:25:b1:1e:f2:51:e6:db:73:bc:d5:96:87:8a:b7:63:
         7f:07:f0:1a:6b:eb:c5:fc:a9:c9:b5:71:80:6f:86:f5:0d:db:
         a3:4c:ad:fb:16:ce:24:c5:eb:ab:93:76:fe:9d:13:f1:35:8a:
         78:0d:bd:92:a2:5d:1b:8f:b9:5c:e9:45:ea:2d:9f:53:3a:1d:
         c1:bd:66:fb:bc:b3:6e:89:5c:d6:7d:bf:b2:71:f9:98:82:c7:
         0a:d2:37:02:d5:8a:dd:a9:a9:2e:90:c8:fc:3a:9f:af:ad:08:
         d7:07:0d:40:67:4e:a7:26:37:06:8d:d7:f9:80:58:d9:43:6a:
         f3:2d:88:a4:8f:db:98:3a:ee:43:6f:06:90:61:de:54:28:92:
         7c:f0:63:8c:eb:22:09:cf:a2:17:cb:48:1f:ee:f7:95:c8:93:
         e3:fc:22:81:e8:0a:d7:e5:fb:b3:d5:f9:78:6a:db:80:69:30:
         04:83:6b:03:74:69:61:92:e2:a2:e8:de:14:47:b7:2b:21:69:
         2c:cd:45:58
-----BEGIN CERTIFICATE-----
MIIEiTCCA3GgAwIBAgIGCgsMDQ5KMA0GCSqGSIb3DQEBCwUAMHoxEzARBgNVBAMU
CkRFTEhJQ0FfQ0ExCzAJBgNVBAYTAklOMQ8wDQYDVQQKEwZDSVRSSVgxDDAKBgNV
BAsTA0FORzELMAkGA1UECBMCS0ExKjAoBgkqhkiG9w0BCQEWG0RFTEhJQ0FfQ0FA
REVMSElDQV9tYWlsLmNvbTAeFw0xNzA4MjMxMDUwNDJaFw0yNzA4MjExMDUwNDJa
MGoxCzAJBgNVBAgTAktBMQswCQYDVQQGEwJJTjEYMBYGA1UEAxQPZGVsaGlfMjBf
Y2xpZW50MSMwIQYJKoZIhvcNAQkBFhRkZWxoaV8yMEB0ZXN0X2NhLmNvbTEPMA0G
A1UEChMGQ0lUUklYMIIBIjANBgkqhkiG9w0BAQEFAAOCAQ8AMIIBCgKCAQEAypXH
xpGCL/WmxfuX0WjCnvJWyzU5W2mImapCa0Q01a2DhlMO5m1RmVTNAqp1P0CTDqRd
MUPrwsozceRtGB5PIlSNk2hD7XHDcLHrMrRIIGNFolkLv/Xe1paIZksdzR+aMriX
QvznIlSHJGJc4EulO3HgMcL+dh0FM3tDFN2jxAJ1sfItetraax67dKA6PlvkLJkd
DUsO2UUuc01sqRmyrGC2KdH1fzd3Z4hw2SzCGMPaHqtTYmjxL1rBYFBODqhMdQK+
IHGsyfameCtrym0bzqaIyp1/dfI/HmNk8VOr19ybLzM3IX4vho9f3IHg6D2do83V
x0Mbt3uFwcCxeJFGjQIDAQABo4IBIzCCAR8wEQYJYIZIAYb4QgEBBAQDAgZAMB0G
A1UdDgQWBBRe210GUTW9F5Av8RyqZFYJrnk9JzCBrAYDVR0jBIGkMIGhgBTXN1IB
3Cx6V4XKMDkw8NVdWjEDAqF+pHwwejETMBEGA1UEAxQKREVMSElDQV9DQTELMAkG
A1UEBhMCSU4xDzANBgNVBAoTBkNJVFJJWDEMMAoGA1UECxMDQU5HMQswCQYDVQQI
EwJLQTEqMCgGCSqGSIb3DQEJARYbREVMSElDQV9DQUBERUxISUNBX21haWwuY29t
ggkAlFncUU6lEycwPAYIKwYBBQUHAQEEMDAuMCwGCCsGAQUFBzABhiBodHRwOi8v
MTcyLjIwLjIwLjEvcmVzcG9uZGVycGF0aDANBgkqhkiG9w0BAQsFAAOCAQEAQ+LP
Fijq8rwPOPOJUZI4i7NVXmbAx/wNDijvZWumtZXk6ms1frCbOO3UGlCfvOjI4woc
lYUVKdL4JbEe8lHm23O81ZaHirdjfwfwGmvrxfypybVxgG+G9Q3bo0yt+xbOJMXr
q5N2/p0T8TWKeA29kqJdG4+5XOlF6i2fUzodwb1m+7yzbolc1n2/snH5mILHCtI3
AtWK3ampLpDI/Dqfr60I1wcNQGdOpyY3Bo3X+YBY2UNq8y2IpI/bmDruQ28GkGHe
VCiSfPBjjOsiCc+iF8tIH+73lciT4/wigegK1+X7s9X5eGrbgGkwBINrA3RpYZLi
oujeFEe3KyFpLM1FWA==
-----END CERTIFICATE-----
