Certificate:
    Data:
        Version: 3 (0x2)
        Serial Number: 11042563100242 (0xa0b0c0d0e52)
    Signature Algorithm: sha256WithRSAEncryption
        Issuer: CN=DELHICA_CA, C=IN, O=CITRIX, OU=ANG, ST=KA/emailAddress=DELHICA_CA@DELHICA_mail.com
        Validity
            Not Before: Aug 23 10:50:47 2017 GMT
            Not After : Aug 21 10:50:47 2027 GMT
        Subject: ST=KA, C=IN, CN=delhi_28_client/emailAddress=delhi_28@test_ca.com, O=CITRIX
        Subject Public Key Info:
            Public Key Algorithm: rsaEncryption
                Public-Key: (2048 bit)
                Modulus:
                    00:c6:3e:db:e2:97:dd:eb:f6:84:31:9d:b1:df:19:
                    6e:49:61:4f:c9:1e:27:d7:11:51:f8:90:34:aa:ce:
                    f0:48:29:ae:88:5d:4d:ae:29:e8:5c:9b:83:de:ca:
                    ef:fe:c7:51:16:82:df:03:32:f2:22:7b:49:75:ba:
                    b0:dd:23:61:19:d5:44:84:15:53:63:6a:06:ef:1a:
                    3b:5a:95:4b:a2:8f:33:13:d5:e8:70:bd:e9:bf:b2:
                    e3:b5:54:b0:25:26:c2:01:d5:91:d6:31:05:93:ae:
                    63:91:ef:a9:c9:4f:8f:2c:e4:a9:6f:d4:0e:5c:c2:
                    b4:7a:9c:ec:53:07:3b:59:52:56:77:ce:98:80:81:
                    c4:4c:38:d5:c3:9f:fe:8c:5b:7e:f0:67:6c:41:0d:
                    03:30:c8:95:b3:63:24:e0:30:b1:72:13:a3:14:95:
                    21:82:4b:3c:73:44:61:a0:bd:fa:20:12:39:08:7b:
                    9e:87:58:8a:3e:e2:4c:6c:24:fe:59:0c:e2:a0:98:
                    36:de:61:55:e9:5f:62:24:69:20:91:6a:4b:dc:18:
                    66:e5:2c:e0:39:f5:6a:4c:ff:9e:95:3b:c7:5b:d4:
                    15:9c:38:98:58:35:01:d7:a3:f1:14:f4:3e:20:1f:
                    1e:ea:00:b1:8c:c7:32:e4:37:06:ed:40:28:3b:52:
                    61:c5
                Exponent: 65537 (0x10001)
        X509v3 extensions:
            Netscape Cert Type: 
                SSL Server
            X509v3 Subject Key Identifier: 
                09:5B:F6:DC:98:21:BC:5F:EF:BE:BB:D0:A5:07:2B:E4:82:05:C4:BA
            X509v3 Authority Key Identifier: 
                keyid:D7:37:52:01:DC:2C:7A:57:85:CA:30:39:30:F0:D5:5D:5A:31:03:02
                DirName:/CN=DELHICA_CA/C=IN/O=CITRIX/OU=ANG/ST=KA/emailAddress=DELHICA_CA@DELHICA_mail.com
                serial:94:59:DC:51:4E:A5:13:27

            Authority Information Access: 
                OCSP - URI:http://172.20.20.1/responderpath

    Signature Algorithm: sha256WithRSAEncryption
         02:5c:e4:0a:3b:e3:56:da:6d:12:87:ca:0e:b8:65:02:d7:9a:
         c8:1e:c7:39:93:6e:90:30:43:08:3c:c4:57:16:52:dd:8b:85:
         ac:e0:f9:11:f4:e5:02:86:a2:d9:7f:3e:c4:99:bb:d6:17:7b:
         cc:21:fd:34:8f:99:4c:3d:9e:b2:28:a6:08:5d:0b:69:f1:8f:
         46:b5:75:60:7d:ef:bd:d6:fe:1c:81:78:b7:1b:b9:ba:5f:5a:
         a7:ba:1b:c9:66:eb:56:72:9e:07:03:4a:e3:ac:33:b2:dd:2c:
         97:55:f2:91:cb:04:19:14:58:7c:ac:68:42:9c:76:41:c5:cb:
         1e:83:7b:11:90:13:b5:fd:d1:1c:59:8f:6b:2f:cd:88:4a:a7:
         f5:9e:63:a3:a1:42:c0:0d:2b:4e:95:0b:0a:24:db:1b:56:8d:
         11:e7:4d:92:76:9f:c2:7f:0c:5a:3d:7e:7c:34:87:26:87:08:
         da:0a:fb:72:98:59:2e:3d:32:86:ce:61:53:43:66:d4:6d:07:
         0d:b6:bb:fa:a9:75:6a:01:a0:10:62:12:b6:75:e5:06:b9:df:
         26:fd:a9:a3:ae:ef:64:62:d8:2c:a2:19:1e:08:f0:e8:90:69:
         31:0d:99:d0:d1:ad:d7:d5:71:2d:06:2d:1f:b3:b5:c1:1c:7f:
         1e:3c:a9:b9
-----BEGIN CERTIFICATE-----
MIIEiTCCA3GgAwIBAgIGCgsMDQ5SMA0GCSqGSIb3DQEBCwUAMHoxEzARBgNVBAMU
CkRFTEhJQ0FfQ0ExCzAJBgNVBAYTAklOMQ8wDQYDVQQKEwZDSVRSSVgxDDAKBgNV
BAsTA0FORzELMAkGA1UECBMCS0ExKjAoBgkqhkiG9w0BCQEWG0RFTEhJQ0FfQ0FA
REVMSElDQV9tYWlsLmNvbTAeFw0xNzA4MjMxMDUwNDdaFw0yNzA4MjExMDUwNDda
MGoxCzAJBgNVBAgTAktBMQswCQYDVQQGEwJJTjEYMBYGA1UEAxQPZGVsaGlfMjhf
Y2xpZW50MSMwIQYJKoZIhvcNAQkBFhRkZWxoaV8yOEB0ZXN0X2NhLmNvbTEPMA0G
A1UEChMGQ0lUUklYMIIBIjANBgkqhkiG9w0BAQEFAAOCAQ8AMIIBCgKCAQEAxj7b
4pfd6/aEMZ2x3xluSWFPyR4n1xFR+JA0qs7wSCmuiF1NrinoXJuD3srv/sdRFoLf
AzLyIntJdbqw3SNhGdVEhBVTY2oG7xo7WpVLoo8zE9XocL3pv7LjtVSwJSbCAdWR
1jEFk65jke+pyU+PLOSpb9QOXMK0epzsUwc7WVJWd86YgIHETDjVw5/+jFt+8Gds
QQ0DMMiVs2Mk4DCxchOjFJUhgks8c0RhoL36IBI5CHueh1iKPuJMbCT+WQzioJg2
3mFV6V9iJGkgkWpL3Bhm5SzgOfVqTP+elTvHW9QVnDiYWDUB16PxFPQ+IB8e6gCx
jMcy5DcG7UAoO1JhxQIDAQABo4IBIzCCAR8wEQYJYIZIAYb4QgEBBAQDAgZAMB0G
A1UdDgQWBBQJW/bcmCG8X+++u9ClByvkggXEujCBrAYDVR0jBIGkMIGhgBTXN1IB
3Cx6V4XKMDkw8NVdWjEDAqF+pHwwejETMBEGA1UEAxQKREVMSElDQV9DQTELMAkG
A1UEBhMCSU4xDzANBgNVBAoTBkNJVFJJWDEMMAoGA1UECxMDQU5HMQswCQYDVQQI
EwJLQTEqMCgGCSqGSIb3DQEJARYbREVMSElDQV9DQUBERUxISUNBX21haWwuY29t
ggkAlFncUU6lEycwPAYIKwYBBQUHAQEEMDAuMCwGCCsGAQUFBzABhiBodHRwOi8v
MTcyLjIwLjIwLjEvcmVzcG9uZGVycGF0aDANBgkqhkiG9w0BAQsFAAOCAQEAAlzk
CjvjVtptEofKDrhlAteayB7HOZNukDBDCDzEVxZS3YuFrOD5EfTlAoai2X8+xJm7
1hd7zCH9NI+ZTD2esiimCF0LafGPRrV1YH3vvdb+HIF4txu5ul9ap7obyWbrVnKe
BwNK46wzst0sl1XykcsEGRRYfKxoQpx2QcXLHoN7EZATtf3RHFmPay/NiEqn9Z5j
o6FCwA0rTpULCiTbG1aNEedNknafwn8MWj1+fDSHJocI2gr7cphZLj0yhs5hU0Nm
1G0HDba7+ql1agGgEGIStnXlBrnfJv2po67vZGLYLKIZHgjw6JBpMQ2Z0NGt19Vx
LQYtH7O1wRx/HjypuQ==
-----END CERTIFICATE-----
