Certificate:
    Data:
        Version: 3 (0x2)
        Serial Number: 11042563100252 (0xa0b0c0d0e5c)
    Signature Algorithm: sha256WithRSAEncryption
        Issuer: CN=DELHICA_CA, C=IN, O=CITRIX, OU=ANG, ST=KA/emailAddress=DELHICA_CA@DELHICA_mail.com
        Validity
            Not Before: Aug 23 10:50:55 2017 GMT
            Not After : Aug 21 10:50:55 2027 GMT
        Subject: ST=KA, C=IN, CN=delhi_38_client/emailAddress=delhi_38@test_ca.com, O=CITRIX
        Subject Public Key Info:
            Public Key Algorithm: rsaEncryption
                Public-Key: (2048 bit)
                Modulus:
                    00:ba:1c:ce:af:9b:f5:d2:a3:b3:75:28:fd:c4:17:
                    f0:5e:10:84:11:e3:8a:5a:4f:cd:e9:50:38:7d:22:
                    9b:03:67:0c:32:1d:e9:7b:77:90:f1:f5:e0:83:25:
                    65:4d:24:18:9c:44:d0:10:74:a6:e3:f9:a6:09:50:
                    d0:88:4f:3d:69:70:7b:33:90:90:f6:92:63:0a:0d:
                    78:c6:7d:47:c8:7d:51:0e:7e:5c:29:3d:fe:9d:ed:
                    1c:a6:be:6d:74:64:e2:29:8e:60:cc:dc:d0:8b:b2:
                    df:9c:97:01:65:27:50:f6:65:d6:16:74:35:01:bd:
                    ac:66:74:da:f3:d0:ab:45:47:c5:f8:c7:12:6f:c4:
                    af:1c:30:41:f3:d8:87:74:97:b5:33:01:bb:58:bd:
                    e4:fa:be:60:90:c6:27:e4:d5:8c:bd:a7:56:3b:1b:
                    25:b2:87:2d:0a:fa:a9:e8:51:fc:a0:fa:83:95:41:
                    3e:3e:9c:63:dc:b6:f1:cb:79:47:5c:f5:5c:0e:98:
                    ea:71:82:1f:2f:55:cc:1c:6b:d7:3e:eb:19:7a:bd:
                    84:ca:28:56:00:c4:ad:48:ef:39:c8:68:15:f0:2e:
                    8e:5b:af:be:1a:43:d0:22:06:a1:2f:38:4a:1f:b0:
                    1e:35:00:82:e0:74:7c:d5:0f:f2:37:a3:d5:d8:95:
                    85:db
                Exponent: 65537 (0x10001)
        X509v3 extensions:
            Netscape Cert Type: 
                SSL Server
            X509v3 Subject Key Identifier: 
                B3:AB:7B:60:5A:7A:E4:AD:AE:81:D3:B9:6A:AF:2C:08:90:E6:9F:39
            X509v3 Authority Key Identifier: 
                keyid:D7:37:52:01:DC:2C:7A:57:85:CA:30:39:30:F0:D5:5D:5A:31:03:02
                DirName:/CN=DELHICA_CA/C=IN/O=CITRIX/OU=ANG/ST=KA/emailAddress=DELHICA_CA@DELHICA_mail.com
                serial:94:59:DC:51:4E:A5:13:27

            Authority Information Access: 
                OCSP - URI:http://172.20.20.1/responderpath

    Signature Algorithm: sha256WithRSAEncryption
         79:91:ad:73:46:8c:ce:d1:aa:23:5b:ca:d5:fa:fe:70:6a:8d:
         92:03:af:85:f9:9e:75:ed:9e:91:67:62:96:3f:1e:20:f2:74:
         98:c0:fb:a8:4b:2f:6f:8a:6c:66:4c:b2:47:6d:e5:7b:5e:c0:
         4d:4a:9c:a9:42:09:86:74:c8:d2:a4:b2:65:2d:9a:9e:02:85:
         90:5f:f1:5a:26:c5:3b:e0:75:8e:41:ad:bc:47:aa:f0:b9:b7:
         8c:76:f1:81:79:c2:6b:62:ff:1f:47:39:2d:7f:34:2b:f3:24:
         ef:67:a0:e9:46:73:c0:9b:53:11:30:2c:ff:21:97:2a:d8:e3:
         db:af:4c:bf:c3:d7:67:48:06:bd:e4:7a:87:98:d9:39:59:65:
         03:31:ca:c4:e3:8a:43:a4:59:b1:28:f5:c4:8c:3d:b4:29:a4:
         4e:42:1b:19:d7:74:5b:10:cc:0a:ef:9a:fb:38:47:e2:75:2d:
         7c:a5:ac:70:52:2e:b9:27:14:bc:e1:c9:00:5f:a1:1d:82:a5:
         71:28:3a:e0:a8:6c:13:56:98:91:b1:30:0b:31:ea:4d:fe:04:
         18:ea:b0:2f:45:86:a0:67:4c:f2:bb:67:33:28:da:06:2d:67:
         48:8a:a2:bc:0e:b7:6b:00:7d:2a:79:b1:a2:9b:8a:66:a4:ef:
         ae:ff:d5:50
-----BEGIN CERTIFICATE-----
MIIEiTCCA3GgAwIBAgIGCgsMDQ5cMA0GCSqGSIb3DQEBCwUAMHoxEzARBgNVBAMU
CkRFTEhJQ0FfQ0ExCzAJBgNVBAYTAklOMQ8wDQYDVQQKEwZDSVRSSVgxDDAKBgNV
BAsTA0FORzELMAkGA1UECBMCS0ExKjAoBgkqhkiG9w0BCQEWG0RFTEhJQ0FfQ0FA
REVMSElDQV9tYWlsLmNvbTAeFw0xNzA4MjMxMDUwNTVaFw0yNzA4MjExMDUwNTVa
MGoxCzAJBgNVBAgTAktBMQswCQYDVQQGEwJJTjEYMBYGA1UEAxQPZGVsaGlfMzhf
Y2xpZW50MSMwIQYJKoZIhvcNAQkBFhRkZWxoaV8zOEB0ZXN0X2NhLmNvbTEPMA0G
A1UEChMGQ0lUUklYMIIBIjANBgkqhkiG9w0BAQEFAAOCAQ8AMIIBCgKCAQEAuhzO
r5v10qOzdSj9xBfwXhCEEeOKWk/N6VA4fSKbA2cMMh3pe3eQ8fXggyVlTSQYnETQ
EHSm4/mmCVDQiE89aXB7M5CQ9pJjCg14xn1HyH1RDn5cKT3+ne0cpr5tdGTiKY5g
zNzQi7LfnJcBZSdQ9mXWFnQ1Ab2sZnTa89CrRUfF+McSb8SvHDBB89iHdJe1MwG7
WL3k+r5gkMYn5NWMvadWOxslsoctCvqp6FH8oPqDlUE+Ppxj3Lbxy3lHXPVcDpjq
cYIfL1XMHGvXPusZer2EyihWAMStSO85yGgV8C6OW6++GkPQIgahLzhKH7AeNQCC
4HR81Q/yN6PV2JWF2wIDAQABo4IBIzCCAR8wEQYJYIZIAYb4QgEBBAQDAgZAMB0G
A1UdDgQWBBSzq3tgWnrkra6B07lqrywIkOafOTCBrAYDVR0jBIGkMIGhgBTXN1IB
3Cx6V4XKMDkw8NVdWjEDAqF+pHwwejETMBEGA1UEAxQKREVMSElDQV9DQTELMAkG
A1UEBhMCSU4xDzANBgNVBAoTBkNJVFJJWDEMMAoGA1UECxMDQU5HMQswCQYDVQQI
EwJLQTEqMCgGCSqGSIb3DQEJARYbREVMSElDQV9DQUBERUxISUNBX21haWwuY29t
ggkAlFncUU6lEycwPAYIKwYBBQUHAQEEMDAuMCwGCCsGAQUFBzABhiBodHRwOi8v
MTcyLjIwLjIwLjEvcmVzcG9uZGVycGF0aDANBgkqhkiG9w0BAQsFAAOCAQEAeZGt
c0aMztGqI1vK1fr+cGqNkgOvhfmede2ekWdilj8eIPJ0mMD7qEsvb4psZkyyR23l
e17ATUqcqUIJhnTI0qSyZS2angKFkF/xWibFO+B1jkGtvEeq8Lm3jHbxgXnCa2L/
H0c5LX80K/Mk72eg6UZzwJtTETAs/yGXKtjj269Mv8PXZ0gGveR6h5jZOVllAzHK
xOOKQ6RZsSj1xIw9tCmkTkIbGdd0WxDMCu+a+zhH4nUtfKWscFIuuScUvOHJAF+h
HYKlcSg64KhsE1aYkbEwCzHqTf4EGOqwL0WGoGdM8rtnMyjaBi1nSIqivA63awB9
KnmxopuKZqTvrv/VUA==
-----END CERTIFICATE-----
