Certificate:
    Data:
        Version: 3 (0x2)
        Serial Number: 11042563100162 (0xa0b0c0d0e02)
    Signature Algorithm: sha1WithRSAEncryption
        Issuer: ST=KA, C=IN, CN=OneCA2048_server/emailAddress=OneCA2048@test_ca.com, O=CITRIX
        Validity
            Not Before: Apr 30 03:24:13 2017 GMT
            Not After : Apr 28 03:24:13 2027 GMT
        Subject: ST=KA, C=IN, CN=TwoCA1024_server/emailAddress=TwoCA@test_ca.com, O=CITRIX
        Subject Public Key Info:
            Public Key Algorithm: rsaEncryption
                Public-Key: (1024 bit)
                Modulus:
                    00:d6:87:96:c7:54:81:23:32:ce:e4:fa:cf:06:a4:
                    6a:ad:c9:ab:d7:5a:84:fe:31:9e:d4:4f:76:b9:e9:
                    83:33:06:12:1c:e6:7f:dd:2f:94:fc:c0:10:e7:ee:
                    c0:be:00:83:11:dc:d9:8f:b2:b2:00:d0:82:c2:50:
                    1b:39:61:3f:4d:3e:58:53:e4:dc:4d:a1:2d:5b:aa:
                    ec:9a:34:a8:96:f7:7b:ae:c8:63:ea:b1:76:67:b7:
                    92:69:de:2e:50:7c:7d:a7:1e:9f:6c:54:6c:22:02:
                    3c:6d:b9:28:e0:1a:de:e4:11:a3:52:a9:c4:a9:22:
                    9d:b7:fe:19:4c:a0:72:2c:9f
                Exponent: 65537 (0x10001)
        X509v3 extensions:
            X509v3 Basic Constraints: 
                CA:TRUE
            X509v3 Subject Key Identifier: 
                D3:F4:28:AF:B1:CD:B0:34:5E:24:E5:22:1E:12:2D:D1:A5:14:63:9D
            X509v3 Authority Key Identifier: 
                keyid:AB:6B:7A:88:FF:16:57:5F:CD:FB:4C:E5:FA:A2:B6:B4:5C:1C:28:04
                DirName:/CN=RootServer2048CA/ST=KA/C=IN/emailAddress=RootServer2048CA@RootServer2048CA.com/O=CITRIX
                serial:0A:0B:0C:0D:0E:01:02:03:06

    Signature Algorithm: sha1WithRSAEncryption
         33:91:7e:ad:75:34:ae:0b:3b:00:fe:58:ca:39:40:a6:e7:59:
         9b:0f:fb:9d:3b:31:74:8e:53:2f:58:e0:e2:00:ed:31:bb:5a:
         aa:96:24:6f:c3:e4:0a:92:07:5d:2c:84:db:f7:1a:ab:a6:f3:
         46:8b:c0:13:ae:e3:03:d4:54:95:34:37:42:f5:34:6f:4e:88:
         3c:79:bb:32:3a:d7:db:33:86:95:a2:18:c2:e8:b6:3e:c6:1e:
         ab:57:3f:2a:ef:75:b7:6b:f5:82:39:73:29:f2:f6:3f:cb:82:
         a7:bc:0a:f1:ec:de:c7:64:14:a5:4d:8d:76:04:b1:28:f4:72:
         c1:7f:8e:2d:85:5a:cc:c4:86:68:5b:87:0c:ce:c8:5b:c2:1b:
         ec:c9:f0:76:6e:b1:a6:1d:c9:c1:0d:3b:37:dc:87:01:d7:e4:
         04:dc:54:48:57:d7:6e:57:ee:f7:95:72:b6:2f:57:50:cf:17:
         f8:b0:3c:31:0a:9f:c5:c9:68:51:88:1f:06:4f:d1:21:47:37:
         f5:c8:ac:a9:5e:fb:43:0e:48:e3:3c:79:29:39:a4:4d:1e:8b:
         4e:48:3b:b3:b3:83:e8:e1:ac:3d:0c:d2:f8:d8:86:4b:6e:b3:
         1a:83:69:80:25:90:78:e0:84:7c:1c:68:32:4b:e9:7f:d9:03:
         41:dd:1a:43
-----BEGIN CERTIFICATE-----
MIIDszCCApugAwIBAgIGCgsMDQ4CMA0GCSqGSIb3DQEBBQUAMGwxCzAJBgNVBAgT
AktBMQswCQYDVQQGEwJJTjEZMBcGA1UEAxQQT25lQ0EyMDQ4X3NlcnZlcjEkMCIG
CSqGSIb3DQEJARYVT25lQ0EyMDQ4QHRlc3RfY2EuY29tMQ8wDQYDVQQKEwZDSVRS
SVgwHhcNMTcwNDMwMDMyNDEzWhcNMjcwNDI4MDMyNDEzWjBoMQswCQYDVQQIEwJL
QTELMAkGA1UEBhMCSU4xGTAXBgNVBAMUEFR3b0NBMTAyNF9zZXJ2ZXIxIDAeBgkq
hkiG9w0BCQEWEVR3b0NBQHRlc3RfY2EuY29tMQ8wDQYDVQQKEwZDSVRSSVgwgZ8w
DQYJKoZIhvcNAQEBBQADgY0AMIGJAoGBANaHlsdUgSMyzuT6zwakaq3Jq9dahP4x
ntRPdrnpgzMGEhzmf90vlPzAEOfuwL4AgxHc2Y+ysgDQgsJQGzlhP00+WFPk3E2h
LVuq7Jo0qJb3e67IY+qxdme3kmneLlB8facen2xUbCICPG25KOAa3uQRo1KpxKki
nbf+GUygciyfAgMBAAGjgeIwgd8wDAYDVR0TBAUwAwEB/zAdBgNVHQ4EFgQU0/Qo
r7HNsDReJOUiHhIt0aUUY50wga8GA1UdIwSBpzCBpIAUq2t6iP8WV1/N+0zl+qK2
tFwcKAShgYCkfjB8MRkwFwYDVQQDExBSb290U2VydmVyMjA0OENBMQswCQYDVQQI
EwJLQTELMAkGA1UEBhMCSU4xNDAyBgkqhkiG9w0BCQEWJVJvb3RTZXJ2ZXIyMDQ4
Q0FAUm9vdFNlcnZlcjIwNDhDQS5jb20xDzANBgNVBAoTBkNJVFJJWIIJCgsMDQ4B
AgMGMA0GCSqGSIb3DQEBBQUAA4IBAQAzkX6tdTSuCzsA/ljKOUCm51mbD/udOzF0
jlMvWODiAO0xu1qqliRvw+QKkgddLITb9xqrpvNGi8ATruMD1FSVNDdC9TRvTog8
ebsyOtfbM4aVohjC6LY+xh6rVz8q73W3a/WCOXMp8vY/y4KnvArx7N7HZBSlTY12
BLEo9HLBf44thVrMxIZoW4cMzshbwhvsyfB2brGmHcnBDTs33IcB1+QE3FRIV9du
V+73lXK2L1dQzxf4sDwxCp/FyWhRiB8GT9EhRzf1yKypXvtDDkjjPHkpOaRNHotO
SDuzs4Po4aw9DNL42IZLbrMag2mAJZB44IR8HGgyS+l/2QNB3RpD
-----END CERTIFICATE-----
