Certificate:
    Data:
        Version: 3 (0x2)
        Serial Number: 11042563100188 (0xa0b0c0d0e1c)
    Signature Algorithm: sha256WithRSAEncryption
        Issuer: CN=SHILLONGCA_CA, C=IN, O=CITRIX, OU=ANG, ST=KA/emailAddress=SHILLONGCA_CA@SHILLONGCA_mail.com
        Validity
            Not Before: Jul  8 04:40:10 2016 GMT
            Not After : Jul  6 04:40:10 2026 GMT
        Subject: ST=KA, C=IN, CN=114_SHILLONGCA_server/emailAddress=114_SHILLONGCA@test_ca.com, O=CITRIX
        Subject Public Key Info:
            Public Key Algorithm: rsaEncryption
                Public-Key: (2048 bit)
                Modulus:
                    00:a0:35:ee:10:64:98:af:a5:d2:f1:b0:41:e1:18:
                    01:5e:6a:75:6a:14:88:ef:a0:4d:bb:fe:2f:0c:07:
                    5b:f9:2a:cf:a4:35:b7:fb:fa:52:2f:f2:c4:9b:aa:
                    10:42:af:d5:b8:0b:13:27:74:f5:9b:c7:5e:d1:46:
                    f0:18:10:00:2e:0b:32:70:18:f0:00:2a:91:96:e9:
                    78:a2:8c:9f:99:7e:c7:02:a7:b1:27:67:63:6b:69:
                    c5:02:fe:46:83:3f:d5:7c:87:73:0f:1a:09:de:a3:
                    55:31:2c:5a:e1:f4:fc:e2:b8:d7:6f:b3:98:f9:23:
                    a2:48:e5:c7:d6:f2:e6:f6:b3:1e:b0:99:de:8a:ba:
                    0c:75:69:7a:b8:85:d3:f3:02:40:a7:3b:cb:b2:79:
                    af:81:8a:ff:b8:af:93:8a:a6:64:b2:9a:2e:30:05:
                    28:c1:eb:af:a9:bc:6f:63:f8:b9:ba:74:57:a7:1e:
                    c5:56:75:f4:49:4c:36:92:f2:59:77:5b:f6:1e:a9:
                    5d:78:97:a6:b2:c0:40:ee:fd:99:20:40:d5:c0:92:
                    23:b7:42:ca:58:1c:aa:51:7a:71:44:60:52:08:0e:
                    1c:7b:76:2f:c2:47:c6:17:15:6e:7e:75:ec:be:a1:
                    e2:74:be:ff:ac:14:4d:59:99:79:4b:b9:51:37:60:
                    74:ef
                Exponent: 65537 (0x10001)
        X509v3 extensions:
            Netscape Cert Type: 
                SSL Server
            X509v3 Subject Key Identifier: 
                BD:06:89:58:43:93:F2:4A:06:3A:A7:E2:D2:08:B6:7C:7F:DC:7D:E7
            X509v3 Authority Key Identifier: 
                keyid:FA:E9:1F:A5:AF:8B:4E:18:FF:EF:B7:EA:8F:FB:98:BC:59:23:81:DF
                DirName:/CN=SHILLONGCA_CA/C=IN/O=CITRIX/OU=ANG/ST=KA/emailAddress=SHILLONGCA_CA@SHILLONGCA_mail.com
                serial:FB:D0:92:FD:A2:7C:35:0C

            Authority Information Access: 
                OCSP - URI:http://SHILLONGCA_two.ocsptest.com/responderpath

    Signature Algorithm: sha256WithRSAEncryption
         a0:a7:00:a6:d2:0b:eb:e4:22:42:3f:a2:14:1e:8c:14:93:04:
         2f:72:e7:84:5b:45:2d:39:86:6b:be:65:6b:26:3e:79:a4:18:
         13:f6:c1:fb:26:90:e8:09:5e:fa:6a:1d:29:9a:2e:d7:85:36:
         56:11:09:23:e4:bf:53:26:c5:cb:fb:db:52:47:7a:09:45:17:
         f9:58:1f:a3:70:b5:bf:ec:6f:f8:e1:7d:fd:13:0f:1c:6b:6f:
         63:2d:d4:9e:86:70:67:39:76:18:e6:de:86:90:9d:76:0c:28:
         9c:34:8f:2a:f0:11:e8:9d:aa:40:77:a1:33:8a:ce:5a:6c:b3:
         4e:1c:26:b3:b3:c2:32:f6:62:10:11:41:27:04:e4:71:13:5e:
         25:cd:d0:9a:65:23:58:13:7b:24:fc:c7:6b:c8:c2:04:d8:6b:
         29:b9:d8:a3:f8:aa:b0:6d:50:9f:09:f6:c1:ab:47:75:8f:cc:
         5d:31:88:fb:86:9a:83:0b:d3:83:f4:27:c6:27:ef:90:e0:83:
         30:9a:9a:3d:d1:0a:ed:ad:f8:61:3b:4c:aa:b9:d8:19:4a:bd:
         93:4f:92:64:68:26:1f:c2:db:d1:c2:4b:4c:a9:c9:b3:1f:09:
         0e:71:5f:73:23:8b:8a:fa:11:f0:47:e2:6b:93:d8:43:fa:0e:
         60:45:0f:8b
-----BEGIN CERTIFICATE-----
MIIEuzCCA6OgAwIBAgIGCgsMDQ4cMA0GCSqGSIb3DQEBCwUAMIGDMRYwFAYDVQQD
FA1TSElMTE9OR0NBX0NBMQswCQYDVQQGEwJJTjEPMA0GA1UEChMGQ0lUUklYMQww
CgYDVQQLEwNBTkcxCzAJBgNVBAgTAktBMTAwLgYJKoZIhvcNAQkBFiFTSElMTE9O
R0NBX0NBQFNISUxMT05HQ0FfbWFpbC5jb20wHhcNMTYwNzA4MDQ0MDEwWhcNMjYw
NzA2MDQ0MDEwWjB2MQswCQYDVQQIEwJLQTELMAkGA1UEBhMCSU4xHjAcBgNVBAMU
FTExNF9TSElMTE9OR0NBX3NlcnZlcjEpMCcGCSqGSIb3DQEJARYaMTE0X1NISUxM
T05HQ0FAdGVzdF9jYS5jb20xDzANBgNVBAoTBkNJVFJJWDCCASIwDQYJKoZIhvcN
AQEBBQADggEPADCCAQoCggEBAKA17hBkmK+l0vGwQeEYAV5qdWoUiO+gTbv+LwwH
W/kqz6Q1t/v6Ui/yxJuqEEKv1bgLEyd09ZvHXtFG8BgQAC4LMnAY8AAqkZbpeKKM
n5l+xwKnsSdnY2tpxQL+RoM/1XyHcw8aCd6jVTEsWuH0/OK412+zmPkjokjlx9by
5vazHrCZ3oq6DHVperiF0/MCQKc7y7J5r4GK/7ivk4qmZLKaLjAFKMHrr6m8b2P4
ubp0V6cexVZ19ElMNpLyWXdb9h6pXXiXprLAQO79mSBA1cCSI7dCylgcqlF6cURg
UggOHHt2L8JHxhcVbn517L6h4nS+/6wUTVmZeUu5UTdgdO8CAwEAAaOCAT8wggE7
MBEGCWCGSAGG+EIBAQQEAwIGQDAdBgNVHQ4EFgQUvQaJWEOT8koGOqfi0gi2fH/c
fecwgbgGA1UdIwSBsDCBrYAU+ukfpa+LThj/77fqj/uYvFkjgd+hgYmkgYYwgYMx
FjAUBgNVBAMUDVNISUxMT05HQ0FfQ0ExCzAJBgNVBAYTAklOMQ8wDQYDVQQKEwZD
SVRSSVgxDDAKBgNVBAsTA0FORzELMAkGA1UECBMCS0ExMDAuBgkqhkiG9w0BCQEW
IVNISUxMT05HQ0FfQ0FAU0hJTExPTkdDQV9tYWlsLmNvbYIJAPvQkv2ifDUMMEwG
CCsGAQUFBwEBBEAwPjA8BggrBgEFBQcwAYYwaHR0cDovL1NISUxMT05HQ0FfdHdv
Lm9jc3B0ZXN0LmNvbS9yZXNwb25kZXJwYXRoMA0GCSqGSIb3DQEBCwUAA4IBAQCg
pwCm0gvr5CJCP6IUHowUkwQvcueEW0UtOYZrvmVrJj55pBgT9sH7JpDoCV76ah0p
mi7XhTZWEQkj5L9TJsXL+9tSR3oJRRf5WB+jcLW/7G/44X39Ew8ca29jLdSehnBn
OXYY5t6GkJ12DCicNI8q8BHonapAd6Ezis5abLNOHCazs8Iy9mIQEUEnBORxE14l
zdCaZSNYE3sk/MdryMIE2Gspudij+KqwbVCfCfbBq0d1j8xdMYj7hpqDC9OD9CfG
J++Q4IMwmpo90QrtrfhhO0yqudgZSr2TT5JkaCYfwtvRwktMqcmzHwkOcV9zI4uK
+hHwR+Jrk9hD+g5gRQ+L
-----END CERTIFICATE-----
