Certificate:
    Data:
        Version: 3 (0x2)
        Serial Number: 11042563100208 (0xa0b0c0d0e30)
    Signature Algorithm: sha256WithRSAEncryption
        Issuer: CN=SHILLONGCA_CA, C=IN, O=CITRIX, OU=ANG, ST=KA/emailAddress=SHILLONGCA_CA@SHILLONGCA_mail.com
        Validity
            Not Before: Jul  8 04:40:14 2016 GMT
            Not After : Jul  6 04:40:14 2026 GMT
        Subject: ST=KA, C=IN, CN=134_SHILLONGCA_server/emailAddress=134_SHILLONGCA@test_ca.com, O=CITRIX
        Subject Public Key Info:
            Public Key Algorithm: rsaEncryption
                Public-Key: (2048 bit)
                Modulus:
                    00:bb:9f:e9:46:51:98:4a:51:81:36:96:04:6c:59:
                    72:60:df:5b:78:04:d0:33:07:7f:06:c8:c6:cb:03:
                    17:44:64:cb:d2:79:38:c0:05:8d:f4:ca:5a:ec:a5:
                    8e:d5:78:4a:4e:2b:e4:66:39:08:08:3d:08:52:37:
                    0c:58:00:af:3a:80:a7:90:0c:f0:a8:fe:aa:a5:1c:
                    04:c9:5d:6b:1f:55:00:28:80:a0:5a:29:09:77:45:
                    a3:5c:c4:bd:fd:d3:4d:e6:dd:6e:8a:ae:64:bc:2a:
                    d3:eb:30:46:22:30:35:50:7d:02:31:bc:54:98:1d:
                    4d:c6:5a:3d:93:cf:2a:91:25:17:72:53:8f:3a:ce:
                    3b:19:61:60:a5:e2:0b:1d:90:c1:81:d1:de:c9:5b:
                    8a:80:8c:5b:0e:32:f7:d5:31:e8:da:52:f3:e3:51:
                    c3:22:02:5f:98:b8:83:2f:fc:c3:04:5c:d4:22:2a:
                    e6:a0:38:a8:22:ec:72:6c:7e:c0:79:ce:b7:11:bf:
                    82:2a:cb:11:68:32:2a:9a:da:b4:f1:21:f3:67:18:
                    4c:9e:3b:06:b2:cf:92:4b:32:d0:2b:8f:67:63:8d:
                    23:d3:06:1d:85:c2:19:8a:e7:bd:48:7b:23:7d:71:
                    e7:5d:cb:ea:f2:7f:b4:f3:0f:5f:19:9d:f8:d0:ef:
                    d4:4d
                Exponent: 65537 (0x10001)
        X509v3 extensions:
            Netscape Cert Type: 
                SSL Server
            X509v3 Subject Key Identifier: 
                02:A3:84:1A:1E:D8:4F:0B:01:78:9F:06:D7:9A:1A:64:59:8C:E0:D3
            X509v3 Authority Key Identifier: 
                keyid:FA:E9:1F:A5:AF:8B:4E:18:FF:EF:B7:EA:8F:FB:98:BC:59:23:81:DF
                DirName:/CN=SHILLONGCA_CA/C=IN/O=CITRIX/OU=ANG/ST=KA/emailAddress=SHILLONGCA_CA@SHILLONGCA_mail.com
                serial:FB:D0:92:FD:A2:7C:35:0C

            Authority Information Access: 
                OCSP - URI:http://172.28.20.1/responderpath

    Signature Algorithm: sha256WithRSAEncryption
         53:d5:74:37:f6:09:a5:e2:a0:38:27:a3:85:92:c5:87:a6:15:
         b3:d9:3e:4b:d2:0b:c0:7d:a3:25:34:88:15:55:fc:1b:94:11:
         f9:01:d7:5c:64:de:6a:4d:52:a4:01:45:6c:ef:a3:52:d7:6f:
         a2:91:d5:69:aa:26:c3:16:fe:55:20:e2:2b:32:30:58:cc:3e:
         0c:e6:a9:dc:05:9e:04:22:d3:f1:9c:a4:89:52:5c:62:ad:2d:
         3b:a1:d3:16:3d:6c:12:62:d2:db:b5:8c:58:a2:4a:37:8f:66:
         bf:14:e5:bb:07:f9:b2:28:4f:e0:f3:50:f4:de:16:0b:d0:bd:
         3d:16:be:c3:43:d9:a1:6d:da:3f:2a:6f:26:89:84:7f:dc:4a:
         7b:17:52:67:20:52:4e:09:50:77:47:56:ca:31:87:35:6b:7b:
         5b:ba:4b:de:b5:dd:1e:99:1c:3d:1f:ea:1d:1f:36:ae:52:0a:
         f2:0d:21:e3:de:95:fe:06:e5:6b:7d:59:c2:72:08:e2:9e:ad:
         a0:1b:1f:87:9e:28:e1:10:48:45:4f:56:f8:06:87:80:56:4b:
         a2:a4:2f:58:26:67:1a:3a:54:2d:3a:2f:40:f5:b4:c3:a7:e9:
         01:a2:a5:6d:6f:27:2d:a8:31:54:a8:26:47:18:d4:d8:d6:ab:
         f2:45:dd:1a
-----BEGIN CERTIFICATE-----
MIIEqzCCA5OgAwIBAgIGCgsMDQ4wMA0GCSqGSIb3DQEBCwUAMIGDMRYwFAYDVQQD
FA1TSElMTE9OR0NBX0NBMQswCQYDVQQGEwJJTjEPMA0GA1UEChMGQ0lUUklYMQww
CgYDVQQLEwNBTkcxCzAJBgNVBAgTAktBMTAwLgYJKoZIhvcNAQkBFiFTSElMTE9O
R0NBX0NBQFNISUxMT05HQ0FfbWFpbC5jb20wHhcNMTYwNzA4MDQ0MDE0WhcNMjYw
NzA2MDQ0MDE0WjB2MQswCQYDVQQIEwJLQTELMAkGA1UEBhMCSU4xHjAcBgNVBAMU
FTEzNF9TSElMTE9OR0NBX3NlcnZlcjEpMCcGCSqGSIb3DQEJARYaMTM0X1NISUxM
T05HQ0FAdGVzdF9jYS5jb20xDzANBgNVBAoTBkNJVFJJWDCCASIwDQYJKoZIhvcN
AQEBBQADggEPADCCAQoCggEBALuf6UZRmEpRgTaWBGxZcmDfW3gE0DMHfwbIxssD
F0Rky9J5OMAFjfTKWuyljtV4Sk4r5GY5CAg9CFI3DFgArzqAp5AM8Kj+qqUcBMld
ax9VACiAoFopCXdFo1zEvf3TTebdboquZLwq0+swRiIwNVB9AjG8VJgdTcZaPZPP
KpElF3JTjzrOOxlhYKXiCx2QwYHR3slbioCMWw4y99Ux6NpS8+NRwyICX5i4gy/8
wwRc1CIq5qA4qCLscmx+wHnOtxG/girLEWgyKpratPEh82cYTJ47BrLPkksy0CuP
Z2ONI9MGHYXCGYrnvUh7I31x513L6vJ/tPMPXxmd+NDv1E0CAwEAAaOCAS8wggEr
MBEGCWCGSAGG+EIBAQQEAwIGQDAdBgNVHQ4EFgQUAqOEGh7YTwsBeJ8G15oaZFmM
4NMwgbgGA1UdIwSBsDCBrYAU+ukfpa+LThj/77fqj/uYvFkjgd+hgYmkgYYwgYMx
FjAUBgNVBAMUDVNISUxMT05HQ0FfQ0ExCzAJBgNVBAYTAklOMQ8wDQYDVQQKEwZD
SVRSSVgxDDAKBgNVBAsTA0FORzELMAkGA1UECBMCS0ExMDAuBgkqhkiG9w0BCQEW
IVNISUxMT05HQ0FfQ0FAU0hJTExPTkdDQV9tYWlsLmNvbYIJAPvQkv2ifDUMMDwG
CCsGAQUFBwEBBDAwLjAsBggrBgEFBQcwAYYgaHR0cDovLzE3Mi4yOC4yMC4xL3Jl
c3BvbmRlcnBhdGgwDQYJKoZIhvcNAQELBQADggEBAFPVdDf2CaXioDgno4WSxYem
FbPZPkvSC8B9oyU0iBVV/BuUEfkB11xk3mpNUqQBRWzvo1LXb6KR1WmqJsMW/lUg
4isyMFjMPgzmqdwFngQi0/GcpIlSXGKtLTuh0xY9bBJi0tu1jFiiSjePZr8U5bsH
+bIoT+DzUPTeFgvQvT0WvsND2aFt2j8qbyaJhH/cSnsXUmcgUk4JUHdHVsoxhzVr
e1u6S9613R6ZHD0f6h0fNq5SCvINIePelf4G5Wt9WcJyCOKeraAbH4eeKOEQSEVP
VvgGh4BWS6KkL1gmZxo6VC06L0D1tMOn6QGipW1vJy2oMVSoJkcY1NjWq/JF3Ro=
-----END CERTIFICATE-----
