Certificate:
    Data:
        Version: 3 (0x2)
        Serial Number: 11042563100210 (0xa0b0c0d0e32)
    Signature Algorithm: sha256WithRSAEncryption
        Issuer: CN=SHILLONGCA_CA, C=IN, O=CITRIX, OU=ANG, ST=KA/emailAddress=SHILLONGCA_CA@SHILLONGCA_mail.com
        Validity
            Not Before: Jul  8 04:40:15 2016 GMT
            Not After : Jul  6 04:40:15 2026 GMT
        Subject: ST=KA, C=IN, CN=136_SHILLONGCA_server/emailAddress=136_SHILLONGCA@test_ca.com, O=CITRIX
        Subject Public Key Info:
            Public Key Algorithm: rsaEncryption
                Public-Key: (2048 bit)
                Modulus:
                    00:bf:b4:d3:7b:45:2e:29:d0:9f:1b:58:87:62:90:
                    37:cf:26:fd:3e:65:b5:aa:cd:84:58:76:f8:7d:8d:
                    30:e5:ec:d8:ec:ad:c4:ad:4a:6f:5d:0d:85:6d:ae:
                    c5:ba:29:95:9f:4b:1d:21:82:25:ee:e0:c7:7f:ab:
                    e4:7f:88:f1:bd:f4:99:03:66:70:f7:3c:00:ee:8d:
                    8a:34:51:7e:b8:3a:8c:54:ae:70:c4:2b:67:24:2e:
                    c3:ea:c9:49:fc:53:4e:e7:73:a4:6b:fe:06:06:6d:
                    97:85:11:df:62:cd:09:7e:3f:89:f3:1c:43:0f:fd:
                    6d:92:97:36:6e:df:bd:0b:44:af:58:03:8f:71:80:
                    00:69:9b:55:66:da:77:f5:ee:b9:9f:0f:ab:39:d1:
                    98:bd:77:7c:9c:35:4f:72:fd:db:97:d5:9f:db:b5:
                    0b:5c:f6:9a:6b:84:af:e6:70:aa:65:32:4d:ab:06:
                    ba:1c:6f:9a:ea:be:6d:bd:cb:30:8d:13:8c:1a:69:
                    02:0f:d8:05:80:00:c3:e3:e5:d0:41:2e:ac:87:5d:
                    ce:28:7f:b2:98:b3:a1:39:a4:e0:47:83:e8:3a:02:
                    6b:c8:b3:46:3a:5c:d4:80:3c:68:c4:cb:d3:58:55:
                    7f:ee:21:2c:d2:87:c3:64:f8:c2:7a:90:7f:82:fc:
                    e0:bd
                Exponent: 65537 (0x10001)
        X509v3 extensions:
            Netscape Cert Type: 
                SSL Server
            X509v3 Subject Key Identifier: 
                FE:FF:16:33:2A:66:F4:0E:10:39:55:AD:42:F3:B9:2D:E5:9A:58:D2
            X509v3 Authority Key Identifier: 
                keyid:FA:E9:1F:A5:AF:8B:4E:18:FF:EF:B7:EA:8F:FB:98:BC:59:23:81:DF
                DirName:/CN=SHILLONGCA_CA/C=IN/O=CITRIX/OU=ANG/ST=KA/emailAddress=SHILLONGCA_CA@SHILLONGCA_mail.com
                serial:FB:D0:92:FD:A2:7C:35:0C

            Authority Information Access: 
                OCSP - URI:http://172.28.20.1/responderpath

    Signature Algorithm: sha256WithRSAEncryption
         0b:0a:97:d7:3d:4a:d3:54:31:4c:b1:3f:1d:45:98:e5:ff:0a:
         26:bd:fa:30:ac:06:eb:80:6c:7c:6f:5a:37:b2:6b:c7:3f:23:
         75:08:ce:71:d0:74:44:79:55:65:66:b1:92:7c:11:e3:16:7a:
         2e:d2:89:31:f6:b3:38:33:43:cd:34:9c:89:d7:17:1d:99:0f:
         a3:0e:50:59:a6:20:a2:9a:9c:d0:d6:f1:7d:46:d9:be:e8:18:
         ad:a2:ee:91:be:74:f5:62:68:ec:78:63:92:56:fd:9a:c3:e2:
         89:df:81:b3:49:ab:0f:c4:df:ba:28:6e:be:1e:96:d5:19:22:
         d0:26:20:d7:13:22:2c:b0:fd:6f:6f:7f:86:16:c0:a4:24:e7:
         e1:86:7e:dc:d8:1a:89:72:73:ee:8a:7a:4d:eb:39:90:59:01:
         4d:54:60:da:d0:76:16:4c:61:f9:cd:58:32:9b:34:f7:46:bc:
         63:9b:18:b7:6a:59:e6:05:c3:aa:33:7a:6d:87:d6:2d:df:44:
         6b:f0:af:0c:f8:4c:73:a3:d7:cf:b7:80:1b:fb:1d:2d:03:65:
         d8:6c:63:e1:c1:1b:00:a7:51:c9:5d:4b:63:8a:f7:98:cb:3c:
         75:8d:b1:6e:df:1c:3c:6d:f5:f1:93:52:9e:5e:5f:94:07:24:
         17:e8:55:c6
-----BEGIN CERTIFICATE-----
MIIEqzCCA5OgAwIBAgIGCgsMDQ4yMA0GCSqGSIb3DQEBCwUAMIGDMRYwFAYDVQQD
FA1TSElMTE9OR0NBX0NBMQswCQYDVQQGEwJJTjEPMA0GA1UEChMGQ0lUUklYMQww
CgYDVQQLEwNBTkcxCzAJBgNVBAgTAktBMTAwLgYJKoZIhvcNAQkBFiFTSElMTE9O
R0NBX0NBQFNISUxMT05HQ0FfbWFpbC5jb20wHhcNMTYwNzA4MDQ0MDE1WhcNMjYw
NzA2MDQ0MDE1WjB2MQswCQYDVQQIEwJLQTELMAkGA1UEBhMCSU4xHjAcBgNVBAMU
FTEzNl9TSElMTE9OR0NBX3NlcnZlcjEpMCcGCSqGSIb3DQEJARYaMTM2X1NISUxM
T05HQ0FAdGVzdF9jYS5jb20xDzANBgNVBAoTBkNJVFJJWDCCASIwDQYJKoZIhvcN
AQEBBQADggEPADCCAQoCggEBAL+003tFLinQnxtYh2KQN88m/T5ltarNhFh2+H2N
MOXs2OytxK1Kb10NhW2uxboplZ9LHSGCJe7gx3+r5H+I8b30mQNmcPc8AO6NijRR
frg6jFSucMQrZyQuw+rJSfxTTudzpGv+BgZtl4UR32LNCX4/ifMcQw/9bZKXNm7f
vQtEr1gDj3GAAGmbVWbad/XuuZ8PqznRmL13fJw1T3L925fVn9u1C1z2mmuEr+Zw
qmUyTasGuhxvmuq+bb3LMI0TjBppAg/YBYAAw+Pl0EEurIddzih/spizoTmk4EeD
6DoCa8izRjpc1IA8aMTL01hVf+4hLNKHw2T4wnqQf4L84L0CAwEAAaOCAS8wggEr
MBEGCWCGSAGG+EIBAQQEAwIGQDAdBgNVHQ4EFgQU/v8WMypm9A4QOVWtQvO5LeWa
WNIwgbgGA1UdIwSBsDCBrYAU+ukfpa+LThj/77fqj/uYvFkjgd+hgYmkgYYwgYMx
FjAUBgNVBAMUDVNISUxMT05HQ0FfQ0ExCzAJBgNVBAYTAklOMQ8wDQYDVQQKEwZD
SVRSSVgxDDAKBgNVBAsTA0FORzELMAkGA1UECBMCS0ExMDAuBgkqhkiG9w0BCQEW
IVNISUxMT05HQ0FfQ0FAU0hJTExPTkdDQV9tYWlsLmNvbYIJAPvQkv2ifDUMMDwG
CCsGAQUFBwEBBDAwLjAsBggrBgEFBQcwAYYgaHR0cDovLzE3Mi4yOC4yMC4xL3Jl
c3BvbmRlcnBhdGgwDQYJKoZIhvcNAQELBQADggEBAAsKl9c9StNUMUyxPx1FmOX/
Cia9+jCsBuuAbHxvWjeya8c/I3UIznHQdER5VWVmsZJ8EeMWei7SiTH2szgzQ800
nInXFx2ZD6MOUFmmIKKanNDW8X1G2b7oGK2i7pG+dPViaOx4Y5JW/ZrD4onfgbNJ
qw/E37oobr4eltUZItAmINcTIiyw/W9vf4YWwKQk5+GGftzYGolyc+6Kek3rOZBZ
AU1UYNrQdhZMYfnNWDKbNPdGvGObGLdqWeYFw6ozem2H1i3fRGvwrwz4THOj18+3
gBv7HS0DZdhsY+HBGwCnUcldS2OK95jLPHWNsW7fHDxt9fGTUp5eX5QHJBfoVcY=
-----END CERTIFICATE-----
