Certificate:
    Data:
        Version: 3 (0x2)
        Serial Number: 11042563100204 (0xa0b0c0d0e2c)
    Signature Algorithm: sha256WithRSAEncryption
        Issuer: CN=SHILLONGCA_CA, C=IN, O=CITRIX, OU=ANG, ST=KA/emailAddress=SHILLONGCA_CA@SHILLONGCA_mail.com
        Validity
            Not Before: Jul  8 04:40:14 2016 GMT
            Not After : Jul  6 04:40:14 2026 GMT
        Subject: ST=KA, C=IN, CN=130_SHILLONGCA_server/emailAddress=130_SHILLONGCA@test_ca.com, O=CITRIX
        Subject Public Key Info:
            Public Key Algorithm: rsaEncryption
                Public-Key: (2048 bit)
                Modulus:
                    00:b3:55:1a:10:c4:0b:b4:2e:a0:e0:d1:84:8a:38:
                    c9:bc:51:81:07:c1:97:e7:bc:b6:fd:00:3b:81:47:
                    ba:f1:f7:51:be:29:7f:b0:62:b6:c7:e7:32:fb:0c:
                    4b:36:a4:ca:58:e0:7b:96:56:6b:f0:60:da:1a:c8:
                    e3:44:76:c8:8e:54:52:12:c8:04:d4:c5:e4:41:f8:
                    32:d5:e7:58:95:f9:de:69:9d:52:c4:cb:9c:91:b3:
                    a5:1b:45:36:3b:cf:1b:5b:f9:4a:27:89:26:89:02:
                    04:a2:e7:2e:56:42:52:d4:28:63:74:12:fd:a4:04:
                    cb:3e:08:8c:c7:41:8a:f1:45:47:cf:3f:ca:87:51:
                    b9:a4:dc:e5:80:4e:92:88:c0:65:e8:40:8f:e8:4d:
                    a2:3a:61:59:96:c8:e8:9c:59:5a:f5:56:f2:b1:ca:
                    2f:d5:fa:ec:2e:8f:fe:66:01:30:6b:40:6b:ea:f5:
                    b7:85:b4:d4:75:0c:25:38:30:b0:34:43:eb:f3:d0:
                    0b:1c:0a:25:9f:84:97:f1:ce:57:6b:96:25:cf:95:
                    87:e9:ac:62:34:3d:70:af:e5:c7:a3:6e:c1:cb:54:
                    5a:36:1e:ee:1d:0f:8f:b3:09:bf:77:3c:16:94:61:
                    fa:e2:20:09:d9:9a:24:0c:74:cc:87:75:e6:6d:83:
                    bd:53
                Exponent: 65537 (0x10001)
        X509v3 extensions:
            Netscape Cert Type: 
                SSL Server
            X509v3 Subject Key Identifier: 
                8F:E9:25:10:48:65:86:59:98:32:30:15:DB:40:B3:CE:1F:92:98:6C
            X509v3 Authority Key Identifier: 
                keyid:FA:E9:1F:A5:AF:8B:4E:18:FF:EF:B7:EA:8F:FB:98:BC:59:23:81:DF
                DirName:/CN=SHILLONGCA_CA/C=IN/O=CITRIX/OU=ANG/ST=KA/emailAddress=SHILLONGCA_CA@SHILLONGCA_mail.com
                serial:FB:D0:92:FD:A2:7C:35:0C

            Authority Information Access: 
                OCSP - URI:http://172.28.10.1/responderpath

    Signature Algorithm: sha256WithRSAEncryption
         5e:50:7c:42:94:5e:02:71:c9:ef:ec:f5:85:65:cc:5e:6e:d6:
         56:20:11:80:d6:a2:31:d6:54:8c:8f:13:2b:d0:ce:df:06:29:
         e5:79:40:e8:92:1b:14:6c:97:eb:31:b9:d4:4a:c0:4d:4b:3f:
         c9:17:f6:52:f0:c6:18:ce:6f:73:e2:80:e1:16:e0:72:9a:5f:
         35:f8:7b:c8:49:a7:cb:76:d5:01:44:75:6f:5c:b1:22:a5:b4:
         03:12:0d:1d:b7:24:b3:b8:bb:a5:8d:56:63:6c:4c:08:4d:71:
         7d:92:36:df:96:c5:c1:b9:c7:98:da:e7:03:09:e7:21:e8:54:
         82:c0:8c:53:15:b9:6b:8f:fa:c6:ae:93:f5:68:67:7b:01:ad:
         a6:d8:28:a0:04:62:d0:5d:30:18:39:ad:60:4d:84:4b:b9:0f:
         9e:08:b8:16:13:07:fb:c3:50:c0:0a:28:f7:a4:f8:6e:c7:51:
         1e:7e:3a:f3:2d:d4:4e:ea:4c:66:37:b7:ab:4e:72:ad:24:32:
         d1:7e:5c:12:4a:dd:6e:ff:3d:59:a1:1e:95:58:a6:c5:09:a0:
         63:14:cf:d4:c7:e6:b8:34:cb:2d:3d:75:12:ac:20:b9:ab:36:
         94:58:ca:4d:50:59:44:c2:16:b6:3d:1e:40:a0:84:2e:14:e7:
         71:f9:8f:1a
-----BEGIN CERTIFICATE-----
MIIEqzCCA5OgAwIBAgIGCgsMDQ4sMA0GCSqGSIb3DQEBCwUAMIGDMRYwFAYDVQQD
FA1TSElMTE9OR0NBX0NBMQswCQYDVQQGEwJJTjEPMA0GA1UEChMGQ0lUUklYMQww
CgYDVQQLEwNBTkcxCzAJBgNVBAgTAktBMTAwLgYJKoZIhvcNAQkBFiFTSElMTE9O
R0NBX0NBQFNISUxMT05HQ0FfbWFpbC5jb20wHhcNMTYwNzA4MDQ0MDE0WhcNMjYw
NzA2MDQ0MDE0WjB2MQswCQYDVQQIEwJLQTELMAkGA1UEBhMCSU4xHjAcBgNVBAMU
FTEzMF9TSElMTE9OR0NBX3NlcnZlcjEpMCcGCSqGSIb3DQEJARYaMTMwX1NISUxM
T05HQ0FAdGVzdF9jYS5jb20xDzANBgNVBAoTBkNJVFJJWDCCASIwDQYJKoZIhvcN
AQEBBQADggEPADCCAQoCggEBALNVGhDEC7QuoODRhIo4ybxRgQfBl+e8tv0AO4FH
uvH3Ub4pf7BitsfnMvsMSzakyljge5ZWa/Bg2hrI40R2yI5UUhLIBNTF5EH4MtXn
WJX53mmdUsTLnJGzpRtFNjvPG1v5SieJJokCBKLnLlZCUtQoY3QS/aQEyz4IjMdB
ivFFR88/yodRuaTc5YBOkojAZehAj+hNojphWZbI6JxZWvVW8rHKL9X67C6P/mYB
MGtAa+r1t4W01HUMJTgwsDRD6/PQCxwKJZ+El/HOV2uWJc+Vh+msYjQ9cK/lx6Nu
wctUWjYe7h0Pj7MJv3c8FpRh+uIgCdmaJAx0zId15m2DvVMCAwEAAaOCAS8wggEr
MBEGCWCGSAGG+EIBAQQEAwIGQDAdBgNVHQ4EFgQUj+klEEhlhlmYMjAV20Czzh+S
mGwwgbgGA1UdIwSBsDCBrYAU+ukfpa+LThj/77fqj/uYvFkjgd+hgYmkgYYwgYMx
FjAUBgNVBAMUDVNISUxMT05HQ0FfQ0ExCzAJBgNVBAYTAklOMQ8wDQYDVQQKEwZD
SVRSSVgxDDAKBgNVBAsTA0FORzELMAkGA1UECBMCS0ExMDAuBgkqhkiG9w0BCQEW
IVNISUxMT05HQ0FfQ0FAU0hJTExPTkdDQV9tYWlsLmNvbYIJAPvQkv2ifDUMMDwG
CCsGAQUFBwEBBDAwLjAsBggrBgEFBQcwAYYgaHR0cDovLzE3Mi4yOC4xMC4xL3Jl
c3BvbmRlcnBhdGgwDQYJKoZIhvcNAQELBQADggEBAF5QfEKUXgJxye/s9YVlzF5u
1lYgEYDWojHWVIyPEyvQzt8GKeV5QOiSGxRsl+sxudRKwE1LP8kX9lLwxhjOb3Pi
gOEW4HKaXzX4e8hJp8t21QFEdW9csSKltAMSDR23JLO4u6WNVmNsTAhNcX2SNt+W
xcG5x5ja5wMJ5yHoVILAjFMVuWuP+sauk/VoZ3sBrabYKKAEYtBdMBg5rWBNhEu5
D54IuBYTB/vDUMAKKPek+G7HUR5+OvMt1E7qTGY3t6tOcq0kMtF+XBJK3W7/PVmh
HpVYpsUJoGMUz9TH5rg0yy09dRKsILmrNpRYyk1QWUTCFrY9HkCghC4U53H5jxo=
-----END CERTIFICATE-----
