Certificate:
    Data:
        Version: 3 (0x2)
        Serial Number: 11042563100187 (0xa0b0c0d0e1b)
    Signature Algorithm: sha256WithRSAEncryption
        Issuer: CN=SHILLONGCA_CA, C=IN, O=CITRIX, OU=ANG, ST=KA/emailAddress=SHILLONGCA_CA@SHILLONGCA_mail.com
        Validity
            Not Before: Jul  8 04:40:10 2016 GMT
            Not After : Jul  6 04:40:10 2026 GMT
        Subject: ST=KA, C=IN, CN=113_SHILLONGCA_server/emailAddress=113_SHILLONGCA@test_ca.com, O=CITRIX
        Subject Public Key Info:
            Public Key Algorithm: rsaEncryption
                Public-Key: (2048 bit)
                Modulus:
                    00:c0:04:ac:32:2d:f3:2c:49:12:70:18:f4:35:bb:
                    7b:a2:f3:dc:45:42:00:7f:b8:15:73:35:ca:29:54:
                    dc:50:90:32:c7:ec:f2:0b:a8:97:9c:a2:e6:36:2a:
                    08:a1:cb:01:b8:a5:86:24:39:42:1f:a4:58:a2:11:
                    0f:9a:c1:c4:1f:30:a2:6c:84:b5:93:97:f5:c8:f8:
                    74:e4:97:7c:f3:82:6b:ed:b8:72:81:08:06:99:5b:
                    5b:eb:21:e7:81:90:44:21:23:72:3c:77:c4:17:24:
                    53:b4:2b:57:ea:59:42:98:2e:00:c3:82:6f:be:dc:
                    68:85:99:5f:2e:a9:9a:92:41:e9:16:70:9a:cc:f6:
                    d5:41:99:88:73:0d:54:27:33:eb:dd:39:41:23:31:
                    55:60:07:b7:f3:87:99:4b:10:d9:df:c4:a1:0c:e2:
                    56:cf:0d:f5:2e:c3:c3:34:80:71:a6:8e:d0:db:bf:
                    0a:c2:4f:d3:d1:66:29:36:50:7c:16:96:0b:83:7c:
                    d6:19:3c:37:cb:84:18:58:24:8f:f9:e1:be:14:32:
                    ee:b0:9e:f8:fe:32:de:9e:ba:70:5d:29:ef:8e:5e:
                    0e:96:32:54:e4:4d:94:f6:ea:18:3e:2d:22:69:a9:
                    4f:ce:6c:b1:da:e2:67:a2:16:21:36:8e:33:6c:af:
                    7b:0b
                Exponent: 65537 (0x10001)
        X509v3 extensions:
            Netscape Cert Type: 
                SSL Server
            X509v3 Subject Key Identifier: 
                B9:F2:7A:52:E4:60:B2:6A:FB:82:EA:24:32:B9:08:BC:A7:9B:59:71
            X509v3 Authority Key Identifier: 
                keyid:FA:E9:1F:A5:AF:8B:4E:18:FF:EF:B7:EA:8F:FB:98:BC:59:23:81:DF
                DirName:/CN=SHILLONGCA_CA/C=IN/O=CITRIX/OU=ANG/ST=KA/emailAddress=SHILLONGCA_CA@SHILLONGCA_mail.com
                serial:FB:D0:92:FD:A2:7C:35:0C

            Authority Information Access: 
                OCSP - URI:http://SHILLONGCA_two.ocsptest.com/responderpath

    Signature Algorithm: sha256WithRSAEncryption
         0f:28:3a:b4:b0:b2:5b:4c:27:fe:b3:19:6d:eb:99:c8:44:3f:
         52:24:9f:98:fc:fb:08:12:72:25:3e:9b:8a:d9:99:63:e4:0c:
         b2:e1:66:60:2f:38:ef:ec:85:12:e2:8b:d8:f9:ce:dc:99:09:
         f5:3f:ba:d8:ce:3b:bc:da:9c:86:64:4f:08:a2:4f:20:9c:f6:
         02:fe:7f:ed:64:07:47:fe:4b:83:44:a9:ae:f7:da:eb:8a:38:
         81:f9:89:4f:33:0b:37:38:f3:ca:e4:94:4b:ab:65:34:5a:26:
         72:1d:7c:6e:1e:98:53:11:0b:b5:f7:0b:9f:92:3a:33:5e:d5:
         64:a4:25:38:2f:d3:80:05:1e:7c:41:28:95:11:5a:3c:e5:36:
         11:2e:7e:93:9c:2a:b6:a0:e9:31:77:67:9e:bc:aa:0e:d5:6b:
         65:7a:d0:8d:91:48:4f:1b:54:b3:69:f0:55:af:52:1c:16:76:
         25:08:63:99:d7:a5:96:f0:d3:d8:b8:a7:fe:cd:df:2f:d0:9e:
         c1:33:48:62:21:d4:06:34:86:53:6e:28:61:81:cb:1c:8c:e2:
         45:73:72:90:97:94:75:cc:e4:bd:a4:be:9c:4a:8c:ae:b9:64:
         58:55:27:ce:bb:7e:b2:cf:72:ae:5f:a6:84:7e:0b:a4:62:1f:
         6c:3d:ac:14
-----BEGIN CERTIFICATE-----
MIIEuzCCA6OgAwIBAgIGCgsMDQ4bMA0GCSqGSIb3DQEBCwUAMIGDMRYwFAYDVQQD
FA1TSElMTE9OR0NBX0NBMQswCQYDVQQGEwJJTjEPMA0GA1UEChMGQ0lUUklYMQww
CgYDVQQLEwNBTkcxCzAJBgNVBAgTAktBMTAwLgYJKoZIhvcNAQkBFiFTSElMTE9O
R0NBX0NBQFNISUxMT05HQ0FfbWFpbC5jb20wHhcNMTYwNzA4MDQ0MDEwWhcNMjYw
NzA2MDQ0MDEwWjB2MQswCQYDVQQIEwJLQTELMAkGA1UEBhMCSU4xHjAcBgNVBAMU
FTExM19TSElMTE9OR0NBX3NlcnZlcjEpMCcGCSqGSIb3DQEJARYaMTEzX1NISUxM
T05HQ0FAdGVzdF9jYS5jb20xDzANBgNVBAoTBkNJVFJJWDCCASIwDQYJKoZIhvcN
AQEBBQADggEPADCCAQoCggEBAMAErDIt8yxJEnAY9DW7e6Lz3EVCAH+4FXM1yilU
3FCQMsfs8guol5yi5jYqCKHLAbilhiQ5Qh+kWKIRD5rBxB8womyEtZOX9cj4dOSX
fPOCa+24coEIBplbW+sh54GQRCEjcjx3xBckU7QrV+pZQpguAMOCb77caIWZXy6p
mpJB6RZwmsz21UGZiHMNVCcz6905QSMxVWAHt/OHmUsQ2d/EoQziVs8N9S7DwzSA
caaO0Nu/CsJP09FmKTZQfBaWC4N81hk8N8uEGFgkj/nhvhQy7rCe+P4y3p66cF0p
745eDpYyVORNlPbqGD4tImmpT85ssdriZ6IWITaOM2yvewsCAwEAAaOCAT8wggE7
MBEGCWCGSAGG+EIBAQQEAwIGQDAdBgNVHQ4EFgQUufJ6UuRgsmr7guokMrkIvKeb
WXEwgbgGA1UdIwSBsDCBrYAU+ukfpa+LThj/77fqj/uYvFkjgd+hgYmkgYYwgYMx
FjAUBgNVBAMUDVNISUxMT05HQ0FfQ0ExCzAJBgNVBAYTAklOMQ8wDQYDVQQKEwZD
SVRSSVgxDDAKBgNVBAsTA0FORzELMAkGA1UECBMCS0ExMDAuBgkqhkiG9w0BCQEW
IVNISUxMT05HQ0FfQ0FAU0hJTExPTkdDQV9tYWlsLmNvbYIJAPvQkv2ifDUMMEwG
CCsGAQUFBwEBBEAwPjA8BggrBgEFBQcwAYYwaHR0cDovL1NISUxMT05HQ0FfdHdv
Lm9jc3B0ZXN0LmNvbS9yZXNwb25kZXJwYXRoMA0GCSqGSIb3DQEBCwUAA4IBAQAP
KDq0sLJbTCf+sxlt65nIRD9SJJ+Y/PsIEnIlPpuK2Zlj5Ayy4WZgLzjv7IUS4ovY
+c7cmQn1P7rYzju82pyGZE8Iok8gnPYC/n/tZAdH/kuDRKmu99rrijiB+YlPMws3
OPPK5JRLq2U0WiZyHXxuHphTEQu19wufkjozXtVkpCU4L9OABR58QSiVEVo85TYR
Ln6TnCq2oOkxd2eevKoO1WtletCNkUhPG1SzafBVr1IcFnYlCGOZ16WW8NPYuKf+
zd8v0J7BM0hiIdQGNIZTbihhgcscjOJFc3KQl5R1zOS9pL6cSoyuuWRYVSfOu36y
z3KuX6aEfgukYh9sPawU
-----END CERTIFICATE-----
