Certificate:
    Data:
        Version: 3 (0x2)
        Serial Number: 11042563100182 (0xa0b0c0d0e16)
    Signature Algorithm: sha256WithRSAEncryption
        Issuer: CN=SHILLONGCA_CA, C=IN, O=CITRIX, OU=ANG, ST=KA/emailAddress=SHILLONGCA_CA@SHILLONGCA_mail.com
        Validity
            Not Before: Jul  8 04:40:08 2016 GMT
            Not After : Jul  6 04:40:08 2026 GMT
        Subject: ST=KA, C=IN, CN=108_SHILLONGCA_server/emailAddress=108_SHILLONGCA@test_ca.com, O=CITRIX
        Subject Public Key Info:
            Public Key Algorithm: rsaEncryption
                Public-Key: (2048 bit)
                Modulus:
                    00:98:82:7c:16:c3:b3:e4:c3:3c:5c:81:cf:f6:52:
                    d5:18:12:95:d0:5d:be:8b:55:43:0d:94:55:70:94:
                    aa:6f:c1:45:f6:62:67:d3:c6:d9:95:0e:5e:dd:39:
                    34:3c:70:bc:e7:bf:70:09:2d:82:91:3b:13:e6:a7:
                    ff:49:6b:b4:03:7e:cc:b4:43:8f:49:db:64:87:db:
                    bf:88:55:1e:f4:da:5d:9a:cb:8d:72:2b:9d:a2:3e:
                    fc:4a:75:74:43:57:6a:3d:1d:7d:9e:5d:ab:4b:94:
                    c2:74:3e:42:c6:12:ea:a0:b5:db:9f:ea:de:83:ed:
                    25:11:07:74:3e:cd:58:1e:e6:0a:42:77:3f:3f:8c:
                    01:f1:51:18:78:a3:51:e9:83:a3:d0:21:78:b6:62:
                    cc:0c:b7:6e:b5:5b:74:05:de:e6:f4:f9:d2:90:17:
                    ad:cf:3c:e7:75:25:18:d4:3f:be:e2:67:70:6a:e8:
                    3e:c9:6d:e6:cc:d8:fe:e4:7a:36:49:48:d7:0e:81:
                    40:9b:4e:9b:8c:22:c5:85:fd:68:69:83:68:6e:6e:
                    ff:40:86:c3:05:eb:3a:9d:f4:01:ab:fb:8e:c0:4d:
                    10:63:55:b9:64:b1:13:88:b2:24:4f:77:d1:50:8a:
                    5d:75:64:42:9b:91:d0:a7:87:59:2a:8f:1b:e9:be:
                    5c:75
                Exponent: 65537 (0x10001)
        X509v3 extensions:
            Netscape Cert Type: 
                SSL Server
            X509v3 Subject Key Identifier: 
                75:2B:8C:65:D9:0A:9A:5E:3B:55:E7:DE:6E:E6:25:DE:63:20:76:19
            X509v3 Authority Key Identifier: 
                keyid:FA:E9:1F:A5:AF:8B:4E:18:FF:EF:B7:EA:8F:FB:98:BC:59:23:81:DF
                DirName:/CN=SHILLONGCA_CA/C=IN/O=CITRIX/OU=ANG/ST=KA/emailAddress=SHILLONGCA_CA@SHILLONGCA_mail.com
                serial:FB:D0:92:FD:A2:7C:35:0C

            Authority Information Access: 
                OCSP - URI:http://SHILLONGCA_one.ocsptest.com/responderpath

    Signature Algorithm: sha256WithRSAEncryption
         0c:49:06:e2:d6:71:22:65:c4:ff:34:51:0d:2f:fd:6c:82:ec:
         4f:b9:41:f7:66:26:a0:63:0b:61:c7:89:f2:e5:b1:6f:a5:5c:
         f8:73:c9:b3:c6:b5:f9:fb:3c:20:66:87:ce:bb:62:1d:e8:d7:
         16:fb:e6:c3:4e:15:47:00:a1:23:ee:9a:fa:14:08:8d:44:28:
         56:c6:28:b6:b7:0d:4d:ba:ef:54:61:e2:24:e5:de:fc:e7:c6:
         cb:54:f0:5c:bc:8d:5c:a3:b8:b7:63:10:03:00:fb:98:d1:51:
         cf:ee:8f:18:dc:40:5d:74:68:23:d7:6e:0d:25:fd:b4:87:1d:
         a8:cd:69:29:e7:4d:24:d2:79:8e:de:91:45:97:b9:5d:ef:1f:
         7b:dc:22:97:d1:60:c0:74:32:3d:4d:d6:77:56:60:dc:24:9c:
         28:9a:34:81:9c:92:6b:12:4f:35:61:5a:9c:51:80:8d:f0:09:
         26:b2:2c:e8:d7:5e:4f:14:d8:9c:56:09:02:49:2a:8e:43:96:
         6c:15:b7:2f:c9:ae:5a:5e:60:e1:02:5f:4e:6d:c0:0a:9d:5b:
         b8:ff:7b:5a:ba:2f:7e:0e:e6:86:21:1c:d5:4b:a0:8b:c3:22:
         1c:f3:74:7d:0b:20:ab:99:e3:e6:a5:f5:af:38:12:97:42:ba:
         a1:ad:0e:19
-----BEGIN CERTIFICATE-----
MIIEuzCCA6OgAwIBAgIGCgsMDQ4WMA0GCSqGSIb3DQEBCwUAMIGDMRYwFAYDVQQD
FA1TSElMTE9OR0NBX0NBMQswCQYDVQQGEwJJTjEPMA0GA1UEChMGQ0lUUklYMQww
CgYDVQQLEwNBTkcxCzAJBgNVBAgTAktBMTAwLgYJKoZIhvcNAQkBFiFTSElMTE9O
R0NBX0NBQFNISUxMT05HQ0FfbWFpbC5jb20wHhcNMTYwNzA4MDQ0MDA4WhcNMjYw
NzA2MDQ0MDA4WjB2MQswCQYDVQQIEwJLQTELMAkGA1UEBhMCSU4xHjAcBgNVBAMU
FTEwOF9TSElMTE9OR0NBX3NlcnZlcjEpMCcGCSqGSIb3DQEJARYaMTA4X1NISUxM
T05HQ0FAdGVzdF9jYS5jb20xDzANBgNVBAoTBkNJVFJJWDCCASIwDQYJKoZIhvcN
AQEBBQADggEPADCCAQoCggEBAJiCfBbDs+TDPFyBz/ZS1RgSldBdvotVQw2UVXCU
qm/BRfZiZ9PG2ZUOXt05NDxwvOe/cAktgpE7E+an/0lrtAN+zLRDj0nbZIfbv4hV
HvTaXZrLjXIrnaI+/Ep1dENXaj0dfZ5dq0uUwnQ+QsYS6qC125/q3oPtJREHdD7N
WB7mCkJ3Pz+MAfFRGHijUemDo9AheLZizAy3brVbdAXe5vT50pAXrc8853UlGNQ/
vuJncGroPslt5szY/uR6NklI1w6BQJtOm4wixYX9aGmDaG5u/0CGwwXrOp30Aav7
jsBNEGNVuWSxE4iyJE930VCKXXVkQpuR0KeHWSqPG+m+XHUCAwEAAaOCAT8wggE7
MBEGCWCGSAGG+EIBAQQEAwIGQDAdBgNVHQ4EFgQUdSuMZdkKml47VefebuYl3mMg
dhkwgbgGA1UdIwSBsDCBrYAU+ukfpa+LThj/77fqj/uYvFkjgd+hgYmkgYYwgYMx
FjAUBgNVBAMUDVNISUxMT05HQ0FfQ0ExCzAJBgNVBAYTAklOMQ8wDQYDVQQKEwZD
SVRSSVgxDDAKBgNVBAsTA0FORzELMAkGA1UECBMCS0ExMDAuBgkqhkiG9w0BCQEW
IVNISUxMT05HQ0FfQ0FAU0hJTExPTkdDQV9tYWlsLmNvbYIJAPvQkv2ifDUMMEwG
CCsGAQUFBwEBBEAwPjA8BggrBgEFBQcwAYYwaHR0cDovL1NISUxMT05HQ0Ffb25l
Lm9jc3B0ZXN0LmNvbS9yZXNwb25kZXJwYXRoMA0GCSqGSIb3DQEBCwUAA4IBAQAM
SQbi1nEiZcT/NFENL/1sguxPuUH3ZiagYwthx4ny5bFvpVz4c8mzxrX5+zwgZofO
u2Id6NcW++bDThVHAKEj7pr6FAiNRChWxii2tw1Nuu9UYeIk5d7858bLVPBcvI1c
o7i3YxADAPuY0VHP7o8Y3EBddGgj124NJf20hx2ozWkp500k0nmO3pFFl7ld7x97
3CKX0WDAdDI9TdZ3VmDcJJwomjSBnJJrEk81YVqcUYCN8Akmsizo115PFNicVgkC
SSqOQ5ZsFbcvya5aXmDhAl9ObcAKnVu4/3taui9+DuaGIRzVS6CLwyIc83R9CyCr
mePmpfWvOBKXQrqhrQ4Z
-----END CERTIFICATE-----
