Certificate:
    Data:
        Version: 3 (0x2)
        Serial Number: 11042563100196 (0xa0b0c0d0e24)
    Signature Algorithm: sha256WithRSAEncryption
        Issuer: CN=SHILLONGCA_CA, C=IN, O=CITRIX, OU=ANG, ST=KA/emailAddress=SHILLONGCA_CA@SHILLONGCA_mail.com
        Validity
            Not Before: Jul  8 04:40:11 2016 GMT
            Not After : Jul  6 04:40:11 2026 GMT
        Subject: ST=KA, C=IN, CN=122_SHILLONGCA_server/emailAddress=122_SHILLONGCA@test_ca.com, O=CITRIX
        Subject Public Key Info:
            Public Key Algorithm: rsaEncryption
                Public-Key: (2048 bit)
                Modulus:
                    00:9c:79:ac:68:42:61:8a:55:6d:3d:71:bf:2c:1c:
                    b5:e4:50:69:19:4c:4d:75:1f:a7:55:e8:29:48:5d:
                    26:84:85:49:21:4a:45:ac:20:ad:9a:66:61:68:6e:
                    0c:23:6d:7e:a2:26:2c:d9:cb:98:31:bd:80:70:92:
                    5a:66:4e:cf:4a:7a:07:2d:86:07:59:c4:f1:5d:83:
                    af:d8:a7:48:b3:f0:f4:b7:6f:2c:72:f9:04:cd:8f:
                    be:14:e5:be:90:fc:34:80:90:c8:87:41:4f:43:13:
                    8f:2e:29:3e:77:08:2f:47:e4:5a:a5:9f:cc:ae:d7:
                    e7:89:18:a8:c0:a3:eb:f1:c2:cf:f8:12:4c:10:aa:
                    ee:a0:71:03:0c:c9:9a:ac:ee:9c:b6:f0:57:3f:b0:
                    05:f0:10:d3:3d:2f:d9:73:9e:ac:60:1e:50:6a:bf:
                    f4:cd:df:56:92:50:d7:64:e1:93:90:17:b5:c7:ce:
                    c4:2c:1e:83:e4:5b:7d:29:52:18:9d:59:62:83:54:
                    f7:62:f3:34:23:81:6d:af:6a:c2:b1:1a:08:9d:12:
                    09:5b:21:54:a1:8d:32:a3:79:71:77:44:73:e2:30:
                    ae:ec:e6:37:f3:f7:bc:ba:6f:1d:c5:4d:a1:77:47:
                    7e:84:51:47:7b:b5:b7:3a:ad:75:95:60:88:2d:bb:
                    91:a9
                Exponent: 65537 (0x10001)
        X509v3 extensions:
            Netscape Cert Type: 
                SSL Server
            X509v3 Subject Key Identifier: 
                0F:A3:44:74:F6:6B:F3:75:EC:8C:BD:A4:92:32:91:A2:6E:A2:DE:3E
            X509v3 Authority Key Identifier: 
                keyid:FA:E9:1F:A5:AF:8B:4E:18:FF:EF:B7:EA:8F:FB:98:BC:59:23:81:DF
                DirName:/CN=SHILLONGCA_CA/C=IN/O=CITRIX/OU=ANG/ST=KA/emailAddress=SHILLONGCA_CA@SHILLONGCA_mail.com
                serial:FB:D0:92:FD:A2:7C:35:0C

            Authority Information Access: 
                OCSP - URI:http://172.28.10.1/responderpath

    Signature Algorithm: sha256WithRSAEncryption
         0c:e5:1c:fa:b1:e6:a6:41:d8:78:9c:21:25:86:2b:29:b8:ff:
         9c:a5:9d:c1:6f:43:6d:bb:5d:b8:e8:e9:8c:60:04:e1:2c:0f:
         14:cd:df:aa:ed:05:10:5b:4d:d7:7f:67:2c:f7:43:34:72:d7:
         d3:a9:d9:b7:31:ac:12:2f:ad:7a:1a:22:b7:41:f5:1b:05:5f:
         88:13:b5:52:88:cf:de:01:a8:8d:b7:ae:6d:b8:ed:6b:9b:ca:
         d4:65:73:1d:75:49:98:b1:48:ec:9e:5e:ec:82:71:8d:d3:97:
         8e:0c:f7:b9:40:75:aa:a4:87:e5:ac:00:33:a8:5b:7e:59:60:
         ce:07:fd:a5:35:f8:14:9c:9c:f0:a0:73:a0:01:e4:0a:5e:51:
         72:a2:48:e9:64:ea:9a:16:1a:52:8b:ef:42:04:20:c6:f4:29:
         ea:a2:5c:0d:00:60:09:76:f1:b8:5f:9d:f4:0f:eb:1b:3c:0a:
         1e:21:47:f2:80:60:74:a4:43:be:fd:d8:a1:82:42:53:1a:fa:
         5c:65:78:05:9b:ce:1e:01:67:63:28:16:92:12:5d:1a:d3:1e:
         29:4e:d2:7e:8b:ea:c8:f5:15:7e:90:59:a8:33:b7:77:d9:ff:
         57:f0:db:66:89:b3:84:00:d4:1d:95:f2:ec:5d:1e:92:86:83:
         03:77:51:ac
-----BEGIN CERTIFICATE-----
MIIEqzCCA5OgAwIBAgIGCgsMDQ4kMA0GCSqGSIb3DQEBCwUAMIGDMRYwFAYDVQQD
FA1TSElMTE9OR0NBX0NBMQswCQYDVQQGEwJJTjEPMA0GA1UEChMGQ0lUUklYMQww
CgYDVQQLEwNBTkcxCzAJBgNVBAgTAktBMTAwLgYJKoZIhvcNAQkBFiFTSElMTE9O
R0NBX0NBQFNISUxMT05HQ0FfbWFpbC5jb20wHhcNMTYwNzA4MDQ0MDExWhcNMjYw
NzA2MDQ0MDExWjB2MQswCQYDVQQIEwJLQTELMAkGA1UEBhMCSU4xHjAcBgNVBAMU
FTEyMl9TSElMTE9OR0NBX3NlcnZlcjEpMCcGCSqGSIb3DQEJARYaMTIyX1NISUxM
T05HQ0FAdGVzdF9jYS5jb20xDzANBgNVBAoTBkNJVFJJWDCCASIwDQYJKoZIhvcN
AQEBBQADggEPADCCAQoCggEBAJx5rGhCYYpVbT1xvywcteRQaRlMTXUfp1XoKUhd
JoSFSSFKRawgrZpmYWhuDCNtfqImLNnLmDG9gHCSWmZOz0p6By2GB1nE8V2Dr9in
SLPw9LdvLHL5BM2PvhTlvpD8NICQyIdBT0MTjy4pPncIL0fkWqWfzK7X54kYqMCj
6/HCz/gSTBCq7qBxAwzJmqzunLbwVz+wBfAQ0z0v2XOerGAeUGq/9M3fVpJQ12Th
k5AXtcfOxCweg+RbfSlSGJ1ZYoNU92LzNCOBba9qwrEaCJ0SCVshVKGNMqN5cXdE
c+IwruzmN/P3vLpvHcVNoXdHfoRRR3u1tzqtdZVgiC27kakCAwEAAaOCAS8wggEr
MBEGCWCGSAGG+EIBAQQEAwIGQDAdBgNVHQ4EFgQUD6NEdPZr83XsjL2kkjKRom6i
3j4wgbgGA1UdIwSBsDCBrYAU+ukfpa+LThj/77fqj/uYvFkjgd+hgYmkgYYwgYMx
FjAUBgNVBAMUDVNISUxMT05HQ0FfQ0ExCzAJBgNVBAYTAklOMQ8wDQYDVQQKEwZD
SVRSSVgxDDAKBgNVBAsTA0FORzELMAkGA1UECBMCS0ExMDAuBgkqhkiG9w0BCQEW
IVNISUxMT05HQ0FfQ0FAU0hJTExPTkdDQV9tYWlsLmNvbYIJAPvQkv2ifDUMMDwG
CCsGAQUFBwEBBDAwLjAsBggrBgEFBQcwAYYgaHR0cDovLzE3Mi4yOC4xMC4xL3Jl
c3BvbmRlcnBhdGgwDQYJKoZIhvcNAQELBQADggEBAAzlHPqx5qZB2HicISWGKym4
/5ylncFvQ227Xbjo6YxgBOEsDxTN36rtBRBbTdd/Zyz3QzRy19Op2bcxrBIvrXoa
IrdB9RsFX4gTtVKIz94BqI23rm247WubytRlcx11SZixSOyeXuyCcY3Tl44M97lA
daqkh+WsADOoW35ZYM4H/aU1+BScnPCgc6AB5ApeUXKiSOlk6poWGlKL70IEIMb0
KeqiXA0AYAl28bhfnfQP6xs8Ch4hR/KAYHSkQ7792KGCQlMa+lxleAWbzh4BZ2Mo
FpISXRrTHilO0n6L6sj1FX6QWagzt3fZ/1fw22aJs4QA1B2V8uxdHpKGgwN3Uaw=
-----END CERTIFICATE-----
