Certificate:
    Data:
        Version: 3 (0x2)
        Serial Number: 11042563100180 (0xa0b0c0d0e14)
    Signature Algorithm: sha256WithRSAEncryption
        Issuer: CN=SHILLONGCA_CA, C=IN, O=CITRIX, OU=ANG, ST=KA/emailAddress=SHILLONGCA_CA@SHILLONGCA_mail.com
        Validity
            Not Before: Jul  8 04:40:08 2016 GMT
            Not After : Jul  6 04:40:08 2026 GMT
        Subject: ST=KA, C=IN, CN=106_SHILLONGCA_server/emailAddress=106_SHILLONGCA@test_ca.com, O=CITRIX
        Subject Public Key Info:
            Public Key Algorithm: rsaEncryption
                Public-Key: (2048 bit)
                Modulus:
                    00:d1:03:75:66:d6:da:f4:26:d5:d5:a4:03:b1:97:
                    ec:ad:3a:13:ed:46:d3:e4:9f:02:62:4b:b2:b1:f9:
                    11:7b:51:08:76:c5:3d:5f:29:0a:b2:6a:f6:fe:ae:
                    03:88:54:7b:a5:37:d7:b8:36:3d:29:9f:1b:46:35:
                    a8:00:57:b3:35:3d:61:f8:9c:8f:b1:b1:3a:24:26:
                    db:15:93:33:ec:4c:9d:c1:b7:f1:27:de:b7:05:b1:
                    14:30:7d:ae:d1:4e:8d:0f:6b:19:93:74:df:96:c7:
                    c1:10:ed:3f:6c:72:24:ee:69:ec:4b:66:f6:f2:b1:
                    24:23:9a:d1:9d:6a:50:79:7a:16:49:5a:99:25:b3:
                    fa:70:bf:48:74:37:76:c5:85:1b:ba:87:02:27:3f:
                    ee:6c:74:a0:fe:c7:25:cc:e6:41:dd:c2:ac:df:fe:
                    21:6e:b7:9d:de:a3:76:50:0c:6e:3c:a5:69:c4:77:
                    22:ba:3a:d5:a7:74:f7:8e:b3:ec:21:ad:a4:14:f7:
                    05:2f:54:82:a3:dc:1d:35:5c:65:ed:88:54:2a:16:
                    81:64:7d:db:7e:b0:12:64:1d:4b:a4:41:c8:fb:3b:
                    ab:92:9f:6c:12:af:98:2c:b2:ce:46:e0:b5:12:88:
                    86:17:b8:b7:c2:b3:d0:b4:8e:c1:48:6c:93:9c:78:
                    18:1d
                Exponent: 65537 (0x10001)
        X509v3 extensions:
            Netscape Cert Type: 
                SSL Server
            X509v3 Subject Key Identifier: 
                53:1F:51:3B:56:B6:C9:1E:EE:D4:2D:67:5D:A3:2B:32:91:BF:D8:4D
            X509v3 Authority Key Identifier: 
                keyid:FA:E9:1F:A5:AF:8B:4E:18:FF:EF:B7:EA:8F:FB:98:BC:59:23:81:DF
                DirName:/CN=SHILLONGCA_CA/C=IN/O=CITRIX/OU=ANG/ST=KA/emailAddress=SHILLONGCA_CA@SHILLONGCA_mail.com
                serial:FB:D0:92:FD:A2:7C:35:0C

            Authority Information Access: 
                OCSP - URI:http://SHILLONGCA_one.ocsptest.com/responderpath

    Signature Algorithm: sha256WithRSAEncryption
         51:22:08:ec:2f:2f:80:2a:1a:3c:a9:57:a5:85:f0:2a:ed:88:
         f1:c0:7d:69:87:36:2f:6c:5c:57:72:af:d8:5e:8b:87:8a:40:
         a1:c7:29:ea:38:78:3a:42:fc:0a:6a:47:df:02:b3:7d:ad:14:
         c3:83:61:34:e5:2f:a0:bc:04:27:04:1e:ab:af:cf:cb:12:a8:
         fb:38:6f:a4:db:ca:9b:95:c0:a1:80:fc:dc:8f:2a:83:23:3b:
         41:25:f2:86:f3:34:98:a3:66:07:59:89:41:19:46:f8:74:e8:
         bd:65:c5:53:a3:23:af:56:01:8e:44:49:ce:c5:0c:d6:9e:34:
         76:95:80:32:46:24:59:ab:76:ab:f8:62:62:ce:9f:55:7e:8a:
         7c:b4:9e:2e:3b:39:af:a5:2f:7a:86:06:2c:f6:db:60:6b:db:
         11:28:08:d4:88:0d:38:c9:6b:40:eb:3c:56:f7:32:80:40:db:
         20:6f:00:c8:81:37:6b:e8:67:e1:0f:8f:e7:c6:78:3b:0a:91:
         18:de:19:34:a9:99:ab:81:fd:7d:c6:47:05:58:7f:e9:e6:24:
         a5:d8:14:85:45:2a:20:58:6b:da:ac:6c:b6:1e:c6:14:2b:24:
         0c:8a:16:89:c1:83:55:2d:aa:24:a4:43:95:33:1d:28:3e:a9:
         73:32:20:dd
-----BEGIN CERTIFICATE-----
MIIEuzCCA6OgAwIBAgIGCgsMDQ4UMA0GCSqGSIb3DQEBCwUAMIGDMRYwFAYDVQQD
FA1TSElMTE9OR0NBX0NBMQswCQYDVQQGEwJJTjEPMA0GA1UEChMGQ0lUUklYMQww
CgYDVQQLEwNBTkcxCzAJBgNVBAgTAktBMTAwLgYJKoZIhvcNAQkBFiFTSElMTE9O
R0NBX0NBQFNISUxMT05HQ0FfbWFpbC5jb20wHhcNMTYwNzA4MDQ0MDA4WhcNMjYw
NzA2MDQ0MDA4WjB2MQswCQYDVQQIEwJLQTELMAkGA1UEBhMCSU4xHjAcBgNVBAMU
FTEwNl9TSElMTE9OR0NBX3NlcnZlcjEpMCcGCSqGSIb3DQEJARYaMTA2X1NISUxM
T05HQ0FAdGVzdF9jYS5jb20xDzANBgNVBAoTBkNJVFJJWDCCASIwDQYJKoZIhvcN
AQEBBQADggEPADCCAQoCggEBANEDdWbW2vQm1dWkA7GX7K06E+1G0+SfAmJLsrH5
EXtRCHbFPV8pCrJq9v6uA4hUe6U317g2PSmfG0Y1qABXszU9Yficj7GxOiQm2xWT
M+xMncG38SfetwWxFDB9rtFOjQ9rGZN035bHwRDtP2xyJO5p7Etm9vKxJCOa0Z1q
UHl6FklamSWz+nC/SHQ3dsWFG7qHAic/7mx0oP7HJczmQd3CrN/+IW63nd6jdlAM
bjylacR3Iro61ad0946z7CGtpBT3BS9UgqPcHTVcZe2IVCoWgWR9236wEmQdS6RB
yPs7q5KfbBKvmCyyzkbgtRKIhhe4t8Kz0LSOwUhsk5x4GB0CAwEAAaOCAT8wggE7
MBEGCWCGSAGG+EIBAQQEAwIGQDAdBgNVHQ4EFgQUUx9RO1a2yR7u1C1nXaMrMpG/
2E0wgbgGA1UdIwSBsDCBrYAU+ukfpa+LThj/77fqj/uYvFkjgd+hgYmkgYYwgYMx
FjAUBgNVBAMUDVNISUxMT05HQ0FfQ0ExCzAJBgNVBAYTAklOMQ8wDQYDVQQKEwZD
SVRSSVgxDDAKBgNVBAsTA0FORzELMAkGA1UECBMCS0ExMDAuBgkqhkiG9w0BCQEW
IVNISUxMT05HQ0FfQ0FAU0hJTExPTkdDQV9tYWlsLmNvbYIJAPvQkv2ifDUMMEwG
CCsGAQUFBwEBBEAwPjA8BggrBgEFBQcwAYYwaHR0cDovL1NISUxMT05HQ0Ffb25l
Lm9jc3B0ZXN0LmNvbS9yZXNwb25kZXJwYXRoMA0GCSqGSIb3DQEBCwUAA4IBAQBR
IgjsLy+AKho8qVelhfAq7YjxwH1phzYvbFxXcq/YXouHikChxynqOHg6QvwKakff
ArN9rRTDg2E05S+gvAQnBB6rr8/LEqj7OG+k28qblcChgPzcjyqDIztBJfKG8zSY
o2YHWYlBGUb4dOi9ZcVToyOvVgGOREnOxQzWnjR2lYAyRiRZq3ar+GJizp9Vfop8
tJ4uOzmvpS96hgYs9ttga9sRKAjUiA04yWtA6zxW9zKAQNsgbwDIgTdr6GfhD4/n
xng7CpEY3hk0qZmrgf19xkcFWH/p5iSl2BSFRSogWGvarGy2HsYUKyQMihaJwYNV
LaokpEOVMx0oPqlzMiDd
-----END CERTIFICATE-----
