Certificate:
    Data:
        Version: 3 (0x2)
        Serial Number: 11042563100201 (0xa0b0c0d0e29)
    Signature Algorithm: sha256WithRSAEncryption
        Issuer: CN=SHILLONGCA_CA, C=IN, O=CITRIX, OU=ANG, ST=KA/emailAddress=SHILLONGCA_CA@SHILLONGCA_mail.com
        Validity
            Not Before: Jul  8 04:40:13 2016 GMT
            Not After : Jul  6 04:40:13 2026 GMT
        Subject: ST=KA, C=IN, CN=127_SHILLONGCA_server/emailAddress=127_SHILLONGCA@test_ca.com, O=CITRIX
        Subject Public Key Info:
            Public Key Algorithm: rsaEncryption
                Public-Key: (2048 bit)
                Modulus:
                    00:d3:22:ec:d8:1a:74:50:dd:44:b9:5c:3a:e3:83:
                    1a:07:f9:e6:4c:b4:dc:4e:31:50:47:07:24:c0:5a:
                    82:a9:25:3b:fb:4e:d2:f1:a3:40:e2:88:ee:23:cb:
                    c7:88:80:ec:18:21:02:63:30:88:7c:bc:05:bf:d8:
                    f7:5f:a0:5d:3d:d6:cd:8e:b3:00:56:81:e6:69:c4:
                    7c:5e:e9:8b:da:54:9a:63:d6:96:bc:40:c7:91:31:
                    87:8f:33:50:ca:60:c8:23:7e:b3:60:b7:94:cb:62:
                    c7:1d:c7:5c:75:e0:47:c6:f3:3a:2c:01:56:32:b9:
                    bd:eb:a5:ba:0a:7a:c3:ff:d3:01:da:a5:2e:a1:21:
                    6a:e4:d0:f2:95:ae:72:c2:14:f4:03:f8:e6:4b:39:
                    b7:9f:6e:93:2d:9c:5a:a0:78:85:4e:a1:d2:2f:2d:
                    47:2c:37:32:0a:9b:92:ff:b2:02:47:dc:20:61:1c:
                    84:00:32:91:c4:b6:d0:f6:e5:00:56:c0:86:28:74:
                    68:75:45:7e:83:73:56:9b:94:24:43:30:82:c4:06:
                    07:9f:9b:3d:ea:30:0b:f2:0c:9f:30:12:c6:c8:a8:
                    77:ed:0c:8a:a3:21:f2:9c:68:a2:58:a1:a5:2e:96:
                    d5:23:eb:b8:57:75:cc:3a:1b:54:20:46:2a:ce:85:
                    7b:89
                Exponent: 65537 (0x10001)
        X509v3 extensions:
            Netscape Cert Type: 
                SSL Server
            X509v3 Subject Key Identifier: 
                AF:01:5D:88:0C:6C:47:04:18:DA:53:72:D1:93:A5:D1:46:E5:BB:C1
            X509v3 Authority Key Identifier: 
                keyid:FA:E9:1F:A5:AF:8B:4E:18:FF:EF:B7:EA:8F:FB:98:BC:59:23:81:DF
                DirName:/CN=SHILLONGCA_CA/C=IN/O=CITRIX/OU=ANG/ST=KA/emailAddress=SHILLONGCA_CA@SHILLONGCA_mail.com
                serial:FB:D0:92:FD:A2:7C:35:0C

            Authority Information Access: 
                OCSP - URI:http://172.28.10.1/responderpath

    Signature Algorithm: sha256WithRSAEncryption
         17:51:9c:22:72:fd:2c:ba:82:bf:b0:09:38:ac:4c:ca:f4:c3:
         9c:ba:7f:6f:f8:ea:25:b3:4f:01:e5:51:05:0e:24:e1:a1:4e:
         73:e0:be:8f:46:07:e3:a9:42:9a:be:ea:e2:58:e5:92:f8:08:
         8b:bc:82:50:d0:77:bc:34:26:92:df:67:1f:56:63:7e:d9:f2:
         dc:35:27:03:6f:74:a9:a1:f2:9c:a5:ca:2e:87:8f:63:c3:93:
         fa:1c:cf:60:7c:17:e4:dc:93:e6:b1:69:f4:28:b4:fc:d9:12:
         44:72:bb:dd:e7:f6:20:59:db:a6:0a:ae:c0:92:b8:0e:df:3b:
         7d:29:30:57:d0:93:31:b7:05:ff:69:dc:8f:a8:84:5d:71:56:
         2a:f1:1e:4f:72:f7:49:51:5a:54:ca:ff:a3:33:ba:e6:5d:92:
         d3:f4:eb:27:47:e1:a0:1e:3c:77:ea:28:89:a2:66:0d:0a:43:
         73:6d:81:ac:4f:a3:99:c4:89:38:2b:c5:71:84:c6:43:93:b7:
         71:57:40:4f:6e:98:68:62:21:a6:4c:c4:fb:71:c0:a0:b7:38:
         43:4e:29:c4:28:bf:64:90:6a:96:4a:31:09:01:dd:7e:86:3d:
         93:e9:26:d6:da:1c:ce:a2:b6:80:25:95:1b:5f:94:4d:b0:13:
         86:9d:2c:fc
-----BEGIN CERTIFICATE-----
MIIEqzCCA5OgAwIBAgIGCgsMDQ4pMA0GCSqGSIb3DQEBCwUAMIGDMRYwFAYDVQQD
FA1TSElMTE9OR0NBX0NBMQswCQYDVQQGEwJJTjEPMA0GA1UEChMGQ0lUUklYMQww
CgYDVQQLEwNBTkcxCzAJBgNVBAgTAktBMTAwLgYJKoZIhvcNAQkBFiFTSElMTE9O
R0NBX0NBQFNISUxMT05HQ0FfbWFpbC5jb20wHhcNMTYwNzA4MDQ0MDEzWhcNMjYw
NzA2MDQ0MDEzWjB2MQswCQYDVQQIEwJLQTELMAkGA1UEBhMCSU4xHjAcBgNVBAMU
FTEyN19TSElMTE9OR0NBX3NlcnZlcjEpMCcGCSqGSIb3DQEJARYaMTI3X1NISUxM
T05HQ0FAdGVzdF9jYS5jb20xDzANBgNVBAoTBkNJVFJJWDCCASIwDQYJKoZIhvcN
AQEBBQADggEPADCCAQoCggEBANMi7NgadFDdRLlcOuODGgf55ky03E4xUEcHJMBa
gqklO/tO0vGjQOKI7iPLx4iA7BghAmMwiHy8Bb/Y91+gXT3WzY6zAFaB5mnEfF7p
i9pUmmPWlrxAx5Exh48zUMpgyCN+s2C3lMtixx3HXHXgR8bzOiwBVjK5veulugp6
w//TAdqlLqEhauTQ8pWucsIU9AP45ks5t59uky2cWqB4hU6h0i8tRyw3Mgqbkv+y
AkfcIGEchAAykcS20PblAFbAhih0aHVFfoNzVpuUJEMwgsQGB5+bPeowC/IMnzAS
xsiod+0MiqMh8pxoolihpS6W1SPruFd1zDobVCBGKs6Fe4kCAwEAAaOCAS8wggEr
MBEGCWCGSAGG+EIBAQQEAwIGQDAdBgNVHQ4EFgQUrwFdiAxsRwQY2lNy0ZOl0Ubl
u8EwgbgGA1UdIwSBsDCBrYAU+ukfpa+LThj/77fqj/uYvFkjgd+hgYmkgYYwgYMx
FjAUBgNVBAMUDVNISUxMT05HQ0FfQ0ExCzAJBgNVBAYTAklOMQ8wDQYDVQQKEwZD
SVRSSVgxDDAKBgNVBAsTA0FORzELMAkGA1UECBMCS0ExMDAuBgkqhkiG9w0BCQEW
IVNISUxMT05HQ0FfQ0FAU0hJTExPTkdDQV9tYWlsLmNvbYIJAPvQkv2ifDUMMDwG
CCsGAQUFBwEBBDAwLjAsBggrBgEFBQcwAYYgaHR0cDovLzE3Mi4yOC4xMC4xL3Jl
c3BvbmRlcnBhdGgwDQYJKoZIhvcNAQELBQADggEBABdRnCJy/Sy6gr+wCTisTMr0
w5y6f2/46iWzTwHlUQUOJOGhTnPgvo9GB+OpQpq+6uJY5ZL4CIu8glDQd7w0JpLf
Zx9WY37Z8tw1JwNvdKmh8pylyi6Hj2PDk/ocz2B8F+Tck+axafQotPzZEkRyu93n
9iBZ26YKrsCSuA7fO30pMFfQkzG3Bf9p3I+ohF1xVirxHk9y90lRWlTK/6MzuuZd
ktP06ydH4aAePHfqKImiZg0KQ3NtgaxPo5nEiTgrxXGExkOTt3FXQE9umGhiIaZM
xPtxwKC3OENOKcQov2SQapZKMQkB3X6GPZPpJtbaHM6itoAllRtflE2wE4adLPw=
-----END CERTIFICATE-----
