Certificate:
    Data:
        Version: 3 (0x2)
        Serial Number: 11042563100214 (0xa0b0c0d0e36)
    Signature Algorithm: sha256WithRSAEncryption
        Issuer: CN=SHILLONGCA_CA, C=IN, O=CITRIX, OU=ANG, ST=KA/emailAddress=SHILLONGCA_CA@SHILLONGCA_mail.com
        Validity
            Not Before: Jul  8 04:40:16 2016 GMT
            Not After : Jul  6 04:40:16 2026 GMT
        Subject: ST=KA, C=IN, CN=140_SHILLONGCA_server/emailAddress=140_SHILLONGCA@test_ca.com, O=CITRIX
        Subject Public Key Info:
            Public Key Algorithm: rsaEncryption
                Public-Key: (2048 bit)
                Modulus:
                    00:be:63:57:bf:26:dc:d1:49:92:97:d1:7b:44:5c:
                    75:5e:b1:49:c8:58:f3:04:78:bc:82:0d:a3:ff:a8:
                    8d:fd:c8:27:f5:fe:7f:c9:03:49:2f:f8:e2:10:75:
                    9e:d8:df:51:2c:72:44:e0:a7:e7:2b:d3:d4:2d:16:
                    24:28:3e:ed:7d:0e:11:ed:9a:bd:3c:da:e4:9e:a0:
                    38:49:5f:3b:2c:e8:d4:43:e8:a6:f3:e9:c6:ea:a2:
                    d9:69:e5:a8:d8:20:3d:11:1e:fc:5f:a2:38:a9:38:
                    ab:26:65:e8:e8:d5:78:45:9b:5a:3a:3f:7f:c4:a8:
                    ac:d2:c4:d6:54:70:43:b0:aa:a2:45:bc:dd:79:8d:
                    28:3c:fd:01:1c:f7:df:26:1f:b5:b4:ff:ff:a6:8e:
                    5f:45:08:61:1b:1c:08:b7:93:03:62:29:07:18:2d:
                    cd:e3:df:2a:61:78:6d:61:cb:d5:ae:84:ec:16:6a:
                    7a:b3:57:88:24:c9:45:af:98:02:0b:93:7c:a8:c5:
                    c4:3b:dc:c2:82:7c:d6:ee:32:ea:85:6d:88:77:77:
                    aa:99:2f:c0:1e:3f:a6:53:15:59:38:41:69:14:a3:
                    f5:5d:82:a6:ae:d8:a6:f3:cc:20:c7:10:a0:98:9b:
                    6a:17:68:92:ee:af:13:58:a4:af:64:96:f7:21:7a:
                    38:f9
                Exponent: 65537 (0x10001)
        X509v3 extensions:
            Netscape Cert Type: 
                SSL Server
            X509v3 Subject Key Identifier: 
                5B:00:41:5D:BA:E8:66:E9:7E:B2:9F:82:34:38:53:12:7F:50:8F:0A
            X509v3 Authority Key Identifier: 
                keyid:FA:E9:1F:A5:AF:8B:4E:18:FF:EF:B7:EA:8F:FB:98:BC:59:23:81:DF
                DirName:/CN=SHILLONGCA_CA/C=IN/O=CITRIX/OU=ANG/ST=KA/emailAddress=SHILLONGCA_CA@SHILLONGCA_mail.com
                serial:FB:D0:92:FD:A2:7C:35:0C

            Authority Information Access: 
                OCSP - URI:http://172.28.20.1/responderpath

    Signature Algorithm: sha256WithRSAEncryption
         29:0a:7f:6c:4c:d8:c3:e0:89:ca:d0:26:86:49:31:e1:e3:a5:
         8b:1e:18:67:63:71:2d:a5:35:9d:49:b2:02:0b:3b:86:ff:cd:
         d9:7a:82:47:eb:97:45:d1:b0:f2:7d:dd:5e:fd:74:c5:bc:67:
         e4:44:14:44:aa:56:cb:c5:29:26:49:24:5f:5d:fa:f7:b0:21:
         66:b6:6f:e9:7c:93:40:46:4b:ad:0b:70:f2:6e:8f:0f:9d:20:
         30:7a:14:07:ee:aa:ef:39:93:b3:c9:ee:e0:e1:b8:c6:41:7f:
         03:14:b1:e3:0c:41:2e:70:ec:ce:8c:b9:65:45:0e:10:04:29:
         6d:4e:88:59:a6:38:cc:e8:69:5a:59:b0:6f:be:a5:05:59:c7:
         04:70:7e:4e:41:b2:7d:af:81:8f:14:e8:e9:3f:e1:30:d7:89:
         a8:6e:f1:fb:50:60:75:57:b1:04:02:7f:2b:ed:46:3e:51:45:
         33:73:40:c2:8a:ff:ba:16:11:f4:d8:ad:85:dc:6a:54:b1:35:
         2d:f5:4b:5d:65:9d:1e:c6:d9:53:b4:53:d4:b1:d5:eb:c7:04:
         ed:a9:99:33:42:57:0d:24:f9:b0:0b:66:a0:10:60:60:88:93:
         43:83:cc:e4:44:ff:3e:8f:86:c7:37:eb:6c:64:10:ba:e4:14:
         f9:45:38:53
-----BEGIN CERTIFICATE-----
MIIEqzCCA5OgAwIBAgIGCgsMDQ42MA0GCSqGSIb3DQEBCwUAMIGDMRYwFAYDVQQD
FA1TSElMTE9OR0NBX0NBMQswCQYDVQQGEwJJTjEPMA0GA1UEChMGQ0lUUklYMQww
CgYDVQQLEwNBTkcxCzAJBgNVBAgTAktBMTAwLgYJKoZIhvcNAQkBFiFTSElMTE9O
R0NBX0NBQFNISUxMT05HQ0FfbWFpbC5jb20wHhcNMTYwNzA4MDQ0MDE2WhcNMjYw
NzA2MDQ0MDE2WjB2MQswCQYDVQQIEwJLQTELMAkGA1UEBhMCSU4xHjAcBgNVBAMU
FTE0MF9TSElMTE9OR0NBX3NlcnZlcjEpMCcGCSqGSIb3DQEJARYaMTQwX1NISUxM
T05HQ0FAdGVzdF9jYS5jb20xDzANBgNVBAoTBkNJVFJJWDCCASIwDQYJKoZIhvcN
AQEBBQADggEPADCCAQoCggEBAL5jV78m3NFJkpfRe0RcdV6xSchY8wR4vIINo/+o
jf3IJ/X+f8kDSS/44hB1ntjfUSxyROCn5yvT1C0WJCg+7X0OEe2avTza5J6gOElf
Oyzo1EPopvPpxuqi2WnlqNggPREe/F+iOKk4qyZl6OjVeEWbWjo/f8SorNLE1lRw
Q7CqokW83XmNKDz9ARz33yYftbT//6aOX0UIYRscCLeTA2IpBxgtzePfKmF4bWHL
1a6E7BZqerNXiCTJRa+YAguTfKjFxDvcwoJ81u4y6oVtiHd3qpkvwB4/plMVWThB
aRSj9V2Cpq7YpvPMIMcQoJibahdoku6vE1ikr2SW9yF6OPkCAwEAAaOCAS8wggEr
MBEGCWCGSAGG+EIBAQQEAwIGQDAdBgNVHQ4EFgQUWwBBXbroZul+sp+CNDhTEn9Q
jwowgbgGA1UdIwSBsDCBrYAU+ukfpa+LThj/77fqj/uYvFkjgd+hgYmkgYYwgYMx
FjAUBgNVBAMUDVNISUxMT05HQ0FfQ0ExCzAJBgNVBAYTAklOMQ8wDQYDVQQKEwZD
SVRSSVgxDDAKBgNVBAsTA0FORzELMAkGA1UECBMCS0ExMDAuBgkqhkiG9w0BCQEW
IVNISUxMT05HQ0FfQ0FAU0hJTExPTkdDQV9tYWlsLmNvbYIJAPvQkv2ifDUMMDwG
CCsGAQUFBwEBBDAwLjAsBggrBgEFBQcwAYYgaHR0cDovLzE3Mi4yOC4yMC4xL3Jl
c3BvbmRlcnBhdGgwDQYJKoZIhvcNAQELBQADggEBACkKf2xM2MPgicrQJoZJMeHj
pYseGGdjcS2lNZ1JsgILO4b/zdl6gkfrl0XRsPJ93V79dMW8Z+REFESqVsvFKSZJ
JF9d+vewIWa2b+l8k0BGS60LcPJujw+dIDB6FAfuqu85k7PJ7uDhuMZBfwMUseMM
QS5w7M6MuWVFDhAEKW1OiFmmOMzoaVpZsG++pQVZxwRwfk5Bsn2vgY8U6Ok/4TDX
iahu8ftQYHVXsQQCfyvtRj5RRTNzQMKK/7oWEfTYrYXcalSxNS31S11lnR7G2VO0
U9Sx1evHBO2pmTNCVw0k+bALZqAQYGCIk0ODzORE/z6Phsc362xkELrkFPlFOFM=
-----END CERTIFICATE-----
