Certificate:
    Data:
        Version: 3 (0x2)
        Serial Number: 11042563100177 (0xa0b0c0d0e11)
    Signature Algorithm: sha256WithRSAEncryption
        Issuer: CN=SHILLONGCA_CA, C=IN, O=CITRIX, OU=ANG, ST=KA/emailAddress=SHILLONGCA_CA@SHILLONGCA_mail.com
        Validity
            Not Before: Jul  8 04:40:08 2016 GMT
            Not After : Jul  6 04:40:08 2026 GMT
        Subject: ST=KA, C=IN, CN=103_SHILLONGCA_server/emailAddress=103_SHILLONGCA@test_ca.com, O=CITRIX
        Subject Public Key Info:
            Public Key Algorithm: rsaEncryption
                Public-Key: (2048 bit)
                Modulus:
                    00:c0:f6:9e:41:a3:c7:ec:1a:28:43:99:1d:95:19:
                    e0:4f:38:7b:7b:94:e2:c6:78:a2:b8:2a:f1:09:aa:
                    7b:30:13:7c:0e:22:3e:5a:9c:b6:8b:0e:b8:04:f8:
                    55:3d:99:e8:70:37:d6:bd:8c:1b:39:ee:bf:76:75:
                    0d:1d:a0:d8:93:46:fb:58:d1:4c:ae:40:96:31:c6:
                    ef:c9:5e:c1:f3:cc:3c:2e:bb:07:27:8c:b8:bd:55:
                    f6:93:a2:ab:ca:31:cd:ed:13:ab:fc:83:f2:be:6e:
                    c6:0b:ab:43:90:11:11:20:cd:f4:33:1a:1c:41:c3:
                    c5:73:d7:2f:7c:a6:25:22:bb:b8:50:93:15:ae:7a:
                    6f:67:e9:60:2b:17:4e:f1:4a:78:8a:42:74:f1:a5:
                    25:e6:9c:8d:a8:2d:ab:85:12:a6:2e:ba:3a:d0:44:
                    76:31:c0:90:7c:7b:8e:9c:b9:4f:f7:09:b3:e6:51:
                    1d:8e:bd:f7:df:13:bf:ec:96:1d:d1:58:12:0a:28:
                    99:6b:81:e5:da:83:8e:99:c1:3d:87:e2:01:a6:82:
                    4b:5b:60:1c:33:c8:4d:20:53:07:5d:e5:7d:b1:89:
                    c7:50:44:db:7b:aa:30:42:f6:d3:2a:cd:4b:29:b2:
                    b0:d6:c4:73:8c:92:02:06:8d:c0:3f:9f:bd:7d:b1:
                    82:cd
                Exponent: 65537 (0x10001)
        X509v3 extensions:
            Netscape Cert Type: 
                SSL Server
            X509v3 Subject Key Identifier: 
                02:08:62:48:D6:2C:B2:6E:EC:45:8E:ED:92:1D:EC:BB:E9:83:82:59
            X509v3 Authority Key Identifier: 
                keyid:FA:E9:1F:A5:AF:8B:4E:18:FF:EF:B7:EA:8F:FB:98:BC:59:23:81:DF
                DirName:/CN=SHILLONGCA_CA/C=IN/O=CITRIX/OU=ANG/ST=KA/emailAddress=SHILLONGCA_CA@SHILLONGCA_mail.com
                serial:FB:D0:92:FD:A2:7C:35:0C

            Authority Information Access: 
                OCSP - URI:http://SHILLONGCA_one.ocsptest.com/responderpath

    Signature Algorithm: sha256WithRSAEncryption
         59:46:7f:b1:fd:7e:79:4b:97:f2:8c:66:a1:f0:67:96:9e:af:
         34:18:2d:fb:f3:2f:cd:74:d5:53:9e:a4:e3:16:27:31:02:f4:
         62:3b:fb:3c:f8:4e:34:da:52:37:a6:54:01:23:d5:96:13:6c:
         bb:96:50:09:8d:b7:54:1c:3f:32:43:ee:3e:a7:d4:7f:ef:0b:
         ee:5c:05:53:4f:b8:6f:3b:ac:f0:55:ce:31:c8:b6:e0:08:e1:
         da:0e:31:35:0c:6d:5e:51:00:9e:ee:a3:0b:91:9f:53:2d:29:
         d6:dd:c4:a6:25:a1:39:cf:92:ac:72:29:d5:e9:ce:a8:13:0d:
         b0:6c:3a:0e:18:e2:10:a3:41:90:7d:b3:0a:1b:15:63:6a:44:
         eb:85:76:4c:1d:51:e8:1b:e1:70:a2:57:66:9f:5f:26:ce:12:
         55:8a:64:de:c3:ca:72:de:4a:fe:e0:d1:52:ed:e2:71:9b:c7:
         00:93:18:07:e7:57:4b:f2:91:b2:6a:66:69:4b:30:e4:46:f1:
         f2:b4:bf:0e:d5:10:4e:53:3a:cd:71:62:ad:6c:2e:b4:a3:ab:
         e7:ce:e9:d4:a4:05:96:37:e4:ec:93:02:ed:cd:cf:1e:4b:49:
         af:63:21:2f:cf:b8:1e:80:ed:75:7d:ea:95:e9:e4:d9:eb:5f:
         44:9a:e7:45
-----BEGIN CERTIFICATE-----
MIIEuzCCA6OgAwIBAgIGCgsMDQ4RMA0GCSqGSIb3DQEBCwUAMIGDMRYwFAYDVQQD
FA1TSElMTE9OR0NBX0NBMQswCQYDVQQGEwJJTjEPMA0GA1UEChMGQ0lUUklYMQww
CgYDVQQLEwNBTkcxCzAJBgNVBAgTAktBMTAwLgYJKoZIhvcNAQkBFiFTSElMTE9O
R0NBX0NBQFNISUxMT05HQ0FfbWFpbC5jb20wHhcNMTYwNzA4MDQ0MDA4WhcNMjYw
NzA2MDQ0MDA4WjB2MQswCQYDVQQIEwJLQTELMAkGA1UEBhMCSU4xHjAcBgNVBAMU
FTEwM19TSElMTE9OR0NBX3NlcnZlcjEpMCcGCSqGSIb3DQEJARYaMTAzX1NISUxM
T05HQ0FAdGVzdF9jYS5jb20xDzANBgNVBAoTBkNJVFJJWDCCASIwDQYJKoZIhvcN
AQEBBQADggEPADCCAQoCggEBAMD2nkGjx+waKEOZHZUZ4E84e3uU4sZ4orgq8Qmq
ezATfA4iPlqctosOuAT4VT2Z6HA31r2MGznuv3Z1DR2g2JNG+1jRTK5AljHG78le
wfPMPC67ByeMuL1V9pOiq8oxze0Tq/yD8r5uxgurQ5ARESDN9DMaHEHDxXPXL3ym
JSK7uFCTFa56b2fpYCsXTvFKeIpCdPGlJeacjagtq4USpi66OtBEdjHAkHx7jpy5
T/cJs+ZRHY69998Tv+yWHdFYEgoomWuB5dqDjpnBPYfiAaaCS1tgHDPITSBTB13l
fbGJx1BE23uqMEL20yrNSymysNbEc4ySAgaNwD+fvX2xgs0CAwEAAaOCAT8wggE7
MBEGCWCGSAGG+EIBAQQEAwIGQDAdBgNVHQ4EFgQUAghiSNYssm7sRY7tkh3su+mD
glkwgbgGA1UdIwSBsDCBrYAU+ukfpa+LThj/77fqj/uYvFkjgd+hgYmkgYYwgYMx
FjAUBgNVBAMUDVNISUxMT05HQ0FfQ0ExCzAJBgNVBAYTAklOMQ8wDQYDVQQKEwZD
SVRSSVgxDDAKBgNVBAsTA0FORzELMAkGA1UECBMCS0ExMDAuBgkqhkiG9w0BCQEW
IVNISUxMT05HQ0FfQ0FAU0hJTExPTkdDQV9tYWlsLmNvbYIJAPvQkv2ifDUMMEwG
CCsGAQUFBwEBBEAwPjA8BggrBgEFBQcwAYYwaHR0cDovL1NISUxMT05HQ0Ffb25l
Lm9jc3B0ZXN0LmNvbS9yZXNwb25kZXJwYXRoMA0GCSqGSIb3DQEBCwUAA4IBAQBZ
Rn+x/X55S5fyjGah8GeWnq80GC378y/NdNVTnqTjFicxAvRiO/s8+E402lI3plQB
I9WWE2y7llAJjbdUHD8yQ+4+p9R/7wvuXAVTT7hvO6zwVc4xyLbgCOHaDjE1DG1e
UQCe7qMLkZ9TLSnW3cSmJaE5z5KscinV6c6oEw2wbDoOGOIQo0GQfbMKGxVjakTr
hXZMHVHoG+Fwoldmn18mzhJVimTew8py3kr+4NFS7eJxm8cAkxgH51dL8pGyamZp
SzDkRvHytL8O1RBOUzrNcWKtbC60o6vnzunUpAWWN+TskwLtzc8eS0mvYyEvz7ge
gO11feqV6eTZ619EmudF
-----END CERTIFICATE-----
