Certificate:
    Data:
        Version: 3 (0x2)
        Serial Number: 11042563100178 (0xa0b0c0d0e12)
    Signature Algorithm: sha256WithRSAEncryption
        Issuer: CN=SHILLONGCA_CA, C=IN, O=CITRIX, OU=ANG, ST=KA/emailAddress=SHILLONGCA_CA@SHILLONGCA_mail.com
        Validity
            Not Before: Jul  8 04:40:08 2016 GMT
            Not After : Jul  6 04:40:08 2026 GMT
        Subject: ST=KA, C=IN, CN=104_SHILLONGCA_server/emailAddress=104_SHILLONGCA@test_ca.com, O=CITRIX
        Subject Public Key Info:
            Public Key Algorithm: rsaEncryption
                Public-Key: (2048 bit)
                Modulus:
                    00:af:1d:e5:07:c4:00:ac:dc:a4:59:39:b3:7c:1e:
                    14:bf:82:96:02:fa:e8:25:ca:24:d7:14:ea:b0:f6:
                    60:c6:37:c4:50:30:6c:92:b3:df:4e:ae:bd:b4:07:
                    cb:b1:30:85:ae:41:21:62:95:c7:5c:06:78:c7:c6:
                    81:04:a3:56:81:fe:44:fc:3a:24:01:cb:a7:ae:c3:
                    2a:98:fc:3b:d9:af:e2:39:39:e9:64:97:6a:23:99:
                    4a:0d:bc:a3:73:25:02:8d:5b:e1:6c:ac:ae:51:0a:
                    d9:aa:9b:81:cb:3f:1e:5b:5c:31:9a:74:71:a8:a3:
                    b8:12:a2:d9:7f:27:fb:d6:f5:66:f3:17:11:1d:27:
                    de:9c:f0:d3:11:df:3d:66:73:d8:ec:fb:c8:b7:86:
                    d2:7c:d4:8e:53:48:af:9d:0f:ab:cb:36:39:ec:f1:
                    ba:b2:95:70:56:96:ea:89:cc:c6:a0:d4:19:fb:0c:
                    5f:81:ba:5f:65:95:ab:b9:75:4b:1a:90:b3:93:bc:
                    02:e9:1e:fb:c5:f6:55:f7:ba:a5:17:d4:31:80:fe:
                    de:be:49:4d:e4:94:76:0c:7a:56:1e:a0:e4:cd:1c:
                    2b:70:1a:2a:03:43:88:25:21:36:40:75:b7:bb:9a:
                    17:e3:34:53:2f:ea:4a:e4:c4:02:c4:da:fd:e9:da:
                    26:21
                Exponent: 65537 (0x10001)
        X509v3 extensions:
            Netscape Cert Type: 
                SSL Server
            X509v3 Subject Key Identifier: 
                93:E6:85:57:AE:E4:7D:53:2A:0C:0B:F3:41:9E:FB:D1:89:9A:3C:84
            X509v3 Authority Key Identifier: 
                keyid:FA:E9:1F:A5:AF:8B:4E:18:FF:EF:B7:EA:8F:FB:98:BC:59:23:81:DF
                DirName:/CN=SHILLONGCA_CA/C=IN/O=CITRIX/OU=ANG/ST=KA/emailAddress=SHILLONGCA_CA@SHILLONGCA_mail.com
                serial:FB:D0:92:FD:A2:7C:35:0C

            Authority Information Access: 
                OCSP - URI:http://SHILLONGCA_one.ocsptest.com/responderpath

    Signature Algorithm: sha256WithRSAEncryption
         6a:2d:a2:3e:69:5d:86:76:6f:1e:0a:4d:3f:73:08:c5:13:db:
         06:03:11:c2:aa:47:ca:3a:78:8c:34:13:4f:0d:9e:96:2b:88:
         76:5b:10:7b:7d:ef:98:f1:4d:26:f3:5a:22:79:e6:07:4e:7f:
         85:01:ef:a5:50:b9:15:62:b0:ea:6a:82:42:ef:1f:df:cb:1f:
         a5:e0:20:c4:00:f8:fb:6c:9e:cf:85:32:cd:dd:09:51:d2:9a:
         cb:8e:f2:1b:e8:c6:c1:0f:f5:4e:8d:3b:0c:c7:22:8b:68:c9:
         99:3a:a6:77:0a:cc:be:62:0a:ac:ee:6b:ce:61:72:96:d4:89:
         4f:07:9f:da:f9:17:da:63:36:6f:90:de:69:ec:75:41:6b:d4:
         84:2b:ac:5a:94:74:9a:d3:cf:e4:5e:32:38:4d:e3:a2:fc:59:
         39:8e:77:4f:a0:19:7d:98:c0:d1:8f:3c:f3:18:67:7d:66:ce:
         07:e8:03:58:c3:b4:31:e1:70:8d:1a:f4:ab:75:c5:44:b5:df:
         91:e2:40:b8:b3:01:31:7a:bb:84:ec:18:76:e8:9f:76:c3:e5:
         9c:21:c1:a4:0e:c1:5b:45:ce:66:87:15:27:d8:65:e8:0f:30:
         40:cb:d9:4a:35:eb:b9:7b:17:fe:aa:ae:56:d0:6f:3b:69:73:
         bc:f1:4d:3f
-----BEGIN CERTIFICATE-----
MIIEuzCCA6OgAwIBAgIGCgsMDQ4SMA0GCSqGSIb3DQEBCwUAMIGDMRYwFAYDVQQD
FA1TSElMTE9OR0NBX0NBMQswCQYDVQQGEwJJTjEPMA0GA1UEChMGQ0lUUklYMQww
CgYDVQQLEwNBTkcxCzAJBgNVBAgTAktBMTAwLgYJKoZIhvcNAQkBFiFTSElMTE9O
R0NBX0NBQFNISUxMT05HQ0FfbWFpbC5jb20wHhcNMTYwNzA4MDQ0MDA4WhcNMjYw
NzA2MDQ0MDA4WjB2MQswCQYDVQQIEwJLQTELMAkGA1UEBhMCSU4xHjAcBgNVBAMU
FTEwNF9TSElMTE9OR0NBX3NlcnZlcjEpMCcGCSqGSIb3DQEJARYaMTA0X1NISUxM
T05HQ0FAdGVzdF9jYS5jb20xDzANBgNVBAoTBkNJVFJJWDCCASIwDQYJKoZIhvcN
AQEBBQADggEPADCCAQoCggEBAK8d5QfEAKzcpFk5s3weFL+ClgL66CXKJNcU6rD2
YMY3xFAwbJKz306uvbQHy7Ewha5BIWKVx1wGeMfGgQSjVoH+RPw6JAHLp67DKpj8
O9mv4jk56WSXaiOZSg28o3MlAo1b4WysrlEK2aqbgcs/HltcMZp0caijuBKi2X8n
+9b1ZvMXER0n3pzw0xHfPWZz2Oz7yLeG0nzUjlNIr50Pq8s2OezxurKVcFaW6onM
xqDUGfsMX4G6X2WVq7l1SxqQs5O8Auke+8X2Vfe6pRfUMYD+3r5JTeSUdgx6Vh6g
5M0cK3AaKgNDiCUhNkB1t7uaF+M0Uy/qSuTEAsTa/enaJiECAwEAAaOCAT8wggE7
MBEGCWCGSAGG+EIBAQQEAwIGQDAdBgNVHQ4EFgQUk+aFV67kfVMqDAvzQZ770Yma
PIQwgbgGA1UdIwSBsDCBrYAU+ukfpa+LThj/77fqj/uYvFkjgd+hgYmkgYYwgYMx
FjAUBgNVBAMUDVNISUxMT05HQ0FfQ0ExCzAJBgNVBAYTAklOMQ8wDQYDVQQKEwZD
SVRSSVgxDDAKBgNVBAsTA0FORzELMAkGA1UECBMCS0ExMDAuBgkqhkiG9w0BCQEW
IVNISUxMT05HQ0FfQ0FAU0hJTExPTkdDQV9tYWlsLmNvbYIJAPvQkv2ifDUMMEwG
CCsGAQUFBwEBBEAwPjA8BggrBgEFBQcwAYYwaHR0cDovL1NISUxMT05HQ0Ffb25l
Lm9jc3B0ZXN0LmNvbS9yZXNwb25kZXJwYXRoMA0GCSqGSIb3DQEBCwUAA4IBAQBq
LaI+aV2Gdm8eCk0/cwjFE9sGAxHCqkfKOniMNBNPDZ6WK4h2WxB7fe+Y8U0m81oi
eeYHTn+FAe+lULkVYrDqaoJC7x/fyx+l4CDEAPj7bJ7PhTLN3QlR0prLjvIb6MbB
D/VOjTsMxyKLaMmZOqZ3Csy+Ygqs7mvOYXKW1IlPB5/a+RfaYzZvkN5p7HVBa9SE
K6xalHSa08/kXjI4TeOi/Fk5jndPoBl9mMDRjzzzGGd9Zs4H6ANYw7Qx4XCNGvSr
dcVEtd+R4kC4swExeruE7Bh26J92w+WcIcGkDsFbRc5mhxUn2GXoDzBAy9lKNeu5
exf+qq5W0G87aXO88U0/
-----END CERTIFICATE-----
