Certificate:
    Data:
        Version: 3 (0x2)
        Serial Number: 11042563100179 (0xa0b0c0d0e13)
    Signature Algorithm: sha256WithRSAEncryption
        Issuer: CN=SHILLONGCA_CA, C=IN, O=CITRIX, OU=ANG, ST=KA/emailAddress=SHILLONGCA_CA@SHILLONGCA_mail.com
        Validity
            Not Before: Jul  8 04:40:08 2016 GMT
            Not After : Jul  6 04:40:08 2026 GMT
        Subject: ST=KA, C=IN, CN=105_SHILLONGCA_server/emailAddress=105_SHILLONGCA@test_ca.com, O=CITRIX
        Subject Public Key Info:
            Public Key Algorithm: rsaEncryption
                Public-Key: (2048 bit)
                Modulus:
                    00:aa:ba:02:dd:32:bb:7c:36:fe:3b:e0:41:db:f1:
                    ca:83:67:15:8e:39:64:e0:0d:67:c8:23:d3:cb:05:
                    c9:4f:60:dc:8b:f8:a7:b4:ad:c7:a3:0e:5e:ca:01:
                    69:17:12:b7:bb:0d:ea:5c:2d:6b:6f:e6:70:0f:8f:
                    bf:78:72:82:39:45:19:a3:a1:2c:6e:18:e4:5b:1b:
                    e2:e7:70:d0:97:92:cb:19:94:fc:b8:94:01:65:e8:
                    3d:5b:29:64:46:f6:40:40:27:f0:38:d2:c0:ac:8b:
                    a4:0b:fc:52:e7:fd:36:b9:66:47:fa:92:8f:02:50:
                    3a:a9:d7:a8:c1:00:02:c5:87:d3:d0:c6:27:ad:15:
                    13:29:6f:b3:05:dd:a2:49:62:26:21:24:2d:24:48:
                    f9:4c:31:6c:25:bb:b1:a8:78:0a:ca:99:3e:3c:13:
                    7b:4a:95:83:93:63:ba:23:a7:24:fc:42:93:8f:1a:
                    66:cd:f5:e0:0c:eb:78:ce:09:e7:82:f7:13:5a:2b:
                    71:f1:54:e2:24:81:45:5f:97:ae:7f:50:9d:5e:ff:
                    0a:41:04:3e:56:43:68:80:ea:82:f9:e3:98:05:d9:
                    c1:ce:08:c3:da:53:ab:b3:d4:3e:bc:04:88:fa:80:
                    73:e1:6b:d2:3d:1a:31:a8:d4:f0:7f:c7:a3:bc:94:
                    30:b5
                Exponent: 65537 (0x10001)
        X509v3 extensions:
            Netscape Cert Type: 
                SSL Server
            X509v3 Subject Key Identifier: 
                71:8D:EC:96:85:0A:BC:05:3F:D6:40:34:9E:76:EC:3D:23:9B:35:25
            X509v3 Authority Key Identifier: 
                keyid:FA:E9:1F:A5:AF:8B:4E:18:FF:EF:B7:EA:8F:FB:98:BC:59:23:81:DF
                DirName:/CN=SHILLONGCA_CA/C=IN/O=CITRIX/OU=ANG/ST=KA/emailAddress=SHILLONGCA_CA@SHILLONGCA_mail.com
                serial:FB:D0:92:FD:A2:7C:35:0C

            Authority Information Access: 
                OCSP - URI:http://SHILLONGCA_one.ocsptest.com/responderpath

    Signature Algorithm: sha256WithRSAEncryption
         2d:a5:7e:d0:9d:cf:d3:90:94:d4:6d:89:65:e3:8e:3d:40:60:
         cd:36:47:72:5f:74:09:bb:d8:03:19:bb:32:7f:2f:08:ca:d0:
         13:7b:7f:2b:1c:cd:84:36:73:31:a3:b9:19:6e:de:80:60:99:
         fa:72:f4:e2:f3:41:f9:6c:42:28:6b:88:0c:d2:e7:cb:6c:4c:
         de:9f:c3:b1:cd:a6:3c:12:30:a8:1e:36:ce:d9:55:9a:d4:33:
         6a:12:75:fd:ff:4e:35:a0:a8:7e:1c:ba:5c:63:01:c6:f8:56:
         ac:96:a7:7b:53:a3:62:86:3d:52:f9:c4:ab:ac:3c:0e:39:53:
         21:fb:51:a1:10:ef:96:26:21:b3:5b:73:9f:51:a2:f9:7f:7f:
         bc:4f:3a:78:32:09:47:67:97:e6:de:ec:78:2b:f5:96:16:d9:
         43:1f:4a:a5:c3:b5:55:8a:c0:cb:9e:77:5c:ba:8c:67:f1:08:
         1c:5c:c1:e2:30:35:98:c7:8e:0f:29:6a:e4:70:43:d2:b8:4a:
         0d:f7:7c:63:ca:46:30:bc:89:f6:28:12:f6:72:14:7e:eb:73:
         36:12:c6:42:62:15:ef:1c:9c:3b:bb:f3:01:72:e0:45:7e:a8:
         8d:bb:88:7e:83:6f:99:f3:99:dc:5a:30:70:58:4d:8c:30:1b:
         67:b5:ac:5a
-----BEGIN CERTIFICATE-----
MIIEuzCCA6OgAwIBAgIGCgsMDQ4TMA0GCSqGSIb3DQEBCwUAMIGDMRYwFAYDVQQD
FA1TSElMTE9OR0NBX0NBMQswCQYDVQQGEwJJTjEPMA0GA1UEChMGQ0lUUklYMQww
CgYDVQQLEwNBTkcxCzAJBgNVBAgTAktBMTAwLgYJKoZIhvcNAQkBFiFTSElMTE9O
R0NBX0NBQFNISUxMT05HQ0FfbWFpbC5jb20wHhcNMTYwNzA4MDQ0MDA4WhcNMjYw
NzA2MDQ0MDA4WjB2MQswCQYDVQQIEwJLQTELMAkGA1UEBhMCSU4xHjAcBgNVBAMU
FTEwNV9TSElMTE9OR0NBX3NlcnZlcjEpMCcGCSqGSIb3DQEJARYaMTA1X1NISUxM
T05HQ0FAdGVzdF9jYS5jb20xDzANBgNVBAoTBkNJVFJJWDCCASIwDQYJKoZIhvcN
AQEBBQADggEPADCCAQoCggEBAKq6At0yu3w2/jvgQdvxyoNnFY45ZOANZ8gj08sF
yU9g3Iv4p7Stx6MOXsoBaRcSt7sN6lwta2/mcA+Pv3hygjlFGaOhLG4Y5Fsb4udw
0JeSyxmU/LiUAWXoPVspZEb2QEAn8DjSwKyLpAv8Uuf9NrlmR/qSjwJQOqnXqMEA
AsWH09DGJ60VEylvswXdokliJiEkLSRI+UwxbCW7sah4CsqZPjwTe0qVg5NjuiOn
JPxCk48aZs314AzreM4J54L3E1orcfFU4iSBRV+Xrn9QnV7/CkEEPlZDaIDqgvnj
mAXZwc4Iw9pTq7PUPrwEiPqAc+Fr0j0aMajU8H/Ho7yUMLUCAwEAAaOCAT8wggE7
MBEGCWCGSAGG+EIBAQQEAwIGQDAdBgNVHQ4EFgQUcY3sloUKvAU/1kA0nnbsPSOb
NSUwgbgGA1UdIwSBsDCBrYAU+ukfpa+LThj/77fqj/uYvFkjgd+hgYmkgYYwgYMx
FjAUBgNVBAMUDVNISUxMT05HQ0FfQ0ExCzAJBgNVBAYTAklOMQ8wDQYDVQQKEwZD
SVRSSVgxDDAKBgNVBAsTA0FORzELMAkGA1UECBMCS0ExMDAuBgkqhkiG9w0BCQEW
IVNISUxMT05HQ0FfQ0FAU0hJTExPTkdDQV9tYWlsLmNvbYIJAPvQkv2ifDUMMEwG
CCsGAQUFBwEBBEAwPjA8BggrBgEFBQcwAYYwaHR0cDovL1NISUxMT05HQ0Ffb25l
Lm9jc3B0ZXN0LmNvbS9yZXNwb25kZXJwYXRoMA0GCSqGSIb3DQEBCwUAA4IBAQAt
pX7Qnc/TkJTUbYll4449QGDNNkdyX3QJu9gDGbsyfy8IytATe38rHM2ENnMxo7kZ
bt6AYJn6cvTi80H5bEIoa4gM0ufLbEzen8OxzaY8EjCoHjbO2VWa1DNqEnX9/041
oKh+HLpcYwHG+Faslqd7U6Nihj1S+cSrrDwOOVMh+1GhEO+WJiGzW3OfUaL5f3+8
Tzp4MglHZ5fm3ux4K/WWFtlDH0qlw7VVisDLnndcuoxn8QgcXMHiMDWYx44PKWrk
cEPSuEoN93xjykYwvIn2KBL2chR+63M2EsZCYhXvHJw7u/MBcuBFfqiNu4h+g2+Z
85ncWjBwWE2MMBtntaxa
-----END CERTIFICATE-----
