Certificate:
    Data:
        Version: 3 (0x2)
        Serial Number: 11042563100181 (0xa0b0c0d0e15)
    Signature Algorithm: sha256WithRSAEncryption
        Issuer: CN=SHILLONGCA_CA, C=IN, O=CITRIX, OU=ANG, ST=KA/emailAddress=SHILLONGCA_CA@SHILLONGCA_mail.com
        Validity
            Not Before: Jul  8 04:40:08 2016 GMT
            Not After : Jul  6 04:40:08 2026 GMT
        Subject: ST=KA, C=IN, CN=107_SHILLONGCA_server/emailAddress=107_SHILLONGCA@test_ca.com, O=CITRIX
        Subject Public Key Info:
            Public Key Algorithm: rsaEncryption
                Public-Key: (2048 bit)
                Modulus:
                    00:b5:6c:31:2d:a3:7c:50:96:ec:d1:ee:db:c9:16:
                    62:98:3b:a6:f9:89:dd:a3:83:b8:f4:b3:82:0e:04:
                    7b:e6:00:24:75:37:63:ec:e0:1a:97:28:c6:e7:ff:
                    a7:bf:5e:42:a7:4a:98:6b:54:00:98:3d:95:5d:fa:
                    b5:c4:c0:f7:fd:e6:85:82:88:58:fe:03:42:a8:ea:
                    b4:45:d6:2f:51:a3:52:13:3c:30:8c:1a:44:b2:17:
                    6f:03:84:9d:59:62:7c:5d:62:ec:8c:85:8d:b4:2a:
                    a7:8a:b7:7c:c3:51:b8:f2:b1:6a:11:37:fe:42:34:
                    df:e0:80:f5:0a:75:8e:32:17:81:4b:51:8d:4a:87:
                    71:f8:1d:08:88:b9:35:4a:b2:65:ca:17:7c:bf:2e:
                    2f:09:c5:2b:da:66:7f:4d:c8:d1:e2:db:74:12:42:
                    b0:d7:d1:be:ce:e8:4f:69:e7:81:09:59:ef:a6:60:
                    cc:2c:e1:bb:ce:2d:cb:5f:e6:ed:e0:fa:4c:60:ab:
                    4c:9b:a7:11:23:74:84:7f:2e:aa:bf:ed:ba:8a:c2:
                    b0:1c:60:34:f2:f9:fa:03:38:f2:a5:44:23:4b:51:
                    36:ca:8d:07:d5:79:d3:38:86:75:e7:8e:60:f4:ae:
                    ea:17:00:0b:98:17:b2:bb:70:f1:49:79:06:56:c7:
                    2c:3f
                Exponent: 65537 (0x10001)
        X509v3 extensions:
            Netscape Cert Type: 
                SSL Server
            X509v3 Subject Key Identifier: 
                0A:22:98:B2:6E:7F:25:70:A7:A5:C5:CE:49:FF:0C:BB:A5:04:31:D8
            X509v3 Authority Key Identifier: 
                keyid:FA:E9:1F:A5:AF:8B:4E:18:FF:EF:B7:EA:8F:FB:98:BC:59:23:81:DF
                DirName:/CN=SHILLONGCA_CA/C=IN/O=CITRIX/OU=ANG/ST=KA/emailAddress=SHILLONGCA_CA@SHILLONGCA_mail.com
                serial:FB:D0:92:FD:A2:7C:35:0C

            Authority Information Access: 
                OCSP - URI:http://SHILLONGCA_one.ocsptest.com/responderpath

    Signature Algorithm: sha256WithRSAEncryption
         19:82:36:64:af:f6:2b:3b:d6:5d:f0:25:fd:e3:19:de:62:6a:
         9e:40:89:34:ae:df:de:18:4f:d6:2a:3a:70:c4:64:39:1a:9a:
         ae:11:87:69:b1:ec:c1:6b:e8:66:d3:8f:30:4d:cf:ec:f4:df:
         36:59:88:77:ed:24:fb:90:f6:91:d8:b8:d5:28:34:ac:ab:0e:
         03:f5:5c:80:31:c0:45:46:40:ea:d3:e1:be:e0:9b:19:52:61:
         92:53:4a:97:2c:4e:00:63:3c:20:43:bb:33:2f:97:dc:e5:ee:
         a2:fc:74:f6:63:91:31:29:04:a7:87:86:88:9b:74:ba:fd:b6:
         fc:11:30:96:78:99:a6:d1:b9:07:5c:4f:72:d2:c6:50:d4:4f:
         bc:c5:90:6e:47:4d:e6:2b:63:5b:a2:d3:64:61:27:40:da:1c:
         7f:2c:a7:f9:62:e1:dd:10:87:10:ba:57:14:62:08:3a:3f:6d:
         98:b2:94:5b:04:68:c5:77:2d:a5:bb:05:4f:61:c3:c1:87:2a:
         aa:44:bc:ba:85:7f:8c:8d:5f:f9:cd:7a:d9:61:49:2a:02:5d:
         dc:c8:e8:86:82:43:c8:eb:70:f6:f7:6a:5d:b3:86:5a:2b:a1:
         a4:af:0a:9b:c3:c2:16:80:5b:67:a3:da:67:8d:a8:48:e0:28:
         b3:ef:11:39
-----BEGIN CERTIFICATE-----
MIIEuzCCA6OgAwIBAgIGCgsMDQ4VMA0GCSqGSIb3DQEBCwUAMIGDMRYwFAYDVQQD
FA1TSElMTE9OR0NBX0NBMQswCQYDVQQGEwJJTjEPMA0GA1UEChMGQ0lUUklYMQww
CgYDVQQLEwNBTkcxCzAJBgNVBAgTAktBMTAwLgYJKoZIhvcNAQkBFiFTSElMTE9O
R0NBX0NBQFNISUxMT05HQ0FfbWFpbC5jb20wHhcNMTYwNzA4MDQ0MDA4WhcNMjYw
NzA2MDQ0MDA4WjB2MQswCQYDVQQIEwJLQTELMAkGA1UEBhMCSU4xHjAcBgNVBAMU
FTEwN19TSElMTE9OR0NBX3NlcnZlcjEpMCcGCSqGSIb3DQEJARYaMTA3X1NISUxM
T05HQ0FAdGVzdF9jYS5jb20xDzANBgNVBAoTBkNJVFJJWDCCASIwDQYJKoZIhvcN
AQEBBQADggEPADCCAQoCggEBALVsMS2jfFCW7NHu28kWYpg7pvmJ3aODuPSzgg4E
e+YAJHU3Y+zgGpcoxuf/p79eQqdKmGtUAJg9lV36tcTA9/3mhYKIWP4DQqjqtEXW
L1GjUhM8MIwaRLIXbwOEnVlifF1i7IyFjbQqp4q3fMNRuPKxahE3/kI03+CA9Qp1
jjIXgUtRjUqHcfgdCIi5NUqyZcoXfL8uLwnFK9pmf03I0eLbdBJCsNfRvs7oT2nn
gQlZ76ZgzCzhu84ty1/m7eD6TGCrTJunESN0hH8uqr/tuorCsBxgNPL5+gM48qVE
I0tRNsqNB9V50ziGdeeOYPSu6hcAC5gXsrtw8Ul5BlbHLD8CAwEAAaOCAT8wggE7
MBEGCWCGSAGG+EIBAQQEAwIGQDAdBgNVHQ4EFgQUCiKYsm5/JXCnpcXOSf8Mu6UE
MdgwgbgGA1UdIwSBsDCBrYAU+ukfpa+LThj/77fqj/uYvFkjgd+hgYmkgYYwgYMx
FjAUBgNVBAMUDVNISUxMT05HQ0FfQ0ExCzAJBgNVBAYTAklOMQ8wDQYDVQQKEwZD
SVRSSVgxDDAKBgNVBAsTA0FORzELMAkGA1UECBMCS0ExMDAuBgkqhkiG9w0BCQEW
IVNISUxMT05HQ0FfQ0FAU0hJTExPTkdDQV9tYWlsLmNvbYIJAPvQkv2ifDUMMEwG
CCsGAQUFBwEBBEAwPjA8BggrBgEFBQcwAYYwaHR0cDovL1NISUxMT05HQ0Ffb25l
Lm9jc3B0ZXN0LmNvbS9yZXNwb25kZXJwYXRoMA0GCSqGSIb3DQEBCwUAA4IBAQAZ
gjZkr/YrO9Zd8CX94xneYmqeQIk0rt/eGE/WKjpwxGQ5GpquEYdpsezBa+hm048w
Tc/s9N82WYh37ST7kPaR2LjVKDSsqw4D9VyAMcBFRkDq0+G+4JsZUmGSU0qXLE4A
YzwgQ7szL5fc5e6i/HT2Y5ExKQSnh4aIm3S6/bb8ETCWeJmm0bkHXE9y0sZQ1E+8
xZBuR03mK2NbotNkYSdA2hx/LKf5YuHdEIcQulcUYgg6P22YspRbBGjFdy2luwVP
YcPBhyqqRLy6hX+MjV/5zXrZYUkqAl3cyOiGgkPI63D292pds4ZaK6Gkrwqbw8IW
gFtno9pnjahI4Ciz7xE5
-----END CERTIFICATE-----
