Certificate:
    Data:
        Version: 3 (0x2)
        Serial Number: 11042563100184 (0xa0b0c0d0e18)
    Signature Algorithm: sha256WithRSAEncryption
        Issuer: CN=SHILLONGCA_CA, C=IN, O=CITRIX, OU=ANG, ST=KA/emailAddress=SHILLONGCA_CA@SHILLONGCA_mail.com
        Validity
            Not Before: Jul  8 04:40:09 2016 GMT
            Not After : Jul  6 04:40:09 2026 GMT
        Subject: ST=KA, C=IN, CN=110_SHILLONGCA_server/emailAddress=110_SHILLONGCA@test_ca.com, O=CITRIX
        Subject Public Key Info:
            Public Key Algorithm: rsaEncryption
                Public-Key: (2048 bit)
                Modulus:
                    00:b6:a9:1b:b8:70:5e:80:df:55:72:c1:de:df:08:
                    6f:8c:fb:63:b4:42:90:15:7c:a1:dc:ad:63:4b:d9:
                    76:3d:e6:54:62:cf:47:f5:cb:99:cb:e0:ae:03:31:
                    c4:bd:79:70:4e:37:ad:bb:3e:d3:e1:d5:6a:1c:21:
                    0f:0b:df:16:61:3e:35:48:06:69:77:31:d2:40:0b:
                    2b:11:e2:9c:82:41:c1:e1:a8:43:1f:fc:3c:48:fa:
                    75:08:9e:4f:54:7d:e6:2c:0e:8c:92:6e:47:f2:b9:
                    2e:ec:d4:7a:a2:3e:91:c9:e8:5a:a6:df:d7:2c:81:
                    d1:2e:0a:a8:3c:1f:c2:c2:8d:1b:56:59:62:83:65:
                    10:84:3e:01:e4:d1:5d:a1:6a:e2:f1:05:cb:73:5d:
                    d2:10:bb:f6:fc:5e:ab:59:bb:17:a9:2b:d9:c0:a5:
                    c3:c6:54:ba:77:79:1d:d7:98:d2:1d:ee:82:df:1d:
                    30:42:8a:10:31:c3:3e:8a:e7:c5:c6:74:ce:15:22:
                    5c:c8:ff:30:5d:0c:c0:4f:e0:b2:56:23:56:bc:c9:
                    2b:6f:67:c8:59:90:76:75:e6:65:c3:a8:3d:a7:15:
                    fc:cf:cb:0e:08:26:42:82:34:83:2b:6e:39:28:a9:
                    65:6a:34:cb:21:84:18:3b:26:dd:82:3b:b8:fe:36:
                    52:49
                Exponent: 65537 (0x10001)
        X509v3 extensions:
            Netscape Cert Type: 
                SSL Server
            X509v3 Subject Key Identifier: 
                79:B5:91:40:21:D3:B3:47:98:9B:62:2B:59:62:63:56:8D:02:96:80
            X509v3 Authority Key Identifier: 
                keyid:FA:E9:1F:A5:AF:8B:4E:18:FF:EF:B7:EA:8F:FB:98:BC:59:23:81:DF
                DirName:/CN=SHILLONGCA_CA/C=IN/O=CITRIX/OU=ANG/ST=KA/emailAddress=SHILLONGCA_CA@SHILLONGCA_mail.com
                serial:FB:D0:92:FD:A2:7C:35:0C

            Authority Information Access: 
                OCSP - URI:http://SHILLONGCA_one.ocsptest.com/responderpath

    Signature Algorithm: sha256WithRSAEncryption
         2a:e6:42:52:17:89:96:1d:49:d1:1a:f7:dd:25:ff:17:a5:96:
         15:31:b3:9f:d8:57:66:96:dd:44:74:17:80:86:63:e5:a7:61:
         b8:cf:cc:42:db:28:6e:6a:a5:15:17:40:13:50:6b:a5:43:80:
         09:f8:86:d0:8a:5c:f5:ca:10:12:8f:4d:0f:02:7d:7c:35:d0:
         16:48:1c:cf:f3:59:62:70:e0:4c:04:c3:a7:c0:e8:99:a6:9c:
         20:22:25:ed:93:ad:0b:99:d2:fd:be:77:8c:5f:bb:83:54:58:
         2e:6b:cf:9f:d4:b8:82:df:ed:d1:c2:98:dc:ac:56:1a:e5:d1:
         72:fd:ca:a1:35:c3:25:f2:4e:c1:75:0c:c9:9e:43:70:e3:a9:
         66:39:0a:5c:3b:bd:e8:29:ee:6c:f5:3c:ae:4b:ec:13:8d:d6:
         82:55:1d:24:25:60:1d:f4:f8:5f:b4:93:5d:c4:a3:d4:22:01:
         0d:d0:db:24:53:c2:0c:3d:7b:ef:b3:ad:49:15:f5:cf:97:ee:
         74:c0:ba:c6:ad:f5:b7:af:f0:48:28:1f:b4:cc:86:dd:3c:6e:
         ef:2e:37:a7:59:b5:08:6d:23:03:54:fe:fe:68:6b:71:f1:d6:
         c2:8c:07:93:27:77:11:51:44:1d:c4:0c:63:7c:4f:14:62:6b:
         e5:e9:27:4d
-----BEGIN CERTIFICATE-----
MIIEuzCCA6OgAwIBAgIGCgsMDQ4YMA0GCSqGSIb3DQEBCwUAMIGDMRYwFAYDVQQD
FA1TSElMTE9OR0NBX0NBMQswCQYDVQQGEwJJTjEPMA0GA1UEChMGQ0lUUklYMQww
CgYDVQQLEwNBTkcxCzAJBgNVBAgTAktBMTAwLgYJKoZIhvcNAQkBFiFTSElMTE9O
R0NBX0NBQFNISUxMT05HQ0FfbWFpbC5jb20wHhcNMTYwNzA4MDQ0MDA5WhcNMjYw
NzA2MDQ0MDA5WjB2MQswCQYDVQQIEwJLQTELMAkGA1UEBhMCSU4xHjAcBgNVBAMU
FTExMF9TSElMTE9OR0NBX3NlcnZlcjEpMCcGCSqGSIb3DQEJARYaMTEwX1NISUxM
T05HQ0FAdGVzdF9jYS5jb20xDzANBgNVBAoTBkNJVFJJWDCCASIwDQYJKoZIhvcN
AQEBBQADggEPADCCAQoCggEBALapG7hwXoDfVXLB3t8Ib4z7Y7RCkBV8odytY0vZ
dj3mVGLPR/XLmcvgrgMxxL15cE43rbs+0+HVahwhDwvfFmE+NUgGaXcx0kALKxHi
nIJBweGoQx/8PEj6dQieT1R95iwOjJJuR/K5LuzUeqI+kcnoWqbf1yyB0S4KqDwf
wsKNG1ZZYoNlEIQ+AeTRXaFq4vEFy3Nd0hC79vxeq1m7F6kr2cClw8ZUund5HdeY
0h3ugt8dMEKKEDHDPornxcZ0zhUiXMj/MF0MwE/gslYjVrzJK29nyFmQdnXmZcOo
PacV/M/LDggmQoI0gytuOSipZWo0yyGEGDsm3YI7uP42UkkCAwEAAaOCAT8wggE7
MBEGCWCGSAGG+EIBAQQEAwIGQDAdBgNVHQ4EFgQUebWRQCHTs0eYm2IrWWJjVo0C
loAwgbgGA1UdIwSBsDCBrYAU+ukfpa+LThj/77fqj/uYvFkjgd+hgYmkgYYwgYMx
FjAUBgNVBAMUDVNISUxMT05HQ0FfQ0ExCzAJBgNVBAYTAklOMQ8wDQYDVQQKEwZD
SVRSSVgxDDAKBgNVBAsTA0FORzELMAkGA1UECBMCS0ExMDAuBgkqhkiG9w0BCQEW
IVNISUxMT05HQ0FfQ0FAU0hJTExPTkdDQV9tYWlsLmNvbYIJAPvQkv2ifDUMMEwG
CCsGAQUFBwEBBEAwPjA8BggrBgEFBQcwAYYwaHR0cDovL1NISUxMT05HQ0Ffb25l
Lm9jc3B0ZXN0LmNvbS9yZXNwb25kZXJwYXRoMA0GCSqGSIb3DQEBCwUAA4IBAQAq
5kJSF4mWHUnRGvfdJf8XpZYVMbOf2Fdmlt1EdBeAhmPlp2G4z8xC2yhuaqUVF0AT
UGulQ4AJ+IbQilz1yhASj00PAn18NdAWSBzP81licOBMBMOnwOiZppwgIiXtk60L
mdL9vneMX7uDVFgua8+f1LiC3+3RwpjcrFYa5dFy/cqhNcMl8k7BdQzJnkNw46lm
OQpcO73oKe5s9TyuS+wTjdaCVR0kJWAd9PhftJNdxKPUIgEN0NskU8IMPXvvs61J
FfXPl+50wLrGrfW3r/BIKB+0zIbdPG7vLjenWbUIbSMDVP7+aGtx8dbCjAeTJ3cR
UUQdxAxjfE8UYmvl6SdN
-----END CERTIFICATE-----
