Certificate:
    Data:
        Version: 3 (0x2)
        Serial Number: 11042563100191 (0xa0b0c0d0e1f)
    Signature Algorithm: sha256WithRSAEncryption
        Issuer: CN=SHILLONGCA_CA, C=IN, O=CITRIX, OU=ANG, ST=KA/emailAddress=SHILLONGCA_CA@SHILLONGCA_mail.com
        Validity
            Not Before: Jul  8 04:40:10 2016 GMT
            Not After : Jul  6 04:40:10 2026 GMT
        Subject: ST=KA, C=IN, CN=117_SHILLONGCA_server/emailAddress=117_SHILLONGCA@test_ca.com, O=CITRIX
        Subject Public Key Info:
            Public Key Algorithm: rsaEncryption
                Public-Key: (2048 bit)
                Modulus:
                    00:c7:4f:40:3f:a1:77:e0:19:eb:ba:41:43:93:72:
                    64:92:94:b7:9f:bc:b4:8b:ad:bf:91:90:ea:3f:65:
                    44:c1:02:05:f1:25:af:91:73:63:62:18:b2:8c:c0:
                    be:4d:b5:02:5e:1f:25:78:ce:92:f5:51:6e:ba:77:
                    c9:cd:f4:0e:2f:d8:cd:a6:3c:bf:18:82:ae:57:8a:
                    56:53:71:ef:c3:e5:0a:73:e6:2f:d0:98:52:96:2a:
                    ea:24:7a:50:d8:75:f4:85:3b:dd:63:07:31:ef:2c:
                    be:1c:7e:cf:f1:6a:a9:e7:e7:01:38:75:8d:a5:6a:
                    1e:9e:3d:5b:9f:57:10:a4:29:85:55:b7:16:18:9f:
                    e7:92:6e:a6:c4:1d:cd:7c:56:09:5e:69:a4:09:91:
                    09:d4:89:3e:ce:61:fa:ea:95:cc:a9:71:4f:88:18:
                    69:e2:be:1a:b7:ef:ed:0f:2d:d7:08:5d:83:e5:ae:
                    90:70:5e:10:bf:83:ef:1a:75:8d:b9:89:49:47:ae:
                    6f:97:27:d4:3b:ae:7d:21:ec:89:59:7b:1f:ff:f4:
                    32:bc:8a:45:ee:e1:1a:b5:24:99:8f:4b:04:5e:94:
                    ac:fb:08:1e:2d:d3:e3:6b:02:0b:7b:95:7c:66:dc:
                    08:4e:29:1f:c5:35:d1:5d:d1:88:21:cf:0f:f8:a6:
                    53:fb
                Exponent: 65537 (0x10001)
        X509v3 extensions:
            Netscape Cert Type: 
                SSL Server
            X509v3 Subject Key Identifier: 
                71:B0:86:6B:08:A1:78:FD:41:C2:06:A7:00:44:71:3A:22:0E:E9:99
            X509v3 Authority Key Identifier: 
                keyid:FA:E9:1F:A5:AF:8B:4E:18:FF:EF:B7:EA:8F:FB:98:BC:59:23:81:DF
                DirName:/CN=SHILLONGCA_CA/C=IN/O=CITRIX/OU=ANG/ST=KA/emailAddress=SHILLONGCA_CA@SHILLONGCA_mail.com
                serial:FB:D0:92:FD:A2:7C:35:0C

            Authority Information Access: 
                OCSP - URI:http://SHILLONGCA_two.ocsptest.com/responderpath

    Signature Algorithm: sha256WithRSAEncryption
         92:7e:86:c4:4e:d3:52:df:d2:7b:a1:37:3b:c7:1a:35:0d:15:
         d9:53:3a:aa:17:c2:36:76:f1:f8:83:7f:ca:3e:98:7e:f9:bc:
         68:e4:42:97:4e:49:e3:3d:0a:78:ee:77:01:17:2e:47:01:91:
         1b:d5:dc:0c:6d:51:f3:e0:d8:b8:10:9e:f3:02:8a:6f:26:0f:
         db:8f:10:2a:57:07:da:41:0e:3a:55:15:b7:cb:f1:d4:c6:27:
         0b:6c:0d:86:6b:74:10:45:90:d8:c5:ee:4d:7b:77:1d:e6:fc:
         00:f2:60:6f:f5:46:70:ab:15:8c:94:68:e7:4e:d1:b7:0b:18:
         5b:cb:5d:0b:ae:63:25:54:58:29:34:df:e6:f7:45:d9:2f:0e:
         00:69:03:c2:79:9a:18:71:51:f6:fe:dd:82:13:3a:6b:39:53:
         b0:54:61:b5:53:15:90:c1:e0:f9:7c:ff:32:ae:81:ab:99:7b:
         b1:d5:4d:04:f9:1f:06:fb:c0:6f:40:b2:ad:6b:00:40:2e:02:
         f3:c1:8f:9b:bf:77:08:70:ab:8e:7f:22:6c:65:6f:90:ac:e7:
         45:98:0e:07:8d:2f:ef:4a:44:6e:0f:48:62:2c:52:29:58:5c:
         c0:f0:f2:c7:90:32:37:eb:89:0d:20:80:19:72:3c:16:a8:03:
         10:74:cc:e3
-----BEGIN CERTIFICATE-----
MIIEuzCCA6OgAwIBAgIGCgsMDQ4fMA0GCSqGSIb3DQEBCwUAMIGDMRYwFAYDVQQD
FA1TSElMTE9OR0NBX0NBMQswCQYDVQQGEwJJTjEPMA0GA1UEChMGQ0lUUklYMQww
CgYDVQQLEwNBTkcxCzAJBgNVBAgTAktBMTAwLgYJKoZIhvcNAQkBFiFTSElMTE9O
R0NBX0NBQFNISUxMT05HQ0FfbWFpbC5jb20wHhcNMTYwNzA4MDQ0MDEwWhcNMjYw
NzA2MDQ0MDEwWjB2MQswCQYDVQQIEwJLQTELMAkGA1UEBhMCSU4xHjAcBgNVBAMU
FTExN19TSElMTE9OR0NBX3NlcnZlcjEpMCcGCSqGSIb3DQEJARYaMTE3X1NISUxM
T05HQ0FAdGVzdF9jYS5jb20xDzANBgNVBAoTBkNJVFJJWDCCASIwDQYJKoZIhvcN
AQEBBQADggEPADCCAQoCggEBAMdPQD+hd+AZ67pBQ5NyZJKUt5+8tIutv5GQ6j9l
RMECBfElr5FzY2IYsozAvk21Al4fJXjOkvVRbrp3yc30Di/YzaY8vxiCrleKVlNx
78PlCnPmL9CYUpYq6iR6UNh19IU73WMHMe8svhx+z/FqqefnATh1jaVqHp49W59X
EKQphVW3Fhif55JupsQdzXxWCV5ppAmRCdSJPs5h+uqVzKlxT4gYaeK+Grfv7Q8t
1whdg+WukHBeEL+D7xp1jbmJSUeub5cn1DuufSHsiVl7H//0MryKRe7hGrUkmY9L
BF6UrPsIHi3T42sCC3uVfGbcCE4pH8U10V3RiCHPD/imU/sCAwEAAaOCAT8wggE7
MBEGCWCGSAGG+EIBAQQEAwIGQDAdBgNVHQ4EFgQUcbCGawiheP1BwganAERxOiIO
6ZkwgbgGA1UdIwSBsDCBrYAU+ukfpa+LThj/77fqj/uYvFkjgd+hgYmkgYYwgYMx
FjAUBgNVBAMUDVNISUxMT05HQ0FfQ0ExCzAJBgNVBAYTAklOMQ8wDQYDVQQKEwZD
SVRSSVgxDDAKBgNVBAsTA0FORzELMAkGA1UECBMCS0ExMDAuBgkqhkiG9w0BCQEW
IVNISUxMT05HQ0FfQ0FAU0hJTExPTkdDQV9tYWlsLmNvbYIJAPvQkv2ifDUMMEwG
CCsGAQUFBwEBBEAwPjA8BggrBgEFBQcwAYYwaHR0cDovL1NISUxMT05HQ0FfdHdv
Lm9jc3B0ZXN0LmNvbS9yZXNwb25kZXJwYXRoMA0GCSqGSIb3DQEBCwUAA4IBAQCS
fobETtNS39J7oTc7xxo1DRXZUzqqF8I2dvH4g3/KPph++bxo5EKXTknjPQp47ncB
Fy5HAZEb1dwMbVHz4Ni4EJ7zAopvJg/bjxAqVwfaQQ46VRW3y/HUxicLbA2Ga3QQ
RZDYxe5Ne3cd5vwA8mBv9UZwqxWMlGjnTtG3Cxhby10LrmMlVFgpNN/m90XZLw4A
aQPCeZoYcVH2/t2CEzprOVOwVGG1UxWQweD5fP8yroGrmXux1U0E+R8G+8BvQLKt
awBALgLzwY+bv3cIcKuOfyJsZW+QrOdFmA4HjS/vSkRuD0hiLFIpWFzA8PLHkDI3
64kNIIAZcjwWqAMQdMzj
-----END CERTIFICATE-----
