Certificate:
    Data:
        Version: 3 (0x2)
        Serial Number: 11042563100192 (0xa0b0c0d0e20)
    Signature Algorithm: sha256WithRSAEncryption
        Issuer: CN=SHILLONGCA_CA, C=IN, O=CITRIX, OU=ANG, ST=KA/emailAddress=SHILLONGCA_CA@SHILLONGCA_mail.com
        Validity
            Not Before: Jul  8 04:40:10 2016 GMT
            Not After : Jul  6 04:40:10 2026 GMT
        Subject: ST=KA, C=IN, CN=118_SHILLONGCA_server/emailAddress=118_SHILLONGCA@test_ca.com, O=CITRIX
        Subject Public Key Info:
            Public Key Algorithm: rsaEncryption
                Public-Key: (2048 bit)
                Modulus:
                    00:aa:d4:88:75:be:d1:56:c8:d3:ac:90:84:bc:c3:
                    bb:60:5b:8b:c0:dc:0e:37:eb:06:08:87:db:be:6f:
                    37:36:29:59:f2:77:83:96:e4:71:a6:63:e4:9f:88:
                    57:15:91:65:66:9d:c5:bc:e0:d0:f4:82:06:46:f2:
                    cf:9d:e2:e4:e3:36:1c:8a:44:52:33:7a:a0:c9:05:
                    22:82:e1:c4:b1:07:aa:9d:b9:63:5b:81:63:b2:f7:
                    61:c9:83:ef:cd:0f:a9:58:82:e4:79:4b:8e:f3:37:
                    d8:00:eb:6b:be:b1:f7:5f:0c:40:75:66:31:0c:46:
                    b9:0f:8e:53:41:2d:fc:74:6d:cd:48:84:60:ac:aa:
                    03:92:c2:10:ab:f2:9a:de:bc:99:1d:54:1b:2c:42:
                    69:c2:3c:fc:58:b0:e0:e2:34:2f:93:3c:78:e2:56:
                    55:30:46:a3:bf:78:51:c0:65:bf:73:48:cb:ea:ca:
                    be:c7:7c:d9:80:b9:66:0f:d8:d3:a3:a2:47:42:4c:
                    57:46:94:78:30:fd:b3:b7:12:1f:ce:d2:d9:5f:ef:
                    f2:9b:48:df:1a:62:98:d7:bb:6b:33:a0:53:2b:0b:
                    f1:d7:9b:d9:c3:c9:5f:ba:ff:bb:e8:16:86:57:b3:
                    30:04:25:8b:5d:b7:ec:96:1d:68:e9:4b:a5:e0:39:
                    41:99
                Exponent: 65537 (0x10001)
        X509v3 extensions:
            Netscape Cert Type: 
                SSL Server
            X509v3 Subject Key Identifier: 
                C3:0E:67:5B:0A:DB:6D:06:43:FA:31:55:A7:6B:BB:83:6B:1D:E7:CC
            X509v3 Authority Key Identifier: 
                keyid:FA:E9:1F:A5:AF:8B:4E:18:FF:EF:B7:EA:8F:FB:98:BC:59:23:81:DF
                DirName:/CN=SHILLONGCA_CA/C=IN/O=CITRIX/OU=ANG/ST=KA/emailAddress=SHILLONGCA_CA@SHILLONGCA_mail.com
                serial:FB:D0:92:FD:A2:7C:35:0C

            Authority Information Access: 
                OCSP - URI:http://SHILLONGCA_two.ocsptest.com/responderpath

    Signature Algorithm: sha256WithRSAEncryption
         00:42:66:32:ca:a0:aa:d7:f3:d1:a9:da:ec:4e:5e:80:ee:55:
         f8:e6:cd:bc:1b:e3:0e:f7:f5:f2:f7:53:0c:6d:2a:ed:9e:d1:
         43:b2:3e:10:82:db:07:8d:a2:aa:3f:96:38:1b:2e:dd:9a:80:
         fe:88:36:c6:5d:0b:c9:47:ac:91:b2:ee:0e:ea:23:5e:46:82:
         4e:8e:c9:8b:54:d9:b7:55:da:c9:a5:7a:57:5f:e7:9c:5b:e4:
         1d:05:97:2e:60:36:8d:5b:fb:79:c5:9b:92:58:e7:07:a3:86:
         b3:68:75:88:55:1c:97:03:b4:51:f7:8e:f5:f0:ca:d9:6d:3b:
         51:7c:d0:37:50:4c:b7:d5:2b:d2:f6:3a:db:49:03:ff:61:48:
         61:65:ea:ed:c0:40:c0:74:ab:3f:37:23:68:0b:dd:4b:91:68:
         2b:9d:75:e9:ab:c4:ee:f4:23:d4:21:00:dd:72:22:07:f8:9e:
         d8:77:76:93:6d:b3:88:92:be:aa:9d:5b:4f:e2:b8:27:c1:53:
         43:14:ab:33:0c:76:cd:68:1c:a3:e4:d8:bd:ec:2f:e0:5a:5a:
         76:d6:d4:7b:3b:c3:7b:2d:d7:a7:4c:04:2e:a8:d8:8a:6b:c8:
         64:1e:af:b9:d2:80:74:26:03:ee:74:9c:a0:4f:9e:1e:a6:ad:
         b8:0e:60:1b
-----BEGIN CERTIFICATE-----
MIIEuzCCA6OgAwIBAgIGCgsMDQ4gMA0GCSqGSIb3DQEBCwUAMIGDMRYwFAYDVQQD
FA1TSElMTE9OR0NBX0NBMQswCQYDVQQGEwJJTjEPMA0GA1UEChMGQ0lUUklYMQww
CgYDVQQLEwNBTkcxCzAJBgNVBAgTAktBMTAwLgYJKoZIhvcNAQkBFiFTSElMTE9O
R0NBX0NBQFNISUxMT05HQ0FfbWFpbC5jb20wHhcNMTYwNzA4MDQ0MDEwWhcNMjYw
NzA2MDQ0MDEwWjB2MQswCQYDVQQIEwJLQTELMAkGA1UEBhMCSU4xHjAcBgNVBAMU
FTExOF9TSElMTE9OR0NBX3NlcnZlcjEpMCcGCSqGSIb3DQEJARYaMTE4X1NISUxM
T05HQ0FAdGVzdF9jYS5jb20xDzANBgNVBAoTBkNJVFJJWDCCASIwDQYJKoZIhvcN
AQEBBQADggEPADCCAQoCggEBAKrUiHW+0VbI06yQhLzDu2Bbi8DcDjfrBgiH275v
NzYpWfJ3g5bkcaZj5J+IVxWRZWadxbzg0PSCBkbyz53i5OM2HIpEUjN6oMkFIoLh
xLEHqp25Y1uBY7L3YcmD780PqViC5HlLjvM32ADra76x918MQHVmMQxGuQ+OU0Et
/HRtzUiEYKyqA5LCEKvymt68mR1UGyxCacI8/Fiw4OI0L5M8eOJWVTBGo794UcBl
v3NIy+rKvsd82YC5Zg/Y06OiR0JMV0aUeDD9s7cSH87S2V/v8ptI3xpimNe7azOg
UysL8deb2cPJX7r/u+gWhlezMAQli1237JYdaOlLpeA5QZkCAwEAAaOCAT8wggE7
MBEGCWCGSAGG+EIBAQQEAwIGQDAdBgNVHQ4EFgQUww5nWwrbbQZD+jFVp2u7g2sd
58wwgbgGA1UdIwSBsDCBrYAU+ukfpa+LThj/77fqj/uYvFkjgd+hgYmkgYYwgYMx
FjAUBgNVBAMUDVNISUxMT05HQ0FfQ0ExCzAJBgNVBAYTAklOMQ8wDQYDVQQKEwZD
SVRSSVgxDDAKBgNVBAsTA0FORzELMAkGA1UECBMCS0ExMDAuBgkqhkiG9w0BCQEW
IVNISUxMT05HQ0FfQ0FAU0hJTExPTkdDQV9tYWlsLmNvbYIJAPvQkv2ifDUMMEwG
CCsGAQUFBwEBBEAwPjA8BggrBgEFBQcwAYYwaHR0cDovL1NISUxMT05HQ0FfdHdv
Lm9jc3B0ZXN0LmNvbS9yZXNwb25kZXJwYXRoMA0GCSqGSIb3DQEBCwUAA4IBAQAA
QmYyyqCq1/PRqdrsTl6A7lX45s28G+MO9/Xy91MMbSrtntFDsj4QgtsHjaKqP5Y4
Gy7dmoD+iDbGXQvJR6yRsu4O6iNeRoJOjsmLVNm3VdrJpXpXX+ecW+QdBZcuYDaN
W/t5xZuSWOcHo4azaHWIVRyXA7RR94718MrZbTtRfNA3UEy31SvS9jrbSQP/YUhh
ZertwEDAdKs/NyNoC91LkWgrnXXpq8Tu9CPUIQDdciIH+J7Yd3aTbbOIkr6qnVtP
4rgnwVNDFKszDHbNaByj5Ni97C/gWlp21tR7O8N7LdenTAQuqNiKa8hkHq+50oB0
JgPudJygT54epq24DmAb
-----END CERTIFICATE-----
