Certificate:
    Data:
        Version: 3 (0x2)
        Serial Number: 11042563100193 (0xa0b0c0d0e21)
    Signature Algorithm: sha256WithRSAEncryption
        Issuer: CN=SHILLONGCA_CA, C=IN, O=CITRIX, OU=ANG, ST=KA/emailAddress=SHILLONGCA_CA@SHILLONGCA_mail.com
        Validity
            Not Before: Jul  8 04:40:11 2016 GMT
            Not After : Jul  6 04:40:11 2026 GMT
        Subject: ST=KA, C=IN, CN=119_SHILLONGCA_server/emailAddress=119_SHILLONGCA@test_ca.com, O=CITRIX
        Subject Public Key Info:
            Public Key Algorithm: rsaEncryption
                Public-Key: (2048 bit)
                Modulus:
                    00:c2:1c:30:21:05:1a:72:22:20:94:1a:69:27:57:
                    5d:35:5b:3d:11:6d:37:44:11:7b:94:b3:1a:2d:b3:
                    c1:a5:34:4f:d7:fb:57:a4:50:d6:bc:e4:ff:0f:7a:
                    69:d0:e2:32:0e:5d:70:33:b5:8f:5c:8b:46:2f:0f:
                    dd:d3:8e:68:26:13:13:0f:46:1d:bd:bd:92:5a:b8:
                    3f:c5:e0:d8:e9:fc:9e:6a:06:e5:8b:f3:bf:85:63:
                    9b:c2:22:35:b9:03:2d:28:54:35:ba:fe:88:df:18:
                    9e:06:b2:49:dc:e9:8a:16:8a:ee:69:66:c6:52:09:
                    3a:f1:58:3a:55:f5:24:44:bb:a2:4f:9d:ce:de:10:
                    10:77:65:31:b3:2d:e7:2b:2c:1a:eb:73:16:e5:f1:
                    54:74:2f:9d:93:da:0d:ee:d8:05:8e:d6:aa:11:6a:
                    da:d3:e0:1d:cb:59:40:d5:5e:98:21:7c:55:d6:e4:
                    29:6e:5d:e3:30:83:ae:9f:d6:7d:5e:ea:d2:83:08:
                    7c:22:55:ee:a1:77:13:d7:b6:86:2c:ea:f6:f2:8a:
                    b6:db:9f:b5:93:d2:0f:19:ba:79:8c:97:84:6f:13:
                    ee:c3:71:d4:6e:7a:32:0a:8d:07:0a:e5:c3:01:bf:
                    bd:40:63:9f:9e:cb:a3:86:a9:6b:84:42:b6:c0:98:
                    e9:99
                Exponent: 65537 (0x10001)
        X509v3 extensions:
            Netscape Cert Type: 
                SSL Server
            X509v3 Subject Key Identifier: 
                6D:BE:BD:47:71:2F:5E:CB:C5:FB:4C:C2:59:79:65:2E:47:A0:8D:1D
            X509v3 Authority Key Identifier: 
                keyid:FA:E9:1F:A5:AF:8B:4E:18:FF:EF:B7:EA:8F:FB:98:BC:59:23:81:DF
                DirName:/CN=SHILLONGCA_CA/C=IN/O=CITRIX/OU=ANG/ST=KA/emailAddress=SHILLONGCA_CA@SHILLONGCA_mail.com
                serial:FB:D0:92:FD:A2:7C:35:0C

            Authority Information Access: 
                OCSP - URI:http://SHILLONGCA_two.ocsptest.com/responderpath

    Signature Algorithm: sha256WithRSAEncryption
         b6:de:6c:fb:f7:df:f2:b1:2a:49:bd:ef:53:b0:8e:5d:08:72:
         c6:bf:bd:35:b2:14:9c:90:45:b2:e2:1a:42:13:dc:d1:77:8b:
         d8:b1:a7:05:42:69:5b:9c:e2:3d:6c:f9:43:dc:94:a7:38:5e:
         94:21:83:86:61:0f:84:2c:ae:b6:b9:a3:a4:ba:57:cf:12:bd:
         57:cb:08:1d:09:6d:f9:a6:49:6e:86:28:4d:dc:a7:3b:11:c5:
         ac:0f:19:5e:f0:a3:57:bc:10:be:8a:5c:be:bc:f0:90:a0:12:
         d1:5b:8a:8f:ef:df:71:35:9f:79:26:98:f5:c8:63:c9:05:53:
         f6:d9:4d:1b:64:fe:89:42:58:6e:6e:d1:45:31:77:7a:a9:b6:
         07:e5:43:11:35:75:0a:0e:d4:81:b0:ea:6a:b3:3e:53:5d:7b:
         00:a6:8c:59:79:04:4c:61:da:fb:f1:95:6a:15:e9:5d:14:06:
         f2:fa:f4:d2:3c:c5:27:1e:43:df:7b:08:f7:a3:1a:20:fb:1f:
         0e:45:71:aa:d1:d4:48:12:91:a7:68:02:a4:8c:93:d1:47:ab:
         8f:8f:07:16:8e:38:17:2c:6c:80:4a:fd:c8:09:b7:12:8a:cf:
         72:bf:e5:2d:8a:52:df:f6:58:1b:ad:14:36:2e:4a:88:42:1d:
         6d:85:98:42
-----BEGIN CERTIFICATE-----
MIIEuzCCA6OgAwIBAgIGCgsMDQ4hMA0GCSqGSIb3DQEBCwUAMIGDMRYwFAYDVQQD
FA1TSElMTE9OR0NBX0NBMQswCQYDVQQGEwJJTjEPMA0GA1UEChMGQ0lUUklYMQww
CgYDVQQLEwNBTkcxCzAJBgNVBAgTAktBMTAwLgYJKoZIhvcNAQkBFiFTSElMTE9O
R0NBX0NBQFNISUxMT05HQ0FfbWFpbC5jb20wHhcNMTYwNzA4MDQ0MDExWhcNMjYw
NzA2MDQ0MDExWjB2MQswCQYDVQQIEwJLQTELMAkGA1UEBhMCSU4xHjAcBgNVBAMU
FTExOV9TSElMTE9OR0NBX3NlcnZlcjEpMCcGCSqGSIb3DQEJARYaMTE5X1NISUxM
T05HQ0FAdGVzdF9jYS5jb20xDzANBgNVBAoTBkNJVFJJWDCCASIwDQYJKoZIhvcN
AQEBBQADggEPADCCAQoCggEBAMIcMCEFGnIiIJQaaSdXXTVbPRFtN0QRe5SzGi2z
waU0T9f7V6RQ1rzk/w96adDiMg5dcDO1j1yLRi8P3dOOaCYTEw9GHb29klq4P8Xg
2On8nmoG5Yvzv4Vjm8IiNbkDLShUNbr+iN8YngaySdzpihaK7mlmxlIJOvFYOlX1
JES7ok+dzt4QEHdlMbMt5yssGutzFuXxVHQvnZPaDe7YBY7WqhFq2tPgHctZQNVe
mCF8VdbkKW5d4zCDrp/WfV7q0oMIfCJV7qF3E9e2hizq9vKKttuftZPSDxm6eYyX
hG8T7sNx1G56MgqNBwrlwwG/vUBjn57Lo4apa4RCtsCY6ZkCAwEAAaOCAT8wggE7
MBEGCWCGSAGG+EIBAQQEAwIGQDAdBgNVHQ4EFgQUbb69R3EvXsvF+0zCWXllLkeg
jR0wgbgGA1UdIwSBsDCBrYAU+ukfpa+LThj/77fqj/uYvFkjgd+hgYmkgYYwgYMx
FjAUBgNVBAMUDVNISUxMT05HQ0FfQ0ExCzAJBgNVBAYTAklOMQ8wDQYDVQQKEwZD
SVRSSVgxDDAKBgNVBAsTA0FORzELMAkGA1UECBMCS0ExMDAuBgkqhkiG9w0BCQEW
IVNISUxMT05HQ0FfQ0FAU0hJTExPTkdDQV9tYWlsLmNvbYIJAPvQkv2ifDUMMEwG
CCsGAQUFBwEBBEAwPjA8BggrBgEFBQcwAYYwaHR0cDovL1NISUxMT05HQ0FfdHdv
Lm9jc3B0ZXN0LmNvbS9yZXNwb25kZXJwYXRoMA0GCSqGSIb3DQEBCwUAA4IBAQC2
3mz799/ysSpJve9TsI5dCHLGv701shSckEWy4hpCE9zRd4vYsacFQmlbnOI9bPlD
3JSnOF6UIYOGYQ+ELK62uaOkulfPEr1XywgdCW35pkluhihN3Kc7EcWsDxle8KNX
vBC+ily+vPCQoBLRW4qP799xNZ95Jpj1yGPJBVP22U0bZP6JQlhubtFFMXd6qbYH
5UMRNXUKDtSBsOpqsz5TXXsApoxZeQRMYdr78ZVqFeldFAby+vTSPMUnHkPfewj3
oxog+x8ORXGq0dRIEpGnaAKkjJPRR6uPjwcWjjgXLGyASv3ICbcSis9yv+UtilLf
9lgbrRQ2LkqIQh1thZhC
-----END CERTIFICATE-----
