Certificate:
    Data:
        Version: 3 (0x2)
        Serial Number: 11042563100194 (0xa0b0c0d0e22)
    Signature Algorithm: sha256WithRSAEncryption
        Issuer: CN=SHILLONGCA_CA, C=IN, O=CITRIX, OU=ANG, ST=KA/emailAddress=SHILLONGCA_CA@SHILLONGCA_mail.com
        Validity
            Not Before: Jul  8 04:40:11 2016 GMT
            Not After : Jul  6 04:40:11 2026 GMT
        Subject: ST=KA, C=IN, CN=120_SHILLONGCA_server/emailAddress=120_SHILLONGCA@test_ca.com, O=CITRIX
        Subject Public Key Info:
            Public Key Algorithm: rsaEncryption
                Public-Key: (2048 bit)
                Modulus:
                    00:b5:67:2c:87:18:11:9d:0b:95:43:6e:84:3b:9e:
                    bf:e0:49:6a:e5:52:0d:18:94:8f:6d:0d:dd:2a:c3:
                    20:01:07:40:9a:80:f4:4a:69:bf:cd:7e:5c:1d:c1:
                    09:b8:56:c5:5d:33:a2:90:1b:c8:5a:e7:b6:5e:68:
                    96:70:03:67:82:77:ff:e4:92:81:5c:a9:e0:e4:84:
                    00:fe:e3:83:59:ab:3d:2b:c7:b6:a0:83:1c:ad:ed:
                    bb:d8:43:45:54:59:c6:c3:ec:6a:83:86:25:af:d9:
                    4a:9f:d5:64:98:71:5e:75:00:1c:4d:e2:30:ee:29:
                    a3:13:e8:75:02:93:38:ff:70:38:9d:29:13:4a:a6:
                    9f:8a:f8:bd:b9:cf:9c:c4:21:a9:60:a4:b0:56:f0:
                    f2:19:8d:95:fb:cc:50:f3:60:0f:ca:2b:cb:3e:fd:
                    83:b9:87:a7:c1:b7:eb:f2:6a:2b:9d:e8:03:68:4e:
                    cd:4a:70:0e:2f:7a:6e:00:04:02:60:41:1a:07:74:
                    64:3d:31:12:70:1b:74:1a:c0:7c:f0:8c:72:8c:93:
                    e2:10:53:ab:45:11:20:87:a5:7a:62:9a:01:79:fb:
                    09:26:f3:ac:72:89:61:ba:53:ee:3a:63:52:66:6d:
                    63:1f:de:89:3a:45:43:3e:a7:89:bf:ca:7b:bc:1a:
                    70:1d
                Exponent: 65537 (0x10001)
        X509v3 extensions:
            Netscape Cert Type: 
                SSL Server
            X509v3 Subject Key Identifier: 
                99:B4:61:66:0B:66:3E:D6:22:44:07:FA:27:2C:54:5E:E4:DD:45:88
            X509v3 Authority Key Identifier: 
                keyid:FA:E9:1F:A5:AF:8B:4E:18:FF:EF:B7:EA:8F:FB:98:BC:59:23:81:DF
                DirName:/CN=SHILLONGCA_CA/C=IN/O=CITRIX/OU=ANG/ST=KA/emailAddress=SHILLONGCA_CA@SHILLONGCA_mail.com
                serial:FB:D0:92:FD:A2:7C:35:0C

            Authority Information Access: 
                OCSP - URI:http://SHILLONGCA_two.ocsptest.com/responderpath

    Signature Algorithm: sha256WithRSAEncryption
         3a:e1:df:53:a3:19:a4:a1:48:68:20:53:56:6b:4a:c5:98:50:
         65:f8:bf:f7:63:6b:f5:38:33:83:cd:94:88:dd:7c:86:d6:f0:
         6f:0a:e7:f6:1f:c7:e5:52:a5:3a:be:60:41:10:65:7b:47:04:
         43:06:3b:ed:8d:0c:f4:b7:e7:27:95:10:7e:26:d2:be:af:10:
         dd:6b:16:f5:14:f7:6b:6a:4e:85:0b:c9:ab:b6:50:9c:90:83:
         3e:01:0a:71:3b:eb:23:98:f6:9b:56:92:04:ef:e5:eb:82:69:
         e1:ea:21:40:21:3a:61:3b:e8:42:4d:b9:64:c7:c6:ce:9a:47:
         c5:85:e0:a2:70:8c:e2:9d:c9:47:ac:ab:75:b0:45:80:2d:cf:
         a8:e7:43:b4:c5:b7:1f:07:e7:c4:75:e9:c5:e8:76:34:05:0d:
         e9:08:85:b0:a9:99:e2:11:49:30:17:e8:4e:86:e5:53:5a:4e:
         9e:cf:ab:4c:b9:e6:ff:e0:fc:f8:03:08:6b:4e:b5:07:03:4d:
         0c:f0:9a:01:15:8d:bf:4c:29:72:e1:4c:cd:26:6b:7c:c3:79:
         80:78:e3:16:6e:8d:2b:e0:b9:2b:d8:7d:a6:99:f0:bf:d6:74:
         6e:3b:4c:e1:05:0d:94:07:8f:be:ca:0e:fc:20:d0:ac:de:e0:
         85:71:ee:16
-----BEGIN CERTIFICATE-----
MIIEuzCCA6OgAwIBAgIGCgsMDQ4iMA0GCSqGSIb3DQEBCwUAMIGDMRYwFAYDVQQD
FA1TSElMTE9OR0NBX0NBMQswCQYDVQQGEwJJTjEPMA0GA1UEChMGQ0lUUklYMQww
CgYDVQQLEwNBTkcxCzAJBgNVBAgTAktBMTAwLgYJKoZIhvcNAQkBFiFTSElMTE9O
R0NBX0NBQFNISUxMT05HQ0FfbWFpbC5jb20wHhcNMTYwNzA4MDQ0MDExWhcNMjYw
NzA2MDQ0MDExWjB2MQswCQYDVQQIEwJLQTELMAkGA1UEBhMCSU4xHjAcBgNVBAMU
FTEyMF9TSElMTE9OR0NBX3NlcnZlcjEpMCcGCSqGSIb3DQEJARYaMTIwX1NISUxM
T05HQ0FAdGVzdF9jYS5jb20xDzANBgNVBAoTBkNJVFJJWDCCASIwDQYJKoZIhvcN
AQEBBQADggEPADCCAQoCggEBALVnLIcYEZ0LlUNuhDuev+BJauVSDRiUj20N3SrD
IAEHQJqA9Eppv81+XB3BCbhWxV0zopAbyFrntl5olnADZ4J3/+SSgVyp4OSEAP7j
g1mrPSvHtqCDHK3tu9hDRVRZxsPsaoOGJa/ZSp/VZJhxXnUAHE3iMO4poxPodQKT
OP9wOJ0pE0qmn4r4vbnPnMQhqWCksFbw8hmNlfvMUPNgD8oryz79g7mHp8G36/Jq
K53oA2hOzUpwDi96bgAEAmBBGgd0ZD0xEnAbdBrAfPCMcoyT4hBTq0URIIelemKa
AXn7CSbzrHKJYbpT7jpjUmZtYx/eiTpFQz6nib/Ke7wacB0CAwEAAaOCAT8wggE7
MBEGCWCGSAGG+EIBAQQEAwIGQDAdBgNVHQ4EFgQUmbRhZgtmPtYiRAf6JyxUXuTd
RYgwgbgGA1UdIwSBsDCBrYAU+ukfpa+LThj/77fqj/uYvFkjgd+hgYmkgYYwgYMx
FjAUBgNVBAMUDVNISUxMT05HQ0FfQ0ExCzAJBgNVBAYTAklOMQ8wDQYDVQQKEwZD
SVRSSVgxDDAKBgNVBAsTA0FORzELMAkGA1UECBMCS0ExMDAuBgkqhkiG9w0BCQEW
IVNISUxMT05HQ0FfQ0FAU0hJTExPTkdDQV9tYWlsLmNvbYIJAPvQkv2ifDUMMEwG
CCsGAQUFBwEBBEAwPjA8BggrBgEFBQcwAYYwaHR0cDovL1NISUxMT05HQ0FfdHdv
Lm9jc3B0ZXN0LmNvbS9yZXNwb25kZXJwYXRoMA0GCSqGSIb3DQEBCwUAA4IBAQA6
4d9ToxmkoUhoIFNWa0rFmFBl+L/3Y2v1ODODzZSI3XyG1vBvCuf2H8flUqU6vmBB
EGV7RwRDBjvtjQz0t+cnlRB+JtK+rxDdaxb1FPdrak6FC8mrtlCckIM+AQpxO+sj
mPabVpIE7+Xrgmnh6iFAITphO+hCTblkx8bOmkfFheCicIzinclHrKt1sEWALc+o
50O0xbcfB+fEdenF6HY0BQ3pCIWwqZniEUkwF+hOhuVTWk6ez6tMueb/4Pz4Awhr
TrUHA00M8JoBFY2/TCly4UzNJmt8w3mAeOMWbo0r4Lkr2H2mmfC/1nRuO0zhBQ2U
B4++yg78INCs3uCFce4W
-----END CERTIFICATE-----
