Certificate:
    Data:
        Version: 3 (0x2)
        Serial Number: 11042563100197 (0xa0b0c0d0e25)
    Signature Algorithm: sha256WithRSAEncryption
        Issuer: CN=SHILLONGCA_CA, C=IN, O=CITRIX, OU=ANG, ST=KA/emailAddress=SHILLONGCA_CA@SHILLONGCA_mail.com
        Validity
            Not Before: Jul  8 04:40:12 2016 GMT
            Not After : Jul  6 04:40:12 2026 GMT
        Subject: ST=KA, C=IN, CN=123_SHILLONGCA_server/emailAddress=123_SHILLONGCA@test_ca.com, O=CITRIX
        Subject Public Key Info:
            Public Key Algorithm: rsaEncryption
                Public-Key: (2048 bit)
                Modulus:
                    00:d6:a9:de:e9:9e:da:1b:00:91:82:3d:0d:4b:3e:
                    14:30:e4:cc:b0:65:de:21:2f:1f:23:3c:90:dc:fe:
                    ea:24:f6:d0:ba:93:b7:d0:6b:01:53:d1:ec:83:36:
                    2a:09:65:e2:2c:90:d8:f1:6a:47:86:57:8c:1a:78:
                    f7:8b:67:0c:87:8f:2c:ef:0b:6b:3f:e1:a3:bd:64:
                    93:be:c9:aa:e5:32:19:91:f1:c5:0a:3a:ad:fd:cd:
                    b5:ad:92:bb:5c:39:08:f6:17:87:b6:ce:5f:44:e8:
                    45:aa:53:65:24:4b:0c:03:2d:52:e7:56:fa:e7:21:
                    13:57:4d:6b:b5:b8:14:63:cb:55:36:68:4b:f2:17:
                    e2:95:b3:09:82:cb:06:2b:d2:dd:ca:f8:49:03:24:
                    49:17:5b:bd:84:b3:3c:2b:08:db:97:ca:45:3a:21:
                    59:55:0f:5c:f1:96:34:6f:1b:45:a0:83:93:09:15:
                    78:a5:5e:6d:35:4a:51:c8:97:d7:0a:88:45:d7:f8:
                    4d:3e:d6:41:44:fc:5f:d1:5d:17:d3:1d:e0:96:92:
                    fb:90:e9:cd:41:80:7d:66:3e:06:81:09:55:20:51:
                    31:e7:77:a7:18:e7:9a:10:62:b5:51:a1:0a:19:8b:
                    ff:61:e1:3d:16:d8:0c:2f:43:d6:99:c9:3c:db:59:
                    2c:3d
                Exponent: 65537 (0x10001)
        X509v3 extensions:
            Netscape Cert Type: 
                SSL Server
            X509v3 Subject Key Identifier: 
                37:04:BD:00:E1:26:4D:8C:E7:F5:F1:DE:CA:E1:EB:FC:50:33:91:02
            X509v3 Authority Key Identifier: 
                keyid:FA:E9:1F:A5:AF:8B:4E:18:FF:EF:B7:EA:8F:FB:98:BC:59:23:81:DF
                DirName:/CN=SHILLONGCA_CA/C=IN/O=CITRIX/OU=ANG/ST=KA/emailAddress=SHILLONGCA_CA@SHILLONGCA_mail.com
                serial:FB:D0:92:FD:A2:7C:35:0C

            Authority Information Access: 
                OCSP - URI:http://172.28.10.1/responderpath

    Signature Algorithm: sha256WithRSAEncryption
         3c:01:83:e9:cc:41:db:e6:ad:c7:04:e7:a2:e0:e5:48:15:8e:
         85:10:eb:a2:86:c7:47:fd:0b:63:83:0b:c7:f9:d3:43:f5:81:
         71:6f:b0:13:6f:ec:4f:7d:41:f9:36:b2:c1:a3:fe:52:99:42:
         51:84:ca:b8:8c:71:1a:36:43:60:bf:35:3c:ef:15:3a:b8:44:
         3f:b9:96:4e:36:59:69:47:a6:af:64:6e:42:73:26:7c:d2:8e:
         72:a1:c5:f7:b7:1d:b2:95:a7:2d:cd:13:c6:66:89:75:65:d4:
         67:9e:87:3b:b4:e0:46:4f:a8:a6:70:7c:3c:ac:15:70:83:0b:
         e4:8d:4f:16:50:70:0d:74:61:fb:bb:7f:35:8d:d3:c1:42:12:
         2f:96:8b:d6:c7:03:fe:22:be:63:ab:45:56:89:e3:95:8e:85:
         59:67:93:a9:45:69:9a:af:ea:c1:6f:69:a3:f0:99:df:b4:b6:
         43:9e:d2:45:c9:2d:46:51:85:7f:c7:4c:96:b0:0d:ba:33:4f:
         42:4a:f3:72:c6:82:c2:51:d8:ef:29:8f:46:db:d7:6e:7b:09:
         6f:5c:fe:ed:21:9d:5b:eb:a6:a4:1f:9c:85:8d:37:9d:b4:5b:
         6e:21:cf:13:df:86:e3:6d:e1:96:80:a3:a0:9e:43:bb:54:90:
         80:8c:91:4b
-----BEGIN CERTIFICATE-----
MIIEqzCCA5OgAwIBAgIGCgsMDQ4lMA0GCSqGSIb3DQEBCwUAMIGDMRYwFAYDVQQD
FA1TSElMTE9OR0NBX0NBMQswCQYDVQQGEwJJTjEPMA0GA1UEChMGQ0lUUklYMQww
CgYDVQQLEwNBTkcxCzAJBgNVBAgTAktBMTAwLgYJKoZIhvcNAQkBFiFTSElMTE9O
R0NBX0NBQFNISUxMT05HQ0FfbWFpbC5jb20wHhcNMTYwNzA4MDQ0MDEyWhcNMjYw
NzA2MDQ0MDEyWjB2MQswCQYDVQQIEwJLQTELMAkGA1UEBhMCSU4xHjAcBgNVBAMU
FTEyM19TSElMTE9OR0NBX3NlcnZlcjEpMCcGCSqGSIb3DQEJARYaMTIzX1NISUxM
T05HQ0FAdGVzdF9jYS5jb20xDzANBgNVBAoTBkNJVFJJWDCCASIwDQYJKoZIhvcN
AQEBBQADggEPADCCAQoCggEBANap3ume2hsAkYI9DUs+FDDkzLBl3iEvHyM8kNz+
6iT20LqTt9BrAVPR7IM2Kgll4iyQ2PFqR4ZXjBp494tnDIePLO8Laz/ho71kk77J
quUyGZHxxQo6rf3Nta2Su1w5CPYXh7bOX0ToRapTZSRLDAMtUudW+uchE1dNa7W4
FGPLVTZoS/IX4pWzCYLLBivS3cr4SQMkSRdbvYSzPCsI25fKRTohWVUPXPGWNG8b
RaCDkwkVeKVebTVKUciX1wqIRdf4TT7WQUT8X9FdF9Md4JaS+5DpzUGAfWY+BoEJ
VSBRMed3pxjnmhBitVGhChmL/2HhPRbYDC9D1pnJPNtZLD0CAwEAAaOCAS8wggEr
MBEGCWCGSAGG+EIBAQQEAwIGQDAdBgNVHQ4EFgQUNwS9AOEmTYzn9fHeyuHr/FAz
kQIwgbgGA1UdIwSBsDCBrYAU+ukfpa+LThj/77fqj/uYvFkjgd+hgYmkgYYwgYMx
FjAUBgNVBAMUDVNISUxMT05HQ0FfQ0ExCzAJBgNVBAYTAklOMQ8wDQYDVQQKEwZD
SVRSSVgxDDAKBgNVBAsTA0FORzELMAkGA1UECBMCS0ExMDAuBgkqhkiG9w0BCQEW
IVNISUxMT05HQ0FfQ0FAU0hJTExPTkdDQV9tYWlsLmNvbYIJAPvQkv2ifDUMMDwG
CCsGAQUFBwEBBDAwLjAsBggrBgEFBQcwAYYgaHR0cDovLzE3Mi4yOC4xMC4xL3Jl
c3BvbmRlcnBhdGgwDQYJKoZIhvcNAQELBQADggEBADwBg+nMQdvmrccE56Lg5UgV
joUQ66KGx0f9C2ODC8f500P1gXFvsBNv7E99Qfk2ssGj/lKZQlGEyriMcRo2Q2C/
NTzvFTq4RD+5lk42WWlHpq9kbkJzJnzSjnKhxfe3HbKVpy3NE8ZmiXVl1Geehzu0
4EZPqKZwfDysFXCDC+SNTxZQcA10Yfu7fzWN08FCEi+Wi9bHA/4ivmOrRVaJ45WO
hVlnk6lFaZqv6sFvaaPwmd+0tkOe0kXJLUZRhX/HTJawDbozT0JK83LGgsJR2O8p
j0bb1257CW9c/u0hnVvrpqQfnIWNN520W24hzxPfhuNt4ZaAo6CeQ7tUkICMkUs=
-----END CERTIFICATE-----
