Certificate:
    Data:
        Version: 3 (0x2)
        Serial Number: 11042563100198 (0xa0b0c0d0e26)
    Signature Algorithm: sha256WithRSAEncryption
        Issuer: CN=SHILLONGCA_CA, C=IN, O=CITRIX, OU=ANG, ST=KA/emailAddress=SHILLONGCA_CA@SHILLONGCA_mail.com
        Validity
            Not Before: Jul  8 04:40:12 2016 GMT
            Not After : Jul  6 04:40:12 2026 GMT
        Subject: ST=KA, C=IN, CN=124_SHILLONGCA_server/emailAddress=124_SHILLONGCA@test_ca.com, O=CITRIX
        Subject Public Key Info:
            Public Key Algorithm: rsaEncryption
                Public-Key: (2048 bit)
                Modulus:
                    00:d3:46:da:5a:e1:1d:9d:7f:3f:4f:86:9b:e5:1e:
                    c6:b7:86:1c:fa:e8:0f:e4:af:3c:99:a5:81:4d:06:
                    c2:b6:d4:82:d9:16:64:f7:c9:a8:f2:d5:a4:03:ea:
                    fb:f4:03:06:f7:b4:c4:d8:bd:5f:38:95:7e:f9:cf:
                    bf:ec:8d:c1:df:90:cf:11:8e:91:cb:5a:62:b5:fd:
                    ed:e8:10:01:e9:d1:fc:b0:e0:b2:a4:55:f0:ea:25:
                    f7:0a:7d:9f:62:73:4d:36:34:41:17:86:4a:d0:6f:
                    15:9a:88:87:92:44:04:8e:19:93:5b:da:d0:65:d8:
                    30:b0:e5:6e:06:20:6c:ac:23:ae:56:60:29:76:38:
                    18:f9:16:15:20:73:63:b5:5a:8d:af:68:7f:86:67:
                    a1:65:35:ca:b3:76:6f:75:f5:23:2f:41:8b:94:0d:
                    4e:32:38:a9:bc:6d:34:36:d5:0d:e8:25:30:d9:11:
                    aa:c1:b3:be:36:6f:12:89:1d:53:1c:1e:db:2a:68:
                    1b:0b:e2:16:3a:00:dc:d7:75:d6:14:23:3e:74:4c:
                    fc:a2:05:0e:50:d0:22:c0:4c:40:bb:f8:fd:52:3d:
                    d2:ee:ec:73:8d:c8:ae:5e:53:8d:a5:7d:f0:77:2d:
                    e0:be:6a:5f:b0:ef:1a:42:0c:4d:89:f8:f1:0a:1f:
                    9e:19
                Exponent: 65537 (0x10001)
        X509v3 extensions:
            Netscape Cert Type: 
                SSL Server
            X509v3 Subject Key Identifier: 
                45:5F:98:94:36:AF:EE:BD:1E:73:6D:0F:C2:24:22:45:9F:87:09:50
            X509v3 Authority Key Identifier: 
                keyid:FA:E9:1F:A5:AF:8B:4E:18:FF:EF:B7:EA:8F:FB:98:BC:59:23:81:DF
                DirName:/CN=SHILLONGCA_CA/C=IN/O=CITRIX/OU=ANG/ST=KA/emailAddress=SHILLONGCA_CA@SHILLONGCA_mail.com
                serial:FB:D0:92:FD:A2:7C:35:0C

            Authority Information Access: 
                OCSP - URI:http://172.28.10.1/responderpath

    Signature Algorithm: sha256WithRSAEncryption
         87:c8:7c:2c:76:e3:05:ed:47:40:d5:7a:23:9f:4b:db:1a:51:
         4a:75:8a:c2:e2:11:97:bf:e9:70:bd:7a:22:3c:46:95:c1:b9:
         9d:f8:c0:31:4f:c4:23:9d:5b:84:c3:4c:76:c2:a2:8b:b8:4d:
         e3:26:85:2e:e3:02:bd:6b:ee:a8:7f:dd:cb:72:17:cf:a3:6a:
         5a:65:fb:d4:ab:c6:e3:f6:f8:65:50:76:09:f2:41:10:b2:c1:
         25:6b:a3:8a:c8:bb:4a:b8:5e:29:57:7e:28:b6:46:ab:82:84:
         fe:b1:b7:26:14:aa:37:9b:b2:73:69:e1:d8:a4:3d:d4:06:fe:
         93:bd:fc:bc:1f:17:34:15:a8:e9:1d:cd:7f:75:52:9a:2f:23:
         8a:4a:ff:f9:53:6f:a8:7b:fc:8f:85:28:3c:66:5b:70:c9:25:
         9b:e1:db:3c:21:3e:31:0a:ed:40:a9:bb:67:41:f6:a6:3c:27:
         31:97:d6:5b:35:4b:15:6b:e1:1d:35:cd:60:03:36:86:77:f1:
         da:4f:49:8e:ac:9d:b8:26:69:af:41:b5:13:a2:d0:eb:4f:2f:
         09:37:e1:de:cd:a2:dd:cc:85:4b:84:da:92:1d:dc:b5:b3:84:
         e0:eb:31:16:bb:ce:ab:c7:f8:99:20:ac:84:b7:83:29:40:0c:
         75:df:71:db
-----BEGIN CERTIFICATE-----
MIIEqzCCA5OgAwIBAgIGCgsMDQ4mMA0GCSqGSIb3DQEBCwUAMIGDMRYwFAYDVQQD
FA1TSElMTE9OR0NBX0NBMQswCQYDVQQGEwJJTjEPMA0GA1UEChMGQ0lUUklYMQww
CgYDVQQLEwNBTkcxCzAJBgNVBAgTAktBMTAwLgYJKoZIhvcNAQkBFiFTSElMTE9O
R0NBX0NBQFNISUxMT05HQ0FfbWFpbC5jb20wHhcNMTYwNzA4MDQ0MDEyWhcNMjYw
NzA2MDQ0MDEyWjB2MQswCQYDVQQIEwJLQTELMAkGA1UEBhMCSU4xHjAcBgNVBAMU
FTEyNF9TSElMTE9OR0NBX3NlcnZlcjEpMCcGCSqGSIb3DQEJARYaMTI0X1NISUxM
T05HQ0FAdGVzdF9jYS5jb20xDzANBgNVBAoTBkNJVFJJWDCCASIwDQYJKoZIhvcN
AQEBBQADggEPADCCAQoCggEBANNG2lrhHZ1/P0+Gm+UexreGHProD+SvPJmlgU0G
wrbUgtkWZPfJqPLVpAPq+/QDBve0xNi9XziVfvnPv+yNwd+QzxGOkctaYrX97egQ
AenR/LDgsqRV8Ool9wp9n2JzTTY0QReGStBvFZqIh5JEBI4Zk1va0GXYMLDlbgYg
bKwjrlZgKXY4GPkWFSBzY7Vaja9of4ZnoWU1yrN2b3X1Iy9Bi5QNTjI4qbxtNDbV
DeglMNkRqsGzvjZvEokdUxwe2ypoGwviFjoA3Nd11hQjPnRM/KIFDlDQIsBMQLv4
/VI90u7sc43Irl5TjaV98Hct4L5qX7DvGkIMTYn48QofnhkCAwEAAaOCAS8wggEr
MBEGCWCGSAGG+EIBAQQEAwIGQDAdBgNVHQ4EFgQURV+YlDav7r0ec20PwiQiRZ+H
CVAwgbgGA1UdIwSBsDCBrYAU+ukfpa+LThj/77fqj/uYvFkjgd+hgYmkgYYwgYMx
FjAUBgNVBAMUDVNISUxMT05HQ0FfQ0ExCzAJBgNVBAYTAklOMQ8wDQYDVQQKEwZD
SVRSSVgxDDAKBgNVBAsTA0FORzELMAkGA1UECBMCS0ExMDAuBgkqhkiG9w0BCQEW
IVNISUxMT05HQ0FfQ0FAU0hJTExPTkdDQV9tYWlsLmNvbYIJAPvQkv2ifDUMMDwG
CCsGAQUFBwEBBDAwLjAsBggrBgEFBQcwAYYgaHR0cDovLzE3Mi4yOC4xMC4xL3Jl
c3BvbmRlcnBhdGgwDQYJKoZIhvcNAQELBQADggEBAIfIfCx24wXtR0DVeiOfS9sa
UUp1isLiEZe/6XC9eiI8RpXBuZ34wDFPxCOdW4TDTHbCoou4TeMmhS7jAr1r7qh/
3ctyF8+jalpl+9SrxuP2+GVQdgnyQRCywSVro4rIu0q4XilXfii2RquChP6xtyYU
qjebsnNp4dikPdQG/pO9/LwfFzQVqOkdzX91UpovI4pK//lTb6h7/I+FKDxmW3DJ
JZvh2zwhPjEK7UCpu2dB9qY8JzGX1ls1SxVr4R01zWADNoZ38dpPSY6snbgmaa9B
tROi0OtPLwk34d7Not3MhUuE2pId3LWzhODrMRa7zqvH+JkgrIS3gylADHXfcds=
-----END CERTIFICATE-----
