Certificate:
    Data:
        Version: 3 (0x2)
        Serial Number: 11042563100199 (0xa0b0c0d0e27)
    Signature Algorithm: sha256WithRSAEncryption
        Issuer: CN=SHILLONGCA_CA, C=IN, O=CITRIX, OU=ANG, ST=KA/emailAddress=SHILLONGCA_CA@SHILLONGCA_mail.com
        Validity
            Not Before: Jul  8 04:40:12 2016 GMT
            Not After : Jul  6 04:40:12 2026 GMT
        Subject: ST=KA, C=IN, CN=125_SHILLONGCA_server/emailAddress=125_SHILLONGCA@test_ca.com, O=CITRIX
        Subject Public Key Info:
            Public Key Algorithm: rsaEncryption
                Public-Key: (2048 bit)
                Modulus:
                    00:c9:2d:f4:5e:40:4c:1f:be:51:cb:b4:29:e2:33:
                    f6:4a:ad:7c:86:36:3c:94:77:0c:8f:41:fa:bc:79:
                    ce:25:38:2e:2b:0f:7c:49:0b:1e:b0:e0:37:62:ee:
                    85:95:8c:aa:dd:b8:d5:0f:7c:63:c4:73:56:db:cf:
                    d3:ac:63:dc:78:97:a3:60:b0:03:82:59:59:47:27:
                    2f:d0:de:b9:a0:91:1a:e4:56:6d:a0:b1:b9:18:35:
                    c3:cd:de:45:52:90:fb:6d:c6:a8:5a:81:9e:da:7c:
                    85:11:9d:2c:50:14:7c:54:d3:83:3b:5f:48:9a:06:
                    ab:ce:f5:34:48:dc:92:2a:73:32:15:c4:e0:e3:f9:
                    c6:47:0a:10:b3:8a:91:de:80:49:37:97:52:a6:64:
                    cd:3a:b9:49:9d:2f:8d:10:7c:63:ef:2f:9c:6f:e8:
                    e0:7d:d9:83:d4:b6:bb:e0:79:3a:a2:ad:3e:df:14:
                    18:a8:a1:7f:8f:88:c8:13:bd:be:4d:f6:42:e1:8e:
                    fa:32:d2:88:01:24:a8:8c:a3:34:80:29:74:16:d6:
                    f1:a9:59:ac:e2:a9:46:36:f9:ce:44:e7:be:90:dc:
                    49:64:05:a0:90:a9:d3:00:11:23:41:69:c6:8c:c3:
                    14:dc:5f:af:d3:f2:6e:3a:bf:43:e3:d2:48:0f:ce:
                    58:81
                Exponent: 65537 (0x10001)
        X509v3 extensions:
            Netscape Cert Type: 
                SSL Server
            X509v3 Subject Key Identifier: 
                F6:2F:F9:82:A5:1C:37:9C:26:24:9C:32:0B:B5:9A:4E:35:2E:AD:6E
            X509v3 Authority Key Identifier: 
                keyid:FA:E9:1F:A5:AF:8B:4E:18:FF:EF:B7:EA:8F:FB:98:BC:59:23:81:DF
                DirName:/CN=SHILLONGCA_CA/C=IN/O=CITRIX/OU=ANG/ST=KA/emailAddress=SHILLONGCA_CA@SHILLONGCA_mail.com
                serial:FB:D0:92:FD:A2:7C:35:0C

            Authority Information Access: 
                OCSP - URI:http://172.28.10.1/responderpath

    Signature Algorithm: sha256WithRSAEncryption
         75:66:ef:66:db:bf:33:17:2e:22:14:18:13:5c:c0:dc:7a:0e:
         f1:8b:ed:23:8a:74:9c:3b:e0:a2:db:54:c9:4a:00:44:a3:52:
         67:89:d0:87:ea:c7:15:0c:74:9a:d8:3f:b3:8a:b1:d9:d3:54:
         f4:97:5c:47:92:dd:13:07:8b:ef:cf:50:74:80:64:85:f5:b2:
         7a:fb:99:f6:fc:8f:0b:4e:e4:bb:f2:c1:40:01:69:cb:7a:1d:
         f7:0b:aa:5c:b8:84:d4:c6:ff:68:81:13:ab:fe:e3:7a:86:9b:
         26:22:6d:c2:7b:09:b3:5c:74:a4:28:b0:41:4d:49:40:18:55:
         19:21:84:3f:6b:03:32:a9:6e:85:98:84:5a:ca:b3:38:89:45:
         8e:b6:0c:f5:03:77:5d:be:aa:7a:88:b6:32:fd:b6:ba:3d:a3:
         9f:d1:90:ab:43:c3:a4:fe:df:bd:90:ca:4b:93:97:57:80:34:
         71:5e:8f:51:e0:4f:b5:07:8f:57:85:e1:71:e8:0e:7d:de:7f:
         e7:52:33:40:fa:7d:25:22:e4:72:74:2b:d2:01:e9:55:a5:98:
         ee:49:19:8c:d3:96:0e:f0:3e:94:3c:73:59:db:86:22:27:1c:
         24:69:ab:1b:a9:c2:84:a9:70:c1:02:12:db:f4:a3:65:50:35:
         11:10:2a:24
-----BEGIN CERTIFICATE-----
MIIEqzCCA5OgAwIBAgIGCgsMDQ4nMA0GCSqGSIb3DQEBCwUAMIGDMRYwFAYDVQQD
FA1TSElMTE9OR0NBX0NBMQswCQYDVQQGEwJJTjEPMA0GA1UEChMGQ0lUUklYMQww
CgYDVQQLEwNBTkcxCzAJBgNVBAgTAktBMTAwLgYJKoZIhvcNAQkBFiFTSElMTE9O
R0NBX0NBQFNISUxMT05HQ0FfbWFpbC5jb20wHhcNMTYwNzA4MDQ0MDEyWhcNMjYw
NzA2MDQ0MDEyWjB2MQswCQYDVQQIEwJLQTELMAkGA1UEBhMCSU4xHjAcBgNVBAMU
FTEyNV9TSElMTE9OR0NBX3NlcnZlcjEpMCcGCSqGSIb3DQEJARYaMTI1X1NISUxM
T05HQ0FAdGVzdF9jYS5jb20xDzANBgNVBAoTBkNJVFJJWDCCASIwDQYJKoZIhvcN
AQEBBQADggEPADCCAQoCggEBAMkt9F5ATB++Ucu0KeIz9kqtfIY2PJR3DI9B+rx5
ziU4LisPfEkLHrDgN2LuhZWMqt241Q98Y8RzVtvP06xj3HiXo2CwA4JZWUcnL9De
uaCRGuRWbaCxuRg1w83eRVKQ+23GqFqBntp8hRGdLFAUfFTTgztfSJoGq871NEjc
kipzMhXE4OP5xkcKELOKkd6ASTeXUqZkzTq5SZ0vjRB8Y+8vnG/o4H3Zg9S2u+B5
OqKtPt8UGKihf4+IyBO9vk32QuGO+jLSiAEkqIyjNIApdBbW8alZrOKpRjb5zkTn
vpDcSWQFoJCp0wARI0FpxozDFNxfr9Pybjq/Q+PSSA/OWIECAwEAAaOCAS8wggEr
MBEGCWCGSAGG+EIBAQQEAwIGQDAdBgNVHQ4EFgQU9i/5gqUcN5wmJJwyC7WaTjUu
rW4wgbgGA1UdIwSBsDCBrYAU+ukfpa+LThj/77fqj/uYvFkjgd+hgYmkgYYwgYMx
FjAUBgNVBAMUDVNISUxMT05HQ0FfQ0ExCzAJBgNVBAYTAklOMQ8wDQYDVQQKEwZD
SVRSSVgxDDAKBgNVBAsTA0FORzELMAkGA1UECBMCS0ExMDAuBgkqhkiG9w0BCQEW
IVNISUxMT05HQ0FfQ0FAU0hJTExPTkdDQV9tYWlsLmNvbYIJAPvQkv2ifDUMMDwG
CCsGAQUFBwEBBDAwLjAsBggrBgEFBQcwAYYgaHR0cDovLzE3Mi4yOC4xMC4xL3Jl
c3BvbmRlcnBhdGgwDQYJKoZIhvcNAQELBQADggEBAHVm72bbvzMXLiIUGBNcwNx6
DvGL7SOKdJw74KLbVMlKAESjUmeJ0IfqxxUMdJrYP7OKsdnTVPSXXEeS3RMHi+/P
UHSAZIX1snr7mfb8jwtO5LvywUABact6HfcLqly4hNTG/2iBE6v+43qGmyYibcJ7
CbNcdKQosEFNSUAYVRkhhD9rAzKpboWYhFrKsziJRY62DPUDd12+qnqItjL9tro9
o5/RkKtDw6T+372QykuTl1eANHFej1HgT7UHj1eF4XHoDn3ef+dSM0D6fSUi5HJ0
K9IB6VWlmO5JGYzTlg7wPpQ8c1nbhiInHCRpqxupwoSpcMECEtv0o2VQNREQKiQ=
-----END CERTIFICATE-----
