Certificate:
    Data:
        Version: 3 (0x2)
        Serial Number: 11042563100200 (0xa0b0c0d0e28)
    Signature Algorithm: sha256WithRSAEncryption
        Issuer: CN=SHILLONGCA_CA, C=IN, O=CITRIX, OU=ANG, ST=KA/emailAddress=SHILLONGCA_CA@SHILLONGCA_mail.com
        Validity
            Not Before: Jul  8 04:40:13 2016 GMT
            Not After : Jul  6 04:40:13 2026 GMT
        Subject: ST=KA, C=IN, CN=126_SHILLONGCA_server/emailAddress=126_SHILLONGCA@test_ca.com, O=CITRIX
        Subject Public Key Info:
            Public Key Algorithm: rsaEncryption
                Public-Key: (2048 bit)
                Modulus:
                    00:bb:9c:1a:14:44:b0:d7:53:57:6e:be:be:ab:bc:
                    1f:d6:f0:91:da:0c:09:7b:3b:bc:ad:89:60:ca:50:
                    a3:4f:f6:5b:51:ca:96:8e:b2:94:36:42:3c:89:18:
                    e1:74:a6:65:92:27:41:e2:8d:79:9e:e9:96:a3:32:
                    21:7d:9d:95:07:d2:a3:9b:72:12:af:af:57:ce:59:
                    c4:65:6f:f5:90:7d:9b:37:2e:68:94:4f:95:44:69:
                    3f:19:db:1a:d7:aa:59:e0:ec:b8:86:17:6d:69:06:
                    7c:3c:6c:ea:24:e9:93:8a:f0:fa:c1:73:3f:4f:78:
                    54:4d:c3:c5:dc:5c:82:af:e1:c5:d3:78:85:42:76:
                    ac:5f:ff:3f:e3:00:f2:20:39:35:67:78:e3:79:8b:
                    fa:f4:07:98:38:c0:99:88:fd:f1:0e:16:84:28:27:
                    6a:d6:9c:51:85:a8:5f:c5:6f:9e:66:bf:22:d0:df:
                    06:54:ff:bb:9a:5b:ee:6c:37:a5:2d:dc:d1:16:b3:
                    36:63:46:31:97:84:d0:b4:55:72:6f:04:d4:3f:2e:
                    a1:f2:3e:48:72:f4:06:1c:52:19:87:0d:79:98:e1:
                    30:1e:47:09:50:a6:0f:52:0b:fb:fb:d8:b1:c1:aa:
                    bc:b8:57:f6:b3:d2:b2:fc:1e:19:27:b9:1a:96:70:
                    2f:c7
                Exponent: 65537 (0x10001)
        X509v3 extensions:
            Netscape Cert Type: 
                SSL Server
            X509v3 Subject Key Identifier: 
                B9:2C:40:B1:FB:E8:55:FE:3E:8A:54:FC:AB:68:84:6C:77:C4:FC:84
            X509v3 Authority Key Identifier: 
                keyid:FA:E9:1F:A5:AF:8B:4E:18:FF:EF:B7:EA:8F:FB:98:BC:59:23:81:DF
                DirName:/CN=SHILLONGCA_CA/C=IN/O=CITRIX/OU=ANG/ST=KA/emailAddress=SHILLONGCA_CA@SHILLONGCA_mail.com
                serial:FB:D0:92:FD:A2:7C:35:0C

            Authority Information Access: 
                OCSP - URI:http://172.28.10.1/responderpath

    Signature Algorithm: sha256WithRSAEncryption
         41:d6:e0:73:1d:b2:9f:de:6c:52:de:93:26:29:d4:b0:e2:6f:
         a2:15:99:72:60:42:ef:28:e5:a7:28:b8:22:07:84:b7:80:bd:
         fe:eb:8b:5c:3e:5e:53:94:03:10:d3:69:e3:d3:13:97:26:2f:
         3a:d1:47:f8:e8:d9:a0:1d:02:ef:73:cf:a5:9b:e2:77:be:0d:
         10:2e:e8:57:5d:15:16:7b:fb:ad:af:0d:1d:ac:57:28:bd:73:
         06:e9:70:d8:22:29:d8:33:21:a9:a2:1d:91:26:3d:90:2c:15:
         11:ad:fd:3e:0d:e5:cd:d2:3f:cc:0a:54:84:7f:36:20:a5:d6:
         35:e4:bc:4e:5d:09:b5:8a:9e:74:2c:ad:ab:6e:7c:1e:19:a0:
         11:8c:7c:4b:7b:7b:4f:b3:88:9e:89:3a:40:fc:1b:3e:f3:7e:
         6b:6b:32:c7:d1:22:ed:b1:de:74:2c:19:20:86:6d:ff:02:cf:
         36:70:c5:0b:9d:02:26:f6:2d:07:65:be:11:4a:83:19:99:0a:
         70:5d:49:39:23:28:f4:11:00:1e:25:4f:47:4b:65:3c:6b:9d:
         3d:1b:3c:2b:8a:71:51:19:c0:6b:d0:48:b5:fb:ad:bd:70:18:
         3f:c0:52:41:f5:6a:95:8c:07:bf:67:62:17:8a:4d:98:0c:04:
         0f:14:35:e6
-----BEGIN CERTIFICATE-----
MIIEqzCCA5OgAwIBAgIGCgsMDQ4oMA0GCSqGSIb3DQEBCwUAMIGDMRYwFAYDVQQD
FA1TSElMTE9OR0NBX0NBMQswCQYDVQQGEwJJTjEPMA0GA1UEChMGQ0lUUklYMQww
CgYDVQQLEwNBTkcxCzAJBgNVBAgTAktBMTAwLgYJKoZIhvcNAQkBFiFTSElMTE9O
R0NBX0NBQFNISUxMT05HQ0FfbWFpbC5jb20wHhcNMTYwNzA4MDQ0MDEzWhcNMjYw
NzA2MDQ0MDEzWjB2MQswCQYDVQQIEwJLQTELMAkGA1UEBhMCSU4xHjAcBgNVBAMU
FTEyNl9TSElMTE9OR0NBX3NlcnZlcjEpMCcGCSqGSIb3DQEJARYaMTI2X1NISUxM
T05HQ0FAdGVzdF9jYS5jb20xDzANBgNVBAoTBkNJVFJJWDCCASIwDQYJKoZIhvcN
AQEBBQADggEPADCCAQoCggEBALucGhREsNdTV26+vqu8H9bwkdoMCXs7vK2JYMpQ
o0/2W1HKlo6ylDZCPIkY4XSmZZInQeKNeZ7plqMyIX2dlQfSo5tyEq+vV85ZxGVv
9ZB9mzcuaJRPlURpPxnbGteqWeDsuIYXbWkGfDxs6iTpk4rw+sFzP094VE3Dxdxc
gq/hxdN4hUJ2rF//P+MA8iA5NWd443mL+vQHmDjAmYj98Q4WhCgnatacUYWoX8Vv
nma/ItDfBlT/u5pb7mw3pS3c0RazNmNGMZeE0LRVcm8E1D8uofI+SHL0BhxSGYcN
eZjhMB5HCVCmD1IL+/vYscGqvLhX9rPSsvweGSe5GpZwL8cCAwEAAaOCAS8wggEr
MBEGCWCGSAGG+EIBAQQEAwIGQDAdBgNVHQ4EFgQUuSxAsfvoVf4+ilT8q2iEbHfE
/IQwgbgGA1UdIwSBsDCBrYAU+ukfpa+LThj/77fqj/uYvFkjgd+hgYmkgYYwgYMx
FjAUBgNVBAMUDVNISUxMT05HQ0FfQ0ExCzAJBgNVBAYTAklOMQ8wDQYDVQQKEwZD
SVRSSVgxDDAKBgNVBAsTA0FORzELMAkGA1UECBMCS0ExMDAuBgkqhkiG9w0BCQEW
IVNISUxMT05HQ0FfQ0FAU0hJTExPTkdDQV9tYWlsLmNvbYIJAPvQkv2ifDUMMDwG
CCsGAQUFBwEBBDAwLjAsBggrBgEFBQcwAYYgaHR0cDovLzE3Mi4yOC4xMC4xL3Jl
c3BvbmRlcnBhdGgwDQYJKoZIhvcNAQELBQADggEBAEHW4HMdsp/ebFLekyYp1LDi
b6IVmXJgQu8o5acouCIHhLeAvf7ri1w+XlOUAxDTaePTE5cmLzrRR/jo2aAdAu9z
z6Wb4ne+DRAu6FddFRZ7+62vDR2sVyi9cwbpcNgiKdgzIamiHZEmPZAsFRGt/T4N
5c3SP8wKVIR/NiCl1jXkvE5dCbWKnnQsratufB4ZoBGMfEt7e0+ziJ6JOkD8Gz7z
fmtrMsfRIu2x3nQsGSCGbf8CzzZwxQudAib2LQdlvhFKgxmZCnBdSTkjKPQRAB4l
T0dLZTxrnT0bPCuKcVEZwGvQSLX7rb1wGD/AUkH1apWMB79nYheKTZgMBA8UNeY=
-----END CERTIFICATE-----
