Certificate:
    Data:
        Version: 3 (0x2)
        Serial Number: 11042563100202 (0xa0b0c0d0e2a)
    Signature Algorithm: sha256WithRSAEncryption
        Issuer: CN=SHILLONGCA_CA, C=IN, O=CITRIX, OU=ANG, ST=KA/emailAddress=SHILLONGCA_CA@SHILLONGCA_mail.com
        Validity
            Not Before: Jul  8 04:40:13 2016 GMT
            Not After : Jul  6 04:40:13 2026 GMT
        Subject: ST=KA, C=IN, CN=128_SHILLONGCA_server/emailAddress=128_SHILLONGCA@test_ca.com, O=CITRIX
        Subject Public Key Info:
            Public Key Algorithm: rsaEncryption
                Public-Key: (2048 bit)
                Modulus:
                    00:bf:8c:79:eb:34:cf:61:5f:41:64:19:2b:9e:3c:
                    36:37:30:fd:23:bd:bb:f2:5f:f5:d9:54:ee:67:8d:
                    71:a9:a1:28:5e:de:25:9f:f9:8e:d0:fc:a9:ea:3f:
                    b6:fe:e3:a9:bb:c9:dc:1d:d2:36:c7:23:23:58:20:
                    22:1d:73:83:85:3e:cf:c5:ac:79:ca:48:16:8c:ae:
                    55:4b:f5:0c:15:68:8d:18:5e:8e:16:40:ee:b4:f0:
                    6e:cf:08:27:b7:f4:df:97:8e:7f:46:0b:63:6f:75:
                    d3:a2:12:a3:a5:85:40:6b:9b:f6:38:8c:3a:7b:ae:
                    7c:66:f5:4e:8b:61:71:d0:1f:5e:c6:65:14:d5:96:
                    c6:63:81:94:1c:c3:d2:d9:ee:35:38:b1:b8:a6:b8:
                    27:eb:33:f2:78:2d:b6:a7:d9:55:dc:4a:ea:f1:37:
                    af:77:dd:66:60:42:05:50:2e:c4:86:17:3d:17:92:
                    5f:8a:14:25:3e:3b:6a:4f:07:8a:55:51:c8:b7:ae:
                    c4:3a:52:24:3c:e0:3b:a2:72:fb:3f:6e:25:50:8d:
                    23:75:cc:9e:f0:3f:45:77:ea:00:be:a2:0e:99:df:
                    a1:6d:e2:d8:5a:7f:7a:6b:b9:fe:28:3d:3c:d8:2d:
                    a5:c0:71:70:08:7e:d8:2f:ac:6f:17:4d:30:f9:2c:
                    01:8d
                Exponent: 65537 (0x10001)
        X509v3 extensions:
            Netscape Cert Type: 
                SSL Server
            X509v3 Subject Key Identifier: 
                53:65:65:50:D2:B1:97:94:FD:CA:05:A1:F4:41:2B:5E:35:3A:CD:75
            X509v3 Authority Key Identifier: 
                keyid:FA:E9:1F:A5:AF:8B:4E:18:FF:EF:B7:EA:8F:FB:98:BC:59:23:81:DF
                DirName:/CN=SHILLONGCA_CA/C=IN/O=CITRIX/OU=ANG/ST=KA/emailAddress=SHILLONGCA_CA@SHILLONGCA_mail.com
                serial:FB:D0:92:FD:A2:7C:35:0C

            Authority Information Access: 
                OCSP - URI:http://172.28.10.1/responderpath

    Signature Algorithm: sha256WithRSAEncryption
         8b:11:78:5a:7d:be:83:2a:bb:5b:b4:ed:3b:db:ad:ed:c4:08:
         de:f0:7e:b9:6f:1a:62:9a:d1:73:66:b9:26:73:7d:63:07:18:
         2f:85:37:ce:d8:ae:ce:87:75:27:83:b5:76:79:e4:22:e7:0e:
         ae:ef:05:b2:3f:35:0c:70:e1:97:cc:fb:c6:ab:71:31:67:1f:
         69:94:43:96:3c:ec:2e:45:8c:4c:ac:c1:7d:73:f0:22:48:2c:
         94:78:b8:41:1e:30:de:a7:53:a2:e1:56:b7:5b:7c:62:c8:fb:
         5f:d9:a0:77:7d:90:d0:88:e8:14:40:c9:4c:2d:68:40:ad:2c:
         bf:52:27:0b:d0:c8:de:ca:39:1f:5a:01:bb:8b:21:31:f6:ef:
         d4:2e:c2:d0:c0:a3:ad:3c:a1:23:6e:f0:f2:ea:4d:a7:2b:35:
         85:d7:e5:30:d2:c3:7c:fc:be:c1:7b:73:61:8f:45:74:7a:9f:
         87:d1:1b:35:29:73:10:73:be:35:53:a5:27:6b:bb:2d:bf:25:
         aa:0b:f2:01:6c:90:ca:f8:77:6c:88:e7:c9:66:09:09:c1:ad:
         0c:11:35:50:bb:58:9c:a8:73:b5:69:0e:de:83:a1:30:94:ff:
         1e:50:ad:1f:38:0f:d1:95:2a:44:19:5b:e5:04:cc:6e:8f:af:
         52:52:a7:01
-----BEGIN CERTIFICATE-----
MIIEqzCCA5OgAwIBAgIGCgsMDQ4qMA0GCSqGSIb3DQEBCwUAMIGDMRYwFAYDVQQD
FA1TSElMTE9OR0NBX0NBMQswCQYDVQQGEwJJTjEPMA0GA1UEChMGQ0lUUklYMQww
CgYDVQQLEwNBTkcxCzAJBgNVBAgTAktBMTAwLgYJKoZIhvcNAQkBFiFTSElMTE9O
R0NBX0NBQFNISUxMT05HQ0FfbWFpbC5jb20wHhcNMTYwNzA4MDQ0MDEzWhcNMjYw
NzA2MDQ0MDEzWjB2MQswCQYDVQQIEwJLQTELMAkGA1UEBhMCSU4xHjAcBgNVBAMU
FTEyOF9TSElMTE9OR0NBX3NlcnZlcjEpMCcGCSqGSIb3DQEJARYaMTI4X1NISUxM
T05HQ0FAdGVzdF9jYS5jb20xDzANBgNVBAoTBkNJVFJJWDCCASIwDQYJKoZIhvcN
AQEBBQADggEPADCCAQoCggEBAL+Mees0z2FfQWQZK548Njcw/SO9u/Jf9dlU7meN
camhKF7eJZ/5jtD8qeo/tv7jqbvJ3B3SNscjI1ggIh1zg4U+z8WsecpIFoyuVUv1
DBVojRhejhZA7rTwbs8IJ7f035eOf0YLY29106ISo6WFQGub9jiMOnuufGb1Toth
cdAfXsZlFNWWxmOBlBzD0tnuNTixuKa4J+sz8ngttqfZVdxK6vE3r3fdZmBCBVAu
xIYXPReSX4oUJT47ak8HilVRyLeuxDpSJDzgO6Jy+z9uJVCNI3XMnvA/RXfqAL6i
DpnfoW3i2Fp/emu5/ig9PNgtpcBxcAh+2C+sbxdNMPksAY0CAwEAAaOCAS8wggEr
MBEGCWCGSAGG+EIBAQQEAwIGQDAdBgNVHQ4EFgQUU2VlUNKxl5T9ygWh9EErXjU6
zXUwgbgGA1UdIwSBsDCBrYAU+ukfpa+LThj/77fqj/uYvFkjgd+hgYmkgYYwgYMx
FjAUBgNVBAMUDVNISUxMT05HQ0FfQ0ExCzAJBgNVBAYTAklOMQ8wDQYDVQQKEwZD
SVRSSVgxDDAKBgNVBAsTA0FORzELMAkGA1UECBMCS0ExMDAuBgkqhkiG9w0BCQEW
IVNISUxMT05HQ0FfQ0FAU0hJTExPTkdDQV9tYWlsLmNvbYIJAPvQkv2ifDUMMDwG
CCsGAQUFBwEBBDAwLjAsBggrBgEFBQcwAYYgaHR0cDovLzE3Mi4yOC4xMC4xL3Jl
c3BvbmRlcnBhdGgwDQYJKoZIhvcNAQELBQADggEBAIsReFp9voMqu1u07Tvbre3E
CN7wfrlvGmKa0XNmuSZzfWMHGC+FN87Yrs6HdSeDtXZ55CLnDq7vBbI/NQxw4ZfM
+8arcTFnH2mUQ5Y87C5FjEyswX1z8CJILJR4uEEeMN6nU6LhVrdbfGLI+1/ZoHd9
kNCI6BRAyUwtaECtLL9SJwvQyN7KOR9aAbuLITH279QuwtDAo608oSNu8PLqTacr
NYXX5TDSw3z8vsF7c2GPRXR6n4fRGzUpcxBzvjVTpSdruy2/JaoL8gFskMr4d2yI
58lmCQnBrQwRNVC7WJyoc7VpDt6DoTCU/x5QrR84D9GVKkQZW+UEzG6Pr1JSpwE=
-----END CERTIFICATE-----
