Certificate:
    Data:
        Version: 3 (0x2)
        Serial Number: 11042563100205 (0xa0b0c0d0e2d)
    Signature Algorithm: sha256WithRSAEncryption
        Issuer: CN=SHILLONGCA_CA, C=IN, O=CITRIX, OU=ANG, ST=KA/emailAddress=SHILLONGCA_CA@SHILLONGCA_mail.com
        Validity
            Not Before: Jul  8 04:40:14 2016 GMT
            Not After : Jul  6 04:40:14 2026 GMT
        Subject: ST=KA, C=IN, CN=131_SHILLONGCA_server/emailAddress=131_SHILLONGCA@test_ca.com, O=CITRIX
        Subject Public Key Info:
            Public Key Algorithm: rsaEncryption
                Public-Key: (2048 bit)
                Modulus:
                    00:d4:c3:89:aa:bd:bb:ff:25:75:43:2e:f5:8f:55:
                    cd:ad:76:ac:90:27:a4:54:97:11:bc:42:8c:1f:7c:
                    5e:99:e6:b6:01:ba:aa:26:b0:1a:ac:c5:23:91:97:
                    6e:94:36:4a:af:12:2f:60:ae:2f:e3:36:9c:c3:6b:
                    11:c1:7a:9a:d7:92:c1:66:16:68:a2:69:b1:4d:ed:
                    d6:c9:21:65:84:0f:57:c8:00:9e:98:78:21:a6:cb:
                    b5:c4:8e:a4:f4:47:61:56:7d:81:d9:0f:ff:ea:97:
                    10:36:49:3c:3a:27:53:2d:b8:32:c0:e0:4f:53:96:
                    ca:55:9f:9c:a4:d5:d5:8b:2c:af:88:36:5c:5a:06:
                    89:e7:81:a7:a6:f3:17:7e:7a:f1:f5:d0:4f:14:48:
                    cf:63:9e:f6:c1:23:b5:43:33:95:d7:6a:08:9d:09:
                    6c:61:c3:72:08:fe:d5:33:41:40:35:d6:05:e6:48:
                    94:5b:3c:9d:40:7f:f9:cf:b1:5d:9a:0a:68:22:d7:
                    22:63:fe:4d:fb:3b:f7:d0:43:7e:f7:cb:70:31:10:
                    25:38:2d:a4:e7:c2:63:32:17:da:03:c4:8d:52:06:
                    3f:d0:c4:83:c7:7f:10:4a:a6:4d:57:8e:b9:e6:72:
                    6b:ac:12:99:b8:a4:91:4f:07:81:ee:d7:79:01:46:
                    ac:7d
                Exponent: 65537 (0x10001)
        X509v3 extensions:
            Netscape Cert Type: 
                SSL Server
            X509v3 Subject Key Identifier: 
                01:58:CD:1F:5A:C5:67:D1:51:12:DD:36:4D:84:45:6D:7D:F2:9B:81
            X509v3 Authority Key Identifier: 
                keyid:FA:E9:1F:A5:AF:8B:4E:18:FF:EF:B7:EA:8F:FB:98:BC:59:23:81:DF
                DirName:/CN=SHILLONGCA_CA/C=IN/O=CITRIX/OU=ANG/ST=KA/emailAddress=SHILLONGCA_CA@SHILLONGCA_mail.com
                serial:FB:D0:92:FD:A2:7C:35:0C

            Authority Information Access: 
                OCSP - URI:http://172.28.20.1/responderpath

    Signature Algorithm: sha256WithRSAEncryption
         ac:82:f6:3f:86:ca:62:db:30:6f:23:29:3c:f8:4b:20:79:05:
         b5:95:95:91:7b:f3:f8:6f:16:5a:cb:14:79:ae:df:92:26:6a:
         98:9e:20:c0:ea:24:27:6e:35:32:1d:d0:0b:ee:3a:6e:9c:a2:
         56:2c:28:e0:19:19:c6:10:2b:08:8a:db:fd:ae:15:91:a8:81:
         15:1e:47:58:eb:e7:86:f4:fb:63:d0:c6:09:7f:41:a1:00:52:
         71:1d:23:38:d0:c3:94:8c:e5:d2:cf:c8:89:4d:c0:ed:e8:3e:
         d8:b6:d1:04:a3:19:0b:7b:82:9f:87:a1:0f:89:46:57:0e:4d:
         bc:11:4d:66:24:74:4e:fa:9a:e6:dc:ce:73:38:ec:22:72:b1:
         3e:75:14:8f:a2:c0:c9:4b:22:8e:d8:5e:17:ed:a8:00:e4:b3:
         d4:dd:96:8e:30:e8:09:eb:15:e2:57:6c:72:df:ad:e3:d0:89:
         b9:0e:a6:18:b6:62:65:db:c9:ca:5d:de:1f:13:8a:8c:ff:38:
         a7:e3:79:83:8a:a6:49:28:10:e9:6b:ea:40:91:cd:8f:64:19:
         78:03:ab:a8:2e:c0:cb:b7:31:80:37:21:38:28:e2:25:83:f6:
         f2:e2:0c:ee:99:bd:31:c6:22:2e:4e:b3:d8:fd:23:d2:12:d3:
         e5:c4:24:4c
-----BEGIN CERTIFICATE-----
MIIEqzCCA5OgAwIBAgIGCgsMDQ4tMA0GCSqGSIb3DQEBCwUAMIGDMRYwFAYDVQQD
FA1TSElMTE9OR0NBX0NBMQswCQYDVQQGEwJJTjEPMA0GA1UEChMGQ0lUUklYMQww
CgYDVQQLEwNBTkcxCzAJBgNVBAgTAktBMTAwLgYJKoZIhvcNAQkBFiFTSElMTE9O
R0NBX0NBQFNISUxMT05HQ0FfbWFpbC5jb20wHhcNMTYwNzA4MDQ0MDE0WhcNMjYw
NzA2MDQ0MDE0WjB2MQswCQYDVQQIEwJLQTELMAkGA1UEBhMCSU4xHjAcBgNVBAMU
FTEzMV9TSElMTE9OR0NBX3NlcnZlcjEpMCcGCSqGSIb3DQEJARYaMTMxX1NISUxM
T05HQ0FAdGVzdF9jYS5jb20xDzANBgNVBAoTBkNJVFJJWDCCASIwDQYJKoZIhvcN
AQEBBQADggEPADCCAQoCggEBANTDiaq9u/8ldUMu9Y9Vza12rJAnpFSXEbxCjB98
XpnmtgG6qiawGqzFI5GXbpQ2Sq8SL2CuL+M2nMNrEcF6mteSwWYWaKJpsU3t1skh
ZYQPV8gAnph4IabLtcSOpPRHYVZ9gdkP/+qXEDZJPDonUy24MsDgT1OWylWfnKTV
1Yssr4g2XFoGieeBp6bzF3568fXQTxRIz2Oe9sEjtUMzlddqCJ0JbGHDcgj+1TNB
QDXWBeZIlFs8nUB/+c+xXZoKaCLXImP+Tfs799BDfvfLcDEQJTgtpOfCYzIX2gPE
jVIGP9DEg8d/EEqmTVeOueZya6wSmbikkU8Hge7XeQFGrH0CAwEAAaOCAS8wggEr
MBEGCWCGSAGG+EIBAQQEAwIGQDAdBgNVHQ4EFgQUAVjNH1rFZ9FREt02TYRFbX3y
m4EwgbgGA1UdIwSBsDCBrYAU+ukfpa+LThj/77fqj/uYvFkjgd+hgYmkgYYwgYMx
FjAUBgNVBAMUDVNISUxMT05HQ0FfQ0ExCzAJBgNVBAYTAklOMQ8wDQYDVQQKEwZD
SVRSSVgxDDAKBgNVBAsTA0FORzELMAkGA1UECBMCS0ExMDAuBgkqhkiG9w0BCQEW
IVNISUxMT05HQ0FfQ0FAU0hJTExPTkdDQV9tYWlsLmNvbYIJAPvQkv2ifDUMMDwG
CCsGAQUFBwEBBDAwLjAsBggrBgEFBQcwAYYgaHR0cDovLzE3Mi4yOC4yMC4xL3Jl
c3BvbmRlcnBhdGgwDQYJKoZIhvcNAQELBQADggEBAKyC9j+GymLbMG8jKTz4SyB5
BbWVlZF78/hvFlrLFHmu35ImapieIMDqJCduNTId0AvuOm6colYsKOAZGcYQKwiK
2/2uFZGogRUeR1jr54b0+2PQxgl/QaEAUnEdIzjQw5SM5dLPyIlNwO3oPti20QSj
GQt7gp+HoQ+JRlcOTbwRTWYkdE76mubcznM47CJysT51FI+iwMlLIo7YXhftqADk
s9Tdlo4w6AnrFeJXbHLfrePQibkOphi2YmXbycpd3h8Tioz/OKfjeYOKpkkoEOlr
6kCRzY9kGXgDq6guwMu3MYA3ITgo4iWD9vLiDO6ZvTHGIi5Os9j9I9IS0+XEJEw=
-----END CERTIFICATE-----
