Certificate:
    Data:
        Version: 3 (0x2)
        Serial Number: 11042563100206 (0xa0b0c0d0e2e)
    Signature Algorithm: sha256WithRSAEncryption
        Issuer: CN=SHILLONGCA_CA, C=IN, O=CITRIX, OU=ANG, ST=KA/emailAddress=SHILLONGCA_CA@SHILLONGCA_mail.com
        Validity
            Not Before: Jul  8 04:40:14 2016 GMT
            Not After : Jul  6 04:40:14 2026 GMT
        Subject: ST=KA, C=IN, CN=132_SHILLONGCA_server/emailAddress=132_SHILLONGCA@test_ca.com, O=CITRIX
        Subject Public Key Info:
            Public Key Algorithm: rsaEncryption
                Public-Key: (2048 bit)
                Modulus:
                    00:c0:66:bb:13:63:2e:cd:a8:86:d0:b6:96:53:0e:
                    82:f8:d2:99:e1:60:21:90:5c:b4:a1:5b:8e:c4:59:
                    11:a2:42:a3:03:1f:7f:e4:78:e4:31:1a:12:3f:8d:
                    ee:f7:07:83:40:fb:67:0d:b0:06:e9:f0:e5:a6:2d:
                    47:8d:e8:de:5f:23:20:18:21:12:01:41:98:84:85:
                    3a:49:2d:a1:a1:56:c5:c1:1a:d2:0b:99:4a:3d:a0:
                    5d:eb:5f:3a:be:83:7e:e9:37:72:e1:8e:b7:f9:fb:
                    86:44:ee:d9:b1:01:af:e7:ec:46:b9:c2:b1:de:45:
                    f6:4a:d4:f1:5c:6e:5d:60:52:8a:2b:c9:5d:27:b8:
                    c5:5c:64:8b:13:3f:22:da:03:ad:dc:d6:dd:ae:97:
                    9b:d9:33:51:06:f4:99:02:a6:c0:c9:53:61:d3:82:
                    6f:d8:02:38:78:8a:a0:2d:76:19:23:87:fa:13:5d:
                    d1:45:95:77:3e:be:91:9f:83:5b:99:27:27:a7:9d:
                    74:5a:81:99:58:70:2e:64:56:93:f9:b4:9b:11:1a:
                    e9:12:5c:b4:0b:15:7d:4b:32:67:9f:b3:59:fd:11:
                    5f:5d:46:f6:65:4f:52:1d:29:3c:e3:27:20:1d:6e:
                    f8:fb:72:df:c3:43:27:63:10:27:cb:56:5e:9d:41:
                    d8:17
                Exponent: 65537 (0x10001)
        X509v3 extensions:
            Netscape Cert Type: 
                SSL Server
            X509v3 Subject Key Identifier: 
                D6:61:6D:77:45:4F:72:74:05:DB:F7:3D:CB:88:CF:BC:41:E2:7E:44
            X509v3 Authority Key Identifier: 
                keyid:FA:E9:1F:A5:AF:8B:4E:18:FF:EF:B7:EA:8F:FB:98:BC:59:23:81:DF
                DirName:/CN=SHILLONGCA_CA/C=IN/O=CITRIX/OU=ANG/ST=KA/emailAddress=SHILLONGCA_CA@SHILLONGCA_mail.com
                serial:FB:D0:92:FD:A2:7C:35:0C

            Authority Information Access: 
                OCSP - URI:http://172.28.20.1/responderpath

    Signature Algorithm: sha256WithRSAEncryption
         99:24:d9:e9:03:10:8b:80:fb:6b:1f:d7:2e:ee:cc:50:16:b2:
         45:37:c8:1a:d3:5e:f1:03:6e:d7:94:61:5b:7d:09:71:a1:06:
         08:13:c5:fc:a6:30:57:bf:bf:2b:46:4c:2b:48:74:f2:17:b1:
         62:8f:cd:79:3c:ce:e4:be:89:95:3f:d2:c0:b5:87:0d:73:dd:
         9b:e9:e7:ba:17:dd:1b:f5:a0:34:a0:14:2b:e3:1e:8e:3a:d3:
         f4:bf:9a:a5:6b:10:c3:02:ad:8d:f2:c1:94:0b:5c:53:25:a8:
         72:a1:15:11:10:5f:52:e0:07:f0:ae:d1:75:3e:6d:14:63:8e:
         29:f1:0d:a6:df:1c:78:13:e6:0a:88:14:a2:40:be:cd:92:ed:
         0d:c5:9b:6a:09:30:ce:64:79:80:bc:67:ef:2e:ec:55:72:d1:
         09:81:97:08:c5:13:fb:e6:c6:f2:e7:cb:27:25:6d:0c:37:17:
         7f:40:4f:72:75:b7:4e:08:a9:db:4a:7f:18:95:6e:66:3b:dc:
         23:2c:b0:bd:74:ef:a7:da:63:d4:99:e4:1b:8b:e3:6a:47:e1:
         68:c4:69:f9:2f:49:ac:2d:11:85:7b:d9:c8:00:a8:15:a0:64:
         c7:af:63:c5:fb:09:5d:12:18:0d:17:a9:cc:a2:8e:94:01:8b:
         a4:2e:ac:30
-----BEGIN CERTIFICATE-----
MIIEqzCCA5OgAwIBAgIGCgsMDQ4uMA0GCSqGSIb3DQEBCwUAMIGDMRYwFAYDVQQD
FA1TSElMTE9OR0NBX0NBMQswCQYDVQQGEwJJTjEPMA0GA1UEChMGQ0lUUklYMQww
CgYDVQQLEwNBTkcxCzAJBgNVBAgTAktBMTAwLgYJKoZIhvcNAQkBFiFTSElMTE9O
R0NBX0NBQFNISUxMT05HQ0FfbWFpbC5jb20wHhcNMTYwNzA4MDQ0MDE0WhcNMjYw
NzA2MDQ0MDE0WjB2MQswCQYDVQQIEwJLQTELMAkGA1UEBhMCSU4xHjAcBgNVBAMU
FTEzMl9TSElMTE9OR0NBX3NlcnZlcjEpMCcGCSqGSIb3DQEJARYaMTMyX1NISUxM
T05HQ0FAdGVzdF9jYS5jb20xDzANBgNVBAoTBkNJVFJJWDCCASIwDQYJKoZIhvcN
AQEBBQADggEPADCCAQoCggEBAMBmuxNjLs2ohtC2llMOgvjSmeFgIZBctKFbjsRZ
EaJCowMff+R45DEaEj+N7vcHg0D7Zw2wBunw5aYtR43o3l8jIBghEgFBmISFOkkt
oaFWxcEa0guZSj2gXetfOr6Dfuk3cuGOt/n7hkTu2bEBr+fsRrnCsd5F9krU8Vxu
XWBSiivJXSe4xVxkixM/ItoDrdzW3a6Xm9kzUQb0mQKmwMlTYdOCb9gCOHiKoC12
GSOH+hNd0UWVdz6+kZ+DW5knJ6eddFqBmVhwLmRWk/m0mxEa6RJctAsVfUsyZ5+z
Wf0RX11G9mVPUh0pPOMnIB1u+Pty38NDJ2MQJ8tWXp1B2BcCAwEAAaOCAS8wggEr
MBEGCWCGSAGG+EIBAQQEAwIGQDAdBgNVHQ4EFgQU1mFtd0VPcnQF2/c9y4jPvEHi
fkQwgbgGA1UdIwSBsDCBrYAU+ukfpa+LThj/77fqj/uYvFkjgd+hgYmkgYYwgYMx
FjAUBgNVBAMUDVNISUxMT05HQ0FfQ0ExCzAJBgNVBAYTAklOMQ8wDQYDVQQKEwZD
SVRSSVgxDDAKBgNVBAsTA0FORzELMAkGA1UECBMCS0ExMDAuBgkqhkiG9w0BCQEW
IVNISUxMT05HQ0FfQ0FAU0hJTExPTkdDQV9tYWlsLmNvbYIJAPvQkv2ifDUMMDwG
CCsGAQUFBwEBBDAwLjAsBggrBgEFBQcwAYYgaHR0cDovLzE3Mi4yOC4yMC4xL3Jl
c3BvbmRlcnBhdGgwDQYJKoZIhvcNAQELBQADggEBAJkk2ekDEIuA+2sf1y7uzFAW
skU3yBrTXvEDbteUYVt9CXGhBggTxfymMFe/vytGTCtIdPIXsWKPzXk8zuS+iZU/
0sC1hw1z3Zvp57oX3Rv1oDSgFCvjHo460/S/mqVrEMMCrY3ywZQLXFMlqHKhFREQ
X1LgB/Cu0XU+bRRjjinxDabfHHgT5gqIFKJAvs2S7Q3Fm2oJMM5keYC8Z+8u7FVy
0QmBlwjFE/vmxvLnyyclbQw3F39AT3J1t04IqdtKfxiVbmY73CMssL1076faY9SZ
5BuL42pH4WjEafkvSawtEYV72cgAqBWgZMevY8X7CV0SGA0XqcyijpQBi6QurDA=
-----END CERTIFICATE-----
