Certificate:
    Data:
        Version: 3 (0x2)
        Serial Number: 11042563100212 (0xa0b0c0d0e34)
    Signature Algorithm: sha256WithRSAEncryption
        Issuer: CN=SHILLONGCA_CA, C=IN, O=CITRIX, OU=ANG, ST=KA/emailAddress=SHILLONGCA_CA@SHILLONGCA_mail.com
        Validity
            Not Before: Jul  8 04:40:16 2016 GMT
            Not After : Jul  6 04:40:16 2026 GMT
        Subject: ST=KA, C=IN, CN=138_SHILLONGCA_server/emailAddress=138_SHILLONGCA@test_ca.com, O=CITRIX
        Subject Public Key Info:
            Public Key Algorithm: rsaEncryption
                Public-Key: (2048 bit)
                Modulus:
                    00:c8:d6:32:3d:aa:3a:b6:e8:9b:aa:29:ca:16:c3:
                    3f:98:37:d2:24:5e:b0:ec:3c:a5:62:3d:7c:67:45:
                    09:ab:53:d5:ef:e6:fd:ac:09:72:cc:c1:7a:65:a1:
                    a5:c1:7a:aa:90:f0:6f:6c:58:ac:78:2d:bd:7d:0d:
                    c6:f0:b3:4e:27:ff:56:2f:9a:6a:f9:ad:a0:e4:3b:
                    55:cd:84:eb:8c:2b:99:d9:6c:35:09:96:c5:61:ad:
                    fb:dd:a2:80:63:00:73:70:e5:6f:93:f0:a8:19:72:
                    51:34:5b:45:65:1c:6d:00:b1:a2:c9:e8:a4:cf:9e:
                    a5:bf:86:e8:d3:60:35:9a:ea:ed:42:2e:a6:eb:9d:
                    cc:7f:d1:4d:eb:7f:7b:c1:d5:07:cb:5a:2e:52:85:
                    cf:62:9b:19:35:db:df:a2:55:82:1b:ff:72:00:d0:
                    8b:a2:a1:52:cb:f0:13:28:53:d3:4e:25:86:3e:88:
                    db:e4:ed:cc:b7:53:3b:f4:03:e7:b7:c4:e1:15:39:
                    44:a0:05:ad:8c:5c:ba:eb:cd:65:22:40:91:27:62:
                    63:05:03:2e:b8:f5:b5:b3:e2:c2:97:8c:0e:87:f9:
                    00:33:4f:3b:ae:26:9b:64:09:2c:c7:9d:cb:14:dc:
                    e6:c4:81:ad:e8:a5:c5:3a:00:0d:5e:6c:46:a9:67:
                    f4:a7
                Exponent: 65537 (0x10001)
        X509v3 extensions:
            Netscape Cert Type: 
                SSL Server
            X509v3 Subject Key Identifier: 
                25:10:FD:E5:E5:B9:60:A5:6A:B3:5D:26:E4:F7:56:0A:0B:8A:14:12
            X509v3 Authority Key Identifier: 
                keyid:FA:E9:1F:A5:AF:8B:4E:18:FF:EF:B7:EA:8F:FB:98:BC:59:23:81:DF
                DirName:/CN=SHILLONGCA_CA/C=IN/O=CITRIX/OU=ANG/ST=KA/emailAddress=SHILLONGCA_CA@SHILLONGCA_mail.com
                serial:FB:D0:92:FD:A2:7C:35:0C

            Authority Information Access: 
                OCSP - URI:http://172.28.20.1/responderpath

    Signature Algorithm: sha256WithRSAEncryption
         56:67:f0:ea:f9:7e:7e:cd:58:ca:1b:8d:e0:ba:14:19:f8:70:
         b4:4d:62:66:03:dc:65:c6:7b:61:d9:8f:a7:88:3c:b2:f5:50:
         5a:83:8a:a2:32:86:c2:98:33:6b:d4:d3:03:e8:b8:57:dd:89:
         ba:b8:5d:40:47:1f:1e:4e:31:43:ee:e6:48:39:18:13:6a:a3:
         6d:b5:85:cd:2e:bb:2c:f8:37:04:2c:aa:fe:e5:a6:1b:e5:31:
         a0:62:e8:66:2c:65:f6:a8:7f:cb:1b:09:2f:ad:54:cb:d0:a6:
         dc:ab:38:8b:64:8b:e8:eb:de:3a:96:43:c3:d9:db:20:32:90:
         0d:cc:ad:ec:6c:20:12:e6:30:04:fc:61:58:72:38:88:d6:b4:
         aa:35:6b:0a:d1:33:9b:57:b0:3c:89:95:0e:ee:a0:73:4f:ea:
         17:e5:88:95:b9:db:9b:b0:16:10:41:8a:34:39:60:4e:09:1e:
         72:a2:69:a3:59:84:16:d2:1c:de:ad:4f:d3:20:a6:5c:63:2a:
         fd:15:0e:34:d5:8c:46:5a:7f:f1:62:0d:9a:5f:11:0a:a0:dc:
         54:6e:65:d5:d7:22:63:f1:07:f2:41:7d:5a:1c:58:2b:9d:50:
         cd:ef:a5:f6:4c:7d:3c:43:d6:68:ab:6c:0f:f0:e0:f9:b9:f5:
         06:49:4d:87
-----BEGIN CERTIFICATE-----
MIIEqzCCA5OgAwIBAgIGCgsMDQ40MA0GCSqGSIb3DQEBCwUAMIGDMRYwFAYDVQQD
FA1TSElMTE9OR0NBX0NBMQswCQYDVQQGEwJJTjEPMA0GA1UEChMGQ0lUUklYMQww
CgYDVQQLEwNBTkcxCzAJBgNVBAgTAktBMTAwLgYJKoZIhvcNAQkBFiFTSElMTE9O
R0NBX0NBQFNISUxMT05HQ0FfbWFpbC5jb20wHhcNMTYwNzA4MDQ0MDE2WhcNMjYw
NzA2MDQ0MDE2WjB2MQswCQYDVQQIEwJLQTELMAkGA1UEBhMCSU4xHjAcBgNVBAMU
FTEzOF9TSElMTE9OR0NBX3NlcnZlcjEpMCcGCSqGSIb3DQEJARYaMTM4X1NISUxM
T05HQ0FAdGVzdF9jYS5jb20xDzANBgNVBAoTBkNJVFJJWDCCASIwDQYJKoZIhvcN
AQEBBQADggEPADCCAQoCggEBAMjWMj2qOrbom6opyhbDP5g30iResOw8pWI9fGdF
CatT1e/m/awJcszBemWhpcF6qpDwb2xYrHgtvX0NxvCzTif/Vi+aavmtoOQ7Vc2E
64wrmdlsNQmWxWGt+92igGMAc3Dlb5PwqBlyUTRbRWUcbQCxosnopM+epb+G6NNg
NZrq7UIupuudzH/RTet/e8HVB8taLlKFz2KbGTXb36JVghv/cgDQi6KhUsvwEyhT
004lhj6I2+TtzLdTO/QD57fE4RU5RKAFrYxcuuvNZSJAkSdiYwUDLrj1tbPiwpeM
Dof5ADNPO64mm2QJLMedyxTc5sSBreilxToADV5sRqln9KcCAwEAAaOCAS8wggEr
MBEGCWCGSAGG+EIBAQQEAwIGQDAdBgNVHQ4EFgQUJRD95eW5YKVqs10m5PdWCguK
FBIwgbgGA1UdIwSBsDCBrYAU+ukfpa+LThj/77fqj/uYvFkjgd+hgYmkgYYwgYMx
FjAUBgNVBAMUDVNISUxMT05HQ0FfQ0ExCzAJBgNVBAYTAklOMQ8wDQYDVQQKEwZD
SVRSSVgxDDAKBgNVBAsTA0FORzELMAkGA1UECBMCS0ExMDAuBgkqhkiG9w0BCQEW
IVNISUxMT05HQ0FfQ0FAU0hJTExPTkdDQV9tYWlsLmNvbYIJAPvQkv2ifDUMMDwG
CCsGAQUFBwEBBDAwLjAsBggrBgEFBQcwAYYgaHR0cDovLzE3Mi4yOC4yMC4xL3Jl
c3BvbmRlcnBhdGgwDQYJKoZIhvcNAQELBQADggEBAFZn8Or5fn7NWMobjeC6FBn4
cLRNYmYD3GXGe2HZj6eIPLL1UFqDiqIyhsKYM2vU0wPouFfdibq4XUBHHx5OMUPu
5kg5GBNqo221hc0uuyz4NwQsqv7lphvlMaBi6GYsZfaof8sbCS+tVMvQptyrOItk
i+jr3jqWQ8PZ2yAykA3MrexsIBLmMAT8YVhyOIjWtKo1awrRM5tXsDyJlQ7uoHNP
6hfliJW525uwFhBBijQ5YE4JHnKiaaNZhBbSHN6tT9MgplxjKv0VDjTVjEZaf/Fi
DZpfEQqg3FRuZdXXImPxB/JBfVocWCudUM3vpfZMfTxD1mirbA/w4Pm59QZJTYc=
-----END CERTIFICATE-----
