Certificate:
    Data:
        Version: 3 (0x2)
        Serial Number: 11042563100213 (0xa0b0c0d0e35)
    Signature Algorithm: sha256WithRSAEncryption
        Issuer: CN=SHILLONGCA_CA, C=IN, O=CITRIX, OU=ANG, ST=KA/emailAddress=SHILLONGCA_CA@SHILLONGCA_mail.com
        Validity
            Not Before: Jul  8 04:40:16 2016 GMT
            Not After : Jul  6 04:40:16 2026 GMT
        Subject: ST=KA, C=IN, CN=139_SHILLONGCA_server/emailAddress=139_SHILLONGCA@test_ca.com, O=CITRIX
        Subject Public Key Info:
            Public Key Algorithm: rsaEncryption
                Public-Key: (2048 bit)
                Modulus:
                    00:c8:56:5a:06:bb:56:7d:10:a8:36:11:f9:88:71:
                    e5:91:af:37:0d:87:80:44:78:98:6c:de:30:bb:da:
                    2c:b8:c8:0b:32:f0:ae:fa:22:45:aa:5f:63:5c:f0:
                    77:11:c5:2a:82:a5:9d:c0:ae:b3:d5:d9:38:81:58:
                    4d:34:12:87:40:2d:45:e7:02:ea:75:c7:0c:0f:04:
                    8d:c5:11:8d:ba:b5:1a:84:8a:d9:cf:5d:f0:5c:59:
                    23:1f:68:eb:3c:5d:cf:eb:47:75:c2:8b:61:e7:71:
                    51:69:f0:10:d8:df:7c:6b:f5:96:2c:4a:79:fd:2a:
                    8a:e3:6c:e1:c6:9a:ff:db:ad:9e:a2:1e:a7:d5:08:
                    0a:f1:dc:43:65:35:06:8e:14:e0:9d:a2:6f:0e:b0:
                    44:de:f3:f8:e9:4f:d0:fb:72:3f:04:7b:26:99:fb:
                    c4:c7:28:ba:e8:e2:d7:ab:17:35:62:93:f6:be:3b:
                    20:6e:4c:55:86:17:33:21:39:47:c2:db:bf:b8:f0:
                    2e:e8:64:35:8e:09:d6:fb:6d:1f:85:de:c6:ab:8d:
                    28:69:88:15:d5:df:42:6a:9f:bf:c2:e9:4a:23:a8:
                    b5:c2:50:49:56:4a:b4:fc:cb:3c:5d:bf:d0:5d:58:
                    08:9e:eb:7c:ab:e3:c7:1b:63:81:11:7c:a0:ad:38:
                    f5:9d
                Exponent: 65537 (0x10001)
        X509v3 extensions:
            Netscape Cert Type: 
                SSL Server
            X509v3 Subject Key Identifier: 
                AD:79:97:EF:BD:F7:E1:42:7E:43:DC:27:37:72:6F:94:ED:21:F9:5B
            X509v3 Authority Key Identifier: 
                keyid:FA:E9:1F:A5:AF:8B:4E:18:FF:EF:B7:EA:8F:FB:98:BC:59:23:81:DF
                DirName:/CN=SHILLONGCA_CA/C=IN/O=CITRIX/OU=ANG/ST=KA/emailAddress=SHILLONGCA_CA@SHILLONGCA_mail.com
                serial:FB:D0:92:FD:A2:7C:35:0C

            Authority Information Access: 
                OCSP - URI:http://172.28.20.1/responderpath

    Signature Algorithm: sha256WithRSAEncryption
         55:1b:a2:3c:3c:b7:31:47:6a:83:c4:f6:20:f5:be:c7:77:6f:
         4f:85:6e:ae:73:93:cd:40:ba:a6:44:32:dc:80:2d:ad:1b:07:
         aa:09:5e:98:fe:be:10:7b:59:d6:76:36:6e:22:1c:ed:8a:bd:
         88:cd:f0:81:16:29:b3:5d:a0:66:da:f1:f7:4a:24:35:06:00:
         f3:07:53:c5:39:00:29:2b:1d:d6:d5:db:ae:6f:73:da:11:0c:
         f2:3d:cc:d4:f8:12:7d:e3:44:7e:5a:20:e6:0f:31:85:eb:2a:
         16:9f:a3:92:03:ef:e5:ad:52:8f:d2:23:9f:5f:f2:0a:dc:60:
         4a:99:86:3f:78:9b:fe:26:30:17:91:a5:d8:47:e8:b6:75:1c:
         57:61:a5:9b:e4:f0:d7:f8:f2:85:66:73:19:35:1e:48:28:31:
         74:b7:a2:a0:2e:f2:78:b1:e5:50:6e:a5:4f:ab:b1:18:9a:8e:
         7d:4f:9a:a7:41:f1:4e:1d:7b:93:25:59:25:60:bb:68:f4:58:
         ef:bc:57:3b:43:50:9c:d4:0c:65:8b:1e:fe:cd:dd:39:dd:5e:
         6f:93:89:17:a0:e9:15:5c:26:76:de:4b:db:78:12:41:ab:78:
         0d:9d:bc:e3:ad:a2:ba:d5:71:9a:cc:32:21:51:2b:87:6f:08:
         79:be:34:98
-----BEGIN CERTIFICATE-----
MIIEqzCCA5OgAwIBAgIGCgsMDQ41MA0GCSqGSIb3DQEBCwUAMIGDMRYwFAYDVQQD
FA1TSElMTE9OR0NBX0NBMQswCQYDVQQGEwJJTjEPMA0GA1UEChMGQ0lUUklYMQww
CgYDVQQLEwNBTkcxCzAJBgNVBAgTAktBMTAwLgYJKoZIhvcNAQkBFiFTSElMTE9O
R0NBX0NBQFNISUxMT05HQ0FfbWFpbC5jb20wHhcNMTYwNzA4MDQ0MDE2WhcNMjYw
NzA2MDQ0MDE2WjB2MQswCQYDVQQIEwJLQTELMAkGA1UEBhMCSU4xHjAcBgNVBAMU
FTEzOV9TSElMTE9OR0NBX3NlcnZlcjEpMCcGCSqGSIb3DQEJARYaMTM5X1NISUxM
T05HQ0FAdGVzdF9jYS5jb20xDzANBgNVBAoTBkNJVFJJWDCCASIwDQYJKoZIhvcN
AQEBBQADggEPADCCAQoCggEBAMhWWga7Vn0QqDYR+Yhx5ZGvNw2HgER4mGzeMLva
LLjICzLwrvoiRapfY1zwdxHFKoKlncCus9XZOIFYTTQSh0AtRecC6nXHDA8EjcUR
jbq1GoSK2c9d8FxZIx9o6zxdz+tHdcKLYedxUWnwENjffGv1lixKef0qiuNs4caa
/9utnqIep9UICvHcQ2U1Bo4U4J2ibw6wRN7z+OlP0PtyPwR7Jpn7xMcouuji16sX
NWKT9r47IG5MVYYXMyE5R8Lbv7jwLuhkNY4J1vttH4XexquNKGmIFdXfQmqfv8Lp
SiOotcJQSVZKtPzLPF2/0F1YCJ7rfKvjxxtjgRF8oK049Z0CAwEAAaOCAS8wggEr
MBEGCWCGSAGG+EIBAQQEAwIGQDAdBgNVHQ4EFgQUrXmX77334UJ+Q9wnN3JvlO0h
+VswgbgGA1UdIwSBsDCBrYAU+ukfpa+LThj/77fqj/uYvFkjgd+hgYmkgYYwgYMx
FjAUBgNVBAMUDVNISUxMT05HQ0FfQ0ExCzAJBgNVBAYTAklOMQ8wDQYDVQQKEwZD
SVRSSVgxDDAKBgNVBAsTA0FORzELMAkGA1UECBMCS0ExMDAuBgkqhkiG9w0BCQEW
IVNISUxMT05HQ0FfQ0FAU0hJTExPTkdDQV9tYWlsLmNvbYIJAPvQkv2ifDUMMDwG
CCsGAQUFBwEBBDAwLjAsBggrBgEFBQcwAYYgaHR0cDovLzE3Mi4yOC4yMC4xL3Jl
c3BvbmRlcnBhdGgwDQYJKoZIhvcNAQELBQADggEBAFUbojw8tzFHaoPE9iD1vsd3
b0+Fbq5zk81AuqZEMtyALa0bB6oJXpj+vhB7WdZ2Nm4iHO2KvYjN8IEWKbNdoGba
8fdKJDUGAPMHU8U5ACkrHdbV265vc9oRDPI9zNT4En3jRH5aIOYPMYXrKhafo5ID
7+WtUo/SI59f8grcYEqZhj94m/4mMBeRpdhH6LZ1HFdhpZvk8Nf48oVmcxk1Hkgo
MXS3oqAu8nix5VBupU+rsRiajn1PmqdB8U4de5MlWSVgu2j0WO+8VztDUJzUDGWL
Hv7N3TndXm+TiReg6RVcJnbeS9t4EkGreA2dvOOtorrVcZrMMiFRK4dvCHm+NJg=
-----END CERTIFICATE-----
