Certificate:
    Data:
        Version: 3 (0x2)
        Serial Number: 11042563100211 (0xa0b0c0d0e33)
    Signature Algorithm: sha256WithRSAEncryption
        Issuer: CN=MUMBAICA_CA, C=IN, O=CITRIX, OU=ANG, ST=KA/emailAddress=MUMBAICA_CA@MUMBAICA_mail.com
        Validity
            Not Before: Jul  8 04:35:55 2016 GMT
            Not After : Jul  6 04:35:55 2026 GMT
        Subject: ST=KA, C=IN, CN=137_MUMBAICA_server/emailAddress=137_MUMBAICA@test_ca.com, O=CITRIX
        Subject Public Key Info:
            Public Key Algorithm: rsaEncryption
                Public-Key: (2048 bit)
                Modulus:
                    00:af:32:37:77:e0:12:b5:0f:73:70:28:83:a9:f7:
                    15:12:03:bb:b7:f1:67:ef:3f:50:f3:29:d3:8f:4b:
                    0d:de:c0:c8:76:4c:20:38:69:a6:ac:9b:54:13:c7:
                    7c:01:73:7b:13:33:49:da:73:84:dc:b3:7a:aa:9e:
                    79:cc:cb:e6:02:6a:70:c9:e5:aa:38:a9:2a:bb:3a:
                    be:ce:3d:35:55:28:7d:97:8a:c0:16:83:b0:3e:e6:
                    17:43:5d:a5:20:df:7c:94:46:77:d6:1b:35:da:c7:
                    e0:15:2d:8b:37:fb:dc:f7:77:6b:92:fb:58:ea:a0:
                    97:21:aa:21:ef:fb:97:57:c5:42:05:15:6e:d9:d6:
                    95:82:6f:52:2b:51:75:fe:26:4b:bd:89:b7:4f:ee:
                    1c:04:27:d4:69:d4:a6:5d:5a:fb:ba:1e:cd:fd:f8:
                    86:6e:f6:8f:f1:ce:11:e4:ad:dd:72:ca:81:5d:c2:
                    ca:12:ac:4e:54:df:61:3f:51:1b:50:52:0f:29:fc:
                    26:93:71:f6:54:7e:7f:bf:1b:17:40:9a:be:fa:25:
                    e6:fa:9d:f1:33:dc:0c:aa:67:52:4a:b0:fd:91:96:
                    f3:f8:3d:a2:f8:7b:d8:a2:2b:df:ca:69:16:62:ef:
                    a2:f6:15:ac:09:d4:c0:ff:fc:69:19:bd:9f:08:0b:
                    1f:57
                Exponent: 65537 (0x10001)
        X509v3 extensions:
            Netscape Cert Type: 
                SSL Server
            X509v3 Subject Key Identifier: 
                DF:50:31:46:55:F8:80:33:2A:3B:B3:15:C8:AC:5D:47:19:17:85:75
            X509v3 Authority Key Identifier: 
                keyid:37:79:BF:65:19:98:28:32:4E:EF:3E:44:14:19:A9:83:2B:AF:05:7A
                DirName:/CN=MUMBAICA_CA/C=IN/O=CITRIX/OU=ANG/ST=KA/emailAddress=MUMBAICA_CA@MUMBAICA_mail.com
                serial:EE:B1:37:EE:F6:D2:14:91

            Authority Information Access: 
                OCSP - URI:http://172.23.20.1/responderpath

    Signature Algorithm: sha256WithRSAEncryption
         82:b4:eb:bb:d8:09:8c:86:ca:c9:01:d2:3e:27:92:d8:72:9f:
         25:77:a0:3b:13:48:a8:7f:e8:33:23:f3:f8:84:e8:35:7b:fe:
         32:83:f1:99:f2:8d:22:3b:a6:c0:f4:41:45:86:b2:0b:a2:45:
         db:3c:76:ff:62:f0:f2:50:e5:b1:77:dc:5b:ae:70:00:4b:8b:
         38:3c:10:50:e1:e5:c4:b8:ab:cb:23:da:d9:52:55:c0:91:72:
         f0:1f:65:78:4b:7a:a8:02:f3:1c:c4:47:fd:5a:8e:59:05:94:
         91:d6:5c:ed:76:bd:06:28:21:b2:e3:0e:b4:e9:40:2c:ee:15:
         d3:6f:d2:ce:26:6c:33:7c:23:92:ad:0a:6f:c8:e1:c2:81:48:
         a9:5b:ee:c8:a1:f7:9d:97:f5:a6:86:bc:eb:3e:b6:d9:73:03:
         ab:17:0d:48:05:ad:fc:3d:3b:27:7c:36:b0:98:6f:0f:e2:ce:
         34:82:48:ad:a8:87:21:f3:44:1a:cf:a8:54:d2:92:f2:4a:c6:
         0a:e3:b3:e9:53:5d:e2:88:ff:83:80:a6:34:d9:20:d9:69:23:
         a7:b4:5a:49:d9:7d:95:30:e6:48:07:a9:eb:8b:14:12:e2:32:
         b0:bf:dc:62:27:0e:1a:b8:be:a8:a7:2a:29:65:14:f2:33:8d:
         06:44:b8:51
-----BEGIN CERTIFICATE-----
MIIEmDCCA4CgAwIBAgIGCgsMDQ4zMA0GCSqGSIb3DQEBCwUAMH0xFDASBgNVBAMU
C01VTUJBSUNBX0NBMQswCQYDVQQGEwJJTjEPMA0GA1UEChMGQ0lUUklYMQwwCgYD
VQQLEwNBTkcxCzAJBgNVBAgTAktBMSwwKgYJKoZIhvcNAQkBFh1NVU1CQUlDQV9D
QUBNVU1CQUlDQV9tYWlsLmNvbTAeFw0xNjA3MDgwNDM1NTVaFw0yNjA3MDYwNDM1
NTVaMHIxCzAJBgNVBAgTAktBMQswCQYDVQQGEwJJTjEcMBoGA1UEAxQTMTM3X01V
TUJBSUNBX3NlcnZlcjEnMCUGCSqGSIb3DQEJARYYMTM3X01VTUJBSUNBQHRlc3Rf
Y2EuY29tMQ8wDQYDVQQKEwZDSVRSSVgwggEiMA0GCSqGSIb3DQEBAQUAA4IBDwAw
ggEKAoIBAQCvMjd34BK1D3NwKIOp9xUSA7u38WfvP1DzKdOPSw3ewMh2TCA4aaas
m1QTx3wBc3sTM0nac4Tcs3qqnnnMy+YCanDJ5ao4qSq7Or7OPTVVKH2XisAWg7A+
5hdDXaUg33yURnfWGzXax+AVLYs3+9z3d2uS+1jqoJchqiHv+5dXxUIFFW7Z1pWC
b1IrUXX+Jku9ibdP7hwEJ9Rp1KZdWvu6Hs39+IZu9o/xzhHkrd1yyoFdwsoSrE5U
32E/URtQUg8p/CaTcfZUfn+/GxdAmr76Jeb6nfEz3AyqZ1JKsP2RlvP4PaL4e9ii
K9/KaRZi76L2FawJ1MD//GkZvZ8ICx9XAgMBAAGjggEnMIIBIzARBglghkgBhvhC
AQEEBAMCBkAwHQYDVR0OBBYEFN9QMUZV+IAzKjuzFcisXUcZF4V1MIGwBgNVHSME
gagwgaWAFDd5v2UZmCgyTu8+RBQZqYMrrwV6oYGBpH8wfTEUMBIGA1UEAxQLTVVN
QkFJQ0FfQ0ExCzAJBgNVBAYTAklOMQ8wDQYDVQQKEwZDSVRSSVgxDDAKBgNVBAsT
A0FORzELMAkGA1UECBMCS0ExLDAqBgkqhkiG9w0BCQEWHU1VTUJBSUNBX0NBQE1V
TUJBSUNBX21haWwuY29tggkA7rE37vbSFJEwPAYIKwYBBQUHAQEEMDAuMCwGCCsG
AQUFBzABhiBodHRwOi8vMTcyLjIzLjIwLjEvcmVzcG9uZGVycGF0aDANBgkqhkiG
9w0BAQsFAAOCAQEAgrTru9gJjIbKyQHSPieS2HKfJXegOxNIqH/oMyPz+IToNXv+
MoPxmfKNIjumwPRBRYayC6JF2zx2/2Lw8lDlsXfcW65wAEuLODwQUOHlxLiryyPa
2VJVwJFy8B9leEt6qALzHMRH/VqOWQWUkdZc7Xa9BighsuMOtOlALO4V02/SziZs
M3wjkq0Kb8jhwoFIqVvuyKH3nZf1poa86z622XMDqxcNSAWt/D07J3w2sJhvD+LO
NIJIraiHIfNEGs+oVNKS8krGCuOz6VNd4oj/g4CmNNkg2Wkjp7RaSdl9lTDmSAep
64sUEuIysL/cYicOGri+qKcqKWUU8jONBkS4UQ==
-----END CERTIFICATE-----
