Certificate:
    Data:
        Version: 3 (0x2)
        Serial Number: 11042563100175 (0xa0b0c0d0e0f)
    Signature Algorithm: sha256WithRSAEncryption
        Issuer: CN=MUMBAICA_CA, C=IN, O=CITRIX, OU=ANG, ST=KA/emailAddress=MUMBAICA_CA@MUMBAICA_mail.com
        Validity
            Not Before: Jul  8 04:35:46 2016 GMT
            Not After : Jul  6 04:35:46 2026 GMT
        Subject: ST=KA, C=IN, CN=101_MUMBAICA_server/emailAddress=101_MUMBAICA@test_ca.com, O=CITRIX
        Subject Public Key Info:
            Public Key Algorithm: rsaEncryption
                Public-Key: (2048 bit)
                Modulus:
                    00:ad:0f:e8:00:f1:1c:67:35:5e:cf:0a:57:49:db:
                    63:d8:0f:07:bf:68:28:eb:04:a0:5a:da:f9:17:53:
                    c8:80:58:bf:dd:d1:a4:1a:63:4f:a1:aa:df:1f:b3:
                    9d:43:4a:49:50:bd:32:d6:a4:4b:4f:5f:09:27:22:
                    9d:52:90:56:c3:db:46:50:fd:bb:bf:4a:cf:74:7b:
                    f3:46:99:09:36:5e:d5:2d:b7:ab:de:9c:fb:76:a8:
                    53:5b:da:46:02:96:58:37:6e:d4:dc:fb:85:6d:51:
                    bc:41:69:48:7f:37:f4:2e:2a:96:cc:a6:cd:bf:e6:
                    49:a1:24:b7:3e:30:c3:0b:2b:28:98:d7:1f:1e:17:
                    c0:a4:87:87:ab:ea:a9:50:45:0a:00:7d:53:61:e4:
                    47:76:d9:70:21:62:c1:7c:40:70:1d:60:22:5b:1a:
                    5f:67:6c:e3:e0:53:ea:d3:1e:81:58:6a:b7:be:ea:
                    e4:ee:0d:2b:aa:a5:c2:9a:f9:58:3d:64:6c:20:10:
                    cb:d4:b3:2a:a9:45:0c:62:40:46:10:19:43:76:87:
                    c9:71:3e:a2:70:56:66:8f:d5:7a:f5:16:70:0e:d5:
                    5b:0d:de:b4:db:58:46:b1:5d:30:f3:b9:ae:df:2a:
                    8d:2b:b8:26:68:b2:b3:d7:f3:37:42:89:d1:8d:36:
                    1e:1d
                Exponent: 65537 (0x10001)
        X509v3 extensions:
            Netscape Cert Type: 
                SSL Server
            X509v3 Subject Key Identifier: 
                E7:5F:C3:FE:2E:50:36:62:95:23:D1:D8:FF:C7:58:1D:42:FE:DA:53
            X509v3 Authority Key Identifier: 
                keyid:37:79:BF:65:19:98:28:32:4E:EF:3E:44:14:19:A9:83:2B:AF:05:7A
                DirName:/CN=MUMBAICA_CA/C=IN/O=CITRIX/OU=ANG/ST=KA/emailAddress=MUMBAICA_CA@MUMBAICA_mail.com
                serial:EE:B1:37:EE:F6:D2:14:91

            Authority Information Access: 
                OCSP - URI:http://MUMBAICA_one.ocsptest.com/responderpath

    Signature Algorithm: sha256WithRSAEncryption
         87:58:77:ae:62:c2:5a:37:cf:a3:fe:49:49:e9:60:b3:e7:f5:
         b4:88:16:7c:4e:36:a9:20:57:51:28:63:d4:80:1b:09:bd:0c:
         fd:7e:df:55:c4:ef:d7:df:bf:77:54:3b:4d:57:35:ea:42:61:
         2c:13:5c:a2:6a:16:63:3f:e4:4e:f7:22:bb:73:90:75:48:a7:
         80:11:ef:1b:26:ad:0c:98:55:1a:1d:41:b0:e3:a5:7d:3b:1d:
         cf:f6:67:d5:be:86:71:77:ac:ba:a1:e5:66:35:29:95:52:d7:
         f9:64:08:b2:f4:c0:f1:4d:7b:eb:c3:be:33:c0:8b:4f:d5:88:
         b0:87:d0:91:57:86:b1:ff:c2:c0:a9:0d:e4:b0:d2:b5:81:3d:
         b2:83:6a:01:80:e0:20:d5:ef:c1:31:b0:e7:e5:07:a6:c4:f9:
         9d:76:66:2d:52:94:b3:4c:72:cf:e0:ae:c0:20:13:52:9f:41:
         70:74:8b:ee:41:2a:5e:cd:ec:1d:00:fc:4e:cd:73:67:64:8a:
         15:e4:36:4c:f3:1f:09:b6:53:28:3b:cb:dd:63:c8:3a:d7:86:
         d3:c0:d9:45:20:49:0c:90:10:76:fd:64:5e:ea:70:46:65:a4:
         46:6f:1e:b4:bd:07:be:b8:a7:ac:b8:6e:48:35:9a:e1:0d:ae:
         85:13:43:e0
-----BEGIN CERTIFICATE-----
MIIEpjCCA46gAwIBAgIGCgsMDQ4PMA0GCSqGSIb3DQEBCwUAMH0xFDASBgNVBAMU
C01VTUJBSUNBX0NBMQswCQYDVQQGEwJJTjEPMA0GA1UEChMGQ0lUUklYMQwwCgYD
VQQLEwNBTkcxCzAJBgNVBAgTAktBMSwwKgYJKoZIhvcNAQkBFh1NVU1CQUlDQV9D
QUBNVU1CQUlDQV9tYWlsLmNvbTAeFw0xNjA3MDgwNDM1NDZaFw0yNjA3MDYwNDM1
NDZaMHIxCzAJBgNVBAgTAktBMQswCQYDVQQGEwJJTjEcMBoGA1UEAxQTMTAxX01V
TUJBSUNBX3NlcnZlcjEnMCUGCSqGSIb3DQEJARYYMTAxX01VTUJBSUNBQHRlc3Rf
Y2EuY29tMQ8wDQYDVQQKEwZDSVRSSVgwggEiMA0GCSqGSIb3DQEBAQUAA4IBDwAw
ggEKAoIBAQCtD+gA8RxnNV7PCldJ22PYDwe/aCjrBKBa2vkXU8iAWL/d0aQaY0+h
qt8fs51DSklQvTLWpEtPXwknIp1SkFbD20ZQ/bu/Ss90e/NGmQk2XtUtt6venPt2
qFNb2kYCllg3btTc+4VtUbxBaUh/N/QuKpbMps2/5kmhJLc+MMMLKyiY1x8eF8Ck
h4er6qlQRQoAfVNh5Ed22XAhYsF8QHAdYCJbGl9nbOPgU+rTHoFYare+6uTuDSuq
pcKa+Vg9ZGwgEMvUsyqpRQxiQEYQGUN2h8lxPqJwVmaP1Xr1FnAO1VsN3rTbWEax
XTDzua7fKo0ruCZosrPX8zdCidGNNh4dAgMBAAGjggE1MIIBMTARBglghkgBhvhC
AQEEBAMCBkAwHQYDVR0OBBYEFOdfw/4uUDZilSPR2P/HWB1C/tpTMIGwBgNVHSME
gagwgaWAFDd5v2UZmCgyTu8+RBQZqYMrrwV6oYGBpH8wfTEUMBIGA1UEAxQLTVVN
QkFJQ0FfQ0ExCzAJBgNVBAYTAklOMQ8wDQYDVQQKEwZDSVRSSVgxDDAKBgNVBAsT
A0FORzELMAkGA1UECBMCS0ExLDAqBgkqhkiG9w0BCQEWHU1VTUJBSUNBX0NBQE1V
TUJBSUNBX21haWwuY29tggkA7rE37vbSFJEwSgYIKwYBBQUHAQEEPjA8MDoGCCsG
AQUFBzABhi5odHRwOi8vTVVNQkFJQ0Ffb25lLm9jc3B0ZXN0LmNvbS9yZXNwb25k
ZXJwYXRoMA0GCSqGSIb3DQEBCwUAA4IBAQCHWHeuYsJaN8+j/klJ6WCz5/W0iBZ8
TjapIFdRKGPUgBsJvQz9ft9VxO/X3793VDtNVzXqQmEsE1yiahZjP+RO9yK7c5B1
SKeAEe8bJq0MmFUaHUGw46V9Ox3P9mfVvoZxd6y6oeVmNSmVUtf5ZAiy9MDxTXvr
w74zwItP1Yiwh9CRV4ax/8LAqQ3ksNK1gT2yg2oBgOAg1e/BMbDn5QemxPmddmYt
UpSzTHLP4K7AIBNSn0FwdIvuQSpezewdAPxOzXNnZIoV5DZM8x8JtlMoO8vdY8g6
14bTwNlFIEkMkBB2/WRe6nBGZaRGbx60vQe+uKesuG5INZrhDa6FE0Pg
-----END CERTIFICATE-----
