Certificate:
    Data:
        Version: 3 (0x2)
        Serial Number: 11042563100183 (0xa0b0c0d0e17)
    Signature Algorithm: sha256WithRSAEncryption
        Issuer: CN=MUMBAICA_CA, C=IN, O=CITRIX, OU=ANG, ST=KA/emailAddress=MUMBAICA_CA@MUMBAICA_mail.com
        Validity
            Not Before: Jul  8 04:35:48 2016 GMT
            Not After : Jul  6 04:35:48 2026 GMT
        Subject: ST=KA, C=IN, CN=109_MUMBAICA_server/emailAddress=109_MUMBAICA@test_ca.com, O=CITRIX
        Subject Public Key Info:
            Public Key Algorithm: rsaEncryption
                Public-Key: (2048 bit)
                Modulus:
                    00:cf:ec:20:e3:da:6f:a9:c3:c1:b9:f6:41:29:d4:
                    a2:f0:80:25:55:89:db:05:ec:a8:32:50:f9:d9:28:
                    6e:5c:01:7c:ce:e9:d8:e2:ff:49:f6:d5:3b:ab:f2:
                    2c:22:38:11:b2:36:bb:e1:a0:f6:23:64:09:09:fb:
                    82:fb:cd:92:29:f3:03:3d:20:57:cd:9c:6d:69:e4:
                    30:f8:d7:d4:75:53:84:8a:c4:56:eb:4a:9a:41:d8:
                    2b:90:d5:85:d7:82:95:5e:0f:b5:4e:f9:9f:c7:ad:
                    21:d3:f3:36:b2:d5:e9:ea:85:5e:58:d2:52:b3:00:
                    75:b3:4d:63:ac:26:e2:ae:8d:51:d7:29:96:8f:db:
                    59:b6:d7:c1:4d:5b:99:e1:fc:6f:b6:33:fb:5d:3b:
                    94:a9:da:89:5f:c7:90:c7:4e:26:0e:6b:a3:9d:5a:
                    83:35:c9:9b:f8:25:81:d4:7c:1b:81:eb:69:37:07:
                    f3:09:d8:d7:43:b1:a3:ab:ad:23:1d:90:68:09:81:
                    53:71:c2:8c:e1:51:12:c3:d6:ad:f5:ac:2a:96:8a:
                    be:15:c4:fe:ee:c7:51:e5:a4:8e:a1:65:2e:7c:c8:
                    c9:3c:9e:df:be:f1:3f:34:8d:ab:dc:97:c8:a4:32:
                    49:04:74:af:55:97:cb:cd:c8:78:bb:b5:be:d9:65:
                    60:5d
                Exponent: 65537 (0x10001)
        X509v3 extensions:
            Netscape Cert Type: 
                SSL Server
            X509v3 Subject Key Identifier: 
                71:C0:A6:E5:BE:50:06:A9:46:24:CB:B0:23:27:3B:A6:5A:24:69:7A
            X509v3 Authority Key Identifier: 
                keyid:37:79:BF:65:19:98:28:32:4E:EF:3E:44:14:19:A9:83:2B:AF:05:7A
                DirName:/CN=MUMBAICA_CA/C=IN/O=CITRIX/OU=ANG/ST=KA/emailAddress=MUMBAICA_CA@MUMBAICA_mail.com
                serial:EE:B1:37:EE:F6:D2:14:91

            Authority Information Access: 
                OCSP - URI:http://MUMBAICA_one.ocsptest.com/responderpath

    Signature Algorithm: sha256WithRSAEncryption
         62:f7:73:0c:8a:c0:82:21:fd:77:d5:dc:9f:dd:12:24:b8:35:
         93:ae:98:6c:ff:3a:e4:cf:c2:58:d5:1c:0d:4c:0b:40:29:b2:
         c6:7c:bc:61:1e:2e:dc:52:74:06:5e:41:1a:3a:bc:17:23:9b:
         ed:9a:57:e1:43:11:70:84:95:6d:d6:f6:b3:00:60:b4:3c:f6:
         64:f3:ec:ee:23:47:ef:75:0b:ae:e5:b2:8a:7a:0e:aa:da:51:
         80:fe:5a:3b:1a:2e:56:4f:3a:58:8e:b4:78:95:42:8d:33:36:
         57:d7:f1:08:0f:01:fe:67:73:d4:70:1c:85:1f:0a:18:e6:d6:
         df:30:a5:04:c9:46:af:e3:74:19:fa:bf:f5:0d:f4:22:01:ca:
         ce:61:56:1c:d3:f1:3f:3a:5b:e7:5b:79:4b:32:30:cd:c9:ad:
         41:b3:e0:0e:60:2a:b9:e3:4f:61:bb:a7:3a:d1:0e:19:ce:b4:
         01:57:37:cb:70:2a:30:03:97:4f:da:29:b7:b5:5a:d1:b1:d8:
         92:cd:6e:e9:fb:b8:0b:31:7f:3e:b4:32:fe:df:d4:0d:b7:f4:
         19:05:cc:27:0f:6a:a2:4b:dc:a7:33:0e:4f:22:79:96:83:12:
         0c:6b:1b:3e:98:43:60:cc:53:ca:64:ec:d5:80:dd:e1:8b:b8:
         2f:eb:ca:0a
-----BEGIN CERTIFICATE-----
MIIEpjCCA46gAwIBAgIGCgsMDQ4XMA0GCSqGSIb3DQEBCwUAMH0xFDASBgNVBAMU
C01VTUJBSUNBX0NBMQswCQYDVQQGEwJJTjEPMA0GA1UEChMGQ0lUUklYMQwwCgYD
VQQLEwNBTkcxCzAJBgNVBAgTAktBMSwwKgYJKoZIhvcNAQkBFh1NVU1CQUlDQV9D
QUBNVU1CQUlDQV9tYWlsLmNvbTAeFw0xNjA3MDgwNDM1NDhaFw0yNjA3MDYwNDM1
NDhaMHIxCzAJBgNVBAgTAktBMQswCQYDVQQGEwJJTjEcMBoGA1UEAxQTMTA5X01V
TUJBSUNBX3NlcnZlcjEnMCUGCSqGSIb3DQEJARYYMTA5X01VTUJBSUNBQHRlc3Rf
Y2EuY29tMQ8wDQYDVQQKEwZDSVRSSVgwggEiMA0GCSqGSIb3DQEBAQUAA4IBDwAw
ggEKAoIBAQDP7CDj2m+pw8G59kEp1KLwgCVVidsF7KgyUPnZKG5cAXzO6dji/0n2
1Tur8iwiOBGyNrvhoPYjZAkJ+4L7zZIp8wM9IFfNnG1p5DD419R1U4SKxFbrSppB
2CuQ1YXXgpVeD7VO+Z/HrSHT8zay1enqhV5Y0lKzAHWzTWOsJuKujVHXKZaP21m2
18FNW5nh/G+2M/tdO5Sp2olfx5DHTiYOa6OdWoM1yZv4JYHUfBuB62k3B/MJ2NdD
saOrrSMdkGgJgVNxwozhURLD1q31rCqWir4VxP7ux1HlpI6hZS58yMk8nt++8T80
javcl8ikMkkEdK9Vl8vNyHi7tb7ZZWBdAgMBAAGjggE1MIIBMTARBglghkgBhvhC
AQEEBAMCBkAwHQYDVR0OBBYEFHHApuW+UAapRiTLsCMnO6ZaJGl6MIGwBgNVHSME
gagwgaWAFDd5v2UZmCgyTu8+RBQZqYMrrwV6oYGBpH8wfTEUMBIGA1UEAxQLTVVN
QkFJQ0FfQ0ExCzAJBgNVBAYTAklOMQ8wDQYDVQQKEwZDSVRSSVgxDDAKBgNVBAsT
A0FORzELMAkGA1UECBMCS0ExLDAqBgkqhkiG9w0BCQEWHU1VTUJBSUNBX0NBQE1V
TUJBSUNBX21haWwuY29tggkA7rE37vbSFJEwSgYIKwYBBQUHAQEEPjA8MDoGCCsG
AQUFBzABhi5odHRwOi8vTVVNQkFJQ0Ffb25lLm9jc3B0ZXN0LmNvbS9yZXNwb25k
ZXJwYXRoMA0GCSqGSIb3DQEBCwUAA4IBAQBi93MMisCCIf131dyf3RIkuDWTrphs
/zrkz8JY1RwNTAtAKbLGfLxhHi7cUnQGXkEaOrwXI5vtmlfhQxFwhJVt1vazAGC0
PPZk8+zuI0fvdQuu5bKKeg6q2lGA/lo7Gi5WTzpYjrR4lUKNMzZX1/EIDwH+Z3PU
cByFHwoY5tbfMKUEyUav43QZ+r/1DfQiAcrOYVYc0/E/OlvnW3lLMjDNya1Bs+AO
YCq5409hu6c60Q4ZzrQBVzfLcCowA5dP2im3tVrRsdiSzW7p+7gLMX8+tDL+39QN
t/QZBcwnD2qiS9ynMw5PInmWgxIMaxs+mENgzFPKZOzVgN3hi7gv68oK
-----END CERTIFICATE-----
