Certificate:
    Data:
        Version: 3 (0x2)
        Serial Number: 11042563100178 (0xa0b0c0d0e12)
    Signature Algorithm: sha256WithRSAEncryption
        Issuer: CN=MUMBAICA_CA, C=IN, O=CITRIX, OU=ANG, ST=KA/emailAddress=MUMBAICA_CA@MUMBAICA_mail.com
        Validity
            Not Before: Jul  8 04:35:47 2016 GMT
            Not After : Jul  6 04:35:47 2026 GMT
        Subject: ST=KA, C=IN, CN=104_MUMBAICA_server/emailAddress=104_MUMBAICA@test_ca.com, O=CITRIX
        Subject Public Key Info:
            Public Key Algorithm: rsaEncryption
                Public-Key: (2048 bit)
                Modulus:
                    00:ba:d3:4f:e7:c6:d2:b5:11:36:3d:a3:97:a2:39:
                    3e:20:ab:32:57:34:99:68:2f:1b:b3:f5:80:a0:f1:
                    e7:3f:08:c7:22:1f:7b:e8:23:94:33:33:15:b3:a7:
                    94:b4:fc:3b:f3:25:69:ad:2d:20:57:6e:a3:5b:10:
                    93:99:32:42:43:88:c6:ad:9f:3b:f4:81:9b:9a:4a:
                    62:d0:fb:08:48:3f:99:66:ae:35:a0:b7:7d:04:80:
                    f9:92:b5:03:8f:ab:a0:dd:16:85:7c:86:e6:56:df:
                    73:ea:33:84:b0:bf:4c:64:93:a6:cd:af:03:59:3f:
                    01:59:f5:9e:2b:1f:4b:6d:70:0b:91:ec:7d:d7:89:
                    a8:61:a6:98:ea:3b:d7:24:ec:da:60:6a:94:e5:d1:
                    83:95:1d:f3:a6:d3:d1:1e:fc:f8:25:a8:15:79:c5:
                    7e:5b:8e:ab:28:9a:c0:a0:70:4a:7a:a1:b1:a3:73:
                    be:4e:f7:d1:a5:45:2c:3d:a0:60:55:9e:b6:f6:96:
                    ef:de:59:cc:0f:5e:26:f6:32:7e:d7:6c:33:2d:74:
                    f6:87:8c:66:dd:2f:09:61:bb:71:4c:da:14:60:74:
                    91:89:23:10:69:bf:e0:91:6a:41:b8:a5:8c:b6:c6:
                    4d:72:e6:8d:b4:45:49:5d:91:ee:4e:04:c2:64:a6:
                    07:1b
                Exponent: 65537 (0x10001)
        X509v3 extensions:
            Netscape Cert Type: 
                SSL Server
            X509v3 Subject Key Identifier: 
                67:EE:B7:5F:6D:B6:62:65:35:79:2F:E3:13:AE:AA:BB:60:45:F7:C4
            X509v3 Authority Key Identifier: 
                keyid:37:79:BF:65:19:98:28:32:4E:EF:3E:44:14:19:A9:83:2B:AF:05:7A
                DirName:/CN=MUMBAICA_CA/C=IN/O=CITRIX/OU=ANG/ST=KA/emailAddress=MUMBAICA_CA@MUMBAICA_mail.com
                serial:EE:B1:37:EE:F6:D2:14:91

            Authority Information Access: 
                OCSP - URI:http://MUMBAICA_one.ocsptest.com/responderpath

    Signature Algorithm: sha256WithRSAEncryption
         30:6a:bf:36:c3:b2:c6:6f:ab:35:ef:06:ee:c0:7a:a9:de:19:
         db:90:f2:7d:dd:69:d0:d9:ff:25:71:1d:08:5e:bc:9d:66:eb:
         18:0a:39:c0:cf:63:fa:3b:aa:d4:72:4a:eb:70:1c:81:2f:7d:
         23:45:07:38:80:8c:e1:1f:c9:09:5d:a6:ab:1b:82:15:f1:df:
         65:9b:8f:fb:be:8d:21:a7:02:03:b7:6e:cb:03:2d:64:95:30:
         c4:b5:c6:99:93:cc:3a:fb:94:c9:45:ce:2a:19:c9:06:e7:7c:
         1d:64:38:bf:03:be:35:b9:8a:fe:0f:ed:e0:5f:74:33:ec:d7:
         b5:bb:0d:56:57:77:76:33:dd:63:3c:59:52:e9:f0:a5:1d:fb:
         0a:11:16:34:93:db:f8:10:bc:75:d5:d7:37:05:79:b2:e6:7c:
         4c:b7:77:3f:9e:c9:cf:d2:86:f7:a6:ca:f8:6a:9f:5d:80:d1:
         52:9f:c3:42:45:6d:8f:6c:18:d9:a6:d1:a3:76:88:a9:a2:c2:
         8b:22:49:c3:cf:4a:f5:6b:10:6a:6f:70:3e:4a:51:75:3b:71:
         2e:1b:3d:88:c2:26:9f:ae:a4:1a:cc:26:0d:37:b4:ba:11:0d:
         25:64:de:24:a0:cb:e9:d1:e6:0e:b4:3a:78:25:ac:c1:d7:47:
         07:60:e7:ed
-----BEGIN CERTIFICATE-----
MIIEpjCCA46gAwIBAgIGCgsMDQ4SMA0GCSqGSIb3DQEBCwUAMH0xFDASBgNVBAMU
C01VTUJBSUNBX0NBMQswCQYDVQQGEwJJTjEPMA0GA1UEChMGQ0lUUklYMQwwCgYD
VQQLEwNBTkcxCzAJBgNVBAgTAktBMSwwKgYJKoZIhvcNAQkBFh1NVU1CQUlDQV9D
QUBNVU1CQUlDQV9tYWlsLmNvbTAeFw0xNjA3MDgwNDM1NDdaFw0yNjA3MDYwNDM1
NDdaMHIxCzAJBgNVBAgTAktBMQswCQYDVQQGEwJJTjEcMBoGA1UEAxQTMTA0X01V
TUJBSUNBX3NlcnZlcjEnMCUGCSqGSIb3DQEJARYYMTA0X01VTUJBSUNBQHRlc3Rf
Y2EuY29tMQ8wDQYDVQQKEwZDSVRSSVgwggEiMA0GCSqGSIb3DQEBAQUAA4IBDwAw
ggEKAoIBAQC600/nxtK1ETY9o5eiOT4gqzJXNJloLxuz9YCg8ec/CMciH3voI5Qz
MxWzp5S0/DvzJWmtLSBXbqNbEJOZMkJDiMatnzv0gZuaSmLQ+whIP5lmrjWgt30E
gPmStQOPq6DdFoV8huZW33PqM4Swv0xkk6bNrwNZPwFZ9Z4rH0ttcAuR7H3Xiahh
ppjqO9ck7NpgapTl0YOVHfOm09Ee/PglqBV5xX5bjqsomsCgcEp6obGjc75O99Gl
RSw9oGBVnrb2lu/eWcwPXib2Mn7XbDMtdPaHjGbdLwlhu3FM2hRgdJGJIxBpv+CR
akG4pYy2xk1y5o20RUldke5OBMJkpgcbAgMBAAGjggE1MIIBMTARBglghkgBhvhC
AQEEBAMCBkAwHQYDVR0OBBYEFGfut19ttmJlNXkv4xOuqrtgRffEMIGwBgNVHSME
gagwgaWAFDd5v2UZmCgyTu8+RBQZqYMrrwV6oYGBpH8wfTEUMBIGA1UEAxQLTVVN
QkFJQ0FfQ0ExCzAJBgNVBAYTAklOMQ8wDQYDVQQKEwZDSVRSSVgxDDAKBgNVBAsT
A0FORzELMAkGA1UECBMCS0ExLDAqBgkqhkiG9w0BCQEWHU1VTUJBSUNBX0NBQE1V
TUJBSUNBX21haWwuY29tggkA7rE37vbSFJEwSgYIKwYBBQUHAQEEPjA8MDoGCCsG
AQUFBzABhi5odHRwOi8vTVVNQkFJQ0Ffb25lLm9jc3B0ZXN0LmNvbS9yZXNwb25k
ZXJwYXRoMA0GCSqGSIb3DQEBCwUAA4IBAQAwar82w7LGb6s17wbuwHqp3hnbkPJ9
3WnQ2f8lcR0IXrydZusYCjnAz2P6O6rUckrrcByBL30jRQc4gIzhH8kJXaarG4IV
8d9lm4/7vo0hpwIDt27LAy1klTDEtcaZk8w6+5TJRc4qGckG53wdZDi/A741uYr+
D+3gX3Qz7Ne1uw1WV3d2M91jPFlS6fClHfsKERY0k9v4ELx11dc3BXmy5nxMt3c/
nsnP0ob3psr4ap9dgNFSn8NCRW2PbBjZptGjdoiposKLIknDz0r1axBqb3A+SlF1
O3EuGz2IwiafrqQazCYNN7S6EQ0lZN4koMvp0eYOtDp4JazB10cHYOft
-----END CERTIFICATE-----
