Certificate:
    Data:
        Version: 3 (0x2)
        Serial Number: 11042563100197 (0xa0b0c0d0e25)
    Signature Algorithm: sha256WithRSAEncryption
        Issuer: CN=MUMBAICA_CA, C=IN, O=CITRIX, OU=ANG, ST=KA/emailAddress=MUMBAICA_CA@MUMBAICA_mail.com
        Validity
            Not Before: Jul  8 04:35:52 2016 GMT
            Not After : Jul  6 04:35:52 2026 GMT
        Subject: ST=KA, C=IN, CN=123_MUMBAICA_server/emailAddress=123_MUMBAICA@test_ca.com, O=CITRIX
        Subject Public Key Info:
            Public Key Algorithm: rsaEncryption
                Public-Key: (2048 bit)
                Modulus:
                    00:cd:63:de:26:a1:fe:37:62:04:c0:15:22:3b:6c:
                    5a:de:e9:e6:7d:df:3a:19:49:7d:18:ba:8d:10:e3:
                    74:de:6a:8f:cf:5b:a9:51:fd:2c:da:ae:1f:80:3f:
                    68:c5:8d:57:26:54:f4:d1:0c:c8:6e:42:3a:4a:d2:
                    d5:b5:bc:ea:b7:06:c7:f6:1a:cd:41:f1:bd:f9:7e:
                    d5:6e:a7:a3:14:b9:56:44:cf:df:62:4b:df:84:19:
                    2f:98:f3:2d:f9:dd:7a:55:ec:b8:50:74:df:85:86:
                    e4:8f:9d:00:96:5e:f6:89:cf:ba:76:f9:b6:0f:c5:
                    08:bf:44:42:17:f4:a5:78:f0:32:a8:1e:dd:11:10:
                    7e:0b:f1:11:98:f9:a8:fb:ea:a2:f3:cd:47:93:5f:
                    bf:5c:47:a6:ca:7c:a1:f8:7e:b3:9b:46:79:eb:65:
                    8b:ba:0a:f9:53:5b:79:4d:5c:bf:dd:f6:6d:e0:95:
                    8c:24:9e:4d:70:02:a5:81:75:f1:83:88:ff:b6:9b:
                    c9:da:ea:8b:30:45:98:56:1e:58:68:f4:78:94:b7:
                    09:94:88:0a:c0:65:c3:cf:8e:50:5f:cd:f6:88:b0:
                    bf:88:c4:9a:74:74:4b:49:80:e7:dd:60:50:2d:f5:
                    e2:d9:60:d7:d1:54:4a:c5:ee:d5:cf:46:10:d9:7d:
                    a7:6b
                Exponent: 65537 (0x10001)
        X509v3 extensions:
            Netscape Cert Type: 
                SSL Server
            X509v3 Subject Key Identifier: 
                D8:97:11:74:9B:57:F5:FE:5C:5D:F5:6F:15:6A:60:B1:51:FF:D0:AB
            X509v3 Authority Key Identifier: 
                keyid:37:79:BF:65:19:98:28:32:4E:EF:3E:44:14:19:A9:83:2B:AF:05:7A
                DirName:/CN=MUMBAICA_CA/C=IN/O=CITRIX/OU=ANG/ST=KA/emailAddress=MUMBAICA_CA@MUMBAICA_mail.com
                serial:EE:B1:37:EE:F6:D2:14:91

            Authority Information Access: 
                OCSP - URI:http://172.23.10.1/responderpath

    Signature Algorithm: sha256WithRSAEncryption
         b7:05:8d:89:96:25:62:6f:05:0c:0c:ad:4b:0a:cf:d2:74:26:
         9f:74:87:e1:36:2a:a0:ce:67:06:87:6a:97:89:59:93:8f:5e:
         37:5b:c0:09:81:47:e2:8c:d6:e8:ed:5e:47:4c:1e:0d:9b:5b:
         03:08:ce:cd:31:0e:51:29:11:31:34:37:34:35:7e:e6:bb:ad:
         95:5e:18:ba:c8:ac:4c:db:8c:16:da:c4:90:ac:6e:81:c9:41:
         f4:bb:ab:93:f9:d5:d9:d9:89:91:0e:83:59:43:97:7b:83:51:
         ec:7f:f7:ad:3c:4c:a0:e1:12:95:9e:e8:ee:49:73:aa:de:cc:
         6d:ec:af:8a:ab:56:aa:bd:ca:f2:18:7a:7c:c9:66:10:0c:3f:
         07:3d:a2:c4:2a:f7:fd:ea:c4:48:54:a6:4d:37:7b:37:62:05:
         a8:4a:1d:dd:cd:ef:da:77:c7:9f:fd:15:73:0f:38:18:fe:4f:
         32:03:2e:3c:22:d5:f3:fe:d4:db:02:3d:ea:af:4e:49:cf:d3:
         e3:d4:db:18:39:33:4c:03:3f:14:8a:d3:64:10:04:4a:d1:9d:
         7c:81:a7:a3:15:34:31:7e:a2:1b:a8:4d:48:c0:70:b7:ec:e3:
         3b:c6:c2:f7:93:fa:a0:b6:16:c1:a4:20:1d:a0:88:44:4a:28:
         c6:e7:c0:30
-----BEGIN CERTIFICATE-----
MIIEmDCCA4CgAwIBAgIGCgsMDQ4lMA0GCSqGSIb3DQEBCwUAMH0xFDASBgNVBAMU
C01VTUJBSUNBX0NBMQswCQYDVQQGEwJJTjEPMA0GA1UEChMGQ0lUUklYMQwwCgYD
VQQLEwNBTkcxCzAJBgNVBAgTAktBMSwwKgYJKoZIhvcNAQkBFh1NVU1CQUlDQV9D
QUBNVU1CQUlDQV9tYWlsLmNvbTAeFw0xNjA3MDgwNDM1NTJaFw0yNjA3MDYwNDM1
NTJaMHIxCzAJBgNVBAgTAktBMQswCQYDVQQGEwJJTjEcMBoGA1UEAxQTMTIzX01V
TUJBSUNBX3NlcnZlcjEnMCUGCSqGSIb3DQEJARYYMTIzX01VTUJBSUNBQHRlc3Rf
Y2EuY29tMQ8wDQYDVQQKEwZDSVRSSVgwggEiMA0GCSqGSIb3DQEBAQUAA4IBDwAw
ggEKAoIBAQDNY94mof43YgTAFSI7bFre6eZ93zoZSX0Yuo0Q43Teao/PW6lR/Sza
rh+AP2jFjVcmVPTRDMhuQjpK0tW1vOq3Bsf2Gs1B8b35ftVup6MUuVZEz99iS9+E
GS+Y8y353XpV7LhQdN+FhuSPnQCWXvaJz7p2+bYPxQi/REIX9KV48DKoHt0REH4L
8RGY+aj76qLzzUeTX79cR6bKfKH4frObRnnrZYu6CvlTW3lNXL/d9m3glYwknk1w
AqWBdfGDiP+2m8na6oswRZhWHlho9HiUtwmUiArAZcPPjlBfzfaIsL+IxJp0dEtJ
gOfdYFAt9eLZYNfRVErF7tXPRhDZfadrAgMBAAGjggEnMIIBIzARBglghkgBhvhC
AQEEBAMCBkAwHQYDVR0OBBYEFNiXEXSbV/X+XF31bxVqYLFR/9CrMIGwBgNVHSME
gagwgaWAFDd5v2UZmCgyTu8+RBQZqYMrrwV6oYGBpH8wfTEUMBIGA1UEAxQLTVVN
QkFJQ0FfQ0ExCzAJBgNVBAYTAklOMQ8wDQYDVQQKEwZDSVRSSVgxDDAKBgNVBAsT
A0FORzELMAkGA1UECBMCS0ExLDAqBgkqhkiG9w0BCQEWHU1VTUJBSUNBX0NBQE1V
TUJBSUNBX21haWwuY29tggkA7rE37vbSFJEwPAYIKwYBBQUHAQEEMDAuMCwGCCsG
AQUFBzABhiBodHRwOi8vMTcyLjIzLjEwLjEvcmVzcG9uZGVycGF0aDANBgkqhkiG
9w0BAQsFAAOCAQEAtwWNiZYlYm8FDAytSwrP0nQmn3SH4TYqoM5nBodql4lZk49e
N1vACYFH4ozW6O1eR0weDZtbAwjOzTEOUSkRMTQ3NDV+5rutlV4YusisTNuMFtrE
kKxugclB9Lurk/nV2dmJkQ6DWUOXe4NR7H/3rTxMoOESlZ7o7klzqt7MbeyviqtW
qr3K8hh6fMlmEAw/Bz2ixCr3/erESFSmTTd7N2IFqEod3c3v2nfHn/0Vcw84GP5P
MgMuPCLV8/7U2wI96q9OSc/T49TbGDkzTAM/FIrTZBAEStGdfIGnoxU0MX6iG6hN
SMBwt+zjO8bC95P6oLYWwaQgHaCIREooxufAMA==
-----END CERTIFICATE-----
