Certificate:
    Data:
        Version: 3 (0x2)
        Serial Number: 11042563100213 (0xa0b0c0d0e35)
    Signature Algorithm: sha256WithRSAEncryption
        Issuer: CN=MUMBAICA_CA, C=IN, O=CITRIX, OU=ANG, ST=KA/emailAddress=MUMBAICA_CA@MUMBAICA_mail.com
        Validity
            Not Before: Jul  8 04:35:56 2016 GMT
            Not After : Jul  6 04:35:56 2026 GMT
        Subject: ST=KA, C=IN, CN=139_MUMBAICA_server/emailAddress=139_MUMBAICA@test_ca.com, O=CITRIX
        Subject Public Key Info:
            Public Key Algorithm: rsaEncryption
                Public-Key: (2048 bit)
                Modulus:
                    00:a9:bb:cf:ba:07:52:4a:06:3c:75:b5:d2:dc:32:
                    4f:ac:11:02:ae:0c:ca:99:83:76:04:20:23:e6:5d:
                    ea:1c:7d:d7:a2:02:ae:77:bf:dc:ad:aa:27:35:89:
                    09:42:5b:0e:89:e9:30:e3:72:1a:43:ec:4b:78:04:
                    d8:6f:46:d3:5e:b9:b5:5a:9b:68:13:51:ac:6a:0b:
                    2e:90:bf:e4:a7:20:e7:6d:65:8d:5d:a9:2c:0b:31:
                    8b:ef:f0:fe:76:57:a2:bb:a3:17:bd:57:8b:20:26:
                    93:8c:71:47:1d:eb:fc:52:cb:f4:96:b0:5d:7a:02:
                    50:8d:7b:83:c5:1a:ac:29:04:6d:fe:6c:7d:21:f7:
                    19:00:a1:f5:c4:01:5a:05:1c:b8:e4:38:2d:80:3e:
                    85:be:e7:29:8e:64:7f:78:49:26:81:80:3d:cd:57:
                    fe:2e:32:f7:6c:e1:9b:d4:6c:50:1e:ca:88:64:7b:
                    c4:da:9c:45:25:50:98:46:97:a0:51:5d:ba:e3:d6:
                    f8:a3:aa:40:f9:b9:01:24:29:33:7a:c1:96:23:0f:
                    2c:eb:98:f0:34:b4:12:36:90:67:56:8c:b2:d4:dd:
                    cf:d2:6c:c8:bb:1c:79:77:09:c7:08:2c:cc:b3:12:
                    c1:10:b2:d7:95:ea:fa:88:de:b2:fb:1b:d5:07:e0:
                    e3:c3
                Exponent: 65537 (0x10001)
        X509v3 extensions:
            Netscape Cert Type: 
                SSL Server
            X509v3 Subject Key Identifier: 
                DF:E4:77:80:6D:2B:27:85:B9:7F:1D:C3:94:2A:AB:09:BF:E4:01:69
            X509v3 Authority Key Identifier: 
                keyid:37:79:BF:65:19:98:28:32:4E:EF:3E:44:14:19:A9:83:2B:AF:05:7A
                DirName:/CN=MUMBAICA_CA/C=IN/O=CITRIX/OU=ANG/ST=KA/emailAddress=MUMBAICA_CA@MUMBAICA_mail.com
                serial:EE:B1:37:EE:F6:D2:14:91

            Authority Information Access: 
                OCSP - URI:http://172.23.20.1/responderpath

    Signature Algorithm: sha256WithRSAEncryption
         a0:2d:f8:e9:1e:20:01:cb:c5:96:6b:4c:c3:94:d5:d5:45:16:
         11:cd:91:fc:75:63:36:5f:ad:c4:ee:8f:cc:be:dc:de:d3:4f:
         5c:03:bb:70:f2:58:17:e8:80:c4:85:0f:6b:75:eb:37:94:13:
         86:f0:d5:09:80:89:ba:97:44:36:fb:3f:8b:da:cf:9c:51:85:
         75:e3:ae:cb:39:bd:db:b0:a5:37:fa:82:52:df:05:1f:d7:2f:
         9a:64:ac:4b:96:17:d9:d2:d3:eb:0f:b6:29:0b:a6:ba:75:47:
         6d:af:47:c5:a3:a5:4f:06:dd:1b:fb:36:9d:c1:cf:6c:e4:e5:
         f2:c9:ad:24:89:4b:91:35:65:3b:bc:93:be:fc:62:60:cd:29:
         ba:71:cd:3c:06:45:87:0d:3c:e3:99:59:48:3f:a1:fb:4e:39:
         dc:fe:b8:8c:4b:31:1b:4a:89:54:38:9a:49:0f:31:e5:88:61:
         a6:90:36:62:46:2e:fb:a3:3f:42:a6:c0:1c:14:f4:53:79:f1:
         18:5b:83:ec:f7:d4:9e:f8:c5:aa:d6:9f:2e:6b:69:3e:99:71:
         49:99:43:8c:0a:1b:a3:e7:e7:1a:02:81:55:26:90:09:73:6f:
         12:8b:c9:d1:10:9e:20:d6:16:c9:80:7a:88:f5:16:3f:7f:af:
         af:e4:c7:ed
-----BEGIN CERTIFICATE-----
MIIEmDCCA4CgAwIBAgIGCgsMDQ41MA0GCSqGSIb3DQEBCwUAMH0xFDASBgNVBAMU
C01VTUJBSUNBX0NBMQswCQYDVQQGEwJJTjEPMA0GA1UEChMGQ0lUUklYMQwwCgYD
VQQLEwNBTkcxCzAJBgNVBAgTAktBMSwwKgYJKoZIhvcNAQkBFh1NVU1CQUlDQV9D
QUBNVU1CQUlDQV9tYWlsLmNvbTAeFw0xNjA3MDgwNDM1NTZaFw0yNjA3MDYwNDM1
NTZaMHIxCzAJBgNVBAgTAktBMQswCQYDVQQGEwJJTjEcMBoGA1UEAxQTMTM5X01V
TUJBSUNBX3NlcnZlcjEnMCUGCSqGSIb3DQEJARYYMTM5X01VTUJBSUNBQHRlc3Rf
Y2EuY29tMQ8wDQYDVQQKEwZDSVRSSVgwggEiMA0GCSqGSIb3DQEBAQUAA4IBDwAw
ggEKAoIBAQCpu8+6B1JKBjx1tdLcMk+sEQKuDMqZg3YEICPmXeocfdeiAq53v9yt
qic1iQlCWw6J6TDjchpD7Et4BNhvRtNeubVam2gTUaxqCy6Qv+SnIOdtZY1dqSwL
MYvv8P52V6K7oxe9V4sgJpOMcUcd6/xSy/SWsF16AlCNe4PFGqwpBG3+bH0h9xkA
ofXEAVoFHLjkOC2APoW+5ymOZH94SSaBgD3NV/4uMvds4ZvUbFAeyohke8TanEUl
UJhGl6BRXbrj1vijqkD5uQEkKTN6wZYjDyzrmPA0tBI2kGdWjLLU3c/SbMi7HHl3
CccILMyzEsEQsteV6vqI3rL7G9UH4OPDAgMBAAGjggEnMIIBIzARBglghkgBhvhC
AQEEBAMCBkAwHQYDVR0OBBYEFN/kd4BtKyeFuX8dw5Qqqwm/5AFpMIGwBgNVHSME
gagwgaWAFDd5v2UZmCgyTu8+RBQZqYMrrwV6oYGBpH8wfTEUMBIGA1UEAxQLTVVN
QkFJQ0FfQ0ExCzAJBgNVBAYTAklOMQ8wDQYDVQQKEwZDSVRSSVgxDDAKBgNVBAsT
A0FORzELMAkGA1UECBMCS0ExLDAqBgkqhkiG9w0BCQEWHU1VTUJBSUNBX0NBQE1V
TUJBSUNBX21haWwuY29tggkA7rE37vbSFJEwPAYIKwYBBQUHAQEEMDAuMCwGCCsG
AQUFBzABhiBodHRwOi8vMTcyLjIzLjIwLjEvcmVzcG9uZGVycGF0aDANBgkqhkiG
9w0BAQsFAAOCAQEAoC346R4gAcvFlmtMw5TV1UUWEc2R/HVjNl+txO6PzL7c3tNP
XAO7cPJYF+iAxIUPa3XrN5QThvDVCYCJupdENvs/i9rPnFGFdeOuyzm927ClN/qC
Ut8FH9cvmmSsS5YX2dLT6w+2KQumunVHba9HxaOlTwbdG/s2ncHPbOTl8smtJIlL
kTVlO7yTvvxiYM0punHNPAZFhw0845lZSD+h+0453P64jEsxG0qJVDiaSQ8x5Yhh
ppA2YkYu+6M/QqbAHBT0U3nxGFuD7PfUnvjFqtafLmtpPplxSZlDjAobo+fnGgKB
VSaQCXNvEovJ0RCeINYWyYB6iPUWP3+vr+TH7Q==
-----END CERTIFICATE-----
