Certificate:
    Data:
        Version: 3 (0x2)
        Serial Number: 11042563100208 (0xa0b0c0d0e30)
    Signature Algorithm: sha256WithRSAEncryption
        Issuer: CN=MUMBAICA_CA, C=IN, O=CITRIX, OU=ANG, ST=KA/emailAddress=MUMBAICA_CA@MUMBAICA_mail.com
        Validity
            Not Before: Jul  8 04:35:55 2016 GMT
            Not After : Jul  6 04:35:55 2026 GMT
        Subject: ST=KA, C=IN, CN=134_MUMBAICA_server/emailAddress=134_MUMBAICA@test_ca.com, O=CITRIX
        Subject Public Key Info:
            Public Key Algorithm: rsaEncryption
                Public-Key: (2048 bit)
                Modulus:
                    00:a6:cd:b4:7e:95:e2:e6:e0:7c:b3:5d:33:41:43:
                    ae:97:6b:69:45:f2:8d:3a:03:c1:01:c6:cd:50:44:
                    bc:4b:d7:ea:c7:88:91:ff:cb:01:b6:93:f5:be:e4:
                    2c:8c:54:3c:fc:9f:dd:3a:91:b8:4c:2c:6c:1e:d1:
                    9f:12:e3:17:f3:70:26:f4:50:e3:ec:dc:0f:8a:03:
                    64:7c:f4:0d:47:e4:31:dc:5d:21:98:da:60:7e:9e:
                    57:c8:db:a1:07:05:68:0e:a1:6b:57:e5:73:a7:de:
                    8e:37:85:f0:64:e8:f9:0c:f8:35:f1:16:ea:c0:26:
                    b7:54:6a:37:ef:e3:7f:95:43:59:a2:d3:85:ce:e9:
                    2b:55:d3:35:74:8c:05:e4:22:85:84:39:63:dd:94:
                    18:c1:56:73:bd:c1:94:06:25:d4:73:52:59:02:b1:
                    4c:f8:ee:2b:ff:3f:89:01:97:a7:64:20:d8:06:58:
                    ed:c4:1e:dc:f0:13:38:3f:c1:58:9d:44:98:54:cc:
                    d1:99:6b:86:33:87:16:76:e4:16:cb:c3:75:62:c0:
                    b3:a7:98:08:2b:d9:5e:7e:fe:d2:76:97:43:a4:43:
                    49:3f:c3:24:0e:2b:70:2d:42:df:d3:60:b5:56:73:
                    de:42:3d:b2:6d:e6:ee:6c:d5:d9:cc:d3:5a:c2:b7:
                    7e:6f
                Exponent: 65537 (0x10001)
        X509v3 extensions:
            Netscape Cert Type: 
                SSL Server
            X509v3 Subject Key Identifier: 
                87:17:5C:4F:00:C3:34:31:BE:BD:51:FF:71:F6:5C:35:83:29:27:5B
            X509v3 Authority Key Identifier: 
                keyid:37:79:BF:65:19:98:28:32:4E:EF:3E:44:14:19:A9:83:2B:AF:05:7A
                DirName:/CN=MUMBAICA_CA/C=IN/O=CITRIX/OU=ANG/ST=KA/emailAddress=MUMBAICA_CA@MUMBAICA_mail.com
                serial:EE:B1:37:EE:F6:D2:14:91

            Authority Information Access: 
                OCSP - URI:http://172.23.20.1/responderpath

    Signature Algorithm: sha256WithRSAEncryption
         71:db:89:63:4c:dc:78:eb:0c:00:58:4e:a2:31:a0:02:f2:76:
         e2:b7:5e:ec:c9:31:bb:1e:4e:14:1c:3d:cc:98:88:d0:f8:33:
         89:ab:b5:aa:e4:c8:ec:2d:00:d8:7d:c2:83:d9:56:9c:1c:cb:
         08:52:14:e3:ea:a5:a1:d5:4e:5a:c0:4c:a6:37:b7:1a:ad:4d:
         5d:a6:d7:c3:20:3b:52:cb:de:fc:10:3c:79:8d:9d:2d:29:8c:
         db:40:bd:8a:aa:c5:84:83:22:ad:0c:7e:8d:79:6e:42:fe:7d:
         6a:fa:f6:51:a7:84:f4:47:55:f9:23:44:e8:15:56:8f:3b:ba:
         79:59:fc:8f:c3:28:5d:7a:7f:1c:fe:de:90:79:18:b0:57:f4:
         bf:c2:20:58:25:db:8c:bd:44:77:d5:c2:31:be:ae:8e:70:42:
         a0:b6:e3:31:a1:60:be:a6:cf:c6:d7:31:34:a5:0a:c7:1a:5e:
         ec:6b:96:e9:f9:0b:a0:25:28:4d:49:46:7d:d3:3f:8a:d6:71:
         1e:d4:ae:c6:c1:ea:85:66:f3:74:95:02:b1:df:63:28:3a:08:
         e9:41:a7:3d:0c:89:f2:54:39:79:85:c7:7f:a7:7f:08:69:ab:
         90:b3:e8:71:b7:ef:5d:bc:cc:1a:a8:9e:24:ae:e9:3e:5e:5a:
         30:a6:a3:10
-----BEGIN CERTIFICATE-----
MIIEmDCCA4CgAwIBAgIGCgsMDQ4wMA0GCSqGSIb3DQEBCwUAMH0xFDASBgNVBAMU
C01VTUJBSUNBX0NBMQswCQYDVQQGEwJJTjEPMA0GA1UEChMGQ0lUUklYMQwwCgYD
VQQLEwNBTkcxCzAJBgNVBAgTAktBMSwwKgYJKoZIhvcNAQkBFh1NVU1CQUlDQV9D
QUBNVU1CQUlDQV9tYWlsLmNvbTAeFw0xNjA3MDgwNDM1NTVaFw0yNjA3MDYwNDM1
NTVaMHIxCzAJBgNVBAgTAktBMQswCQYDVQQGEwJJTjEcMBoGA1UEAxQTMTM0X01V
TUJBSUNBX3NlcnZlcjEnMCUGCSqGSIb3DQEJARYYMTM0X01VTUJBSUNBQHRlc3Rf
Y2EuY29tMQ8wDQYDVQQKEwZDSVRSSVgwggEiMA0GCSqGSIb3DQEBAQUAA4IBDwAw
ggEKAoIBAQCmzbR+leLm4HyzXTNBQ66Xa2lF8o06A8EBxs1QRLxL1+rHiJH/ywG2
k/W+5CyMVDz8n906kbhMLGwe0Z8S4xfzcCb0UOPs3A+KA2R89A1H5DHcXSGY2mB+
nlfI26EHBWgOoWtX5XOn3o43hfBk6PkM+DXxFurAJrdUajfv43+VQ1mi04XO6StV
0zV0jAXkIoWEOWPdlBjBVnO9wZQGJdRzUlkCsUz47iv/P4kBl6dkINgGWO3EHtzw
Ezg/wVidRJhUzNGZa4YzhxZ25BbLw3ViwLOnmAgr2V5+/tJ2l0OkQ0k/wyQOK3At
Qt/TYLVWc95CPbJt5u5s1dnM01rCt35vAgMBAAGjggEnMIIBIzARBglghkgBhvhC
AQEEBAMCBkAwHQYDVR0OBBYEFIcXXE8AwzQxvr1R/3H2XDWDKSdbMIGwBgNVHSME
gagwgaWAFDd5v2UZmCgyTu8+RBQZqYMrrwV6oYGBpH8wfTEUMBIGA1UEAxQLTVVN
QkFJQ0FfQ0ExCzAJBgNVBAYTAklOMQ8wDQYDVQQKEwZDSVRSSVgxDDAKBgNVBAsT
A0FORzELMAkGA1UECBMCS0ExLDAqBgkqhkiG9w0BCQEWHU1VTUJBSUNBX0NBQE1V
TUJBSUNBX21haWwuY29tggkA7rE37vbSFJEwPAYIKwYBBQUHAQEEMDAuMCwGCCsG
AQUFBzABhiBodHRwOi8vMTcyLjIzLjIwLjEvcmVzcG9uZGVycGF0aDANBgkqhkiG
9w0BAQsFAAOCAQEAcduJY0zceOsMAFhOojGgAvJ24rde7Mkxux5OFBw9zJiI0Pgz
iau1quTI7C0A2H3Cg9lWnBzLCFIU4+qlodVOWsBMpje3Gq1NXabXwyA7Usve/BA8
eY2dLSmM20C9iqrFhIMirQx+jXluQv59avr2UaeE9EdV+SNE6BVWjzu6eVn8j8Mo
XXp/HP7ekHkYsFf0v8IgWCXbjL1Ed9XCMb6ujnBCoLbjMaFgvqbPxtcxNKUKxxpe
7GuW6fkLoCUoTUlGfdM/itZxHtSuxsHqhWbzdJUCsd9jKDoI6UGnPQyJ8lQ5eYXH
f6d/CGmrkLPocbfvXbzMGqieJK7pPl5aMKajEA==
-----END CERTIFICATE-----
