Certificate:
    Data:
        Version: 3 (0x2)
        Serial Number: 11042563100177 (0xa0b0c0d0e11)
    Signature Algorithm: sha256WithRSAEncryption
        Issuer: CN=MUMBAICA_CA, C=IN, O=CITRIX, OU=ANG, ST=KA/emailAddress=MUMBAICA_CA@MUMBAICA_mail.com
        Validity
            Not Before: Jul  8 04:35:47 2016 GMT
            Not After : Jul  6 04:35:47 2026 GMT
        Subject: ST=KA, C=IN, CN=103_MUMBAICA_server/emailAddress=103_MUMBAICA@test_ca.com, O=CITRIX
        Subject Public Key Info:
            Public Key Algorithm: rsaEncryption
                Public-Key: (2048 bit)
                Modulus:
                    00:b2:f2:51:d7:3c:72:a0:49:9a:ef:2a:94:64:2f:
                    f3:91:a1:b1:ec:0e:7a:3b:b0:44:83:3e:cd:95:d2:
                    21:b3:b6:5a:a8:e3:c4:f2:f3:12:05:71:fd:45:67:
                    84:9b:69:7e:69:bc:f5:9d:70:c6:ed:5e:00:ab:cf:
                    cb:48:8b:47:c3:1a:3c:66:aa:37:ae:01:9e:7b:ba:
                    24:23:9e:42:1c:dc:ec:d7:06:f9:54:ea:c7:0a:a3:
                    32:89:a0:1f:6b:8f:30:e1:11:7d:5b:80:fd:5d:e1:
                    12:9f:cb:30:aa:57:25:61:1a:ab:c4:49:e1:47:59:
                    22:95:7f:59:54:3c:92:0c:2a:22:66:dd:c4:40:83:
                    ab:61:f1:a2:3e:83:2d:70:fb:5b:8b:e4:66:d6:a3:
                    a6:fd:1a:9a:c8:1d:17:a1:be:4d:70:ef:08:95:52:
                    42:58:58:99:00:26:62:5e:e1:3f:f0:07:57:e1:3c:
                    dc:1c:ce:93:83:b6:49:22:62:68:a7:61:8b:d8:7e:
                    aa:f4:ec:b6:71:3a:4e:ee:26:5c:7d:91:b7:d8:88:
                    aa:23:2d:67:4f:cd:e9:d5:2d:49:18:ff:b7:6f:ae:
                    64:81:1c:3a:ec:e5:65:00:7f:76:4d:95:e4:5a:cc:
                    10:5d:04:ca:fd:86:95:89:b1:2c:36:ad:d8:bd:6d:
                    f1:4f
                Exponent: 65537 (0x10001)
        X509v3 extensions:
            Netscape Cert Type: 
                SSL Server
            X509v3 Subject Key Identifier: 
                E8:71:90:FF:F1:D5:7F:12:5D:DE:0C:B9:F6:9A:0C:AD:74:CC:B3:F2
            X509v3 Authority Key Identifier: 
                keyid:37:79:BF:65:19:98:28:32:4E:EF:3E:44:14:19:A9:83:2B:AF:05:7A
                DirName:/CN=MUMBAICA_CA/C=IN/O=CITRIX/OU=ANG/ST=KA/emailAddress=MUMBAICA_CA@MUMBAICA_mail.com
                serial:EE:B1:37:EE:F6:D2:14:91

            Authority Information Access: 
                OCSP - URI:http://MUMBAICA_one.ocsptest.com/responderpath

    Signature Algorithm: sha256WithRSAEncryption
         06:29:7d:a2:f9:c0:9e:3a:0b:37:38:74:8a:55:00:c1:7b:05:
         27:88:cd:78:ea:d7:8e:f1:fa:ce:f5:59:59:f8:a9:2e:7d:7d:
         e6:82:ff:d2:c5:b8:32:cc:4a:9e:12:4c:42:ce:87:9d:39:97:
         5d:5d:7d:ef:7e:b8:79:00:ad:9f:c5:b8:fe:e6:10:84:0e:dc:
         4a:64:05:78:56:5a:48:53:f9:8f:d0:1b:c5:33:a4:81:15:8f:
         2c:cf:d2:06:39:99:e9:e2:6f:0e:a4:20:c5:22:ff:9e:01:a0:
         07:5a:47:50:3f:75:92:8b:34:62:95:e9:80:77:90:27:a5:5d:
         3f:d6:89:25:b2:8c:40:dd:50:46:ad:58:48:87:cc:25:93:fa:
         00:2c:77:ac:b7:07:c8:c5:3d:ba:25:9d:7b:43:d1:98:b8:79:
         e1:02:3e:4a:f6:2a:99:a4:59:f1:9b:f4:02:50:95:3b:a4:35:
         c6:9f:7f:55:a2:ce:a8:ab:69:65:69:5d:f8:f2:4c:ae:c3:48:
         9e:76:5c:24:85:06:97:7f:cf:d8:e3:ec:47:42:d7:12:f7:da:
         9b:7a:7c:02:6f:a1:15:03:de:5c:29:bd:4b:ec:a5:29:19:bf:
         cc:bc:9c:42:a3:b3:ac:5e:2e:4b:98:aa:a1:02:ec:a3:67:c6:
         16:c3:b6:c1
-----BEGIN CERTIFICATE-----
MIIEpjCCA46gAwIBAgIGCgsMDQ4RMA0GCSqGSIb3DQEBCwUAMH0xFDASBgNVBAMU
C01VTUJBSUNBX0NBMQswCQYDVQQGEwJJTjEPMA0GA1UEChMGQ0lUUklYMQwwCgYD
VQQLEwNBTkcxCzAJBgNVBAgTAktBMSwwKgYJKoZIhvcNAQkBFh1NVU1CQUlDQV9D
QUBNVU1CQUlDQV9tYWlsLmNvbTAeFw0xNjA3MDgwNDM1NDdaFw0yNjA3MDYwNDM1
NDdaMHIxCzAJBgNVBAgTAktBMQswCQYDVQQGEwJJTjEcMBoGA1UEAxQTMTAzX01V
TUJBSUNBX3NlcnZlcjEnMCUGCSqGSIb3DQEJARYYMTAzX01VTUJBSUNBQHRlc3Rf
Y2EuY29tMQ8wDQYDVQQKEwZDSVRSSVgwggEiMA0GCSqGSIb3DQEBAQUAA4IBDwAw
ggEKAoIBAQCy8lHXPHKgSZrvKpRkL/ORobHsDno7sESDPs2V0iGztlqo48Ty8xIF
cf1FZ4SbaX5pvPWdcMbtXgCrz8tIi0fDGjxmqjeuAZ57uiQjnkIc3OzXBvlU6scK
ozKJoB9rjzDhEX1bgP1d4RKfyzCqVyVhGqvESeFHWSKVf1lUPJIMKiJm3cRAg6th
8aI+gy1w+1uL5GbWo6b9GprIHRehvk1w7wiVUkJYWJkAJmJe4T/wB1fhPNwczpOD
tkkiYminYYvYfqr07LZxOk7uJlx9kbfYiKojLWdPzenVLUkY/7dvrmSBHDrs5WUA
f3ZNleRazBBdBMr9hpWJsSw2rdi9bfFPAgMBAAGjggE1MIIBMTARBglghkgBhvhC
AQEEBAMCBkAwHQYDVR0OBBYEFOhxkP/x1X8SXd4MufaaDK10zLPyMIGwBgNVHSME
gagwgaWAFDd5v2UZmCgyTu8+RBQZqYMrrwV6oYGBpH8wfTEUMBIGA1UEAxQLTVVN
QkFJQ0FfQ0ExCzAJBgNVBAYTAklOMQ8wDQYDVQQKEwZDSVRSSVgxDDAKBgNVBAsT
A0FORzELMAkGA1UECBMCS0ExLDAqBgkqhkiG9w0BCQEWHU1VTUJBSUNBX0NBQE1V
TUJBSUNBX21haWwuY29tggkA7rE37vbSFJEwSgYIKwYBBQUHAQEEPjA8MDoGCCsG
AQUFBzABhi5odHRwOi8vTVVNQkFJQ0Ffb25lLm9jc3B0ZXN0LmNvbS9yZXNwb25k
ZXJwYXRoMA0GCSqGSIb3DQEBCwUAA4IBAQAGKX2i+cCeOgs3OHSKVQDBewUniM14
6teO8frO9VlZ+KkufX3mgv/SxbgyzEqeEkxCzoedOZddXX3vfrh5AK2fxbj+5hCE
DtxKZAV4VlpIU/mP0BvFM6SBFY8sz9IGOZnp4m8OpCDFIv+eAaAHWkdQP3WSizRi
lemAd5AnpV0/1oklsoxA3VBGrVhIh8wlk/oALHestwfIxT26JZ17Q9GYuHnhAj5K
9iqZpFnxm/QCUJU7pDXGn39Vos6oq2llaV348kyuw0iedlwkhQaXf8/Y4+xHQtcS
99qbenwCb6EVA95cKb1L7KUpGb/MvJxCo7OsXi5LmKqhAuyjZ8YWw7bB
-----END CERTIFICATE-----
