Certificate:
    Data:
        Version: 3 (0x2)
        Serial Number: 11042563100209 (0xa0b0c0d0e31)
    Signature Algorithm: sha256WithRSAEncryption
        Issuer: CN=MUMBAICA_CA, C=IN, O=CITRIX, OU=ANG, ST=KA/emailAddress=MUMBAICA_CA@MUMBAICA_mail.com
        Validity
            Not Before: Jul  8 04:35:55 2016 GMT
            Not After : Jul  6 04:35:55 2026 GMT
        Subject: ST=KA, C=IN, CN=135_MUMBAICA_server/emailAddress=135_MUMBAICA@test_ca.com, O=CITRIX
        Subject Public Key Info:
            Public Key Algorithm: rsaEncryption
                Public-Key: (2048 bit)
                Modulus:
                    00:ca:70:25:89:b4:af:3b:a3:72:40:f3:d3:82:d0:
                    13:47:bc:d5:fa:75:af:c1:a4:2e:ad:9e:2b:4e:ac:
                    0d:00:74:b3:40:75:11:b6:7f:c3:32:55:23:ba:ab:
                    f6:3e:42:c8:45:86:f0:e6:68:a6:ae:c3:ac:4a:55:
                    09:a1:43:c2:5a:98:39:34:41:62:a3:bc:12:61:2c:
                    c9:da:f0:ed:a8:e3:88:6b:87:5b:c8:de:31:ca:a7:
                    a4:b3:ca:54:8e:b5:c9:14:cf:6f:1d:bc:19:3a:7c:
                    29:82:53:89:74:31:e8:fe:df:cb:af:4a:04:33:89:
                    fa:53:ea:b5:21:bd:38:8a:f1:0d:03:d7:4a:5f:2e:
                    c5:e7:be:f4:12:43:b7:4c:68:12:64:46:6f:a6:77:
                    e6:85:30:00:d6:00:35:e2:c0:4b:19:b1:ed:56:c4:
                    00:f3:e2:71:e5:a9:0e:25:e1:42:3f:34:a2:25:ea:
                    28:6f:b9:b8:58:6a:9b:3e:be:03:0b:c4:b8:51:41:
                    29:6d:3e:8f:a2:7f:88:94:cb:ad:e5:1e:ba:84:66:
                    b9:95:24:a7:5c:d1:ea:20:3f:27:79:e0:d4:67:3b:
                    53:32:5c:02:dc:dc:bb:fe:ad:9a:3c:e3:09:3d:9e:
                    66:20:f7:06:2d:bc:a0:d9:26:94:f4:4f:f6:fa:40:
                    82:6f
                Exponent: 65537 (0x10001)
        X509v3 extensions:
            Netscape Cert Type: 
                SSL Server
            X509v3 Subject Key Identifier: 
                80:38:A2:25:5C:53:2E:5D:68:D5:7D:DC:0A:03:A7:2A:61:CD:C8:77
            X509v3 Authority Key Identifier: 
                keyid:37:79:BF:65:19:98:28:32:4E:EF:3E:44:14:19:A9:83:2B:AF:05:7A
                DirName:/CN=MUMBAICA_CA/C=IN/O=CITRIX/OU=ANG/ST=KA/emailAddress=MUMBAICA_CA@MUMBAICA_mail.com
                serial:EE:B1:37:EE:F6:D2:14:91

            Authority Information Access: 
                OCSP - URI:http://172.23.20.1/responderpath

    Signature Algorithm: sha256WithRSAEncryption
         36:7c:76:8f:39:f7:95:d5:71:78:5b:3c:2e:7d:29:1e:7c:b2:
         2d:8c:58:0e:5c:85:33:6f:a8:37:64:89:fe:e0:1b:43:8e:7c:
         cd:2a:f8:06:c5:58:36:67:bc:15:54:82:67:2c:6d:99:5f:c9:
         ad:1d:82:5f:50:3c:e2:42:32:4a:8e:73:a7:52:3b:57:9b:86:
         ae:21:78:6a:0f:99:57:95:15:ce:52:4a:4d:03:92:b7:ec:04:
         a0:08:ac:c9:69:f8:cc:77:17:16:7a:a4:8f:73:ee:be:d0:db:
         90:78:ad:42:3c:c9:2a:9f:43:d7:f0:58:68:09:03:f2:37:5d:
         9f:b3:38:d7:2e:8d:a0:03:04:2d:fe:b5:8d:9c:20:8a:8b:df:
         e2:c5:dd:d9:3c:91:9a:e1:e3:6f:97:7e:3e:0e:d3:2e:7c:95:
         47:d1:bc:23:f7:92:91:43:b1:09:62:68:57:5d:27:b9:31:fd:
         b0:6b:6b:7d:90:25:85:a1:9e:8f:56:e2:b6:7d:fd:8f:2d:c1:
         6f:01:e7:bf:70:9f:05:81:db:2f:7f:d1:44:b5:cb:be:39:d6:
         73:ce:4c:20:6f:4b:bc:06:aa:14:4d:7c:42:c7:6b:e6:39:0b:
         35:68:19:ae:b8:4b:0b:47:37:d1:f5:0a:10:87:44:3d:b5:41:
         e2:50:01:3c
-----BEGIN CERTIFICATE-----
MIIEmDCCA4CgAwIBAgIGCgsMDQ4xMA0GCSqGSIb3DQEBCwUAMH0xFDASBgNVBAMU
C01VTUJBSUNBX0NBMQswCQYDVQQGEwJJTjEPMA0GA1UEChMGQ0lUUklYMQwwCgYD
VQQLEwNBTkcxCzAJBgNVBAgTAktBMSwwKgYJKoZIhvcNAQkBFh1NVU1CQUlDQV9D
QUBNVU1CQUlDQV9tYWlsLmNvbTAeFw0xNjA3MDgwNDM1NTVaFw0yNjA3MDYwNDM1
NTVaMHIxCzAJBgNVBAgTAktBMQswCQYDVQQGEwJJTjEcMBoGA1UEAxQTMTM1X01V
TUJBSUNBX3NlcnZlcjEnMCUGCSqGSIb3DQEJARYYMTM1X01VTUJBSUNBQHRlc3Rf
Y2EuY29tMQ8wDQYDVQQKEwZDSVRSSVgwggEiMA0GCSqGSIb3DQEBAQUAA4IBDwAw
ggEKAoIBAQDKcCWJtK87o3JA89OC0BNHvNX6da/BpC6tnitOrA0AdLNAdRG2f8My
VSO6q/Y+QshFhvDmaKauw6xKVQmhQ8JamDk0QWKjvBJhLMna8O2o44hrh1vI3jHK
p6SzylSOtckUz28dvBk6fCmCU4l0Mej+38uvSgQzifpT6rUhvTiK8Q0D10pfLsXn
vvQSQ7dMaBJkRm+md+aFMADWADXiwEsZse1WxADz4nHlqQ4l4UI/NKIl6ihvubhY
aps+vgMLxLhRQSltPo+if4iUy63lHrqEZrmVJKdc0eogPyd54NRnO1MyXALc3Lv+
rZo84wk9nmYg9wYtvKDZJpT0T/b6QIJvAgMBAAGjggEnMIIBIzARBglghkgBhvhC
AQEEBAMCBkAwHQYDVR0OBBYEFIA4oiVcUy5daNV93AoDpyphzch3MIGwBgNVHSME
gagwgaWAFDd5v2UZmCgyTu8+RBQZqYMrrwV6oYGBpH8wfTEUMBIGA1UEAxQLTVVN
QkFJQ0FfQ0ExCzAJBgNVBAYTAklOMQ8wDQYDVQQKEwZDSVRSSVgxDDAKBgNVBAsT
A0FORzELMAkGA1UECBMCS0ExLDAqBgkqhkiG9w0BCQEWHU1VTUJBSUNBX0NBQE1V
TUJBSUNBX21haWwuY29tggkA7rE37vbSFJEwPAYIKwYBBQUHAQEEMDAuMCwGCCsG
AQUFBzABhiBodHRwOi8vMTcyLjIzLjIwLjEvcmVzcG9uZGVycGF0aDANBgkqhkiG
9w0BAQsFAAOCAQEANnx2jzn3ldVxeFs8Ln0pHnyyLYxYDlyFM2+oN2SJ/uAbQ458
zSr4BsVYNme8FVSCZyxtmV/JrR2CX1A84kIySo5zp1I7V5uGriF4ag+ZV5UVzlJK
TQOSt+wEoAisyWn4zHcXFnqkj3PuvtDbkHitQjzJKp9D1/BYaAkD8jddn7M41y6N
oAMELf61jZwgiovf4sXd2TyRmuHjb5d+Pg7TLnyVR9G8I/eSkUOxCWJoV10nuTH9
sGtrfZAlhaGej1bitn39jy3BbwHnv3CfBYHbL3/RRLXLvjnWc85MIG9LvAaqFE18
Qsdr5jkLNWgZrrhLC0c30fUKEIdEPbVB4lABPA==
-----END CERTIFICATE-----
