Certificate:
    Data:
        Version: 3 (0x2)
        Serial Number: 11042563100214 (0xa0b0c0d0e36)
    Signature Algorithm: sha256WithRSAEncryption
        Issuer: CN=MUMBAICA_CA, C=IN, O=CITRIX, OU=ANG, ST=KA/emailAddress=MUMBAICA_CA@MUMBAICA_mail.com
        Validity
            Not Before: Jul  8 04:35:56 2016 GMT
            Not After : Jul  6 04:35:56 2026 GMT
        Subject: ST=KA, C=IN, CN=140_MUMBAICA_server/emailAddress=140_MUMBAICA@test_ca.com, O=CITRIX
        Subject Public Key Info:
            Public Key Algorithm: rsaEncryption
                Public-Key: (2048 bit)
                Modulus:
                    00:c0:2f:84:d0:9b:09:ba:e4:76:8f:e8:ef:dc:52:
                    d8:4b:41:91:e8:4a:2e:27:38:5a:37:38:b9:4f:82:
                    37:a8:d7:ce:fc:74:cb:b5:37:67:03:d6:2c:37:df:
                    21:23:d9:16:94:72:8c:7d:6c:d7:46:42:85:45:8f:
                    b4:ba:e7:8e:07:67:26:ae:c6:2e:70:c7:3d:c2:92:
                    e8:83:e1:30:c3:60:40:10:ae:a7:83:7d:31:73:c6:
                    e2:f2:f3:39:17:49:61:84:c6:c6:1d:7b:74:37:0a:
                    ba:3f:15:e0:ae:83:84:0c:04:6a:31:65:3b:25:a9:
                    36:4d:6c:3f:7c:af:5d:38:e0:a9:68:a7:9e:74:50:
                    56:84:26:d9:9f:98:e4:8b:62:db:9f:34:ca:63:5e:
                    2a:9a:09:5f:36:d0:8d:e6:1b:2a:cb:0b:50:05:8e:
                    a0:78:31:a3:02:2d:3e:00:3a:82:4a:b5:b8:e0:d0:
                    60:7f:a5:b6:1d:00:ae:cf:77:68:30:2b:2c:4f:ae:
                    71:32:28:dd:da:9a:dc:42:35:50:78:51:8e:f0:50:
                    b0:f4:54:4e:5f:5d:46:3f:27:10:5f:b4:37:d9:bc:
                    09:f4:8c:0f:18:56:92:25:ad:81:df:9b:de:eb:c0:
                    86:be:44:d8:ad:c5:47:f3:fc:57:0d:38:4d:a8:a5:
                    93:bd
                Exponent: 65537 (0x10001)
        X509v3 extensions:
            Netscape Cert Type: 
                SSL Server
            X509v3 Subject Key Identifier: 
                10:B6:AD:55:FD:BA:99:BA:E6:8A:70:03:78:98:98:B3:3B:C0:9A:BC
            X509v3 Authority Key Identifier: 
                keyid:37:79:BF:65:19:98:28:32:4E:EF:3E:44:14:19:A9:83:2B:AF:05:7A
                DirName:/CN=MUMBAICA_CA/C=IN/O=CITRIX/OU=ANG/ST=KA/emailAddress=MUMBAICA_CA@MUMBAICA_mail.com
                serial:EE:B1:37:EE:F6:D2:14:91

            Authority Information Access: 
                OCSP - URI:http://172.23.20.1/responderpath

    Signature Algorithm: sha256WithRSAEncryption
         9d:e8:8f:18:a0:75:c8:33:f3:15:17:ce:29:91:73:b8:a9:ed:
         8c:ab:20:27:2a:21:57:36:61:59:a2:c3:68:15:01:f3:77:5f:
         6f:bb:e8:15:f3:7f:3c:54:75:48:76:4a:28:b6:2c:52:1b:12:
         e6:c4:a1:f4:e3:f6:8f:72:5a:9b:fc:da:1a:e9:4a:f7:10:b8:
         d0:0c:a1:ab:68:ea:41:2d:e4:6d:28:0f:c2:87:15:a7:d7:d5:
         70:91:1d:f2:a7:df:62:ea:99:d3:43:19:1b:34:33:c3:f2:9c:
         41:54:c7:74:60:b6:38:18:26:41:63:ca:33:86:23:ed:7c:e0:
         c2:18:b1:4d:06:cf:36:66:09:21:b1:78:d6:fc:51:bf:67:79:
         de:c0:7b:32:27:70:ef:66:55:d9:8b:23:94:4a:5c:d6:82:90:
         74:b0:29:3e:07:e9:a5:67:ef:03:5f:0a:de:b7:1f:e0:11:6a:
         91:95:79:3e:73:7a:dd:1a:21:ba:7a:93:01:2e:54:a5:3d:30:
         c7:c2:48:d7:b8:7d:05:cc:a5:c8:3d:91:f5:56:bc:6b:08:6b:
         17:d2:56:8d:0d:c9:a8:d9:66:e8:7c:7a:fe:41:c2:65:31:e2:
         9b:56:79:8d:5f:e0:ba:89:49:94:58:db:84:7a:6c:17:30:31:
         e3:d5:a7:50
-----BEGIN CERTIFICATE-----
MIIEmDCCA4CgAwIBAgIGCgsMDQ42MA0GCSqGSIb3DQEBCwUAMH0xFDASBgNVBAMU
C01VTUJBSUNBX0NBMQswCQYDVQQGEwJJTjEPMA0GA1UEChMGQ0lUUklYMQwwCgYD
VQQLEwNBTkcxCzAJBgNVBAgTAktBMSwwKgYJKoZIhvcNAQkBFh1NVU1CQUlDQV9D
QUBNVU1CQUlDQV9tYWlsLmNvbTAeFw0xNjA3MDgwNDM1NTZaFw0yNjA3MDYwNDM1
NTZaMHIxCzAJBgNVBAgTAktBMQswCQYDVQQGEwJJTjEcMBoGA1UEAxQTMTQwX01V
TUJBSUNBX3NlcnZlcjEnMCUGCSqGSIb3DQEJARYYMTQwX01VTUJBSUNBQHRlc3Rf
Y2EuY29tMQ8wDQYDVQQKEwZDSVRSSVgwggEiMA0GCSqGSIb3DQEBAQUAA4IBDwAw
ggEKAoIBAQDAL4TQmwm65HaP6O/cUthLQZHoSi4nOFo3OLlPgjeo1878dMu1N2cD
1iw33yEj2RaUcox9bNdGQoVFj7S6544HZyauxi5wxz3CkuiD4TDDYEAQrqeDfTFz
xuLy8zkXSWGExsYde3Q3Cro/FeCug4QMBGoxZTslqTZNbD98r1044Klop550UFaE
JtmfmOSLYtufNMpjXiqaCV820I3mGyrLC1AFjqB4MaMCLT4AOoJKtbjg0GB/pbYd
AK7Pd2gwKyxPrnEyKN3amtxCNVB4UY7wULD0VE5fXUY/JxBftDfZvAn0jA8YVpIl
rYHfm97rwIa+RNitxUfz/FcNOE2opZO9AgMBAAGjggEnMIIBIzARBglghkgBhvhC
AQEEBAMCBkAwHQYDVR0OBBYEFBC2rVX9upm65opwA3iYmLM7wJq8MIGwBgNVHSME
gagwgaWAFDd5v2UZmCgyTu8+RBQZqYMrrwV6oYGBpH8wfTEUMBIGA1UEAxQLTVVN
QkFJQ0FfQ0ExCzAJBgNVBAYTAklOMQ8wDQYDVQQKEwZDSVRSSVgxDDAKBgNVBAsT
A0FORzELMAkGA1UECBMCS0ExLDAqBgkqhkiG9w0BCQEWHU1VTUJBSUNBX0NBQE1V
TUJBSUNBX21haWwuY29tggkA7rE37vbSFJEwPAYIKwYBBQUHAQEEMDAuMCwGCCsG
AQUFBzABhiBodHRwOi8vMTcyLjIzLjIwLjEvcmVzcG9uZGVycGF0aDANBgkqhkiG
9w0BAQsFAAOCAQEAneiPGKB1yDPzFRfOKZFzuKntjKsgJyohVzZhWaLDaBUB83df
b7voFfN/PFR1SHZKKLYsUhsS5sSh9OP2j3Jam/zaGulK9xC40Ayhq2jqQS3kbSgP
wocVp9fVcJEd8qffYuqZ00MZGzQzw/KcQVTHdGC2OBgmQWPKM4Yj7XzgwhixTQbP
NmYJIbF41vxRv2d53sB7Midw72ZV2YsjlEpc1oKQdLApPgfppWfvA18K3rcf4BFq
kZV5PnN63RohunqTAS5UpT0wx8JI17h9BcylyD2R9Va8awhrF9JWjQ3JqNlm6Hx6
/kHCZTHim1Z5jV/guolJlFjbhHpsFzAx49WnUA==
-----END CERTIFICATE-----
