Certificate:
    Data:
        Version: 3 (0x2)
        Serial Number: 11042563100205 (0xa0b0c0d0e2d)
    Signature Algorithm: sha256WithRSAEncryption
        Issuer: CN=MUMBAICA_CA, C=IN, O=CITRIX, OU=ANG, ST=KA/emailAddress=MUMBAICA_CA@MUMBAICA_mail.com
        Validity
            Not Before: Jul  8 04:35:54 2016 GMT
            Not After : Jul  6 04:35:54 2026 GMT
        Subject: ST=KA, C=IN, CN=131_MUMBAICA_server/emailAddress=131_MUMBAICA@test_ca.com, O=CITRIX
        Subject Public Key Info:
            Public Key Algorithm: rsaEncryption
                Public-Key: (2048 bit)
                Modulus:
                    00:a6:26:b2:8a:6e:72:d4:de:3c:a5:2b:64:1a:05:
                    be:61:31:ae:fd:b1:43:71:ad:58:a4:9c:01:a9:ca:
                    2e:04:be:49:05:11:e2:3c:3e:af:8a:13:5d:91:d5:
                    0f:66:a8:c9:ef:0a:b6:3e:c5:5f:b7:00:a8:19:c6:
                    04:d4:50:96:5c:89:89:8c:08:29:7b:9b:bf:74:df:
                    cd:ed:6a:2f:97:88:14:4d:8e:14:2f:0f:c8:c2:99:
                    46:c8:d7:5f:8d:0c:8f:70:d2:f3:6a:95:d1:13:70:
                    c8:93:cc:70:18:66:23:7b:48:8b:15:50:65:f9:d3:
                    d5:07:02:ce:af:3b:b8:f2:ce:b5:1c:28:da:7c:75:
                    72:b6:7d:f0:66:ce:da:c6:5f:20:62:73:79:44:d9:
                    ab:e2:eb:31:af:17:83:cd:ab:29:52:3d:e8:01:33:
                    d6:c0:83:35:e6:72:09:07:49:a3:ef:a6:5d:ed:fb:
                    21:23:3c:5a:c8:2b:2f:9e:fb:8f:a9:91:f6:30:fe:
                    5d:89:84:24:be:14:3f:e9:7f:c9:ea:57:d0:0e:4b:
                    72:0e:37:49:ea:01:cf:f8:2f:bd:4a:41:39:07:9a:
                    62:36:5d:7b:ce:9b:b3:0b:8b:24:99:29:52:79:84:
                    4e:13:8f:13:fd:72:00:88:a7:90:34:f2:f6:e4:51:
                    27:b3
                Exponent: 65537 (0x10001)
        X509v3 extensions:
            Netscape Cert Type: 
                SSL Server
            X509v3 Subject Key Identifier: 
                DA:11:9C:ED:53:2C:AA:95:20:FC:BB:B8:B2:FB:A7:F5:A6:C6:57:A4
            X509v3 Authority Key Identifier: 
                keyid:37:79:BF:65:19:98:28:32:4E:EF:3E:44:14:19:A9:83:2B:AF:05:7A
                DirName:/CN=MUMBAICA_CA/C=IN/O=CITRIX/OU=ANG/ST=KA/emailAddress=MUMBAICA_CA@MUMBAICA_mail.com
                serial:EE:B1:37:EE:F6:D2:14:91

            Authority Information Access: 
                OCSP - URI:http://172.23.20.1/responderpath

    Signature Algorithm: sha256WithRSAEncryption
         ce:06:96:c5:ef:7f:03:d0:1f:72:68:c2:bf:25:b6:3c:89:28:
         c9:e1:e5:a8:b9:62:ec:ed:90:bd:15:94:ff:f9:66:a8:98:dc:
         79:04:b5:35:98:6b:da:c4:b6:18:a0:39:f5:b0:f6:fd:4c:1b:
         64:dd:b6:58:0b:a2:8c:0f:26:9d:40:ac:33:8b:f4:b3:6c:f0:
         c3:4b:b1:b1:02:8e:c3:85:21:49:33:c1:a7:29:93:ed:70:b6:
         8c:43:d9:8b:5d:59:d4:1a:fd:d3:37:bb:8a:1b:fe:ad:4f:61:
         b4:22:7b:78:56:67:e2:c8:e2:ca:b9:a2:d0:3c:a1:40:f7:63:
         24:97:23:9d:63:5f:d8:7a:6f:47:82:8a:c1:a5:9b:78:cb:a2:
         04:9b:9b:3f:92:96:56:0a:b0:b1:02:a8:47:31:69:74:32:60:
         af:ab:10:20:dc:70:ad:f6:b7:5a:f5:bc:1a:d4:94:c9:4a:49:
         2e:53:52:97:a5:cb:8c:f1:55:f7:f6:77:b8:2a:28:40:c7:d7:
         bc:d5:da:44:78:a0:ab:a1:ef:84:ed:88:1a:45:07:e4:d6:9a:
         f3:c2:a8:35:3b:90:90:ae:7d:29:73:2e:d4:a9:71:7b:4f:d6:
         67:bb:27:05:6e:f9:dd:dd:58:15:63:e8:ab:45:1d:5c:8d:51:
         63:7f:3f:d1
-----BEGIN CERTIFICATE-----
MIIEmDCCA4CgAwIBAgIGCgsMDQ4tMA0GCSqGSIb3DQEBCwUAMH0xFDASBgNVBAMU
C01VTUJBSUNBX0NBMQswCQYDVQQGEwJJTjEPMA0GA1UEChMGQ0lUUklYMQwwCgYD
VQQLEwNBTkcxCzAJBgNVBAgTAktBMSwwKgYJKoZIhvcNAQkBFh1NVU1CQUlDQV9D
QUBNVU1CQUlDQV9tYWlsLmNvbTAeFw0xNjA3MDgwNDM1NTRaFw0yNjA3MDYwNDM1
NTRaMHIxCzAJBgNVBAgTAktBMQswCQYDVQQGEwJJTjEcMBoGA1UEAxQTMTMxX01V
TUJBSUNBX3NlcnZlcjEnMCUGCSqGSIb3DQEJARYYMTMxX01VTUJBSUNBQHRlc3Rf
Y2EuY29tMQ8wDQYDVQQKEwZDSVRSSVgwggEiMA0GCSqGSIb3DQEBAQUAA4IBDwAw
ggEKAoIBAQCmJrKKbnLU3jylK2QaBb5hMa79sUNxrViknAGpyi4EvkkFEeI8Pq+K
E12R1Q9mqMnvCrY+xV+3AKgZxgTUUJZciYmMCCl7m790383tai+XiBRNjhQvD8jC
mUbI11+NDI9w0vNqldETcMiTzHAYZiN7SIsVUGX509UHAs6vO7jyzrUcKNp8dXK2
ffBmztrGXyBic3lE2avi6zGvF4PNqylSPegBM9bAgzXmcgkHSaPvpl3t+yEjPFrI
Ky+e+4+pkfYw/l2JhCS+FD/pf8nqV9AOS3ION0nqAc/4L71KQTkHmmI2XXvOm7ML
iySZKVJ5hE4TjxP9cgCIp5A08vbkUSezAgMBAAGjggEnMIIBIzARBglghkgBhvhC
AQEEBAMCBkAwHQYDVR0OBBYEFNoRnO1TLKqVIPy7uLL7p/WmxlekMIGwBgNVHSME
gagwgaWAFDd5v2UZmCgyTu8+RBQZqYMrrwV6oYGBpH8wfTEUMBIGA1UEAxQLTVVN
QkFJQ0FfQ0ExCzAJBgNVBAYTAklOMQ8wDQYDVQQKEwZDSVRSSVgxDDAKBgNVBAsT
A0FORzELMAkGA1UECBMCS0ExLDAqBgkqhkiG9w0BCQEWHU1VTUJBSUNBX0NBQE1V
TUJBSUNBX21haWwuY29tggkA7rE37vbSFJEwPAYIKwYBBQUHAQEEMDAuMCwGCCsG
AQUFBzABhiBodHRwOi8vMTcyLjIzLjIwLjEvcmVzcG9uZGVycGF0aDANBgkqhkiG
9w0BAQsFAAOCAQEAzgaWxe9/A9AfcmjCvyW2PIkoyeHlqLli7O2QvRWU//lmqJjc
eQS1NZhr2sS2GKA59bD2/UwbZN22WAuijA8mnUCsM4v0s2zww0uxsQKOw4UhSTPB
pymT7XC2jEPZi11Z1Br90ze7ihv+rU9htCJ7eFZn4sjiyrmi0DyhQPdjJJcjnWNf
2HpvR4KKwaWbeMuiBJubP5KWVgqwsQKoRzFpdDJgr6sQINxwrfa3WvW8GtSUyUpJ
LlNSl6XLjPFV9/Z3uCooQMfXvNXaRHigq6HvhO2IGkUH5Naa88KoNTuQkK59KXMu
1Klxe0/WZ7snBW753d1YFWPoq0UdXI1RY38/0Q==
-----END CERTIFICATE-----
