Certificate:
    Data:
        Version: 3 (0x2)
        Serial Number: 11042563100191 (0xa0b0c0d0e1f)
    Signature Algorithm: sha256WithRSAEncryption
        Issuer: CN=MUMBAICA_CA, C=IN, O=CITRIX, OU=ANG, ST=KA/emailAddress=MUMBAICA_CA@MUMBAICA_mail.com
        Validity
            Not Before: Jul  8 04:35:50 2016 GMT
            Not After : Jul  6 04:35:50 2026 GMT
        Subject: ST=KA, C=IN, CN=117_MUMBAICA_server/emailAddress=117_MUMBAICA@test_ca.com, O=CITRIX
        Subject Public Key Info:
            Public Key Algorithm: rsaEncryption
                Public-Key: (2048 bit)
                Modulus:
                    00:cd:1a:03:90:ad:a4:cc:08:9a:d2:45:29:3a:62:
                    b1:67:bc:46:33:65:50:ef:08:8f:f8:92:dd:2e:80:
                    cc:3b:62:36:ac:44:0d:df:1f:eb:03:15:fa:87:1c:
                    81:79:b7:8c:df:0f:67:c9:8d:cf:56:bf:01:44:79:
                    fa:de:35:5c:c8:3e:38:c4:d6:f6:ea:89:96:5d:a9:
                    57:06:bd:6f:b9:6a:f9:73:2e:64:ac:cf:f4:91:14:
                    d5:0f:02:03:97:45:3c:c8:b7:bc:73:bb:ab:b8:08:
                    73:b4:aa:29:57:9c:fb:45:42:47:21:4a:01:fd:18:
                    c6:ed:d5:24:21:b9:fb:de:19:06:5c:cf:0e:5c:dc:
                    b2:3f:08:9a:70:d8:93:22:b9:37:ef:e9:14:f9:63:
                    0b:e8:12:67:1f:56:2e:44:7d:cb:bf:22:34:ed:cf:
                    de:52:dd:b5:f2:ce:9b:b7:41:11:89:6c:13:0d:c4:
                    61:b0:8f:77:dc:07:c4:dd:88:7c:0b:27:ab:4a:ac:
                    a4:65:3c:3e:5c:3f:a1:d4:43:09:19:99:e5:5c:a3:
                    c0:08:f3:5a:9d:66:c7:f8:85:f9:8b:f8:7f:3d:ed:
                    8b:9c:d4:07:85:73:d2:d0:c5:02:83:c5:63:15:70:
                    f1:72:7c:0a:f8:ad:8f:62:71:7a:89:fb:f3:a6:09:
                    30:15
                Exponent: 65537 (0x10001)
        X509v3 extensions:
            Netscape Cert Type: 
                SSL Server
            X509v3 Subject Key Identifier: 
                BA:27:69:76:C3:B0:EE:70:F0:26:96:26:FE:20:95:CC:FB:CA:C6:B6
            X509v3 Authority Key Identifier: 
                keyid:37:79:BF:65:19:98:28:32:4E:EF:3E:44:14:19:A9:83:2B:AF:05:7A
                DirName:/CN=MUMBAICA_CA/C=IN/O=CITRIX/OU=ANG/ST=KA/emailAddress=MUMBAICA_CA@MUMBAICA_mail.com
                serial:EE:B1:37:EE:F6:D2:14:91

            Authority Information Access: 
                OCSP - URI:http://MUMBAICA_two.ocsptest.com/responderpath

    Signature Algorithm: sha256WithRSAEncryption
         37:42:6c:ca:2e:be:b3:1c:80:d0:71:dc:52:a4:bb:d4:87:f4:
         08:8f:72:ed:6f:8d:36:cc:fc:c7:fc:1b:25:e0:3a:32:e1:b9:
         4c:6b:5c:f7:3f:5c:64:fd:10:89:71:d9:f1:a7:a8:7b:26:0d:
         1d:1f:1a:be:a9:c0:76:ab:cf:39:62:ec:3e:41:78:4f:8b:6c:
         77:fb:58:bd:99:74:38:ee:28:88:82:31:13:0e:81:0a:a1:ab:
         1b:ff:71:0e:9b:f2:06:b2:4e:57:97:8a:36:14:cc:df:63:43:
         a1:f1:b0:37:bb:9b:0d:f7:28:c6:ac:9a:a7:8a:e6:9e:a3:bd:
         dd:f9:cb:d1:84:5a:cc:0c:b1:17:56:b9:45:53:01:e4:ea:cb:
         4b:63:32:a7:fa:ac:e1:dc:1e:b7:b1:ab:77:01:40:ba:07:b3:
         f1:ab:12:b1:c6:f8:a7:d6:7d:3f:67:a4:d1:79:77:af:25:1b:
         71:c2:43:2a:ac:b6:ee:be:73:8a:2c:2e:92:6f:9b:6e:08:98:
         34:e6:44:4d:92:8e:b0:b6:e7:f1:cb:55:fd:0d:73:ca:ac:3e:
         42:a6:e1:2f:32:7c:c6:69:18:44:09:d0:32:33:ea:bd:2c:54:
         15:85:9c:27:f2:0c:26:ab:99:12:09:8d:46:59:33:51:54:87:
         b1:4f:38:42
-----BEGIN CERTIFICATE-----
MIIEpjCCA46gAwIBAgIGCgsMDQ4fMA0GCSqGSIb3DQEBCwUAMH0xFDASBgNVBAMU
C01VTUJBSUNBX0NBMQswCQYDVQQGEwJJTjEPMA0GA1UEChMGQ0lUUklYMQwwCgYD
VQQLEwNBTkcxCzAJBgNVBAgTAktBMSwwKgYJKoZIhvcNAQkBFh1NVU1CQUlDQV9D
QUBNVU1CQUlDQV9tYWlsLmNvbTAeFw0xNjA3MDgwNDM1NTBaFw0yNjA3MDYwNDM1
NTBaMHIxCzAJBgNVBAgTAktBMQswCQYDVQQGEwJJTjEcMBoGA1UEAxQTMTE3X01V
TUJBSUNBX3NlcnZlcjEnMCUGCSqGSIb3DQEJARYYMTE3X01VTUJBSUNBQHRlc3Rf
Y2EuY29tMQ8wDQYDVQQKEwZDSVRSSVgwggEiMA0GCSqGSIb3DQEBAQUAA4IBDwAw
ggEKAoIBAQDNGgOQraTMCJrSRSk6YrFnvEYzZVDvCI/4kt0ugMw7YjasRA3fH+sD
FfqHHIF5t4zfD2fJjc9WvwFEefreNVzIPjjE1vbqiZZdqVcGvW+5avlzLmSsz/SR
FNUPAgOXRTzIt7xzu6u4CHO0qilXnPtFQkchSgH9GMbt1SQhufveGQZczw5c3LI/
CJpw2JMiuTfv6RT5YwvoEmcfVi5Efcu/IjTtz95S3bXyzpu3QRGJbBMNxGGwj3fc
B8TdiHwLJ6tKrKRlPD5cP6HUQwkZmeVco8AI81qdZsf4hfmL+H897Yuc1AeFc9LQ
xQKDxWMVcPFyfAr4rY9icXqJ+/OmCTAVAgMBAAGjggE1MIIBMTARBglghkgBhvhC
AQEEBAMCBkAwHQYDVR0OBBYEFLonaXbDsO5w8CaWJv4glcz7ysa2MIGwBgNVHSME
gagwgaWAFDd5v2UZmCgyTu8+RBQZqYMrrwV6oYGBpH8wfTEUMBIGA1UEAxQLTVVN
QkFJQ0FfQ0ExCzAJBgNVBAYTAklOMQ8wDQYDVQQKEwZDSVRSSVgxDDAKBgNVBAsT
A0FORzELMAkGA1UECBMCS0ExLDAqBgkqhkiG9w0BCQEWHU1VTUJBSUNBX0NBQE1V
TUJBSUNBX21haWwuY29tggkA7rE37vbSFJEwSgYIKwYBBQUHAQEEPjA8MDoGCCsG
AQUFBzABhi5odHRwOi8vTVVNQkFJQ0FfdHdvLm9jc3B0ZXN0LmNvbS9yZXNwb25k
ZXJwYXRoMA0GCSqGSIb3DQEBCwUAA4IBAQA3QmzKLr6zHIDQcdxSpLvUh/QIj3Lt
b402zPzH/Bsl4Doy4blMa1z3P1xk/RCJcdnxp6h7Jg0dHxq+qcB2q885Yuw+QXhP
i2x3+1i9mXQ47iiIgjETDoEKoasb/3EOm/IGsk5Xl4o2FMzfY0Oh8bA3u5sN9yjG
rJqniuaeo73d+cvRhFrMDLEXVrlFUwHk6stLYzKn+qzh3B63sat3AUC6B7PxqxKx
xvin1n0/Z6TReXevJRtxwkMqrLbuvnOKLC6Sb5tuCJg05kRNko6wtufxy1X9DXPK
rD5CpuEvMnzGaRhECdAyM+q9LFQVhZwn8gwmq5kSCY1GWTNRVIexTzhC
-----END CERTIFICATE-----
