Certificate:
    Data:
        Version: 3 (0x2)
        Serial Number: 11042563100176 (0xa0b0c0d0e10)
    Signature Algorithm: sha256WithRSAEncryption
        Issuer: CN=MUMBAICA_CA, C=IN, O=CITRIX, OU=ANG, ST=KA/emailAddress=MUMBAICA_CA@MUMBAICA_mail.com
        Validity
            Not Before: Jul  8 04:35:47 2016 GMT
            Not After : Jul  6 04:35:47 2026 GMT
        Subject: ST=KA, C=IN, CN=102_MUMBAICA_server/emailAddress=102_MUMBAICA@test_ca.com, O=CITRIX
        Subject Public Key Info:
            Public Key Algorithm: rsaEncryption
                Public-Key: (2048 bit)
                Modulus:
                    00:d5:c8:ae:e3:ab:63:c8:c3:c4:e7:c4:a9:ac:38:
                    3e:d4:07:89:ef:a3:d2:81:dc:34:a8:5e:cf:cb:c7:
                    44:61:57:94:c1:cf:29:7e:74:a6:e8:27:5c:6d:0c:
                    aa:9d:8e:16:eb:63:88:84:c5:4b:15:0a:53:6a:4c:
                    01:71:a9:d6:d4:2f:6c:97:61:bd:4b:e2:00:34:c3:
                    d0:e8:e3:a8:c7:75:0d:95:22:f0:4d:1e:0e:70:ea:
                    95:79:78:1b:0d:9e:09:6e:16:90:f4:13:a9:18:db:
                    3d:ee:6e:26:e6:4b:9f:44:a3:4d:3f:dc:80:9a:53:
                    35:03:1f:94:66:77:c0:a8:d1:9e:1b:a4:d3:9a:ff:
                    39:37:de:70:3b:b0:de:d1:1d:2c:34:a5:00:24:0c:
                    10:ee:52:cb:53:1b:56:4b:d4:57:ca:b1:3c:35:62:
                    72:cc:7b:51:7c:c5:f8:33:56:3e:fa:5e:43:6a:73:
                    fd:46:1c:87:36:a4:a4:4e:8a:8f:fb:85:bf:7a:e4:
                    45:26:2a:94:2a:a8:ea:16:9b:79:c4:83:eb:89:2e:
                    aa:a3:61:c7:ff:4a:98:1e:5e:cd:94:cc:e9:86:1c:
                    60:59:53:11:1d:b3:25:79:1e:52:02:18:63:4d:cd:
                    e8:02:38:56:85:f7:f8:df:64:c6:da:8f:23:50:4d:
                    29:df
                Exponent: 65537 (0x10001)
        X509v3 extensions:
            Netscape Cert Type: 
                SSL Server
            X509v3 Subject Key Identifier: 
                8D:96:34:48:25:76:F7:22:03:99:C3:8B:63:58:33:BE:22:40:C0:6D
            X509v3 Authority Key Identifier: 
                keyid:37:79:BF:65:19:98:28:32:4E:EF:3E:44:14:19:A9:83:2B:AF:05:7A
                DirName:/CN=MUMBAICA_CA/C=IN/O=CITRIX/OU=ANG/ST=KA/emailAddress=MUMBAICA_CA@MUMBAICA_mail.com
                serial:EE:B1:37:EE:F6:D2:14:91

            Authority Information Access: 
                OCSP - URI:http://MUMBAICA_one.ocsptest.com/responderpath

    Signature Algorithm: sha256WithRSAEncryption
         a0:14:de:37:b7:7c:e6:e5:fa:73:2a:a0:1e:41:a0:b9:63:2b:
         73:70:02:fa:7b:bb:a8:e1:b9:27:f3:39:1b:47:24:1f:f4:cb:
         9d:cc:4a:e1:95:22:2d:a7:6b:ed:9d:02:a4:bb:1c:63:90:c9:
         5b:82:5b:71:ae:1d:d0:cb:ca:81:ca:ab:b6:a0:a9:50:ee:84:
         7c:6e:80:76:c4:b7:bd:b4:67:eb:50:5a:e3:45:ef:50:58:33:
         17:96:ad:b7:43:3f:a0:c2:dc:27:de:75:2c:18:8f:f4:3b:fc:
         fe:9d:4b:af:c5:8e:4f:ee:ff:f8:12:51:ab:ec:e0:e6:9e:f4:
         d3:d9:1e:ee:e3:72:46:24:0d:0b:be:90:dc:f0:d0:58:1b:e3:
         4b:8c:09:af:e0:ee:31:16:8b:49:7a:21:2a:69:6c:31:89:21:
         1a:90:1f:09:e4:6e:e7:70:59:c7:60:23:b6:d0:1c:4d:f7:80:
         44:55:52:b1:db:3c:42:ce:04:0a:e5:c0:d1:78:d0:ed:d3:ab:
         ec:08:7f:2f:f0:4d:41:f8:a5:c2:83:92:ed:da:9d:87:c3:88:
         65:be:eb:0f:12:7f:70:22:a5:9a:b7:73:17:4c:5e:5b:45:fb:
         0a:15:f0:0e:58:06:44:a4:62:1f:80:bb:66:21:92:b9:a4:30:
         93:50:8c:c1
-----BEGIN CERTIFICATE-----
MIIEpjCCA46gAwIBAgIGCgsMDQ4QMA0GCSqGSIb3DQEBCwUAMH0xFDASBgNVBAMU
C01VTUJBSUNBX0NBMQswCQYDVQQGEwJJTjEPMA0GA1UEChMGQ0lUUklYMQwwCgYD
VQQLEwNBTkcxCzAJBgNVBAgTAktBMSwwKgYJKoZIhvcNAQkBFh1NVU1CQUlDQV9D
QUBNVU1CQUlDQV9tYWlsLmNvbTAeFw0xNjA3MDgwNDM1NDdaFw0yNjA3MDYwNDM1
NDdaMHIxCzAJBgNVBAgTAktBMQswCQYDVQQGEwJJTjEcMBoGA1UEAxQTMTAyX01V
TUJBSUNBX3NlcnZlcjEnMCUGCSqGSIb3DQEJARYYMTAyX01VTUJBSUNBQHRlc3Rf
Y2EuY29tMQ8wDQYDVQQKEwZDSVRSSVgwggEiMA0GCSqGSIb3DQEBAQUAA4IBDwAw
ggEKAoIBAQDVyK7jq2PIw8TnxKmsOD7UB4nvo9KB3DSoXs/Lx0RhV5TBzyl+dKbo
J1xtDKqdjhbrY4iExUsVClNqTAFxqdbUL2yXYb1L4gA0w9Do46jHdQ2VIvBNHg5w
6pV5eBsNngluFpD0E6kY2z3ubibmS59Eo00/3ICaUzUDH5Rmd8Co0Z4bpNOa/zk3
3nA7sN7RHSw0pQAkDBDuUstTG1ZL1FfKsTw1YnLMe1F8xfgzVj76XkNqc/1GHIc2
pKROio/7hb965EUmKpQqqOoWm3nEg+uJLqqjYcf/SpgeXs2UzOmGHGBZUxEdsyV5
HlICGGNNzegCOFaF9/jfZMbajyNQTSnfAgMBAAGjggE1MIIBMTARBglghkgBhvhC
AQEEBAMCBkAwHQYDVR0OBBYEFI2WNEgldvciA5nDi2NYM74iQMBtMIGwBgNVHSME
gagwgaWAFDd5v2UZmCgyTu8+RBQZqYMrrwV6oYGBpH8wfTEUMBIGA1UEAxQLTVVN
QkFJQ0FfQ0ExCzAJBgNVBAYTAklOMQ8wDQYDVQQKEwZDSVRSSVgxDDAKBgNVBAsT
A0FORzELMAkGA1UECBMCS0ExLDAqBgkqhkiG9w0BCQEWHU1VTUJBSUNBX0NBQE1V
TUJBSUNBX21haWwuY29tggkA7rE37vbSFJEwSgYIKwYBBQUHAQEEPjA8MDoGCCsG
AQUFBzABhi5odHRwOi8vTVVNQkFJQ0Ffb25lLm9jc3B0ZXN0LmNvbS9yZXNwb25k
ZXJwYXRoMA0GCSqGSIb3DQEBCwUAA4IBAQCgFN43t3zm5fpzKqAeQaC5YytzcAL6
e7uo4bkn8zkbRyQf9MudzErhlSItp2vtnQKkuxxjkMlbgltxrh3Qy8qByqu2oKlQ
7oR8boB2xLe9tGfrUFrjRe9QWDMXlq23Qz+gwtwn3nUsGI/0O/z+nUuvxY5P7v/4
ElGr7ODmnvTT2R7u43JGJA0LvpDc8NBYG+NLjAmv4O4xFotJeiEqaWwxiSEakB8J
5G7ncFnHYCO20BxN94BEVVKx2zxCzgQK5cDReNDt06vsCH8v8E1B+KXCg5Lt2p2H
w4hlvusPEn9wIqWat3MXTF5bRfsKFfAOWAZEpGIfgLtmIZK5pDCTUIzB
-----END CERTIFICATE-----
