Certificate:
    Data:
        Version: 3 (0x2)
        Serial Number: 11042563100179 (0xa0b0c0d0e13)
    Signature Algorithm: sha256WithRSAEncryption
        Issuer: CN=MUMBAICA_CA, C=IN, O=CITRIX, OU=ANG, ST=KA/emailAddress=MUMBAICA_CA@MUMBAICA_mail.com
        Validity
            Not Before: Jul  8 04:35:47 2016 GMT
            Not After : Jul  6 04:35:47 2026 GMT
        Subject: ST=KA, C=IN, CN=105_MUMBAICA_server/emailAddress=105_MUMBAICA@test_ca.com, O=CITRIX
        Subject Public Key Info:
            Public Key Algorithm: rsaEncryption
                Public-Key: (2048 bit)
                Modulus:
                    00:c5:29:b6:d5:d5:c7:b8:83:19:78:97:44:46:73:
                    0e:6f:5f:04:98:db:b7:8a:4f:1c:80:e8:d6:9f:52:
                    56:5a:59:86:df:bd:20:95:2a:ee:98:dd:fe:49:c0:
                    aa:51:8f:86:29:95:95:0f:d7:89:f9:d5:36:cf:89:
                    1e:7e:bd:1e:77:3d:78:50:43:9d:b2:23:b9:f0:0d:
                    ae:59:9d:cf:67:51:6f:9c:0c:55:9c:da:bc:fd:bb:
                    bd:ce:9b:d3:a5:8c:20:ac:b1:ec:a5:c3:41:53:24:
                    c5:16:12:b1:5d:3c:f6:69:6d:6d:c3:ff:f5:3b:89:
                    88:7f:c3:3c:0f:6c:82:b5:cb:94:aa:1b:ac:4e:25:
                    c4:c9:09:89:d2:6b:45:83:e1:3e:16:75:1f:0d:79:
                    97:96:9a:9a:a8:d2:96:11:8a:37:1d:0b:ad:de:bf:
                    d0:6e:be:39:7a:26:bf:8d:a9:d0:7e:0a:54:f4:96:
                    be:71:df:29:82:e2:87:67:1b:68:a8:50:90:7f:57:
                    08:cb:6b:26:d1:be:72:81:30:4c:aa:f3:b3:eb:a9:
                    03:e3:48:c3:ec:fe:3c:8c:c7:6f:60:e3:ad:8f:a6:
                    9f:e0:ea:19:81:a0:4d:2d:70:0c:bb:df:8f:72:18:
                    fb:6f:6f:9a:ae:39:37:48:83:62:21:09:31:2e:e1:
                    13:0d
                Exponent: 65537 (0x10001)
        X509v3 extensions:
            Netscape Cert Type: 
                SSL Server
            X509v3 Subject Key Identifier: 
                77:19:24:AC:39:3F:62:1D:1B:7C:C8:18:B1:16:AC:A3:39:7A:74:9E
            X509v3 Authority Key Identifier: 
                keyid:37:79:BF:65:19:98:28:32:4E:EF:3E:44:14:19:A9:83:2B:AF:05:7A
                DirName:/CN=MUMBAICA_CA/C=IN/O=CITRIX/OU=ANG/ST=KA/emailAddress=MUMBAICA_CA@MUMBAICA_mail.com
                serial:EE:B1:37:EE:F6:D2:14:91

            Authority Information Access: 
                OCSP - URI:http://MUMBAICA_one.ocsptest.com/responderpath

    Signature Algorithm: sha256WithRSAEncryption
         7d:a5:4c:b5:1f:62:19:b4:f2:19:21:8e:7d:4a:24:ca:64:ad:
         9e:88:18:42:81:5d:e6:32:fd:f7:f7:ba:50:f6:5f:e1:0f:df:
         8d:5a:d9:9e:a3:51:3f:b2:5e:63:4f:81:22:12:f0:b8:e5:ba:
         ae:ff:8c:58:2e:f6:6e:8b:95:cd:f9:5f:20:67:fc:f6:9f:bb:
         ca:b1:96:39:e5:31:ec:33:a0:f3:9c:b6:88:fa:f9:60:f3:9d:
         03:28:42:cf:70:aa:dc:d3:aa:97:8f:b0:f8:c5:aa:00:3f:4d:
         e8:b3:7d:9a:76:fa:60:d0:d4:65:47:3d:ee:a6:af:14:4d:2a:
         d9:cf:dd:92:38:4a:ca:e1:05:70:1e:9a:f4:7a:77:88:f9:d8:
         3d:a8:9f:68:f9:ab:87:4c:66:7a:bf:0c:35:73:ce:af:20:a5:
         a6:dd:ab:e4:b2:de:16:4b:12:26:b6:b5:89:8e:5e:74:8c:a9:
         e0:9b:6e:3c:ff:61:60:df:f4:dc:35:9a:8a:9c:9f:e2:20:7c:
         0c:75:33:d0:53:e6:d0:8a:5b:70:de:55:5a:23:10:0d:01:8f:
         37:cf:02:b1:e2:1b:65:9f:ee:61:c6:2e:c2:2c:8e:29:fb:39:
         af:f5:98:40:bc:42:23:6f:ef:66:7f:9b:59:bc:d9:96:2a:44:
         76:4e:4e:8e
-----BEGIN CERTIFICATE-----
MIIEpjCCA46gAwIBAgIGCgsMDQ4TMA0GCSqGSIb3DQEBCwUAMH0xFDASBgNVBAMU
C01VTUJBSUNBX0NBMQswCQYDVQQGEwJJTjEPMA0GA1UEChMGQ0lUUklYMQwwCgYD
VQQLEwNBTkcxCzAJBgNVBAgTAktBMSwwKgYJKoZIhvcNAQkBFh1NVU1CQUlDQV9D
QUBNVU1CQUlDQV9tYWlsLmNvbTAeFw0xNjA3MDgwNDM1NDdaFw0yNjA3MDYwNDM1
NDdaMHIxCzAJBgNVBAgTAktBMQswCQYDVQQGEwJJTjEcMBoGA1UEAxQTMTA1X01V
TUJBSUNBX3NlcnZlcjEnMCUGCSqGSIb3DQEJARYYMTA1X01VTUJBSUNBQHRlc3Rf
Y2EuY29tMQ8wDQYDVQQKEwZDSVRSSVgwggEiMA0GCSqGSIb3DQEBAQUAA4IBDwAw
ggEKAoIBAQDFKbbV1ce4gxl4l0RGcw5vXwSY27eKTxyA6NafUlZaWYbfvSCVKu6Y
3f5JwKpRj4YplZUP14n51TbPiR5+vR53PXhQQ52yI7nwDa5Znc9nUW+cDFWc2rz9
u73Om9OljCCsseylw0FTJMUWErFdPPZpbW3D//U7iYh/wzwPbIK1y5SqG6xOJcTJ
CYnSa0WD4T4WdR8NeZeWmpqo0pYRijcdC63ev9Buvjl6Jr+NqdB+ClT0lr5x3ymC
4odnG2ioUJB/VwjLaybRvnKBMEyq87PrqQPjSMPs/jyMx29g462Ppp/g6hmBoE0t
cAy7349yGPtvb5quOTdIg2IhCTEu4RMNAgMBAAGjggE1MIIBMTARBglghkgBhvhC
AQEEBAMCBkAwHQYDVR0OBBYEFHcZJKw5P2IdG3zIGLEWrKM5enSeMIGwBgNVHSME
gagwgaWAFDd5v2UZmCgyTu8+RBQZqYMrrwV6oYGBpH8wfTEUMBIGA1UEAxQLTVVN
QkFJQ0FfQ0ExCzAJBgNVBAYTAklOMQ8wDQYDVQQKEwZDSVRSSVgxDDAKBgNVBAsT
A0FORzELMAkGA1UECBMCS0ExLDAqBgkqhkiG9w0BCQEWHU1VTUJBSUNBX0NBQE1V
TUJBSUNBX21haWwuY29tggkA7rE37vbSFJEwSgYIKwYBBQUHAQEEPjA8MDoGCCsG
AQUFBzABhi5odHRwOi8vTVVNQkFJQ0Ffb25lLm9jc3B0ZXN0LmNvbS9yZXNwb25k
ZXJwYXRoMA0GCSqGSIb3DQEBCwUAA4IBAQB9pUy1H2IZtPIZIY59SiTKZK2eiBhC
gV3mMv3397pQ9l/hD9+NWtmeo1E/sl5jT4EiEvC45bqu/4xYLvZui5XN+V8gZ/z2
n7vKsZY55THsM6DznLaI+vlg850DKELPcKrc06qXj7D4xaoAP03os32advpg0NRl
Rz3upq8UTSrZz92SOErK4QVwHpr0eneI+dg9qJ9o+auHTGZ6vww1c86vIKWm3avk
st4WSxImtrWJjl50jKngm248/2Fg3/TcNZqKnJ/iIHwMdTPQU+bQiltw3lVaIxAN
AY83zwKx4htln+5hxi7CLI4p+zmv9ZhAvEIjb+9mf5tZvNmWKkR2Tk6O
-----END CERTIFICATE-----
