Certificate:
    Data:
        Version: 3 (0x2)
        Serial Number: 11042563100180 (0xa0b0c0d0e14)
    Signature Algorithm: sha256WithRSAEncryption
        Issuer: CN=MUMBAICA_CA, C=IN, O=CITRIX, OU=ANG, ST=KA/emailAddress=MUMBAICA_CA@MUMBAICA_mail.com
        Validity
            Not Before: Jul  8 04:35:48 2016 GMT
            Not After : Jul  6 04:35:48 2026 GMT
        Subject: ST=KA, C=IN, CN=106_MUMBAICA_server/emailAddress=106_MUMBAICA@test_ca.com, O=CITRIX
        Subject Public Key Info:
            Public Key Algorithm: rsaEncryption
                Public-Key: (2048 bit)
                Modulus:
                    00:d8:ba:bb:6d:b9:ad:2f:56:40:7b:29:df:32:6a:
                    37:b8:8b:9f:1c:d0:87:e8:1c:64:02:ae:e2:8c:1f:
                    03:70:d8:9f:0a:b3:ce:f6:41:49:8c:1a:81:44:8a:
                    14:2d:2e:91:14:4b:4e:ac:a0:d2:08:4e:5d:f9:8e:
                    7c:30:9e:60:e1:c6:c0:a8:e2:95:62:78:8f:46:f3:
                    1e:bc:6d:77:e5:fa:df:47:b9:d0:40:f7:1b:04:a5:
                    c2:32:b8:6d:49:75:36:37:79:2c:14:fe:56:0a:08:
                    eb:26:79:fe:91:29:ba:ed:1b:6d:5a:81:e8:4a:f0:
                    92:72:d4:6d:06:bb:3d:f8:48:f2:b9:ed:2f:52:49:
                    58:74:a7:5a:07:87:33:ad:c7:44:ba:e0:20:79:1a:
                    68:d6:1e:c9:07:8a:cf:73:ca:d2:1f:53:a6:88:44:
                    11:5a:7e:9e:51:8f:12:ee:b6:c3:af:72:99:a0:e3:
                    33:14:a3:30:74:1c:bf:e4:c7:23:52:d7:2c:4f:90:
                    3f:a8:75:da:e8:8f:e1:40:13:80:ed:9f:28:d9:52:
                    5a:8b:80:0d:c7:b0:8b:74:67:a1:f4:08:95:3d:bd:
                    6e:75:7e:d2:d3:6f:29:8b:c4:95:08:e5:6e:d9:22:
                    dc:d1:99:b0:1f:26:61:25:6d:eb:b3:e2:b8:e4:f3:
                    60:13
                Exponent: 65537 (0x10001)
        X509v3 extensions:
            Netscape Cert Type: 
                SSL Server
            X509v3 Subject Key Identifier: 
                CA:99:12:22:85:B4:E9:F9:42:C1:D0:3A:9D:92:8B:58:33:6B:F9:AE
            X509v3 Authority Key Identifier: 
                keyid:37:79:BF:65:19:98:28:32:4E:EF:3E:44:14:19:A9:83:2B:AF:05:7A
                DirName:/CN=MUMBAICA_CA/C=IN/O=CITRIX/OU=ANG/ST=KA/emailAddress=MUMBAICA_CA@MUMBAICA_mail.com
                serial:EE:B1:37:EE:F6:D2:14:91

            Authority Information Access: 
                OCSP - URI:http://MUMBAICA_one.ocsptest.com/responderpath

    Signature Algorithm: sha256WithRSAEncryption
         72:95:52:67:01:d4:25:ae:fa:fc:51:a9:7c:10:22:3f:ae:4d:
         9c:d8:f0:29:81:6e:70:ae:54:97:4e:8d:04:a3:02:bf:5e:16:
         7e:9f:14:92:85:06:56:b3:a3:0b:4a:fe:a9:8c:5c:51:f6:89:
         e1:8c:dc:b4:ee:7d:65:66:0f:a7:d8:51:81:02:8a:f0:d6:9a:
         e5:74:8a:94:54:60:2d:28:fc:c0:c4:3c:8a:a0:ae:0c:28:fc:
         16:bc:ca:eb:92:cc:93:2f:4a:f8:81:a8:89:b0:43:b1:d1:fb:
         9b:62:c4:18:bc:06:80:cc:c2:cc:0b:25:2c:12:c8:76:6c:7a:
         63:a8:62:a1:15:25:c0:97:35:ae:ac:d0:90:08:34:0e:0f:eb:
         92:cc:89:c1:5a:3c:51:21:f9:26:70:b9:46:e3:d0:bf:f1:aa:
         10:e0:19:1b:2d:e4:30:ee:2a:d2:23:74:d5:a9:e4:bf:a3:46:
         f0:fe:13:66:c8:df:d7:13:b7:23:28:d4:8d:2a:60:96:e2:5f:
         5a:fc:6f:40:af:3a:12:91:30:ab:6f:17:91:a2:88:d3:31:14:
         87:57:9a:a4:8a:e0:7d:1c:93:3e:49:99:36:e3:05:e1:fb:c5:
         ff:aa:eb:41:a4:c9:c6:90:d5:54:a0:ff:39:de:78:09:87:7b:
         7f:69:f1:1a
-----BEGIN CERTIFICATE-----
MIIEpjCCA46gAwIBAgIGCgsMDQ4UMA0GCSqGSIb3DQEBCwUAMH0xFDASBgNVBAMU
C01VTUJBSUNBX0NBMQswCQYDVQQGEwJJTjEPMA0GA1UEChMGQ0lUUklYMQwwCgYD
VQQLEwNBTkcxCzAJBgNVBAgTAktBMSwwKgYJKoZIhvcNAQkBFh1NVU1CQUlDQV9D
QUBNVU1CQUlDQV9tYWlsLmNvbTAeFw0xNjA3MDgwNDM1NDhaFw0yNjA3MDYwNDM1
NDhaMHIxCzAJBgNVBAgTAktBMQswCQYDVQQGEwJJTjEcMBoGA1UEAxQTMTA2X01V
TUJBSUNBX3NlcnZlcjEnMCUGCSqGSIb3DQEJARYYMTA2X01VTUJBSUNBQHRlc3Rf
Y2EuY29tMQ8wDQYDVQQKEwZDSVRSSVgwggEiMA0GCSqGSIb3DQEBAQUAA4IBDwAw
ggEKAoIBAQDYurttua0vVkB7Kd8yaje4i58c0IfoHGQCruKMHwNw2J8Ks872QUmM
GoFEihQtLpEUS06soNIITl35jnwwnmDhxsCo4pVieI9G8x68bXfl+t9HudBA9xsE
pcIyuG1JdTY3eSwU/lYKCOsmef6RKbrtG21agehK8JJy1G0Guz34SPK57S9SSVh0
p1oHhzOtx0S64CB5GmjWHskHis9zytIfU6aIRBFafp5RjxLutsOvcpmg4zMUozB0
HL/kxyNS1yxPkD+oddroj+FAE4DtnyjZUlqLgA3HsIt0Z6H0CJU9vW51ftLTbymL
xJUI5W7ZItzRmbAfJmElbeuz4rjk82ATAgMBAAGjggE1MIIBMTARBglghkgBhvhC
AQEEBAMCBkAwHQYDVR0OBBYEFMqZEiKFtOn5QsHQOp2Si1gza/muMIGwBgNVHSME
gagwgaWAFDd5v2UZmCgyTu8+RBQZqYMrrwV6oYGBpH8wfTEUMBIGA1UEAxQLTVVN
QkFJQ0FfQ0ExCzAJBgNVBAYTAklOMQ8wDQYDVQQKEwZDSVRSSVgxDDAKBgNVBAsT
A0FORzELMAkGA1UECBMCS0ExLDAqBgkqhkiG9w0BCQEWHU1VTUJBSUNBX0NBQE1V
TUJBSUNBX21haWwuY29tggkA7rE37vbSFJEwSgYIKwYBBQUHAQEEPjA8MDoGCCsG
AQUFBzABhi5odHRwOi8vTVVNQkFJQ0Ffb25lLm9jc3B0ZXN0LmNvbS9yZXNwb25k
ZXJwYXRoMA0GCSqGSIb3DQEBCwUAA4IBAQBylVJnAdQlrvr8Ual8ECI/rk2c2PAp
gW5wrlSXTo0EowK/XhZ+nxSShQZWs6MLSv6pjFxR9onhjNy07n1lZg+n2FGBAorw
1prldIqUVGAtKPzAxDyKoK4MKPwWvMrrksyTL0r4gaiJsEOx0fubYsQYvAaAzMLM
CyUsEsh2bHpjqGKhFSXAlzWurNCQCDQOD+uSzInBWjxRIfkmcLlG49C/8aoQ4Bkb
LeQw7irSI3TVqeS/o0bw/hNmyN/XE7cjKNSNKmCW4l9a/G9ArzoSkTCrbxeRoojT
MRSHV5qkiuB9HJM+SZk24wXh+8X/qutBpMnGkNVUoP853ngJh3t/afEa
-----END CERTIFICATE-----
