Certificate:
    Data:
        Version: 3 (0x2)
        Serial Number: 11042563100184 (0xa0b0c0d0e18)
    Signature Algorithm: sha256WithRSAEncryption
        Issuer: CN=MUMBAICA_CA, C=IN, O=CITRIX, OU=ANG, ST=KA/emailAddress=MUMBAICA_CA@MUMBAICA_mail.com
        Validity
            Not Before: Jul  8 04:35:49 2016 GMT
            Not After : Jul  6 04:35:49 2026 GMT
        Subject: ST=KA, C=IN, CN=110_MUMBAICA_server/emailAddress=110_MUMBAICA@test_ca.com, O=CITRIX
        Subject Public Key Info:
            Public Key Algorithm: rsaEncryption
                Public-Key: (2048 bit)
                Modulus:
                    00:a5:6e:fa:92:8f:55:ae:ea:75:ff:fa:88:26:23:
                    10:33:3b:47:c9:a0:a7:0f:d7:c9:08:f5:22:9e:6c:
                    f1:ad:97:29:29:71:92:a0:2b:74:4f:dd:51:5f:35:
                    4f:f4:a2:f2:ce:e5:87:c7:6e:44:4e:36:c0:6c:07:
                    ce:10:f0:dc:a3:0d:92:fd:8e:c5:30:a2:fb:de:7f:
                    e5:4d:d2:c3:5c:7e:81:35:b9:48:85:c0:7f:16:5c:
                    bb:ca:31:22:23:65:de:95:67:34:13:53:8d:91:02:
                    b1:64:92:19:3b:7d:67:24:c6:c2:ef:d0:85:c8:70:
                    2e:26:f3:ea:d9:56:2a:fa:6b:e7:03:f8:8e:e0:29:
                    ac:94:19:ff:0e:fc:a3:e2:c7:01:0f:bb:8e:85:e7:
                    fb:07:84:79:b8:33:c5:00:69:24:28:e6:2b:93:ec:
                    c6:f4:d4:8b:ec:34:ab:f5:a3:e7:a7:81:ba:70:97:
                    bc:68:fb:b8:52:4a:70:85:12:02:75:5a:98:51:7f:
                    1f:ff:76:f7:80:e5:44:fd:86:cb:1e:49:27:b2:4b:
                    16:21:2f:3c:88:7d:40:3f:0b:a0:25:ac:ca:ad:1d:
                    d5:cb:7d:34:db:2e:b2:cb:35:fa:98:65:bc:35:b2:
                    ff:fc:4e:a1:be:e2:d9:27:29:c5:93:06:7a:c7:0e:
                    b7:3f
                Exponent: 65537 (0x10001)
        X509v3 extensions:
            Netscape Cert Type: 
                SSL Server
            X509v3 Subject Key Identifier: 
                9A:F7:EC:BF:AA:9A:32:7D:A5:A5:EE:8C:4C:86:84:DD:63:75:A3:8F
            X509v3 Authority Key Identifier: 
                keyid:37:79:BF:65:19:98:28:32:4E:EF:3E:44:14:19:A9:83:2B:AF:05:7A
                DirName:/CN=MUMBAICA_CA/C=IN/O=CITRIX/OU=ANG/ST=KA/emailAddress=MUMBAICA_CA@MUMBAICA_mail.com
                serial:EE:B1:37:EE:F6:D2:14:91

            Authority Information Access: 
                OCSP - URI:http://MUMBAICA_one.ocsptest.com/responderpath

    Signature Algorithm: sha256WithRSAEncryption
         ab:9e:08:20:29:aa:f7:45:55:ca:a7:c0:61:d7:93:5f:98:5b:
         9b:e4:b1:c2:e4:85:19:71:17:05:30:0d:86:f0:c0:71:bf:4e:
         25:2e:c8:55:9d:9d:e0:2e:f7:e8:e0:db:7a:b3:fa:4a:7c:8b:
         ae:c7:e9:e2:4a:7b:c7:9d:65:80:59:af:33:e8:81:e6:e3:5a:
         28:42:be:75:75:58:1f:c6:a8:63:df:88:c6:53:0e:07:e2:10:
         d3:11:f0:e9:f2:a6:94:d9:18:69:4d:02:ea:33:83:30:f6:4b:
         13:94:3b:7c:22:95:f5:19:40:0b:ae:e1:b2:24:ae:a4:cc:4a:
         69:fe:92:5f:26:ce:42:67:72:c5:01:ec:1f:1d:48:1b:f2:24:
         cd:30:88:c0:b3:52:4b:79:16:4b:8d:af:cb:b4:8e:f3:e4:22:
         46:84:a3:11:96:fc:53:7a:9a:bd:bc:28:b2:53:aa:ab:27:ee:
         6d:e9:40:24:0d:5d:0c:70:0a:4d:3e:88:26:0a:94:f4:0f:70:
         65:b3:9b:04:3c:8b:d4:a5:44:0b:6d:15:aa:9b:d1:45:9a:20:
         29:be:68:34:00:cd:c0:33:dc:7b:4d:f6:c3:b4:b6:18:56:b8:
         e2:3c:58:10:fd:f3:13:55:49:b0:96:ec:81:ea:ed:57:0f:8c:
         24:c2:ff:dc
-----BEGIN CERTIFICATE-----
MIIEpjCCA46gAwIBAgIGCgsMDQ4YMA0GCSqGSIb3DQEBCwUAMH0xFDASBgNVBAMU
C01VTUJBSUNBX0NBMQswCQYDVQQGEwJJTjEPMA0GA1UEChMGQ0lUUklYMQwwCgYD
VQQLEwNBTkcxCzAJBgNVBAgTAktBMSwwKgYJKoZIhvcNAQkBFh1NVU1CQUlDQV9D
QUBNVU1CQUlDQV9tYWlsLmNvbTAeFw0xNjA3MDgwNDM1NDlaFw0yNjA3MDYwNDM1
NDlaMHIxCzAJBgNVBAgTAktBMQswCQYDVQQGEwJJTjEcMBoGA1UEAxQTMTEwX01V
TUJBSUNBX3NlcnZlcjEnMCUGCSqGSIb3DQEJARYYMTEwX01VTUJBSUNBQHRlc3Rf
Y2EuY29tMQ8wDQYDVQQKEwZDSVRSSVgwggEiMA0GCSqGSIb3DQEBAQUAA4IBDwAw
ggEKAoIBAQClbvqSj1Wu6nX/+ogmIxAzO0fJoKcP18kI9SKebPGtlykpcZKgK3RP
3VFfNU/0ovLO5YfHbkRONsBsB84Q8NyjDZL9jsUwovvef+VN0sNcfoE1uUiFwH8W
XLvKMSIjZd6VZzQTU42RArFkkhk7fWckxsLv0IXIcC4m8+rZVir6a+cD+I7gKayU
Gf8O/KPixwEPu46F5/sHhHm4M8UAaSQo5iuT7Mb01IvsNKv1o+engbpwl7xo+7hS
SnCFEgJ1WphRfx//dveA5UT9hsseSSeySxYhLzyIfUA/C6AlrMqtHdXLfTTbLrLL
NfqYZbw1sv/8TqG+4tknKcWTBnrHDrc/AgMBAAGjggE1MIIBMTARBglghkgBhvhC
AQEEBAMCBkAwHQYDVR0OBBYEFJr37L+qmjJ9paXujEyGhN1jdaOPMIGwBgNVHSME
gagwgaWAFDd5v2UZmCgyTu8+RBQZqYMrrwV6oYGBpH8wfTEUMBIGA1UEAxQLTVVN
QkFJQ0FfQ0ExCzAJBgNVBAYTAklOMQ8wDQYDVQQKEwZDSVRSSVgxDDAKBgNVBAsT
A0FORzELMAkGA1UECBMCS0ExLDAqBgkqhkiG9w0BCQEWHU1VTUJBSUNBX0NBQE1V
TUJBSUNBX21haWwuY29tggkA7rE37vbSFJEwSgYIKwYBBQUHAQEEPjA8MDoGCCsG
AQUFBzABhi5odHRwOi8vTVVNQkFJQ0Ffb25lLm9jc3B0ZXN0LmNvbS9yZXNwb25k
ZXJwYXRoMA0GCSqGSIb3DQEBCwUAA4IBAQCrngggKar3RVXKp8Bh15NfmFub5LHC
5IUZcRcFMA2G8MBxv04lLshVnZ3gLvfo4Nt6s/pKfIuux+niSnvHnWWAWa8z6IHm
41ooQr51dVgfxqhj34jGUw4H4hDTEfDp8qaU2RhpTQLqM4Mw9ksTlDt8IpX1GUAL
ruGyJK6kzEpp/pJfJs5CZ3LFAewfHUgb8iTNMIjAs1JLeRZLja/LtI7z5CJGhKMR
lvxTepq9vCiyU6qrJ+5t6UAkDV0McApNPogmCpT0D3Bls5sEPIvUpUQLbRWqm9FF
miApvmg0AM3AM9x7TfbDtLYYVrjiPFgQ/fMTVUmwluyB6u1XD4wkwv/c
-----END CERTIFICATE-----
