Certificate:
    Data:
        Version: 3 (0x2)
        Serial Number: 11042563100186 (0xa0b0c0d0e1a)
    Signature Algorithm: sha256WithRSAEncryption
        Issuer: CN=MUMBAICA_CA, C=IN, O=CITRIX, OU=ANG, ST=KA/emailAddress=MUMBAICA_CA@MUMBAICA_mail.com
        Validity
            Not Before: Jul  8 04:35:49 2016 GMT
            Not After : Jul  6 04:35:49 2026 GMT
        Subject: ST=KA, C=IN, CN=112_MUMBAICA_server/emailAddress=112_MUMBAICA@test_ca.com, O=CITRIX
        Subject Public Key Info:
            Public Key Algorithm: rsaEncryption
                Public-Key: (2048 bit)
                Modulus:
                    00:ad:49:5f:e9:5a:aa:b5:d8:59:67:31:48:52:c7:
                    9f:31:08:30:0e:94:61:fe:14:b3:10:16:1a:54:e0:
                    99:8c:5c:d5:0c:5d:5f:6e:ea:20:75:38:67:1f:f8:
                    49:4b:5a:72:e7:77:83:da:2b:59:1d:be:fc:d0:1f:
                    c7:9b:93:7a:5e:7a:44:da:be:1b:9d:33:65:ed:09:
                    ea:22:2c:99:5b:a8:79:cc:4c:89:d5:9c:b5:bc:6a:
                    23:96:99:9c:62:66:6f:58:ee:78:3f:08:3e:ff:f7:
                    dc:52:3e:0b:a2:c1:a2:37:ef:04:5f:81:de:e5:ec:
                    df:be:72:cd:1e:9a:16:d3:c5:d6:8c:e7:e9:c0:13:
                    18:85:df:cd:35:27:c2:66:55:98:e0:99:83:12:41:
                    5e:2b:6b:b0:2c:e9:95:82:d3:52:b4:6d:23:89:f0:
                    39:f5:82:fa:87:35:32:b5:35:11:f2:9c:0d:9a:65:
                    1a:67:41:e1:8a:46:bc:7b:af:12:5e:ba:f2:f2:ec:
                    4d:1a:af:59:68:53:ba:e7:3e:e2:b1:15:df:76:64:
                    a8:3d:71:2e:d6:90:d8:3d:29:ad:07:02:d7:5d:e0:
                    1a:00:cf:87:91:95:69:07:88:d5:79:c7:00:51:ad:
                    95:cf:c7:a6:30:1a:56:76:5e:7f:6a:a7:e6:9d:06:
                    02:d9
                Exponent: 65537 (0x10001)
        X509v3 extensions:
            Netscape Cert Type: 
                SSL Server
            X509v3 Subject Key Identifier: 
                B9:20:FD:D0:06:2D:BC:13:63:F9:5A:44:7D:EA:87:85:15:D3:7F:D1
            X509v3 Authority Key Identifier: 
                keyid:37:79:BF:65:19:98:28:32:4E:EF:3E:44:14:19:A9:83:2B:AF:05:7A
                DirName:/CN=MUMBAICA_CA/C=IN/O=CITRIX/OU=ANG/ST=KA/emailAddress=MUMBAICA_CA@MUMBAICA_mail.com
                serial:EE:B1:37:EE:F6:D2:14:91

            Authority Information Access: 
                OCSP - URI:http://MUMBAICA_two.ocsptest.com/responderpath

    Signature Algorithm: sha256WithRSAEncryption
         18:70:cd:07:84:1d:90:16:c2:b5:78:3d:9b:69:5a:a7:31:5e:
         af:ab:c3:b4:5c:88:00:c8:09:47:16:dd:94:a9:ec:17:cf:47:
         ac:2f:8d:d7:71:c2:92:b8:7f:eb:73:10:0c:e2:eb:73:a4:bd:
         3d:31:11:48:89:49:2f:5f:8a:be:66:75:b9:20:37:e8:43:21:
         b7:5c:98:ba:9d:c5:3a:cb:41:ee:76:1f:97:9a:e3:95:0c:22:
         fc:24:dd:35:2b:d2:06:40:59:6d:1b:ad:9c:7a:59:82:ca:95:
         c4:30:81:ba:cb:0c:52:ef:5c:72:28:c3:0d:74:ad:86:c4:16:
         bc:98:04:ce:43:a2:28:a0:07:b7:84:bd:ae:df:61:67:3e:f3:
         07:62:1d:8b:09:bd:9c:a7:e8:a7:16:d6:d6:1a:73:f0:0e:c1:
         9c:da:fa:c0:27:47:7f:29:ae:86:a2:c4:13:65:cf:70:2c:48:
         fd:93:dd:30:56:50:39:ea:91:fc:f5:97:59:94:8b:cc:13:94:
         d5:8e:19:9e:c2:67:3b:33:e4:90:27:bb:c6:62:51:7e:ad:3c:
         bd:e3:13:8f:bf:87:f7:e3:0f:48:e8:65:1a:a6:3d:fa:48:ac:
         01:59:9f:3c:ee:39:b6:9d:18:e0:ea:d2:c2:97:8d:d2:5f:8c:
         16:31:aa:ea
-----BEGIN CERTIFICATE-----
MIIEpjCCA46gAwIBAgIGCgsMDQ4aMA0GCSqGSIb3DQEBCwUAMH0xFDASBgNVBAMU
C01VTUJBSUNBX0NBMQswCQYDVQQGEwJJTjEPMA0GA1UEChMGQ0lUUklYMQwwCgYD
VQQLEwNBTkcxCzAJBgNVBAgTAktBMSwwKgYJKoZIhvcNAQkBFh1NVU1CQUlDQV9D
QUBNVU1CQUlDQV9tYWlsLmNvbTAeFw0xNjA3MDgwNDM1NDlaFw0yNjA3MDYwNDM1
NDlaMHIxCzAJBgNVBAgTAktBMQswCQYDVQQGEwJJTjEcMBoGA1UEAxQTMTEyX01V
TUJBSUNBX3NlcnZlcjEnMCUGCSqGSIb3DQEJARYYMTEyX01VTUJBSUNBQHRlc3Rf
Y2EuY29tMQ8wDQYDVQQKEwZDSVRSSVgwggEiMA0GCSqGSIb3DQEBAQUAA4IBDwAw
ggEKAoIBAQCtSV/pWqq12FlnMUhSx58xCDAOlGH+FLMQFhpU4JmMXNUMXV9u6iB1
OGcf+ElLWnLnd4PaK1kdvvzQH8ebk3peekTavhudM2XtCeoiLJlbqHnMTInVnLW8
aiOWmZxiZm9Y7ng/CD7/99xSPguiwaI37wRfgd7l7N++cs0emhbTxdaM5+nAExiF
3801J8JmVZjgmYMSQV4ra7As6ZWC01K0bSOJ8Dn1gvqHNTK1NRHynA2aZRpnQeGK
Rrx7rxJeuvLy7E0ar1loU7rnPuKxFd92ZKg9cS7WkNg9Ka0HAtdd4BoAz4eRlWkH
iNV5xwBRrZXPx6YwGlZ2Xn9qp+adBgLZAgMBAAGjggE1MIIBMTARBglghkgBhvhC
AQEEBAMCBkAwHQYDVR0OBBYEFLkg/dAGLbwTY/laRH3qh4UV03/RMIGwBgNVHSME
gagwgaWAFDd5v2UZmCgyTu8+RBQZqYMrrwV6oYGBpH8wfTEUMBIGA1UEAxQLTVVN
QkFJQ0FfQ0ExCzAJBgNVBAYTAklOMQ8wDQYDVQQKEwZDSVRSSVgxDDAKBgNVBAsT
A0FORzELMAkGA1UECBMCS0ExLDAqBgkqhkiG9w0BCQEWHU1VTUJBSUNBX0NBQE1V
TUJBSUNBX21haWwuY29tggkA7rE37vbSFJEwSgYIKwYBBQUHAQEEPjA8MDoGCCsG
AQUFBzABhi5odHRwOi8vTVVNQkFJQ0FfdHdvLm9jc3B0ZXN0LmNvbS9yZXNwb25k
ZXJwYXRoMA0GCSqGSIb3DQEBCwUAA4IBAQAYcM0HhB2QFsK1eD2baVqnMV6vq8O0
XIgAyAlHFt2UqewXz0esL43XccKSuH/rcxAM4utzpL09MRFIiUkvX4q+ZnW5IDfo
QyG3XJi6ncU6y0Hudh+XmuOVDCL8JN01K9IGQFltG62celmCypXEMIG6ywxS71xy
KMMNdK2GxBa8mATOQ6IooAe3hL2u32FnPvMHYh2LCb2cp+inFtbWGnPwDsGc2vrA
J0d/Ka6GosQTZc9wLEj9k90wVlA56pH89ZdZlIvME5TVjhmewmc7M+SQJ7vGYlF+
rTy94xOPv4f34w9I6GUapj36SKwBWZ887jm2nRjg6tLCl43SX4wWMarq
-----END CERTIFICATE-----
