Certificate:
    Data:
        Version: 3 (0x2)
        Serial Number: 11042563100187 (0xa0b0c0d0e1b)
    Signature Algorithm: sha256WithRSAEncryption
        Issuer: CN=MUMBAICA_CA, C=IN, O=CITRIX, OU=ANG, ST=KA/emailAddress=MUMBAICA_CA@MUMBAICA_mail.com
        Validity
            Not Before: Jul  8 04:35:49 2016 GMT
            Not After : Jul  6 04:35:49 2026 GMT
        Subject: ST=KA, C=IN, CN=113_MUMBAICA_server/emailAddress=113_MUMBAICA@test_ca.com, O=CITRIX
        Subject Public Key Info:
            Public Key Algorithm: rsaEncryption
                Public-Key: (2048 bit)
                Modulus:
                    00:9a:36:5c:49:76:b9:4f:85:d9:32:1b:cb:ac:8c:
                    2d:e5:b2:0a:f4:04:5c:1a:b1:13:4c:f3:cc:53:7f:
                    bc:6a:e8:59:be:53:5d:8d:14:10:5a:e8:bf:39:bd:
                    28:54:f5:01:21:a6:8c:dc:eb:33:7a:72:d8:2c:e4:
                    9d:24:24:69:0e:21:65:6a:29:10:54:70:a2:62:91:
                    db:54:60:50:8a:fa:7a:94:be:52:ef:e8:6a:3d:b5:
                    28:dd:65:01:50:7d:51:f1:40:97:2d:59:41:da:41:
                    cd:9f:8d:a6:a1:37:71:67:11:76:fd:ca:12:54:9e:
                    e1:19:9d:32:01:8a:f2:8c:29:56:c1:31:45:23:75:
                    91:58:b0:fd:05:4b:bb:61:f7:51:17:72:97:9d:1f:
                    8b:47:a7:6e:0b:b1:e1:9e:1c:76:1a:34:aa:25:9c:
                    95:70:dc:2c:85:47:75:e8:eb:ef:8c:09:a7:20:cd:
                    a5:52:ff:4a:0a:fd:5e:e4:d6:aa:df:1f:fa:52:06:
                    54:e3:b0:06:8e:68:f3:3f:24:7b:dd:80:f2:b6:ed:
                    4c:c8:c1:03:17:4b:af:ac:4b:d6:bb:d1:75:14:81:
                    32:7e:ed:aa:d6:93:49:86:dd:b5:63:43:fe:96:00:
                    5e:e8:a0:0e:ad:f4:14:07:84:ea:0e:b8:75:71:b2:
                    9a:af
                Exponent: 65537 (0x10001)
        X509v3 extensions:
            Netscape Cert Type: 
                SSL Server
            X509v3 Subject Key Identifier: 
                A9:8D:32:9C:82:A2:80:B5:20:47:F3:A1:23:A4:B5:7E:B8:5D:BF:1D
            X509v3 Authority Key Identifier: 
                keyid:37:79:BF:65:19:98:28:32:4E:EF:3E:44:14:19:A9:83:2B:AF:05:7A
                DirName:/CN=MUMBAICA_CA/C=IN/O=CITRIX/OU=ANG/ST=KA/emailAddress=MUMBAICA_CA@MUMBAICA_mail.com
                serial:EE:B1:37:EE:F6:D2:14:91

            Authority Information Access: 
                OCSP - URI:http://MUMBAICA_two.ocsptest.com/responderpath

    Signature Algorithm: sha256WithRSAEncryption
         37:30:03:1e:ea:59:b0:d8:0e:38:5a:0d:c4:ac:3d:ab:38:70:
         fb:4a:2e:ed:92:cc:6a:a0:9c:a9:7d:2b:bd:aa:e4:68:58:fc:
         44:05:58:af:30:d5:1c:74:1c:ec:4d:23:41:b6:a1:c8:0d:96:
         51:79:15:f7:af:44:40:18:b8:de:50:7a:b5:ce:20:4d:a1:b8:
         79:a3:3d:47:1a:d8:71:6e:2b:73:e6:cd:94:85:90:2d:7d:a4:
         3e:97:55:ba:f7:a3:66:54:30:dd:d7:31:2d:0b:19:5e:bf:ae:
         e3:78:93:a5:f2:e0:18:86:1b:be:e9:46:06:01:2a:9c:75:90:
         e3:05:ed:bd:95:2f:68:68:9d:b7:05:78:90:23:5f:21:8e:db:
         a2:1e:d0:d6:05:5d:2f:a1:92:50:40:ef:5a:89:23:86:d3:86:
         b3:ad:92:a2:65:44:ca:53:e4:ef:30:7c:12:6c:33:b5:07:d0:
         ff:1c:56:7c:5d:99:9e:0d:fe:a7:05:c8:cf:99:85:bb:cb:49:
         b3:73:b0:fd:65:04:df:80:e3:59:5c:3a:aa:3e:df:49:7a:26:
         af:6a:ce:31:a6:24:05:1a:2f:cb:7e:63:03:06:7d:b3:41:f0:
         c2:cc:9f:e2:90:41:23:c7:e0:d5:e3:d3:15:89:71:76:9d:bb:
         8e:0e:19:eb
-----BEGIN CERTIFICATE-----
MIIEpjCCA46gAwIBAgIGCgsMDQ4bMA0GCSqGSIb3DQEBCwUAMH0xFDASBgNVBAMU
C01VTUJBSUNBX0NBMQswCQYDVQQGEwJJTjEPMA0GA1UEChMGQ0lUUklYMQwwCgYD
VQQLEwNBTkcxCzAJBgNVBAgTAktBMSwwKgYJKoZIhvcNAQkBFh1NVU1CQUlDQV9D
QUBNVU1CQUlDQV9tYWlsLmNvbTAeFw0xNjA3MDgwNDM1NDlaFw0yNjA3MDYwNDM1
NDlaMHIxCzAJBgNVBAgTAktBMQswCQYDVQQGEwJJTjEcMBoGA1UEAxQTMTEzX01V
TUJBSUNBX3NlcnZlcjEnMCUGCSqGSIb3DQEJARYYMTEzX01VTUJBSUNBQHRlc3Rf
Y2EuY29tMQ8wDQYDVQQKEwZDSVRSSVgwggEiMA0GCSqGSIb3DQEBAQUAA4IBDwAw
ggEKAoIBAQCaNlxJdrlPhdkyG8usjC3lsgr0BFwasRNM88xTf7xq6Fm+U12NFBBa
6L85vShU9QEhpozc6zN6ctgs5J0kJGkOIWVqKRBUcKJikdtUYFCK+nqUvlLv6Go9
tSjdZQFQfVHxQJctWUHaQc2fjaahN3FnEXb9yhJUnuEZnTIBivKMKVbBMUUjdZFY
sP0FS7th91EXcpedH4tHp24LseGeHHYaNKolnJVw3CyFR3Xo6++MCacgzaVS/0oK
/V7k1qrfH/pSBlTjsAaOaPM/JHvdgPK27UzIwQMXS6+sS9a70XUUgTJ+7arWk0mG
3bVjQ/6WAF7ooA6t9BQHhOoOuHVxspqvAgMBAAGjggE1MIIBMTARBglghkgBhvhC
AQEEBAMCBkAwHQYDVR0OBBYEFKmNMpyCooC1IEfzoSOktX64Xb8dMIGwBgNVHSME
gagwgaWAFDd5v2UZmCgyTu8+RBQZqYMrrwV6oYGBpH8wfTEUMBIGA1UEAxQLTVVN
QkFJQ0FfQ0ExCzAJBgNVBAYTAklOMQ8wDQYDVQQKEwZDSVRSSVgxDDAKBgNVBAsT
A0FORzELMAkGA1UECBMCS0ExLDAqBgkqhkiG9w0BCQEWHU1VTUJBSUNBX0NBQE1V
TUJBSUNBX21haWwuY29tggkA7rE37vbSFJEwSgYIKwYBBQUHAQEEPjA8MDoGCCsG
AQUFBzABhi5odHRwOi8vTVVNQkFJQ0FfdHdvLm9jc3B0ZXN0LmNvbS9yZXNwb25k
ZXJwYXRoMA0GCSqGSIb3DQEBCwUAA4IBAQA3MAMe6lmw2A44Wg3ErD2rOHD7Si7t
ksxqoJypfSu9quRoWPxEBVivMNUcdBzsTSNBtqHIDZZReRX3r0RAGLjeUHq1ziBN
obh5oz1HGthxbitz5s2UhZAtfaQ+l1W696NmVDDd1zEtCxlev67jeJOl8uAYhhu+
6UYGASqcdZDjBe29lS9oaJ23BXiQI18hjtuiHtDWBV0voZJQQO9aiSOG04azrZKi
ZUTKU+TvMHwSbDO1B9D/HFZ8XZmeDf6nBcjPmYW7y0mzc7D9ZQTfgONZXDqqPt9J
eiavas4xpiQFGi/LfmMDBn2zQfDCzJ/ikEEjx+DV49MViXF2nbuODhnr
-----END CERTIFICATE-----
