Certificate:
    Data:
        Version: 3 (0x2)
        Serial Number: 11042563100188 (0xa0b0c0d0e1c)
    Signature Algorithm: sha256WithRSAEncryption
        Issuer: CN=MUMBAICA_CA, C=IN, O=CITRIX, OU=ANG, ST=KA/emailAddress=MUMBAICA_CA@MUMBAICA_mail.com
        Validity
            Not Before: Jul  8 04:35:50 2016 GMT
            Not After : Jul  6 04:35:50 2026 GMT
        Subject: ST=KA, C=IN, CN=114_MUMBAICA_server/emailAddress=114_MUMBAICA@test_ca.com, O=CITRIX
        Subject Public Key Info:
            Public Key Algorithm: rsaEncryption
                Public-Key: (2048 bit)
                Modulus:
                    00:e2:11:1b:23:20:7a:6e:fb:69:b3:6d:10:76:39:
                    3f:44:70:5c:ee:ea:8d:30:45:91:f9:71:74:78:5d:
                    f2:16:8b:51:e3:b6:5d:68:a6:60:1a:1c:96:b7:cc:
                    fe:24:b1:89:26:fb:bb:9a:d2:f2:c8:93:28:14:84:
                    f0:17:7d:f7:ce:f7:6e:b1:29:7e:69:12:92:d1:ce:
                    34:da:3d:7a:d8:e5:2d:dc:e4:cd:2a:26:0a:29:6a:
                    7a:b6:16:a1:fc:08:c8:24:2b:e5:b2:1b:fd:59:00:
                    fb:b0:22:67:28:52:bf:93:af:c4:8d:57:54:00:df:
                    0c:02:82:41:36:99:8f:9d:67:d9:40:a9:2c:38:98:
                    b6:14:1f:c7:6e:94:7c:41:2c:58:42:93:31:71:b9:
                    ae:86:49:b7:e8:ea:3c:d0:b9:cd:ca:e7:8f:3d:87:
                    b7:49:ae:f9:1a:b7:1b:ed:10:29:d6:95:83:62:f3:
                    3c:56:02:86:af:b5:27:cd:22:66:9a:65:f5:c6:89:
                    ef:b7:bc:22:90:23:bf:91:86:26:56:c5:04:14:1f:
                    3d:44:f4:a1:53:db:70:1e:25:68:6d:69:92:a7:21:
                    53:55:87:1b:30:f6:3e:66:ba:46:98:72:38:1a:61:
                    e2:16:ba:17:9d:38:fb:27:16:62:c0:2d:0b:97:71:
                    fb:e7
                Exponent: 65537 (0x10001)
        X509v3 extensions:
            Netscape Cert Type: 
                SSL Server
            X509v3 Subject Key Identifier: 
                70:6F:D8:F7:C3:EE:E2:DD:E7:E0:85:87:24:78:04:B8:E5:6B:D5:FF
            X509v3 Authority Key Identifier: 
                keyid:37:79:BF:65:19:98:28:32:4E:EF:3E:44:14:19:A9:83:2B:AF:05:7A
                DirName:/CN=MUMBAICA_CA/C=IN/O=CITRIX/OU=ANG/ST=KA/emailAddress=MUMBAICA_CA@MUMBAICA_mail.com
                serial:EE:B1:37:EE:F6:D2:14:91

            Authority Information Access: 
                OCSP - URI:http://MUMBAICA_two.ocsptest.com/responderpath

    Signature Algorithm: sha256WithRSAEncryption
         c6:da:ce:32:1f:20:b3:bf:8c:5f:fd:37:92:34:18:ba:19:28:
         e8:93:ae:1d:36:a1:2c:61:10:6f:a1:c0:55:47:66:4f:8a:63:
         ba:61:61:b5:04:23:5a:ed:88:6b:fa:35:d3:6e:7a:f1:20:71:
         46:1f:e7:b7:24:52:c9:06:4c:ad:16:6f:20:b5:52:29:0d:40:
         e6:19:26:be:c4:cd:33:5d:67:78:d7:98:14:27:29:8e:f5:04:
         39:f1:ef:1d:8f:28:00:28:ab:c9:e5:fb:81:fe:0f:78:78:62:
         18:b0:79:cb:e4:fb:d7:c2:47:34:c1:8c:cb:ed:80:60:bd:c9:
         51:e9:34:cf:ec:6c:d8:46:4e:94:ad:cb:97:29:27:0f:50:21:
         9e:2b:6e:ca:c7:74:ac:de:7a:ad:2d:8d:f4:d9:3a:0e:e5:37:
         ea:04:fd:39:70:52:3e:92:f9:a3:f5:46:80:51:15:43:4c:15:
         1b:89:c3:14:2d:c3:a8:51:7d:7c:ce:84:db:3d:aa:77:fc:a5:
         e2:29:a4:af:a4:1b:4e:f7:c0:82:eb:a2:ec:98:1e:ed:3c:52:
         b7:54:18:b2:29:b9:fb:9c:f7:ec:f9:5f:9b:eb:d4:27:da:65:
         df:20:04:d8:fb:0f:d9:61:10:86:a8:25:32:3a:39:8b:a5:38:
         05:99:68:7f
-----BEGIN CERTIFICATE-----
MIIEpjCCA46gAwIBAgIGCgsMDQ4cMA0GCSqGSIb3DQEBCwUAMH0xFDASBgNVBAMU
C01VTUJBSUNBX0NBMQswCQYDVQQGEwJJTjEPMA0GA1UEChMGQ0lUUklYMQwwCgYD
VQQLEwNBTkcxCzAJBgNVBAgTAktBMSwwKgYJKoZIhvcNAQkBFh1NVU1CQUlDQV9D
QUBNVU1CQUlDQV9tYWlsLmNvbTAeFw0xNjA3MDgwNDM1NTBaFw0yNjA3MDYwNDM1
NTBaMHIxCzAJBgNVBAgTAktBMQswCQYDVQQGEwJJTjEcMBoGA1UEAxQTMTE0X01V
TUJBSUNBX3NlcnZlcjEnMCUGCSqGSIb3DQEJARYYMTE0X01VTUJBSUNBQHRlc3Rf
Y2EuY29tMQ8wDQYDVQQKEwZDSVRSSVgwggEiMA0GCSqGSIb3DQEBAQUAA4IBDwAw
ggEKAoIBAQDiERsjIHpu+2mzbRB2OT9EcFzu6o0wRZH5cXR4XfIWi1Hjtl1opmAa
HJa3zP4ksYkm+7ua0vLIkygUhPAXfffO926xKX5pEpLRzjTaPXrY5S3c5M0qJgop
anq2FqH8CMgkK+WyG/1ZAPuwImcoUr+Tr8SNV1QA3wwCgkE2mY+dZ9lAqSw4mLYU
H8dulHxBLFhCkzFxua6GSbfo6jzQuc3K5489h7dJrvkatxvtECnWlYNi8zxWAoav
tSfNImaaZfXGie+3vCKQI7+RhiZWxQQUHz1E9KFT23AeJWhtaZKnIVNVhxsw9j5m
ukaYcjgaYeIWuhedOPsnFmLALQuXcfvnAgMBAAGjggE1MIIBMTARBglghkgBhvhC
AQEEBAMCBkAwHQYDVR0OBBYEFHBv2PfD7uLd5+CFhyR4BLjla9X/MIGwBgNVHSME
gagwgaWAFDd5v2UZmCgyTu8+RBQZqYMrrwV6oYGBpH8wfTEUMBIGA1UEAxQLTVVN
QkFJQ0FfQ0ExCzAJBgNVBAYTAklOMQ8wDQYDVQQKEwZDSVRSSVgxDDAKBgNVBAsT
A0FORzELMAkGA1UECBMCS0ExLDAqBgkqhkiG9w0BCQEWHU1VTUJBSUNBX0NBQE1V
TUJBSUNBX21haWwuY29tggkA7rE37vbSFJEwSgYIKwYBBQUHAQEEPjA8MDoGCCsG
AQUFBzABhi5odHRwOi8vTVVNQkFJQ0FfdHdvLm9jc3B0ZXN0LmNvbS9yZXNwb25k
ZXJwYXRoMA0GCSqGSIb3DQEBCwUAA4IBAQDG2s4yHyCzv4xf/TeSNBi6GSjok64d
NqEsYRBvocBVR2ZPimO6YWG1BCNa7Yhr+jXTbnrxIHFGH+e3JFLJBkytFm8gtVIp
DUDmGSa+xM0zXWd415gUJymO9QQ58e8djygAKKvJ5fuB/g94eGIYsHnL5PvXwkc0
wYzL7YBgvclR6TTP7GzYRk6UrcuXKScPUCGeK27Kx3Ss3nqtLY302ToO5TfqBP05
cFI+kvmj9UaAURVDTBUbicMULcOoUX18zoTbPap3/KXiKaSvpBtO98CC66LsmB7t
PFK3VBiyKbn7nPfs+V+b69Qn2mXfIATY+w/ZYRCGqCUyOjmLpTgFmWh/
-----END CERTIFICATE-----
