Certificate:
    Data:
        Version: 3 (0x2)
        Serial Number: 11042563100190 (0xa0b0c0d0e1e)
    Signature Algorithm: sha256WithRSAEncryption
        Issuer: CN=MUMBAICA_CA, C=IN, O=CITRIX, OU=ANG, ST=KA/emailAddress=MUMBAICA_CA@MUMBAICA_mail.com
        Validity
            Not Before: Jul  8 04:35:50 2016 GMT
            Not After : Jul  6 04:35:50 2026 GMT
        Subject: ST=KA, C=IN, CN=116_MUMBAICA_server/emailAddress=116_MUMBAICA@test_ca.com, O=CITRIX
        Subject Public Key Info:
            Public Key Algorithm: rsaEncryption
                Public-Key: (2048 bit)
                Modulus:
                    00:bd:7f:ae:82:d5:c4:95:d0:74:62:fe:60:63:53:
                    45:8c:dd:79:cb:50:9e:ac:6c:f7:2e:c7:43:6c:20:
                    eb:23:f4:7b:b5:53:e0:82:c3:99:c6:08:c2:f0:76:
                    db:91:55:62:ba:ad:70:95:d3:53:91:92:34:67:a6:
                    d7:2b:37:35:bd:07:5c:42:00:08:23:55:35:2d:cb:
                    29:dc:3b:33:e5:47:e3:49:05:26:c6:65:94:1e:a2:
                    45:c6:7e:0a:53:67:a9:41:db:9d:ad:ee:c7:69:96:
                    21:be:ff:77:ba:5b:69:f6:13:2c:e2:e2:60:bb:67:
                    72:9b:b4:84:3b:81:f5:a1:42:6d:fb:5a:aa:28:f5:
                    41:f7:f0:b0:96:01:ae:b7:7f:42:a1:db:a3:db:dc:
                    d2:47:a2:e2:9d:ac:c9:c0:a5:a5:a1:2c:a1:69:14:
                    62:c1:40:be:8d:11:7e:0a:f5:16:21:51:b1:ab:93:
                    f0:e6:e5:5f:57:b1:a0:4e:15:70:2e:c6:e7:e2:a9:
                    02:cd:c1:12:29:e6:5e:a1:3e:be:10:42:4a:46:ef:
                    4b:85:da:8a:7b:98:8d:c1:a4:85:83:84:e5:ad:ef:
                    4f:2c:c8:0e:a1:1c:7b:0f:10:98:4e:18:76:9b:d4:
                    5a:e5:24:d5:35:7c:af:3d:c0:22:71:a8:32:ee:ec:
                    0f:33
                Exponent: 65537 (0x10001)
        X509v3 extensions:
            Netscape Cert Type: 
                SSL Server
            X509v3 Subject Key Identifier: 
                DD:5E:37:50:A8:93:AD:04:20:FE:EA:FB:58:4F:EB:BA:25:86:E4:32
            X509v3 Authority Key Identifier: 
                keyid:37:79:BF:65:19:98:28:32:4E:EF:3E:44:14:19:A9:83:2B:AF:05:7A
                DirName:/CN=MUMBAICA_CA/C=IN/O=CITRIX/OU=ANG/ST=KA/emailAddress=MUMBAICA_CA@MUMBAICA_mail.com
                serial:EE:B1:37:EE:F6:D2:14:91

            Authority Information Access: 
                OCSP - URI:http://MUMBAICA_two.ocsptest.com/responderpath

    Signature Algorithm: sha256WithRSAEncryption
         68:df:01:de:1d:55:06:b3:5c:7a:5d:77:25:95:73:1a:f2:2e:
         38:15:c9:99:85:e6:6c:c1:85:eb:c4:5a:fb:41:9c:d6:fa:86:
         1f:15:4f:ca:93:20:c1:71:3b:d8:06:58:d3:14:db:19:3b:e2:
         12:ba:dd:64:7e:14:a7:51:99:21:5f:c7:14:5e:65:3c:6d:49:
         8f:30:74:56:a4:67:b2:73:e3:67:3a:1f:04:0c:57:10:56:5b:
         41:80:ab:e9:56:05:c1:1a:a9:75:de:38:e7:b5:70:8b:ce:ab:
         ee:13:16:40:a7:46:f0:1a:e3:82:cd:57:1e:2e:fb:a8:59:a1:
         35:17:d4:b4:d6:0b:7c:ed:d5:b0:07:ac:07:28:cd:a5:cf:a4:
         b1:51:3f:d6:59:1b:57:c2:41:e1:c4:0c:29:74:00:c7:01:c7:
         0c:33:5e:ce:05:15:42:02:1f:61:af:b5:a4:61:4a:4c:02:a8:
         99:ac:39:d2:14:8f:db:19:a1:26:d1:98:07:92:a3:33:4a:18:
         55:0c:27:a6:26:28:92:45:6a:12:bc:d9:10:5a:10:6d:f5:bb:
         91:66:e5:4d:f5:17:d8:8c:57:e0:ac:db:e2:c0:41:e5:72:e8:
         00:5e:54:68:56:ee:3f:77:78:c4:b0:9a:5f:aa:d5:c9:20:eb:
         56:2d:26:73
-----BEGIN CERTIFICATE-----
MIIEpjCCA46gAwIBAgIGCgsMDQ4eMA0GCSqGSIb3DQEBCwUAMH0xFDASBgNVBAMU
C01VTUJBSUNBX0NBMQswCQYDVQQGEwJJTjEPMA0GA1UEChMGQ0lUUklYMQwwCgYD
VQQLEwNBTkcxCzAJBgNVBAgTAktBMSwwKgYJKoZIhvcNAQkBFh1NVU1CQUlDQV9D
QUBNVU1CQUlDQV9tYWlsLmNvbTAeFw0xNjA3MDgwNDM1NTBaFw0yNjA3MDYwNDM1
NTBaMHIxCzAJBgNVBAgTAktBMQswCQYDVQQGEwJJTjEcMBoGA1UEAxQTMTE2X01V
TUJBSUNBX3NlcnZlcjEnMCUGCSqGSIb3DQEJARYYMTE2X01VTUJBSUNBQHRlc3Rf
Y2EuY29tMQ8wDQYDVQQKEwZDSVRSSVgwggEiMA0GCSqGSIb3DQEBAQUAA4IBDwAw
ggEKAoIBAQC9f66C1cSV0HRi/mBjU0WM3XnLUJ6sbPcux0NsIOsj9Hu1U+CCw5nG
CMLwdtuRVWK6rXCV01ORkjRnptcrNzW9B1xCAAgjVTUtyyncOzPlR+NJBSbGZZQe
okXGfgpTZ6lB252t7sdpliG+/3e6W2n2Eyzi4mC7Z3KbtIQ7gfWhQm37Wqoo9UH3
8LCWAa63f0Kh26Pb3NJHouKdrMnApaWhLKFpFGLBQL6NEX4K9RYhUbGrk/Dm5V9X
saBOFXAuxufiqQLNwRIp5l6hPr4QQkpG70uF2op7mI3BpIWDhOWt708syA6hHHsP
EJhOGHab1FrlJNU1fK89wCJxqDLu7A8zAgMBAAGjggE1MIIBMTARBglghkgBhvhC
AQEEBAMCBkAwHQYDVR0OBBYEFN1eN1Cok60EIP7q+1hP67olhuQyMIGwBgNVHSME
gagwgaWAFDd5v2UZmCgyTu8+RBQZqYMrrwV6oYGBpH8wfTEUMBIGA1UEAxQLTVVN
QkFJQ0FfQ0ExCzAJBgNVBAYTAklOMQ8wDQYDVQQKEwZDSVRSSVgxDDAKBgNVBAsT
A0FORzELMAkGA1UECBMCS0ExLDAqBgkqhkiG9w0BCQEWHU1VTUJBSUNBX0NBQE1V
TUJBSUNBX21haWwuY29tggkA7rE37vbSFJEwSgYIKwYBBQUHAQEEPjA8MDoGCCsG
AQUFBzABhi5odHRwOi8vTVVNQkFJQ0FfdHdvLm9jc3B0ZXN0LmNvbS9yZXNwb25k
ZXJwYXRoMA0GCSqGSIb3DQEBCwUAA4IBAQBo3wHeHVUGs1x6XXcllXMa8i44FcmZ
heZswYXrxFr7QZzW+oYfFU/KkyDBcTvYBljTFNsZO+ISut1kfhSnUZkhX8cUXmU8
bUmPMHRWpGeyc+NnOh8EDFcQVltBgKvpVgXBGql13jjntXCLzqvuExZAp0bwGuOC
zVceLvuoWaE1F9S01gt87dWwB6wHKM2lz6SxUT/WWRtXwkHhxAwpdADHAccMM17O
BRVCAh9hr7WkYUpMAqiZrDnSFI/bGaEm0ZgHkqMzShhVDCemJiiSRWoSvNkQWhBt
9buRZuVN9RfYjFfgrNviwEHlcugAXlRoVu4/d3jEsJpfqtXJIOtWLSZz
-----END CERTIFICATE-----
