Certificate:
    Data:
        Version: 3 (0x2)
        Serial Number: 11042563100195 (0xa0b0c0d0e23)
    Signature Algorithm: sha256WithRSAEncryption
        Issuer: CN=MUMBAICA_CA, C=IN, O=CITRIX, OU=ANG, ST=KA/emailAddress=MUMBAICA_CA@MUMBAICA_mail.com
        Validity
            Not Before: Jul  8 04:35:52 2016 GMT
            Not After : Jul  6 04:35:52 2026 GMT
        Subject: ST=KA, C=IN, CN=121_MUMBAICA_server/emailAddress=121_MUMBAICA@test_ca.com, O=CITRIX
        Subject Public Key Info:
            Public Key Algorithm: rsaEncryption
                Public-Key: (2048 bit)
                Modulus:
                    00:c9:ee:31:48:e0:16:99:25:37:a0:9c:1f:38:cf:
                    bf:ae:26:0c:75:df:65:48:3b:2d:66:aa:4b:61:c3:
                    ee:db:35:5a:6d:11:89:a7:1a:86:fb:cc:47:20:fd:
                    18:2c:5c:d5:85:bc:2d:04:11:93:cf:33:af:53:9c:
                    80:a4:17:5a:0a:12:cb:42:0b:00:7c:26:9b:9a:75:
                    c0:7e:0e:64:ca:9b:51:60:0d:8c:c4:8c:a3:bb:c2:
                    ab:64:7e:68:aa:87:a6:bc:74:0f:30:b7:b7:4c:bf:
                    00:3f:cd:11:27:47:d8:50:b6:55:40:9e:0e:33:56:
                    59:fa:35:59:87:61:e2:df:80:28:6c:a5:d5:9a:58:
                    16:6e:e7:1f:39:5a:30:e9:a5:15:77:c7:d5:fe:0a:
                    e3:af:dc:94:d1:7f:ea:49:3a:df:1b:43:a3:54:59:
                    25:c9:61:b2:d6:bc:54:43:1e:8d:e1:17:4d:15:0a:
                    d1:b0:8d:c7:e0:f1:3e:57:77:7b:d0:e0:da:04:fb:
                    39:56:6d:a0:78:c8:26:04:30:ec:4b:21:f1:09:6f:
                    7f:78:29:2a:8e:98:aa:15:c3:fa:5b:cd:80:44:83:
                    67:8f:38:09:be:14:87:18:53:2b:b4:76:86:74:eb:
                    99:bf:73:3e:66:9f:b4:62:5a:a4:4b:fe:d9:9c:30:
                    e7:d3
                Exponent: 65537 (0x10001)
        X509v3 extensions:
            Netscape Cert Type: 
                SSL Server
            X509v3 Subject Key Identifier: 
                1B:EF:A8:03:9A:A7:53:B3:95:24:C5:ED:CC:FA:F9:42:02:D1:4F:5E
            X509v3 Authority Key Identifier: 
                keyid:37:79:BF:65:19:98:28:32:4E:EF:3E:44:14:19:A9:83:2B:AF:05:7A
                DirName:/CN=MUMBAICA_CA/C=IN/O=CITRIX/OU=ANG/ST=KA/emailAddress=MUMBAICA_CA@MUMBAICA_mail.com
                serial:EE:B1:37:EE:F6:D2:14:91

            Authority Information Access: 
                OCSP - URI:http://172.23.10.1/responderpath

    Signature Algorithm: sha256WithRSAEncryption
         25:72:d2:24:0e:97:02:a3:93:88:64:71:6f:b5:6b:b7:e9:9f:
         81:ea:e9:2b:56:c8:82:60:19:84:2b:da:93:36:b5:d8:9b:e4:
         a1:63:82:53:67:2d:a3:ce:ad:3f:7a:3c:fe:41:21:22:d9:54:
         64:dc:85:d2:35:85:b5:55:ff:47:3a:b0:b9:11:a7:54:9b:d5:
         42:ea:eb:2e:ef:bf:12:10:34:7e:21:e3:63:00:c6:25:30:3e:
         d7:d9:41:6b:43:24:44:d1:31:90:d5:79:56:37:66:7d:12:48:
         05:8f:4f:9c:d2:2f:e8:22:0e:d8:a2:e7:40:92:86:22:30:4b:
         10:12:c0:da:de:fa:92:ca:e8:6b:e3:20:1d:45:36:0b:3e:08:
         62:e6:17:29:a3:f4:63:84:43:d7:ad:e9:40:0b:94:63:97:d0:
         36:ea:54:fd:bb:0a:0d:c8:a0:98:8f:80:bf:9e:8c:8a:12:ad:
         79:e3:04:a6:98:16:c6:d8:44:1c:83:68:2f:88:32:15:ac:77:
         33:44:f8:32:83:dc:91:57:f0:55:fd:f6:42:10:0a:a5:4a:30:
         49:f4:44:db:80:d9:32:7e:b1:00:94:68:2a:04:8b:5f:a8:c0:
         cd:cb:3c:71:3e:59:98:30:3d:f7:c9:b4:29:27:e5:d4:dd:07:
         64:dc:07:25
-----BEGIN CERTIFICATE-----
MIIEmDCCA4CgAwIBAgIGCgsMDQ4jMA0GCSqGSIb3DQEBCwUAMH0xFDASBgNVBAMU
C01VTUJBSUNBX0NBMQswCQYDVQQGEwJJTjEPMA0GA1UEChMGQ0lUUklYMQwwCgYD
VQQLEwNBTkcxCzAJBgNVBAgTAktBMSwwKgYJKoZIhvcNAQkBFh1NVU1CQUlDQV9D
QUBNVU1CQUlDQV9tYWlsLmNvbTAeFw0xNjA3MDgwNDM1NTJaFw0yNjA3MDYwNDM1
NTJaMHIxCzAJBgNVBAgTAktBMQswCQYDVQQGEwJJTjEcMBoGA1UEAxQTMTIxX01V
TUJBSUNBX3NlcnZlcjEnMCUGCSqGSIb3DQEJARYYMTIxX01VTUJBSUNBQHRlc3Rf
Y2EuY29tMQ8wDQYDVQQKEwZDSVRSSVgwggEiMA0GCSqGSIb3DQEBAQUAA4IBDwAw
ggEKAoIBAQDJ7jFI4BaZJTegnB84z7+uJgx132VIOy1mqkthw+7bNVptEYmnGob7
zEcg/RgsXNWFvC0EEZPPM69TnICkF1oKEstCCwB8JpuadcB+DmTKm1FgDYzEjKO7
wqtkfmiqh6a8dA8wt7dMvwA/zREnR9hQtlVAng4zVln6NVmHYeLfgChspdWaWBZu
5x85WjDppRV3x9X+CuOv3JTRf+pJOt8bQ6NUWSXJYbLWvFRDHo3hF00VCtGwjcfg
8T5Xd3vQ4NoE+zlWbaB4yCYEMOxLIfEJb394KSqOmKoVw/pbzYBEg2ePOAm+FIcY
Uyu0doZ065m/cz5mn7RiWqRL/tmcMOfTAgMBAAGjggEnMIIBIzARBglghkgBhvhC
AQEEBAMCBkAwHQYDVR0OBBYEFBvvqAOap1OzlSTF7cz6+UIC0U9eMIGwBgNVHSME
gagwgaWAFDd5v2UZmCgyTu8+RBQZqYMrrwV6oYGBpH8wfTEUMBIGA1UEAxQLTVVN
QkFJQ0FfQ0ExCzAJBgNVBAYTAklOMQ8wDQYDVQQKEwZDSVRSSVgxDDAKBgNVBAsT
A0FORzELMAkGA1UECBMCS0ExLDAqBgkqhkiG9w0BCQEWHU1VTUJBSUNBX0NBQE1V
TUJBSUNBX21haWwuY29tggkA7rE37vbSFJEwPAYIKwYBBQUHAQEEMDAuMCwGCCsG
AQUFBzABhiBodHRwOi8vMTcyLjIzLjEwLjEvcmVzcG9uZGVycGF0aDANBgkqhkiG
9w0BAQsFAAOCAQEAJXLSJA6XAqOTiGRxb7Vrt+mfgerpK1bIgmAZhCvakza12Jvk
oWOCU2cto86tP3o8/kEhItlUZNyF0jWFtVX/RzqwuRGnVJvVQurrLu+/EhA0fiHj
YwDGJTA+19lBa0MkRNExkNV5VjdmfRJIBY9PnNIv6CIO2KLnQJKGIjBLEBLA2t76
ksroa+MgHUU2Cz4IYuYXKaP0Y4RD163pQAuUY5fQNupU/bsKDcigmI+Av56MihKt
eeMEppgWxthEHINoL4gyFax3M0T4MoPckVfwVf32QhAKpUowSfRE24DZMn6xAJRo
KgSLX6jAzcs8cT5ZmDA998m0KSfl1N0HZNwHJQ==
-----END CERTIFICATE-----
