Certificate:
    Data:
        Version: 3 (0x2)
        Serial Number: 11042563100202 (0xa0b0c0d0e2a)
    Signature Algorithm: sha256WithRSAEncryption
        Issuer: CN=MUMBAICA_CA, C=IN, O=CITRIX, OU=ANG, ST=KA/emailAddress=MUMBAICA_CA@MUMBAICA_mail.com
        Validity
            Not Before: Jul  8 04:35:53 2016 GMT
            Not After : Jul  6 04:35:53 2026 GMT
        Subject: ST=KA, C=IN, CN=128_MUMBAICA_server/emailAddress=128_MUMBAICA@test_ca.com, O=CITRIX
        Subject Public Key Info:
            Public Key Algorithm: rsaEncryption
                Public-Key: (2048 bit)
                Modulus:
                    00:ab:58:e3:13:2b:a4:30:cd:ea:a8:7a:54:8b:32:
                    17:65:c7:42:6d:0a:2c:59:f8:38:72:ff:9d:1b:24:
                    c0:fa:bf:b4:48:ba:e8:bc:fb:d3:c9:ab:2f:12:9f:
                    c7:98:78:ff:9a:1f:b9:44:12:e5:aa:ac:43:34:71:
                    7b:f1:36:a3:2e:39:ee:27:d5:06:13:aa:13:57:db:
                    2d:ca:e5:6b:bf:5c:1b:96:ee:73:cb:9f:cb:ae:55:
                    fe:25:05:39:d0:29:fd:d8:14:b2:7f:9c:03:45:c2:
                    40:81:03:a9:12:e6:57:26:39:33:fd:af:53:93:7c:
                    81:a2:05:6a:91:1a:31:54:15:bc:8d:fb:c4:d7:7e:
                    8e:f0:2f:56:e2:f0:3e:e5:7a:d5:2c:51:67:b6:ba:
                    10:a0:38:96:b8:b5:b9:d0:f2:84:42:5a:fb:9f:3d:
                    44:62:28:95:8d:71:35:09:f8:97:67:8a:d3:7a:55:
                    7f:83:57:bd:71:c2:50:2e:d6:32:bb:57:99:ba:70:
                    a9:a5:0a:b7:db:d4:2b:59:58:c9:3f:65:88:ac:e8:
                    35:11:f6:41:7e:06:38:e8:8f:cc:6a:ae:80:2a:fe:
                    13:cd:06:c2:d1:47:36:c0:90:4c:f7:52:af:8e:6b:
                    9d:97:cd:36:60:f9:49:35:6c:2b:52:ef:57:2f:ca:
                    c7:05
                Exponent: 65537 (0x10001)
        X509v3 extensions:
            Netscape Cert Type: 
                SSL Server
            X509v3 Subject Key Identifier: 
                19:3B:60:EC:0C:1E:B9:00:63:2E:F1:62:86:9E:38:32:34:8F:A0:F7
            X509v3 Authority Key Identifier: 
                keyid:37:79:BF:65:19:98:28:32:4E:EF:3E:44:14:19:A9:83:2B:AF:05:7A
                DirName:/CN=MUMBAICA_CA/C=IN/O=CITRIX/OU=ANG/ST=KA/emailAddress=MUMBAICA_CA@MUMBAICA_mail.com
                serial:EE:B1:37:EE:F6:D2:14:91

            Authority Information Access: 
                OCSP - URI:http://172.23.10.1/responderpath

    Signature Algorithm: sha256WithRSAEncryption
         cb:aa:5a:89:e4:fc:0c:3f:98:74:97:10:30:b9:4a:f2:c5:18:
         72:c9:4d:cc:c2:99:71:3e:dc:b2:77:18:b0:1b:06:d4:17:ad:
         f5:f4:41:93:e1:ba:39:c1:a6:5c:b1:b7:fb:c7:03:db:bb:c9:
         63:4d:cf:e9:34:f3:d3:e3:c3:fe:f6:4e:05:63:ba:88:93:de:
         74:5f:d0:de:04:33:fc:b1:a1:75:25:c0:1e:6c:37:14:4f:d6:
         84:fd:8e:33:5f:18:0c:e7:a1:32:56:7c:f9:59:10:33:0c:1e:
         89:0d:df:79:ed:f8:88:2c:01:1a:4f:ee:e0:47:5a:ee:d8:80:
         53:c5:6f:b1:7d:40:1d:d2:3f:56:78:ad:1b:c5:26:e5:7b:34:
         6d:c9:3e:54:2a:6a:26:bc:5e:63:b7:5e:a6:7b:e6:0f:86:55:
         e4:06:8c:ef:a6:01:c6:d7:e6:fc:92:82:86:81:f8:a3:4a:69:
         2e:31:8b:b7:ef:35:1b:30:0a:46:42:74:3c:9e:86:83:ea:ef:
         2a:9c:46:5e:b5:5f:30:19:7d:d0:da:ce:bd:cc:0c:57:c7:b6:
         a8:b9:4c:3b:9b:5a:6b:50:50:c4:73:10:9a:3b:08:58:bc:5a:
         5c:7f:df:c1:6d:7c:2b:9b:c4:5b:f8:04:8b:1a:4f:14:86:e4:
         29:2f:56:4a
-----BEGIN CERTIFICATE-----
MIIEmDCCA4CgAwIBAgIGCgsMDQ4qMA0GCSqGSIb3DQEBCwUAMH0xFDASBgNVBAMU
C01VTUJBSUNBX0NBMQswCQYDVQQGEwJJTjEPMA0GA1UEChMGQ0lUUklYMQwwCgYD
VQQLEwNBTkcxCzAJBgNVBAgTAktBMSwwKgYJKoZIhvcNAQkBFh1NVU1CQUlDQV9D
QUBNVU1CQUlDQV9tYWlsLmNvbTAeFw0xNjA3MDgwNDM1NTNaFw0yNjA3MDYwNDM1
NTNaMHIxCzAJBgNVBAgTAktBMQswCQYDVQQGEwJJTjEcMBoGA1UEAxQTMTI4X01V
TUJBSUNBX3NlcnZlcjEnMCUGCSqGSIb3DQEJARYYMTI4X01VTUJBSUNBQHRlc3Rf
Y2EuY29tMQ8wDQYDVQQKEwZDSVRSSVgwggEiMA0GCSqGSIb3DQEBAQUAA4IBDwAw
ggEKAoIBAQCrWOMTK6QwzeqoelSLMhdlx0JtCixZ+Dhy/50bJMD6v7RIuui8+9PJ
qy8Sn8eYeP+aH7lEEuWqrEM0cXvxNqMuOe4n1QYTqhNX2y3K5Wu/XBuW7nPLn8uu
Vf4lBTnQKf3YFLJ/nANFwkCBA6kS5lcmOTP9r1OTfIGiBWqRGjFUFbyN+8TXfo7w
L1bi8D7letUsUWe2uhCgOJa4tbnQ8oRCWvufPURiKJWNcTUJ+JdnitN6VX+DV71x
wlAu1jK7V5m6cKmlCrfb1CtZWMk/ZYis6DUR9kF+Bjjoj8xqroAq/hPNBsLRRzbA
kEz3Uq+Oa52XzTZg+Uk1bCtS71cvyscFAgMBAAGjggEnMIIBIzARBglghkgBhvhC
AQEEBAMCBkAwHQYDVR0OBBYEFBk7YOwMHrkAYy7xYoaeODI0j6D3MIGwBgNVHSME
gagwgaWAFDd5v2UZmCgyTu8+RBQZqYMrrwV6oYGBpH8wfTEUMBIGA1UEAxQLTVVN
QkFJQ0FfQ0ExCzAJBgNVBAYTAklOMQ8wDQYDVQQKEwZDSVRSSVgxDDAKBgNVBAsT
A0FORzELMAkGA1UECBMCS0ExLDAqBgkqhkiG9w0BCQEWHU1VTUJBSUNBX0NBQE1V
TUJBSUNBX21haWwuY29tggkA7rE37vbSFJEwPAYIKwYBBQUHAQEEMDAuMCwGCCsG
AQUFBzABhiBodHRwOi8vMTcyLjIzLjEwLjEvcmVzcG9uZGVycGF0aDANBgkqhkiG
9w0BAQsFAAOCAQEAy6paieT8DD+YdJcQMLlK8sUYcslNzMKZcT7csncYsBsG1Bet
9fRBk+G6OcGmXLG3+8cD27vJY03P6TTz0+PD/vZOBWO6iJPedF/Q3gQz/LGhdSXA
Hmw3FE/WhP2OM18YDOehMlZ8+VkQMwweiQ3fee34iCwBGk/u4Eda7tiAU8VvsX1A
HdI/VnitG8Um5Xs0bck+VCpqJrxeY7depnvmD4ZV5AaM76YBxtfm/JKChoH4o0pp
LjGLt+81GzAKRkJ0PJ6Gg+rvKpxGXrVfMBl90NrOvcwMV8e2qLlMO5taa1BQxHMQ
mjsIWLxaXH/fwW18K5vEW/gEixpPFIbkKS9WSg==
-----END CERTIFICATE-----
