Certificate:
    Data:
        Version: 3 (0x2)
        Serial Number: 11042563100203 (0xa0b0c0d0e2b)
    Signature Algorithm: sha256WithRSAEncryption
        Issuer: CN=MUMBAICA_CA, C=IN, O=CITRIX, OU=ANG, ST=KA/emailAddress=MUMBAICA_CA@MUMBAICA_mail.com
        Validity
            Not Before: Jul  8 04:35:53 2016 GMT
            Not After : Jul  6 04:35:53 2026 GMT
        Subject: ST=KA, C=IN, CN=129_MUMBAICA_server/emailAddress=129_MUMBAICA@test_ca.com, O=CITRIX
        Subject Public Key Info:
            Public Key Algorithm: rsaEncryption
                Public-Key: (2048 bit)
                Modulus:
                    00:d9:63:4d:63:af:23:2d:4f:38:7d:94:5f:ef:66:
                    07:d3:17:b5:63:0b:db:c6:b9:c4:84:c8:6d:dd:3c:
                    42:e5:66:88:c8:0c:8f:a4:89:2c:0c:c8:d1:18:a0:
                    ce:ed:45:e8:fe:b0:32:15:a7:14:a0:d3:20:70:e6:
                    e1:af:f2:ca:d8:f7:33:a8:d9:4d:b7:2d:34:a3:ea:
                    84:b9:ff:d5:e9:b9:5b:61:09:d1:03:00:4e:56:dd:
                    f5:57:39:d9:7a:60:5b:5c:71:ca:4f:06:a1:b0:dd:
                    b4:a2:b2:ad:d5:c9:d4:4f:c1:82:74:77:b8:a5:33:
                    62:be:82:77:7a:05:c2:0f:fa:9e:0b:12:0c:25:8d:
                    6c:28:fb:0f:4e:ef:7e:88:68:fb:29:8b:0c:d1:7d:
                    a3:6c:08:72:93:0b:57:28:14:a3:aa:ca:b6:73:28:
                    27:c2:b0:bb:f8:a6:2a:5d:7c:1d:0a:b2:3e:bc:2b:
                    bc:f8:f8:fa:a3:b3:3a:ca:aa:6f:bd:2d:24:87:7f:
                    f9:31:e9:4f:d0:38:de:85:41:43:3e:ea:0f:6c:5d:
                    e2:2c:b6:bb:1f:37:45:e9:99:69:e4:6f:5f:06:24:
                    41:c1:44:27:e9:79:bd:44:21:4b:df:17:45:0b:b4:
                    34:06:aa:30:40:ac:ae:69:15:cd:8f:06:50:60:f6:
                    99:95
                Exponent: 65537 (0x10001)
        X509v3 extensions:
            Netscape Cert Type: 
                SSL Server
            X509v3 Subject Key Identifier: 
                63:AB:35:6A:48:76:EE:72:B3:07:E0:E1:89:EE:8E:13:20:C9:E5:A5
            X509v3 Authority Key Identifier: 
                keyid:37:79:BF:65:19:98:28:32:4E:EF:3E:44:14:19:A9:83:2B:AF:05:7A
                DirName:/CN=MUMBAICA_CA/C=IN/O=CITRIX/OU=ANG/ST=KA/emailAddress=MUMBAICA_CA@MUMBAICA_mail.com
                serial:EE:B1:37:EE:F6:D2:14:91

            Authority Information Access: 
                OCSP - URI:http://172.23.10.1/responderpath

    Signature Algorithm: sha256WithRSAEncryption
         90:4c:02:1c:eb:6c:08:fa:c5:82:eb:94:8b:35:c6:82:2a:2a:
         7e:cb:16:d7:13:7f:13:58:2f:19:f7:e5:68:05:63:e4:4f:31:
         61:4d:d0:4e:29:c4:4a:ac:68:2b:7f:67:c4:07:37:37:1d:76:
         c0:65:2a:93:f1:bf:88:3b:5b:93:e0:a3:41:80:01:6a:32:44:
         30:83:85:1f:5f:db:17:ed:8d:88:1b:2b:52:ff:5f:e1:e2:a3:
         fe:a5:23:47:19:c5:6e:10:a2:b9:b6:7f:7b:3c:53:7f:16:53:
         ef:31:46:92:31:9b:49:df:e4:2e:9d:69:f5:05:04:4c:9e:a3:
         f9:6e:39:97:a8:34:6a:27:9a:e6:61:a0:b2:c6:35:e4:02:30:
         f8:a8:b2:f9:9f:81:45:45:78:fc:09:4c:43:5e:d6:4e:de:75:
         e5:f1:da:74:d8:49:f0:19:e3:a7:04:7f:8d:77:45:3e:f6:c1:
         95:2e:65:86:33:53:d3:e8:bd:b2:24:4d:fc:a0:48:fd:11:76:
         26:1d:cf:0c:8e:a3:9c:c2:b0:2c:4f:49:42:61:51:35:6c:b6:
         cd:1d:69:4a:09:bb:f4:73:4b:0d:ae:a2:cb:30:ef:97:8a:4f:
         21:41:c6:bd:6a:50:28:b5:55:80:5a:a6:88:1b:c5:ae:1c:c9:
         25:84:f1:62
-----BEGIN CERTIFICATE-----
MIIEmDCCA4CgAwIBAgIGCgsMDQ4rMA0GCSqGSIb3DQEBCwUAMH0xFDASBgNVBAMU
C01VTUJBSUNBX0NBMQswCQYDVQQGEwJJTjEPMA0GA1UEChMGQ0lUUklYMQwwCgYD
VQQLEwNBTkcxCzAJBgNVBAgTAktBMSwwKgYJKoZIhvcNAQkBFh1NVU1CQUlDQV9D
QUBNVU1CQUlDQV9tYWlsLmNvbTAeFw0xNjA3MDgwNDM1NTNaFw0yNjA3MDYwNDM1
NTNaMHIxCzAJBgNVBAgTAktBMQswCQYDVQQGEwJJTjEcMBoGA1UEAxQTMTI5X01V
TUJBSUNBX3NlcnZlcjEnMCUGCSqGSIb3DQEJARYYMTI5X01VTUJBSUNBQHRlc3Rf
Y2EuY29tMQ8wDQYDVQQKEwZDSVRSSVgwggEiMA0GCSqGSIb3DQEBAQUAA4IBDwAw
ggEKAoIBAQDZY01jryMtTzh9lF/vZgfTF7VjC9vGucSEyG3dPELlZojIDI+kiSwM
yNEYoM7tRej+sDIVpxSg0yBw5uGv8srY9zOo2U23LTSj6oS5/9XpuVthCdEDAE5W
3fVXOdl6YFtcccpPBqGw3bSisq3VydRPwYJ0d7ilM2K+gnd6BcIP+p4LEgwljWwo
+w9O736IaPspiwzRfaNsCHKTC1coFKOqyrZzKCfCsLv4pipdfB0Ksj68K7z4+Pqj
szrKqm+9LSSHf/kx6U/QON6FQUM+6g9sXeIstrsfN0XpmWnkb18GJEHBRCfpeb1E
IUvfF0ULtDQGqjBArK5pFc2PBlBg9pmVAgMBAAGjggEnMIIBIzARBglghkgBhvhC
AQEEBAMCBkAwHQYDVR0OBBYEFGOrNWpIdu5yswfg4YnujhMgyeWlMIGwBgNVHSME
gagwgaWAFDd5v2UZmCgyTu8+RBQZqYMrrwV6oYGBpH8wfTEUMBIGA1UEAxQLTVVN
QkFJQ0FfQ0ExCzAJBgNVBAYTAklOMQ8wDQYDVQQKEwZDSVRSSVgxDDAKBgNVBAsT
A0FORzELMAkGA1UECBMCS0ExLDAqBgkqhkiG9w0BCQEWHU1VTUJBSUNBX0NBQE1V
TUJBSUNBX21haWwuY29tggkA7rE37vbSFJEwPAYIKwYBBQUHAQEEMDAuMCwGCCsG
AQUFBzABhiBodHRwOi8vMTcyLjIzLjEwLjEvcmVzcG9uZGVycGF0aDANBgkqhkiG
9w0BAQsFAAOCAQEAkEwCHOtsCPrFguuUizXGgioqfssW1xN/E1gvGfflaAVj5E8x
YU3QTinESqxoK39nxAc3Nx12wGUqk/G/iDtbk+CjQYABajJEMIOFH1/bF+2NiBsr
Uv9f4eKj/qUjRxnFbhCiubZ/ezxTfxZT7zFGkjGbSd/kLp1p9QUETJ6j+W45l6g0
aiea5mGgssY15AIw+Kiy+Z+BRUV4/AlMQ17WTt515fHadNhJ8BnjpwR/jXdFPvbB
lS5lhjNT0+i9siRN/KBI/RF2Jh3PDI6jnMKwLE9JQmFRNWy2zR1pSgm79HNLDa6i
yzDvl4pPIUHGvWpQKLVVgFqmiBvFrhzJJYTxYg==
-----END CERTIFICATE-----
