Certificate:
    Data:
        Version: 3 (0x2)
        Serial Number: 11042563100204 (0xa0b0c0d0e2c)
    Signature Algorithm: sha256WithRSAEncryption
        Issuer: CN=MUMBAICA_CA, C=IN, O=CITRIX, OU=ANG, ST=KA/emailAddress=MUMBAICA_CA@MUMBAICA_mail.com
        Validity
            Not Before: Jul  8 04:35:54 2016 GMT
            Not After : Jul  6 04:35:54 2026 GMT
        Subject: ST=KA, C=IN, CN=130_MUMBAICA_server/emailAddress=130_MUMBAICA@test_ca.com, O=CITRIX
        Subject Public Key Info:
            Public Key Algorithm: rsaEncryption
                Public-Key: (2048 bit)
                Modulus:
                    00:bf:c1:31:26:f3:56:1e:0f:f6:d7:ad:36:78:39:
                    1c:bf:5f:7a:fd:e1:9e:92:9e:6e:78:64:b7:fa:7b:
                    05:87:80:f1:26:74:ab:8a:37:c5:f4:19:f9:cc:ff:
                    68:52:f0:ad:4c:54:16:b8:55:26:ac:59:b5:aa:e7:
                    0f:a7:15:93:1a:3a:fd:50:9f:ca:07:dd:a4:bd:0f:
                    ca:bf:36:ec:89:8d:56:54:99:4e:96:eb:17:76:93:
                    86:26:cf:7f:41:24:61:88:b2:7d:70:f9:8d:a2:4e:
                    03:63:cf:a2:67:8d:8c:f0:4e:11:d1:55:0d:73:4d:
                    23:ef:29:a4:44:51:c0:7b:2a:4a:e5:d7:31:ed:a6:
                    d9:0e:0d:0c:21:ba:05:8f:48:4a:e6:c2:63:fa:e1:
                    cf:94:18:aa:1f:ff:f2:5c:8b:93:fb:7b:d5:45:aa:
                    f6:0e:5d:94:c9:e9:d8:42:0e:df:43:fe:ac:51:b4:
                    34:39:9f:6a:03:2b:10:8c:5b:b8:08:ba:d8:9e:26:
                    1d:0d:28:a0:1c:b5:da:f7:7b:4c:89:33:ef:41:d1:
                    d2:f2:f5:b1:13:c8:54:df:df:e3:04:fc:d1:f1:70:
                    e0:bc:13:b1:5f:32:7a:fa:13:6a:86:c5:80:51:c2:
                    14:e2:a0:62:63:92:9f:8c:80:1b:2c:7c:9d:04:6a:
                    2f:1f
                Exponent: 65537 (0x10001)
        X509v3 extensions:
            Netscape Cert Type: 
                SSL Server
            X509v3 Subject Key Identifier: 
                CF:BF:98:5C:F6:4A:8C:17:BA:BF:E4:F6:C6:30:44:1C:0D:6D:EB:95
            X509v3 Authority Key Identifier: 
                keyid:37:79:BF:65:19:98:28:32:4E:EF:3E:44:14:19:A9:83:2B:AF:05:7A
                DirName:/CN=MUMBAICA_CA/C=IN/O=CITRIX/OU=ANG/ST=KA/emailAddress=MUMBAICA_CA@MUMBAICA_mail.com
                serial:EE:B1:37:EE:F6:D2:14:91

            Authority Information Access: 
                OCSP - URI:http://172.23.10.1/responderpath

    Signature Algorithm: sha256WithRSAEncryption
         25:bc:0b:4a:91:69:3d:62:1d:83:50:41:91:a2:dc:16:23:e4:
         c2:70:fd:e4:39:f8:9a:21:eb:47:f3:02:1a:54:c9:4a:2b:a9:
         d4:f4:60:44:21:4c:2e:89:e2:f5:e1:ba:18:73:1f:4f:54:6c:
         b2:90:a4:7e:c8:16:e0:97:3c:b4:81:3f:f1:a3:3c:ba:24:67:
         19:0e:be:84:5e:4b:68:b8:f1:34:d4:02:e5:f8:fa:63:a9:72:
         b9:e1:ca:c9:ff:3e:92:c7:71:40:21:35:ea:39:5c:14:ff:14:
         1d:42:58:c0:05:9a:ea:15:29:ee:ce:b7:d5:f5:38:c2:38:f4:
         b8:79:20:16:64:d6:a8:28:ed:a3:15:46:bd:a7:e2:df:17:88:
         53:ed:c4:75:e6:aa:b0:0e:0a:91:08:e9:81:76:c5:e4:f8:b9:
         42:14:15:f4:a4:3f:9b:79:c2:9b:93:d0:59:21:b5:11:bd:c5:
         b6:68:40:a3:59:ea:72:76:6b:1f:6a:2d:fc:a8:eb:d2:e5:69:
         82:e5:8d:0f:b4:c6:c0:7a:33:3b:2b:f0:1f:3c:94:11:ab:d3:
         a5:16:a6:37:00:8f:51:04:b6:83:ad:47:20:b6:96:59:0a:7e:
         89:63:65:64:c7:3a:4d:29:9c:90:b8:e2:92:d0:cf:b1:fe:9f:
         73:e8:79:de
-----BEGIN CERTIFICATE-----
MIIEmDCCA4CgAwIBAgIGCgsMDQ4sMA0GCSqGSIb3DQEBCwUAMH0xFDASBgNVBAMU
C01VTUJBSUNBX0NBMQswCQYDVQQGEwJJTjEPMA0GA1UEChMGQ0lUUklYMQwwCgYD
VQQLEwNBTkcxCzAJBgNVBAgTAktBMSwwKgYJKoZIhvcNAQkBFh1NVU1CQUlDQV9D
QUBNVU1CQUlDQV9tYWlsLmNvbTAeFw0xNjA3MDgwNDM1NTRaFw0yNjA3MDYwNDM1
NTRaMHIxCzAJBgNVBAgTAktBMQswCQYDVQQGEwJJTjEcMBoGA1UEAxQTMTMwX01V
TUJBSUNBX3NlcnZlcjEnMCUGCSqGSIb3DQEJARYYMTMwX01VTUJBSUNBQHRlc3Rf
Y2EuY29tMQ8wDQYDVQQKEwZDSVRSSVgwggEiMA0GCSqGSIb3DQEBAQUAA4IBDwAw
ggEKAoIBAQC/wTEm81YeD/bXrTZ4ORy/X3r94Z6Snm54ZLf6ewWHgPEmdKuKN8X0
GfnM/2hS8K1MVBa4VSasWbWq5w+nFZMaOv1Qn8oH3aS9D8q/NuyJjVZUmU6W6xd2
k4Ymz39BJGGIsn1w+Y2iTgNjz6JnjYzwThHRVQ1zTSPvKaREUcB7Kkrl1zHtptkO
DQwhugWPSErmwmP64c+UGKof//Jci5P7e9VFqvYOXZTJ6dhCDt9D/qxRtDQ5n2oD
KxCMW7gIutieJh0NKKActdr3e0yJM+9B0dLy9bETyFTf3+ME/NHxcOC8E7FfMnr6
E2qGxYBRwhTioGJjkp+MgBssfJ0Eai8fAgMBAAGjggEnMIIBIzARBglghkgBhvhC
AQEEBAMCBkAwHQYDVR0OBBYEFM+/mFz2SowXur/k9sYwRBwNbeuVMIGwBgNVHSME
gagwgaWAFDd5v2UZmCgyTu8+RBQZqYMrrwV6oYGBpH8wfTEUMBIGA1UEAxQLTVVN
QkFJQ0FfQ0ExCzAJBgNVBAYTAklOMQ8wDQYDVQQKEwZDSVRSSVgxDDAKBgNVBAsT
A0FORzELMAkGA1UECBMCS0ExLDAqBgkqhkiG9w0BCQEWHU1VTUJBSUNBX0NBQE1V
TUJBSUNBX21haWwuY29tggkA7rE37vbSFJEwPAYIKwYBBQUHAQEEMDAuMCwGCCsG
AQUFBzABhiBodHRwOi8vMTcyLjIzLjEwLjEvcmVzcG9uZGVycGF0aDANBgkqhkiG
9w0BAQsFAAOCAQEAJbwLSpFpPWIdg1BBkaLcFiPkwnD95Dn4miHrR/MCGlTJSiup
1PRgRCFMLoni9eG6GHMfT1RsspCkfsgW4Jc8tIE/8aM8uiRnGQ6+hF5LaLjxNNQC
5fj6Y6lyueHKyf8+ksdxQCE16jlcFP8UHUJYwAWa6hUp7s631fU4wjj0uHkgFmTW
qCjtoxVGvafi3xeIU+3EdeaqsA4KkQjpgXbF5Pi5QhQV9KQ/m3nCm5PQWSG1Eb3F
tmhAo1nqcnZrH2ot/Kjr0uVpguWND7TGwHozOyvwHzyUEavTpRamNwCPUQS2g61H
ILaWWQp+iWNlZMc6TSmckLjiktDPsf6fc+h53g==
-----END CERTIFICATE-----
