Certificate:
    Data:
        Version: 3 (0x2)
        Serial Number: 11042563100206 (0xa0b0c0d0e2e)
    Signature Algorithm: sha256WithRSAEncryption
        Issuer: CN=MUMBAICA_CA, C=IN, O=CITRIX, OU=ANG, ST=KA/emailAddress=MUMBAICA_CA@MUMBAICA_mail.com
        Validity
            Not Before: Jul  8 04:35:54 2016 GMT
            Not After : Jul  6 04:35:54 2026 GMT
        Subject: ST=KA, C=IN, CN=132_MUMBAICA_server/emailAddress=132_MUMBAICA@test_ca.com, O=CITRIX
        Subject Public Key Info:
            Public Key Algorithm: rsaEncryption
                Public-Key: (2048 bit)
                Modulus:
                    00:c5:6f:8a:6d:af:6c:9f:af:97:18:a0:fb:bb:38:
                    a5:96:a2:7a:15:bb:71:e8:c3:e3:67:02:83:e4:a7:
                    67:51:cb:72:61:cd:a2:db:fa:d2:84:e7:de:12:e4:
                    3a:34:51:02:53:22:65:af:5c:0f:a3:79:c8:2d:8b:
                    37:36:07:1d:4b:72:d0:49:93:58:02:cc:a5:d6:79:
                    21:81:3d:49:93:30:9d:ae:f2:74:0e:3a:c8:87:1e:
                    d0:9a:2b:48:ff:bf:9d:5b:da:fb:20:f5:29:57:5f:
                    44:2a:35:49:92:16:ec:1c:34:ab:6d:2b:a2:23:a7:
                    05:b3:cf:ec:05:46:09:9d:2e:61:c8:d3:84:f9:57:
                    16:bd:cd:dd:90:e4:aa:ec:7f:c3:01:a9:81:81:dd:
                    04:6d:f9:a6:76:f3:12:10:ed:14:ee:f0:d1:38:c1:
                    8b:00:cd:49:ba:a3:36:03:20:d3:ee:46:b4:e2:f2:
                    26:18:a5:63:de:2f:35:af:50:bb:7f:39:94:63:22:
                    ba:6e:ff:f3:91:8a:1e:ff:ff:44:b3:d3:58:d4:b1:
                    fa:7f:17:5e:86:66:9e:6b:04:73:53:43:c5:f3:f5:
                    9c:60:78:dc:bb:fd:a8:4b:e9:4e:df:00:2b:d8:08:
                    6a:cb:b5:16:91:4f:5f:8f:fa:2d:a0:1f:bd:27:4d:
                    eb:41
                Exponent: 65537 (0x10001)
        X509v3 extensions:
            Netscape Cert Type: 
                SSL Server
            X509v3 Subject Key Identifier: 
                62:2E:B0:ED:42:10:3D:69:69:CC:E2:AE:4B:84:13:AA:B2:32:29:28
            X509v3 Authority Key Identifier: 
                keyid:37:79:BF:65:19:98:28:32:4E:EF:3E:44:14:19:A9:83:2B:AF:05:7A
                DirName:/CN=MUMBAICA_CA/C=IN/O=CITRIX/OU=ANG/ST=KA/emailAddress=MUMBAICA_CA@MUMBAICA_mail.com
                serial:EE:B1:37:EE:F6:D2:14:91

            Authority Information Access: 
                OCSP - URI:http://172.23.20.1/responderpath

    Signature Algorithm: sha256WithRSAEncryption
         19:72:e7:8e:be:be:cb:40:e4:fa:5e:ab:95:84:41:06:63:41:
         43:9c:22:9e:ab:96:15:51:d6:a3:2b:f2:72:42:b7:ba:08:2f:
         31:da:cf:74:01:24:a6:27:0c:b1:01:d7:93:15:5e:d6:27:e0:
         99:e0:a5:4a:75:3e:4c:78:e0:b3:c0:7d:9a:d1:11:cc:2c:de:
         16:92:90:82:9d:b4:a9:c3:d1:5c:2b:a0:e6:60:b5:ab:b3:4d:
         fb:2b:dd:53:98:cc:47:7e:1d:59:f0:e2:d0:e4:61:39:f7:8e:
         5d:0d:35:1a:d9:bb:12:d7:eb:70:ce:27:22:fd:de:aa:ef:55:
         9c:2c:97:b5:7d:93:8c:e4:f6:93:13:22:bd:3d:47:d2:3d:9e:
         1c:de:c4:74:d6:1e:7e:42:53:92:8d:bb:c0:51:6d:ca:2d:51:
         91:51:24:ab:4b:7f:04:3d:dd:f2:2d:e3:f0:af:92:cc:71:d1:
         4d:c3:7e:0a:cb:3a:9d:fe:4c:3a:0a:9c:90:65:8e:f3:59:44:
         b6:a9:4d:90:cc:04:c6:1d:76:9d:80:51:0b:9d:17:6b:a9:18:
         d8:18:73:7e:e1:2e:de:4d:bb:29:6f:16:ff:d4:fc:38:9d:6e:
         eb:cd:a7:6f:da:16:dd:03:53:1f:ac:1b:da:8d:34:a3:96:be:
         ae:56:f5:a4
-----BEGIN CERTIFICATE-----
MIIEmDCCA4CgAwIBAgIGCgsMDQ4uMA0GCSqGSIb3DQEBCwUAMH0xFDASBgNVBAMU
C01VTUJBSUNBX0NBMQswCQYDVQQGEwJJTjEPMA0GA1UEChMGQ0lUUklYMQwwCgYD
VQQLEwNBTkcxCzAJBgNVBAgTAktBMSwwKgYJKoZIhvcNAQkBFh1NVU1CQUlDQV9D
QUBNVU1CQUlDQV9tYWlsLmNvbTAeFw0xNjA3MDgwNDM1NTRaFw0yNjA3MDYwNDM1
NTRaMHIxCzAJBgNVBAgTAktBMQswCQYDVQQGEwJJTjEcMBoGA1UEAxQTMTMyX01V
TUJBSUNBX3NlcnZlcjEnMCUGCSqGSIb3DQEJARYYMTMyX01VTUJBSUNBQHRlc3Rf
Y2EuY29tMQ8wDQYDVQQKEwZDSVRSSVgwggEiMA0GCSqGSIb3DQEBAQUAA4IBDwAw
ggEKAoIBAQDFb4ptr2yfr5cYoPu7OKWWonoVu3How+NnAoPkp2dRy3JhzaLb+tKE
594S5Do0UQJTImWvXA+jecgtizc2Bx1LctBJk1gCzKXWeSGBPUmTMJ2u8nQOOsiH
HtCaK0j/v51b2vsg9SlXX0QqNUmSFuwcNKttK6IjpwWzz+wFRgmdLmHI04T5Vxa9
zd2Q5Krsf8MBqYGB3QRt+aZ28xIQ7RTu8NE4wYsAzUm6ozYDINPuRrTi8iYYpWPe
LzWvULt/OZRjIrpu//ORih7//0Sz01jUsfp/F16GZp5rBHNTQ8Xz9ZxgeNy7/ahL
6U7fACvYCGrLtRaRT1+P+i2gH70nTetBAgMBAAGjggEnMIIBIzARBglghkgBhvhC
AQEEBAMCBkAwHQYDVR0OBBYEFGIusO1CED1paczirkuEE6qyMikoMIGwBgNVHSME
gagwgaWAFDd5v2UZmCgyTu8+RBQZqYMrrwV6oYGBpH8wfTEUMBIGA1UEAxQLTVVN
QkFJQ0FfQ0ExCzAJBgNVBAYTAklOMQ8wDQYDVQQKEwZDSVRSSVgxDDAKBgNVBAsT
A0FORzELMAkGA1UECBMCS0ExLDAqBgkqhkiG9w0BCQEWHU1VTUJBSUNBX0NBQE1V
TUJBSUNBX21haWwuY29tggkA7rE37vbSFJEwPAYIKwYBBQUHAQEEMDAuMCwGCCsG
AQUFBzABhiBodHRwOi8vMTcyLjIzLjIwLjEvcmVzcG9uZGVycGF0aDANBgkqhkiG
9w0BAQsFAAOCAQEAGXLnjr6+y0Dk+l6rlYRBBmNBQ5winquWFVHWoyvyckK3uggv
MdrPdAEkpicMsQHXkxVe1ifgmeClSnU+THjgs8B9mtERzCzeFpKQgp20qcPRXCug
5mC1q7NN+yvdU5jMR34dWfDi0ORhOfeOXQ01Gtm7EtfrcM4nIv3equ9VnCyXtX2T
jOT2kxMivT1H0j2eHN7EdNYefkJTko27wFFtyi1RkVEkq0t/BD3d8i3j8K+SzHHR
TcN+Css6nf5MOgqckGWO81lEtqlNkMwExh12nYBRC50Xa6kY2BhzfuEu3k27KW8W
/9T8OJ1u682nb9oW3QNTH6wb2o00o5a+rlb1pA==
-----END CERTIFICATE-----
